(iModel.Document
Document
p0
(dp1
S'fmap'
p2
(lp3
(lp4
I0
aI7
aS'venetian'
p5
a(lp6
S'*'
p7
ag5
aaa(lp8
I0
aI7
ag5
a(lp9
g7
ag5
aaa(lp10
I0
aI7
ag5
a(lp11
g7
ag5
aaa(lp12
I0
aI7
ag5
a(lp13
g7
ag5
aaa(lp14
I9
aI14
aS'resort'
p15
a(lp16
g5
ag15
aaa(lp17
I9
aI14
ag15
a(lp18
g7
ag15
aaa(lp19
I9
aI14
ag15
a(lp20
g7
ag15
aaa(lp21
I9
aI14
ag15
a(lp22
g7
ag15
aaa(lp23
I16
aI27
aS'hotelcasino'
p24
a(lp25
g15
ag24
aaa(lp26
I16
aI27
ag24
a(lp27
g5
ag24
aaa(lp28
I16
aI27
ag24
a(lp29
g7
ag24
aaa(lp30
I16
aI27
ag24
a(lp31
g7
ag24
aaa(lp32
I29
aI32
aS'jobs'
p33
a(lp34
g24
ag33
aaa(lp35
I29
aI32
ag33
a(lp36
g15
ag33
aaa(lp37
I29
aI32
ag33
a(lp38
g5
ag33
aaa(lp39
I29
aI32
ag33
a(lp40
g7
ag33
aaa(lp41
I34
aI38
aS'forum'
p42
a(lp43
g33
ag42
aaa(lp44
I34
aI38
ag42
a(lp45
g24
ag42
aaa(lp46
I34
aI38
ag42
a(lp47
g15
ag42
aaa(lp48
I34
aI38
ag42
a(lp49
g5
ag42
aaa(lp50
I40
aI42
aS'get'
p51
a(lp52
g42
ag51
aaa(lp53
I40
aI42
ag51
a(lp54
g33
ag51
aaa(lp55
I40
aI42
ag51
a(lp56
g24
ag51
aaa(lp57
I40
aI42
ag51
a(lp58
g15
ag51
aaa(lp59
I44
aI46
aS'new'
p60
a(lp61
g51
ag60
aaa(lp62
I44
aI46
ag60
a(lp63
g42
ag60
aaa(lp64
I44
aI46
ag60
a(lp65
g33
ag60
aaa(lp66
I44
aI46
ag60
a(lp67
g24
ag60
aaa(lp68
I48
aI55
aS'comments'
p69
a(lp70
g60
ag69
aaa(lp71
I48
aI55
ag69
a(lp72
g51
ag69
aaa(lp73
I48
aI55
ag69
a(lp74
g42
ag69
aaa(lp75
I48
aI55
ag69
a(lp76
g33
ag69
aaa(lp77
I60
aI64
aS'email'
p78
a(lp79
g69
ag78
aaa(lp80
I60
aI64
ag78
a(lp81
g60
ag78
aaa(lp82
I60
aI64
ag78
a(lp83
g51
ag78
aaa(lp84
I60
aI64
ag78
a(lp85
g42
ag78
aaa(lp86
I69
aI73
aS'email'
p87
a(lp88
g78
ag87
aaa(lp89
I69
aI73
ag87
a(lp90
g69
ag87
aaa(lp91
I69
aI73
ag87
a(lp92
g60
ag87
aaa(lp93
I69
aI73
ag87
a(lp94
g51
ag87
aaa(lp95
I80
aI85
aS'always'
p96
a(lp97
g87
ag96
aaa(lp98
I80
aI85
ag96
a(lp99
g78
ag96
aaa(lp100
I80
aI85
ag96
a(lp101
g69
ag96
aaa(lp102
I80
aI85
ag96
a(lp103
g60
ag96
aaa(lp104
I87
aI90
aS'hard'
p105
a(lp106
g96
ag105
aaa(lp107
I87
aI90
ag105
a(lp108
g87
ag105
aaa(lp109
I87
aI90
ag105
a(lp110
g78
ag105
aaa(lp111
I87
aI90
ag105
a(lp112
g69
ag105
aaa(lp113
I95
aI98
aS'know'
p114
a(lp115
g105
ag114
aaa(lp116
I95
aI98
ag114
a(lp117
g96
ag114
aaa(lp118
I95
aI98
ag114
a(lp119
g87
ag114
aaa(lp120
I95
aI98
ag114
a(lp121
g78
ag114
aaa(lp122
I108
aI113
aS'expect'
p123
a(lp124
g114
ag123
aaa(lp125
I108
aI113
ag123
a(lp126
g105
ag123
aaa(lp127
I108
aI113
ag123
a(lp128
g96
ag123
aaa(lp129
I108
aI113
ag123
a(lp130
g87
ag123
aaa(lp131
I120
aI124
aS'going'
p132
a(lp133
g123
ag132
aaa(lp134
I120
aI124
ag132
a(lp135
g114
ag132
aaa(lp136
I120
aI124
ag132
a(lp137
g105
ag132
aaa(lp138
I120
aI124
ag132
a(lp139
g96
ag132
aaa(lp140
I138
aI146
aS'interview'
p141
a(lp142
g132
ag141
aaa(lp143
I138
aI146
ag141
a(lp144
g123
ag141
aaa(lp145
I138
aI146
ag141
a(lp146
g114
ag141
aaa(lp147
I138
aI146
ag141
a(lp148
g105
ag141
aaa(lp149
I155
aI165
aS'preparation'
p150
a(lp151
g141
ag150
aaa(lp152
I155
aI165
ag150
a(lp153
g132
ag150
aaa(lp154
I155
aI165
ag150
a(lp155
g123
ag150
aaa(lp156
I155
aI165
ag150
a(lp157
g114
ag150
aaa(lp158
I171
aI174
aS'make'
p159
a(lp160
g150
ag159
aaa(lp161
I171
aI174
ag159
a(lp162
g141
ag159
aaa(lp163
I171
aI174
ag159
a(lp164
g132
ag159
aaa(lp165
I171
aI174
ag159
a(lp166
g123
ag159
aaa(lp167
I184
aI193
aS'difference'
p168
a(lp169
g159
ag168
aaa(lp170
I184
aI193
ag168
a(lp171
g150
ag168
aaa(lp172
I184
aI193
ag168
a(lp173
g141
ag168
aaa(lp174
I184
aI193
ag168
a(lp175
g132
ag168
aaa(lp176
I208
aI216
aS'interview'
p177
a(lp178
g168
ag177
aaa(lp179
I208
aI216
ag177
a(lp180
g159
ag177
aaa(lp181
I208
aI216
ag177
a(lp182
g150
ag177
aaa(lp183
I208
aI216
ag177
a(lp184
g141
ag177
aaa(lp185
I221
aI224
aS'host'
p186
a(lp187
g177
ag186
aaa(lp188
I221
aI224
ag186
a(lp189
g168
ag186
aaa(lp190
I221
aI224
ag186
a(lp191
g159
ag186
aaa(lp192
I221
aI224
ag186
a(lp193
g150
ag186
aaa(lp194
I226
aI230
aS'every'
p195
a(lp196
g186
ag195
aaa(lp197
I226
aI230
ag195
a(lp198
g177
ag195
aaa(lp199
I226
aI230
ag195
a(lp200
g168
ag195
aaa(lp201
I226
aI230
ag195
a(lp202
g159
ag195
aaa(lp203
I232
aI239
aS'business'
p204
a(lp205
g195
ag204
aaa(lp206
I232
aI239
ag204
a(lp207
g186
ag204
aaa(lp208
I232
aI239
ag204
a(lp209
g177
ag204
aaa(lp210
I232
aI239
ag204
a(lp211
g168
ag204
aaa(lp212
I253
aI257
aS'style'
p213
a(lp214
g204
ag213
aaa(lp215
I253
aI257
ag213
a(lp216
g195
ag213
aaa(lp217
I253
aI257
ag213
a(lp218
g186
ag213
aaa(lp219
I253
aI257
ag213
a(lp220
g177
ag213
aaa(lp221
I272
aI277
aS'office'
p222
a(lp223
g213
ag222
aaa(lp224
I272
aI277
ag222
a(lp225
g204
ag222
aaa(lp226
I272
aI277
ag222
a(lp227
g195
ag222
aaa(lp228
I272
aI277
ag222
a(lp229
g186
ag222
aaa(lp230
I279
aI289
aS'environment'
p231
a(lp232
g222
ag231
aaa(lp233
I279
aI289
ag231
a(lp234
g213
ag231
aaa(lp235
I279
aI289
ag231
a(lp236
g204
ag231
aaa(lp237
I279
aI289
ag231
a(lp238
g195
ag231
aaa(lp239
I295
aI301
aS'culture'
p240
a(lp241
g231
ag240
aaa(lp242
I295
aI301
ag240
a(lp243
g222
ag240
aaa(lp244
I295
aI301
ag240
a(lp245
g213
ag240
aaa(lp246
I295
aI301
ag240
a(lp247
g204
ag240
aaa(lp248
I303
aI306
aS'like'
p249
a(lp250
g240
ag249
aaa(lp251
I303
aI306
ag249
a(lp252
g231
ag249
aaa(lp253
I303
aI306
ag249
a(lp254
g222
ag249
aaa(lp255
I303
aI306
ag249
a(lp256
g213
ag249
aaa(lp257
I311
aI318
aS'venetian'
p258
a(lp259
g249
ag258
aaa(lp260
I311
aI318
ag258
a(lp261
g240
ag258
aaa(lp262
I311
aI318
ag258
a(lp263
g231
ag258
aaa(lp264
I311
aI318
ag258
a(lp265
g222
ag258
aaa(lp266
I320
aI325
aS'resort'
p267
a(lp268
g258
ag267
aaa(lp269
I320
aI325
ag267
a(lp270
g249
ag267
aaa(lp271
I320
aI325
ag267
a(lp272
g240
ag267
aaa(lp273
I320
aI325
ag267
a(lp274
g231
ag267
aaa(lp275
I327
aI338
aS'hotelcasino'
p276
a(lp277
g267
ag276
aaa(lp278
I327
aI338
ag276
a(lp279
g258
ag276
aaa(lp280
I327
aI338
ag276
a(lp281
g249
ag276
aaa(lp282
I327
aI338
ag276
a(lp283
g240
ag276
aaa(lp284
I345
aI350
aS'people'
p285
a(lp286
g276
ag285
aaa(lp287
I345
aI350
ag285
a(lp288
g267
ag285
aaa(lp289
I345
aI350
ag285
a(lp290
g258
ag285
aaa(lp291
I345
aI350
ag285
a(lp292
g249
ag285
aaa(lp293
I352
aI358
aS'dressed'
p294
a(lp295
g285
ag294
aaa(lp296
I352
aI358
ag294
a(lp297
g276
ag294
aaa(lp298
I352
aI358
ag294
a(lp299
g267
ag294
aaa(lp300
I352
aI358
ag294
a(lp301
g258
ag294
aaa(lp302
I363
aI370
aS'business'
p303
a(lp304
g294
ag303
aaa(lp305
I363
aI370
ag303
a(lp306
g285
ag303
aaa(lp307
I363
aI370
ag303
a(lp308
g276
ag303
aaa(lp309
I363
aI370
ag303
a(lp310
g267
ag303
aaa(lp311
I375
aI378
aS'host'
p312
a(lp313
g303
ag312
aaa(lp314
I375
aI378
ag312
a(lp315
g294
ag312
aaa(lp316
I375
aI378
ag312
a(lp317
g285
ag312
aaa(lp318
I375
aI378
ag312
a(lp319
g276
ag312
aaa(lp320
I392
aI396
aS'think'
p321
a(lp322
g312
ag321
aaa(lp323
I392
aI396
ag321
a(lp324
g303
ag321
aaa(lp325
I392
aI396
ag321
a(lp326
g294
ag321
aaa(lp327
I392
aI396
ag321
a(lp328
g285
ag321
aaa(lp329
I405
aI412
aS'venetian'
p330
a(lp331
g321
ag330
aaa(lp332
I405
aI412
ag330
a(lp333
g312
ag330
aaa(lp334
I405
aI412
ag330
a(lp335
g303
ag330
aaa(lp336
I405
aI412
ag330
a(lp337
g294
ag330
aaa(lp338
I414
aI419
aS'resort'
p339
a(lp340
g330
ag339
aaa(lp341
I414
aI419
ag339
a(lp342
g321
ag339
aaa(lp343
I414
aI419
ag339
a(lp344
g312
ag339
aaa(lp345
I414
aI419
ag339
a(lp346
g303
ag339
aaa(lp347
I421
aI432
aS'hotelcasino'
p348
a(lp349
g339
ag348
aaa(lp350
I421
aI432
ag348
a(lp351
g330
ag348
aaa(lp352
I421
aI432
ag348
a(lp353
g321
ag348
aaa(lp354
I421
aI432
ag348
a(lp355
g312
ag348
aaa(lp356
I434
aI437
aS'grow'
p357
a(lp358
g348
ag357
aaa(lp359
I434
aI437
ag357
a(lp360
g339
ag357
aaa(lp361
I434
aI437
ag357
a(lp362
g330
ag357
aaa(lp363
I434
aI437
ag357
a(lp364
g321
ag357
aaa(lp365
I439
aI442
aS'fast'
p366
a(lp367
g357
ag366
aaa(lp368
I439
aI442
ag366
a(lp369
g348
ag366
aaa(lp370
I439
aI442
ag366
a(lp371
g339
ag366
aaa(lp372
I439
aI442
ag366
a(lp373
g330
ag366
aaa(lp374
I454
aI462
aS'expanding'
p375
a(lp376
g366
ag375
aaa(lp377
I454
aI462
ag375
a(lp378
g357
ag375
aaa(lp379
I454
aI462
ag375
a(lp380
g348
ag375
aaa(lp381
I454
aI462
ag375
a(lp382
g339
ag375
aaa(lp383
I470
aI474
aS'staff'
p384
a(lp385
g375
ag384
aaa(lp386
I470
aI474
ag384
a(lp387
g366
ag384
aaa(lp388
I470
aI474
ag384
a(lp389
g357
ag384
aaa(lp390
I470
aI474
ag384
a(lp391
g348
ag384
aaa(lp392
I486
aI493
aS'venetian'
p393
a(lp394
g384
ag393
aaa(lp395
I486
aI493
ag393
a(lp396
g375
ag393
aaa(lp397
I486
aI493
ag393
a(lp398
g366
ag393
aaa(lp399
I486
aI493
ag393
a(lp400
g357
ag393
aaa(lp401
I495
aI500
aS'resort'
p402
a(lp403
g393
ag402
aaa(lp404
I495
aI500
ag402
a(lp405
g384
ag402
aaa(lp406
I495
aI500
ag402
a(lp407
g375
ag402
aaa(lp408
I495
aI500
ag402
a(lp409
g366
ag402
aaa(lp410
I502
aI513
aS'hotelcasino'
p411
a(lp412
g402
ag411
aaa(lp413
I502
aI513
ag411
a(lp414
g393
ag411
aaa(lp415
I502
aI513
ag411
a(lp416
g384
ag411
aaa(lp417
I502
aI513
ag411
a(lp418
g375
ag411
aaa(lp419
I515
aI519
aS'stack'
p420
a(lp421
g411
ag420
aaa(lp422
I515
aI519
ag420
a(lp423
g402
ag420
aaa(lp424
I515
aI519
ag420
a(lp425
g393
ag420
aaa(lp426
I515
aI519
ag420
a(lp427
g384
ag420
aaa(lp428
I527
aI530
aS'host'
p429
a(lp430
g420
ag429
aaa(lp431
I527
aI530
ag429
a(lp432
g411
ag429
aaa(lp433
I527
aI530
ag429
a(lp434
g402
ag429
aaa(lp435
I527
aI530
ag429
a(lp436
g393
ag429
aaa(lp437
I545
aI551
aS'average'
p438
a(lp439
g429
ag438
aaa(lp440
I545
aI551
ag438
a(lp441
g420
ag438
aaa(lp442
I545
aI551
ag438
a(lp443
g411
ag438
aaa(lp444
I545
aI551
ag438
a(lp445
g402
ag438
aaa(lp446
I553
aI560
aS'starting'
p447
a(lp448
g438
ag447
aaa(lp449
I553
aI560
ag447
a(lp450
g429
ag447
aaa(lp451
I553
aI560
ag447
a(lp452
g420
ag447
aaa(lp453
I553
aI560
ag447
a(lp454
g411
ag447
aaa(lp455
I562
aI569
aS'salaries'
p456
a(lp457
g447
ag456
aaa(lp458
I562
aI569
ag456
a(lp459
g438
ag456
aaa(lp460
I562
aI569
ag456
a(lp461
g429
ag456
aaa(lp462
I562
aI569
ag456
a(lp463
g420
ag456
aaa(lp464
I572
aI578
aS'bonuses'
p465
a(lp466
g456
ag465
aaa(lp467
I572
aI578
ag465
a(lp468
g447
ag465
aaa(lp469
I572
aI578
ag465
a(lp470
g438
ag465
aaa(lp471
I572
aI578
ag465
a(lp472
g429
ag465
aaa(lp473
I581
aI588
aS'benefits'
p474
a(lp475
g465
ag474
aaa(lp476
I581
aI588
ag474
a(lp477
g456
ag474
aaa(lp478
I581
aI588
ag474
a(lp479
g447
ag474
aaa(lp480
I581
aI588
ag474
a(lp481
g438
ag474
aaa(lp482
I594
aI599
aS'travel'
p483
a(lp484
g474
ag483
aaa(lp485
I594
aI599
ag483
a(lp486
g465
ag483
aaa(lp487
I594
aI599
ag483
a(lp488
g456
ag483
aaa(lp489
I594
aI599
ag483
a(lp490
g447
ag483
aaa(lp491
I601
aI612
aS'requirements'
p492
a(lp493
g483
ag492
aaa(lp494
I601
aI612
ag492
a(lp495
g474
ag492
aaa(lp496
I601
aI612
ag492
a(lp497
g465
ag492
aaa(lp498
I601
aI612
ag492
a(lp499
g456
ag492
aaa(lp500
I614
aI617
aS'like'
p501
a(lp502
g492
ag501
aaa(lp503
I614
aI617
ag501
a(lp504
g483
ag501
aaa(lp505
I614
aI617
ag501
a(lp506
g474
ag501
aaa(lp507
I614
aI617
ag501
a(lp508
g465
ag501
aaa(lp509
I622
aI629
aS'venetian'
p510
a(lp511
g501
ag510
aaa(lp512
I622
aI629
ag510
a(lp513
g492
ag510
aaa(lp514
I622
aI629
ag510
a(lp515
g483
ag510
aaa(lp516
I622
aI629
ag510
a(lp517
g474
ag510
aaa(lp518
I631
aI636
aS'resort'
p519
a(lp520
g510
ag519
aaa(lp521
I631
aI636
ag519
a(lp522
g501
ag519
aaa(lp523
I631
aI636
ag519
a(lp524
g492
ag519
aaa(lp525
I631
aI636
ag519
a(lp526
g483
ag519
aaa(lp527
I638
aI649
aS'hotelcasino'
p528
a(lp529
g519
ag528
aaa(lp530
I638
aI649
ag528
a(lp531
g510
ag528
aaa(lp532
I638
aI649
ag528
a(lp533
g501
ag528
aaa(lp534
I638
aI649
ag528
a(lp535
g492
ag528
aaa(lp536
I664
aI667
aS'like'
p537
a(lp538
g528
ag537
aaa(lp539
I664
aI667
ag537
a(lp540
g519
ag537
aaa(lp541
I664
aI667
ag537
a(lp542
g510
ag537
aaa(lp543
I664
aI667
ag537
a(lp544
g501
ag537
aaa(lp545
I669
aI672
aS'best'
p546
a(lp547
g537
ag546
aaa(lp548
I669
aI672
ag546
a(lp549
g528
ag546
aaa(lp550
I669
aI672
ag546
a(lp551
g519
ag546
aaa(lp552
I669
aI672
ag546
a(lp553
g510
ag546
aaa(lp554
I683
aI686
aS'host'
p555
a(lp556
g546
ag555
aaa(lp557
I683
aI686
ag555
a(lp558
g537
ag555
aaa(lp559
I683
aI686
ag555
a(lp560
g528
ag555
aaa(lp561
I683
aI686
ag555
a(lp562
g519
ag555
aaa(lp563
I695
aI697
aS'get'
p564
a(lp565
g555
ag564
aaa(lp566
I695
aI697
ag564
a(lp567
g546
ag564
aaa(lp568
I695
aI697
ag564
a(lp569
g537
ag564
aaa(lp570
I695
aI697
ag564
a(lp571
g528
ag564
aaa(lp572
I701
aI703
aS'job'
p573
a(lp574
g564
ag573
aaa(lp575
I701
aI703
ag573
a(lp576
g555
ag573
aaa(lp577
I701
aI703
ag573
a(lp578
g546
ag573
aaa(lp579
I701
aI703
ag573
a(lp580
g537
ag573
aaa(lp581
I708
aI715
aS'venetian'
p582
a(lp583
g573
ag582
aaa(lp584
I708
aI715
ag582
a(lp585
g564
ag582
aaa(lp586
I708
aI715
ag582
a(lp587
g555
ag582
aaa(lp588
I708
aI715
ag582
a(lp589
g546
ag582
aaa(lp590
I717
aI722
aS'resort'
p591
a(lp592
g582
ag591
aaa(lp593
I717
aI722
ag591
a(lp594
g573
ag591
aaa(lp595
I717
aI722
ag591
a(lp596
g564
ag591
aaa(lp597
I717
aI722
ag591
a(lp598
g555
ag591
aaa(lp599
I724
aI735
aS'hotelcasino'
p600
a(lp601
g591
ag600
aaa(lp602
I724
aI735
ag600
a(lp603
g582
ag600
aaa(lp604
I724
aI735
ag600
a(lp605
g573
ag600
aaa(lp606
I724
aI735
ag600
a(lp607
g564
ag600
aaa(lp608
I745
aI748
aS'work'
p609
a(lp610
g600
ag609
aaa(lp611
I745
aI748
ag609
a(lp612
g591
ag609
aaa(lp613
I745
aI748
ag609
a(lp614
g582
ag609
aaa(lp615
I745
aI748
ag609
a(lp616
g573
ag609
aaa(lp617
I753
aI760
aS'venetian'
p618
a(lp619
g609
ag618
aaa(lp620
I753
aI760
ag618
a(lp621
g600
ag618
aaa(lp622
I753
aI760
ag618
a(lp623
g591
ag618
aaa(lp624
I753
aI760
ag618
a(lp625
g582
ag618
aaa(lp626
I762
aI767
aS'resort'
p627
a(lp628
g618
ag627
aaa(lp629
I762
aI767
ag627
a(lp630
g609
ag627
aaa(lp631
I762
aI767
ag627
a(lp632
g600
ag627
aaa(lp633
I762
aI767
ag627
a(lp634
g591
ag627
aaa(lp635
I769
aI780
aS'hotelcasino'
p636
a(lp637
g627
ag636
aaa(lp638
I769
aI780
ag636
a(lp639
g618
ag636
aaa(lp640
I769
aI780
ag636
a(lp641
g609
ag636
aaa(lp642
I769
aI780
ag636
a(lp643
g600
ag636
aaa(lp644
I795
aI798
aS'find'
p645
a(lp646
g636
ag645
aaa(lp647
I795
aI798
ag645
a(lp648
g627
ag645
aaa(lp649
I795
aI798
ag645
a(lp650
g618
ag645
aaa(lp651
I795
aI798
ag645
a(lp652
g609
ag645
aaa(lp653
I804
aI806
aS'job'
p654
a(lp655
g645
ag654
aaa(lp656
I804
aI806
ag654
a(lp657
g636
ag654
aaa(lp658
I804
aI806
ag654
a(lp659
g627
ag654
aaa(lp660
I804
aI806
ag654
a(lp661
g618
ag654
aaa(lp662
I821
aI823
aS'get'
p663
a(lp664
g654
ag663
aaa(lp665
I821
aI823
ag663
a(lp666
g645
ag663
aaa(lp667
I821
aI823
ag663
a(lp668
g636
ag663
aaa(lp669
I821
aI823
ag663
a(lp670
g627
ag663
aaa(lp671
I830
aI834
aS'first'
p672
a(lp673
g663
ag672
aaa(lp674
I830
aI834
ag672
a(lp675
g654
ag672
aaa(lp676
I830
aI834
ag672
a(lp677
g645
ag672
aaa(lp678
I830
aI834
ag672
a(lp679
g636
ag672
aaa(lp680
I836
aI844
aS'interview'
p681
a(lp682
g672
ag681
aaa(lp683
I836
aI844
ag681
a(lp684
g663
ag681
aaa(lp685
I836
aI844
ag681
a(lp686
g654
ag681
aaa(lp687
I836
aI844
ag681
a(lp688
g645
ag681
aaa(lp689
I851
aI856
aS'advice'
p690
a(lp691
g681
ag690
aaa(lp692
I851
aI856
ag690
a(lp693
g672
ag690
aaa(lp694
I851
aI856
ag690
a(lp695
g663
ag690
aaa(lp696
I851
aI856
ag690
a(lp697
g654
ag690
aaa(lp698
I862
aI868
aS'someone'
p699
a(lp700
g690
ag699
aaa(lp701
I862
aI868
ag699
a(lp702
g681
ag699
aaa(lp703
I862
aI868
ag699
a(lp704
g672
ag699
aaa(lp705
I862
aI868
ag699
a(lp706
g663
ag699
aaa(lp707
I870
aI875
aS'trying'
p708
a(lp709
g699
ag708
aaa(lp710
I870
aI875
ag708
a(lp711
g690
ag708
aaa(lp712
I870
aI875
ag708
a(lp713
g681
ag708
aaa(lp714
I870
aI875
ag708
a(lp715
g672
ag708
aaa(lp716
I880
aI882
aS'get'
p717
a(lp718
g708
ag717
aaa(lp719
I880
aI882
ag717
a(lp720
g699
ag717
aaa(lp721
I880
aI882
ag717
a(lp722
g690
ag717
aaa(lp723
I880
aI882
ag717
a(lp724
g681
ag717
aaa(lp725
I887
aI892
aS'whats'
p726
a(lp727
g717
ag726
aaa(lp728
I887
aI892
ag726
a(lp729
g708
ag726
aaa(lp730
I887
aI892
ag726
a(lp731
g699
ag726
aaa(lp732
I887
aI892
ag726
a(lp733
g690
ag726
aaa(lp734
I894
aI898
aS'great'
p735
a(lp736
g726
ag735
aaa(lp737
I894
aI898
ag735
a(lp738
g717
ag735
aaa(lp739
I894
aI898
ag735
a(lp740
g708
ag735
aaa(lp741
I894
aI898
ag735
a(lp742
g699
ag735
aaa(lp743
I916
aI919
aS'work'
p744
a(lp745
g735
ag744
aaa(lp746
I916
aI919
ag744
a(lp747
g726
ag744
aaa(lp748
I916
aI919
ag744
a(lp749
g717
ag744
aaa(lp750
I916
aI919
ag744
a(lp751
g708
ag744
aaa(lp752
I929
aI933
aS'could'
p753
a(lp754
g744
ag753
aaa(lp755
I929
aI933
ag753
a(lp756
g735
ag753
aaa(lp757
I929
aI933
ag753
a(lp758
g726
ag753
aaa(lp759
I929
aI933
ag753
a(lp760
g717
ag753
aaa(lp761
I935
aI940
aS'change'
p762
a(lp763
g753
ag762
aaa(lp764
I935
aI940
ag762
a(lp765
g744
ag762
aaa(lp766
I935
aI940
ag762
a(lp767
g735
ag762
aaa(lp768
I935
aI940
ag762
a(lp769
g726
ag762
aaa(lp770
I942
aI944
aS'one'
p771
a(lp772
g762
ag771
aaa(lp773
I942
aI944
ag771
a(lp774
g753
ag771
aaa(lp775
I942
aI944
ag771
a(lp776
g744
ag771
aaa(lp777
I942
aI944
ag771
a(lp778
g735
ag771
aaa(lp779
I946
aI950
aS'thing'
p780
a(lp781
g771
ag780
aaa(lp782
I946
aI950
ag780
a(lp783
g762
ag780
aaa(lp784
I946
aI950
ag780
a(lp785
g753
ag780
aaa(lp786
I946
aI950
ag780
a(lp787
g744
ag780
aaa(lp788
I963
aI965
aS'job'
p789
a(lp790
g780
ag789
aaa(lp791
I963
aI965
ag789
a(lp792
g771
ag789
aaa(lp793
I963
aI965
ag789
a(lp794
g762
ag789
aaa(lp795
I963
aI965
ag789
a(lp796
g753
ag789
aaa(lp797
I973
aI977
aS'would'
p798
a(lp799
g789
ag798
aaa(lp800
I973
aI977
ag798
a(lp801
g780
ag798
aaa(lp802
I973
aI977
ag798
a(lp803
g771
ag798
aaa(lp804
I973
aI977
ag798
a(lp805
g762
ag798
aaa(lp806
I986
aI988
aS'got'
p807
a(lp808
g798
ag807
aaa(lp809
I986
aI988
ag807
a(lp810
g789
ag807
aaa(lp811
I986
aI988
ag807
a(lp812
g780
ag807
aaa(lp813
I986
aI988
ag807
a(lp814
g771
ag807
aaa(lp815
I992
aI999
aS'question'
p816
a(lp817
g807
ag816
aaa(lp818
I992
aI999
ag816
a(lp819
g798
ag816
aaa(lp820
I992
aI999
ag816
a(lp821
g789
ag816
aaa(lp822
I992
aI999
ag816
a(lp823
g780
ag816
aaa(lp824
I1002
aI1006
aS'share'
p825
a(lp826
g816
ag825
aaa(lp827
I1002
aI1006
ag825
a(lp828
g807
ag825
aaa(lp829
I1002
aI1006
ag825
a(lp830
g798
ag825
aaa(lp831
I1002
aI1006
ag825
a(lp832
g789
ag825
aaa(lp833
I1012
aI1015
aS'best'
p834
a(lp835
g825
ag834
aaa(lp836
I1012
aI1015
ag834
a(lp837
g816
ag834
aaa(lp838
I1012
aI1015
ag834
a(lp839
g807
ag834
aaa(lp840
I1012
aI1015
ag834
a(lp841
g798
ag834
aaa(lp842
I1021
aI1025
aS'worst'
p843
a(lp844
g834
ag843
aaa(lp845
I1021
aI1025
ag843
a(lp846
g825
ag843
aaa(lp847
I1021
aI1025
ag843
a(lp848
g816
ag843
aaa(lp849
I1021
aI1025
ag843
a(lp850
g807
ag843
aaa(lp851
I1059
aI1062
aS'work'
p852
a(lp853
g843
ag852
aaa(lp854
I1059
aI1062
ag852
a(lp855
g834
ag852
aaa(lp856
I1059
aI1062
ag852
a(lp857
g825
ag852
aaa(lp858
I1059
aI1062
ag852
a(lp859
g816
ag852
aaa(lp860
I1067
aI1073
aS'joining'
p861
a(lp862
g852
ag861
aaa(lp863
I1067
aI1073
ag861
a(lp864
g843
ag861
aaa(lp865
I1067
aI1073
ag861
a(lp866
g834
ag861
aaa(lp867
I1067
aI1073
ag861
a(lp868
g825
ag861
aaa(lp869
I1077
aI1086
aS'discussion'
p870
a(lp871
g861
ag870
aaa(lp872
I1077
aI1086
ag870
a(lp873
g852
ag870
aaa(lp874
I1077
aI1086
ag870
a(lp875
g843
ag870
aaa(lp876
I1077
aI1086
ag870
a(lp877
g834
ag870
aaa(lp878
I1093
aI1100
aS'starting'
p879
a(lp880
g870
ag879
aaa(lp881
I1093
aI1100
ag879
a(lp882
g861
ag879
aaa(lp883
I1093
aI1100
ag879
a(lp884
g852
ag879
aaa(lp885
I1093
aI1100
ag879
a(lp886
g843
ag879
aaa(lp887
I1117
aI1119
aS'rss'
p888
a(lp889
g879
ag888
aaa(lp890
I1117
aI1119
ag888
a(lp891
g870
ag888
aaa(lp892
I1117
aI1119
ag888
a(lp893
g861
ag888
aaa(lp894
I1117
aI1119
ag888
a(lp895
g852
ag888
aaa(lp896
I1121
aI1124
aS'feed'
p897
a(lp898
g888
ag897
aaa(lp899
I1121
aI1124
ag897
a(lp900
g879
ag897
aaa(lp901
I1121
aI1124
ag897
a(lp902
g870
ag897
aaa(lp903
I1121
aI1124
ag897
a(lp904
g861
ag897
aaa(lp905
I1133
aI1137
aS'start'
p906
a(lp907
g897
ag906
aaa(lp908
I1133
aI1137
ag906
a(lp909
g888
ag906
aaa(lp910
I1133
aI1137
ag906
a(lp911
g879
ag906
aaa(lp912
I1133
aI1137
ag906
a(lp913
g870
ag906
aaa(lp914
I1141
aI1153
aS'discussion\xbb'
p915
a(lp916
g906
ag915
aaa(lp917
I1141
aI1153
ag915
a(lp918
g897
ag915
aaa(lp919
I1141
aI1153
ag915
a(lp920
g888
ag915
aaa(lp921
I1141
aI1153
ag915
a(lp922
g879
ag915
aaa(lp923
I1155
aI1158
aS'sign'
p924
a(lp925
g915
ag924
aaa(lp926
I1155
aI1158
ag924
a(lp927
g906
ag924
aaa(lp928
I1155
aI1158
ag924
a(lp929
g897
ag924
aaa(lp930
I1155
aI1158
ag924
a(lp931
g888
ag924
aaa(lp932
I1163
aI1168
aS'create'
p933
a(lp934
g924
ag933
aaa(lp935
I1163
aI1168
ag933
a(lp936
g915
ag933
aaa(lp937
I1163
aI1168
ag933
a(lp938
g906
ag933
aaa(lp939
I1163
aI1168
ag933
a(lp940
g897
ag933
aaa(lp941
I1173
aI1179
aS'account'
p942
a(lp943
g933
ag942
aaa(lp944
I1173
aI1179
ag942
a(lp945
g924
ag942
aaa(lp946
I1173
aI1179
ag942
a(lp947
g915
ag942
aaa(lp948
I1173
aI1179
ag942
a(lp949
g906
ag942
aaa(lp950
I1181
aI1186
aS'recent'
p951
a(lp952
g942
ag951
aaa(lp953
I1181
aI1186
ag951
a(lp954
g933
ag951
aaa(lp955
I1181
aI1186
ag951
a(lp956
g924
ag951
aaa(lp957
I1181
aI1186
ag951
a(lp958
g915
ag951
aaa(lp959
I1188
aI1195
aS'venetian'
p960
a(lp961
g951
ag960
aaa(lp962
I1188
aI1195
ag960
a(lp963
g942
ag960
aaa(lp964
I1188
aI1195
ag960
a(lp965
g933
ag960
aaa(lp966
I1188
aI1195
ag960
a(lp967
g924
ag960
aaa(lp968
I1197
aI1202
aS'resort'
p969
a(lp970
g960
ag969
aaa(lp971
I1197
aI1202
ag969
a(lp972
g951
ag969
aaa(lp973
I1197
aI1202
ag969
a(lp974
g942
ag969
aaa(lp975
I1197
aI1202
ag969
a(lp976
g933
ag969
aaa(lp977
I1204
aI1215
aS'hotelcasino'
p978
a(lp979
g969
ag978
aaa(lp980
I1204
aI1215
ag978
a(lp981
g960
ag978
aaa(lp982
I1204
aI1215
ag978
a(lp983
g951
ag978
aaa(lp984
I1204
aI1215
ag978
a(lp985
g942
ag978
aaa(lp986
I1204
aI1215
aS'jobs'
p987
a(lp988
g978
ag987
aaa(lp989
I1204
aI1215
ag987
a(lp990
g969
ag987
aaa(lp991
I1204
aI1215
ag987
a(lp992
g960
ag987
aaa(lp993
I1204
aI1215
ag987
a(lp994
g951
ag987
aaasS'wordMap'
p995
(lp996
(lp997
I0
aI7
ag5
a(lp998
(lp999
I0
aS'v'
p1000
aa(lp1001
I1
aS'e'
p1002
aa(lp1003
I2
aS'n'
p1004
aa(lp1005
I3
ag1002
aa(lp1006
I4
aS't'
p1007
aa(lp1008
I5
aS'i'
p1009
aa(lp1010
I6
aS'a'
p1011
aa(lp1012
I7
ag1004
aaaa(lp1013
I9
aI14
ag15
a(lp1014
(lp1015
I9
aS'r'
p1016
aa(lp1017
I10
ag1002
aa(lp1018
I11
aS's'
p1019
aa(lp1020
I12
aS'o'
p1021
aa(lp1022
I13
ag1016
aa(lp1023
I14
ag1007
aaaa(lp1024
I16
aI27
ag24
a(lp1025
(lp1026
I16
aS'h'
p1027
aa(lp1028
I17
ag1021
aa(lp1029
I18
ag1007
aa(lp1030
I19
ag1002
aa(lp1031
I20
aS'l'
p1032
aa(lp1033
I22
aS'c'
p1034
aa(lp1035
I23
ag1011
aa(lp1036
I24
ag1019
aa(lp1037
I25
ag1009
aa(lp1038
I26
ag1004
aa(lp1039
I27
ag1021
aaaa(lp1040
I29
aI32
ag33
a(lp1041
(lp1042
I29
aS'j'
p1043
aa(lp1044
I30
ag1021
aa(lp1045
I31
aS'b'
p1046
aa(lp1047
I32
ag1019
aaaa(lp1048
I34
aI38
ag42
a(lp1049
(lp1050
I34
aS'f'
p1051
aa(lp1052
I35
ag1021
aa(lp1053
I36
ag1016
aa(lp1054
I37
aS'u'
p1055
aa(lp1056
I38
aS'm'
p1057
aaaa(lp1058
I40
aI42
ag51
a(lp1059
(lp1060
I40
aS'g'
p1061
aa(lp1062
I41
ag1002
aa(lp1063
I42
ag1007
aaaa(lp1064
I44
aI46
ag60
a(lp1065
(lp1066
I44
ag1004
aa(lp1067
I45
ag1002
aa(lp1068
I46
aS'w'
p1069
aaaa(lp1070
I48
aI55
ag69
a(lp1071
(lp1072
I48
ag1034
aa(lp1073
I49
ag1021
aa(lp1074
I50
ag1057
aa(lp1075
I51
ag1057
aa(lp1076
I52
ag1002
aa(lp1077
I53
ag1004
aa(lp1078
I54
ag1007
aa(lp1079
I55
ag1019
aaaa(lp1080
I57
aI58
aS'by'
p1081
a(lp1082
(lp1083
I57
ag1046
aa(lp1084
I58
aS'y'
p1085
aaaa(lp1086
I60
aI64
ag78
a(lp1087
(lp1088
I60
ag1002
aa(lp1089
I61
ag1057
aa(lp1090
I62
ag1011
aa(lp1091
I63
ag1009
aa(lp1092
I64
ag1032
aaaa(lp1093
I66
aI67
aS'my'
p1094
a(lp1095
(lp1096
I66
ag1057
aa(lp1097
I67
ag1085
aaaa(lp1098
I69
aI73
ag87
a(lp1099
(lp1100
I69
ag1002
aa(lp1101
I70
ag1057
aa(lp1102
I71
ag1011
aa(lp1103
I72
ag1009
aa(lp1104
I73
ag1032
aaaa(lp1105
I75
aI78
aS'its'
p1106
a(lp1107
(lp1108
I75
ag1009
aa(lp1109
I76
ag1007
aa(lp1110
I78
ag1019
aaaa(lp1111
I80
aI85
ag96
a(lp1112
(lp1113
I80
ag1011
aa(lp1114
I81
ag1032
aa(lp1115
I82
ag1069
aa(lp1116
I83
ag1011
aa(lp1117
I84
ag1085
aa(lp1118
I85
ag1019
aaaa(lp1119
I87
aI90
ag105
a(lp1120
(lp1121
I87
ag1027
aa(lp1122
I88
ag1011
aa(lp1123
I89
ag1016
aa(lp1124
I90
aS'd'
p1125
aaaa(lp1126
I92
aI93
aS'to'
p1127
a(lp1128
(lp1129
I92
ag1007
aa(lp1130
I93
ag1021
aaaa(lp1131
I95
aI98
ag114
a(lp1132
(lp1133
I95
aS'k'
p1134
aa(lp1135
I96
ag1004
aa(lp1136
I97
ag1021
aa(lp1137
I98
ag1069
aaaa(lp1138
I100
aI103
aS'what'
p1139
a(lp1140
(lp1141
I100
ag1069
aa(lp1142
I101
ag1027
aa(lp1143
I102
ag1011
aa(lp1144
I103
ag1007
aaaa(lp1145
I105
aI106
aS'to'
p1146
a(lp1147
(lp1148
I105
ag1007
aa(lp1149
I106
ag1021
aaaa(lp1150
I108
aI113
ag123
a(lp1151
(lp1152
I108
ag1002
aa(lp1153
I109
aS'x'
p1154
aa(lp1155
I110
aS'p'
p1156
aa(lp1157
I111
ag1002
aa(lp1158
I112
ag1034
aa(lp1159
I113
ag1007
aaaa(lp1160
I115
aI118
aS'when'
p1161
a(lp1162
(lp1163
I115
ag1069
aa(lp1164
I116
ag1027
aa(lp1165
I117
ag1002
aa(lp1166
I118
ag1004
aaaa(lp1167
I120
aI124
ag132
a(lp1168
(lp1169
I120
ag1061
aa(lp1170
I121
ag1021
aa(lp1171
I122
ag1009
aa(lp1172
I123
ag1004
aa(lp1173
I124
ag1061
aaaa(lp1174
I126
aI127
aS'in'
p1175
a(lp1176
(lp1177
I126
ag1009
aa(lp1178
I127
ag1004
aaaa(lp1179
I129
aI131
aS'for'
p1180
a(lp1181
(lp1182
I129
ag1051
aa(lp1183
I130
ag1021
aa(lp1184
I131
ag1016
aaaa(lp1185
I133
aI136
aS'that'
p1186
a(lp1187
(lp1188
I133
ag1007
aa(lp1189
I134
ag1027
aa(lp1190
I135
ag1011
aa(lp1191
I136
ag1007
aaaa(lp1192
I138
aI146
ag141
a(lp1193
(lp1194
I138
ag1009
aa(lp1195
I139
ag1004
aa(lp1196
I140
ag1007
aa(lp1197
I141
ag1002
aa(lp1198
I142
ag1016
aa(lp1199
I143
ag1000
aa(lp1200
I144
ag1009
aa(lp1201
I145
ag1002
aa(lp1202
I146
ag1069
aaaa(lp1203
I151
aI153
aS'and'
p1204
a(lp1205
(lp1206
I151
ag1011
aa(lp1207
I152
ag1004
aa(lp1208
I153
ag1125
aaaa(lp1209
I155
aI165
ag150
a(lp1210
(lp1211
I155
ag1156
aa(lp1212
I156
ag1016
aa(lp1213
I157
ag1002
aa(lp1214
I158
ag1156
aa(lp1215
I159
ag1011
aa(lp1216
I160
ag1016
aa(lp1217
I161
ag1011
aa(lp1218
I162
ag1007
aa(lp1219
I163
ag1009
aa(lp1220
I164
ag1021
aa(lp1221
I165
ag1004
aaaa(lp1222
I167
aI169
aS'can'
p1223
a(lp1224
(lp1225
I167
ag1034
aa(lp1226
I168
ag1011
aa(lp1227
I169
ag1004
aaaa(lp1228
I171
aI174
ag159
a(lp1229
(lp1230
I171
ag1057
aa(lp1231
I172
ag1011
aa(lp1232
I173
ag1134
aa(lp1233
I174
ag1002
aaaa(lp1234
I176
aI178
aS'all'
p1235
a(lp1236
(lp1237
I176
ag1011
aa(lp1238
I177
ag1032
aa(lp1239
I178
ag1032
aaaa(lp1240
I180
aI182
aS'the'
p1241
a(lp1242
(lp1243
I180
ag1007
aa(lp1244
I181
ag1027
aa(lp1245
I182
ag1002
aaaa(lp1246
I184
aI193
ag168
a(lp1247
(lp1248
I184
ag1125
aa(lp1249
I185
ag1009
aa(lp1250
I186
ag1051
aa(lp1251
I187
ag1051
aa(lp1252
I188
ag1002
aa(lp1253
I189
ag1016
aa(lp1254
I190
ag1002
aa(lp1255
I191
ag1004
aa(lp1256
I192
ag1034
aa(lp1257
I193
ag1002
aaaa(lp1258
I196
aI199
aS'what'
p1259
a(lp1260
(lp1261
I196
ag1069
aa(lp1262
I197
ag1027
aa(lp1263
I198
ag1011
aa(lp1264
I199
ag1007
aaaa(lp1265
I201
aI202
aS'is'
p1266
a(lp1267
(lp1268
I201
ag1009
aa(lp1269
I202
ag1019
aaaa(lp1270
I204
aI206
aS'the'
p1271
a(lp1272
(lp1273
I204
ag1007
aa(lp1274
I205
ag1027
aa(lp1275
I206
ag1002
aaaa(lp1276
I208
aI216
ag177
a(lp1277
(lp1278
I208
ag1009
aa(lp1279
I209
ag1004
aa(lp1280
I210
ag1007
aa(lp1281
I211
ag1002
aa(lp1282
I212
ag1016
aa(lp1283
I213
ag1000
aa(lp1284
I214
ag1009
aa(lp1285
I215
ag1002
aa(lp1286
I216
ag1069
aaaa(lp1287
I221
aI224
ag186
a(lp1288
(lp1289
I221
ag1027
aa(lp1290
I222
ag1021
aa(lp1291
I223
ag1019
aa(lp1292
I224
ag1007
aaaa(lp1293
I226
aI230
ag195
a(lp1294
(lp1295
I226
ag1002
aa(lp1296
I227
ag1000
aa(lp1297
I228
ag1002
aa(lp1298
I229
ag1016
aa(lp1299
I230
ag1085
aaaa(lp1300
I232
aI239
ag204
a(lp1301
(lp1302
I232
ag1046
aa(lp1303
I233
ag1055
aa(lp1304
I234
ag1019
aa(lp1305
I235
ag1009
aa(lp1306
I236
ag1004
aa(lp1307
I237
ag1002
aa(lp1308
I238
ag1019
aa(lp1309
I239
ag1019
aaaa(lp1310
I241
aI243
aS'has'
p1311
a(lp1312
(lp1313
I241
ag1027
aa(lp1314
I242
ag1011
aa(lp1315
I243
ag1019
aaaa(lp1316
I245
aI247
aS'its'
p1317
a(lp1318
(lp1319
I245
ag1009
aa(lp1320
I246
ag1007
aa(lp1321
I247
ag1019
aaaa(lp1322
I249
aI251
aS'own'
p1323
a(lp1324
(lp1325
I249
ag1021
aa(lp1326
I250
ag1069
aa(lp1327
I251
ag1004
aaaa(lp1328
I253
aI257
ag213
a(lp1329
(lp1330
I253
ag1019
aa(lp1331
I254
ag1007
aa(lp1332
I255
ag1085
aa(lp1333
I256
ag1032
aa(lp1334
I257
ag1002
aaaa(lp1335
I260
aI263
aS'what'
p1336
a(lp1337
(lp1338
I260
ag1069
aa(lp1339
I261
ag1027
aa(lp1340
I262
ag1011
aa(lp1341
I263
ag1007
aaaa(lp1342
I265
aI266
aS'is'
p1343
a(lp1344
(lp1345
I265
ag1009
aa(lp1346
I266
ag1019
aaaa(lp1347
I268
aI270
aS'the'
p1348
a(lp1349
(lp1350
I268
ag1007
aa(lp1351
I269
ag1027
aa(lp1352
I270
ag1002
aaaa(lp1353
I272
aI277
ag222
a(lp1354
(lp1355
I272
ag1021
aa(lp1356
I273
ag1051
aa(lp1357
I274
ag1051
aa(lp1358
I275
ag1009
aa(lp1359
I276
ag1034
aa(lp1360
I277
ag1002
aaaa(lp1361
I279
aI289
ag231
a(lp1362
(lp1363
I279
ag1002
aa(lp1364
I280
ag1004
aa(lp1365
I281
ag1000
aa(lp1366
I282
ag1009
aa(lp1367
I283
ag1016
aa(lp1368
I284
ag1021
aa(lp1369
I285
ag1004
aa(lp1370
I286
ag1057
aa(lp1371
I287
ag1002
aa(lp1372
I288
ag1004
aa(lp1373
I289
ag1007
aaaa(lp1374
I291
aI293
aS'and'
p1375
a(lp1376
(lp1377
I291
ag1011
aa(lp1378
I292
ag1004
aa(lp1379
I293
ag1125
aaaa(lp1380
I295
aI301
ag240
a(lp1381
(lp1382
I295
ag1034
aa(lp1383
I296
ag1055
aa(lp1384
I297
ag1032
aa(lp1385
I298
ag1007
aa(lp1386
I299
ag1055
aa(lp1387
I300
ag1016
aa(lp1388
I301
ag1002
aaaa(lp1389
I303
aI306
ag249
a(lp1390
(lp1391
I303
ag1032
aa(lp1392
I304
ag1009
aa(lp1393
I305
ag1134
aa(lp1394
I306
ag1002
aaaa(lp1395
I308
aI309
aS'at'
p1396
a(lp1397
(lp1398
I308
ag1011
aa(lp1399
I309
ag1007
aaaa(lp1400
I311
aI318
ag258
a(lp1401
(lp1402
I311
ag1000
aa(lp1403
I312
ag1002
aa(lp1404
I313
ag1004
aa(lp1405
I314
ag1002
aa(lp1406
I315
ag1007
aa(lp1407
I316
ag1009
aa(lp1408
I317
ag1011
aa(lp1409
I318
ag1004
aaaa(lp1410
I320
aI325
ag267
a(lp1411
(lp1412
I320
ag1016
aa(lp1413
I321
ag1002
aa(lp1414
I322
ag1019
aa(lp1415
I323
ag1021
aa(lp1416
I324
ag1016
aa(lp1417
I325
ag1007
aaaa(lp1418
I327
aI338
ag276
a(lp1419
(lp1420
I327
ag1027
aa(lp1421
I328
ag1021
aa(lp1422
I329
ag1007
aa(lp1423
I330
ag1002
aa(lp1424
I331
ag1032
aa(lp1425
I333
ag1034
aa(lp1426
I334
ag1011
aa(lp1427
I335
ag1019
aa(lp1428
I336
ag1009
aa(lp1429
I337
ag1004
aa(lp1430
I338
ag1021
aaaa(lp1431
I341
aI343
aS'are'
p1432
a(lp1433
(lp1434
I341
ag1011
aa(lp1435
I342
ag1016
aa(lp1436
I343
ag1002
aaaa(lp1437
I345
aI350
ag285
a(lp1438
(lp1439
I345
ag1156
aa(lp1440
I346
ag1002
aa(lp1441
I347
ag1021
aa(lp1442
I348
ag1156
aa(lp1443
I349
ag1032
aa(lp1444
I350
ag1002
aaaa(lp1445
I352
aI358
ag294
a(lp1446
(lp1447
I352
ag1125
aa(lp1448
I353
ag1016
aa(lp1449
I354
ag1002
aa(lp1450
I355
ag1019
aa(lp1451
I356
ag1019
aa(lp1452
I357
ag1002
aa(lp1453
I358
ag1125
aaaa(lp1454
I360
aI361
aS'in'
p1455
a(lp1456
(lp1457
I360
ag1009
aa(lp1458
I361
ag1004
aaaa(lp1459
I363
aI370
ag303
a(lp1460
(lp1461
I363
ag1046
aa(lp1462
I364
ag1055
aa(lp1463
I365
ag1019
aa(lp1464
I366
ag1009
aa(lp1465
I367
ag1004
aa(lp1466
I368
ag1002
aa(lp1467
I369
ag1019
aa(lp1468
I370
ag1019
aaaa(lp1469
I375
aI378
ag312
a(lp1470
(lp1471
I375
ag1027
aa(lp1472
I376
ag1021
aa(lp1473
I377
ag1019
aa(lp1474
I378
ag1007
aaaa(lp1475
I380
aI383
aS'what'
p1476
a(lp1477
(lp1478
I380
ag1069
aa(lp1479
I381
ag1027
aa(lp1480
I382
ag1011
aa(lp1481
I383
ag1007
aaaa(lp1482
I385
aI386
aS'do'
p1483
a(lp1484
(lp1485
I385
ag1125
aa(lp1486
I386
ag1021
aaaa(lp1487
I388
aI390
aS'you'
p1488
a(lp1489
(lp1490
I388
ag1085
aa(lp1491
I389
ag1021
aa(lp1492
I390
ag1055
aaaa(lp1493
I392
aI396
ag321
a(lp1494
(lp1495
I392
ag1007
aa(lp1496
I393
ag1027
aa(lp1497
I394
ag1009
aa(lp1498
I395
ag1004
aa(lp1499
I396
ag1134
aaaa(lp1500
I400
aI403
aS'will'
p1501
a(lp1502
(lp1503
I400
ag1069
aa(lp1504
I401
ag1009
aa(lp1505
I402
ag1032
aa(lp1506
I403
ag1032
aaaa(lp1507
I405
aI412
ag330
a(lp1508
(lp1509
I405
ag1000
aa(lp1510
I406
ag1002
aa(lp1511
I407
ag1004
aa(lp1512
I408
ag1002
aa(lp1513
I409
ag1007
aa(lp1514
I410
ag1009
aa(lp1515
I411
ag1011
aa(lp1516
I412
ag1004
aaaa(lp1517
I414
aI419
ag339
a(lp1518
(lp1519
I414
ag1016
aa(lp1520
I415
ag1002
aa(lp1521
I416
ag1019
aa(lp1522
I417
ag1021
aa(lp1523
I418
ag1016
aa(lp1524
I419
ag1007
aaaa(lp1525
I421
aI432
ag348
a(lp1526
(lp1527
I421
ag1027
aa(lp1528
I422
ag1021
aa(lp1529
I423
ag1007
aa(lp1530
I424
ag1002
aa(lp1531
I425
ag1032
aa(lp1532
I427
ag1034
aa(lp1533
I428
ag1011
aa(lp1534
I429
ag1019
aa(lp1535
I430
ag1009
aa(lp1536
I431
ag1004
aa(lp1537
I432
ag1021
aaaa(lp1538
I434
aI437
ag357
a(lp1539
(lp1540
I434
ag1061
aa(lp1541
I435
ag1016
aa(lp1542
I436
ag1021
aa(lp1543
I437
ag1069
aaaa(lp1544
I439
aI442
ag366
a(lp1545
(lp1546
I439
ag1051
aa(lp1547
I440
ag1011
aa(lp1548
I441
ag1019
aa(lp1549
I442
ag1007
aaaa(lp1550
I445
aI447
aS'are'
p1551
a(lp1552
(lp1553
I445
ag1011
aa(lp1554
I446
ag1016
aa(lp1555
I447
ag1002
aaaa(lp1556
I449
aI452
aS'they'
p1557
a(lp1558
(lp1559
I449
ag1007
aa(lp1560
I450
ag1027
aa(lp1561
I451
ag1002
aa(lp1562
I452
ag1085
aaaa(lp1563
I454
aI462
ag375
a(lp1564
(lp1565
I454
ag1002
aa(lp1566
I455
ag1154
aa(lp1567
I456
ag1156
aa(lp1568
I457
ag1011
aa(lp1569
I458
ag1004
aa(lp1570
I459
ag1125
aa(lp1571
I460
ag1009
aa(lp1572
I461
ag1004
aa(lp1573
I462
ag1061
aaaa(lp1574
I464
aI468
aS'their'
p1575
a(lp1576
(lp1577
I464
ag1007
aa(lp1578
I465
ag1027
aa(lp1579
I466
ag1002
aa(lp1580
I467
ag1009
aa(lp1581
I468
ag1016
aaaa(lp1582
I470
aI474
ag384
a(lp1583
(lp1584
I470
ag1019
aa(lp1585
I471
ag1007
aa(lp1586
I472
ag1011
aa(lp1587
I473
ag1051
aa(lp1588
I474
ag1051
aaaa(lp1589
I477
aI479
aS'how'
p1590
a(lp1591
(lp1592
I477
ag1027
aa(lp1593
I478
ag1021
aa(lp1594
I479
ag1069
aaaa(lp1595
I481
aI484
aS'does'
p1596
a(lp1597
(lp1598
I481
ag1125
aa(lp1599
I482
ag1021
aa(lp1600
I483
ag1002
aa(lp1601
I484
ag1019
aaaa(lp1602
I486
aI493
ag393
a(lp1603
(lp1604
I486
ag1000
aa(lp1605
I487
ag1002
aa(lp1606
I488
ag1004
aa(lp1607
I489
ag1002
aa(lp1608
I490
ag1007
aa(lp1609
I491
ag1009
aa(lp1610
I492
ag1011
aa(lp1611
I493
ag1004
aaaa(lp1612
I495
aI500
ag402
a(lp1613
(lp1614
I495
ag1016
aa(lp1615
I496
ag1002
aa(lp1616
I497
ag1019
aa(lp1617
I498
ag1021
aa(lp1618
I499
ag1016
aa(lp1619
I500
ag1007
aaaa(lp1620
I502
aI513
ag411
a(lp1621
(lp1622
I502
ag1027
aa(lp1623
I503
ag1021
aa(lp1624
I504
ag1007
aa(lp1625
I505
ag1002
aa(lp1626
I506
ag1032
aa(lp1627
I508
ag1034
aa(lp1628
I509
ag1011
aa(lp1629
I510
ag1019
aa(lp1630
I511
ag1009
aa(lp1631
I512
ag1004
aa(lp1632
I513
ag1021
aaaa(lp1633
I515
aI519
ag420
a(lp1634
(lp1635
I515
ag1019
aa(lp1636
I516
ag1007
aa(lp1637
I517
ag1011
aa(lp1638
I518
ag1034
aa(lp1639
I519
ag1134
aaaa(lp1640
I521
aI522
aS'up'
p1641
a(lp1642
(lp1643
I521
ag1055
aa(lp1644
I522
ag1156
aaaa(lp1645
I527
aI530
ag429
a(lp1646
(lp1647
I527
ag1027
aa(lp1648
I528
ag1021
aa(lp1649
I529
ag1019
aa(lp1650
I530
ag1007
aaaa(lp1651
I532
aI535
aS'what'
p1652
a(lp1653
(lp1654
I532
ag1069
aa(lp1655
I533
ag1027
aa(lp1656
I534
ag1011
aa(lp1657
I535
ag1007
aaaa(lp1658
I537
aI539
aS'are'
p1659
a(lp1660
(lp1661
I537
ag1011
aa(lp1662
I538
ag1016
aa(lp1663
I539
ag1002
aaaa(lp1664
I541
aI543
aS'the'
p1665
a(lp1666
(lp1667
I541
ag1007
aa(lp1668
I542
ag1027
aa(lp1669
I543
ag1002
aaaa(lp1670
I545
aI551
ag438
a(lp1671
(lp1672
I545
ag1011
aa(lp1673
I546
ag1000
aa(lp1674
I547
ag1002
aa(lp1675
I548
ag1016
aa(lp1676
I549
ag1011
aa(lp1677
I550
ag1061
aa(lp1678
I551
ag1002
aaaa(lp1679
I553
aI560
ag447
a(lp1680
(lp1681
I553
ag1019
aa(lp1682
I554
ag1007
aa(lp1683
I555
ag1011
aa(lp1684
I556
ag1016
aa(lp1685
I557
ag1007
aa(lp1686
I558
ag1009
aa(lp1687
I559
ag1004
aa(lp1688
I560
ag1061
aaaa(lp1689
I562
aI569
ag456
a(lp1690
(lp1691
I562
ag1019
aa(lp1692
I563
ag1011
aa(lp1693
I564
ag1032
aa(lp1694
I565
ag1011
aa(lp1695
I566
ag1016
aa(lp1696
I567
ag1009
aa(lp1697
I568
ag1002
aa(lp1698
I569
ag1019
aaaa(lp1699
I572
aI578
ag465
a(lp1700
(lp1701
I572
ag1046
aa(lp1702
I573
ag1021
aa(lp1703
I574
ag1004
aa(lp1704
I575
ag1055
aa(lp1705
I576
ag1019
aa(lp1706
I577
ag1002
aa(lp1707
I578
ag1019
aaaa(lp1708
I581
aI588
ag474
a(lp1709
(lp1710
I581
ag1046
aa(lp1711
I582
ag1002
aa(lp1712
I583
ag1004
aa(lp1713
I584
ag1002
aa(lp1714
I585
ag1051
aa(lp1715
I586
ag1009
aa(lp1716
I587
ag1007
aa(lp1717
I588
ag1019
aaaa(lp1718
I590
aI592
aS'and'
p1719
a(lp1720
(lp1721
I590
ag1011
aa(lp1722
I591
ag1004
aa(lp1723
I592
ag1125
aaaa(lp1724
I594
aI599
ag483
a(lp1725
(lp1726
I594
ag1007
aa(lp1727
I595
ag1016
aa(lp1728
I596
ag1011
aa(lp1729
I597
ag1000
aa(lp1730
I598
ag1002
aa(lp1731
I599
ag1032
aaaa(lp1732
I601
aI612
ag492
a(lp1733
(lp1734
I601
ag1016
aa(lp1735
I602
ag1002
aa(lp1736
I603
aS'q'
p1737
aa(lp1738
I604
ag1055
aa(lp1739
I605
ag1009
aa(lp1740
I606
ag1016
aa(lp1741
I607
ag1002
aa(lp1742
I608
ag1057
aa(lp1743
I609
ag1002
aa(lp1744
I610
ag1004
aa(lp1745
I611
ag1007
aa(lp1746
I612
ag1019
aaaa(lp1747
I614
aI617
ag501
a(lp1748
(lp1749
I614
ag1032
aa(lp1750
I615
ag1009
aa(lp1751
I616
ag1134
aa(lp1752
I617
ag1002
aaaa(lp1753
I619
aI620
aS'at'
p1754
a(lp1755
(lp1756
I619
ag1011
aa(lp1757
I620
ag1007
aaaa(lp1758
I622
aI629
ag510
a(lp1759
(lp1760
I622
ag1000
aa(lp1761
I623
ag1002
aa(lp1762
I624
ag1004
aa(lp1763
I625
ag1002
aa(lp1764
I626
ag1007
aa(lp1765
I627
ag1009
aa(lp1766
I628
ag1011
aa(lp1767
I629
ag1004
aaaa(lp1768
I631
aI636
ag519
a(lp1769
(lp1770
I631
ag1016
aa(lp1771
I632
ag1002
aa(lp1772
I633
ag1019
aa(lp1773
I634
ag1021
aa(lp1774
I635
ag1016
aa(lp1775
I636
ag1007
aaaa(lp1776
I638
aI649
ag528
a(lp1777
(lp1778
I638
ag1027
aa(lp1779
I639
ag1021
aa(lp1780
I640
ag1007
aa(lp1781
I641
ag1002
aa(lp1782
I642
ag1032
aa(lp1783
I644
ag1034
aa(lp1784
I645
ag1011
aa(lp1785
I646
ag1019
aa(lp1786
I647
ag1009
aa(lp1787
I648
ag1004
aa(lp1788
I649
ag1021
aaaa(lp1789
I652
aI655
aS'what'
p1790
a(lp1791
(lp1792
I652
ag1069
aa(lp1793
I653
ag1027
aa(lp1794
I654
ag1011
aa(lp1795
I655
ag1007
aaaa(lp1796
I657
aI658
aS'do'
p1797
a(lp1798
(lp1799
I657
ag1125
aa(lp1800
I658
ag1021
aaaa(lp1801
I660
aI662
aS'you'
p1802
a(lp1803
(lp1804
I660
ag1085
aa(lp1805
I661
ag1021
aa(lp1806
I662
ag1055
aaaa(lp1807
I664
aI667
ag537
a(lp1808
(lp1809
I664
ag1032
aa(lp1810
I665
ag1009
aa(lp1811
I666
ag1134
aa(lp1812
I667
ag1002
aaaa(lp1813
I669
aI672
ag546
a(lp1814
(lp1815
I669
ag1046
aa(lp1816
I670
ag1002
aa(lp1817
I671
ag1019
aa(lp1818
I672
ag1007
aaaa(lp1819
I674
aI678
aS'about'
p1820
a(lp1821
(lp1822
I674
ag1011
aa(lp1823
I675
ag1046
aa(lp1824
I676
ag1021
aa(lp1825
I677
ag1055
aa(lp1826
I678
ag1007
aaaa(lp1827
I683
aI686
ag555
a(lp1828
(lp1829
I683
ag1027
aa(lp1830
I684
ag1021
aa(lp1831
I685
ag1019
aa(lp1832
I686
ag1007
aaaa(lp1833
I688
aI690
aS'how'
p1834
a(lp1835
(lp1836
I688
ag1027
aa(lp1837
I689
ag1021
aa(lp1838
I690
ag1069
aaaa(lp1839
I692
aI693
aS'to'
p1840
a(lp1841
(lp1842
I692
ag1007
aa(lp1843
I693
ag1021
aaaa(lp1844
I695
aI697
ag564
a(lp1845
(lp1846
I695
ag1061
aa(lp1847
I696
ag1002
aa(lp1848
I697
ag1007
aaaa(lp1849
I699
aI699
ag1011
a(lp1850
(lp1851
I699
ag1011
aaaa(lp1852
I701
aI703
ag573
a(lp1853
(lp1854
I701
ag1043
aa(lp1855
I702
ag1021
aa(lp1856
I703
ag1046
aaaa(lp1857
I705
aI706
aS'at'
p1858
a(lp1859
(lp1860
I705
ag1011
aa(lp1861
I706
ag1007
aaaa(lp1862
I708
aI715
ag582
a(lp1863
(lp1864
I708
ag1000
aa(lp1865
I709
ag1002
aa(lp1866
I710
ag1004
aa(lp1867
I711
ag1002
aa(lp1868
I712
ag1007
aa(lp1869
I713
ag1009
aa(lp1870
I714
ag1011
aa(lp1871
I715
ag1004
aaaa(lp1872
I717
aI722
ag591
a(lp1873
(lp1874
I717
ag1016
aa(lp1875
I718
ag1002
aa(lp1876
I719
ag1019
aa(lp1877
I720
ag1021
aa(lp1878
I721
ag1016
aa(lp1879
I722
ag1007
aaaa(lp1880
I724
aI735
ag600
a(lp1881
(lp1882
I724
ag1027
aa(lp1883
I725
ag1021
aa(lp1884
I726
ag1007
aa(lp1885
I727
ag1002
aa(lp1886
I728
ag1032
aa(lp1887
I730
ag1034
aa(lp1888
I731
ag1011
aa(lp1889
I732
ag1019
aa(lp1890
I733
ag1009
aa(lp1891
I734
ag1004
aa(lp1892
I735
ag1021
aaaa(lp1893
I738
aI739
aS'do'
p1894
a(lp1895
(lp1896
I738
ag1125
aa(lp1897
I739
ag1021
aaaa(lp1898
I741
aI743
aS'you'
p1899
a(lp1900
(lp1901
I741
ag1085
aa(lp1902
I742
ag1021
aa(lp1903
I743
ag1055
aaaa(lp1904
I745
aI748
ag609
a(lp1905
(lp1906
I745
ag1069
aa(lp1907
I746
ag1021
aa(lp1908
I747
ag1016
aa(lp1909
I748
ag1134
aaaa(lp1910
I750
aI751
aS'at'
p1911
a(lp1912
(lp1913
I750
ag1011
aa(lp1914
I751
ag1007
aaaa(lp1915
I753
aI760
ag618
a(lp1916
(lp1917
I753
ag1000
aa(lp1918
I754
ag1002
aa(lp1919
I755
ag1004
aa(lp1920
I756
ag1002
aa(lp1921
I757
ag1007
aa(lp1922
I758
ag1009
aa(lp1923
I759
ag1011
aa(lp1924
I760
ag1004
aaaa(lp1925
I762
aI767
ag627
a(lp1926
(lp1927
I762
ag1016
aa(lp1928
I763
ag1002
aa(lp1929
I764
ag1019
aa(lp1930
I765
ag1021
aa(lp1931
I766
ag1016
aa(lp1932
I767
ag1007
aaaa(lp1933
I769
aI780
ag636
a(lp1934
(lp1935
I769
ag1027
aa(lp1936
I770
ag1021
aa(lp1937
I771
ag1007
aa(lp1938
I772
ag1002
aa(lp1939
I773
ag1032
aa(lp1940
I775
ag1034
aa(lp1941
I776
ag1011
aa(lp1942
I777
ag1019
aa(lp1943
I778
ag1009
aa(lp1944
I779
ag1004
aa(lp1945
I780
ag1021
aaaa(lp1946
I783
aI785
aS'how'
p1947
a(lp1948
(lp1949
I783
ag1027
aa(lp1950
I784
ag1021
aa(lp1951
I785
ag1069
aaaa(lp1952
I787
aI789
aS'did'
p1953
a(lp1954
(lp1955
I787
ag1125
aa(lp1956
I788
ag1009
aa(lp1957
I789
ag1125
aaaa(lp1958
I791
aI793
aS'you'
p1959
a(lp1960
(lp1961
I791
ag1085
aa(lp1962
I792
ag1021
aa(lp1963
I793
ag1055
aaaa(lp1964
I795
aI798
ag645
a(lp1965
(lp1966
I795
ag1051
aa(lp1967
I796
ag1009
aa(lp1968
I797
ag1004
aa(lp1969
I798
ag1125
aaaa(lp1970
I800
aI802
aS'the'
p1971
a(lp1972
(lp1973
I800
ag1007
aa(lp1974
I801
ag1027
aa(lp1975
I802
ag1002
aaaa(lp1976
I804
aI806
ag654
a(lp1977
(lp1978
I804
ag1043
aa(lp1979
I805
ag1021
aa(lp1980
I806
ag1046
aaaa(lp1981
I809
aI811
aS'how'
p1982
a(lp1983
(lp1984
I809
ag1027
aa(lp1985
I810
ag1021
aa(lp1986
I811
ag1069
aaaa(lp1987
I813
aI815
aS'did'
p1988
a(lp1989
(lp1990
I813
ag1125
aa(lp1991
I814
ag1009
aa(lp1992
I815
ag1125
aaaa(lp1993
I817
aI819
aS'you'
p1994
a(lp1995
(lp1996
I817
ag1085
aa(lp1997
I818
ag1021
aa(lp1998
I819
ag1055
aaaa(lp1999
I821
aI823
ag663
a(lp2000
(lp2001
I821
ag1061
aa(lp2002
I822
ag1002
aa(lp2003
I823
ag1007
aaaa(lp2004
I825
aI828
aS'that'
p2005
a(lp2006
(lp2007
I825
ag1007
aa(lp2008
I826
ag1027
aa(lp2009
I827
ag1011
aa(lp2010
I828
ag1007
aaaa(lp2011
I830
aI834
ag672
a(lp2012
(lp2013
I830
ag1051
aa(lp2014
I831
ag1009
aa(lp2015
I832
ag1016
aa(lp2016
I833
ag1019
aa(lp2017
I834
ag1007
aaaa(lp2018
I836
aI844
ag681
a(lp2019
(lp2020
I836
ag1009
aa(lp2021
I837
ag1004
aa(lp2022
I838
ag1007
aa(lp2023
I839
ag1002
aa(lp2024
I840
ag1016
aa(lp2025
I841
ag1000
aa(lp2026
I842
ag1009
aa(lp2027
I843
ag1002
aa(lp2028
I844
ag1069
aaaa(lp2029
I847
aI849
aS'any'
p2030
a(lp2031
(lp2032
I847
ag1011
aa(lp2033
I848
ag1004
aa(lp2034
I849
ag1085
aaaa(lp2035
I851
aI856
ag690
a(lp2036
(lp2037
I851
ag1011
aa(lp2038
I852
ag1125
aa(lp2039
I853
ag1000
aa(lp2040
I854
ag1009
aa(lp2041
I855
ag1034
aa(lp2042
I856
ag1002
aaaa(lp2043
I858
aI860
aS'for'
p2044
a(lp2045
(lp2046
I858
ag1051
aa(lp2047
I859
ag1021
aa(lp2048
I860
ag1016
aaaa(lp2049
I862
aI868
ag699
a(lp2050
(lp2051
I862
ag1019
aa(lp2052
I863
ag1021
aa(lp2053
I864
ag1057
aa(lp2054
I865
ag1002
aa(lp2055
I866
ag1021
aa(lp2056
I867
ag1004
aa(lp2057
I868
ag1002
aaaa(lp2058
I870
aI875
ag708
a(lp2059
(lp2060
I870
ag1007
aa(lp2061
I871
ag1016
aa(lp2062
I872
ag1085
aa(lp2063
I873
ag1009
aa(lp2064
I874
ag1004
aa(lp2065
I875
ag1061
aaaa(lp2066
I877
aI878
aS'to'
p2067
a(lp2068
(lp2069
I877
ag1007
aa(lp2070
I878
ag1021
aaaa(lp2071
I880
aI882
ag717
a(lp2072
(lp2073
I880
ag1061
aa(lp2074
I881
ag1002
aa(lp2075
I882
ag1007
aaaa(lp2076
I887
aI892
ag726
a(lp2077
(lp2078
I887
ag1069
aa(lp2079
I888
ag1027
aa(lp2080
I889
ag1011
aa(lp2081
I890
ag1007
aa(lp2082
I892
ag1019
aaaa(lp2083
I894
aI898
ag735
a(lp2084
(lp2085
I894
ag1061
aa(lp2086
I895
ag1016
aa(lp2087
I896
ag1002
aa(lp2088
I897
ag1011
aa(lp2089
I898
ag1007
aaaa(lp2090
I900
aI904
aS'about'
p2091
a(lp2092
(lp2093
I900
ag1011
aa(lp2094
I901
ag1046
aa(lp2095
I902
ag1021
aa(lp2096
I903
ag1055
aa(lp2097
I904
ag1007
aaaa(lp2098
I906
aI910
aS'where'
p2099
a(lp2100
(lp2101
I906
ag1069
aa(lp2102
I907
ag1027
aa(lp2103
I908
ag1002
aa(lp2104
I909
ag1016
aa(lp2105
I910
ag1002
aaaa(lp2106
I912
aI914
aS'you'
p2107
a(lp2108
(lp2109
I912
ag1085
aa(lp2110
I913
ag1021
aa(lp2111
I914
ag1055
aaaa(lp2112
I916
aI919
ag744
a(lp2113
(lp2114
I916
ag1069
aa(lp2115
I917
ag1021
aa(lp2116
I918
ag1016
aa(lp2117
I919
ag1134
aaaa(lp2118
I922
aI923
aS'if'
p2119
a(lp2120
(lp2121
I922
ag1009
aa(lp2122
I923
ag1051
aaaa(lp2123
I925
aI927
aS'you'
p2124
a(lp2125
(lp2126
I925
ag1085
aa(lp2127
I926
ag1021
aa(lp2128
I927
ag1055
aaaa(lp2129
I929
aI933
ag753
a(lp2130
(lp2131
I929
ag1034
aa(lp2132
I930
ag1021
aa(lp2133
I931
ag1055
aa(lp2134
I932
ag1032
aa(lp2135
I933
ag1125
aaaa(lp2136
I935
aI940
ag762
a(lp2137
(lp2138
I935
ag1034
aa(lp2139
I936
ag1027
aa(lp2140
I937
ag1011
aa(lp2141
I938
ag1004
aa(lp2142
I939
ag1061
aa(lp2143
I940
ag1002
aaaa(lp2144
I942
aI944
ag771
a(lp2145
(lp2146
I942
ag1021
aa(lp2147
I943
ag1004
aa(lp2148
I944
ag1002
aaaa(lp2149
I946
aI950
ag780
a(lp2150
(lp2151
I946
ag1007
aa(lp2152
I947
ag1027
aa(lp2153
I948
ag1009
aa(lp2154
I949
ag1004
aa(lp2155
I950
ag1061
aaaa(lp2156
I952
aI956
aS'about'
p2157
a(lp2158
(lp2159
I952
ag1011
aa(lp2160
I953
ag1046
aa(lp2161
I954
ag1021
aa(lp2162
I955
ag1055
aa(lp2163
I956
ag1007
aaaa(lp2164
I958
aI961
aS'your'
p2165
a(lp2166
(lp2167
I958
ag1085
aa(lp2168
I959
ag1021
aa(lp2169
I960
ag1055
aa(lp2170
I961
ag1016
aaaa(lp2171
I963
aI965
ag789
a(lp2172
(lp2173
I963
ag1043
aa(lp2174
I964
ag1021
aa(lp2175
I965
ag1046
aaaa(lp2176
I968
aI971
aS'what'
p2177
a(lp2178
(lp2179
I968
ag1069
aa(lp2180
I969
ag1027
aa(lp2181
I970
ag1011
aa(lp2182
I971
ag1007
aaaa(lp2183
I973
aI977
ag798
a(lp2184
(lp2185
I973
ag1069
aa(lp2186
I974
ag1021
aa(lp2187
I975
ag1055
aa(lp2188
I976
ag1032
aa(lp2189
I977
ag1125
aaaa(lp2190
I979
aI980
aS'it'
p2191
a(lp2192
(lp2193
I979
ag1009
aa(lp2194
I980
ag1007
aaaa(lp2195
I982
aI983
aS'be'
p2196
a(lp2197
(lp2198
I982
ag1046
aa(lp2199
I983
ag1002
aaaa(lp2200
I986
aI988
ag807
a(lp2201
(lp2202
I986
ag1061
aa(lp2203
I987
ag1021
aa(lp2204
I988
ag1007
aaaa(lp2205
I990
aI990
ag1011
a(lp2206
(lp2207
I990
ag1011
aaaa(lp2208
I992
aI999
ag816
a(lp2209
(lp2210
I992
ag1737
aa(lp2211
I993
ag1055
aa(lp2212
I994
ag1002
aa(lp2213
I995
ag1019
aa(lp2214
I996
ag1007
aa(lp2215
I997
ag1009
aa(lp2216
I998
ag1021
aa(lp2217
I999
ag1004
aaaa(lp2218
I1002
aI1006
ag825
a(lp2219
(lp2220
I1002
ag1019
aa(lp2221
I1003
ag1027
aa(lp2222
I1004
ag1011
aa(lp2223
I1005
ag1016
aa(lp2224
I1006
ag1002
aaaa(lp2225
I1008
aI1010
aS'the'
p2226
a(lp2227
(lp2228
I1008
ag1007
aa(lp2229
I1009
ag1027
aa(lp2230
I1010
ag1002
aaaa(lp2231
I1012
aI1015
ag834
a(lp2232
(lp2233
I1012
ag1046
aa(lp2234
I1013
ag1002
aa(lp2235
I1014
ag1019
aa(lp2236
I1015
ag1007
aaaa(lp2237
I1017
aI1019
aS'and'
p2238
a(lp2239
(lp2240
I1017
ag1011
aa(lp2241
I1018
ag1004
aa(lp2242
I1019
ag1125
aaaa(lp2243
I1021
aI1025
ag843
a(lp2244
(lp2245
I1021
ag1069
aa(lp2246
I1022
ag1021
aa(lp2247
I1023
ag1016
aa(lp2248
I1024
ag1019
aa(lp2249
I1025
ag1007
aaaa(lp2250
I1027
aI1031
aS'about'
p2251
a(lp2252
(lp2253
I1027
ag1011
aa(lp2254
I1028
ag1046
aa(lp2255
I1029
ag1021
aa(lp2256
I1030
ag1055
aa(lp2257
I1031
ag1007
aaaa(lp2258
I1033
aI1036
aS'what'
p2259
a(lp2260
(lp2261
I1033
ag1069
aa(lp2262
I1034
ag1027
aa(lp2263
I1035
ag1011
aa(lp2264
I1036
ag1007
aaaa(lp2265
I1038
aI1040
aS'you'
p2266
a(lp2267
(lp2268
I1038
ag1085
aa(lp2269
I1039
ag1021
aa(lp2270
I1040
ag1055
aaaa(lp2271
I1042
aI1043
aS'do'
p2272
a(lp2273
(lp2274
I1042
ag1125
aa(lp2275
I1043
ag1021
aaaa(lp2276
I1045
aI1047
aS'and'
p2277
a(lp2278
(lp2279
I1045
ag1011
aa(lp2280
I1046
ag1004
aa(lp2281
I1047
ag1125
aaaa(lp2282
I1049
aI1053
aS'where'
p2283
a(lp2284
(lp2285
I1049
ag1069
aa(lp2286
I1050
ag1027
aa(lp2287
I1051
ag1002
aa(lp2288
I1052
ag1016
aa(lp2289
I1053
ag1002
aaaa(lp2290
I1055
aI1057
aS'you'
p2291
a(lp2292
(lp2293
I1055
ag1085
aa(lp2294
I1056
ag1021
aa(lp2295
I1057
ag1055
aaaa(lp2296
I1059
aI1062
ag852
a(lp2297
(lp2298
I1059
ag1069
aa(lp2299
I1060
ag1021
aa(lp2300
I1061
ag1016
aa(lp2301
I1062
ag1134
aaaa(lp2302
I1064
aI1065
aS'by'
p2303
a(lp2304
(lp2305
I1064
ag1046
aa(lp2306
I1065
ag1085
aaaa(lp2307
I1067
aI1073
ag861
a(lp2308
(lp2309
I1067
ag1043
aa(lp2310
I1068
ag1021
aa(lp2311
I1069
ag1009
aa(lp2312
I1070
ag1004
aa(lp2313
I1071
ag1009
aa(lp2314
I1072
ag1004
aa(lp2315
I1073
ag1061
aaaa(lp2316
I1075
aI1075
ag1011
a(lp2317
(lp2318
I1075
ag1011
aaaa(lp2319
I1077
aI1086
ag870
a(lp2320
(lp2321
I1077
ag1125
aa(lp2322
I1078
ag1009
aa(lp2323
I1079
ag1019
aa(lp2324
I1080
ag1034
aa(lp2325
I1081
ag1055
aa(lp2326
I1082
ag1019
aa(lp2327
I1083
ag1019
aa(lp2328
I1084
ag1009
aa(lp2329
I1085
ag1021
aa(lp2330
I1086
ag1004
aaaa(lp2331
I1088
aI1089
aS'or'
p2332
a(lp2333
(lp2334
I1088
ag1021
aa(lp2335
I1089
ag1016
aaaa(lp2336
I1093
aI1100
ag879
a(lp2337
(lp2338
I1093
ag1019
aa(lp2339
I1094
ag1007
aa(lp2340
I1095
ag1011
aa(lp2341
I1096
ag1016
aa(lp2342
I1097
ag1007
aa(lp2343
I1098
ag1009
aa(lp2344
I1099
ag1004
aa(lp2345
I1100
ag1061
aaaa(lp2346
I1102
aI1105
aS'your'
p2347
a(lp2348
(lp2349
I1102
ag1085
aa(lp2350
I1103
ag1021
aa(lp2351
I1104
ag1055
aa(lp2352
I1105
ag1016
aaaa(lp2353
I1107
aI1109
aS'own'
p2354
a(lp2355
(lp2356
I1107
ag1021
aa(lp2357
I1108
ag1069
aa(lp2358
I1109
ag1004
aaaa(lp2359
I1111
aI1112
aS'as'
p2360
a(lp2361
(lp2362
I1111
ag1011
aa(lp2363
I1112
ag1019
aaaa(lp2364
I1114
aI1115
aS'an'
p2365
a(lp2366
(lp2367
I1114
ag1011
aa(lp2368
I1115
ag1004
aaaa(lp2369
I1117
aI1119
ag888
a(lp2370
(lp2371
I1117
ag1016
aa(lp2372
I1118
ag1019
aa(lp2373
I1119
ag1019
aaaa(lp2374
I1121
aI1124
ag897
a(lp2375
(lp2376
I1121
ag1051
aa(lp2377
I1122
ag1002
aa(lp2378
I1123
ag1002
aa(lp2379
I1124
ag1125
aaaa(lp2380
I1127
aI1128
aS'or'
p2381
a(lp2382
(lp2383
I1127
ag1021
aa(lp2384
I1128
ag1016
aaaa(lp2385
I1130
aI1131
aS'to'
p2386
a(lp2387
(lp2388
I1130
ag1007
aa(lp2389
I1131
ag1021
aaaa(lp2390
I1133
aI1137
ag906
a(lp2391
(lp2392
I1133
ag1019
aa(lp2393
I1134
ag1007
aa(lp2394
I1135
ag1011
aa(lp2395
I1136
ag1016
aa(lp2396
I1137
ag1007
aaaa(lp2397
I1139
aI1139
ag1011
a(lp2398
(lp2399
I1139
ag1011
aaaa(lp2400
I1141
aI1153
ag915
a(lp2401
(lp2402
I1141
ag1125
aa(lp2403
I1142
ag1009
aa(lp2404
I1143
ag1019
aa(lp2405
I1144
ag1034
aa(lp2406
I1145
ag1055
aa(lp2407
I1146
ag1019
aa(lp2408
I1147
ag1019
aa(lp2409
I1148
ag1009
aa(lp2410
I1149
ag1021
aa(lp2411
I1150
ag1004
aa(lp2412
I1153
aS'\xbb'
p2413
aaaa(lp2414
I1155
aI1158
ag924
a(lp2415
(lp2416
I1155
ag1019
aa(lp2417
I1156
ag1009
aa(lp2418
I1157
ag1061
aa(lp2419
I1158
ag1004
aaaa(lp2420
I1160
aI1161
aS'in'
p2421
a(lp2422
(lp2423
I1160
ag1009
aa(lp2424
I1161
ag1004
aaaa(lp2425
I1163
aI1168
ag933
a(lp2426
(lp2427
I1163
ag1034
aa(lp2428
I1164
ag1016
aa(lp2429
I1165
ag1002
aa(lp2430
I1166
ag1011
aa(lp2431
I1167
ag1007
aa(lp2432
I1168
ag1002
aaaa(lp2433
I1170
aI1171
aS'an'
p2434
a(lp2435
(lp2436
I1170
ag1011
aa(lp2437
I1171
ag1004
aaaa(lp2438
I1173
aI1179
ag942
a(lp2439
(lp2440
I1173
ag1011
aa(lp2441
I1174
ag1034
aa(lp2442
I1175
ag1034
aa(lp2443
I1176
ag1021
aa(lp2444
I1177
ag1055
aa(lp2445
I1178
ag1004
aa(lp2446
I1179
ag1007
aaaa(lp2447
I1181
aI1186
ag951
a(lp2448
(lp2449
I1181
ag1016
aa(lp2450
I1182
ag1002
aa(lp2451
I1183
ag1034
aa(lp2452
I1184
ag1002
aa(lp2453
I1185
ag1004
aa(lp2454
I1186
ag1007
aaaa(lp2455
I1188
aI1195
ag960
a(lp2456
(lp2457
I1188
ag1000
aa(lp2458
I1189
ag1002
aa(lp2459
I1190
ag1004
aa(lp2460
I1191
ag1002
aa(lp2461
I1192
ag1007
aa(lp2462
I1193
ag1009
aa(lp2463
I1194
ag1011
aa(lp2464
I1195
ag1004
aaaa(lp2465
I1197
aI1202
ag969
a(lp2466
(lp2467
I1197
ag1016
aa(lp2468
I1198
ag1002
aa(lp2469
I1199
ag1019
aa(lp2470
I1200
ag1021
aa(lp2471
I1201
ag1016
aa(lp2472
I1202
ag1007
aaaa(lp2473
I1204
aI1215
ag978
a(lp2474
(lp2475
I1204
ag1027
aa(lp2476
I1205
ag1021
aa(lp2477
I1206
ag1007
aa(lp2478
I1207
ag1002
aa(lp2479
I1208
ag1032
aa(lp2480
I1210
ag1034
aa(lp2481
I1211
ag1011
aa(lp2482
I1212
ag1019
aa(lp2483
I1213
ag1009
aa(lp2484
I1214
ag1004
aa(lp2485
I1215
ag1021
aaaa(lp2486
I1204
aI1215
ag987
a(lp2487
(lp2488
I1217
ag1043
aa(lp2489
I1218
ag1021
aa(lp2490
I1219
ag1046
aa(lp2491
I1220
ag1019
aaaasS'cleanCharacterMap'
p2492
(lp2493
g999
ag1001
ag1003
ag1005
ag1006
ag1008
ag1010
ag1012
a(lp2494
I8
aS' '
p2495
aag1015
ag1017
ag1018
ag1020
ag1022
ag1023
a(lp2496
I15
ag2495
aag1026
ag1028
ag1029
ag1030
ag1031
ag1033
ag1035
ag1036
ag1037
ag1038
ag1039
a(lp2497
I28
ag2495
aag1042
ag1044
ag1045
ag1047
a(lp2498
I33
ag2495
aag1050
ag1052
ag1053
ag1054
ag1056
a(lp2499
I39
ag2495
aag1060
ag1062
ag1063
a(lp2500
I43
ag2495
aag1066
ag1067
ag1068
a(lp2501
I47
ag2495
aag1072
ag1073
ag1074
ag1075
ag1076
ag1077
ag1078
ag1079
a(lp2502
I56
ag2495
aag1083
ag1084
a(lp2503
I59
ag2495
aag1088
ag1089
ag1090
ag1091
ag1092
a(lp2504
I65
ag2495
aag1096
ag1097
a(lp2505
I68
ag2495
aag1100
ag1101
ag1102
ag1103
ag1104
a(lp2506
I74
ag2495
aag1108
ag1109
ag1110
a(lp2507
I79
ag2495
aag1113
ag1114
ag1115
ag1116
ag1117
ag1118
a(lp2508
I86
ag2495
aag1121
ag1122
ag1123
ag1124
a(lp2509
I91
ag2495
aag1129
ag1130
a(lp2510
I94
ag2495
aag1133
ag1135
ag1136
ag1137
a(lp2511
I99
ag2495
aag1141
ag1142
ag1143
ag1144
a(lp2512
I104
ag2495
aag1148
ag1149
a(lp2513
I107
ag2495
aag1152
ag1153
ag1155
ag1157
ag1158
ag1159
a(lp2514
I114
ag2495
aag1163
ag1164
ag1165
ag1166
a(lp2515
I119
ag2495
aag1169
ag1170
ag1171
ag1172
ag1173
a(lp2516
I125
ag2495
aag1177
ag1178
a(lp2517
I128
ag2495
aag1182
ag1183
ag1184
a(lp2518
I132
ag2495
aag1188
ag1189
ag1190
ag1191
a(lp2519
I137
ag2495
aag1194
ag1195
ag1196
ag1197
ag1198
ag1199
ag1200
ag1201
ag1202
a(lp2520
I147
ag2495
aa(lp2521
I150
ag2495
aag1206
ag1207
ag1208
a(lp2522
I154
ag2495
aag1211
ag1212
ag1213
ag1214
ag1215
ag1216
ag1217
ag1218
ag1219
ag1220
ag1221
a(lp2523
I166
ag2495
aag1225
ag1226
ag1227
a(lp2524
I170
ag2495
aag1230
ag1231
ag1232
ag1233
a(lp2525
I175
ag2495
aag1237
ag1238
ag1239
a(lp2526
I179
ag2495
aag1243
ag1244
ag1245
a(lp2527
I183
ag2495
aag1248
ag1249
ag1250
ag1251
ag1252
ag1253
ag1254
ag1255
ag1256
ag1257
a(lp2528
I195
ag2495
aag1261
ag1262
ag1263
ag1264
a(lp2529
I200
ag2495
aag1268
ag1269
a(lp2530
I203
ag2495
aag1273
ag1274
ag1275
a(lp2531
I207
ag2495
aag1278
ag1279
ag1280
ag1281
ag1282
ag1283
ag1284
ag1285
ag1286
a(lp2532
I220
ag2495
aag1289
ag1290
ag1291
ag1292
a(lp2533
I225
ag2495
aag1295
ag1296
ag1297
ag1298
ag1299
a(lp2534
I231
ag2495
aag1302
ag1303
ag1304
ag1305
ag1306
ag1307
ag1308
ag1309
a(lp2535
I240
ag2495
aag1313
ag1314
ag1315
a(lp2536
I244
ag2495
aag1319
ag1320
ag1321
a(lp2537
I248
ag2495
aag1325
ag1326
ag1327
a(lp2538
I252
ag2495
aag1330
ag1331
ag1332
ag1333
ag1334
a(lp2539
I259
ag2495
aag1338
ag1339
ag1340
ag1341
a(lp2540
I264
ag2495
aag1345
ag1346
a(lp2541
I267
ag2495
aag1350
ag1351
ag1352
a(lp2542
I271
ag2495
aag1355
ag1356
ag1357
ag1358
ag1359
ag1360
a(lp2543
I278
ag2495
aag1363
ag1364
ag1365
ag1366
ag1367
ag1368
ag1369
ag1370
ag1371
ag1372
ag1373
a(lp2544
I290
ag2495
aag1377
ag1378
ag1379
a(lp2545
I294
ag2495
aag1382
ag1383
ag1384
ag1385
ag1386
ag1387
ag1388
a(lp2546
I302
ag2495
aag1391
ag1392
ag1393
ag1394
a(lp2547
I307
ag2495
aag1398
ag1399
a(lp2548
I310
ag2495
aag1402
ag1403
ag1404
ag1405
ag1406
ag1407
ag1408
ag1409
a(lp2549
I319
ag2495
aag1412
ag1413
ag1414
ag1415
ag1416
ag1417
a(lp2550
I326
ag2495
aag1420
ag1421
ag1422
ag1423
ag1424
ag1425
ag1426
ag1427
ag1428
ag1429
ag1430
a(lp2551
I340
ag2495
aag1434
ag1435
ag1436
a(lp2552
I344
ag2495
aag1439
ag1440
ag1441
ag1442
ag1443
ag1444
a(lp2553
I351
ag2495
aag1447
ag1448
ag1449
ag1450
ag1451
ag1452
ag1453
a(lp2554
I359
ag2495
aag1457
ag1458
a(lp2555
I362
ag2495
aag1461
ag1462
ag1463
ag1464
ag1465
ag1466
ag1467
ag1468
a(lp2556
I374
ag2495
aag1471
ag1472
ag1473
ag1474
a(lp2557
I379
ag2495
aag1478
ag1479
ag1480
ag1481
a(lp2558
I384
ag2495
aag1485
ag1486
a(lp2559
I387
ag2495
aag1490
ag1491
ag1492
a(lp2560
I391
ag2495
aag1495
ag1496
ag1497
ag1498
ag1499
a(lp2561
I397
ag2495
aa(lp2562
I399
ag2495
aag1503
ag1504
ag1505
ag1506
a(lp2563
I404
ag2495
aag1509
ag1510
ag1511
ag1512
ag1513
ag1514
ag1515
ag1516
a(lp2564
I413
ag2495
aag1519
ag1520
ag1521
ag1522
ag1523
ag1524
a(lp2565
I420
ag2495
aag1527
ag1528
ag1529
ag1530
ag1531
ag1532
ag1533
ag1534
ag1535
ag1536
ag1537
a(lp2566
I433
ag2495
aag1540
ag1541
ag1542
ag1543
a(lp2567
I438
ag2495
aag1546
ag1547
ag1548
ag1549
a(lp2568
I444
ag2495
aag1553
ag1554
ag1555
a(lp2569
I448
ag2495
aag1559
ag1560
ag1561
ag1562
a(lp2570
I453
ag2495
aag1565
ag1566
ag1567
ag1568
ag1569
ag1570
ag1571
ag1572
ag1573
a(lp2571
I463
ag2495
aag1577
ag1578
ag1579
ag1580
ag1581
a(lp2572
I469
ag2495
aag1584
ag1585
ag1586
ag1587
ag1588
a(lp2573
I476
ag2495
aag1592
ag1593
ag1594
a(lp2574
I480
ag2495
aag1598
ag1599
ag1600
ag1601
a(lp2575
I485
ag2495
aag1604
ag1605
ag1606
ag1607
ag1608
ag1609
ag1610
ag1611
a(lp2576
I494
ag2495
aag1614
ag1615
ag1616
ag1617
ag1618
ag1619
a(lp2577
I501
ag2495
aag1622
ag1623
ag1624
ag1625
ag1626
ag1627
ag1628
ag1629
ag1630
ag1631
ag1632
a(lp2578
I514
ag2495
aag1635
ag1636
ag1637
ag1638
ag1639
a(lp2579
I520
ag2495
aag1643
ag1644
a(lp2580
I526
ag2495
aag1647
ag1648
ag1649
ag1650
a(lp2581
I531
ag2495
aag1654
ag1655
ag1656
ag1657
a(lp2582
I536
ag2495
aag1661
ag1662
ag1663
a(lp2583
I540
ag2495
aag1667
ag1668
ag1669
a(lp2584
I544
ag2495
aag1672
ag1673
ag1674
ag1675
ag1676
ag1677
ag1678
a(lp2585
I552
ag2495
aag1681
ag1682
ag1683
ag1684
ag1685
ag1686
ag1687
ag1688
a(lp2586
I561
ag2495
aag1691
ag1692
ag1693
ag1694
ag1695
ag1696
ag1697
ag1698
a(lp2587
I571
ag2495
aag1701
ag1702
ag1703
ag1704
ag1705
ag1706
ag1707
a(lp2588
I580
ag2495
aag1710
ag1711
ag1712
ag1713
ag1714
ag1715
ag1716
ag1717
a(lp2589
I589
ag2495
aag1721
ag1722
ag1723
a(lp2590
I593
ag2495
aag1726
ag1727
ag1728
ag1729
ag1730
ag1731
a(lp2591
I600
ag2495
aag1734
ag1735
ag1736
ag1738
ag1739
ag1740
ag1741
ag1742
ag1743
ag1744
ag1745
ag1746
a(lp2592
I613
ag2495
aag1749
ag1750
ag1751
ag1752
a(lp2593
I618
ag2495
aag1756
ag1757
a(lp2594
I621
ag2495
aag1760
ag1761
ag1762
ag1763
ag1764
ag1765
ag1766
ag1767
a(lp2595
I630
ag2495
aag1770
ag1771
ag1772
ag1773
ag1774
ag1775
a(lp2596
I637
ag2495
aag1778
ag1779
ag1780
ag1781
ag1782
ag1783
ag1784
ag1785
ag1786
ag1787
ag1788
a(lp2597
I651
ag2495
aag1792
ag1793
ag1794
ag1795
a(lp2598
I656
ag2495
aag1799
ag1800
a(lp2599
I659
ag2495
aag1804
ag1805
ag1806
a(lp2600
I663
ag2495
aag1809
ag1810
ag1811
ag1812
a(lp2601
I668
ag2495
aag1815
ag1816
ag1817
ag1818
a(lp2602
I673
ag2495
aag1822
ag1823
ag1824
ag1825
ag1826
a(lp2603
I682
ag2495
aag1829
ag1830
ag1831
ag1832
a(lp2604
I687
ag2495
aag1836
ag1837
ag1838
a(lp2605
I691
ag2495
aag1842
ag1843
a(lp2606
I694
ag2495
aag1846
ag1847
ag1848
a(lp2607
I698
ag2495
aag1851
a(lp2608
I700
ag2495
aag1854
ag1855
ag1856
a(lp2609
I704
ag2495
aag1860
ag1861
a(lp2610
I707
ag2495
aag1864
ag1865
ag1866
ag1867
ag1868
ag1869
ag1870
ag1871
a(lp2611
I716
ag2495
aag1874
ag1875
ag1876
ag1877
ag1878
ag1879
a(lp2612
I723
ag2495
aag1882
ag1883
ag1884
ag1885
ag1886
ag1887
ag1888
ag1889
ag1890
ag1891
ag1892
a(lp2613
I737
ag2495
aag1896
ag1897
a(lp2614
I740
ag2495
aag1901
ag1902
ag1903
a(lp2615
I744
ag2495
aag1906
ag1907
ag1908
ag1909
a(lp2616
I749
ag2495
aag1913
ag1914
a(lp2617
I752
ag2495
aag1917
ag1918
ag1919
ag1920
ag1921
ag1922
ag1923
ag1924
a(lp2618
I761
ag2495
aag1927
ag1928
ag1929
ag1930
ag1931
ag1932
a(lp2619
I768
ag2495
aag1935
ag1936
ag1937
ag1938
ag1939
ag1940
ag1941
ag1942
ag1943
ag1944
ag1945
a(lp2620
I782
ag2495
aag1949
ag1950
ag1951
a(lp2621
I786
ag2495
aag1955
ag1956
ag1957
a(lp2622
I790
ag2495
aag1961
ag1962
ag1963
a(lp2623
I794
ag2495
aag1966
ag1967
ag1968
ag1969
a(lp2624
I799
ag2495
aag1973
ag1974
ag1975
a(lp2625
I803
ag2495
aag1978
ag1979
ag1980
a(lp2626
I808
ag2495
aag1984
ag1985
ag1986
a(lp2627
I812
ag2495
aag1990
ag1991
ag1992
a(lp2628
I816
ag2495
aag1996
ag1997
ag1998
a(lp2629
I820
ag2495
aag2001
ag2002
ag2003
a(lp2630
I824
ag2495
aag2007
ag2008
ag2009
ag2010
a(lp2631
I829
ag2495
aag2013
ag2014
ag2015
ag2016
ag2017
a(lp2632
I835
ag2495
aag2020
ag2021
ag2022
ag2023
ag2024
ag2025
ag2026
ag2027
ag2028
a(lp2633
I846
ag2495
aag2032
ag2033
ag2034
a(lp2634
I850
ag2495
aag2037
ag2038
ag2039
ag2040
ag2041
ag2042
a(lp2635
I857
ag2495
aag2046
ag2047
ag2048
a(lp2636
I861
ag2495
aag2051
ag2052
ag2053
ag2054
ag2055
ag2056
ag2057
a(lp2637
I869
ag2495
aag2060
ag2061
ag2062
ag2063
ag2064
ag2065
a(lp2638
I876
ag2495
aag2069
ag2070
a(lp2639
I879
ag2495
aag2073
ag2074
ag2075
a(lp2640
I886
ag2495
aag2078
ag2079
ag2080
ag2081
ag2082
a(lp2641
I893
ag2495
aag2085
ag2086
ag2087
ag2088
ag2089
a(lp2642
I899
ag2495
aag2093
ag2094
ag2095
ag2096
ag2097
a(lp2643
I905
ag2495
aag2101
ag2102
ag2103
ag2104
ag2105
a(lp2644
I911
ag2495
aag2109
ag2110
ag2111
a(lp2645
I915
ag2495
aag2114
ag2115
ag2116
ag2117
a(lp2646
I921
ag2495
aag2121
ag2122
a(lp2647
I924
ag2495
aag2126
ag2127
ag2128
a(lp2648
I928
ag2495
aag2131
ag2132
ag2133
ag2134
ag2135
a(lp2649
I934
ag2495
aag2138
ag2139
ag2140
ag2141
ag2142
ag2143
a(lp2650
I941
ag2495
aag2146
ag2147
ag2148
a(lp2651
I945
ag2495
aag2151
ag2152
ag2153
ag2154
ag2155
a(lp2652
I951
ag2495
aag2159
ag2160
ag2161
ag2162
ag2163
a(lp2653
I957
ag2495
aag2167
ag2168
ag2169
ag2170
a(lp2654
I962
ag2495
aag2173
ag2174
ag2175
a(lp2655
I967
ag2495
aag2179
ag2180
ag2181
ag2182
a(lp2656
I972
ag2495
aag2185
ag2186
ag2187
ag2188
ag2189
a(lp2657
I978
ag2495
aag2193
ag2194
a(lp2658
I981
ag2495
aag2198
ag2199
a(lp2659
I985
ag2495
aag2202
ag2203
ag2204
a(lp2660
I989
ag2495
aag2207
a(lp2661
I991
ag2495
aag2210
ag2211
ag2212
ag2213
ag2214
ag2215
ag2216
ag2217
a(lp2662
I1001
ag2495
aag2220
ag2221
ag2222
ag2223
ag2224
a(lp2663
I1007
ag2495
aag2228
ag2229
ag2230
a(lp2664
I1011
ag2495
aag2233
ag2234
ag2235
ag2236
a(lp2665
I1016
ag2495
aag2240
ag2241
ag2242
a(lp2666
I1020
ag2495
aag2245
ag2246
ag2247
ag2248
ag2249
a(lp2667
I1026
ag2495
aag2253
ag2254
ag2255
ag2256
ag2257
a(lp2668
I1032
ag2495
aag2261
ag2262
ag2263
ag2264
a(lp2669
I1037
ag2495
aag2268
ag2269
ag2270
a(lp2670
I1041
ag2495
aag2274
ag2275
a(lp2671
I1044
ag2495
aag2279
ag2280
ag2281
a(lp2672
I1048
ag2495
aag2285
ag2286
ag2287
ag2288
ag2289
a(lp2673
I1054
ag2495
aag2293
ag2294
ag2295
a(lp2674
I1058
ag2495
aag2298
ag2299
ag2300
ag2301
a(lp2675
I1063
ag2495
aag2305
ag2306
a(lp2676
I1066
ag2495
aag2309
ag2310
ag2311
ag2312
ag2313
ag2314
ag2315
a(lp2677
I1074
ag2495
aag2318
a(lp2678
I1076
ag2495
aag2321
ag2322
ag2323
ag2324
ag2325
ag2326
ag2327
ag2328
ag2329
ag2330
a(lp2679
I1087
ag2495
aag2334
ag2335
a(lp2680
I1090
ag2495
aa(lp2681
I1092
ag2495
aag2338
ag2339
ag2340
ag2341
ag2342
ag2343
ag2344
ag2345
a(lp2682
I1101
ag2495
aag2349
ag2350
ag2351
ag2352
a(lp2683
I1106
ag2495
aag2356
ag2357
ag2358
a(lp2684
I1110
ag2495
aag2362
ag2363
a(lp2685
I1113
ag2495
aag2367
ag2368
a(lp2686
I1116
ag2495
aag2371
ag2372
ag2373
a(lp2687
I1120
ag2495
aag2376
ag2377
ag2378
ag2379
a(lp2688
I1126
ag2495
aag2383
ag2384
a(lp2689
I1129
ag2495
aag2388
ag2389
a(lp2690
I1132
ag2495
aag2392
ag2393
ag2394
ag2395
ag2396
a(lp2691
I1138
ag2495
aag2399
a(lp2692
I1140
ag2495
aag2402
ag2403
ag2404
ag2405
ag2406
ag2407
ag2408
ag2409
ag2410
ag2411
ag2412
a(lp2693
I1154
ag2495
aag2416
ag2417
ag2418
ag2419
a(lp2694
I1159
ag2495
aag2423
ag2424
a(lp2695
I1162
ag2495
aag2427
ag2428
ag2429
ag2430
ag2431
ag2432
a(lp2696
I1169
ag2495
aag2436
ag2437
a(lp2697
I1172
ag2495
aag2440
ag2441
ag2442
ag2443
ag2444
ag2445
ag2446
a(lp2698
I1180
ag2495
aag2449
ag2450
ag2451
ag2452
ag2453
ag2454
a(lp2699
I1187
ag2495
aag2457
ag2458
ag2459
ag2460
ag2461
ag2462
ag2463
ag2464
a(lp2700
I1196
ag2495
aag2467
ag2468
ag2469
ag2470
ag2471
ag2472
a(lp2701
I1203
ag2495
aag2475
ag2476
ag2477
ag2478
ag2479
ag2480
ag2481
ag2482
ag2483
ag2484
ag2485
a(lp2702
I1216
ag2495
aag2488
ag2489
ag2490
ag2491
asS'text'
p2703
S"venetian resort hotel-casino jobs forum get new comments by email my email it's always hard to know what to expect when going in for that interview -- and preparation can make all the difference. what is the interview... host every business has its own style. what is the office environment and culture like at venetian resort hotel-casino? are people dressed in business... host what do you think - will venetian resort hotel-casino grow fast? are they expanding their staff? how does venetian resort hotel-casino stack up... host what are the average starting salaries, bonuses, benefits and travel requirements like at venetian resort hotel-casino? what do you like best about... host how to get a job at venetian resort hotel-casino. do you work at venetian resort hotel-casino? how did you find the job? how did you get that first interview? any advice for someone trying to get... what's great about where you work? if you could change one thing about your job, what would it be? got a question? share the best and worst about what you do and where you work by joining a discussion or . starting your own as an rss feed. or to start a discussion.\xc2\xbb sign in create an account recent venetian resort hotel-casino jobs"
p2704
sS'cleanWordMap'
p2705
(lp2706
g997
ag1013
ag1024
ag1040
ag1048
ag1058
ag1064
ag1070
ag1086
ag1098
ag1111
ag1119
ag1131
ag1150
ag1167
ag1192
ag1209
ag1228
ag1246
ag1276
ag1287
ag1293
ag1300
ag1328
ag1353
ag1361
ag1380
ag1389
ag1400
ag1410
ag1418
ag1437
ag1445
ag1459
ag1469
ag1493
ag1507
ag1517
ag1525
ag1538
ag1544
ag1563
ag1582
ag1602
ag1612
ag1620
ag1633
ag1645
ag1670
ag1679
ag1689
ag1699
ag1708
ag1724
ag1732
ag1747
ag1758
ag1768
ag1776
ag1807
ag1813
ag1827
ag1844
ag1852
ag1862
ag1872
ag1880
ag1904
ag1915
ag1925
ag1933
ag1964
ag1976
ag1999
ag2011
ag2018
ag2035
ag2049
ag2058
ag2071
ag2076
ag2083
ag2112
ag2129
ag2136
ag2144
ag2149
ag2171
ag2183
ag2200
ag2208
ag2218
ag2231
ag2243
ag2296
ag2307
ag2319
ag2336
ag2369
ag2374
ag2390
ag2400
ag2414
ag2425
ag2438
ag2447
ag2455
ag2465
ag2473
ag2486
asS'lines'
p2707
(lp2708
VVenetian Resort Hotel-casino Jobs Forum\u000a
p2709
aVGet new comments by email\u000a
p2710
aVMy Email\u000a
p2711
aVIt's always hard to know what to expect when going in for that interview -- and preparation can make all the difference. What is the interview...\u000a
p2712
aVHost\u000a
p2713
aVEvery business has its own style. What is the office environment and culture like at Venetian Resort Hotel-Casino? Are people dressed in business...\u000a
p2714
aVHost\u000a
p2715
aVWhat do you think - will Venetian Resort Hotel-Casino grow fast? Are they expanding their staff? How does Venetian Resort Hotel-Casino stack up...\u000a
p2716
aVHost\u000a
p2717
aVWhat are the average starting salaries, bonuses, benefits and travel requirements like at Venetian Resort Hotel-casino? What do you like best about...\u000a
p2718
aVHost\u000a
p2719
aVHow to get a job at Venetian Resort Hotel-casino.\u000a
p2720
aVDo you work at Venetian Resort Hotel-casino? How did you find the job? How did you get that first interview? Any advice for someone trying to get...\u000a
p2721
aVWhat's great about where you work? If you could change one thing about your job, what would it be? Got a question? Share the best and worst about what you do and where you work by joining a discussion or . starting your own\u000a
p2722
aVas an RSS feed.\u000a
p2723
aVor to start a discussion. Sign in create an account\u000a
p2724
aVRecent Venetian Resort Hotel-casino Jobs
p2725
asS'docType'
p2726
S'src'
p2727
sS'newfmap'
p2728
(lp2729
g4
ag8
ag10
ag12
ag17
ag19
ag21
ag28
ag30
ag32
ag35
ag37
ag39
ag41
ag44
ag46
ag48
ag50
ag53
ag55
ag57
ag59
ag62
ag64
ag66
ag68
ag71
ag73
ag75
ag77
ag80
ag82
ag84
ag86
ag89
ag91
ag93
ag95
ag98
ag100
ag102
ag104
ag107
ag109
ag111
ag113
ag116
ag118
ag120
ag122
ag125
ag127
ag129
ag131
ag134
ag136
ag138
ag140
ag143
ag145
ag147
ag149
ag152
ag154
ag156
ag158
ag161
ag163
ag165
ag167
ag170
ag172
ag174
ag176
ag179
ag181
ag183
ag185
ag188
ag190
ag192
ag194
ag197
ag199
ag201
ag203
ag206
ag208
ag210
ag212
ag215
ag217
ag219
ag221
ag224
ag226
ag228
ag230
ag233
ag235
ag237
ag239
ag242
ag244
ag246
ag248
ag251
ag253
ag255
ag257
ag260
ag262
ag264
ag269
ag271
ag273
ag280
ag282
ag284
ag287
ag289
ag291
ag293
ag296
ag298
ag300
ag302
ag305
ag307
ag309
ag311
ag314
ag316
ag318
ag320
ag323
ag325
ag327
ag329
ag332
ag334
ag336
ag341
ag343
ag345
ag352
ag354
ag356
ag359
ag361
ag363
ag365
ag368
ag370
ag372
ag374
ag377
ag379
ag381
ag383
ag386
ag388
ag390
ag392
ag395
ag397
ag399
ag404
ag406
ag408
ag415
ag417
ag419
ag422
ag424
ag426
ag428
ag431
ag433
ag435
ag437
ag440
ag442
ag444
ag446
ag449
ag451
ag453
ag455
ag458
ag460
ag462
ag464
ag467
ag469
ag471
ag473
ag476
ag478
ag480
ag482
ag485
ag487
ag489
ag491
ag494
ag496
ag498
ag500
ag503
ag505
ag507
ag509
ag512
ag514
ag516
ag521
ag523
ag525
ag532
ag534
ag536
ag539
ag541
ag543
ag545
ag548
ag550
ag552
ag554
ag557
ag559
ag561
ag563
ag566
ag568
ag570
ag572
ag575
ag577
ag579
ag581
ag584
ag586
ag588
ag593
ag595
ag597
ag604
ag606
ag608
ag611
ag613
ag615
ag617
ag620
ag622
ag624
ag629
ag631
ag633
ag640
ag642
ag644
ag647
ag649
ag651
ag653
ag656
ag658
ag660
ag662
ag665
ag667
ag669
ag671
ag674
ag676
ag678
ag680
ag683
ag685
ag687
ag689
ag692
ag694
ag696
ag698
ag701
ag703
ag705
ag707
ag710
ag712
ag714
ag716
ag719
ag721
ag723
ag725
ag728
ag730
ag732
ag734
ag737
ag739
ag741
ag743
ag746
ag748
ag750
ag752
ag755
ag757
ag759
ag761
ag764
ag766
ag768
ag770
ag773
ag775
ag777
ag779
ag782
ag784
ag786
ag788
ag791
ag793
ag795
ag797
ag800
ag802
ag804
ag806
ag809
ag811
ag813
ag815
ag818
ag820
ag822
ag824
ag827
ag829
ag831
ag833
ag836
ag838
ag840
ag842
ag845
ag847
ag849
ag851
ag854
ag856
ag858
ag860
ag863
ag865
ag867
ag869
ag872
ag874
ag876
ag878
ag881
ag883
ag885
ag887
ag890
ag892
ag894
ag896
ag899
ag901
ag903
ag905
ag908
ag910
ag912
ag914
ag917
ag919
ag921
ag923
ag926
ag928
ag930
ag932
ag935
ag937
ag939
ag941
ag944
ag946
ag948
ag950
ag953
ag955
ag957
ag959
ag962
ag964
ag966
ag971
ag973
ag975
ag982
ag984
ag986
ag989
ag991
ag993
asS'featureMap'
p2730
(lp2731
(lp2732
I0
aI7
ag5
ag6
ag9
ag11
ag13
aa(lp2733
I9
aI14
ag15
ag16
ag18
ag20
ag22
aa(lp2734
I16
aI27
ag24
ag25
ag27
ag29
ag31
aa(lp2735
I29
aI32
ag33
ag34
ag36
ag38
ag40
aa(lp2736
I34
aI38
ag42
ag43
ag45
ag47
ag49
aa(lp2737
I40
aI42
ag51
ag52
ag54
ag56
ag58
aa(lp2738
I44
aI46
ag60
ag61
ag63
ag65
ag67
aa(lp2739
I48
aI55
ag69
ag70
ag72
ag74
ag76
aa(lp2740
I60
aI64
ag78
ag79
ag81
ag83
ag85
aa(lp2741
I69
aI73
ag87
ag88
ag90
ag92
ag94
aa(lp2742
I80
aI85
ag96
ag97
ag99
ag101
ag103
aa(lp2743
I87
aI90
ag105
ag106
ag108
ag110
ag112
aa(lp2744
I95
aI98
ag114
ag115
ag117
ag119
ag121
aa(lp2745
I108
aI113
ag123
ag124
ag126
ag128
ag130
aa(lp2746
I120
aI124
ag132
ag133
ag135
ag137
ag139
aa(lp2747
I138
aI146
ag141
ag142
ag144
ag146
ag148
aa(lp2748
I155
aI165
ag150
ag151
ag153
ag155
ag157
aa(lp2749
I171
aI174
ag159
ag160
ag162
ag164
ag166
aa(lp2750
I184
aI193
ag168
ag169
ag171
ag173
ag175
aa(lp2751
I208
aI216
ag177
ag178
ag180
ag182
ag184
aa(lp2752
I221
aI224
ag186
ag187
ag189
ag191
ag193
aa(lp2753
I226
aI230
ag195
ag196
ag198
ag200
ag202
aa(lp2754
I232
aI239
ag204
ag205
ag207
ag209
ag211
aa(lp2755
I253
aI257
ag213
ag214
ag216
ag218
ag220
aa(lp2756
I272
aI277
ag222
ag223
ag225
ag227
ag229
aa(lp2757
I279
aI289
ag231
ag232
ag234
ag236
ag238
aa(lp2758
I295
aI301
ag240
ag241
ag243
ag245
ag247
aa(lp2759
I303
aI306
ag249
ag250
ag252
ag254
ag256
aa(lp2760
I311
aI318
ag258
ag259
ag261
ag263
ag265
aa(lp2761
I320
aI325
ag267
ag268
ag270
ag272
ag274
aa(lp2762
I327
aI338
ag276
ag277
ag279
ag281
ag283
aa(lp2763
I345
aI350
ag285
ag286
ag288
ag290
ag292
aa(lp2764
I352
aI358
ag294
ag295
ag297
ag299
ag301
aa(lp2765
I363
aI370
ag303
ag304
ag306
ag308
ag310
aa(lp2766
I375
aI378
ag312
ag313
ag315
ag317
ag319
aa(lp2767
I392
aI396
ag321
ag322
ag324
ag326
ag328
aa(lp2768
I405
aI412
ag330
ag331
ag333
ag335
ag337
aa(lp2769
I414
aI419
ag339
ag340
ag342
ag344
ag346
aa(lp2770
I421
aI432
ag348
ag349
ag351
ag353
ag355
aa(lp2771
I434
aI437
ag357
ag358
ag360
ag362
ag364
aa(lp2772
I439
aI442
ag366
ag367
ag369
ag371
ag373
aa(lp2773
I454
aI462
ag375
ag376
ag378
ag380
ag382
aa(lp2774
I470
aI474
ag384
ag385
ag387
ag389
ag391
aa(lp2775
I486
aI493
ag393
ag394
ag396
ag398
ag400
aa(lp2776
I495
aI500
ag402
ag403
ag405
ag407
ag409
aa(lp2777
I502
aI513
ag411
ag412
ag414
ag416
ag418
aa(lp2778
I515
aI519
ag420
ag421
ag423
ag425
ag427
aa(lp2779
I527
aI530
ag429
ag430
ag432
ag434
ag436
aa(lp2780
I545
aI551
ag438
ag439
ag441
ag443
ag445
aa(lp2781
I553
aI560
ag447
ag448
ag450
ag452
ag454
aa(lp2782
I562
aI569
ag456
ag457
ag459
ag461
ag463
aa(lp2783
I572
aI578
ag465
ag466
ag468
ag470
ag472
aa(lp2784
I581
aI588
ag474
ag475
ag477
ag479
ag481
aa(lp2785
I594
aI599
ag483
ag484
ag486
ag488
ag490
aa(lp2786
I601
aI612
ag492
ag493
ag495
ag497
ag499
aa(lp2787
I614
aI617
ag501
ag502
ag504
ag506
ag508
aa(lp2788
I622
aI629
ag510
ag511
ag513
ag515
ag517
aa(lp2789
I631
aI636
ag519
ag520
ag522
ag524
ag526
aa(lp2790
I638
aI649
ag528
ag529
ag531
ag533
ag535
aa(lp2791
I664
aI667
ag537
ag538
ag540
ag542
ag544
aa(lp2792
I669
aI672
ag546
ag547
ag549
ag551
ag553
aa(lp2793
I683
aI686
ag555
ag556
ag558
ag560
ag562
aa(lp2794
I695
aI697
ag564
ag565
ag567
ag569
ag571
aa(lp2795
I701
aI703
ag573
ag574
ag576
ag578
ag580
aa(lp2796
I708
aI715
ag582
ag583
ag585
ag587
ag589
aa(lp2797
I717
aI722
ag591
ag592
ag594
ag596
ag598
aa(lp2798
I724
aI735
ag600
ag601
ag603
ag605
ag607
aa(lp2799
I745
aI748
ag609
ag610
ag612
ag614
ag616
aa(lp2800
I753
aI760
ag618
ag619
ag621
ag623
ag625
aa(lp2801
I762
aI767
ag627
ag628
ag630
ag632
ag634
aa(lp2802
I769
aI780
ag636
ag637
ag639
ag641
ag643
aa(lp2803
I795
aI798
ag645
ag646
ag648
ag650
ag652
aa(lp2804
I804
aI806
ag654
ag655
ag657
ag659
ag661
aa(lp2805
I821
aI823
ag663
ag664
ag666
ag668
ag670
aa(lp2806
I830
aI834
ag672
ag673
ag675
ag677
ag679
aa(lp2807
I836
aI844
ag681
ag682
ag684
ag686
ag688
aa(lp2808
I851
aI856
ag690
ag691
ag693
ag695
ag697
aa(lp2809
I862
aI868
ag699
ag700
ag702
ag704
ag706
aa(lp2810
I870
aI875
ag708
ag709
ag711
ag713
ag715
aa(lp2811
I880
aI882
ag717
ag718
ag720
ag722
ag724
aa(lp2812
I887
aI892
ag726
ag727
ag729
ag731
ag733
aa(lp2813
I894
aI898
ag735
ag736
ag738
ag740
ag742
aa(lp2814
I916
aI919
ag744
ag745
ag747
ag749
ag751
aa(lp2815
I929
aI933
ag753
ag754
ag756
ag758
ag760
aa(lp2816
I935
aI940
ag762
ag763
ag765
ag767
ag769
aa(lp2817
I942
aI944
ag771
ag772
ag774
ag776
ag778
aa(lp2818
I946
aI950
ag780
ag781
ag783
ag785
ag787
aa(lp2819
I963
aI965
ag789
ag790
ag792
ag794
ag796
aa(lp2820
I973
aI977
ag798
ag799
ag801
ag803
ag805
aa(lp2821
I986
aI988
ag807
ag808
ag810
ag812
ag814
aa(lp2822
I992
aI999
ag816
ag817
ag819
ag821
ag823
aa(lp2823
I1002
aI1006
ag825
ag826
ag828
ag830
ag832
aa(lp2824
I1012
aI1015
ag834
ag835
ag837
ag839
ag841
aa(lp2825
I1021
aI1025
ag843
ag844
ag846
ag848
ag850
aa(lp2826
I1059
aI1062
ag852
ag853
ag855
ag857
ag859
aa(lp2827
I1067
aI1073
ag861
ag862
ag864
ag866
ag868
aa(lp2828
I1077
aI1086
ag870
ag871
ag873
ag875
ag877
aa(lp2829
I1093
aI1100
ag879
ag880
ag882
ag884
ag886
aa(lp2830
I1117
aI1119
ag888
ag889
ag891
ag893
ag895
aa(lp2831
I1121
aI1124
ag897
ag898
ag900
ag902
ag904
aa(lp2832
I1133
aI1137
ag906
ag907
ag909
ag911
ag913
aa(lp2833
I1141
aI1153
ag915
ag916
ag918
ag920
ag922
aa(lp2834
I1155
aI1158
ag924
ag925
ag927
ag929
ag931
aa(lp2835
I1163
aI1168
ag933
ag934
ag936
ag938
ag940
aa(lp2836
I1173
aI1179
ag942
ag943
ag945
ag947
ag949
aa(lp2837
I1181
aI1186
ag951
ag952
ag954
ag956
ag958
aa(lp2838
I1188
aI1195
ag960
ag961
ag963
ag965
ag967
aa(lp2839
I1197
aI1202
ag969
ag970
ag972
ag974
ag976
aa(lp2840
I1204
aI1215
ag978
ag979
ag981
ag983
ag985
aa(lp2841
I1204
aI1215
ag987
ag988
ag990
ag992
ag994
aasS'characterMap'
p2842
(lp2843
g999
ag1001
ag1003
ag1005
ag1006
ag1008
ag1010
ag1012
ag2494
ag1015
ag1017
ag1018
ag1020
ag1022
ag1023
ag2496
ag1026
ag1028
ag1029
ag1030
ag1031
a(lp2844
I21
aS'-'
p2845
aag1033
ag1035
ag1036
ag1037
ag1038
ag1039
ag2497
ag1042
ag1044
ag1045
ag1047
ag2498
ag1050
ag1052
ag1053
ag1054
ag1056
ag2499
ag1060
ag1062
ag1063
ag2500
ag1066
ag1067
ag1068
ag2501
ag1072
ag1073
ag1074
ag1075
ag1076
ag1077
ag1078
ag1079
ag2502
ag1083
ag1084
ag2503
ag1088
ag1089
ag1090
ag1091
ag1092
ag2504
ag1096
ag1097
ag2505
ag1100
ag1101
ag1102
ag1103
ag1104
ag2506
ag1108
ag1109
a(lp2846
I77
aS"'"
p2847
aag1110
ag2507
ag1113
ag1114
ag1115
ag1116
ag1117
ag1118
ag2508
ag1121
ag1122
ag1123
ag1124
ag2509
ag1129
ag1130
ag2510
ag1133
ag1135
ag1136
ag1137
ag2511
ag1141
ag1142
ag1143
ag1144
ag2512
ag1148
ag1149
ag2513
ag1152
ag1153
ag1155
ag1157
ag1158
ag1159
ag2514
ag1163
ag1164
ag1165
ag1166
ag2515
ag1169
ag1170
ag1171
ag1172
ag1173
ag2516
ag1177
ag1178
ag2517
ag1182
ag1183
ag1184
ag2518
ag1188
ag1189
ag1190
ag1191
ag2519
ag1194
ag1195
ag1196
ag1197
ag1198
ag1199
ag1200
ag1201
ag1202
ag2520
a(lp2848
I148
ag2845
aa(lp2849
I149
ag2845
aag2521
ag1206
ag1207
ag1208
ag2522
ag1211
ag1212
ag1213
ag1214
ag1215
ag1216
ag1217
ag1218
ag1219
ag1220
ag1221
ag2523
ag1225
ag1226
ag1227
ag2524
ag1230
ag1231
ag1232
ag1233
ag2525
ag1237
ag1238
ag1239
ag2526
ag1243
ag1244
ag1245
ag2527
ag1248
ag1249
ag1250
ag1251
ag1252
ag1253
ag1254
ag1255
ag1256
ag1257
a(lp2850
I194
aS'.'
p2851
aag2528
ag1261
ag1262
ag1263
ag1264
ag2529
ag1268
ag1269
ag2530
ag1273
ag1274
ag1275
ag2531
ag1278
ag1279
ag1280
ag1281
ag1282
ag1283
ag1284
ag1285
ag1286
a(lp2852
I217
ag2851
aa(lp2853
I218
ag2851
aa(lp2854
I219
ag2851
aag2532
ag1289
ag1290
ag1291
ag1292
ag2533
ag1295
ag1296
ag1297
ag1298
ag1299
ag2534
ag1302
ag1303
ag1304
ag1305
ag1306
ag1307
ag1308
ag1309
ag2535
ag1313
ag1314
ag1315
ag2536
ag1319
ag1320
ag1321
ag2537
ag1325
ag1326
ag1327
ag2538
ag1330
ag1331
ag1332
ag1333
ag1334
a(lp2855
I258
ag2851
aag2539
ag1338
ag1339
ag1340
ag1341
ag2540
ag1345
ag1346
ag2541
ag1350
ag1351
ag1352
ag2542
ag1355
ag1356
ag1357
ag1358
ag1359
ag1360
ag2543
ag1363
ag1364
ag1365
ag1366
ag1367
ag1368
ag1369
ag1370
ag1371
ag1372
ag1373
ag2544
ag1377
ag1378
ag1379
ag2545
ag1382
ag1383
ag1384
ag1385
ag1386
ag1387
ag1388
ag2546
ag1391
ag1392
ag1393
ag1394
ag2547
ag1398
ag1399
ag2548
ag1402
ag1403
ag1404
ag1405
ag1406
ag1407
ag1408
ag1409
ag2549
ag1412
ag1413
ag1414
ag1415
ag1416
ag1417
ag2550
ag1420
ag1421
ag1422
ag1423
ag1424
a(lp2856
I332
ag2845
aag1425
ag1426
ag1427
ag1428
ag1429
ag1430
a(lp2857
I339
aS'?'
p2858
aag2551
ag1434
ag1435
ag1436
ag2552
ag1439
ag1440
ag1441
ag1442
ag1443
ag1444
ag2553
ag1447
ag1448
ag1449
ag1450
ag1451
ag1452
ag1453
ag2554
ag1457
ag1458
ag2555
ag1461
ag1462
ag1463
ag1464
ag1465
ag1466
ag1467
ag1468
a(lp2859
I371
ag2851
aa(lp2860
I372
ag2851
aa(lp2861
I373
ag2851
aag2556
ag1471
ag1472
ag1473
ag1474
ag2557
ag1478
ag1479
ag1480
ag1481
ag2558
ag1485
ag1486
ag2559
ag1490
ag1491
ag1492
ag2560
ag1495
ag1496
ag1497
ag1498
ag1499
ag2561
a(lp2862
I398
ag2845
aag2562
ag1503
ag1504
ag1505
ag1506
ag2563
ag1509
ag1510
ag1511
ag1512
ag1513
ag1514
ag1515
ag1516
ag2564
ag1519
ag1520
ag1521
ag1522
ag1523
ag1524
ag2565
ag1527
ag1528
ag1529
ag1530
ag1531
a(lp2863
I426
ag2845
aag1532
ag1533
ag1534
ag1535
ag1536
ag1537
ag2566
ag1540
ag1541
ag1542
ag1543
ag2567
ag1546
ag1547
ag1548
ag1549
a(lp2864
I443
ag2858
aag2568
ag1553
ag1554
ag1555
ag2569
ag1559
ag1560
ag1561
ag1562
ag2570
ag1565
ag1566
ag1567
ag1568
ag1569
ag1570
ag1571
ag1572
ag1573
ag2571
ag1577
ag1578
ag1579
ag1580
ag1581
ag2572
ag1584
ag1585
ag1586
ag1587
ag1588
a(lp2865
I475
ag2858
aag2573
ag1592
ag1593
ag1594
ag2574
ag1598
ag1599
ag1600
ag1601
ag2575
ag1604
ag1605
ag1606
ag1607
ag1608
ag1609
ag1610
ag1611
ag2576
ag1614
ag1615
ag1616
ag1617
ag1618
ag1619
ag2577
ag1622
ag1623
ag1624
ag1625
ag1626
a(lp2866
I507
ag2845
aag1627
ag1628
ag1629
ag1630
ag1631
ag1632
ag2578
ag1635
ag1636
ag1637
ag1638
ag1639
ag2579
ag1643
ag1644
a(lp2867
I523
ag2851
aa(lp2868
I524
ag2851
aa(lp2869
I525
ag2851
aag2580
ag1647
ag1648
ag1649
ag1650
ag2581
ag1654
ag1655
ag1656
ag1657
ag2582
ag1661
ag1662
ag1663
ag2583
ag1667
ag1668
ag1669
ag2584
ag1672
ag1673
ag1674
ag1675
ag1676
ag1677
ag1678
ag2585
ag1681
ag1682
ag1683
ag1684
ag1685
ag1686
ag1687
ag1688
ag2586
ag1691
ag1692
ag1693
ag1694
ag1695
ag1696
ag1697
ag1698
a(lp2870
I570
aS','
p2871
aag2587
ag1701
ag1702
ag1703
ag1704
ag1705
ag1706
ag1707
a(lp2872
I579
ag2871
aag2588
ag1710
ag1711
ag1712
ag1713
ag1714
ag1715
ag1716
ag1717
ag2589
ag1721
ag1722
ag1723
ag2590
ag1726
ag1727
ag1728
ag1729
ag1730
ag1731
ag2591
ag1734
ag1735
ag1736
ag1738
ag1739
ag1740
ag1741
ag1742
ag1743
ag1744
ag1745
ag1746
ag2592
ag1749
ag1750
ag1751
ag1752
ag2593
ag1756
ag1757
ag2594
ag1760
ag1761
ag1762
ag1763
ag1764
ag1765
ag1766
ag1767
ag2595
ag1770
ag1771
ag1772
ag1773
ag1774
ag1775
ag2596
ag1778
ag1779
ag1780
ag1781
ag1782
a(lp2873
I643
ag2845
aag1783
ag1784
ag1785
ag1786
ag1787
ag1788
a(lp2874
I650
ag2858
aag2597
ag1792
ag1793
ag1794
ag1795
ag2598
ag1799
ag1800
ag2599
ag1804
ag1805
ag1806
ag2600
ag1809
ag1810
ag1811
ag1812
ag2601
ag1815
ag1816
ag1817
ag1818
ag2602
ag1822
ag1823
ag1824
ag1825
ag1826
a(lp2875
I679
ag2851
aa(lp2876
I680
ag2851
aa(lp2877
I681
ag2851
aag2603
ag1829
ag1830
ag1831
ag1832
ag2604
ag1836
ag1837
ag1838
ag2605
ag1842
ag1843
ag2606
ag1846
ag1847
ag1848
ag2607
ag1851
ag2608
ag1854
ag1855
ag1856
ag2609
ag1860
ag1861
ag2610
ag1864
ag1865
ag1866
ag1867
ag1868
ag1869
ag1870
ag1871
ag2611
ag1874
ag1875
ag1876
ag1877
ag1878
ag1879
ag2612
ag1882
ag1883
ag1884
ag1885
ag1886
a(lp2878
I729
ag2845
aag1887
ag1888
ag1889
ag1890
ag1891
ag1892
a(lp2879
I736
ag2851
aag2613
ag1896
ag1897
ag2614
ag1901
ag1902
ag1903
ag2615
ag1906
ag1907
ag1908
ag1909
ag2616
ag1913
ag1914
ag2617
ag1917
ag1918
ag1919
ag1920
ag1921
ag1922
ag1923
ag1924
ag2618
ag1927
ag1928
ag1929
ag1930
ag1931
ag1932
ag2619
ag1935
ag1936
ag1937
ag1938
ag1939
a(lp2880
I774
ag2845
aag1940
ag1941
ag1942
ag1943
ag1944
ag1945
a(lp2881
I781
ag2858
aag2620
ag1949
ag1950
ag1951
ag2621
ag1955
ag1956
ag1957
ag2622
ag1961
ag1962
ag1963
ag2623
ag1966
ag1967
ag1968
ag1969
ag2624
ag1973
ag1974
ag1975
ag2625
ag1978
ag1979
ag1980
a(lp2882
I807
ag2858
aag2626
ag1984
ag1985
ag1986
ag2627
ag1990
ag1991
ag1992
ag2628
ag1996
ag1997
ag1998
ag2629
ag2001
ag2002
ag2003
ag2630
ag2007
ag2008
ag2009
ag2010
ag2631
ag2013
ag2014
ag2015
ag2016
ag2017
ag2632
ag2020
ag2021
ag2022
ag2023
ag2024
ag2025
ag2026
ag2027
ag2028
a(lp2883
I845
ag2858
aag2633
ag2032
ag2033
ag2034
ag2634
ag2037
ag2038
ag2039
ag2040
ag2041
ag2042
ag2635
ag2046
ag2047
ag2048
ag2636
ag2051
ag2052
ag2053
ag2054
ag2055
ag2056
ag2057
ag2637
ag2060
ag2061
ag2062
ag2063
ag2064
ag2065
ag2638
ag2069
ag2070
ag2639
ag2073
ag2074
ag2075
a(lp2884
I883
ag2851
aa(lp2885
I884
ag2851
aa(lp2886
I885
ag2851
aag2640
ag2078
ag2079
ag2080
ag2081
a(lp2887
I891
ag2847
aag2082
ag2641
ag2085
ag2086
ag2087
ag2088
ag2089
ag2642
ag2093
ag2094
ag2095
ag2096
ag2097
ag2643
ag2101
ag2102
ag2103
ag2104
ag2105
ag2644
ag2109
ag2110
ag2111
ag2645
ag2114
ag2115
ag2116
ag2117
a(lp2888
I920
ag2858
aag2646
ag2121
ag2122
ag2647
ag2126
ag2127
ag2128
ag2648
ag2131
ag2132
ag2133
ag2134
ag2135
ag2649
ag2138
ag2139
ag2140
ag2141
ag2142
ag2143
ag2650
ag2146
ag2147
ag2148
ag2651
ag2151
ag2152
ag2153
ag2154
ag2155
ag2652
ag2159
ag2160
ag2161
ag2162
ag2163
ag2653
ag2167
ag2168
ag2169
ag2170
ag2654
ag2173
ag2174
ag2175
a(lp2889
I966
ag2871
aag2655
ag2179
ag2180
ag2181
ag2182
ag2656
ag2185
ag2186
ag2187
ag2188
ag2189
ag2657
ag2193
ag2194
ag2658
ag2198
ag2199
a(lp2890
I984
ag2858
aag2659
ag2202
ag2203
ag2204
ag2660
ag2207
ag2661
ag2210
ag2211
ag2212
ag2213
ag2214
ag2215
ag2216
ag2217
a(lp2891
I1000
ag2858
aag2662
ag2220
ag2221
ag2222
ag2223
ag2224
ag2663
ag2228
ag2229
ag2230
ag2664
ag2233
ag2234
ag2235
ag2236
ag2665
ag2240
ag2241
ag2242
ag2666
ag2245
ag2246
ag2247
ag2248
ag2249
ag2667
ag2253
ag2254
ag2255
ag2256
ag2257
ag2668
ag2261
ag2262
ag2263
ag2264
ag2669
ag2268
ag2269
ag2270
ag2670
ag2274
ag2275
ag2671
ag2279
ag2280
ag2281
ag2672
ag2285
ag2286
ag2287
ag2288
ag2289
ag2673
ag2293
ag2294
ag2295
ag2674
ag2298
ag2299
ag2300
ag2301
ag2675
ag2305
ag2306
ag2676
ag2309
ag2310
ag2311
ag2312
ag2313
ag2314
ag2315
ag2677
ag2318
ag2678
ag2321
ag2322
ag2323
ag2324
ag2325
ag2326
ag2327
ag2328
ag2329
ag2330
ag2679
ag2334
ag2335
ag2680
a(lp2892
I1091
ag2851
aag2681
ag2338
ag2339
ag2340
ag2341
ag2342
ag2343
ag2344
ag2345
ag2682
ag2349
ag2350
ag2351
ag2352
ag2683
ag2356
ag2357
ag2358
ag2684
ag2362
ag2363
ag2685
ag2367
ag2368
ag2686
ag2371
ag2372
ag2373
ag2687
ag2376
ag2377
ag2378
ag2379
a(lp2893
I1125
ag2851
aag2688
ag2383
ag2384
ag2689
ag2388
ag2389
ag2690
ag2392
ag2393
ag2394
ag2395
ag2396
ag2691
ag2399
ag2692
ag2402
ag2403
ag2404
ag2405
ag2406
ag2407
ag2408
ag2409
ag2410
ag2411
a(lp2894
I1151
ag2851
aa(lp2895
I1152
aS'\xc2'
p2896
aag2412
ag2693
ag2416
ag2417
ag2418
ag2419
ag2694
ag2423
ag2424
ag2695
ag2427
ag2428
ag2429
ag2430
ag2431
ag2432
ag2696
ag2436
ag2437
ag2697
ag2440
ag2441
ag2442
ag2443
ag2444
ag2445
ag2446
ag2698
ag2449
ag2450
ag2451
ag2452
ag2453
ag2454
ag2699
ag2457
ag2458
ag2459
ag2460
ag2461
ag2462
ag2463
ag2464
ag2700
ag2467
ag2468
ag2469
ag2470
ag2471
ag2472
ag2701
ag2475
ag2476
ag2477
ag2478
ag2479
a(lp2897
I1209
ag2845
aag2480
ag2481
ag2482
ag2483
ag2484
ag2485
ag2702
ag2488
ag2489
ag2490
ag2491
asS'docName'
p2898
S'source-document00459.txt'
p2899
sb.