(iModel.Document
Document
p0
(dp1
S'fmap'
p2
(lp3
(lp4
I0
aI4
aS'light'
p5
a(lp6
S'*'
p7
ag5
aaa(lp8
I0
aI4
ag5
a(lp9
g7
ag5
aaa(lp10
I0
aI4
ag5
a(lp11
g7
ag5
aaa(lp12
I0
aI4
ag5
a(lp13
g7
ag5
aaa(lp14
I6
aI10
aS'magic'
p15
a(lp16
g5
ag15
aaa(lp17
I6
aI10
ag15
a(lp18
g7
ag15
aaa(lp19
I6
aI10
ag15
a(lp20
g7
ag15
aaa(lp21
I6
aI10
ag15
a(lp22
g7
ag15
aaa(lp23
I16
aI26
aS'spectacular'
p24
a(lp25
g15
ag24
aaa(lp26
I16
aI26
ag24
a(lp27
g5
ag24
aaa(lp28
I16
aI26
ag24
a(lp29
g7
ag24
aaa(lp30
I16
aI26
ag24
a(lp31
g7
ag24
aaa(lp32
I28
aI34
aS'journey'
p33
a(lp34
g24
ag33
aaa(lp35
I28
aI34
ag33
a(lp36
g15
ag33
aaa(lp37
I28
aI34
ag33
a(lp38
g5
ag33
aaa(lp39
I28
aI34
ag33
a(lp40
g7
ag33
aaa(lp41
I37
aI39
aS'dvd'
p42
a(lp43
g33
ag42
aaa(lp44
I37
aI39
ag42
a(lp45
g24
ag42
aaa(lp46
I37
aI39
ag42
a(lp47
g15
ag42
aaa(lp48
I37
aI39
ag42
a(lp49
g5
ag42
aaa(lp50
I57
aI60
aS'land'
p51
a(lp52
g42
ag51
aaa(lp53
I57
aI60
ag51
a(lp54
g33
ag51
aaa(lp55
I57
aI60
ag51
a(lp56
g24
ag51
aaa(lp57
I57
aI60
ag51
a(lp58
g15
ag51
aaa(lp59
I69
aI72
aS'move'
p60
a(lp61
g51
ag60
aaa(lp62
I69
aI72
ag60
a(lp63
g42
ag60
aaa(lp64
I69
aI72
ag60
a(lp65
g33
ag60
aaa(lp66
I69
aI72
ag60
a(lp67
g24
ag60
aaa(lp68
I89
aI100
aS'disneylands'
p69
a(lp70
g60
ag69
aaa(lp71
I89
aI100
ag69
a(lp72
g51
ag69
aaa(lp73
I89
aI100
ag69
a(lp74
g42
ag69
aaa(lp75
I89
aI100
ag69
a(lp76
g33
ag69
aaa(lp77
I102
aI113
aS'tomorrowland'
p78
a(lp79
g69
ag78
aaa(lp80
I102
aI113
ag78
a(lp81
g60
ag78
aaa(lp82
I102
aI113
ag78
a(lp83
g51
ag78
aaa(lp84
I102
aI113
ag78
a(lp85
g42
ag78
aaa(lp86
I121
aI124
aS'neon'
p87
a(lp88
g78
ag87
aaa(lp89
I121
aI124
ag87
a(lp90
g69
ag87
aaa(lp91
I121
aI124
ag87
a(lp92
g60
ag87
aaa(lp93
I121
aI124
ag87
a(lp94
g51
ag87
aaa(lp95
I126
aI131
aS'spires'
p96
a(lp97
g87
ag96
aaa(lp98
I126
aI131
ag96
a(lp99
g78
ag96
aaa(lp100
I126
aI131
ag96
a(lp101
g69
ag96
aaa(lp102
I126
aI131
ag96
a(lp103
g60
ag96
aaa(lp104
I133
aI140
aS'reaching'
p105
a(lp106
g96
ag105
aaa(lp107
I133
aI140
ag105
a(lp108
g87
ag105
aaa(lp109
I133
aI140
ag105
a(lp110
g78
ag105
aaa(lp111
I133
aI140
ag105
a(lp112
g69
ag105
aaa(lp113
I151
aI157
aS'skyline'
p114
a(lp115
g105
ag114
aaa(lp116
I151
aI157
ag114
a(lp117
g96
ag114
aaa(lp118
I151
aI157
ag114
a(lp119
g87
ag114
aaa(lp120
I151
aI157
ag114
a(lp121
g78
ag114
aaa(lp122
I167
aI170
aS'roar'
p123
a(lp124
g114
ag123
aaa(lp125
I167
aI170
ag123
a(lp126
g105
ag123
aaa(lp127
I167
aI170
ag123
a(lp128
g96
ag123
aaa(lp129
I167
aI170
ag123
a(lp130
g87
ag123
aaa(lp131
I175
aI184
aS'futuristic'
p132
a(lp133
g123
ag132
aaa(lp134
I175
aI184
ag132
a(lp135
g114
ag132
aaa(lp136
I175
aI184
ag132
a(lp137
g105
ag132
aaa(lp138
I175
aI184
ag132
a(lp139
g96
ag132
aaa(lp140
I186
aI193
aS'vehicles'
p141
a(lp142
g132
ag141
aaa(lp143
I186
aI193
ag141
a(lp144
g123
ag141
aaa(lp145
I186
aI193
ag141
a(lp146
g114
ag141
aaa(lp147
I186
aI193
ag141
a(lp148
g105
ag141
aaa(lp149
I195
aI201
aS'filling'
p150
a(lp151
g141
ag150
aaa(lp152
I195
aI201
ag150
a(lp153
g132
ag150
aaa(lp154
I195
aI201
ag150
a(lp155
g123
ag150
aaa(lp156
I195
aI201
ag150
a(lp157
g114
ag150
aaa(lp158
I207
aI209
aS'air'
p159
a(lp160
g150
ag159
aaa(lp161
I207
aI209
ag159
a(lp162
g141
ag159
aaa(lp163
I207
aI209
ag159
a(lp164
g132
ag159
aaa(lp165
I207
aI209
ag159
a(lp166
g123
ag159
aaa(lp167
I217
aI220
aS'land'
p168
a(lp169
g159
ag168
aaa(lp170
I217
aI220
ag168
a(lp171
g150
ag168
aaa(lp172
I217
aI220
ag168
a(lp173
g141
ag168
aaa(lp174
I217
aI220
ag168
a(lp175
g132
ag168
aaa(lp176
I227
aI230
aS'buzz'
p177
a(lp178
g168
ag177
aaa(lp179
I227
aI230
ag177
a(lp180
g159
ag177
aaa(lp181
I227
aI230
ag177
a(lp182
g150
ag177
aaa(lp183
I227
aI230
ag177
a(lp184
g141
ag177
aaa(lp185
I235
aI242
aS'activity'
p186
a(lp187
g177
ag186
aaa(lp188
I235
aI242
ag186
a(lp189
g168
ag186
aaa(lp190
I235
aI242
ag186
a(lp191
g159
ag186
aaa(lp192
I235
aI242
ag186
a(lp193
g150
ag186
aaa(lp194
I245
aI255
aS'lightyears'
p195
a(lp196
g186
ag195
aaa(lp197
I245
aI255
ag195
a(lp198
g177
ag195
aaa(lp199
I245
aI255
ag195
a(lp200
g168
ag195
aaa(lp201
I245
aI255
ag195
a(lp202
g159
ag195
aaa(lp203
I257
aI261
aS'ahead'
p204
a(lp205
g195
ag204
aaa(lp206
I257
aI261
ag204
a(lp207
g186
ag204
aaa(lp208
I257
aI261
ag204
a(lp209
g177
ag204
aaa(lp210
I257
aI261
ag204
a(lp211
g168
ag204
aaa(lp212
I270
aI273
aS'rest'
p213
a(lp214
g204
ag213
aaa(lp215
I270
aI273
ag213
a(lp216
g195
ag213
aaa(lp217
I270
aI273
ag213
a(lp218
g186
ag213
aaa(lp219
I270
aI273
ag213
a(lp220
g177
ag213
aaa(lp221
I276
aI283
aS'designed'
p222
a(lp223
g213
ag222
aaa(lp224
I276
aI283
ag222
a(lp225
g204
ag222
aaa(lp226
I276
aI283
ag222
a(lp227
g195
ag222
aaa(lp228
I276
aI283
ag222
a(lp229
g186
ag222
aaa(lp230
I291
aI300
aS'futuristic'
p231
a(lp232
g222
ag231
aaa(lp233
I291
aI300
ag231
a(lp234
g213
ag231
aaa(lp235
I291
aI300
ag231
a(lp236
g204
ag231
aaa(lp237
I291
aI300
ag231
a(lp238
g195
ag231
aaa(lp239
I318
aI321
aS'time'
p240
a(lp241
g231
ag240
aaa(lp242
I318
aI321
ag240
a(lp243
g222
ag240
aaa(lp244
I318
aI321
ag240
a(lp245
g213
ag240
aaa(lp246
I318
aI321
ag240
a(lp247
g204
ag240
aaa(lp248
I324
aI333
aS'completely'
p249
a(lp250
g240
ag249
aaa(lp251
I324
aI333
ag249
a(lp252
g231
ag249
aaa(lp253
I324
aI333
ag249
a(lp254
g222
ag249
aaa(lp255
I324
aI333
ag249
a(lp256
g213
ag249
aaa(lp257
I335
aI347
aS'downtoearth'
p258
a(lp259
g249
ag258
aaa(lp260
I335
aI347
ag258
a(lp261
g240
ag258
aaa(lp262
I335
aI347
ag258
a(lp263
g231
ag258
aaa(lp264
I335
aI347
ag258
a(lp265
g222
ag258
aaa(lp266
I352
aI362
aS'landscaping'
p267
a(lp268
g258
ag267
aaa(lp269
I352
aI362
ag267
a(lp270
g249
ag267
aaa(lp271
I352
aI362
ag267
a(lp272
g240
ag267
aaa(lp273
I352
aI362
ag267
a(lp274
g231
ag267
aaa(lp275
I365
aI369
aS'every'
p276
a(lp277
g267
ag276
aaa(lp278
I365
aI369
ag276
a(lp279
g258
ag276
aaa(lp280
I365
aI369
ag276
a(lp281
g249
ag276
aaa(lp282
I365
aI369
ag276
a(lp283
g240
ag276
aaa(lp284
I371
aI377
aS'element'
p285
a(lp286
g276
ag285
aaa(lp287
I371
aI377
ag285
a(lp288
g267
ag285
aaa(lp289
I371
aI377
ag285
a(lp290
g258
ag285
aaa(lp291
I371
aI377
ag285
a(lp292
g249
ag285
aaa(lp293
I379
aI382
aS'used'
p294
a(lp295
g285
ag294
aaa(lp296
I379
aI382
ag294
a(lp297
g276
ag294
aaa(lp298
I379
aI382
ag294
a(lp299
g267
ag294
aaa(lp300
I379
aI382
ag294
a(lp301
g258
ag294
aaa(lp302
I391
aI396
aS'areas'
p303
a(lp304
g294
ag303
aaa(lp305
I391
aI396
ag303
a(lp306
g285
ag303
aaa(lp307
I391
aI396
ag303
a(lp308
g276
ag303
aaa(lp309
I391
aI396
ag303
a(lp310
g267
ag303
aaa(lp311
I398
aI406
aS'landscape'
p312
a(lp313
g303
ag312
aaa(lp314
I398
aI406
ag312
a(lp315
g294
ag312
aaa(lp316
I398
aI406
ag312
a(lp317
g285
ag312
aaa(lp318
I398
aI406
ag312
a(lp319
g276
ag312
aaa(lp320
I411
aI416
aS'edible'
p321
a(lp322
g312
ag321
aaa(lp323
I411
aI416
ag321
a(lp324
g303
ag321
aaa(lp325
I411
aI416
ag321
a(lp326
g294
ag321
aaa(lp327
I411
aI416
ag321
a(lp328
g285
ag321
aaa(lp329
I423
aI432
aS'productive'
p330
a(lp331
g321
ag330
aaa(lp332
I423
aI432
ag330
a(lp333
g312
ag330
aaa(lp334
I423
aI432
ag330
a(lp335
g303
ag330
aaa(lp336
I423
aI432
ag330
a(lp337
g294
ag330
aaa(lp338
I435
aI446
aS'tomorrowland'
p339
a(lp340
g330
ag339
aaa(lp341
I435
aI446
ag339
a(lp342
g321
ag339
aaa(lp343
I435
aI446
ag339
a(lp344
g312
ag339
aaa(lp345
I435
aI446
ag339
a(lp346
g303
ag339
aaa(lp347
I454
aI461
aS'ongoing'
p348
a(lp349
g339
ag348
aaa(lp350
I454
aI461
ag348
a(lp351
g330
ag348
aaa(lp352
I454
aI461
ag348
a(lp353
g321
ag348
aaa(lp354
I454
aI461
ag348
a(lp355
g312
ag348
aaa(lp356
I463
aI472
aS'experiment'
p357
a(lp358
g348
ag357
aaa(lp359
I463
aI472
ag357
a(lp360
g339
ag357
aaa(lp361
I463
aI472
ag357
a(lp362
g330
ag357
aaa(lp363
I463
aI472
ag357
a(lp364
g321
ag357
aaa(lp365
I479
aI483
aS'looks'
p366
a(lp367
g357
ag366
aaa(lp368
I479
aI483
ag366
a(lp369
g348
ag366
aaa(lp370
I479
aI483
ag366
a(lp371
g339
ag366
aaa(lp372
I479
aI483
ag366
a(lp373
g330
ag366
aaa(lp374
I492
aI497
aS'coming'
p375
a(lp376
g366
ag375
aaa(lp377
I492
aI497
ag375
a(lp378
g357
ag375
aaa(lp379
I492
aI497
ag375
a(lp380
g348
ag375
aaa(lp381
I492
aI497
ag375
a(lp382
g339
ag375
aaa(lp383
I499
aI507
aS'centuries'
p384
a(lp385
g375
ag384
aaa(lp386
I499
aI507
ag384
a(lp387
g366
ag384
aaa(lp388
I499
aI507
ag384
a(lp389
g357
ag384
aaa(lp390
I499
aI507
ag384
a(lp391
g348
ag384
aaa(lp392
I512
aI516
aS'stand'
p393
a(lp394
g384
ag393
aaa(lp395
I512
aI516
ag393
a(lp396
g375
ag393
aaa(lp397
I512
aI516
ag393
a(lp398
g366
ag393
aaa(lp399
I512
aI516
ag393
a(lp400
g357
ag393
aaa(lp401
I521
aI524
aS'face'
p402
a(lp403
g393
ag402
aaa(lp404
I521
aI524
ag402
a(lp405
g384
ag402
aaa(lp406
I521
aI524
ag402
a(lp407
g375
ag402
aaa(lp408
I521
aI524
ag402
a(lp409
g366
ag402
aaa(lp410
I529
aI532
aS'well'
p411
a(lp412
g402
ag411
aaa(lp413
I529
aI532
ag411
a(lp414
g393
ag411
aaa(lp415
I529
aI532
ag411
a(lp416
g384
ag411
aaa(lp417
I529
aI532
ag411
a(lp418
g375
ag411
aaa(lp419
I537
aI543
aS'salutes'
p420
a(lp421
g411
ag420
aaa(lp422
I537
aI543
ag420
a(lp423
g402
ag420
aaa(lp424
I537
aI543
ag420
a(lp425
g393
ag420
aaa(lp426
I537
aI543
ag420
a(lp427
g384
ag420
aaa(lp428
I549
aI563
aS'accomplishments'
p429
a(lp430
g420
ag429
aaa(lp431
I549
aI563
ag429
a(lp432
g411
ag429
aaa(lp433
I549
aI563
ag429
a(lp434
g402
ag429
aaa(lp435
I549
aI563
ag429
a(lp436
g393
ag429
aaa(lp437
I565
aI569
aS'weve'
p438
a(lp439
g429
ag438
aaa(lp440
I565
aI569
ag438
a(lp441
g420
ag438
aaa(lp442
I565
aI569
ag438
a(lp443
g411
ag438
aaa(lp444
I565
aI569
ag438
a(lp445
g402
ag438
aaa(lp446
I571
aI577
aS'already'
p447
a(lp448
g438
ag447
aaa(lp449
I571
aI577
ag447
a(lp450
g429
ag447
aaa(lp451
I571
aI577
ag447
a(lp452
g420
ag447
aaa(lp453
I571
aI577
ag447
a(lp454
g411
ag447
aaa(lp455
I579
aI585
aS'enjoyed'
p456
a(lp457
g447
ag456
aaa(lp458
I579
aI585
ag456
a(lp459
g438
ag456
aaa(lp460
I579
aI585
ag456
a(lp461
g429
ag456
aaa(lp462
I579
aI585
ag456
a(lp463
g420
ag456
aaa(lp464
I588
aI594
aS'theres'
p465
a(lp466
g456
ag465
aaa(lp467
I588
aI594
ag465
a(lp468
g447
ag465
aaa(lp469
I588
aI594
ag465
a(lp470
g438
ag465
aaa(lp471
I588
aI594
ag465
a(lp472
g429
ag465
aaa(lp473
I598
aI602
aS'great'
p474
a(lp475
g465
ag474
aaa(lp476
I598
aI602
ag474
a(lp477
g456
ag474
aaa(lp478
I598
aI602
ag474
a(lp479
g447
ag474
aaa(lp480
I598
aI602
ag474
a(lp481
g438
ag474
aaa(lp482
I604
aI606
aS'big'
p483
a(lp484
g474
ag483
aaa(lp485
I604
aI606
ag483
a(lp486
g465
ag483
aaa(lp487
I604
aI606
ag483
a(lp488
g456
ag483
aaa(lp489
I604
aI606
ag483
a(lp490
g447
ag483
aaa(lp491
I609
aI617
aS'beautiful'
p492
a(lp493
g483
ag492
aaa(lp494
I609
aI617
ag492
a(lp495
g474
ag492
aaa(lp496
I609
aI617
ag492
a(lp497
g465
ag492
aaa(lp498
I609
aI617
ag492
a(lp499
g456
ag492
aaa(lp500
I619
aI626
aS'tomorrow'
p501
a(lp502
g492
ag501
aaa(lp503
I619
aI626
ag501
a(lp504
g483
ag501
aaa(lp505
I619
aI626
ag501
a(lp506
g474
ag501
aaa(lp507
I619
aI626
ag501
a(lp508
g465
ag501
aaa(lp509
I639
aI640
aS'us'
p510
a(lp511
g501
ag510
aaa(lp512
I639
aI640
ag510
a(lp513
g492
ag510
aaa(lp514
I639
aI640
ag510
a(lp515
g483
ag510
aaa(lp516
I639
aI640
ag510
a(lp517
g474
ag510
aaa(lp518
I653
aI659
aS'popular'
p519
a(lp520
g510
ag519
aaa(lp521
I653
aI659
ag519
a(lp522
g501
ag519
aaa(lp523
I653
aI659
ag519
a(lp524
g492
ag519
aaa(lp525
I653
aI659
ag519
a(lp526
g483
ag519
aaa(lp527
I661
aI664
aS'land'
p528
a(lp529
g519
ag528
aaa(lp530
I661
aI664
ag528
a(lp531
g510
ag528
aaa(lp532
I661
aI664
ag528
a(lp533
g501
ag528
aaa(lp534
I661
aI664
ag528
a(lp535
g492
ag528
aaa(lp536
I671
aI682
aS'disneystyle'
p537
a(lp538
g528
ag537
aaa(lp539
I671
aI682
ag537
a(lp540
g519
ag537
aaa(lp541
I671
aI682
ag537
a(lp542
g510
ag537
aaa(lp543
I671
aI682
ag537
a(lp544
g501
ag537
aaa(lp545
I684
aI691
aS'sampling'
p546
a(lp547
g537
ag546
aaa(lp548
I684
aI691
ag546
a(lp549
g528
ag546
aaa(lp550
I684
aI691
ag546
a(lp551
g519
ag546
aaa(lp552
I684
aI691
ag546
a(lp553
g510
ag546
aaa(lp554
I701
aI703
aS'day'
p555
a(lp556
g546
ag555
aaa(lp557
I701
aI703
ag555
a(lp558
g537
ag555
aaa(lp559
I701
aI703
ag555
a(lp560
g528
ag555
aaa(lp561
I701
aI703
ag555
a(lp562
g519
ag555
aaa(lp563
I709
aI711
aS'age'
p564
a(lp565
g555
ag564
aaa(lp566
I709
aI711
ag564
a(lp567
g546
ag564
aaa(lp568
I709
aI711
ag564
a(lp569
g537
ag564
aaa(lp570
I709
aI711
ag564
a(lp571
g528
ag564
aaa(lp572
I715
aI722
aS'\xa0theater'
p573
a(lp574
g564
ag573
aaa(lp575
I715
aI722
ag573
a(lp576
g555
ag573
aaa(lp577
I715
aI722
ag573
a(lp578
g546
ag573
aaa(lp579
I715
aI722
ag573
a(lp580
g537
ag573
aaa(lp581
I724
aI735
aS'presentation'
p582
a(lp583
g573
ag582
aaa(lp584
I724
aI735
ag582
a(lp585
g564
ag582
aaa(lp586
I724
aI735
ag582
a(lp587
g555
ag582
aaa(lp588
I724
aI735
ag582
a(lp589
g546
ag582
aaa(lp590
I738
aI747
aS'continuous'
p591
a(lp592
g582
ag591
aaa(lp593
I738
aI747
ag591
a(lp594
g573
ag591
aaa(lp595
I738
aI747
ag591
a(lp596
g564
ag591
aaa(lp597
I738
aI747
ag591
a(lp598
g555
ag591
aaa(lp599
I754
aI754
aS'\xa0'
p600
a(lp601
g591
ag600
aaa(lp602
I754
aI754
ag600
a(lp603
g582
ag600
aaa(lp604
I754
aI754
ag600
a(lp605
g573
ag600
aaa(lp606
I754
aI754
ag600
a(lp607
g564
ag600
aaa(lp608
I756
aI761
aS'thrill'
p609
a(lp610
g600
ag609
aaa(lp611
I756
aI761
ag609
a(lp612
g591
ag609
aaa(lp613
I756
aI761
ag609
a(lp614
g582
ag609
aaa(lp615
I756
aI761
ag609
a(lp616
g573
ag609
aaa(lp617
I765
aI765
aS'8'
p618
a(lp619
g609
ag618
aaa(lp620
I765
aI765
ag618
a(lp621
g600
ag618
aaa(lp622
I765
aI765
ag618
a(lp623
g591
ag618
aaa(lp624
I765
aI765
ag618
a(lp625
g582
ag618
aaa(lp626
I768
aI768
ag600
a(lp627
g618
ag600
aaa(lp628
I768
aI768
ag600
a(lp629
g609
ag600
aaa(lp630
I768
aI768
ag600
a(lp631
g600
ag600
aaa(lp632
I768
aI768
ag600
a(lp633
g591
ag600
aaa(lp634
I770
aI774
aS'theme'
p635
a(lp636
g600
ag635
aaa(lp637
I770
aI774
ag635
a(lp638
g618
ag635
aaa(lp639
I770
aI774
ag635
a(lp640
g609
ag635
aaa(lp641
I770
aI774
ag635
a(lp642
g600
ag635
aaa(lp643
I778
aI778
aS'5'
p644
a(lp645
g635
ag644
aaa(lp646
I778
aI778
ag644
a(lp647
g600
ag644
aaa(lp648
I778
aI778
ag644
a(lp649
g618
ag644
aaa(lp650
I778
aI778
ag644
a(lp651
g609
ag644
aaa(lp652
I781
aI781
ag600
a(lp653
g644
ag600
aaa(lp654
I781
aI781
ag600
a(lp655
g635
ag600
aaa(lp656
I781
aI781
ag600
a(lp657
g600
ag600
aaa(lp658
I781
aI781
ag600
a(lp659
g618
ag600
aaa(lp660
I784
aI793
aS'\xa0infant\xa0'
p661
a(lp662
g600
ag661
aaa(lp663
I784
aI793
ag661
a(lp664
g644
ag661
aaa(lp665
I784
aI793
ag661
a(lp666
g635
ag661
aaa(lp667
I784
aI793
ag661
a(lp668
g600
ag661
aaa(lp669
I796
aI807
aS'\xa0child\xa034'
p670
a(lp671
g661
ag670
aaa(lp672
I796
aI807
ag670
a(lp673
g600
ag670
aaa(lp674
I796
aI807
ag670
a(lp675
g644
ag670
aaa(lp676
I796
aI807
ag670
a(lp677
g635
ag670
aaa(lp678
I810
aI824
aS'\xa0preteen\xa034'
p679
a(lp680
g670
ag679
aaa(lp681
I810
aI824
ag679
a(lp682
g661
ag679
aaa(lp683
I810
aI824
ag679
a(lp684
g600
ag679
aaa(lp685
I810
aI824
ag679
a(lp686
g644
ag679
aaa(lp687
I827
aI850
aS'\xa0teenyoung\xa0adult\xa030'
p688
a(lp689
g679
ag688
aaa(lp690
I827
aI850
ag688
a(lp691
g670
ag688
aaa(lp692
I827
aI850
ag688
a(lp693
g661
ag688
aaa(lp694
I827
aI850
ag688
a(lp695
g600
ag688
aaa(lp696
I853
aI864
aS'\xa0adult\xa035'
p697
a(lp698
g688
ag697
aaa(lp699
I853
aI864
ag697
a(lp700
g679
ag697
aaa(lp701
I853
aI864
ag697
a(lp702
g670
ag697
aaa(lp703
I853
aI864
ag697
a(lp704
g661
ag697
aaa(lp705
I867
aI885
aS'\xa0older\xa0adult\xa030'
p706
a(lp707
g697
ag706
aaa(lp708
I867
aI885
ag706
a(lp709
g688
ag706
aaa(lp710
I867
aI885
ag706
a(lp711
g679
ag706
aaa(lp712
I867
aI885
ag706
a(lp713
g670
ag706
aaa(lp714
I888
aI888
ag600
a(lp715
g706
ag600
aaa(lp716
I888
aI888
ag600
a(lp717
g697
ag600
aaa(lp718
I888
aI888
ag600
a(lp719
g688
ag600
aaa(lp720
I888
aI888
ag600
a(lp721
g679
ag600
aaa(lp722
I891
aI899
aS'\xa0spinning'
p723
a(lp724
g600
ag723
aaa(lp725
I891
aI899
ag723
a(lp726
g706
ag723
aaa(lp727
I891
aI899
ag723
a(lp728
g697
ag723
aaa(lp729
I891
aI899
ag723
a(lp730
g688
ag723
aaa(lp731
I901
aI904
aS'ride'
p732
a(lp733
g723
ag732
aaa(lp734
I901
aI904
ag732
a(lp735
g600
ag732
aaa(lp736
I901
aI904
ag732
a(lp737
g706
ag732
aaa(lp738
I901
aI904
ag732
a(lp739
g697
ag732
aaa(lp740
I910
aI910
ag600
a(lp741
g732
ag600
aaa(lp742
I910
aI910
ag600
a(lp743
g723
ag600
aaa(lp744
I910
aI910
ag600
a(lp745
g600
ag600
aaa(lp746
I910
aI910
ag600
a(lp747
g706
ag600
aaa(lp748
I912
aI917
aS'thrill'
p749
a(lp750
g600
ag749
aaa(lp751
I912
aI917
ag749
a(lp752
g732
ag749
aaa(lp753
I912
aI917
ag749
a(lp754
g723
ag749
aaa(lp755
I912
aI917
ag749
a(lp756
g600
ag749
aaa(lp757
I921
aI921
ag644
a(lp758
g749
ag644
aaa(lp759
I921
aI921
ag644
a(lp760
g600
ag644
aaa(lp761
I921
aI921
ag644
a(lp762
g732
ag644
aaa(lp763
I921
aI921
ag644
a(lp764
g723
ag644
aaa(lp765
I924
aI924
ag600
a(lp766
g644
ag600
aaa(lp767
I924
aI924
ag600
a(lp768
g749
ag600
aaa(lp769
I924
aI924
ag600
a(lp770
g600
ag600
aaa(lp771
I924
aI924
ag600
a(lp772
g732
ag600
aaa(lp773
I926
aI930
aS'theme'
p774
a(lp775
g600
ag774
aaa(lp776
I926
aI930
ag774
a(lp777
g644
ag774
aaa(lp778
I926
aI930
ag774
a(lp779
g749
ag774
aaa(lp780
I926
aI930
ag774
a(lp781
g600
ag774
aaa(lp782
I933
aI935
aS'10'
p783
a(lp784
g774
ag783
aaa(lp785
I933
aI935
ag783
a(lp786
g600
ag783
aaa(lp787
I933
aI935
ag783
a(lp788
g644
ag783
aaa(lp789
I933
aI935
ag783
a(lp790
g749
ag783
aaa(lp791
I938
aI938
ag600
a(lp792
g783
ag600
aaa(lp793
I938
aI938
ag600
a(lp794
g774
ag600
aaa(lp795
I938
aI938
ag600
a(lp796
g600
ag600
aaa(lp797
I938
aI938
ag600
a(lp798
g644
ag600
aaa(lp799
I941
aI950
aS'\xa0infant\xa0'
p800
a(lp801
g600
ag800
aaa(lp802
I941
aI950
ag800
a(lp803
g783
ag800
aaa(lp804
I941
aI950
ag800
a(lp805
g774
ag800
aaa(lp806
I941
aI950
ag800
a(lp807
g600
ag800
aaa(lp808
I953
aI964
aS'\xa0child\xa030'
p809
a(lp810
g800
ag809
aaa(lp811
I953
aI964
ag809
a(lp812
g600
ag809
aaa(lp813
I953
aI964
ag809
a(lp814
g783
ag809
aaa(lp815
I953
aI964
ag809
a(lp816
g774
ag809
aaa(lp817
I967
aI981
aS'\xa0preteen\xa033'
p818
a(lp819
g809
ag818
aaa(lp820
I967
aI981
ag818
a(lp821
g800
ag818
aaa(lp822
I967
aI981
ag818
a(lp823
g600
ag818
aaa(lp824
I967
aI981
ag818
a(lp825
g783
ag818
aaa(lp826
I984
aI1007
aS'\xa0teenyoung\xa0adult\xa023'
p827
a(lp828
g818
ag827
aaa(lp829
I984
aI1007
ag827
a(lp830
g809
ag827
aaa(lp831
I984
aI1007
ag827
a(lp832
g800
ag827
aaa(lp833
I984
aI1007
ag827
a(lp834
g600
ag827
aaa(lp835
I1010
aI1021
aS'\xa0adult\xa026'
p836
a(lp837
g827
ag836
aaa(lp838
I1010
aI1021
ag836
a(lp839
g818
ag836
aaa(lp840
I1010
aI1021
ag836
a(lp841
g809
ag836
aaa(lp842
I1010
aI1021
ag836
a(lp843
g800
ag836
aaa(lp844
I1024
aI1042
aS'\xa0older\xa0adult\xa020'
p845
a(lp846
g836
ag845
aaa(lp847
I1024
aI1042
ag845
a(lp848
g827
ag845
aaa(lp849
I1024
aI1042
ag845
a(lp850
g818
ag845
aaa(lp851
I1024
aI1042
ag845
a(lp852
g809
ag845
aaa(lp853
I1045
aI1045
ag600
a(lp854
g845
ag600
aaa(lp855
I1045
aI1045
ag600
a(lp856
g836
ag600
aaa(lp857
I1045
aI1045
ag600
a(lp858
g827
ag600
aaa(lp859
I1045
aI1045
ag600
a(lp860
g818
ag600
aaa(lp861
I1048
aI1052
aS'\xa0slow'
p862
a(lp863
g600
ag862
aaa(lp864
I1048
aI1052
ag862
a(lp865
g845
ag862
aaa(lp866
I1048
aI1052
ag862
a(lp867
g836
ag862
aaa(lp868
I1048
aI1052
ag862
a(lp869
g827
ag862
aaa(lp870
I1054
aI1059
aS'moving'
p871
a(lp872
g862
ag871
aaa(lp873
I1054
aI1059
ag871
a(lp874
g600
ag871
aaa(lp875
I1054
aI1059
ag871
a(lp876
g845
ag871
aaa(lp877
I1054
aI1059
ag871
a(lp878
g836
ag871
aaa(lp879
I1061
aI1063
aS'car'
p880
a(lp881
g871
ag880
aaa(lp882
I1061
aI1063
ag880
a(lp883
g862
ag880
aaa(lp884
I1061
aI1063
ag880
a(lp885
g600
ag880
aaa(lp886
I1061
aI1063
ag880
a(lp887
g845
ag880
aaa(lp888
I1065
aI1067
aS'yes'
p889
a(lp890
g880
ag889
aaa(lp891
I1065
aI1067
ag889
a(lp892
g871
ag889
aaa(lp893
I1065
aI1067
ag889
a(lp894
g862
ag889
aaa(lp895
I1065
aI1067
ag889
a(lp896
g600
ag889
aaa(lp897
I1070
aI1070
ag600
a(lp898
g889
ag600
aaa(lp899
I1070
aI1070
ag600
a(lp900
g880
ag600
aaa(lp901
I1070
aI1070
ag600
a(lp902
g871
ag600
aaa(lp903
I1070
aI1070
ag600
a(lp904
g862
ag600
aaa(lp905
I1072
aI1077
aS'thrill'
p906
a(lp907
g600
ag906
aaa(lp908
I1072
aI1077
ag906
a(lp909
g889
ag906
aaa(lp910
I1072
aI1077
ag906
a(lp911
g880
ag906
aaa(lp912
I1072
aI1077
ag906
a(lp913
g871
ag906
aaa(lp914
I1081
aI1081
ag618
a(lp915
g906
ag618
aaa(lp916
I1081
aI1081
ag618
a(lp917
g600
ag618
aaa(lp918
I1081
aI1081
ag618
a(lp919
g889
ag618
aaa(lp920
I1081
aI1081
ag618
a(lp921
g880
ag618
aaa(lp922
I1084
aI1084
ag600
a(lp923
g618
ag600
aaa(lp924
I1084
aI1084
ag600
a(lp925
g906
ag600
aaa(lp926
I1084
aI1084
ag600
a(lp927
g600
ag600
aaa(lp928
I1084
aI1084
ag600
a(lp929
g889
ag600
aaa(lp930
I1086
aI1090
aS'theme'
p931
a(lp932
g600
ag931
aaa(lp933
I1086
aI1090
ag931
a(lp934
g618
ag931
aaa(lp935
I1086
aI1090
ag931
a(lp936
g906
ag931
aaa(lp937
I1086
aI1090
ag931
a(lp938
g600
ag931
aaa(lp939
I1094
aI1094
ag618
a(lp940
g931
ag618
aaa(lp941
I1094
aI1094
ag618
a(lp942
g600
ag618
aaa(lp943
I1094
aI1094
ag618
a(lp944
g618
ag618
aaa(lp945
I1094
aI1094
ag618
a(lp946
g906
ag618
aaa(lp947
I1097
aI1097
ag600
a(lp948
g618
ag600
aaa(lp949
I1097
aI1097
ag600
a(lp950
g931
ag600
aaa(lp951
I1097
aI1097
ag600
a(lp952
g600
ag600
aaa(lp953
I1097
aI1097
ag600
a(lp954
g618
ag600
aaa(lp955
I1100
aI1109
aS'\xa0infant\xa0'
p956
a(lp957
g600
ag956
aaa(lp958
I1100
aI1109
ag956
a(lp959
g618
ag956
aaa(lp960
I1100
aI1109
ag956
a(lp961
g931
ag956
aaa(lp962
I1100
aI1109
ag956
a(lp963
g600
ag956
aaa(lp964
I1112
aI1123
aS'\xa0child\xa039'
p965
a(lp966
g956
ag965
aaa(lp967
I1112
aI1123
ag965
a(lp968
g600
ag965
aaa(lp969
I1112
aI1123
ag965
a(lp970
g618
ag965
aaa(lp971
I1112
aI1123
ag965
a(lp972
g931
ag965
aaa(lp973
I1126
aI1140
aS'\xa0preteen\xa038'
p974
a(lp975
g965
ag974
aaa(lp976
I1126
aI1140
ag974
a(lp977
g956
ag974
aaa(lp978
I1126
aI1140
ag974
a(lp979
g600
ag974
aaa(lp980
I1126
aI1140
ag974
a(lp981
g618
ag974
aaa(lp982
I1143
aI1166
aS'\xa0teenyoung\xa0adult\xa033'
p983
a(lp984
g974
ag983
aaa(lp985
I1143
aI1166
ag983
a(lp986
g965
ag983
aaa(lp987
I1143
aI1166
ag983
a(lp988
g956
ag983
aaa(lp989
I1143
aI1166
ag983
a(lp990
g600
ag983
aaa(lp991
I1169
aI1180
aS'\xa0adult\xa033'
p992
a(lp993
g983
ag992
aaa(lp994
I1169
aI1180
ag992
a(lp995
g974
ag992
aaa(lp996
I1169
aI1180
ag992
a(lp997
g965
ag992
aaa(lp998
I1169
aI1180
ag992
a(lp999
g956
ag992
aaa(lp1000
I1183
aI1201
aS'\xa0older\xa0adult\xa040'
p1001
a(lp1002
g992
ag1001
aaa(lp1003
I1183
aI1201
ag1001
a(lp1004
g983
ag1001
aaa(lp1005
I1183
aI1201
ag1001
a(lp1006
g974
ag1001
aaa(lp1007
I1183
aI1201
ag1001
a(lp1008
g965
ag1001
aaa(lp1009
I1204
aI1204
ag600
a(lp1010
g1001
ag600
aaa(lp1011
I1204
aI1204
ag600
a(lp1012
g992
ag600
aaa(lp1013
I1204
aI1204
ag600
a(lp1014
g983
ag600
aaa(lp1015
I1204
aI1204
ag600
a(lp1016
g974
ag600
aaa(lp1017
I1207
aI1211
aS'\xa0slow'
p1018
a(lp1019
g600
ag1018
aaa(lp1020
I1207
aI1211
ag1018
a(lp1021
g1001
ag1018
aaa(lp1022
I1207
aI1211
ag1018
a(lp1023
g992
ag1018
aaa(lp1024
I1207
aI1211
ag1018
a(lp1025
g983
ag1018
aaa(lp1026
I1213
aI1218
aS'moving'
p1027
a(lp1028
g1018
ag1027
aaa(lp1029
I1213
aI1218
ag1027
a(lp1030
g600
ag1027
aaa(lp1031
I1213
aI1218
ag1027
a(lp1032
g1001
ag1027
aaa(lp1033
I1213
aI1218
ag1027
a(lp1034
g992
ag1027
aaa(lp1035
I1220
aI1222
aS'car'
p1036
a(lp1037
g1027
ag1036
aaa(lp1038
I1220
aI1222
ag1036
a(lp1039
g1018
ag1036
aaa(lp1040
I1220
aI1222
ag1036
a(lp1041
g600
ag1036
aaa(lp1042
I1220
aI1222
ag1036
a(lp1043
g1001
ag1036
aaa(lp1044
I1224
aI1226
aS'yes'
p1045
a(lp1046
g1036
ag1045
aaa(lp1047
I1224
aI1226
ag1045
a(lp1048
g1027
ag1045
aaa(lp1049
I1224
aI1226
ag1045
a(lp1050
g1018
ag1045
aaa(lp1051
I1224
aI1226
ag1045
a(lp1052
g600
ag1045
aaa(lp1053
I1229
aI1229
ag600
a(lp1054
g1045
ag600
aaa(lp1055
I1229
aI1229
ag600
a(lp1056
g1036
ag600
aaa(lp1057
I1229
aI1229
ag600
a(lp1058
g1027
ag600
aaa(lp1059
I1229
aI1229
ag600
a(lp1060
g1018
ag600
aaa(lp1061
I1231
aI1236
aS'thrill'
p1062
a(lp1063
g600
ag1062
aaa(lp1064
I1231
aI1236
ag1062
a(lp1065
g1045
ag1062
aaa(lp1066
I1231
aI1236
ag1062
a(lp1067
g1036
ag1062
aaa(lp1068
I1231
aI1236
ag1062
a(lp1069
g1027
ag1062
aaa(lp1070
I1239
aI1241
aS'30'
p1071
a(lp1072
g1062
ag1071
aaa(lp1073
I1239
aI1241
ag1071
a(lp1074
g600
ag1071
aaa(lp1075
I1239
aI1241
ag1071
a(lp1076
g1045
ag1071
aaa(lp1077
I1239
aI1241
ag1071
a(lp1078
g1036
ag1071
aaa(lp1079
I1244
aI1244
ag600
a(lp1080
g1071
ag600
aaa(lp1081
I1244
aI1244
ag600
a(lp1082
g1062
ag600
aaa(lp1083
I1244
aI1244
ag600
a(lp1084
g600
ag600
aaa(lp1085
I1244
aI1244
ag600
a(lp1086
g1045
ag600
aaa(lp1087
I1246
aI1250
aS'theme'
p1088
a(lp1089
g600
ag1088
aaa(lp1090
I1246
aI1250
ag1088
a(lp1091
g1071
ag1088
aaa(lp1092
I1246
aI1250
ag1088
a(lp1093
g1062
ag1088
aaa(lp1094
I1246
aI1250
ag1088
a(lp1095
g600
ag1088
aaa(lp1096
I1253
aI1255
aS'40'
p1097
a(lp1098
g1088
ag1097
aaa(lp1099
I1253
aI1255
ag1097
a(lp1100
g600
ag1097
aaa(lp1101
I1253
aI1255
ag1097
a(lp1102
g1071
ag1097
aaa(lp1103
I1253
aI1255
ag1097
a(lp1104
g1062
ag1097
aaa(lp1105
I1258
aI1258
ag600
a(lp1106
g1097
ag600
aaa(lp1107
I1258
aI1258
ag600
a(lp1108
g1088
ag600
aaa(lp1109
I1258
aI1258
ag600
a(lp1110
g600
ag600
aaa(lp1111
I1258
aI1258
ag600
a(lp1112
g1071
ag600
aaa(lp1113
I1261
aI1270
aS'\xa0infant\xa0'
p1114
a(lp1115
g600
ag1114
aaa(lp1116
I1261
aI1270
ag1114
a(lp1117
g1097
ag1114
aaa(lp1118
I1261
aI1270
ag1114
a(lp1119
g1088
ag1114
aaa(lp1120
I1261
aI1270
ag1114
a(lp1121
g600
ag1114
aaa(lp1122
I1273
aI1281
aS'\xa0child\xa0'
p1123
a(lp1124
g1114
ag1123
aaa(lp1125
I1273
aI1281
ag1123
a(lp1126
g600
ag1123
aaa(lp1127
I1273
aI1281
ag1123
a(lp1128
g1097
ag1123
aaa(lp1129
I1273
aI1281
ag1123
a(lp1130
g1088
ag1123
aaa(lp1131
I1284
aI1298
aS'\xa0preteen\xa030'
p1132
a(lp1133
g1123
ag1132
aaa(lp1134
I1284
aI1298
ag1132
a(lp1135
g1114
ag1132
aaa(lp1136
I1284
aI1298
ag1132
a(lp1137
g600
ag1132
aaa(lp1138
I1284
aI1298
ag1132
a(lp1139
g1097
ag1132
aaa(lp1140
I1301
aI1324
aS'\xa0teenyoung\xa0adult\xa033'
p1141
a(lp1142
g1132
ag1141
aaa(lp1143
I1301
aI1324
ag1141
a(lp1144
g1123
ag1141
aaa(lp1145
I1301
aI1324
ag1141
a(lp1146
g1114
ag1141
aaa(lp1147
I1301
aI1324
ag1141
a(lp1148
g600
ag1141
aaa(lp1149
I1327
aI1338
aS'\xa0adult\xa035'
p1150
a(lp1151
g1141
ag1150
aaa(lp1152
I1327
aI1338
ag1150
a(lp1153
g1132
ag1150
aaa(lp1154
I1327
aI1338
ag1150
a(lp1155
g1123
ag1150
aaa(lp1156
I1327
aI1338
ag1150
a(lp1157
g1114
ag1150
aaa(lp1158
I1341
aI1356
aS'\xa0older\xa0adult\xa0'
p1159
a(lp1160
g1150
ag1159
aaa(lp1161
I1341
aI1356
ag1159
a(lp1162
g1141
ag1159
aaa(lp1163
I1341
aI1356
ag1159
a(lp1164
g1132
ag1159
aaa(lp1165
I1341
aI1356
ag1159
a(lp1166
g1123
ag1159
aaa(lp1167
I1359
aI1359
ag600
a(lp1168
g1159
ag600
aaa(lp1169
I1359
aI1359
ag600
a(lp1170
g1150
ag600
aaa(lp1171
I1359
aI1359
ag600
a(lp1172
g1141
ag600
aaa(lp1173
I1359
aI1359
ag600
a(lp1174
g1132
ag600
aaa(lp1175
I1362
aI1366
aS'\xa0slow'
p1176
a(lp1177
g600
ag1176
aaa(lp1178
I1362
aI1366
ag1176
a(lp1179
g1159
ag1176
aaa(lp1180
I1362
aI1366
ag1176
a(lp1181
g1150
ag1176
aaa(lp1182
I1362
aI1366
ag1176
a(lp1183
g1141
ag1176
aaa(lp1184
I1368
aI1373
aS'moving'
p1185
a(lp1186
g1176
ag1185
aaa(lp1187
I1368
aI1373
ag1185
a(lp1188
g600
ag1185
aaa(lp1189
I1368
aI1373
ag1185
a(lp1190
g1159
ag1185
aaa(lp1191
I1368
aI1373
ag1185
a(lp1192
g1150
ag1185
aaa(lp1193
I1375
aI1377
aS'car'
p1194
a(lp1195
g1185
ag1194
aaa(lp1196
I1375
aI1377
ag1194
a(lp1197
g1176
ag1194
aaa(lp1198
I1375
aI1377
ag1194
a(lp1199
g600
ag1194
aaa(lp1200
I1375
aI1377
ag1194
a(lp1201
g1159
ag1194
aaa(lp1202
I1383
aI1383
ag600
a(lp1203
g1194
ag600
aaa(lp1204
I1383
aI1383
ag600
a(lp1205
g1185
ag600
aaa(lp1206
I1383
aI1383
ag600
a(lp1207
g1176
ag600
aaa(lp1208
I1383
aI1383
ag600
a(lp1209
g600
ag600
aaa(lp1210
I1385
aI1390
aS'thrill'
p1211
a(lp1212
g600
ag1211
aaa(lp1213
I1385
aI1390
ag1211
a(lp1214
g1194
ag1211
aaa(lp1215
I1385
aI1390
ag1211
a(lp1216
g1185
ag1211
aaa(lp1217
I1385
aI1390
ag1211
a(lp1218
g1176
ag1211
aaa(lp1219
I1393
aI1395
aS'10'
p1220
a(lp1221
g1211
ag1220
aaa(lp1222
I1393
aI1395
ag1220
a(lp1223
g600
ag1220
aaa(lp1224
I1393
aI1395
ag1220
a(lp1225
g1194
ag1220
aaa(lp1226
I1393
aI1395
ag1220
a(lp1227
g1185
ag1220
aaa(lp1228
I1398
aI1398
ag600
a(lp1229
g1220
ag600
aaa(lp1230
I1398
aI1398
ag600
a(lp1231
g1211
ag600
aaa(lp1232
I1398
aI1398
ag600
a(lp1233
g600
ag600
aaa(lp1234
I1398
aI1398
ag600
a(lp1235
g1194
ag600
aaa(lp1236
I1400
aI1404
aS'theme'
p1237
a(lp1238
g600
ag1237
aaa(lp1239
I1400
aI1404
ag1237
a(lp1240
g1220
ag1237
aaa(lp1241
I1400
aI1404
ag1237
a(lp1242
g1211
ag1237
aaa(lp1243
I1400
aI1404
ag1237
a(lp1244
g600
ag1237
aaa(lp1245
I1407
aI1409
aS'10'
p1246
a(lp1247
g1237
ag1246
aaa(lp1248
I1407
aI1409
ag1246
a(lp1249
g600
ag1246
aaa(lp1250
I1407
aI1409
ag1246
a(lp1251
g1220
ag1246
aaa(lp1252
I1407
aI1409
ag1246
a(lp1253
g1211
ag1246
aaa(lp1254
I1412
aI1412
ag600
a(lp1255
g1246
ag600
aaa(lp1256
I1412
aI1412
ag600
a(lp1257
g1237
ag600
aaa(lp1258
I1412
aI1412
ag600
a(lp1259
g600
ag600
aaa(lp1260
I1412
aI1412
ag600
a(lp1261
g1220
ag600
aaa(lp1262
I1415
aI1424
aS'\xa0infant\xa0'
p1263
a(lp1264
g600
ag1263
aaa(lp1265
I1415
aI1424
ag1263
a(lp1266
g1246
ag1263
aaa(lp1267
I1415
aI1424
ag1263
a(lp1268
g1237
ag1263
aaa(lp1269
I1415
aI1424
ag1263
a(lp1270
g600
ag1263
aaa(lp1271
I1427
aI1438
aS'\xa0child\xa037'
p1272
a(lp1273
g1263
ag1272
aaa(lp1274
I1427
aI1438
ag1272
a(lp1275
g600
ag1272
aaa(lp1276
I1427
aI1438
ag1272
a(lp1277
g1246
ag1272
aaa(lp1278
I1427
aI1438
ag1272
a(lp1279
g1237
ag1272
aaa(lp1280
I1441
aI1455
aS'\xa0preteen\xa030'
p1281
a(lp1282
g1272
ag1281
aaa(lp1283
I1441
aI1455
ag1281
a(lp1284
g1263
ag1281
aaa(lp1285
I1441
aI1455
ag1281
a(lp1286
g600
ag1281
aaa(lp1287
I1441
aI1455
ag1281
a(lp1288
g1246
ag1281
aaa(lp1289
I1458
aI1481
aS'\xa0teenyoung\xa0adult\xa032'
p1290
a(lp1291
g1281
ag1290
aaa(lp1292
I1458
aI1481
ag1290
a(lp1293
g1272
ag1290
aaa(lp1294
I1458
aI1481
ag1290
a(lp1295
g1263
ag1290
aaa(lp1296
I1458
aI1481
ag1290
a(lp1297
g600
ag1290
aaa(lp1298
I1484
aI1495
aS'\xa0adult\xa033'
p1299
a(lp1300
g1290
ag1299
aaa(lp1301
I1484
aI1495
ag1299
a(lp1302
g1281
ag1299
aaa(lp1303
I1484
aI1495
ag1299
a(lp1304
g1272
ag1299
aaa(lp1305
I1484
aI1495
ag1299
a(lp1306
g1263
ag1299
aaa(lp1307
I1498
aI1516
aS'\xa0older\xa0adult\xa033'
p1308
a(lp1309
g1299
ag1308
aaa(lp1310
I1498
aI1516
ag1308
a(lp1311
g1290
ag1308
aaa(lp1312
I1498
aI1516
ag1308
a(lp1313
g1281
ag1308
aaa(lp1314
I1498
aI1516
ag1308
a(lp1315
g1272
ag1308
aaa(lp1316
I1519
aI1519
ag600
a(lp1317
g1308
ag600
aaa(lp1318
I1519
aI1519
ag600
a(lp1319
g1299
ag600
aaa(lp1320
I1519
aI1519
ag600
a(lp1321
g1290
ag600
aaa(lp1322
I1519
aI1519
ag600
a(lp1323
g1281
ag600
aaa(lp1324
I1522
aI1526
aS'\xa0slow'
p1325
a(lp1326
g600
ag1325
aaa(lp1327
I1522
aI1526
ag1325
a(lp1328
g1308
ag1325
aaa(lp1329
I1522
aI1526
ag1325
a(lp1330
g1299
ag1325
aaa(lp1331
I1522
aI1526
ag1325
a(lp1332
g1290
ag1325
aaa(lp1333
I1528
aI1533
aS'moving'
p1334
a(lp1335
g1325
ag1334
aaa(lp1336
I1528
aI1533
ag1334
a(lp1337
g600
ag1334
aaa(lp1338
I1528
aI1533
ag1334
a(lp1339
g1308
ag1334
aaa(lp1340
I1528
aI1533
ag1334
a(lp1341
g1299
ag1334
aaa(lp1342
I1535
aI1537
aS'car'
p1343
a(lp1344
g1334
ag1343
aaa(lp1345
I1535
aI1537
ag1343
a(lp1346
g1325
ag1343
aaa(lp1347
I1535
aI1537
ag1343
a(lp1348
g600
ag1343
aaa(lp1349
I1535
aI1537
ag1343
a(lp1350
g1308
ag1343
aaa(lp1351
I1543
aI1543
ag600
a(lp1352
g1343
ag600
aaa(lp1353
I1543
aI1543
ag600
a(lp1354
g1334
ag600
aaa(lp1355
I1543
aI1543
ag600
a(lp1356
g1325
ag600
aaa(lp1357
I1543
aI1543
ag600
a(lp1358
g600
ag600
aaa(lp1359
I1545
aI1550
aS'thrill'
p1360
a(lp1361
g600
ag1360
aaa(lp1362
I1545
aI1550
ag1360
a(lp1363
g1343
ag1360
aaa(lp1364
I1545
aI1550
ag1360
a(lp1365
g1334
ag1360
aaa(lp1366
I1545
aI1550
ag1360
a(lp1367
g1325
ag1360
aaa(lp1368
I1553
aI1555
aS'20'
p1369
a(lp1370
g1360
ag1369
aaa(lp1371
I1553
aI1555
ag1369
a(lp1372
g600
ag1369
aaa(lp1373
I1553
aI1555
ag1369
a(lp1374
g1343
ag1369
aaa(lp1375
I1553
aI1555
ag1369
a(lp1376
g1334
ag1369
aaa(lp1377
I1558
aI1558
ag600
a(lp1378
g1369
ag600
aaa(lp1379
I1558
aI1558
ag600
a(lp1380
g1360
ag600
aaa(lp1381
I1558
aI1558
ag600
a(lp1382
g600
ag600
aaa(lp1383
I1558
aI1558
ag600
a(lp1384
g1343
ag600
aaa(lp1385
I1560
aI1564
aS'theme'
p1386
a(lp1387
g600
ag1386
aaa(lp1388
I1560
aI1564
ag1386
a(lp1389
g1369
ag1386
aaa(lp1390
I1560
aI1564
ag1386
a(lp1391
g1360
ag1386
aaa(lp1392
I1560
aI1564
ag1386
a(lp1393
g600
ag1386
aaa(lp1394
I1567
aI1569
aS'30'
p1395
a(lp1396
g1386
ag1395
aaa(lp1397
I1567
aI1569
ag1395
a(lp1398
g600
ag1395
aaa(lp1399
I1567
aI1569
ag1395
a(lp1400
g1369
ag1395
aaa(lp1401
I1567
aI1569
ag1395
a(lp1402
g1360
ag1395
aaa(lp1403
I1572
aI1572
ag600
a(lp1404
g1395
ag600
aaa(lp1405
I1572
aI1572
ag600
a(lp1406
g1386
ag600
aaa(lp1407
I1572
aI1572
ag600
a(lp1408
g600
ag600
aaa(lp1409
I1572
aI1572
ag600
a(lp1410
g1369
ag600
aaa(lp1411
I1575
aI1584
aS'\xa0infant\xa0'
p1412
a(lp1413
g600
ag1412
aaa(lp1414
I1575
aI1584
ag1412
a(lp1415
g1395
ag1412
aaa(lp1416
I1575
aI1584
ag1412
a(lp1417
g1386
ag1412
aaa(lp1418
I1575
aI1584
ag1412
a(lp1419
g600
ag1412
aaa(lp1420
I1587
aI1595
aS'\xa0child\xa0'
p1421
a(lp1422
g1412
ag1421
aaa(lp1423
I1587
aI1595
ag1421
a(lp1424
g600
ag1421
aaa(lp1425
I1587
aI1595
ag1421
a(lp1426
g1395
ag1421
aaa(lp1427
I1587
aI1595
ag1421
a(lp1428
g1386
ag1421
aaa(lp1429
I1598
aI1609
aS'\xa0preteen\xa0'
p1430
a(lp1431
g1421
ag1430
aaa(lp1432
I1598
aI1609
ag1430
a(lp1433
g1412
ag1430
aaa(lp1434
I1598
aI1609
ag1430
a(lp1435
g600
ag1430
aaa(lp1436
I1598
aI1609
ag1430
a(lp1437
g1395
ag1430
aaa(lp1438
I1612
aI1632
aS'\xa0teenyoung\xa0adult\xa0'
p1439
a(lp1440
g1430
ag1439
aaa(lp1441
I1612
aI1632
ag1439
a(lp1442
g1421
ag1439
aaa(lp1443
I1612
aI1632
ag1439
a(lp1444
g1412
ag1439
aaa(lp1445
I1612
aI1632
ag1439
a(lp1446
g600
ag1439
aaa(lp1447
I1635
aI1646
aS'\xa0adult\xa040'
p1448
a(lp1449
g1439
ag1448
aaa(lp1450
I1635
aI1646
ag1448
a(lp1451
g1430
ag1448
aaa(lp1452
I1635
aI1646
ag1448
a(lp1453
g1421
ag1448
aaa(lp1454
I1635
aI1646
ag1448
a(lp1455
g1412
ag1448
aaa(lp1456
I1649
aI1664
aS'\xa0older\xa0adult\xa0'
p1457
a(lp1458
g1448
ag1457
aaa(lp1459
I1649
aI1664
ag1457
a(lp1460
g1439
ag1457
aaa(lp1461
I1649
aI1664
ag1457
a(lp1462
g1430
ag1457
aaa(lp1463
I1649
aI1664
ag1457
a(lp1464
g1421
ag1457
aaa(lp1465
I1667
aI1667
ag600
a(lp1466
g1457
ag600
aaa(lp1467
I1667
aI1667
ag600
a(lp1468
g1448
ag600
aaa(lp1469
I1667
aI1667
ag600
a(lp1470
g1439
ag600
aaa(lp1471
I1667
aI1667
ag600
a(lp1472
g1430
ag600
aaa(lp1473
I1670
aI1674
aS'\xa0slow'
p1474
a(lp1475
g600
ag1474
aaa(lp1476
I1670
aI1674
ag1474
a(lp1477
g1457
ag1474
aaa(lp1478
I1670
aI1674
ag1474
a(lp1479
g1448
ag1474
aaa(lp1480
I1670
aI1674
ag1474
a(lp1481
g1439
ag1474
aaa(lp1482
I1676
aI1681
aS'moving'
p1483
a(lp1484
g1474
ag1483
aaa(lp1485
I1676
aI1681
ag1483
a(lp1486
g600
ag1483
aaa(lp1487
I1676
aI1681
ag1483
a(lp1488
g1457
ag1483
aaa(lp1489
I1676
aI1681
ag1483
a(lp1490
g1448
ag1483
aaa(lp1491
I1683
aI1686
aS'boat'
p1492
a(lp1493
g1483
ag1492
aaa(lp1494
I1683
aI1686
ag1492
a(lp1495
g1474
ag1492
aaa(lp1496
I1683
aI1686
ag1492
a(lp1497
g600
ag1492
aaa(lp1498
I1683
aI1686
ag1492
a(lp1499
g1457
ag1492
aaa(lp1500
I1692
aI1692
ag600
a(lp1501
g1492
ag600
aaa(lp1502
I1692
aI1692
ag600
a(lp1503
g1483
ag600
aaa(lp1504
I1692
aI1692
ag600
a(lp1505
g1474
ag600
aaa(lp1506
I1692
aI1692
ag600
a(lp1507
g600
ag600
aaa(lp1508
I1694
aI1699
aS'thrill'
p1509
a(lp1510
g600
ag1509
aaa(lp1511
I1694
aI1699
ag1509
a(lp1512
g1492
ag1509
aaa(lp1513
I1694
aI1699
ag1509
a(lp1514
g1483
ag1509
aaa(lp1515
I1694
aI1699
ag1509
a(lp1516
g1474
ag1509
aaa(lp1517
I1702
aI1704
aS'30'
p1518
a(lp1519
g1509
ag1518
aaa(lp1520
I1702
aI1704
ag1518
a(lp1521
g600
ag1518
aaa(lp1522
I1702
aI1704
ag1518
a(lp1523
g1492
ag1518
aaa(lp1524
I1702
aI1704
ag1518
a(lp1525
g1483
ag1518
aaa(lp1526
I1707
aI1707
ag600
a(lp1527
g1518
ag600
aaa(lp1528
I1707
aI1707
ag600
a(lp1529
g1509
ag600
aaa(lp1530
I1707
aI1707
ag600
a(lp1531
g600
ag600
aaa(lp1532
I1707
aI1707
ag600
a(lp1533
g1492
ag600
aaa(lp1534
I1709
aI1713
aS'theme'
p1535
a(lp1536
g600
ag1535
aaa(lp1537
I1709
aI1713
ag1535
a(lp1538
g1518
ag1535
aaa(lp1539
I1709
aI1713
ag1535
a(lp1540
g1509
ag1535
aaa(lp1541
I1709
aI1713
ag1535
a(lp1542
g600
ag1535
aaa(lp1543
I1716
aI1718
aS'40'
p1544
a(lp1545
g1535
ag1544
aaa(lp1546
I1716
aI1718
ag1544
a(lp1547
g600
ag1544
aaa(lp1548
I1716
aI1718
ag1544
a(lp1549
g1518
ag1544
aaa(lp1550
I1716
aI1718
ag1544
a(lp1551
g1509
ag1544
aaa(lp1552
I1721
aI1721
ag600
a(lp1553
g1544
ag600
aaa(lp1554
I1721
aI1721
ag600
a(lp1555
g1535
ag600
aaa(lp1556
I1721
aI1721
ag600
a(lp1557
g600
ag600
aaa(lp1558
I1721
aI1721
ag600
a(lp1559
g1518
ag600
aaa(lp1560
I1724
aI1736
aS'\xa0infant\xa000'
p1561
a(lp1562
g600
ag1561
aaa(lp1563
I1724
aI1736
ag1561
a(lp1564
g1544
ag1561
aaa(lp1565
I1724
aI1736
ag1561
a(lp1566
g1535
ag1561
aaa(lp1567
I1724
aI1736
ag1561
a(lp1568
g600
ag1561
aaa(lp1569
I1739
aI1750
aS'\xa0child\xa040'
p1570
a(lp1571
g1561
ag1570
aaa(lp1572
I1739
aI1750
ag1570
a(lp1573
g600
ag1570
aaa(lp1574
I1739
aI1750
ag1570
a(lp1575
g1544
ag1570
aaa(lp1576
I1739
aI1750
ag1570
a(lp1577
g1535
ag1570
aaa(lp1578
I1753
aI1767
aS'\xa0preteen\xa030'
p1579
a(lp1580
g1570
ag1579
aaa(lp1581
I1753
aI1767
ag1579
a(lp1582
g1561
ag1579
aaa(lp1583
I1753
aI1767
ag1579
a(lp1584
g600
ag1579
aaa(lp1585
I1753
aI1767
ag1579
a(lp1586
g1544
ag1579
aaa(lp1587
I1770
aI1793
aS'\xa0teenyoung\xa0adult\xa028'
p1588
a(lp1589
g1579
ag1588
aaa(lp1590
I1770
aI1793
ag1588
a(lp1591
g1570
ag1588
aaa(lp1592
I1770
aI1793
ag1588
a(lp1593
g1561
ag1588
aaa(lp1594
I1770
aI1793
ag1588
a(lp1595
g600
ag1588
aaa(lp1596
I1796
aI1807
aS'\xa0adult\xa030'
p1597
a(lp1598
g1588
ag1597
aaa(lp1599
I1796
aI1807
ag1597
a(lp1600
g1579
ag1597
aaa(lp1601
I1796
aI1807
ag1597
a(lp1602
g1570
ag1597
aaa(lp1603
I1796
aI1807
ag1597
a(lp1604
g1561
ag1597
aaa(lp1605
I1810
aI1828
aS'\xa0older\xa0adult\xa040'
p1606
a(lp1607
g1597
ag1606
aaa(lp1608
I1810
aI1828
ag1606
a(lp1609
g1588
ag1606
aaa(lp1610
I1810
aI1828
ag1606
a(lp1611
g1579
ag1606
aaa(lp1612
I1810
aI1828
ag1606
a(lp1613
g1570
ag1606
aaa(lp1614
I1831
aI1831
ag600
a(lp1615
g1606
ag600
aaa(lp1616
I1831
aI1831
ag600
a(lp1617
g1597
ag600
aaa(lp1618
I1831
aI1831
ag600
a(lp1619
g1588
ag600
aaa(lp1620
I1831
aI1831
ag600
a(lp1621
g1579
ag600
aaa(lp1622
I1834
aI1841
aS'\xa0exhibit'
p1623
a(lp1624
g600
ag1623
aaa(lp1625
I1834
aI1841
ag1623
a(lp1626
g1606
ag1623
aaa(lp1627
I1834
aI1841
ag1623
a(lp1628
g1597
ag1623
aaa(lp1629
I1834
aI1841
ag1623
a(lp1630
g1588
ag1623
aaa(lp1631
I1847
aI1847
ag600
a(lp1632
g1623
ag600
aaa(lp1633
I1847
aI1847
ag600
a(lp1634
g600
ag600
aaa(lp1635
I1847
aI1847
ag600
a(lp1636
g1606
ag600
aaa(lp1637
I1847
aI1847
ag600
a(lp1638
g1597
ag600
aaa(lp1639
I1849
aI1854
aS'thrill'
p1640
a(lp1641
g600
ag1640
aaa(lp1642
I1849
aI1854
ag1640
a(lp1643
g1623
ag1640
aaa(lp1644
I1849
aI1854
ag1640
a(lp1645
g600
ag1640
aaa(lp1646
I1849
aI1854
ag1640
a(lp1647
g1606
ag1640
aaa(lp1648
I1858
aI1858
ag644
a(lp1649
g1640
ag644
aaa(lp1650
I1858
aI1858
ag644
a(lp1651
g600
ag644
aaa(lp1652
I1858
aI1858
ag644
a(lp1653
g1623
ag644
aaa(lp1654
I1858
aI1858
ag644
a(lp1655
g600
ag644
aaa(lp1656
I1861
aI1861
ag600
a(lp1657
g644
ag600
aaa(lp1658
I1861
aI1861
ag600
a(lp1659
g1640
ag600
aaa(lp1660
I1861
aI1861
ag600
a(lp1661
g600
ag600
aaa(lp1662
I1861
aI1861
ag600
a(lp1663
g1623
ag600
aaa(lp1664
I1863
aI1867
aS'theme'
p1665
a(lp1666
g600
ag1665
aaa(lp1667
I1863
aI1867
ag1665
a(lp1668
g644
ag1665
aaa(lp1669
I1863
aI1867
ag1665
a(lp1670
g1640
ag1665
aaa(lp1671
I1863
aI1867
ag1665
a(lp1672
g600
ag1665
aaa(lp1673
I1871
aI1871
ag618
a(lp1674
g1665
ag618
aaa(lp1675
I1871
aI1871
ag618
a(lp1676
g600
ag618
aaa(lp1677
I1871
aI1871
ag618
a(lp1678
g644
ag618
aaa(lp1679
I1871
aI1871
ag618
a(lp1680
g1640
ag618
aaa(lp1681
I1874
aI1874
ag600
a(lp1682
g618
ag600
aaa(lp1683
I1874
aI1874
ag600
a(lp1684
g1665
ag600
aaa(lp1685
I1874
aI1874
ag600
a(lp1686
g600
ag600
aaa(lp1687
I1874
aI1874
ag600
a(lp1688
g644
ag600
aaa(lp1689
I1877
aI1886
aS'\xa0infant\xa0'
p1690
a(lp1691
g600
ag1690
aaa(lp1692
I1877
aI1886
ag1690
a(lp1693
g618
ag1690
aaa(lp1694
I1877
aI1886
ag1690
a(lp1695
g1665
ag1690
aaa(lp1696
I1877
aI1886
ag1690
a(lp1697
g600
ag1690
aaa(lp1698
I1889
aI1900
aS'\xa0child\xa026'
p1699
a(lp1700
g1690
ag1699
aaa(lp1701
I1889
aI1900
ag1699
a(lp1702
g600
ag1699
aaa(lp1703
I1889
aI1900
ag1699
a(lp1704
g618
ag1699
aaa(lp1705
I1889
aI1900
ag1699
a(lp1706
g1665
ag1699
aaa(lp1707
I1903
aI1917
aS'\xa0preteen\xa030'
p1708
a(lp1709
g1699
ag1708
aaa(lp1710
I1903
aI1917
ag1708
a(lp1711
g1690
ag1708
aaa(lp1712
I1903
aI1917
ag1708
a(lp1713
g600
ag1708
aaa(lp1714
I1903
aI1917
ag1708
a(lp1715
g618
ag1708
aaa(lp1716
I1920
aI1943
aS'\xa0teenyoung\xa0adult\xa020'
p1717
a(lp1718
g1708
ag1717
aaa(lp1719
I1920
aI1943
ag1717
a(lp1720
g1699
ag1717
aaa(lp1721
I1920
aI1943
ag1717
a(lp1722
g1690
ag1717
aaa(lp1723
I1920
aI1943
ag1717
a(lp1724
g600
ag1717
aaa(lp1725
I1946
aI1957
aS'\xa0adult\xa017'
p1726
a(lp1727
g1717
ag1726
aaa(lp1728
I1946
aI1957
ag1726
a(lp1729
g1708
ag1726
aaa(lp1730
I1946
aI1957
ag1726
a(lp1731
g1699
ag1726
aaa(lp1732
I1946
aI1957
ag1726
a(lp1733
g1690
ag1726
aaa(lp1734
I1960
aI1978
aS'\xa0older\xa0adult\xa026'
p1735
a(lp1736
g1726
ag1735
aaa(lp1737
I1960
aI1978
ag1735
a(lp1738
g1717
ag1735
aaa(lp1739
I1960
aI1978
ag1735
a(lp1740
g1708
ag1735
aaa(lp1741
I1960
aI1978
ag1735
a(lp1742
g1699
ag1735
aaa(lp1743
I1981
aI1981
ag600
a(lp1744
g1735
ag600
aaa(lp1745
I1981
aI1981
ag600
a(lp1746
g1726
ag600
aaa(lp1747
I1981
aI1981
ag600
a(lp1748
g1717
ag600
aaa(lp1749
I1981
aI1981
ag600
a(lp1750
g1708
ag600
aaa(lp1751
I1984
aI1991
aS'\xa0theater'
p1752
a(lp1753
g600
ag1752
aaa(lp1754
I1984
aI1991
ag1752
a(lp1755
g1735
ag1752
aaa(lp1756
I1984
aI1991
ag1752
a(lp1757
g1726
ag1752
aaa(lp1758
I1984
aI1991
ag1752
a(lp1759
g1717
ag1752
aaa(lp1760
I1993
aI2004
aS'presentation'
p1761
a(lp1762
g1752
ag1761
aaa(lp1763
I1993
aI2004
ag1761
a(lp1764
g600
ag1761
aaa(lp1765
I1993
aI2004
ag1761
a(lp1766
g1735
ag1761
aaa(lp1767
I1993
aI2004
ag1761
a(lp1768
g1726
ag1761
aaa(lp1769
I2007
aI2015
aS'scheduled'
p1770
a(lp1771
g1761
ag1770
aaa(lp1772
I2007
aI2015
ag1770
a(lp1773
g1752
ag1770
aaa(lp1774
I2007
aI2015
ag1770
a(lp1775
g600
ag1770
aaa(lp1776
I2007
aI2015
ag1770
a(lp1777
g1735
ag1770
aaa(lp1778
I2019
aI2033
aS'\xa0\xa0tomorrowland'
p1779
a(lp1780
g1770
ag1779
aaa(lp1781
I2019
aI2033
ag1779
a(lp1782
g1761
ag1779
aaa(lp1783
I2019
aI2033
ag1779
a(lp1784
g1752
ag1779
aaa(lp1785
I2019
aI2033
ag1779
a(lp1786
g600
ag1779
aaa(lp1787
I2035
aI2041
aS'terrace'
p1788
a(lp1789
g1779
ag1788
aaa(lp1790
I2035
aI2041
ag1788
a(lp1791
g1770
ag1788
aaa(lp1792
I2035
aI2041
ag1788
a(lp1793
g1761
ag1788
aaa(lp1794
I2035
aI2041
ag1788
a(lp1795
g1752
ag1788
aaa(lp1796
I2047
aI2047
ag600
a(lp1797
g1788
ag600
aaa(lp1798
I2047
aI2047
ag600
a(lp1799
g1779
ag600
aaa(lp1800
I2047
aI2047
ag600
a(lp1801
g1770
ag600
aaa(lp1802
I2047
aI2047
ag600
a(lp1803
g1761
ag600
aaa(lp1804
I2049
aI2050
aS'20'
p1805
a(lp1806
g600
ag1805
aaa(lp1807
I2049
aI2050
ag1805
a(lp1808
g1788
ag1805
aaa(lp1809
I2049
aI2050
ag1805
a(lp1810
g1779
ag1805
aaa(lp1811
I2049
aI2050
ag1805
a(lp1812
g1770
ag1805
aaa(lp1813
I2052
aI2058
aS'minutes'
p1814
a(lp1815
g1805
ag1814
aaa(lp1816
I2052
aI2058
ag1814
a(lp1817
g600
ag1814
aaa(lp1818
I2052
aI2058
ag1814
a(lp1819
g1788
ag1814
aaa(lp1820
I2052
aI2058
ag1814
a(lp1821
g1779
ag1814
aaa(lp1822
I2061
aI2069
aS'\xa0\xa0infant'
p1823
a(lp1824
g1814
ag1823
aaa(lp1825
I2061
aI2069
ag1823
a(lp1826
g1805
ag1823
aaa(lp1827
I2061
aI2069
ag1823
a(lp1828
g600
ag1823
aaa(lp1829
I2061
aI2069
ag1823
a(lp1830
g1788
ag1823
aaa(lp1831
I2072
aI2072
aS'1'
p1832
a(lp1833
g1823
ag1832
aaa(lp1834
I2072
aI2072
ag1832
a(lp1835
g1814
ag1832
aaa(lp1836
I2072
aI2072
ag1832
a(lp1837
g1805
ag1832
aaa(lp1838
I2072
aI2072
ag1832
a(lp1839
g600
ag1832
aaa(lp1840
I2075
aI2075
ag600
a(lp1841
g1832
ag600
aaa(lp1842
I2075
aI2075
ag600
a(lp1843
g1823
ag600
aaa(lp1844
I2075
aI2075
ag600
a(lp1845
g1814
ag600
aaa(lp1846
I2075
aI2075
ag600
a(lp1847
g1805
ag600
aaa(lp1848
I2077
aI2081
aS'child'
p1849
a(lp1850
g600
ag1849
aaa(lp1851
I2077
aI2081
ag1849
a(lp1852
g1832
ag1849
aaa(lp1853
I2077
aI2081
ag1849
a(lp1854
g1823
ag1849
aaa(lp1855
I2077
aI2081
ag1849
a(lp1856
g1814
ag1849
aaa(lp1857
I2084
aI2084
aS'3'
p1858
a(lp1859
g1849
ag1858
aaa(lp1860
I2084
aI2084
ag1858
a(lp1861
g600
ag1858
aaa(lp1862
I2084
aI2084
ag1858
a(lp1863
g1832
ag1858
aaa(lp1864
I2084
aI2084
ag1858
a(lp1865
g1823
ag1858
aaa(lp1866
I2087
aI2087
ag600
a(lp1867
g1858
ag600
aaa(lp1868
I2087
aI2087
ag600
a(lp1869
g1849
ag600
aaa(lp1870
I2087
aI2087
ag600
a(lp1871
g600
ag600
aaa(lp1872
I2087
aI2087
ag600
a(lp1873
g1832
ag600
aaa(lp1874
I2089
aI2096
aS'preteen'
p1875
a(lp1876
g600
ag1875
aaa(lp1877
I2089
aI2096
ag1875
a(lp1878
g1858
ag1875
aaa(lp1879
I2089
aI2096
ag1875
a(lp1880
g1849
ag1875
aaa(lp1881
I2089
aI2096
ag1875
a(lp1882
g600
ag1875
aaa(lp1883
I2099
aI2099
aS'2'
p1884
a(lp1885
g1875
ag1884
aaa(lp1886
I2099
aI2099
ag1884
a(lp1887
g600
ag1884
aaa(lp1888
I2099
aI2099
ag1884
a(lp1889
g1858
ag1884
aaa(lp1890
I2099
aI2099
ag1884
a(lp1891
g1849
ag1884
aaa(lp1892
I2102
aI2102
ag600
a(lp1893
g1884
ag600
aaa(lp1894
I2102
aI2102
ag600
a(lp1895
g1875
ag600
aaa(lp1896
I2102
aI2102
ag600
a(lp1897
g600
ag600
aaa(lp1898
I2102
aI2102
ag600
a(lp1899
g1858
ag600
aaa(lp1900
I2104
aI2113
aS'teenyoung'
p1901
a(lp1902
g600
ag1901
aaa(lp1903
I2104
aI2113
ag1901
a(lp1904
g1884
ag1901
aaa(lp1905
I2104
aI2113
ag1901
a(lp1906
g1875
ag1901
aaa(lp1907
I2104
aI2113
ag1901
a(lp1908
g600
ag1901
aaa(lp1909
I2115
aI2119
aS'adult'
p1910
a(lp1911
g1901
ag1910
aaa(lp1912
I2115
aI2119
ag1910
a(lp1913
g600
ag1910
aaa(lp1914
I2115
aI2119
ag1910
a(lp1915
g1884
ag1910
aaa(lp1916
I2115
aI2119
ag1910
a(lp1917
g1875
ag1910
aaa(lp1918
I2122
aI2122
ag1884
a(lp1919
g1910
ag1884
aaa(lp1920
I2122
aI2122
ag1884
a(lp1921
g1901
ag1884
aaa(lp1922
I2122
aI2122
ag1884
a(lp1923
g600
ag1884
aaa(lp1924
I2122
aI2122
ag1884
a(lp1925
g1884
ag1884
aaa(lp1926
I2125
aI2125
ag600
a(lp1927
g1884
ag600
aaa(lp1928
I2125
aI2125
ag600
a(lp1929
g1910
ag600
aaa(lp1930
I2125
aI2125
ag600
a(lp1931
g1901
ag600
aaa(lp1932
I2125
aI2125
ag600
a(lp1933
g600
ag600
aaa(lp1934
I2127
aI2131
aS'adult'
p1935
a(lp1936
g600
ag1935
aaa(lp1937
I2127
aI2131
ag1935
a(lp1938
g1884
ag1935
aaa(lp1939
I2127
aI2131
ag1935
a(lp1940
g1910
ag1935
aaa(lp1941
I2127
aI2131
ag1935
a(lp1942
g1901
ag1935
aaa(lp1943
I2134
aI2134
ag1884
a(lp1944
g1935
ag1884
aaa(lp1945
I2134
aI2134
ag1884
a(lp1946
g600
ag1884
aaa(lp1947
I2134
aI2134
ag1884
a(lp1948
g1884
ag1884
aaa(lp1949
I2134
aI2134
ag1884
a(lp1950
g1910
ag1884
aaa(lp1951
I2137
aI2137
ag600
a(lp1952
g1884
ag600
aaa(lp1953
I2137
aI2137
ag600
a(lp1954
g1935
ag600
aaa(lp1955
I2137
aI2137
ag600
a(lp1956
g600
ag600
aaa(lp1957
I2137
aI2137
ag600
a(lp1958
g1884
ag600
aaa(lp1959
I2139
aI2143
aS'older'
p1960
a(lp1961
g600
ag1960
aaa(lp1962
I2139
aI2143
ag1960
a(lp1963
g1884
ag1960
aaa(lp1964
I2139
aI2143
ag1960
a(lp1965
g1935
ag1960
aaa(lp1966
I2139
aI2143
ag1960
a(lp1967
g600
ag1960
aaa(lp1968
I2145
aI2149
aS'adult'
p1969
a(lp1970
g1960
ag1969
aaa(lp1971
I2145
aI2149
ag1969
a(lp1972
g600
ag1969
aaa(lp1973
I2145
aI2149
ag1969
a(lp1974
g1884
ag1969
aaa(lp1975
I2145
aI2149
ag1969
a(lp1976
g1935
ag1969
aaa(lp1977
I2152
aI2152
ag1884
a(lp1978
g1969
ag1884
aaa(lp1979
I2152
aI2152
ag1884
a(lp1980
g1960
ag1884
aaa(lp1981
I2152
aI2152
ag1884
a(lp1982
g600
ag1884
aaa(lp1983
I2152
aI2152
ag1884
a(lp1984
g1884
ag1884
aaa(lp1985
I2154
aI2159
aS'thrill'
p1986
a(lp1987
g1884
ag1986
aaa(lp1988
I2154
aI2159
ag1986
a(lp1989
g1969
ag1986
aaa(lp1990
I2154
aI2159
ag1986
a(lp1991
g1960
ag1986
aaa(lp1992
I2154
aI2159
ag1986
a(lp1993
g600
ag1986
aaa(lp1994
I2162
aI2168
aS'unrated'
p1995
a(lp1996
g1986
ag1995
aaa(lp1997
I2162
aI2168
ag1995
a(lp1998
g1884
ag1995
aaa(lp1999
I2162
aI2168
ag1995
a(lp2000
g1969
ag1995
aaa(lp2001
I2162
aI2168
ag1995
a(lp2002
g1960
ag1995
aaa(lp2003
I2171
aI2171
ag600
a(lp2004
g1995
ag600
aaa(lp2005
I2171
aI2171
ag600
a(lp2006
g1986
ag600
aaa(lp2007
I2171
aI2171
ag600
a(lp2008
g1884
ag600
aaa(lp2009
I2171
aI2171
ag600
a(lp2010
g1969
ag600
aaa(lp2011
I2173
aI2177
aS'theme'
p2012
a(lp2013
g600
ag2012
aaa(lp2014
I2173
aI2177
ag2012
a(lp2015
g1995
ag2012
aaa(lp2016
I2173
aI2177
ag2012
a(lp2017
g1986
ag2012
aaa(lp2018
I2173
aI2177
ag2012
a(lp2019
g1884
ag2012
aaa(lp2020
I2180
aI2186
aS'unrated'
p2021
a(lp2022
g2012
ag2021
aaa(lp2023
I2180
aI2186
ag2021
a(lp2024
g600
ag2021
aaa(lp2025
I2180
aI2186
ag2021
a(lp2026
g1995
ag2021
aaa(lp2027
I2180
aI2186
ag2021
a(lp2028
g1986
ag2021
aaa(lp2029
I2189
aI2189
ag600
a(lp2030
g2021
ag600
aaa(lp2031
I2189
aI2189
ag600
a(lp2032
g2012
ag600
aaa(lp2033
I2189
aI2189
ag600
a(lp2034
g600
ag600
aaa(lp2035
I2189
aI2189
ag600
a(lp2036
g1995
ag600
aaa(lp2037
I2192
aI2201
aS'\xa0infant\xa0'
p2038
a(lp2039
g600
ag2038
aaa(lp2040
I2192
aI2201
ag2038
a(lp2041
g2021
ag2038
aaa(lp2042
I2192
aI2201
ag2038
a(lp2043
g2012
ag2038
aaa(lp2044
I2192
aI2201
ag2038
a(lp2045
g600
ag2038
aaa(lp2046
I2204
aI2212
aS'\xa0child\xa0'
p2047
a(lp2048
g2038
ag2047
aaa(lp2049
I2204
aI2212
ag2047
a(lp2050
g600
ag2047
aaa(lp2051
I2204
aI2212
ag2047
a(lp2052
g2021
ag2047
aaa(lp2053
I2204
aI2212
ag2047
a(lp2054
g2012
ag2047
aaa(lp2055
I2215
aI2226
aS'\xa0preteen\xa0'
p2056
a(lp2057
g2047
ag2056
aaa(lp2058
I2215
aI2226
ag2056
a(lp2059
g2038
ag2056
aaa(lp2060
I2215
aI2226
ag2056
a(lp2061
g600
ag2056
aaa(lp2062
I2215
aI2226
ag2056
a(lp2063
g2021
ag2056
aaa(lp2064
I2229
aI2249
aS'\xa0teenyoung\xa0adult\xa0'
p2065
a(lp2066
g2056
ag2065
aaa(lp2067
I2229
aI2249
ag2065
a(lp2068
g2047
ag2065
aaa(lp2069
I2229
aI2249
ag2065
a(lp2070
g2038
ag2065
aaa(lp2071
I2229
aI2249
ag2065
a(lp2072
g600
ag2065
aaa(lp2073
I2252
aI2260
aS'\xa0adult\xa0'
p2074
a(lp2075
g2065
ag2074
aaa(lp2076
I2252
aI2260
ag2074
a(lp2077
g2056
ag2074
aaa(lp2078
I2252
aI2260
ag2074
a(lp2079
g2047
ag2074
aaa(lp2080
I2252
aI2260
ag2074
a(lp2081
g2038
ag2074
aaa(lp2082
I2263
aI2278
aS'\xa0older\xa0adult\xa0'
p2083
a(lp2084
g2074
ag2083
aaa(lp2085
I2263
aI2278
ag2083
a(lp2086
g2065
ag2083
aaa(lp2087
I2263
aI2278
ag2083
a(lp2088
g2056
ag2083
aaa(lp2089
I2263
aI2278
ag2083
a(lp2090
g2047
ag2083
aaa(lp2091
I2281
aI2281
ag600
a(lp2092
g2083
ag600
aaa(lp2093
I2281
aI2281
ag600
a(lp2094
g2074
ag600
aaa(lp2095
I2281
aI2281
ag600
a(lp2096
g2065
ag600
aaa(lp2097
I2281
aI2281
ag600
a(lp2098
g2056
ag600
aaa(lp2099
I2284
aI2290
aS'\xa0thrill'
p2100
a(lp2101
g600
ag2100
aaa(lp2102
I2284
aI2290
ag2100
a(lp2103
g2083
ag2100
aaa(lp2104
I2284
aI2290
ag2100
a(lp2105
g2074
ag2100
aaa(lp2106
I2284
aI2290
ag2100
a(lp2107
g2065
ag2100
aaa(lp2108
I2292
aI2295
aS'ride'
p2109
a(lp2110
g2100
ag2109
aaa(lp2111
I2292
aI2295
ag2109
a(lp2112
g600
ag2109
aaa(lp2113
I2292
aI2295
ag2109
a(lp2114
g2083
ag2109
aaa(lp2115
I2292
aI2295
ag2109
a(lp2116
g2074
ag2109
aaa(lp2117
I2297
aI2299
aS'yes'
p2118
a(lp2119
g2109
ag2118
aaa(lp2120
I2297
aI2299
ag2118
a(lp2121
g2100
ag2118
aaa(lp2122
I2297
aI2299
ag2118
a(lp2123
g600
ag2118
aaa(lp2124
I2297
aI2299
ag2118
a(lp2125
g2083
ag2118
aaa(lp2126
I2302
aI2302
ag600
a(lp2127
g2118
ag600
aaa(lp2128
I2302
aI2302
ag600
a(lp2129
g2109
ag600
aaa(lp2130
I2302
aI2302
ag600
a(lp2131
g2100
ag600
aaa(lp2132
I2302
aI2302
ag600
a(lp2133
g600
ag600
aaa(lp2134
I2304
aI2309
aS'thrill'
p2135
a(lp2136
g600
ag2135
aaa(lp2137
I2304
aI2309
ag2135
a(lp2138
g2118
ag2135
aaa(lp2139
I2304
aI2309
ag2135
a(lp2140
g2109
ag2135
aaa(lp2141
I2304
aI2309
ag2135
a(lp2142
g2100
ag2135
aaa(lp2143
I2312
aI2314
aS'10'
p2144
a(lp2145
g2135
ag2144
aaa(lp2146
I2312
aI2314
ag2144
a(lp2147
g600
ag2144
aaa(lp2148
I2312
aI2314
ag2144
a(lp2149
g2118
ag2144
aaa(lp2150
I2312
aI2314
ag2144
a(lp2151
g2109
ag2144
aaa(lp2152
I2317
aI2317
ag600
a(lp2153
g2144
ag600
aaa(lp2154
I2317
aI2317
ag600
a(lp2155
g2135
ag600
aaa(lp2156
I2317
aI2317
ag600
a(lp2157
g600
ag600
aaa(lp2158
I2317
aI2317
ag600
a(lp2159
g2118
ag600
aaa(lp2160
I2319
aI2323
aS'theme'
p2161
a(lp2162
g600
ag2161
aaa(lp2163
I2319
aI2323
ag2161
a(lp2164
g2144
ag2161
aaa(lp2165
I2319
aI2323
ag2161
a(lp2166
g2135
ag2161
aaa(lp2167
I2319
aI2323
ag2161
a(lp2168
g600
ag2161
aaa(lp2169
I2326
aI2328
aS'10'
p2170
a(lp2171
g2161
ag2170
aaa(lp2172
I2326
aI2328
ag2170
a(lp2173
g600
ag2170
aaa(lp2174
I2326
aI2328
ag2170
a(lp2175
g2144
ag2170
aaa(lp2176
I2326
aI2328
ag2170
a(lp2177
g2135
ag2170
aaa(lp2178
I2331
aI2331
ag600
a(lp2179
g2170
ag600
aaa(lp2180
I2331
aI2331
ag600
a(lp2181
g2161
ag600
aaa(lp2182
I2331
aI2331
ag600
a(lp2183
g600
ag600
aaa(lp2184
I2331
aI2331
ag600
a(lp2185
g2144
ag600
aaa(lp2186
I2334
aI2343
aS'\xa0infant\xa0'
p2187
a(lp2188
g600
ag2187
aaa(lp2189
I2334
aI2343
ag2187
a(lp2190
g2170
ag2187
aaa(lp2191
I2334
aI2343
ag2187
a(lp2192
g2161
ag2187
aaa(lp2193
I2334
aI2343
ag2187
a(lp2194
g600
ag2187
aaa(lp2195
I2346
aI2357
aS'\xa0child\xa038'
p2196
a(lp2197
g2187
ag2196
aaa(lp2198
I2346
aI2357
ag2196
a(lp2199
g600
ag2196
aaa(lp2200
I2346
aI2357
ag2196
a(lp2201
g2170
ag2196
aaa(lp2202
I2346
aI2357
ag2196
a(lp2203
g2161
ag2196
aaa(lp2204
I2360
aI2374
aS'\xa0preteen\xa039'
p2205
a(lp2206
g2196
ag2205
aaa(lp2207
I2360
aI2374
ag2205
a(lp2208
g2187
ag2205
aaa(lp2209
I2360
aI2374
ag2205
a(lp2210
g600
ag2205
aaa(lp2211
I2360
aI2374
ag2205
a(lp2212
g2170
ag2205
aaa(lp2213
I2377
aI2400
aS'\xa0teenyoung\xa0adult\xa039'
p2214
a(lp2215
g2205
ag2214
aaa(lp2216
I2377
aI2400
ag2214
a(lp2217
g2196
ag2214
aaa(lp2218
I2377
aI2400
ag2214
a(lp2219
g2187
ag2214
aaa(lp2220
I2377
aI2400
ag2214
a(lp2221
g600
ag2214
aaa(lp2222
I2403
aI2414
aS'\xa0adult\xa039'
p2223
a(lp2224
g2214
ag2223
aaa(lp2225
I2403
aI2414
ag2223
a(lp2226
g2205
ag2223
aaa(lp2227
I2403
aI2414
ag2223
a(lp2228
g2196
ag2223
aaa(lp2229
I2403
aI2414
ag2223
a(lp2230
g2187
ag2223
aaa(lp2231
I2417
aI2435
aS'\xa0older\xa0adult\xa040'
p2232
a(lp2233
g2223
ag2232
aaa(lp2234
I2417
aI2435
ag2232
a(lp2235
g2214
ag2232
aaa(lp2236
I2417
aI2435
ag2232
a(lp2237
g2205
ag2232
aaa(lp2238
I2417
aI2435
ag2232
a(lp2239
g2196
ag2232
aaa(lp2240
I2438
aI2438
ag600
a(lp2241
g2232
ag600
aaa(lp2242
I2438
aI2438
ag600
a(lp2243
g2223
ag600
aaa(lp2244
I2438
aI2438
ag600
a(lp2245
g2214
ag600
aaa(lp2246
I2438
aI2438
ag600
a(lp2247
g2205
ag600
aaa(lp2248
I2441
aI2450
aS'\xa0simulator'
p2249
a(lp2250
g600
ag2249
aaa(lp2251
I2441
aI2450
ag2249
a(lp2252
g2232
ag2249
aaa(lp2253
I2441
aI2450
ag2249
a(lp2254
g2223
ag2249
aaa(lp2255
I2441
aI2450
ag2249
a(lp2256
g2214
ag2249
aaa(lp2257
I2452
aI2454
aS'yes'
p2258
a(lp2259
g2249
ag2258
aaa(lp2260
I2452
aI2454
ag2258
a(lp2261
g600
ag2258
aaa(lp2262
I2452
aI2454
ag2258
a(lp2263
g2232
ag2258
aaa(lp2264
I2452
aI2454
ag2258
a(lp2265
g2223
ag2258
aaa(lp2266
I2457
aI2457
ag600
a(lp2267
g2258
ag600
aaa(lp2268
I2457
aI2457
ag600
a(lp2269
g2249
ag600
aaa(lp2270
I2457
aI2457
ag600
a(lp2271
g600
ag600
aaa(lp2272
I2457
aI2457
ag600
a(lp2273
g2232
ag600
aaa(lp2274
I2459
aI2464
aS'thrill'
p2275
a(lp2276
g600
ag2275
aaa(lp2277
I2459
aI2464
ag2275
a(lp2278
g2258
ag2275
aaa(lp2279
I2459
aI2464
ag2275
a(lp2280
g2249
ag2275
aaa(lp2281
I2459
aI2464
ag2275
a(lp2282
g600
ag2275
aaa(lp2283
I2467
aI2469
aS'10'
p2284
a(lp2285
g2275
ag2284
aaa(lp2286
I2467
aI2469
ag2284
a(lp2287
g600
ag2284
aaa(lp2288
I2467
aI2469
ag2284
a(lp2289
g2258
ag2284
aaa(lp2290
I2467
aI2469
ag2284
a(lp2291
g2249
ag2284
aaa(lp2292
I2472
aI2472
ag600
a(lp2293
g2284
ag600
aaa(lp2294
I2472
aI2472
ag600
a(lp2295
g2275
ag600
aaa(lp2296
I2472
aI2472
ag600
a(lp2297
g600
ag600
aaa(lp2298
I2472
aI2472
ag600
a(lp2299
g2258
ag600
aaa(lp2300
I2474
aI2478
aS'theme'
p2301
a(lp2302
g600
ag2301
aaa(lp2303
I2474
aI2478
ag2301
a(lp2304
g2284
ag2301
aaa(lp2305
I2474
aI2478
ag2301
a(lp2306
g2275
ag2301
aaa(lp2307
I2474
aI2478
ag2301
a(lp2308
g600
ag2301
aaa(lp2309
I2481
aI2483
aS'10'
p2310
a(lp2311
g2301
ag2310
aaa(lp2312
I2481
aI2483
ag2310
a(lp2313
g600
ag2310
aaa(lp2314
I2481
aI2483
ag2310
a(lp2315
g2284
ag2310
aaa(lp2316
I2481
aI2483
ag2310
a(lp2317
g2275
ag2310
aaa(lp2318
I2486
aI2486
ag600
a(lp2319
g2310
ag600
aaa(lp2320
I2486
aI2486
ag600
a(lp2321
g2301
ag600
aaa(lp2322
I2486
aI2486
ag600
a(lp2323
g600
ag600
aaa(lp2324
I2486
aI2486
ag600
a(lp2325
g2284
ag600
aaa(lp2326
I2489
aI2498
aS'\xa0infant\xa0'
p2327
a(lp2328
g600
ag2327
aaa(lp2329
I2489
aI2498
ag2327
a(lp2330
g2310
ag2327
aaa(lp2331
I2489
aI2498
ag2327
a(lp2332
g2301
ag2327
aaa(lp2333
I2489
aI2498
ag2327
a(lp2334
g600
ag2327
aaa(lp2335
I2501
aI2512
aS'\xa0child\xa033'
p2336
a(lp2337
g2327
ag2336
aaa(lp2338
I2501
aI2512
ag2336
a(lp2339
g600
ag2336
aaa(lp2340
I2501
aI2512
ag2336
a(lp2341
g2310
ag2336
aaa(lp2342
I2501
aI2512
ag2336
a(lp2343
g2301
ag2336
aaa(lp2344
I2515
aI2529
aS'\xa0preteen\xa034'
p2345
a(lp2346
g2336
ag2345
aaa(lp2347
I2515
aI2529
ag2345
a(lp2348
g2327
ag2345
aaa(lp2349
I2515
aI2529
ag2345
a(lp2350
g600
ag2345
aaa(lp2351
I2515
aI2529
ag2345
a(lp2352
g2310
ag2345
aaa(lp2353
I2532
aI2555
aS'\xa0teenyoung\xa0adult\xa034'
p2354
a(lp2355
g2345
ag2354
aaa(lp2356
I2532
aI2555
ag2354
a(lp2357
g2336
ag2354
aaa(lp2358
I2532
aI2555
ag2354
a(lp2359
g2327
ag2354
aaa(lp2360
I2532
aI2555
ag2354
a(lp2361
g600
ag2354
aaa(lp2362
I2558
aI2569
aS'\xa0adult\xa033'
p2363
a(lp2364
g2354
ag2363
aaa(lp2365
I2558
aI2569
ag2363
a(lp2366
g2345
ag2363
aaa(lp2367
I2558
aI2569
ag2363
a(lp2368
g2336
ag2363
aaa(lp2369
I2558
aI2569
ag2363
a(lp2370
g2327
ag2363
aaa(lp2371
I2572
aI2590
aS'\xa0older\xa0adult\xa035'
p2372
a(lp2373
g2363
ag2372
aaa(lp2374
I2572
aI2590
ag2372
a(lp2375
g2354
ag2372
aaa(lp2376
I2572
aI2590
ag2372
a(lp2377
g2345
ag2372
aaa(lp2378
I2572
aI2590
ag2372
a(lp2379
g2336
ag2372
aaa(lp2380
I2593
aI2593
ag600
a(lp2381
g2372
ag600
aaa(lp2382
I2593
aI2593
ag600
a(lp2383
g2363
ag600
aaa(lp2384
I2593
aI2593
ag600
a(lp2385
g2354
ag600
aaa(lp2386
I2593
aI2593
ag600
a(lp2387
g2345
ag600
aaa(lp2388
I2596
aI2602
aS'\xa0arcade'
p2389
a(lp2390
g600
ag2389
aaa(lp2391
I2596
aI2602
ag2389
a(lp2392
g2372
ag2389
aaa(lp2393
I2596
aI2602
ag2389
a(lp2394
g2363
ag2389
aaa(lp2395
I2596
aI2602
ag2389
a(lp2396
g2354
ag2389
aaa(lp2397
I2608
aI2608
ag600
a(lp2398
g2389
ag600
aaa(lp2399
I2608
aI2608
ag600
a(lp2400
g600
ag600
aaa(lp2401
I2608
aI2608
ag600
a(lp2402
g2372
ag600
aaa(lp2403
I2608
aI2608
ag600
a(lp2404
g2363
ag600
aaa(lp2405
I2610
aI2615
aS'thrill'
p2406
a(lp2407
g600
ag2406
aaa(lp2408
I2610
aI2615
ag2406
a(lp2409
g2389
ag2406
aaa(lp2410
I2610
aI2615
ag2406
a(lp2411
g600
ag2406
aaa(lp2412
I2610
aI2615
ag2406
a(lp2413
g2372
ag2406
aaa(lp2414
I2619
aI2619
ag1858
a(lp2415
g2406
ag1858
aaa(lp2416
I2619
aI2619
ag1858
a(lp2417
g600
ag1858
aaa(lp2418
I2619
aI2619
ag1858
a(lp2419
g2389
ag1858
aaa(lp2420
I2619
aI2619
ag1858
a(lp2421
g600
ag1858
aaa(lp2422
I2622
aI2622
ag600
a(lp2423
g1858
ag600
aaa(lp2424
I2622
aI2622
ag600
a(lp2425
g2406
ag600
aaa(lp2426
I2622
aI2622
ag600
a(lp2427
g600
ag600
aaa(lp2428
I2622
aI2622
ag600
a(lp2429
g2389
ag600
aaa(lp2430
I2624
aI2628
aS'theme'
p2431
a(lp2432
g600
ag2431
aaa(lp2433
I2624
aI2628
ag2431
a(lp2434
g1858
ag2431
aaa(lp2435
I2624
aI2628
ag2431
a(lp2436
g2406
ag2431
aaa(lp2437
I2624
aI2628
ag2431
a(lp2438
g600
ag2431
aaa(lp2439
I2632
aI2632
ag1858
a(lp2440
g2431
ag1858
aaa(lp2441
I2632
aI2632
ag1858
a(lp2442
g600
ag1858
aaa(lp2443
I2632
aI2632
ag1858
a(lp2444
g1858
ag1858
aaa(lp2445
I2632
aI2632
ag1858
a(lp2446
g2406
ag1858
aaa(lp2447
I2635
aI2635
ag600
a(lp2448
g1858
ag600
aaa(lp2449
I2635
aI2635
ag600
a(lp2450
g2431
ag600
aaa(lp2451
I2635
aI2635
ag600
a(lp2452
g600
ag600
aaa(lp2453
I2635
aI2635
ag600
a(lp2454
g1858
ag600
aaa(lp2455
I2638
aI2647
aS'\xa0infant\xa0'
p2456
a(lp2457
g600
ag2456
aaa(lp2458
I2638
aI2647
ag2456
a(lp2459
g1858
ag2456
aaa(lp2460
I2638
aI2647
ag2456
a(lp2461
g2431
ag2456
aaa(lp2462
I2638
aI2647
ag2456
a(lp2463
g600
ag2456
aaa(lp2464
I2650
aI2661
aS'\xa0child\xa030'
p2465
a(lp2466
g2456
ag2465
aaa(lp2467
I2650
aI2661
ag2465
a(lp2468
g600
ag2465
aaa(lp2469
I2650
aI2661
ag2465
a(lp2470
g1858
ag2465
aaa(lp2471
I2650
aI2661
ag2465
a(lp2472
g2431
ag2465
aaa(lp2473
I2664
aI2678
aS'\xa0preteen\xa030'
p2474
a(lp2475
g2465
ag2474
aaa(lp2476
I2664
aI2678
ag2474
a(lp2477
g2456
ag2474
aaa(lp2478
I2664
aI2678
ag2474
a(lp2479
g600
ag2474
aaa(lp2480
I2664
aI2678
ag2474
a(lp2481
g1858
ag2474
aaa(lp2482
I2681
aI2704
aS'\xa0teenyoung\xa0adult\xa015'
p2483
a(lp2484
g2474
ag2483
aaa(lp2485
I2681
aI2704
ag2483
a(lp2486
g2465
ag2483
aaa(lp2487
I2681
aI2704
ag2483
a(lp2488
g2456
ag2483
aaa(lp2489
I2681
aI2704
ag2483
a(lp2490
g600
ag2483
aaa(lp2491
I2707
aI2718
aS'\xa0adult\xa017'
p2492
a(lp2493
g2483
ag2492
aaa(lp2494
I2707
aI2718
ag2492
a(lp2495
g2474
ag2492
aaa(lp2496
I2707
aI2718
ag2492
a(lp2497
g2465
ag2492
aaa(lp2498
I2707
aI2718
ag2492
a(lp2499
g2456
ag2492
aaa(lp2500
I2721
aI2739
aS'\xa0older\xa0adult\xa010'
p2501
a(lp2502
g2492
ag2501
aaa(lp2503
I2721
aI2739
ag2501
a(lp2504
g2483
ag2501
aaa(lp2505
I2721
aI2739
ag2501
a(lp2506
g2474
ag2501
aaa(lp2507
I2721
aI2739
ag2501
a(lp2508
g2465
ag2501
aaa(lp2509
I2742
aI2742
ag600
a(lp2510
g2501
ag600
aaa(lp2511
I2742
aI2742
ag600
a(lp2512
g2492
ag600
aaa(lp2513
I2742
aI2742
ag600
a(lp2514
g2483
ag600
aaa(lp2515
I2742
aI2742
ag600
a(lp2516
g2474
ag600
aaa(lp2517
I2744
aI2753
aS'disneyland'
p2518
a(lp2519
g600
ag2518
aaa(lp2520
I2744
aI2753
ag2518
a(lp2521
g2501
ag2518
aaa(lp2522
I2744
aI2753
ag2518
a(lp2523
g2492
ag2518
aaa(lp2524
I2744
aI2753
ag2518
a(lp2525
g2483
ag2518
aaa(lp2526
I2744
aI2753
aS'tomorrowland'
p2527
a(lp2528
g2518
ag2527
aaa(lp2529
I2744
aI2753
ag2527
a(lp2530
g600
ag2527
aaa(lp2531
I2744
aI2753
ag2527
a(lp2532
g2501
ag2527
aaa(lp2533
I2744
aI2753
ag2527
a(lp2534
g2492
ag2527
aaasS'wordMap'
p2535
(lp2536
(lp2537
I0
aI4
ag5
a(lp2538
(lp2539
I0
aS'l'
p2540
aa(lp2541
I1
aS'i'
p2542
aa(lp2543
I2
aS'g'
p2544
aa(lp2545
I3
aS'h'
p2546
aa(lp2547
I4
aS't'
p2548
aaaa(lp2549
I6
aI10
ag15
a(lp2550
(lp2551
I6
aS'm'
p2552
aa(lp2553
I7
aS'a'
p2554
aa(lp2555
I8
ag2544
aa(lp2556
I9
ag2542
aa(lp2557
I10
aS'c'
p2558
aaaa(lp2559
I14
aI14
ag2554
a(lp2560
(lp2561
I14
ag2554
aaaa(lp2562
I16
aI26
ag24
a(lp2563
(lp2564
I16
aS's'
p2565
aa(lp2566
I17
aS'p'
p2567
aa(lp2568
I18
aS'e'
p2569
aa(lp2570
I19
ag2558
aa(lp2571
I20
ag2548
aa(lp2572
I21
ag2554
aa(lp2573
I22
ag2558
aa(lp2574
I23
aS'u'
p2575
aa(lp2576
I24
ag2540
aa(lp2577
I25
ag2554
aa(lp2578
I26
aS'r'
p2579
aaaa(lp2580
I28
aI34
ag33
a(lp2581
(lp2582
I28
aS'j'
p2583
aa(lp2584
I29
aS'o'
p2585
aa(lp2586
I30
ag2575
aa(lp2587
I31
ag2579
aa(lp2588
I32
aS'n'
p2589
aa(lp2590
I33
ag2569
aa(lp2591
I34
aS'y'
p2592
aaaa(lp2593
I37
aI39
ag42
a(lp2594
(lp2595
I37
aS'd'
p2596
aa(lp2597
I38
aS'v'
p2598
aa(lp2599
I39
ag2596
aaaa(lp2600
I42
aI43
aS'if'
p2601
a(lp2602
(lp2603
I42
ag2542
aa(lp2604
I43
aS'f'
p2605
aaaa(lp2606
I45
aI49
aS'there'
p2607
a(lp2608
(lp2609
I45
ag2548
aa(lp2610
I46
ag2546
aa(lp2611
I47
ag2569
aa(lp2612
I48
ag2579
aa(lp2613
I49
ag2569
aaaa(lp2614
I51
aI52
aS'is'
p2615
a(lp2616
(lp2617
I51
ag2542
aa(lp2618
I52
ag2565
aaaa(lp2619
I54
aI54
ag2554
a(lp2620
(lp2621
I54
ag2554
aaaa(lp2622
I57
aI60
ag51
a(lp2623
(lp2624
I57
ag2540
aa(lp2625
I58
ag2554
aa(lp2626
I59
ag2589
aa(lp2627
I60
ag2596
aaaa(lp2628
I62
aI63
aS'on'
p2629
a(lp2630
(lp2631
I62
ag2585
aa(lp2632
I63
ag2589
aaaa(lp2633
I65
aI67
aS'the'
p2634
a(lp2635
(lp2636
I65
ag2548
aa(lp2637
I66
ag2546
aa(lp2638
I67
ag2569
aaaa(lp2639
I69
aI72
ag60
a(lp2640
(lp2641
I69
ag2552
aa(lp2642
I70
ag2585
aa(lp2643
I71
ag2598
aa(lp2644
I72
ag2569
aaaa(lp2645
I76
aI77
aS'it'
p2646
a(lp2647
(lp2648
I76
ag2542
aa(lp2649
I77
ag2548
aaaa(lp2650
I79
aI81
aS'has'
p2651
a(lp2652
(lp2653
I79
ag2546
aa(lp2654
I80
ag2554
aa(lp2655
I81
ag2565
aaaa(lp2656
I83
aI84
aS'to'
p2657
a(lp2658
(lp2659
I83
ag2548
aa(lp2660
I84
ag2585
aaaa(lp2661
I86
aI87
aS'be'
p2662
a(lp2663
(lp2664
I86
aS'b'
p2665
aa(lp2666
I87
ag2569
aaaa(lp2667
I89
aI100
ag69
a(lp2668
(lp2669
I89
ag2596
aa(lp2670
I90
ag2542
aa(lp2671
I91
ag2565
aa(lp2672
I92
ag2589
aa(lp2673
I93
ag2569
aa(lp2674
I94
ag2592
aa(lp2675
I95
ag2540
aa(lp2676
I96
ag2554
aa(lp2677
I97
ag2589
aa(lp2678
I98
ag2596
aa(lp2679
I100
ag2565
aaaa(lp2680
I102
aI113
ag78
a(lp2681
(lp2682
I102
ag2548
aa(lp2683
I103
ag2585
aa(lp2684
I104
ag2552
aa(lp2685
I105
ag2585
aa(lp2686
I106
ag2579
aa(lp2687
I107
ag2579
aa(lp2688
I108
ag2585
aa(lp2689
I109
aS'w'
p2690
aa(lp2691
I110
ag2540
aa(lp2692
I111
ag2554
aa(lp2693
I112
ag2589
aa(lp2694
I113
ag2596
aaaa(lp2695
I116
aI119
aS'with'
p2696
a(lp2697
(lp2698
I116
ag2690
aa(lp2699
I117
ag2542
aa(lp2700
I118
ag2548
aa(lp2701
I119
ag2546
aaaa(lp2702
I121
aI124
ag87
a(lp2703
(lp2704
I121
ag2589
aa(lp2705
I122
ag2569
aa(lp2706
I123
ag2585
aa(lp2707
I124
ag2589
aaaa(lp2708
I126
aI131
ag96
a(lp2709
(lp2710
I126
ag2565
aa(lp2711
I127
ag2567
aa(lp2712
I128
ag2542
aa(lp2713
I129
ag2579
aa(lp2714
I130
ag2569
aa(lp2715
I131
ag2565
aaaa(lp2716
I133
aI140
ag105
a(lp2717
(lp2718
I133
ag2579
aa(lp2719
I134
ag2569
aa(lp2720
I135
ag2554
aa(lp2721
I136
ag2558
aa(lp2722
I137
ag2546
aa(lp2723
I138
ag2542
aa(lp2724
I139
ag2589
aa(lp2725
I140
ag2544
aaaa(lp2726
I142
aI145
aS'into'
p2727
a(lp2728
(lp2729
I142
ag2542
aa(lp2730
I143
ag2589
aa(lp2731
I144
ag2548
aa(lp2732
I145
ag2585
aaaa(lp2733
I147
aI149
aS'the'
p2734
a(lp2735
(lp2736
I147
ag2548
aa(lp2737
I148
ag2546
aa(lp2738
I149
ag2569
aaaa(lp2739
I151
aI157
ag114
a(lp2740
(lp2741
I151
ag2565
aa(lp2742
I152
aS'k'
p2743
aa(lp2744
I153
ag2592
aa(lp2745
I154
ag2540
aa(lp2746
I155
ag2542
aa(lp2747
I156
ag2589
aa(lp2748
I157
ag2569
aaaa(lp2749
I159
aI161
aS'and'
p2750
a(lp2751
(lp2752
I159
ag2554
aa(lp2753
I160
ag2589
aa(lp2754
I161
ag2596
aaaa(lp2755
I163
aI165
aS'the'
p2756
a(lp2757
(lp2758
I163
ag2548
aa(lp2759
I164
ag2546
aa(lp2760
I165
ag2569
aaaa(lp2761
I167
aI170
ag123
a(lp2762
(lp2763
I167
ag2579
aa(lp2764
I168
ag2585
aa(lp2765
I169
ag2554
aa(lp2766
I170
ag2579
aaaa(lp2767
I172
aI173
aS'of'
p2768
a(lp2769
(lp2770
I172
ag2585
aa(lp2771
I173
ag2605
aaaa(lp2772
I175
aI184
ag132
a(lp2773
(lp2774
I175
ag2605
aa(lp2775
I176
ag2575
aa(lp2776
I177
ag2548
aa(lp2777
I178
ag2575
aa(lp2778
I179
ag2579
aa(lp2779
I180
ag2542
aa(lp2780
I181
ag2565
aa(lp2781
I182
ag2548
aa(lp2782
I183
ag2542
aa(lp2783
I184
ag2558
aaaa(lp2784
I186
aI193
ag141
a(lp2785
(lp2786
I186
ag2598
aa(lp2787
I187
ag2569
aa(lp2788
I188
ag2546
aa(lp2789
I189
ag2542
aa(lp2790
I190
ag2558
aa(lp2791
I191
ag2540
aa(lp2792
I192
ag2569
aa(lp2793
I193
ag2565
aaaa(lp2794
I195
aI201
ag150
a(lp2795
(lp2796
I195
ag2605
aa(lp2797
I196
ag2542
aa(lp2798
I197
ag2540
aa(lp2799
I198
ag2540
aa(lp2800
I199
ag2542
aa(lp2801
I200
ag2589
aa(lp2802
I201
ag2544
aaaa(lp2803
I203
aI205
aS'the'
p2804
a(lp2805
(lp2806
I203
ag2548
aa(lp2807
I204
ag2546
aa(lp2808
I205
ag2569
aaaa(lp2809
I207
aI209
ag159
a(lp2810
(lp2811
I207
ag2554
aa(lp2812
I208
ag2542
aa(lp2813
I209
ag2579
aaaa(lp2814
I212
aI215
aS'this'
p2815
a(lp2816
(lp2817
I212
ag2548
aa(lp2818
I213
ag2546
aa(lp2819
I214
ag2542
aa(lp2820
I215
ag2565
aaaa(lp2821
I217
aI220
ag168
a(lp2822
(lp2823
I217
ag2540
aa(lp2824
I218
ag2554
aa(lp2825
I219
ag2589
aa(lp2826
I220
ag2596
aaaa(lp2827
I222
aI223
aS'is'
p2828
a(lp2829
(lp2830
I222
ag2542
aa(lp2831
I223
ag2565
aaaa(lp2832
I225
aI225
ag2554
a(lp2833
(lp2834
I225
ag2554
aaaa(lp2835
I227
aI230
ag177
a(lp2836
(lp2837
I227
ag2665
aa(lp2838
I228
ag2575
aa(lp2839
I229
aS'z'
p2840
aa(lp2841
I230
ag2840
aaaa(lp2842
I232
aI233
aS'of'
p2843
a(lp2844
(lp2845
I232
ag2585
aa(lp2846
I233
ag2605
aaaa(lp2847
I235
aI242
ag186
a(lp2848
(lp2849
I235
ag2554
aa(lp2850
I236
ag2558
aa(lp2851
I237
ag2548
aa(lp2852
I238
ag2542
aa(lp2853
I239
ag2598
aa(lp2854
I240
ag2542
aa(lp2855
I241
ag2548
aa(lp2856
I242
ag2592
aaaa(lp2857
I245
aI255
ag195
a(lp2858
(lp2859
I245
ag2540
aa(lp2860
I246
ag2542
aa(lp2861
I247
ag2544
aa(lp2862
I248
ag2546
aa(lp2863
I249
ag2548
aa(lp2864
I251
ag2592
aa(lp2865
I252
ag2569
aa(lp2866
I253
ag2554
aa(lp2867
I254
ag2579
aa(lp2868
I255
ag2565
aaaa(lp2869
I257
aI261
ag204
a(lp2870
(lp2871
I257
ag2554
aa(lp2872
I258
ag2546
aa(lp2873
I259
ag2569
aa(lp2874
I260
ag2554
aa(lp2875
I261
ag2596
aaaa(lp2876
I263
aI264
aS'of'
p2877
a(lp2878
(lp2879
I263
ag2585
aa(lp2880
I264
ag2605
aaaa(lp2881
I266
aI268
aS'the'
p2882
a(lp2883
(lp2884
I266
ag2548
aa(lp2885
I267
ag2546
aa(lp2886
I268
ag2569
aaaa(lp2887
I270
aI273
ag213
a(lp2888
(lp2889
I270
ag2579
aa(lp2890
I271
ag2569
aa(lp2891
I272
ag2565
aa(lp2892
I273
ag2548
aaaa(lp2893
I276
aI283
ag222
a(lp2894
(lp2895
I276
ag2596
aa(lp2896
I277
ag2569
aa(lp2897
I278
ag2565
aa(lp2898
I279
ag2542
aa(lp2899
I280
ag2544
aa(lp2900
I281
ag2589
aa(lp2901
I282
ag2569
aa(lp2902
I283
ag2596
aaaa(lp2903
I285
aI286
aS'to'
p2904
a(lp2905
(lp2906
I285
ag2548
aa(lp2907
I286
ag2585
aaaa(lp2908
I288
aI289
aS'be'
p2909
a(lp2910
(lp2911
I288
ag2665
aa(lp2912
I289
ag2569
aaaa(lp2913
I291
aI300
ag231
a(lp2914
(lp2915
I291
ag2605
aa(lp2916
I292
ag2575
aa(lp2917
I293
ag2548
aa(lp2918
I294
ag2575
aa(lp2919
I295
ag2579
aa(lp2920
I296
ag2542
aa(lp2921
I297
ag2565
aa(lp2922
I298
ag2548
aa(lp2923
I299
ag2542
aa(lp2924
I300
ag2558
aaaa(lp2925
I302
aI304
aS'but'
p2926
a(lp2927
(lp2928
I302
ag2665
aa(lp2929
I303
ag2575
aa(lp2930
I304
ag2548
aaaa(lp2931
I306
aI307
aS'at'
p2932
a(lp2933
(lp2934
I306
ag2554
aa(lp2935
I307
ag2548
aaaa(lp2936
I309
aI311
aS'the'
p2937
a(lp2938
(lp2939
I309
ag2548
aa(lp2940
I310
ag2546
aa(lp2941
I311
ag2569
aaaa(lp2942
I313
aI316
aS'same'
p2943
a(lp2944
(lp2945
I313
ag2565
aa(lp2946
I314
ag2554
aa(lp2947
I315
ag2552
aa(lp2948
I316
ag2569
aaaa(lp2949
I318
aI321
ag240
a(lp2950
(lp2951
I318
ag2548
aa(lp2952
I319
ag2542
aa(lp2953
I320
ag2552
aa(lp2954
I321
ag2569
aaaa(lp2955
I324
aI333
ag249
a(lp2956
(lp2957
I324
ag2558
aa(lp2958
I325
ag2585
aa(lp2959
I326
ag2552
aa(lp2960
I327
ag2567
aa(lp2961
I328
ag2540
aa(lp2962
I329
ag2569
aa(lp2963
I330
ag2548
aa(lp2964
I331
ag2569
aa(lp2965
I332
ag2540
aa(lp2966
I333
ag2592
aaaa(lp2967
I335
aI347
ag258
a(lp2968
(lp2969
I335
ag2596
aa(lp2970
I336
ag2585
aa(lp2971
I337
ag2690
aa(lp2972
I338
ag2589
aa(lp2973
I340
ag2548
aa(lp2974
I341
ag2585
aa(lp2975
I343
ag2569
aa(lp2976
I344
ag2554
aa(lp2977
I345
ag2579
aa(lp2978
I346
ag2548
aa(lp2979
I347
ag2546
aaaa(lp2980
I349
aI350
aS'in'
p2981
a(lp2982
(lp2983
I349
ag2542
aa(lp2984
I350
ag2589
aaaa(lp2985
I352
aI362
ag267
a(lp2986
(lp2987
I352
ag2540
aa(lp2988
I353
ag2554
aa(lp2989
I354
ag2589
aa(lp2990
I355
ag2596
aa(lp2991
I356
ag2565
aa(lp2992
I357
ag2558
aa(lp2993
I358
ag2554
aa(lp2994
I359
ag2567
aa(lp2995
I360
ag2542
aa(lp2996
I361
ag2589
aa(lp2997
I362
ag2544
aaaa(lp2998
I365
aI369
ag276
a(lp2999
(lp3000
I365
ag2569
aa(lp3001
I366
ag2598
aa(lp3002
I367
ag2569
aa(lp3003
I368
ag2579
aa(lp3004
I369
ag2592
aaaa(lp3005
I371
aI377
ag285
a(lp3006
(lp3007
I371
ag2569
aa(lp3008
I372
ag2540
aa(lp3009
I373
ag2569
aa(lp3010
I374
ag2552
aa(lp3011
I375
ag2569
aa(lp3012
I376
ag2589
aa(lp3013
I377
ag2548
aaaa(lp3014
I379
aI382
ag294
a(lp3015
(lp3016
I379
ag2575
aa(lp3017
I380
ag2565
aa(lp3018
I381
ag2569
aa(lp3019
I382
ag2596
aaaa(lp3020
I384
aI385
aS'in'
p3021
a(lp3022
(lp3023
I384
ag2542
aa(lp3024
I385
ag2589
aaaa(lp3025
I387
aI389
aS'the'
p3026
a(lp3027
(lp3028
I387
ag2548
aa(lp3029
I388
ag2546
aa(lp3030
I389
ag2569
aaaa(lp3031
I391
aI396
ag303
a(lp3032
(lp3033
I391
ag2554
aa(lp3034
I392
ag2579
aa(lp3035
I393
ag2569
aa(lp3036
I394
ag2554
aa(lp3037
I396
ag2565
aaaa(lp3038
I398
aI406
ag312
a(lp3039
(lp3040
I398
ag2540
aa(lp3041
I399
ag2554
aa(lp3042
I400
ag2589
aa(lp3043
I401
ag2596
aa(lp3044
I402
ag2565
aa(lp3045
I403
ag2558
aa(lp3046
I404
ag2554
aa(lp3047
I405
ag2567
aa(lp3048
I406
ag2569
aaaa(lp3049
I408
aI409
aS'is'
p3050
a(lp3051
(lp3052
I408
ag2542
aa(lp3053
I409
ag2565
aaaa(lp3054
I411
aI416
ag321
a(lp3055
(lp3056
I411
ag2569
aa(lp3057
I412
ag2596
aa(lp3058
I413
ag2542
aa(lp3059
I414
ag2665
aa(lp3060
I415
ag2540
aa(lp3061
I416
ag2569
aaaa(lp3062
I419
aI421
aS'and'
p3063
a(lp3064
(lp3065
I419
ag2554
aa(lp3066
I420
ag2589
aa(lp3067
I421
ag2596
aaaa(lp3068
I423
aI432
ag330
a(lp3069
(lp3070
I423
ag2567
aa(lp3071
I424
ag2579
aa(lp3072
I425
ag2585
aa(lp3073
I426
ag2596
aa(lp3074
I427
ag2575
aa(lp3075
I428
ag2558
aa(lp3076
I429
ag2548
aa(lp3077
I430
ag2542
aa(lp3078
I431
ag2598
aa(lp3079
I432
ag2569
aaaa(lp3080
I435
aI446
ag339
a(lp3081
(lp3082
I435
ag2548
aa(lp3083
I436
ag2585
aa(lp3084
I437
ag2552
aa(lp3085
I438
ag2585
aa(lp3086
I439
ag2579
aa(lp3087
I440
ag2579
aa(lp3088
I441
ag2585
aa(lp3089
I442
ag2690
aa(lp3090
I443
ag2540
aa(lp3091
I444
ag2554
aa(lp3092
I445
ag2589
aa(lp3093
I446
ag2596
aaaa(lp3094
I448
aI449
aS'is'
p3095
a(lp3096
(lp3097
I448
ag2542
aa(lp3098
I449
ag2565
aaaa(lp3099
I451
aI452
aS'an'
p3100
a(lp3101
(lp3102
I451
ag2554
aa(lp3103
I452
ag2589
aaaa(lp3104
I454
aI461
ag348
a(lp3105
(lp3106
I454
ag2585
aa(lp3107
I455
ag2589
aa(lp3108
I457
ag2544
aa(lp3109
I458
ag2585
aa(lp3110
I459
ag2542
aa(lp3111
I460
ag2589
aa(lp3112
I461
ag2544
aaaa(lp3113
I463
aI472
ag357
a(lp3114
(lp3115
I463
ag2569
aa(lp3116
I464
aS'x'
p3117
aa(lp3118
I465
ag2567
aa(lp3119
I466
ag2569
aa(lp3120
I467
ag2579
aa(lp3121
I468
ag2542
aa(lp3122
I469
ag2552
aa(lp3123
I470
ag2569
aa(lp3124
I471
ag2589
aa(lp3125
I472
ag2548
aaaa(lp3126
I474
aI477
aS'that'
p3127
a(lp3128
(lp3129
I474
ag2548
aa(lp3130
I475
ag2546
aa(lp3131
I476
ag2554
aa(lp3132
I477
ag2548
aaaa(lp3133
I479
aI483
ag366
a(lp3134
(lp3135
I479
ag2540
aa(lp3136
I480
ag2585
aa(lp3137
I481
ag2585
aa(lp3138
I482
ag2743
aa(lp3139
I483
ag2565
aaaa(lp3140
I485
aI486
aS'to'
p3141
a(lp3142
(lp3143
I485
ag2548
aa(lp3144
I486
ag2585
aaaa(lp3145
I488
aI490
aS'the'
p3146
a(lp3147
(lp3148
I488
ag2548
aa(lp3149
I489
ag2546
aa(lp3150
I490
ag2569
aaaa(lp3151
I492
aI497
ag375
a(lp3152
(lp3153
I492
ag2558
aa(lp3154
I493
ag2585
aa(lp3155
I494
ag2552
aa(lp3156
I495
ag2542
aa(lp3157
I496
ag2589
aa(lp3158
I497
ag2544
aaaa(lp3159
I499
aI507
ag384
a(lp3160
(lp3161
I499
ag2558
aa(lp3162
I500
ag2569
aa(lp3163
I501
ag2589
aa(lp3164
I502
ag2548
aa(lp3165
I503
ag2575
aa(lp3166
I504
ag2579
aa(lp3167
I505
ag2542
aa(lp3168
I506
ag2569
aa(lp3169
I507
ag2565
aaaa(lp3170
I509
aI510
aS'we'
p3171
a(lp3172
(lp3173
I509
ag2690
aa(lp3174
I510
ag2569
aaaa(lp3175
I512
aI516
ag393
a(lp3176
(lp3177
I512
ag2565
aa(lp3178
I513
ag2548
aa(lp3179
I514
ag2554
aa(lp3180
I515
ag2589
aa(lp3181
I516
ag2596
aaaa(lp3182
I518
aI519
aS'to'
p3183
a(lp3184
(lp3185
I518
ag2548
aa(lp3186
I519
ag2585
aaaa(lp3187
I521
aI524
ag402
a(lp3188
(lp3189
I521
ag2605
aa(lp3190
I522
ag2554
aa(lp3191
I523
ag2558
aa(lp3192
I524
ag2569
aaaa(lp3193
I526
aI527
aS'as'
p3194
a(lp3195
(lp3196
I526
ag2554
aa(lp3197
I527
ag2565
aaaa(lp3198
I529
aI532
ag411
a(lp3199
(lp3200
I529
ag2690
aa(lp3201
I530
ag2569
aa(lp3202
I531
ag2540
aa(lp3203
I532
ag2540
aaaa(lp3204
I534
aI535
aS'as'
p3205
a(lp3206
(lp3207
I534
ag2554
aa(lp3208
I535
ag2565
aaaa(lp3209
I537
aI543
ag420
a(lp3210
(lp3211
I537
ag2565
aa(lp3212
I538
ag2554
aa(lp3213
I539
ag2540
aa(lp3214
I540
ag2575
aa(lp3215
I541
ag2548
aa(lp3216
I542
ag2569
aa(lp3217
I543
ag2565
aaaa(lp3218
I545
aI547
aS'the'
p3219
a(lp3220
(lp3221
I545
ag2548
aa(lp3222
I546
ag2546
aa(lp3223
I547
ag2569
aaaa(lp3224
I549
aI563
ag429
a(lp3225
(lp3226
I549
ag2554
aa(lp3227
I550
ag2558
aa(lp3228
I551
ag2558
aa(lp3229
I552
ag2585
aa(lp3230
I553
ag2552
aa(lp3231
I554
ag2567
aa(lp3232
I555
ag2540
aa(lp3233
I556
ag2542
aa(lp3234
I557
ag2565
aa(lp3235
I558
ag2546
aa(lp3236
I559
ag2552
aa(lp3237
I560
ag2569
aa(lp3238
I561
ag2589
aa(lp3239
I562
ag2548
aa(lp3240
I563
ag2565
aaaa(lp3241
I565
aI569
ag438
a(lp3242
(lp3243
I565
ag2690
aa(lp3244
I566
ag2569
aa(lp3245
I568
ag2598
aa(lp3246
I569
ag2569
aaaa(lp3247
I571
aI577
ag447
a(lp3248
(lp3249
I571
ag2554
aa(lp3250
I572
ag2540
aa(lp3251
I573
ag2579
aa(lp3252
I574
ag2569
aa(lp3253
I575
ag2554
aa(lp3254
I576
ag2596
aa(lp3255
I577
ag2592
aaaa(lp3256
I579
aI585
ag456
a(lp3257
(lp3258
I579
ag2569
aa(lp3259
I580
ag2589
aa(lp3260
I581
ag2583
aa(lp3261
I582
ag2585
aa(lp3262
I583
ag2592
aa(lp3263
I584
ag2569
aa(lp3264
I585
ag2596
aaaa(lp3265
I588
aI594
ag465
a(lp3266
(lp3267
I588
ag2548
aa(lp3268
I589
ag2546
aa(lp3269
I590
ag2569
aa(lp3270
I591
ag2579
aa(lp3271
I592
ag2569
aa(lp3272
I594
ag2565
aaaa(lp3273
I596
aI596
ag2554
a(lp3274
(lp3275
I596
ag2554
aaaa(lp3276
I598
aI602
ag474
a(lp3277
(lp3278
I598
ag2544
aa(lp3279
I599
ag2579
aa(lp3280
I600
ag2569
aa(lp3281
I601
ag2554
aa(lp3282
I602
ag2548
aaaa(lp3283
I604
aI606
ag483
a(lp3284
(lp3285
I604
ag2665
aa(lp3286
I605
ag2542
aa(lp3287
I606
ag2544
aaaa(lp3288
I609
aI617
ag492
a(lp3289
(lp3290
I609
ag2665
aa(lp3291
I610
ag2569
aa(lp3292
I611
ag2554
aa(lp3293
I612
ag2575
aa(lp3294
I613
ag2548
aa(lp3295
I614
ag2542
aa(lp3296
I615
ag2605
aa(lp3297
I616
ag2575
aa(lp3298
I617
ag2540
aaaa(lp3299
I619
aI626
ag501
a(lp3300
(lp3301
I619
ag2548
aa(lp3302
I620
ag2585
aa(lp3303
I621
ag2552
aa(lp3304
I622
ag2585
aa(lp3305
I623
ag2579
aa(lp3306
I624
ag2579
aa(lp3307
I625
ag2585
aa(lp3308
I626
ag2690
aaaa(lp3309
I628
aI630
aS'for'
p3310
a(lp3311
(lp3312
I628
ag2605
aa(lp3313
I629
ag2585
aa(lp3314
I630
ag2579
aaaa(lp3315
I632
aI634
aS'all'
p3316
a(lp3317
(lp3318
I632
ag2554
aa(lp3319
I633
ag2540
aa(lp3320
I634
ag2540
aaaa(lp3321
I636
aI637
aS'of'
p3322
a(lp3323
(lp3324
I636
ag2585
aa(lp3325
I637
ag2605
aaaa(lp3326
I639
aI640
ag510
a(lp3327
(lp3328
I639
ag2575
aa(lp3329
I640
ag2565
aaaa(lp3330
I643
aI646
aS'this'
p3331
a(lp3332
(lp3333
I643
ag2548
aa(lp3334
I644
ag2546
aa(lp3335
I645
ag2542
aa(lp3336
I646
ag2565
aaaa(lp3337
I648
aI651
aS'very'
p3338
a(lp3339
(lp3340
I648
ag2598
aa(lp3341
I649
ag2569
aa(lp3342
I650
ag2579
aa(lp3343
I651
ag2592
aaaa(lp3344
I653
aI659
ag519
a(lp3345
(lp3346
I653
ag2567
aa(lp3347
I654
ag2585
aa(lp3348
I655
ag2567
aa(lp3349
I656
ag2575
aa(lp3350
I657
ag2540
aa(lp3351
I658
ag2554
aa(lp3352
I659
ag2579
aaaa(lp3353
I661
aI664
ag528
a(lp3354
(lp3355
I661
ag2540
aa(lp3356
I662
ag2554
aa(lp3357
I663
ag2589
aa(lp3358
I664
ag2596
aaaa(lp3359
I666
aI667
aS'is'
p3360
a(lp3361
(lp3362
I666
ag2542
aa(lp3363
I667
ag2565
aaaa(lp3364
I669
aI669
ag2554
a(lp3365
(lp3366
I669
ag2554
aaaa(lp3367
I671
aI682
ag537
a(lp3368
(lp3369
I671
ag2596
aa(lp3370
I672
ag2542
aa(lp3371
I673
ag2565
aa(lp3372
I674
ag2589
aa(lp3373
I675
ag2569
aa(lp3374
I676
ag2592
aa(lp3375
I678
ag2565
aa(lp3376
I679
ag2548
aa(lp3377
I680
ag2592
aa(lp3378
I681
ag2540
aa(lp3379
I682
ag2569
aaaa(lp3380
I684
aI691
ag546
a(lp3381
(lp3382
I684
ag2565
aa(lp3383
I685
ag2554
aa(lp3384
I686
ag2552
aa(lp3385
I687
ag2567
aa(lp3386
I688
ag2540
aa(lp3387
I689
ag2542
aa(lp3388
I690
ag2589
aa(lp3389
I691
ag2544
aaaa(lp3390
I693
aI694
aS'of'
p3391
a(lp3392
(lp3393
I693
ag2585
aa(lp3394
I694
ag2605
aaaa(lp3395
I696
aI699
aS'that'
p3396
a(lp3397
(lp3398
I696
ag2548
aa(lp3399
I697
ag2546
aa(lp3400
I698
ag2554
aa(lp3401
I699
ag2548
aaaa(lp3402
I701
aI703
ag555
a(lp3403
(lp3404
I701
ag2596
aa(lp3405
I702
ag2554
aa(lp3406
I703
ag2592
aaaa(lp3407
I705
aI707
aS'and'
p3408
a(lp3409
(lp3410
I705
ag2554
aa(lp3411
I706
ag2589
aa(lp3412
I707
ag2596
aaaa(lp3413
I709
aI711
ag564
a(lp3414
(lp3415
I709
ag2554
aa(lp3416
I710
ag2544
aa(lp3417
I711
ag2569
aaaa(lp3418
I715
aI722
ag573
a(lp3419
(lp3420
I715
ag600
aa(lp3421
I716
ag2548
aa(lp3422
I717
ag2546
aa(lp3423
I718
ag2569
aa(lp3424
I719
ag2554
aa(lp3425
I720
ag2548
aa(lp3426
I721
ag2569
aa(lp3427
I722
ag2579
aaaa(lp3428
I724
aI735
ag582
a(lp3429
(lp3430
I724
ag2567
aa(lp3431
I725
ag2579
aa(lp3432
I726
ag2569
aa(lp3433
I727
ag2565
aa(lp3434
I728
ag2569
aa(lp3435
I729
ag2589
aa(lp3436
I730
ag2548
aa(lp3437
I731
ag2554
aa(lp3438
I732
ag2548
aa(lp3439
I733
ag2542
aa(lp3440
I734
ag2585
aa(lp3441
I735
ag2589
aaaa(lp3442
I738
aI747
ag591
a(lp3443
(lp3444
I738
ag2558
aa(lp3445
I739
ag2585
aa(lp3446
I740
ag2589
aa(lp3447
I741
ag2548
aa(lp3448
I742
ag2542
aa(lp3449
I743
ag2589
aa(lp3450
I744
ag2575
aa(lp3451
I745
ag2585
aa(lp3452
I746
ag2575
aa(lp3453
I747
ag2565
aaaa(lp3454
I750
aI751
aS'no'
p3455
a(lp3456
(lp3457
I750
ag2589
aa(lp3458
I751
ag2585
aaaa(lp3459
I754
aI754
ag600
a(lp3460
(lp3461
I754
ag600
aaaa(lp3462
I756
aI761
ag609
a(lp3463
(lp3464
I756
ag2548
aa(lp3465
I757
ag2546
aa(lp3466
I758
ag2579
aa(lp3467
I759
ag2542
aa(lp3468
I760
ag2540
aa(lp3469
I761
ag2540
aaaa(lp3470
I765
aI765
ag618
a(lp3471
(lp3472
I765
ag618
aaaa(lp3473
I768
aI768
ag600
a(lp3474
(lp3475
I768
ag600
aaaa(lp3476
I770
aI774
ag635
a(lp3477
(lp3478
I770
ag2548
aa(lp3479
I771
ag2546
aa(lp3480
I772
ag2569
aa(lp3481
I773
ag2552
aa(lp3482
I774
ag2569
aaaa(lp3483
I778
aI778
ag644
a(lp3484
(lp3485
I778
ag644
aaaa(lp3486
I781
aI781
ag600
a(lp3487
(lp3488
I781
ag600
aaaa(lp3489
I784
aI793
ag661
a(lp3490
(lp3491
I784
ag600
aa(lp3492
I785
ag2542
aa(lp3493
I786
ag2589
aa(lp3494
I787
ag2605
aa(lp3495
I788
ag2554
aa(lp3496
I789
ag2589
aa(lp3497
I790
ag2548
aa(lp3498
I793
ag600
aaaa(lp3499
I796
aI807
ag670
a(lp3500
(lp3501
I796
ag600
aa(lp3502
I797
ag2558
aa(lp3503
I798
ag2546
aa(lp3504
I799
ag2542
aa(lp3505
I800
ag2540
aa(lp3506
I801
ag2596
aa(lp3507
I804
ag600
aa(lp3508
I805
ag1858
aa(lp3509
I807
aS'4'
p3510
aaaa(lp3511
I810
aI824
ag679
a(lp3512
(lp3513
I810
ag600
aa(lp3514
I811
ag2567
aa(lp3515
I812
ag2579
aa(lp3516
I813
ag2569
aa(lp3517
I815
ag2548
aa(lp3518
I816
ag2569
aa(lp3519
I817
ag2569
aa(lp3520
I818
ag2589
aa(lp3521
I821
ag600
aa(lp3522
I822
ag1858
aa(lp3523
I824
ag3510
aaaa(lp3524
I827
aI850
ag688
a(lp3525
(lp3526
I827
ag600
aa(lp3527
I828
ag2548
aa(lp3528
I829
ag2569
aa(lp3529
I830
ag2569
aa(lp3530
I831
ag2589
aa(lp3531
I833
ag2592
aa(lp3532
I834
ag2585
aa(lp3533
I835
ag2575
aa(lp3534
I836
ag2589
aa(lp3535
I837
ag2544
aa(lp3536
I839
ag600
aa(lp3537
I840
ag2554
aa(lp3538
I841
ag2596
aa(lp3539
I842
ag2575
aa(lp3540
I843
ag2540
aa(lp3541
I844
ag2548
aa(lp3542
I847
ag600
aa(lp3543
I848
ag1858
aa(lp3544
I850
aS'0'
p3545
aaaa(lp3546
I853
aI864
ag697
a(lp3547
(lp3548
I853
ag600
aa(lp3549
I854
ag2554
aa(lp3550
I855
ag2596
aa(lp3551
I856
ag2575
aa(lp3552
I857
ag2540
aa(lp3553
I858
ag2548
aa(lp3554
I861
ag600
aa(lp3555
I862
ag1858
aa(lp3556
I864
ag644
aaaa(lp3557
I867
aI885
ag706
a(lp3558
(lp3559
I867
ag600
aa(lp3560
I868
ag2585
aa(lp3561
I869
ag2540
aa(lp3562
I870
ag2596
aa(lp3563
I871
ag2569
aa(lp3564
I872
ag2579
aa(lp3565
I874
ag600
aa(lp3566
I875
ag2554
aa(lp3567
I876
ag2596
aa(lp3568
I877
ag2575
aa(lp3569
I878
ag2540
aa(lp3570
I879
ag2548
aa(lp3571
I882
ag600
aa(lp3572
I883
ag1858
aa(lp3573
I885
ag3545
aaaa(lp3574
I888
aI888
ag600
a(lp3575
(lp3576
I888
ag600
aaaa(lp3577
I891
aI899
ag723
a(lp3578
(lp3579
I891
ag600
aa(lp3580
I892
ag2565
aa(lp3581
I893
ag2567
aa(lp3582
I894
ag2542
aa(lp3583
I895
ag2589
aa(lp3584
I896
ag2589
aa(lp3585
I897
ag2542
aa(lp3586
I898
ag2589
aa(lp3587
I899
ag2544
aaaa(lp3588
I901
aI904
ag732
a(lp3589
(lp3590
I901
ag2579
aa(lp3591
I902
ag2542
aa(lp3592
I903
ag2596
aa(lp3593
I904
ag2569
aaaa(lp3594
I906
aI907
aS'no'
p3595
a(lp3596
(lp3597
I906
ag2589
aa(lp3598
I907
ag2585
aaaa(lp3599
I910
aI910
ag600
a(lp3600
(lp3601
I910
ag600
aaaa(lp3602
I912
aI917
ag749
a(lp3603
(lp3604
I912
ag2548
aa(lp3605
I913
ag2546
aa(lp3606
I914
ag2579
aa(lp3607
I915
ag2542
aa(lp3608
I916
ag2540
aa(lp3609
I917
ag2540
aaaa(lp3610
I921
aI921
ag644
a(lp3611
(lp3612
I921
ag644
aaaa(lp3613
I924
aI924
ag600
a(lp3614
(lp3615
I924
ag600
aaaa(lp3616
I926
aI930
ag774
a(lp3617
(lp3618
I926
ag2548
aa(lp3619
I927
ag2546
aa(lp3620
I928
ag2569
aa(lp3621
I929
ag2552
aa(lp3622
I930
ag2569
aaaa(lp3623
I933
aI935
ag783
a(lp3624
(lp3625
I933
ag1832
aa(lp3626
I935
ag3545
aaaa(lp3627
I938
aI938
ag600
a(lp3628
(lp3629
I938
ag600
aaaa(lp3630
I941
aI950
ag800
a(lp3631
(lp3632
I941
ag600
aa(lp3633
I942
ag2542
aa(lp3634
I943
ag2589
aa(lp3635
I944
ag2605
aa(lp3636
I945
ag2554
aa(lp3637
I946
ag2589
aa(lp3638
I947
ag2548
aa(lp3639
I950
ag600
aaaa(lp3640
I953
aI964
ag809
a(lp3641
(lp3642
I953
ag600
aa(lp3643
I954
ag2558
aa(lp3644
I955
ag2546
aa(lp3645
I956
ag2542
aa(lp3646
I957
ag2540
aa(lp3647
I958
ag2596
aa(lp3648
I961
ag600
aa(lp3649
I962
ag1858
aa(lp3650
I964
ag3545
aaaa(lp3651
I967
aI981
ag818
a(lp3652
(lp3653
I967
ag600
aa(lp3654
I968
ag2567
aa(lp3655
I969
ag2579
aa(lp3656
I970
ag2569
aa(lp3657
I972
ag2548
aa(lp3658
I973
ag2569
aa(lp3659
I974
ag2569
aa(lp3660
I975
ag2589
aa(lp3661
I978
ag600
aa(lp3662
I979
ag1858
aa(lp3663
I981
ag1858
aaaa(lp3664
I984
aI1007
ag827
a(lp3665
(lp3666
I984
ag600
aa(lp3667
I985
ag2548
aa(lp3668
I986
ag2569
aa(lp3669
I987
ag2569
aa(lp3670
I988
ag2589
aa(lp3671
I990
ag2592
aa(lp3672
I991
ag2585
aa(lp3673
I992
ag2575
aa(lp3674
I993
ag2589
aa(lp3675
I994
ag2544
aa(lp3676
I996
ag600
aa(lp3677
I997
ag2554
aa(lp3678
I998
ag2596
aa(lp3679
I999
ag2575
aa(lp3680
I1000
ag2540
aa(lp3681
I1001
ag2548
aa(lp3682
I1004
ag600
aa(lp3683
I1005
ag1884
aa(lp3684
I1007
ag1858
aaaa(lp3685
I1010
aI1021
ag836
a(lp3686
(lp3687
I1010
ag600
aa(lp3688
I1011
ag2554
aa(lp3689
I1012
ag2596
aa(lp3690
I1013
ag2575
aa(lp3691
I1014
ag2540
aa(lp3692
I1015
ag2548
aa(lp3693
I1018
ag600
aa(lp3694
I1019
ag1884
aa(lp3695
I1021
aS'6'
p3696
aaaa(lp3697
I1024
aI1042
ag845
a(lp3698
(lp3699
I1024
ag600
aa(lp3700
I1025
ag2585
aa(lp3701
I1026
ag2540
aa(lp3702
I1027
ag2596
aa(lp3703
I1028
ag2569
aa(lp3704
I1029
ag2579
aa(lp3705
I1031
ag600
aa(lp3706
I1032
ag2554
aa(lp3707
I1033
ag2596
aa(lp3708
I1034
ag2575
aa(lp3709
I1035
ag2540
aa(lp3710
I1036
ag2548
aa(lp3711
I1039
ag600
aa(lp3712
I1040
ag1884
aa(lp3713
I1042
ag3545
aaaa(lp3714
I1045
aI1045
ag600
a(lp3715
(lp3716
I1045
ag600
aaaa(lp3717
I1048
aI1052
ag862
a(lp3718
(lp3719
I1048
ag600
aa(lp3720
I1049
ag2565
aa(lp3721
I1050
ag2540
aa(lp3722
I1051
ag2585
aa(lp3723
I1052
ag2690
aaaa(lp3724
I1054
aI1059
ag871
a(lp3725
(lp3726
I1054
ag2552
aa(lp3727
I1055
ag2585
aa(lp3728
I1056
ag2598
aa(lp3729
I1057
ag2542
aa(lp3730
I1058
ag2589
aa(lp3731
I1059
ag2544
aaaa(lp3732
I1061
aI1063
ag880
a(lp3733
(lp3734
I1061
ag2558
aa(lp3735
I1062
ag2554
aa(lp3736
I1063
ag2579
aaaa(lp3737
I1065
aI1067
ag889
a(lp3738
(lp3739
I1065
ag2592
aa(lp3740
I1066
ag2569
aa(lp3741
I1067
ag2565
aaaa(lp3742
I1070
aI1070
ag600
a(lp3743
(lp3744
I1070
ag600
aaaa(lp3745
I1072
aI1077
ag906
a(lp3746
(lp3747
I1072
ag2548
aa(lp3748
I1073
ag2546
aa(lp3749
I1074
ag2579
aa(lp3750
I1075
ag2542
aa(lp3751
I1076
ag2540
aa(lp3752
I1077
ag2540
aaaa(lp3753
I1081
aI1081
ag618
a(lp3754
(lp3755
I1081
ag618
aaaa(lp3756
I1084
aI1084
ag600
a(lp3757
(lp3758
I1084
ag600
aaaa(lp3759
I1086
aI1090
ag931
a(lp3760
(lp3761
I1086
ag2548
aa(lp3762
I1087
ag2546
aa(lp3763
I1088
ag2569
aa(lp3764
I1089
ag2552
aa(lp3765
I1090
ag2569
aaaa(lp3766
I1094
aI1094
ag618
a(lp3767
(lp3768
I1094
ag618
aaaa(lp3769
I1097
aI1097
ag600
a(lp3770
(lp3771
I1097
ag600
aaaa(lp3772
I1100
aI1109
ag956
a(lp3773
(lp3774
I1100
ag600
aa(lp3775
I1101
ag2542
aa(lp3776
I1102
ag2589
aa(lp3777
I1103
ag2605
aa(lp3778
I1104
ag2554
aa(lp3779
I1105
ag2589
aa(lp3780
I1106
ag2548
aa(lp3781
I1109
ag600
aaaa(lp3782
I1112
aI1123
ag965
a(lp3783
(lp3784
I1112
ag600
aa(lp3785
I1113
ag2558
aa(lp3786
I1114
ag2546
aa(lp3787
I1115
ag2542
aa(lp3788
I1116
ag2540
aa(lp3789
I1117
ag2596
aa(lp3790
I1120
ag600
aa(lp3791
I1121
ag1858
aa(lp3792
I1123
aS'9'
p3793
aaaa(lp3794
I1126
aI1140
ag974
a(lp3795
(lp3796
I1126
ag600
aa(lp3797
I1127
ag2567
aa(lp3798
I1128
ag2579
aa(lp3799
I1129
ag2569
aa(lp3800
I1131
ag2548
aa(lp3801
I1132
ag2569
aa(lp3802
I1133
ag2569
aa(lp3803
I1134
ag2589
aa(lp3804
I1137
ag600
aa(lp3805
I1138
ag1858
aa(lp3806
I1140
ag618
aaaa(lp3807
I1143
aI1166
ag983
a(lp3808
(lp3809
I1143
ag600
aa(lp3810
I1144
ag2548
aa(lp3811
I1145
ag2569
aa(lp3812
I1146
ag2569
aa(lp3813
I1147
ag2589
aa(lp3814
I1149
ag2592
aa(lp3815
I1150
ag2585
aa(lp3816
I1151
ag2575
aa(lp3817
I1152
ag2589
aa(lp3818
I1153
ag2544
aa(lp3819
I1155
ag600
aa(lp3820
I1156
ag2554
aa(lp3821
I1157
ag2596
aa(lp3822
I1158
ag2575
aa(lp3823
I1159
ag2540
aa(lp3824
I1160
ag2548
aa(lp3825
I1163
ag600
aa(lp3826
I1164
ag1858
aa(lp3827
I1166
ag1858
aaaa(lp3828
I1169
aI1180
ag992
a(lp3829
(lp3830
I1169
ag600
aa(lp3831
I1170
ag2554
aa(lp3832
I1171
ag2596
aa(lp3833
I1172
ag2575
aa(lp3834
I1173
ag2540
aa(lp3835
I1174
ag2548
aa(lp3836
I1177
ag600
aa(lp3837
I1178
ag1858
aa(lp3838
I1180
ag1858
aaaa(lp3839
I1183
aI1201
ag1001
a(lp3840
(lp3841
I1183
ag600
aa(lp3842
I1184
ag2585
aa(lp3843
I1185
ag2540
aa(lp3844
I1186
ag2596
aa(lp3845
I1187
ag2569
aa(lp3846
I1188
ag2579
aa(lp3847
I1190
ag600
aa(lp3848
I1191
ag2554
aa(lp3849
I1192
ag2596
aa(lp3850
I1193
ag2575
aa(lp3851
I1194
ag2540
aa(lp3852
I1195
ag2548
aa(lp3853
I1198
ag600
aa(lp3854
I1199
ag3510
aa(lp3855
I1201
ag3545
aaaa(lp3856
I1204
aI1204
ag600
a(lp3857
(lp3858
I1204
ag600
aaaa(lp3859
I1207
aI1211
ag1018
a(lp3860
(lp3861
I1207
ag600
aa(lp3862
I1208
ag2565
aa(lp3863
I1209
ag2540
aa(lp3864
I1210
ag2585
aa(lp3865
I1211
ag2690
aaaa(lp3866
I1213
aI1218
ag1027
a(lp3867
(lp3868
I1213
ag2552
aa(lp3869
I1214
ag2585
aa(lp3870
I1215
ag2598
aa(lp3871
I1216
ag2542
aa(lp3872
I1217
ag2589
aa(lp3873
I1218
ag2544
aaaa(lp3874
I1220
aI1222
ag1036
a(lp3875
(lp3876
I1220
ag2558
aa(lp3877
I1221
ag2554
aa(lp3878
I1222
ag2579
aaaa(lp3879
I1224
aI1226
ag1045
a(lp3880
(lp3881
I1224
ag2592
aa(lp3882
I1225
ag2569
aa(lp3883
I1226
ag2565
aaaa(lp3884
I1229
aI1229
ag600
a(lp3885
(lp3886
I1229
ag600
aaaa(lp3887
I1231
aI1236
ag1062
a(lp3888
(lp3889
I1231
ag2548
aa(lp3890
I1232
ag2546
aa(lp3891
I1233
ag2579
aa(lp3892
I1234
ag2542
aa(lp3893
I1235
ag2540
aa(lp3894
I1236
ag2540
aaaa(lp3895
I1239
aI1241
ag1071
a(lp3896
(lp3897
I1239
ag1858
aa(lp3898
I1241
ag3545
aaaa(lp3899
I1244
aI1244
ag600
a(lp3900
(lp3901
I1244
ag600
aaaa(lp3902
I1246
aI1250
ag1088
a(lp3903
(lp3904
I1246
ag2548
aa(lp3905
I1247
ag2546
aa(lp3906
I1248
ag2569
aa(lp3907
I1249
ag2552
aa(lp3908
I1250
ag2569
aaaa(lp3909
I1253
aI1255
ag1097
a(lp3910
(lp3911
I1253
ag3510
aa(lp3912
I1255
ag3545
aaaa(lp3913
I1258
aI1258
ag600
a(lp3914
(lp3915
I1258
ag600
aaaa(lp3916
I1261
aI1270
ag1114
a(lp3917
(lp3918
I1261
ag600
aa(lp3919
I1262
ag2542
aa(lp3920
I1263
ag2589
aa(lp3921
I1264
ag2605
aa(lp3922
I1265
ag2554
aa(lp3923
I1266
ag2589
aa(lp3924
I1267
ag2548
aa(lp3925
I1270
ag600
aaaa(lp3926
I1273
aI1281
ag1123
a(lp3927
(lp3928
I1273
ag600
aa(lp3929
I1274
ag2558
aa(lp3930
I1275
ag2546
aa(lp3931
I1276
ag2542
aa(lp3932
I1277
ag2540
aa(lp3933
I1278
ag2596
aa(lp3934
I1281
ag600
aaaa(lp3935
I1284
aI1298
ag1132
a(lp3936
(lp3937
I1284
ag600
aa(lp3938
I1285
ag2567
aa(lp3939
I1286
ag2579
aa(lp3940
I1287
ag2569
aa(lp3941
I1289
ag2548
aa(lp3942
I1290
ag2569
aa(lp3943
I1291
ag2569
aa(lp3944
I1292
ag2589
aa(lp3945
I1295
ag600
aa(lp3946
I1296
ag1858
aa(lp3947
I1298
ag3545
aaaa(lp3948
I1301
aI1324
ag1141
a(lp3949
(lp3950
I1301
ag600
aa(lp3951
I1302
ag2548
aa(lp3952
I1303
ag2569
aa(lp3953
I1304
ag2569
aa(lp3954
I1305
ag2589
aa(lp3955
I1307
ag2592
aa(lp3956
I1308
ag2585
aa(lp3957
I1309
ag2575
aa(lp3958
I1310
ag2589
aa(lp3959
I1311
ag2544
aa(lp3960
I1313
ag600
aa(lp3961
I1314
ag2554
aa(lp3962
I1315
ag2596
aa(lp3963
I1316
ag2575
aa(lp3964
I1317
ag2540
aa(lp3965
I1318
ag2548
aa(lp3966
I1321
ag600
aa(lp3967
I1322
ag1858
aa(lp3968
I1324
ag1858
aaaa(lp3969
I1327
aI1338
ag1150
a(lp3970
(lp3971
I1327
ag600
aa(lp3972
I1328
ag2554
aa(lp3973
I1329
ag2596
aa(lp3974
I1330
ag2575
aa(lp3975
I1331
ag2540
aa(lp3976
I1332
ag2548
aa(lp3977
I1335
ag600
aa(lp3978
I1336
ag1858
aa(lp3979
I1338
ag644
aaaa(lp3980
I1341
aI1356
ag1159
a(lp3981
(lp3982
I1341
ag600
aa(lp3983
I1342
ag2585
aa(lp3984
I1343
ag2540
aa(lp3985
I1344
ag2596
aa(lp3986
I1345
ag2569
aa(lp3987
I1346
ag2579
aa(lp3988
I1348
ag600
aa(lp3989
I1349
ag2554
aa(lp3990
I1350
ag2596
aa(lp3991
I1351
ag2575
aa(lp3992
I1352
ag2540
aa(lp3993
I1353
ag2548
aa(lp3994
I1356
ag600
aaaa(lp3995
I1359
aI1359
ag600
a(lp3996
(lp3997
I1359
ag600
aaaa(lp3998
I1362
aI1366
ag1176
a(lp3999
(lp4000
I1362
ag600
aa(lp4001
I1363
ag2565
aa(lp4002
I1364
ag2540
aa(lp4003
I1365
ag2585
aa(lp4004
I1366
ag2690
aaaa(lp4005
I1368
aI1373
ag1185
a(lp4006
(lp4007
I1368
ag2552
aa(lp4008
I1369
ag2585
aa(lp4009
I1370
ag2598
aa(lp4010
I1371
ag2542
aa(lp4011
I1372
ag2589
aa(lp4012
I1373
ag2544
aaaa(lp4013
I1375
aI1377
ag1194
a(lp4014
(lp4015
I1375
ag2558
aa(lp4016
I1376
ag2554
aa(lp4017
I1377
ag2579
aaaa(lp4018
I1379
aI1380
aS'no'
p4019
a(lp4020
(lp4021
I1379
ag2589
aa(lp4022
I1380
ag2585
aaaa(lp4023
I1383
aI1383
ag600
a(lp4024
(lp4025
I1383
ag600
aaaa(lp4026
I1385
aI1390
ag1211
a(lp4027
(lp4028
I1385
ag2548
aa(lp4029
I1386
ag2546
aa(lp4030
I1387
ag2579
aa(lp4031
I1388
ag2542
aa(lp4032
I1389
ag2540
aa(lp4033
I1390
ag2540
aaaa(lp4034
I1393
aI1395
ag1220
a(lp4035
(lp4036
I1393
ag1832
aa(lp4037
I1395
ag3545
aaaa(lp4038
I1398
aI1398
ag600
a(lp4039
(lp4040
I1398
ag600
aaaa(lp4041
I1400
aI1404
ag1237
a(lp4042
(lp4043
I1400
ag2548
aa(lp4044
I1401
ag2546
aa(lp4045
I1402
ag2569
aa(lp4046
I1403
ag2552
aa(lp4047
I1404
ag2569
aaaa(lp4048
I1407
aI1409
ag1246
a(lp4049
(lp4050
I1407
ag1832
aa(lp4051
I1409
ag3545
aaaa(lp4052
I1412
aI1412
ag600
a(lp4053
(lp4054
I1412
ag600
aaaa(lp4055
I1415
aI1424
ag1263
a(lp4056
(lp4057
I1415
ag600
aa(lp4058
I1416
ag2542
aa(lp4059
I1417
ag2589
aa(lp4060
I1418
ag2605
aa(lp4061
I1419
ag2554
aa(lp4062
I1420
ag2589
aa(lp4063
I1421
ag2548
aa(lp4064
I1424
ag600
aaaa(lp4065
I1427
aI1438
ag1272
a(lp4066
(lp4067
I1427
ag600
aa(lp4068
I1428
ag2558
aa(lp4069
I1429
ag2546
aa(lp4070
I1430
ag2542
aa(lp4071
I1431
ag2540
aa(lp4072
I1432
ag2596
aa(lp4073
I1435
ag600
aa(lp4074
I1436
ag1858
aa(lp4075
I1438
aS'7'
p4076
aaaa(lp4077
I1441
aI1455
ag1281
a(lp4078
(lp4079
I1441
ag600
aa(lp4080
I1442
ag2567
aa(lp4081
I1443
ag2579
aa(lp4082
I1444
ag2569
aa(lp4083
I1446
ag2548
aa(lp4084
I1447
ag2569
aa(lp4085
I1448
ag2569
aa(lp4086
I1449
ag2589
aa(lp4087
I1452
ag600
aa(lp4088
I1453
ag1858
aa(lp4089
I1455
ag3545
aaaa(lp4090
I1458
aI1481
ag1290
a(lp4091
(lp4092
I1458
ag600
aa(lp4093
I1459
ag2548
aa(lp4094
I1460
ag2569
aa(lp4095
I1461
ag2569
aa(lp4096
I1462
ag2589
aa(lp4097
I1464
ag2592
aa(lp4098
I1465
ag2585
aa(lp4099
I1466
ag2575
aa(lp4100
I1467
ag2589
aa(lp4101
I1468
ag2544
aa(lp4102
I1470
ag600
aa(lp4103
I1471
ag2554
aa(lp4104
I1472
ag2596
aa(lp4105
I1473
ag2575
aa(lp4106
I1474
ag2540
aa(lp4107
I1475
ag2548
aa(lp4108
I1478
ag600
aa(lp4109
I1479
ag1858
aa(lp4110
I1481
ag1884
aaaa(lp4111
I1484
aI1495
ag1299
a(lp4112
(lp4113
I1484
ag600
aa(lp4114
I1485
ag2554
aa(lp4115
I1486
ag2596
aa(lp4116
I1487
ag2575
aa(lp4117
I1488
ag2540
aa(lp4118
I1489
ag2548
aa(lp4119
I1492
ag600
aa(lp4120
I1493
ag1858
aa(lp4121
I1495
ag1858
aaaa(lp4122
I1498
aI1516
ag1308
a(lp4123
(lp4124
I1498
ag600
aa(lp4125
I1499
ag2585
aa(lp4126
I1500
ag2540
aa(lp4127
I1501
ag2596
aa(lp4128
I1502
ag2569
aa(lp4129
I1503
ag2579
aa(lp4130
I1505
ag600
aa(lp4131
I1506
ag2554
aa(lp4132
I1507
ag2596
aa(lp4133
I1508
ag2575
aa(lp4134
I1509
ag2540
aa(lp4135
I1510
ag2548
aa(lp4136
I1513
ag600
aa(lp4137
I1514
ag1858
aa(lp4138
I1516
ag1858
aaaa(lp4139
I1519
aI1519
ag600
a(lp4140
(lp4141
I1519
ag600
aaaa(lp4142
I1522
aI1526
ag1325
a(lp4143
(lp4144
I1522
ag600
aa(lp4145
I1523
ag2565
aa(lp4146
I1524
ag2540
aa(lp4147
I1525
ag2585
aa(lp4148
I1526
ag2690
aaaa(lp4149
I1528
aI1533
ag1334
a(lp4150
(lp4151
I1528
ag2552
aa(lp4152
I1529
ag2585
aa(lp4153
I1530
ag2598
aa(lp4154
I1531
ag2542
aa(lp4155
I1532
ag2589
aa(lp4156
I1533
ag2544
aaaa(lp4157
I1535
aI1537
ag1343
a(lp4158
(lp4159
I1535
ag2558
aa(lp4160
I1536
ag2554
aa(lp4161
I1537
ag2579
aaaa(lp4162
I1539
aI1540
aS'no'
p4163
a(lp4164
(lp4165
I1539
ag2589
aa(lp4166
I1540
ag2585
aaaa(lp4167
I1543
aI1543
ag600
a(lp4168
(lp4169
I1543
ag600
aaaa(lp4170
I1545
aI1550
ag1360
a(lp4171
(lp4172
I1545
ag2548
aa(lp4173
I1546
ag2546
aa(lp4174
I1547
ag2579
aa(lp4175
I1548
ag2542
aa(lp4176
I1549
ag2540
aa(lp4177
I1550
ag2540
aaaa(lp4178
I1553
aI1555
ag1369
a(lp4179
(lp4180
I1553
ag1884
aa(lp4181
I1555
ag3545
aaaa(lp4182
I1558
aI1558
ag600
a(lp4183
(lp4184
I1558
ag600
aaaa(lp4185
I1560
aI1564
ag1386
a(lp4186
(lp4187
I1560
ag2548
aa(lp4188
I1561
ag2546
aa(lp4189
I1562
ag2569
aa(lp4190
I1563
ag2552
aa(lp4191
I1564
ag2569
aaaa(lp4192
I1567
aI1569
ag1395
a(lp4193
(lp4194
I1567
ag1858
aa(lp4195
I1569
ag3545
aaaa(lp4196
I1572
aI1572
ag600
a(lp4197
(lp4198
I1572
ag600
aaaa(lp4199
I1575
aI1584
ag1412
a(lp4200
(lp4201
I1575
ag600
aa(lp4202
I1576
ag2542
aa(lp4203
I1577
ag2589
aa(lp4204
I1578
ag2605
aa(lp4205
I1579
ag2554
aa(lp4206
I1580
ag2589
aa(lp4207
I1581
ag2548
aa(lp4208
I1584
ag600
aaaa(lp4209
I1587
aI1595
ag1421
a(lp4210
(lp4211
I1587
ag600
aa(lp4212
I1588
ag2558
aa(lp4213
I1589
ag2546
aa(lp4214
I1590
ag2542
aa(lp4215
I1591
ag2540
aa(lp4216
I1592
ag2596
aa(lp4217
I1595
ag600
aaaa(lp4218
I1598
aI1609
ag1430
a(lp4219
(lp4220
I1598
ag600
aa(lp4221
I1599
ag2567
aa(lp4222
I1600
ag2579
aa(lp4223
I1601
ag2569
aa(lp4224
I1603
ag2548
aa(lp4225
I1604
ag2569
aa(lp4226
I1605
ag2569
aa(lp4227
I1606
ag2589
aa(lp4228
I1609
ag600
aaaa(lp4229
I1612
aI1632
ag1439
a(lp4230
(lp4231
I1612
ag600
aa(lp4232
I1613
ag2548
aa(lp4233
I1614
ag2569
aa(lp4234
I1615
ag2569
aa(lp4235
I1616
ag2589
aa(lp4236
I1618
ag2592
aa(lp4237
I1619
ag2585
aa(lp4238
I1620
ag2575
aa(lp4239
I1621
ag2589
aa(lp4240
I1622
ag2544
aa(lp4241
I1624
ag600
aa(lp4242
I1625
ag2554
aa(lp4243
I1626
ag2596
aa(lp4244
I1627
ag2575
aa(lp4245
I1628
ag2540
aa(lp4246
I1629
ag2548
aa(lp4247
I1632
ag600
aaaa(lp4248
I1635
aI1646
ag1448
a(lp4249
(lp4250
I1635
ag600
aa(lp4251
I1636
ag2554
aa(lp4252
I1637
ag2596
aa(lp4253
I1638
ag2575
aa(lp4254
I1639
ag2540
aa(lp4255
I1640
ag2548
aa(lp4256
I1643
ag600
aa(lp4257
I1644
ag3510
aa(lp4258
I1646
ag3545
aaaa(lp4259
I1649
aI1664
ag1457
a(lp4260
(lp4261
I1649
ag600
aa(lp4262
I1650
ag2585
aa(lp4263
I1651
ag2540
aa(lp4264
I1652
ag2596
aa(lp4265
I1653
ag2569
aa(lp4266
I1654
ag2579
aa(lp4267
I1656
ag600
aa(lp4268
I1657
ag2554
aa(lp4269
I1658
ag2596
aa(lp4270
I1659
ag2575
aa(lp4271
I1660
ag2540
aa(lp4272
I1661
ag2548
aa(lp4273
I1664
ag600
aaaa(lp4274
I1667
aI1667
ag600
a(lp4275
(lp4276
I1667
ag600
aaaa(lp4277
I1670
aI1674
ag1474
a(lp4278
(lp4279
I1670
ag600
aa(lp4280
I1671
ag2565
aa(lp4281
I1672
ag2540
aa(lp4282
I1673
ag2585
aa(lp4283
I1674
ag2690
aaaa(lp4284
I1676
aI1681
ag1483
a(lp4285
(lp4286
I1676
ag2552
aa(lp4287
I1677
ag2585
aa(lp4288
I1678
ag2598
aa(lp4289
I1679
ag2542
aa(lp4290
I1680
ag2589
aa(lp4291
I1681
ag2544
aaaa(lp4292
I1683
aI1686
ag1492
a(lp4293
(lp4294
I1683
ag2665
aa(lp4295
I1684
ag2585
aa(lp4296
I1685
ag2554
aa(lp4297
I1686
ag2548
aaaa(lp4298
I1688
aI1689
aS'no'
p4299
a(lp4300
(lp4301
I1688
ag2589
aa(lp4302
I1689
ag2585
aaaa(lp4303
I1692
aI1692
ag600
a(lp4304
(lp4305
I1692
ag600
aaaa(lp4306
I1694
aI1699
ag1509
a(lp4307
(lp4308
I1694
ag2548
aa(lp4309
I1695
ag2546
aa(lp4310
I1696
ag2579
aa(lp4311
I1697
ag2542
aa(lp4312
I1698
ag2540
aa(lp4313
I1699
ag2540
aaaa(lp4314
I1702
aI1704
ag1518
a(lp4315
(lp4316
I1702
ag1858
aa(lp4317
I1704
ag3545
aaaa(lp4318
I1707
aI1707
ag600
a(lp4319
(lp4320
I1707
ag600
aaaa(lp4321
I1709
aI1713
ag1535
a(lp4322
(lp4323
I1709
ag2548
aa(lp4324
I1710
ag2546
aa(lp4325
I1711
ag2569
aa(lp4326
I1712
ag2552
aa(lp4327
I1713
ag2569
aaaa(lp4328
I1716
aI1718
ag1544
a(lp4329
(lp4330
I1716
ag3510
aa(lp4331
I1718
ag3545
aaaa(lp4332
I1721
aI1721
ag600
a(lp4333
(lp4334
I1721
ag600
aaaa(lp4335
I1724
aI1736
ag1561
a(lp4336
(lp4337
I1724
ag600
aa(lp4338
I1725
ag2542
aa(lp4339
I1726
ag2589
aa(lp4340
I1727
ag2605
aa(lp4341
I1728
ag2554
aa(lp4342
I1729
ag2589
aa(lp4343
I1730
ag2548
aa(lp4344
I1733
ag600
aa(lp4345
I1734
ag3545
aa(lp4346
I1736
ag3545
aaaa(lp4347
I1739
aI1750
ag1570
a(lp4348
(lp4349
I1739
ag600
aa(lp4350
I1740
ag2558
aa(lp4351
I1741
ag2546
aa(lp4352
I1742
ag2542
aa(lp4353
I1743
ag2540
aa(lp4354
I1744
ag2596
aa(lp4355
I1747
ag600
aa(lp4356
I1748
ag3510
aa(lp4357
I1750
ag3545
aaaa(lp4358
I1753
aI1767
ag1579
a(lp4359
(lp4360
I1753
ag600
aa(lp4361
I1754
ag2567
aa(lp4362
I1755
ag2579
aa(lp4363
I1756
ag2569
aa(lp4364
I1758
ag2548
aa(lp4365
I1759
ag2569
aa(lp4366
I1760
ag2569
aa(lp4367
I1761
ag2589
aa(lp4368
I1764
ag600
aa(lp4369
I1765
ag1858
aa(lp4370
I1767
ag3545
aaaa(lp4371
I1770
aI1793
ag1588
a(lp4372
(lp4373
I1770
ag600
aa(lp4374
I1771
ag2548
aa(lp4375
I1772
ag2569
aa(lp4376
I1773
ag2569
aa(lp4377
I1774
ag2589
aa(lp4378
I1776
ag2592
aa(lp4379
I1777
ag2585
aa(lp4380
I1778
ag2575
aa(lp4381
I1779
ag2589
aa(lp4382
I1780
ag2544
aa(lp4383
I1782
ag600
aa(lp4384
I1783
ag2554
aa(lp4385
I1784
ag2596
aa(lp4386
I1785
ag2575
aa(lp4387
I1786
ag2540
aa(lp4388
I1787
ag2548
aa(lp4389
I1790
ag600
aa(lp4390
I1791
ag1884
aa(lp4391
I1793
ag618
aaaa(lp4392
I1796
aI1807
ag1597
a(lp4393
(lp4394
I1796
ag600
aa(lp4395
I1797
ag2554
aa(lp4396
I1798
ag2596
aa(lp4397
I1799
ag2575
aa(lp4398
I1800
ag2540
aa(lp4399
I1801
ag2548
aa(lp4400
I1804
ag600
aa(lp4401
I1805
ag1858
aa(lp4402
I1807
ag3545
aaaa(lp4403
I1810
aI1828
ag1606
a(lp4404
(lp4405
I1810
ag600
aa(lp4406
I1811
ag2585
aa(lp4407
I1812
ag2540
aa(lp4408
I1813
ag2596
aa(lp4409
I1814
ag2569
aa(lp4410
I1815
ag2579
aa(lp4411
I1817
ag600
aa(lp4412
I1818
ag2554
aa(lp4413
I1819
ag2596
aa(lp4414
I1820
ag2575
aa(lp4415
I1821
ag2540
aa(lp4416
I1822
ag2548
aa(lp4417
I1825
ag600
aa(lp4418
I1826
ag3510
aa(lp4419
I1828
ag3545
aaaa(lp4420
I1831
aI1831
ag600
a(lp4421
(lp4422
I1831
ag600
aaaa(lp4423
I1834
aI1841
ag1623
a(lp4424
(lp4425
I1834
ag600
aa(lp4426
I1835
ag2569
aa(lp4427
I1836
ag3117
aa(lp4428
I1837
ag2546
aa(lp4429
I1838
ag2542
aa(lp4430
I1839
ag2665
aa(lp4431
I1840
ag2542
aa(lp4432
I1841
ag2548
aaaa(lp4433
I1843
aI1844
aS'no'
p4434
a(lp4435
(lp4436
I1843
ag2589
aa(lp4437
I1844
ag2585
aaaa(lp4438
I1847
aI1847
ag600
a(lp4439
(lp4440
I1847
ag600
aaaa(lp4441
I1849
aI1854
ag1640
a(lp4442
(lp4443
I1849
ag2548
aa(lp4444
I1850
ag2546
aa(lp4445
I1851
ag2579
aa(lp4446
I1852
ag2542
aa(lp4447
I1853
ag2540
aa(lp4448
I1854
ag2540
aaaa(lp4449
I1858
aI1858
ag644
a(lp4450
(lp4451
I1858
ag644
aaaa(lp4452
I1861
aI1861
ag600
a(lp4453
(lp4454
I1861
ag600
aaaa(lp4455
I1863
aI1867
ag1665
a(lp4456
(lp4457
I1863
ag2548
aa(lp4458
I1864
ag2546
aa(lp4459
I1865
ag2569
aa(lp4460
I1866
ag2552
aa(lp4461
I1867
ag2569
aaaa(lp4462
I1871
aI1871
ag618
a(lp4463
(lp4464
I1871
ag618
aaaa(lp4465
I1874
aI1874
ag600
a(lp4466
(lp4467
I1874
ag600
aaaa(lp4468
I1877
aI1886
ag1690
a(lp4469
(lp4470
I1877
ag600
aa(lp4471
I1878
ag2542
aa(lp4472
I1879
ag2589
aa(lp4473
I1880
ag2605
aa(lp4474
I1881
ag2554
aa(lp4475
I1882
ag2589
aa(lp4476
I1883
ag2548
aa(lp4477
I1886
ag600
aaaa(lp4478
I1889
aI1900
ag1699
a(lp4479
(lp4480
I1889
ag600
aa(lp4481
I1890
ag2558
aa(lp4482
I1891
ag2546
aa(lp4483
I1892
ag2542
aa(lp4484
I1893
ag2540
aa(lp4485
I1894
ag2596
aa(lp4486
I1897
ag600
aa(lp4487
I1898
ag1884
aa(lp4488
I1900
ag3696
aaaa(lp4489
I1903
aI1917
ag1708
a(lp4490
(lp4491
I1903
ag600
aa(lp4492
I1904
ag2567
aa(lp4493
I1905
ag2579
aa(lp4494
I1906
ag2569
aa(lp4495
I1908
ag2548
aa(lp4496
I1909
ag2569
aa(lp4497
I1910
ag2569
aa(lp4498
I1911
ag2589
aa(lp4499
I1914
ag600
aa(lp4500
I1915
ag1858
aa(lp4501
I1917
ag3545
aaaa(lp4502
I1920
aI1943
ag1717
a(lp4503
(lp4504
I1920
ag600
aa(lp4505
I1921
ag2548
aa(lp4506
I1922
ag2569
aa(lp4507
I1923
ag2569
aa(lp4508
I1924
ag2589
aa(lp4509
I1926
ag2592
aa(lp4510
I1927
ag2585
aa(lp4511
I1928
ag2575
aa(lp4512
I1929
ag2589
aa(lp4513
I1930
ag2544
aa(lp4514
I1932
ag600
aa(lp4515
I1933
ag2554
aa(lp4516
I1934
ag2596
aa(lp4517
I1935
ag2575
aa(lp4518
I1936
ag2540
aa(lp4519
I1937
ag2548
aa(lp4520
I1940
ag600
aa(lp4521
I1941
ag1884
aa(lp4522
I1943
ag3545
aaaa(lp4523
I1946
aI1957
ag1726
a(lp4524
(lp4525
I1946
ag600
aa(lp4526
I1947
ag2554
aa(lp4527
I1948
ag2596
aa(lp4528
I1949
ag2575
aa(lp4529
I1950
ag2540
aa(lp4530
I1951
ag2548
aa(lp4531
I1954
ag600
aa(lp4532
I1955
ag1832
aa(lp4533
I1957
ag4076
aaaa(lp4534
I1960
aI1978
ag1735
a(lp4535
(lp4536
I1960
ag600
aa(lp4537
I1961
ag2585
aa(lp4538
I1962
ag2540
aa(lp4539
I1963
ag2596
aa(lp4540
I1964
ag2569
aa(lp4541
I1965
ag2579
aa(lp4542
I1967
ag600
aa(lp4543
I1968
ag2554
aa(lp4544
I1969
ag2596
aa(lp4545
I1970
ag2575
aa(lp4546
I1971
ag2540
aa(lp4547
I1972
ag2548
aa(lp4548
I1975
ag600
aa(lp4549
I1976
ag1884
aa(lp4550
I1978
ag3696
aaaa(lp4551
I1981
aI1981
ag600
a(lp4552
(lp4553
I1981
ag600
aaaa(lp4554
I1984
aI1991
ag1752
a(lp4555
(lp4556
I1984
ag600
aa(lp4557
I1985
ag2548
aa(lp4558
I1986
ag2546
aa(lp4559
I1987
ag2569
aa(lp4560
I1988
ag2554
aa(lp4561
I1989
ag2548
aa(lp4562
I1990
ag2569
aa(lp4563
I1991
ag2579
aaaa(lp4564
I1993
aI2004
ag1761
a(lp4565
(lp4566
I1993
ag2567
aa(lp4567
I1994
ag2579
aa(lp4568
I1995
ag2569
aa(lp4569
I1996
ag2565
aa(lp4570
I1997
ag2569
aa(lp4571
I1998
ag2589
aa(lp4572
I1999
ag2548
aa(lp4573
I2000
ag2554
aa(lp4574
I2001
ag2548
aa(lp4575
I2002
ag2542
aa(lp4576
I2003
ag2585
aa(lp4577
I2004
ag2589
aaaa(lp4578
I2007
aI2015
ag1770
a(lp4579
(lp4580
I2007
ag2565
aa(lp4581
I2008
ag2558
aa(lp4582
I2009
ag2546
aa(lp4583
I2010
ag2569
aa(lp4584
I2011
ag2596
aa(lp4585
I2012
ag2575
aa(lp4586
I2013
ag2540
aa(lp4587
I2014
ag2569
aa(lp4588
I2015
ag2596
aaaa(lp4589
I2019
aI2033
ag1779
a(lp4590
(lp4591
I2019
ag600
aa(lp4592
I2021
ag600
aa(lp4593
I2022
ag2548
aa(lp4594
I2023
ag2585
aa(lp4595
I2024
ag2552
aa(lp4596
I2025
ag2585
aa(lp4597
I2026
ag2579
aa(lp4598
I2027
ag2579
aa(lp4599
I2028
ag2585
aa(lp4600
I2029
ag2690
aa(lp4601
I2030
ag2540
aa(lp4602
I2031
ag2554
aa(lp4603
I2032
ag2589
aa(lp4604
I2033
ag2596
aaaa(lp4605
I2035
aI2041
ag1788
a(lp4606
(lp4607
I2035
ag2548
aa(lp4608
I2036
ag2569
aa(lp4609
I2037
ag2579
aa(lp4610
I2038
ag2579
aa(lp4611
I2039
ag2554
aa(lp4612
I2040
ag2558
aa(lp4613
I2041
ag2569
aaaa(lp4614
I2043
aI2044
aS'no'
p4615
a(lp4616
(lp4617
I2043
ag2589
aa(lp4618
I2044
ag2585
aaaa(lp4619
I2047
aI2047
ag600
a(lp4620
(lp4621
I2047
ag600
aaaa(lp4622
I2049
aI2050
ag1805
a(lp4623
(lp4624
I2049
ag1884
aa(lp4625
I2050
ag3545
aaaa(lp4626
I2052
aI2058
ag1814
a(lp4627
(lp4628
I2052
ag2552
aa(lp4629
I2053
ag2542
aa(lp4630
I2054
ag2589
aa(lp4631
I2055
ag2575
aa(lp4632
I2056
ag2548
aa(lp4633
I2057
ag2569
aa(lp4634
I2058
ag2565
aaaa(lp4635
I2061
aI2069
ag1823
a(lp4636
(lp4637
I2061
ag600
aa(lp4638
I2063
ag600
aa(lp4639
I2064
ag2542
aa(lp4640
I2065
ag2589
aa(lp4641
I2066
ag2605
aa(lp4642
I2067
ag2554
aa(lp4643
I2068
ag2589
aa(lp4644
I2069
ag2548
aaaa(lp4645
I2072
aI2072
ag1832
a(lp4646
(lp4647
I2072
ag1832
aaaa(lp4648
I2075
aI2075
ag600
a(lp4649
(lp4650
I2075
ag600
aaaa(lp4651
I2077
aI2081
ag1849
a(lp4652
(lp4653
I2077
ag2558
aa(lp4654
I2078
ag2546
aa(lp4655
I2079
ag2542
aa(lp4656
I2080
ag2540
aa(lp4657
I2081
ag2596
aaaa(lp4658
I2084
aI2084
ag1858
a(lp4659
(lp4660
I2084
ag1858
aaaa(lp4661
I2087
aI2087
ag600
a(lp4662
(lp4663
I2087
ag600
aaaa(lp4664
I2089
aI2096
ag1875
a(lp4665
(lp4666
I2089
ag2567
aa(lp4667
I2090
ag2579
aa(lp4668
I2091
ag2569
aa(lp4669
I2093
ag2548
aa(lp4670
I2094
ag2569
aa(lp4671
I2095
ag2569
aa(lp4672
I2096
ag2589
aaaa(lp4673
I2099
aI2099
ag1884
a(lp4674
(lp4675
I2099
ag1884
aaaa(lp4676
I2102
aI2102
ag600
a(lp4677
(lp4678
I2102
ag600
aaaa(lp4679
I2104
aI2113
ag1901
a(lp4680
(lp4681
I2104
ag2548
aa(lp4682
I2105
ag2569
aa(lp4683
I2106
ag2569
aa(lp4684
I2107
ag2589
aa(lp4685
I2109
ag2592
aa(lp4686
I2110
ag2585
aa(lp4687
I2111
ag2575
aa(lp4688
I2112
ag2589
aa(lp4689
I2113
ag2544
aaaa(lp4690
I2115
aI2119
ag1910
a(lp4691
(lp4692
I2115
ag2554
aa(lp4693
I2116
ag2596
aa(lp4694
I2117
ag2575
aa(lp4695
I2118
ag2540
aa(lp4696
I2119
ag2548
aaaa(lp4697
I2122
aI2122
ag1884
a(lp4698
(lp4699
I2122
ag1884
aaaa(lp4700
I2125
aI2125
ag600
a(lp4701
(lp4702
I2125
ag600
aaaa(lp4703
I2127
aI2131
ag1935
a(lp4704
(lp4705
I2127
ag2554
aa(lp4706
I2128
ag2596
aa(lp4707
I2129
ag2575
aa(lp4708
I2130
ag2540
aa(lp4709
I2131
ag2548
aaaa(lp4710
I2134
aI2134
ag1884
a(lp4711
(lp4712
I2134
ag1884
aaaa(lp4713
I2137
aI2137
ag600
a(lp4714
(lp4715
I2137
ag600
aaaa(lp4716
I2139
aI2143
ag1960
a(lp4717
(lp4718
I2139
ag2585
aa(lp4719
I2140
ag2540
aa(lp4720
I2141
ag2596
aa(lp4721
I2142
ag2569
aa(lp4722
I2143
ag2579
aaaa(lp4723
I2145
aI2149
ag1969
a(lp4724
(lp4725
I2145
ag2554
aa(lp4726
I2146
ag2596
aa(lp4727
I2147
ag2575
aa(lp4728
I2148
ag2540
aa(lp4729
I2149
ag2548
aaaa(lp4730
I2152
aI2152
ag1884
a(lp4731
(lp4732
I2152
ag1884
aaaa(lp4733
I2154
aI2159
ag1986
a(lp4734
(lp4735
I2154
ag2548
aa(lp4736
I2155
ag2546
aa(lp4737
I2156
ag2579
aa(lp4738
I2157
ag2542
aa(lp4739
I2158
ag2540
aa(lp4740
I2159
ag2540
aaaa(lp4741
I2162
aI2168
ag1995
a(lp4742
(lp4743
I2162
ag2575
aa(lp4744
I2163
ag2589
aa(lp4745
I2164
ag2579
aa(lp4746
I2165
ag2554
aa(lp4747
I2166
ag2548
aa(lp4748
I2167
ag2569
aa(lp4749
I2168
ag2596
aaaa(lp4750
I2171
aI2171
ag600
a(lp4751
(lp4752
I2171
ag600
aaaa(lp4753
I2173
aI2177
ag2012
a(lp4754
(lp4755
I2173
ag2548
aa(lp4756
I2174
ag2546
aa(lp4757
I2175
ag2569
aa(lp4758
I2176
ag2552
aa(lp4759
I2177
ag2569
aaaa(lp4760
I2180
aI2186
ag2021
a(lp4761
(lp4762
I2180
ag2575
aa(lp4763
I2181
ag2589
aa(lp4764
I2182
ag2579
aa(lp4765
I2183
ag2554
aa(lp4766
I2184
ag2548
aa(lp4767
I2185
ag2569
aa(lp4768
I2186
ag2596
aaaa(lp4769
I2189
aI2189
ag600
a(lp4770
(lp4771
I2189
ag600
aaaa(lp4772
I2192
aI2201
ag2038
a(lp4773
(lp4774
I2192
ag600
aa(lp4775
I2193
ag2542
aa(lp4776
I2194
ag2589
aa(lp4777
I2195
ag2605
aa(lp4778
I2196
ag2554
aa(lp4779
I2197
ag2589
aa(lp4780
I2198
ag2548
aa(lp4781
I2201
ag600
aaaa(lp4782
I2204
aI2212
ag2047
a(lp4783
(lp4784
I2204
ag600
aa(lp4785
I2205
ag2558
aa(lp4786
I2206
ag2546
aa(lp4787
I2207
ag2542
aa(lp4788
I2208
ag2540
aa(lp4789
I2209
ag2596
aa(lp4790
I2212
ag600
aaaa(lp4791
I2215
aI2226
ag2056
a(lp4792
(lp4793
I2215
ag600
aa(lp4794
I2216
ag2567
aa(lp4795
I2217
ag2579
aa(lp4796
I2218
ag2569
aa(lp4797
I2220
ag2548
aa(lp4798
I2221
ag2569
aa(lp4799
I2222
ag2569
aa(lp4800
I2223
ag2589
aa(lp4801
I2226
ag600
aaaa(lp4802
I2229
aI2249
ag2065
a(lp4803
(lp4804
I2229
ag600
aa(lp4805
I2230
ag2548
aa(lp4806
I2231
ag2569
aa(lp4807
I2232
ag2569
aa(lp4808
I2233
ag2589
aa(lp4809
I2235
ag2592
aa(lp4810
I2236
ag2585
aa(lp4811
I2237
ag2575
aa(lp4812
I2238
ag2589
aa(lp4813
I2239
ag2544
aa(lp4814
I2241
ag600
aa(lp4815
I2242
ag2554
aa(lp4816
I2243
ag2596
aa(lp4817
I2244
ag2575
aa(lp4818
I2245
ag2540
aa(lp4819
I2246
ag2548
aa(lp4820
I2249
ag600
aaaa(lp4821
I2252
aI2260
ag2074
a(lp4822
(lp4823
I2252
ag600
aa(lp4824
I2253
ag2554
aa(lp4825
I2254
ag2596
aa(lp4826
I2255
ag2575
aa(lp4827
I2256
ag2540
aa(lp4828
I2257
ag2548
aa(lp4829
I2260
ag600
aaaa(lp4830
I2263
aI2278
ag2083
a(lp4831
(lp4832
I2263
ag600
aa(lp4833
I2264
ag2585
aa(lp4834
I2265
ag2540
aa(lp4835
I2266
ag2596
aa(lp4836
I2267
ag2569
aa(lp4837
I2268
ag2579
aa(lp4838
I2270
ag600
aa(lp4839
I2271
ag2554
aa(lp4840
I2272
ag2596
aa(lp4841
I2273
ag2575
aa(lp4842
I2274
ag2540
aa(lp4843
I2275
ag2548
aa(lp4844
I2278
ag600
aaaa(lp4845
I2281
aI2281
ag600
a(lp4846
(lp4847
I2281
ag600
aaaa(lp4848
I2284
aI2290
ag2100
a(lp4849
(lp4850
I2284
ag600
aa(lp4851
I2285
ag2548
aa(lp4852
I2286
ag2546
aa(lp4853
I2287
ag2579
aa(lp4854
I2288
ag2542
aa(lp4855
I2289
ag2540
aa(lp4856
I2290
ag2540
aaaa(lp4857
I2292
aI2295
ag2109
a(lp4858
(lp4859
I2292
ag2579
aa(lp4860
I2293
ag2542
aa(lp4861
I2294
ag2596
aa(lp4862
I2295
ag2569
aaaa(lp4863
I2297
aI2299
ag2118
a(lp4864
(lp4865
I2297
ag2592
aa(lp4866
I2298
ag2569
aa(lp4867
I2299
ag2565
aaaa(lp4868
I2302
aI2302
ag600
a(lp4869
(lp4870
I2302
ag600
aaaa(lp4871
I2304
aI2309
ag2135
a(lp4872
(lp4873
I2304
ag2548
aa(lp4874
I2305
ag2546
aa(lp4875
I2306
ag2579
aa(lp4876
I2307
ag2542
aa(lp4877
I2308
ag2540
aa(lp4878
I2309
ag2540
aaaa(lp4879
I2312
aI2314
ag2144
a(lp4880
(lp4881
I2312
ag1832
aa(lp4882
I2314
ag3545
aaaa(lp4883
I2317
aI2317
ag600
a(lp4884
(lp4885
I2317
ag600
aaaa(lp4886
I2319
aI2323
ag2161
a(lp4887
(lp4888
I2319
ag2548
aa(lp4889
I2320
ag2546
aa(lp4890
I2321
ag2569
aa(lp4891
I2322
ag2552
aa(lp4892
I2323
ag2569
aaaa(lp4893
I2326
aI2328
ag2170
a(lp4894
(lp4895
I2326
ag1832
aa(lp4896
I2328
ag3545
aaaa(lp4897
I2331
aI2331
ag600
a(lp4898
(lp4899
I2331
ag600
aaaa(lp4900
I2334
aI2343
ag2187
a(lp4901
(lp4902
I2334
ag600
aa(lp4903
I2335
ag2542
aa(lp4904
I2336
ag2589
aa(lp4905
I2337
ag2605
aa(lp4906
I2338
ag2554
aa(lp4907
I2339
ag2589
aa(lp4908
I2340
ag2548
aa(lp4909
I2343
ag600
aaaa(lp4910
I2346
aI2357
ag2196
a(lp4911
(lp4912
I2346
ag600
aa(lp4913
I2347
ag2558
aa(lp4914
I2348
ag2546
aa(lp4915
I2349
ag2542
aa(lp4916
I2350
ag2540
aa(lp4917
I2351
ag2596
aa(lp4918
I2354
ag600
aa(lp4919
I2355
ag1858
aa(lp4920
I2357
ag618
aaaa(lp4921
I2360
aI2374
ag2205
a(lp4922
(lp4923
I2360
ag600
aa(lp4924
I2361
ag2567
aa(lp4925
I2362
ag2579
aa(lp4926
I2363
ag2569
aa(lp4927
I2365
ag2548
aa(lp4928
I2366
ag2569
aa(lp4929
I2367
ag2569
aa(lp4930
I2368
ag2589
aa(lp4931
I2371
ag600
aa(lp4932
I2372
ag1858
aa(lp4933
I2374
ag3793
aaaa(lp4934
I2377
aI2400
ag2214
a(lp4935
(lp4936
I2377
ag600
aa(lp4937
I2378
ag2548
aa(lp4938
I2379
ag2569
aa(lp4939
I2380
ag2569
aa(lp4940
I2381
ag2589
aa(lp4941
I2383
ag2592
aa(lp4942
I2384
ag2585
aa(lp4943
I2385
ag2575
aa(lp4944
I2386
ag2589
aa(lp4945
I2387
ag2544
aa(lp4946
I2389
ag600
aa(lp4947
I2390
ag2554
aa(lp4948
I2391
ag2596
aa(lp4949
I2392
ag2575
aa(lp4950
I2393
ag2540
aa(lp4951
I2394
ag2548
aa(lp4952
I2397
ag600
aa(lp4953
I2398
ag1858
aa(lp4954
I2400
ag3793
aaaa(lp4955
I2403
aI2414
ag2223
a(lp4956
(lp4957
I2403
ag600
aa(lp4958
I2404
ag2554
aa(lp4959
I2405
ag2596
aa(lp4960
I2406
ag2575
aa(lp4961
I2407
ag2540
aa(lp4962
I2408
ag2548
aa(lp4963
I2411
ag600
aa(lp4964
I2412
ag1858
aa(lp4965
I2414
ag3793
aaaa(lp4966
I2417
aI2435
ag2232
a(lp4967
(lp4968
I2417
ag600
aa(lp4969
I2418
ag2585
aa(lp4970
I2419
ag2540
aa(lp4971
I2420
ag2596
aa(lp4972
I2421
ag2569
aa(lp4973
I2422
ag2579
aa(lp4974
I2424
ag600
aa(lp4975
I2425
ag2554
aa(lp4976
I2426
ag2596
aa(lp4977
I2427
ag2575
aa(lp4978
I2428
ag2540
aa(lp4979
I2429
ag2548
aa(lp4980
I2432
ag600
aa(lp4981
I2433
ag3510
aa(lp4982
I2435
ag3545
aaaa(lp4983
I2438
aI2438
ag600
a(lp4984
(lp4985
I2438
ag600
aaaa(lp4986
I2441
aI2450
ag2249
a(lp4987
(lp4988
I2441
ag600
aa(lp4989
I2442
ag2565
aa(lp4990
I2443
ag2542
aa(lp4991
I2444
ag2552
aa(lp4992
I2445
ag2575
aa(lp4993
I2446
ag2540
aa(lp4994
I2447
ag2554
aa(lp4995
I2448
ag2548
aa(lp4996
I2449
ag2585
aa(lp4997
I2450
ag2579
aaaa(lp4998
I2452
aI2454
ag2258
a(lp4999
(lp5000
I2452
ag2592
aa(lp5001
I2453
ag2569
aa(lp5002
I2454
ag2565
aaaa(lp5003
I2457
aI2457
ag600
a(lp5004
(lp5005
I2457
ag600
aaaa(lp5006
I2459
aI2464
ag2275
a(lp5007
(lp5008
I2459
ag2548
aa(lp5009
I2460
ag2546
aa(lp5010
I2461
ag2579
aa(lp5011
I2462
ag2542
aa(lp5012
I2463
ag2540
aa(lp5013
I2464
ag2540
aaaa(lp5014
I2467
aI2469
ag2284
a(lp5015
(lp5016
I2467
ag1832
aa(lp5017
I2469
ag3545
aaaa(lp5018
I2472
aI2472
ag600
a(lp5019
(lp5020
I2472
ag600
aaaa(lp5021
I2474
aI2478
ag2301
a(lp5022
(lp5023
I2474
ag2548
aa(lp5024
I2475
ag2546
aa(lp5025
I2476
ag2569
aa(lp5026
I2477
ag2552
aa(lp5027
I2478
ag2569
aaaa(lp5028
I2481
aI2483
ag2310
a(lp5029
(lp5030
I2481
ag1832
aa(lp5031
I2483
ag3545
aaaa(lp5032
I2486
aI2486
ag600
a(lp5033
(lp5034
I2486
ag600
aaaa(lp5035
I2489
aI2498
ag2327
a(lp5036
(lp5037
I2489
ag600
aa(lp5038
I2490
ag2542
aa(lp5039
I2491
ag2589
aa(lp5040
I2492
ag2605
aa(lp5041
I2493
ag2554
aa(lp5042
I2494
ag2589
aa(lp5043
I2495
ag2548
aa(lp5044
I2498
ag600
aaaa(lp5045
I2501
aI2512
ag2336
a(lp5046
(lp5047
I2501
ag600
aa(lp5048
I2502
ag2558
aa(lp5049
I2503
ag2546
aa(lp5050
I2504
ag2542
aa(lp5051
I2505
ag2540
aa(lp5052
I2506
ag2596
aa(lp5053
I2509
ag600
aa(lp5054
I2510
ag1858
aa(lp5055
I2512
ag1858
aaaa(lp5056
I2515
aI2529
ag2345
a(lp5057
(lp5058
I2515
ag600
aa(lp5059
I2516
ag2567
aa(lp5060
I2517
ag2579
aa(lp5061
I2518
ag2569
aa(lp5062
I2520
ag2548
aa(lp5063
I2521
ag2569
aa(lp5064
I2522
ag2569
aa(lp5065
I2523
ag2589
aa(lp5066
I2526
ag600
aa(lp5067
I2527
ag1858
aa(lp5068
I2529
ag3510
aaaa(lp5069
I2532
aI2555
ag2354
a(lp5070
(lp5071
I2532
ag600
aa(lp5072
I2533
ag2548
aa(lp5073
I2534
ag2569
aa(lp5074
I2535
ag2569
aa(lp5075
I2536
ag2589
aa(lp5076
I2538
ag2592
aa(lp5077
I2539
ag2585
aa(lp5078
I2540
ag2575
aa(lp5079
I2541
ag2589
aa(lp5080
I2542
ag2544
aa(lp5081
I2544
ag600
aa(lp5082
I2545
ag2554
aa(lp5083
I2546
ag2596
aa(lp5084
I2547
ag2575
aa(lp5085
I2548
ag2540
aa(lp5086
I2549
ag2548
aa(lp5087
I2552
ag600
aa(lp5088
I2553
ag1858
aa(lp5089
I2555
ag3510
aaaa(lp5090
I2558
aI2569
ag2363
a(lp5091
(lp5092
I2558
ag600
aa(lp5093
I2559
ag2554
aa(lp5094
I2560
ag2596
aa(lp5095
I2561
ag2575
aa(lp5096
I2562
ag2540
aa(lp5097
I2563
ag2548
aa(lp5098
I2566
ag600
aa(lp5099
I2567
ag1858
aa(lp5100
I2569
ag1858
aaaa(lp5101
I2572
aI2590
ag2372
a(lp5102
(lp5103
I2572
ag600
aa(lp5104
I2573
ag2585
aa(lp5105
I2574
ag2540
aa(lp5106
I2575
ag2596
aa(lp5107
I2576
ag2569
aa(lp5108
I2577
ag2579
aa(lp5109
I2579
ag600
aa(lp5110
I2580
ag2554
aa(lp5111
I2581
ag2596
aa(lp5112
I2582
ag2575
aa(lp5113
I2583
ag2540
aa(lp5114
I2584
ag2548
aa(lp5115
I2587
ag600
aa(lp5116
I2588
ag1858
aa(lp5117
I2590
ag644
aaaa(lp5118
I2593
aI2593
ag600
a(lp5119
(lp5120
I2593
ag600
aaaa(lp5121
I2596
aI2602
ag2389
a(lp5122
(lp5123
I2596
ag600
aa(lp5124
I2597
ag2554
aa(lp5125
I2598
ag2579
aa(lp5126
I2599
ag2558
aa(lp5127
I2600
ag2554
aa(lp5128
I2601
ag2596
aa(lp5129
I2602
ag2569
aaaa(lp5130
I2604
aI2605
aS'no'
p5131
a(lp5132
(lp5133
I2604
ag2589
aa(lp5134
I2605
ag2585
aaaa(lp5135
I2608
aI2608
ag600
a(lp5136
(lp5137
I2608
ag600
aaaa(lp5138
I2610
aI2615
ag2406
a(lp5139
(lp5140
I2610
ag2548
aa(lp5141
I2611
ag2546
aa(lp5142
I2612
ag2579
aa(lp5143
I2613
ag2542
aa(lp5144
I2614
ag2540
aa(lp5145
I2615
ag2540
aaaa(lp5146
I2619
aI2619
ag1858
a(lp5147
(lp5148
I2619
ag1858
aaaa(lp5149
I2622
aI2622
ag600
a(lp5150
(lp5151
I2622
ag600
aaaa(lp5152
I2624
aI2628
ag2431
a(lp5153
(lp5154
I2624
ag2548
aa(lp5155
I2625
ag2546
aa(lp5156
I2626
ag2569
aa(lp5157
I2627
ag2552
aa(lp5158
I2628
ag2569
aaaa(lp5159
I2632
aI2632
ag1858
a(lp5160
(lp5161
I2632
ag1858
aaaa(lp5162
I2635
aI2635
ag600
a(lp5163
(lp5164
I2635
ag600
aaaa(lp5165
I2638
aI2647
ag2456
a(lp5166
(lp5167
I2638
ag600
aa(lp5168
I2639
ag2542
aa(lp5169
I2640
ag2589
aa(lp5170
I2641
ag2605
aa(lp5171
I2642
ag2554
aa(lp5172
I2643
ag2589
aa(lp5173
I2644
ag2548
aa(lp5174
I2647
ag600
aaaa(lp5175
I2650
aI2661
ag2465
a(lp5176
(lp5177
I2650
ag600
aa(lp5178
I2651
ag2558
aa(lp5179
I2652
ag2546
aa(lp5180
I2653
ag2542
aa(lp5181
I2654
ag2540
aa(lp5182
I2655
ag2596
aa(lp5183
I2658
ag600
aa(lp5184
I2659
ag1858
aa(lp5185
I2661
ag3545
aaaa(lp5186
I2664
aI2678
ag2474
a(lp5187
(lp5188
I2664
ag600
aa(lp5189
I2665
ag2567
aa(lp5190
I2666
ag2579
aa(lp5191
I2667
ag2569
aa(lp5192
I2669
ag2548
aa(lp5193
I2670
ag2569
aa(lp5194
I2671
ag2569
aa(lp5195
I2672
ag2589
aa(lp5196
I2675
ag600
aa(lp5197
I2676
ag1858
aa(lp5198
I2678
ag3545
aaaa(lp5199
I2681
aI2704
ag2483
a(lp5200
(lp5201
I2681
ag600
aa(lp5202
I2682
ag2548
aa(lp5203
I2683
ag2569
aa(lp5204
I2684
ag2569
aa(lp5205
I2685
ag2589
aa(lp5206
I2687
ag2592
aa(lp5207
I2688
ag2585
aa(lp5208
I2689
ag2575
aa(lp5209
I2690
ag2589
aa(lp5210
I2691
ag2544
aa(lp5211
I2693
ag600
aa(lp5212
I2694
ag2554
aa(lp5213
I2695
ag2596
aa(lp5214
I2696
ag2575
aa(lp5215
I2697
ag2540
aa(lp5216
I2698
ag2548
aa(lp5217
I2701
ag600
aa(lp5218
I2702
ag1832
aa(lp5219
I2704
ag644
aaaa(lp5220
I2707
aI2718
ag2492
a(lp5221
(lp5222
I2707
ag600
aa(lp5223
I2708
ag2554
aa(lp5224
I2709
ag2596
aa(lp5225
I2710
ag2575
aa(lp5226
I2711
ag2540
aa(lp5227
I2712
ag2548
aa(lp5228
I2715
ag600
aa(lp5229
I2716
ag1832
aa(lp5230
I2718
ag4076
aaaa(lp5231
I2721
aI2739
ag2501
a(lp5232
(lp5233
I2721
ag600
aa(lp5234
I2722
ag2585
aa(lp5235
I2723
ag2540
aa(lp5236
I2724
ag2596
aa(lp5237
I2725
ag2569
aa(lp5238
I2726
ag2579
aa(lp5239
I2728
ag600
aa(lp5240
I2729
ag2554
aa(lp5241
I2730
ag2596
aa(lp5242
I2731
ag2575
aa(lp5243
I2732
ag2540
aa(lp5244
I2733
ag2548
aa(lp5245
I2736
ag600
aa(lp5246
I2737
ag1832
aa(lp5247
I2739
ag3545
aaaa(lp5248
I2742
aI2742
ag600
a(lp5249
(lp5250
I2742
ag600
aaaa(lp5251
I2744
aI2753
ag2518
a(lp5252
(lp5253
I2744
ag2596
aa(lp5254
I2745
ag2542
aa(lp5255
I2746
ag2565
aa(lp5256
I2747
ag2589
aa(lp5257
I2748
ag2569
aa(lp5258
I2749
ag2592
aa(lp5259
I2750
ag2540
aa(lp5260
I2751
ag2554
aa(lp5261
I2752
ag2589
aa(lp5262
I2753
ag2596
aaaa(lp5263
I2744
aI2753
ag2527
a(lp5264
(lp5265
I2756
ag2548
aa(lp5266
I2757
ag2585
aa(lp5267
I2758
ag2552
aa(lp5268
I2759
ag2585
aa(lp5269
I2760
ag2579
aa(lp5270
I2761
ag2579
aa(lp5271
I2762
ag2585
aa(lp5272
I2763
ag2690
aa(lp5273
I2764
ag2540
aa(lp5274
I2765
ag2554
aa(lp5275
I2766
ag2589
aa(lp5276
I2767
ag2596
aaaasS'cleanCharacterMap'
p5277
(lp5278
g2539
ag2541
ag2543
ag2545
ag2547
a(lp5279
I5
aS' '
p5280
aag2551
ag2553
ag2555
ag2556
ag2557
a(lp5281
I11
ag5280
aa(lp5282
I13
ag5280
aag2561
a(lp5283
I15
ag5280
aag2564
ag2566
ag2568
ag2570
ag2571
ag2572
ag2573
ag2574
ag2576
ag2577
ag2578
a(lp5284
I27
ag5280
aag2582
ag2584
ag2586
ag2587
ag2588
ag2590
ag2591
a(lp5285
I35
ag5280
aag2595
ag2597
ag2599
a(lp5286
I41
ag5280
aag2603
ag2604
a(lp5287
I44
ag5280
aag2609
ag2610
ag2611
ag2612
ag2613
a(lp5288
I50
ag5280
aag2617
ag2618
a(lp5289
I53
ag5280
aag2621
a(lp5290
I55
ag5280
aag2624
ag2625
ag2626
ag2627
a(lp5291
I61
ag5280
aag2631
ag2632
a(lp5292
I64
ag5280
aag2636
ag2637
ag2638
a(lp5293
I68
ag5280
aag2641
ag2642
ag2643
ag2644
a(lp5294
I75
ag5280
aag2648
ag2649
a(lp5295
I78
ag5280
aag2653
ag2654
ag2655
a(lp5296
I82
ag5280
aag2659
ag2660
a(lp5297
I85
ag5280
aag2664
ag2666
a(lp5298
I88
ag5280
aag2669
ag2670
ag2671
ag2672
ag2673
ag2674
ag2675
ag2676
ag2677
ag2678
ag2679
a(lp5299
I101
ag5280
aag2682
ag2683
ag2684
ag2685
ag2686
ag2687
ag2688
ag2689
ag2691
ag2692
ag2693
ag2694
a(lp5300
I115
ag5280
aag2698
ag2699
ag2700
ag2701
a(lp5301
I120
ag5280
aag2704
ag2705
ag2706
ag2707
a(lp5302
I125
ag5280
aag2710
ag2711
ag2712
ag2713
ag2714
ag2715
a(lp5303
I132
ag5280
aag2718
ag2719
ag2720
ag2721
ag2722
ag2723
ag2724
ag2725
a(lp5304
I141
ag5280
aag2729
ag2730
ag2731
ag2732
a(lp5305
I146
ag5280
aag2736
ag2737
ag2738
a(lp5306
I150
ag5280
aag2741
ag2742
ag2744
ag2745
ag2746
ag2747
ag2748
a(lp5307
I158
ag5280
aag2752
ag2753
ag2754
a(lp5308
I162
ag5280
aag2758
ag2759
ag2760
a(lp5309
I166
ag5280
aag2763
ag2764
ag2765
ag2766
a(lp5310
I171
ag5280
aag2770
ag2771
a(lp5311
I174
ag5280
aag2774
ag2775
ag2776
ag2777
ag2778
ag2779
ag2780
ag2781
ag2782
ag2783
a(lp5312
I185
ag5280
aag2786
ag2787
ag2788
ag2789
ag2790
ag2791
ag2792
ag2793
a(lp5313
I194
ag5280
aag2796
ag2797
ag2798
ag2799
ag2800
ag2801
ag2802
a(lp5314
I202
ag5280
aag2806
ag2807
ag2808
a(lp5315
I206
ag5280
aag2811
ag2812
ag2813
a(lp5316
I211
ag5280
aag2817
ag2818
ag2819
ag2820
a(lp5317
I216
ag5280
aag2823
ag2824
ag2825
ag2826
a(lp5318
I221
ag5280
aag2830
ag2831
a(lp5319
I224
ag5280
aag2834
a(lp5320
I226
ag5280
aag2837
ag2838
ag2839
ag2841
a(lp5321
I231
ag5280
aag2845
ag2846
a(lp5322
I234
ag5280
aag2849
ag2850
ag2851
ag2852
ag2853
ag2854
ag2855
ag2856
a(lp5323
I244
ag5280
aag2859
ag2860
ag2861
ag2862
ag2863
ag2864
ag2865
ag2866
ag2867
ag2868
a(lp5324
I256
ag5280
aag2871
ag2872
ag2873
ag2874
ag2875
a(lp5325
I262
ag5280
aag2879
ag2880
a(lp5326
I265
ag5280
aag2884
ag2885
ag2886
a(lp5327
I269
ag5280
aag2889
ag2890
ag2891
ag2892
a(lp5328
I275
ag5280
aag2895
ag2896
ag2897
ag2898
ag2899
ag2900
ag2901
ag2902
a(lp5329
I284
ag5280
aag2906
ag2907
a(lp5330
I287
ag5280
aag2911
ag2912
a(lp5331
I290
ag5280
aag2915
ag2916
ag2917
ag2918
ag2919
ag2920
ag2921
ag2922
ag2923
ag2924
a(lp5332
I301
ag5280
aag2928
ag2929
ag2930
a(lp5333
I305
ag5280
aag2934
ag2935
a(lp5334
I308
ag5280
aag2939
ag2940
ag2941
a(lp5335
I312
ag5280
aag2945
ag2946
ag2947
ag2948
a(lp5336
I317
ag5280
aag2951
ag2952
ag2953
ag2954
a(lp5337
I323
ag5280
aag2957
ag2958
ag2959
ag2960
ag2961
ag2962
ag2963
ag2964
ag2965
ag2966
a(lp5338
I334
ag5280
aag2969
ag2970
ag2971
ag2972
ag2973
ag2974
ag2975
ag2976
ag2977
ag2978
ag2979
a(lp5339
I348
ag5280
aag2983
ag2984
a(lp5340
I351
ag5280
aag2987
ag2988
ag2989
ag2990
ag2991
ag2992
ag2993
ag2994
ag2995
ag2996
ag2997
a(lp5341
I363
ag5280
aag3000
ag3001
ag3002
ag3003
ag3004
a(lp5342
I370
ag5280
aag3007
ag3008
ag3009
ag3010
ag3011
ag3012
ag3013
a(lp5343
I378
ag5280
aag3016
ag3017
ag3018
ag3019
a(lp5344
I383
ag5280
aag3023
ag3024
a(lp5345
I386
ag5280
aag3028
ag3029
ag3030
a(lp5346
I390
ag5280
aag3033
ag3034
ag3035
ag3036
ag3037
a(lp5347
I397
ag5280
aag3040
ag3041
ag3042
ag3043
ag3044
ag3045
ag3046
ag3047
ag3048
a(lp5348
I407
ag5280
aag3052
ag3053
a(lp5349
I410
ag5280
aag3056
ag3057
ag3058
ag3059
ag3060
ag3061
a(lp5350
I418
ag5280
aag3065
ag3066
ag3067
a(lp5351
I422
ag5280
aag3070
ag3071
ag3072
ag3073
ag3074
ag3075
ag3076
ag3077
ag3078
ag3079
a(lp5352
I434
ag5280
aag3082
ag3083
ag3084
ag3085
ag3086
ag3087
ag3088
ag3089
ag3090
ag3091
ag3092
ag3093
a(lp5353
I447
ag5280
aag3097
ag3098
a(lp5354
I450
ag5280
aag3102
ag3103
a(lp5355
I453
ag5280
aag3106
ag3107
ag3108
ag3109
ag3110
ag3111
ag3112
a(lp5356
I462
ag5280
aag3115
ag3116
ag3118
ag3119
ag3120
ag3121
ag3122
ag3123
ag3124
ag3125
a(lp5357
I473
ag5280
aag3129
ag3130
ag3131
ag3132
a(lp5358
I478
ag5280
aag3135
ag3136
ag3137
ag3138
ag3139
a(lp5359
I484
ag5280
aag3143
ag3144
a(lp5360
I487
ag5280
aag3148
ag3149
ag3150
a(lp5361
I491
ag5280
aag3153
ag3154
ag3155
ag3156
ag3157
ag3158
a(lp5362
I498
ag5280
aag3161
ag3162
ag3163
ag3164
ag3165
ag3166
ag3167
ag3168
ag3169
a(lp5363
I508
ag5280
aag3173
ag3174
a(lp5364
I511
ag5280
aag3177
ag3178
ag3179
ag3180
ag3181
a(lp5365
I517
ag5280
aag3185
ag3186
a(lp5366
I520
ag5280
aag3189
ag3190
ag3191
ag3192
a(lp5367
I525
ag5280
aag3196
ag3197
a(lp5368
I528
ag5280
aag3200
ag3201
ag3202
ag3203
a(lp5369
I533
ag5280
aag3207
ag3208
a(lp5370
I536
ag5280
aag3211
ag3212
ag3213
ag3214
ag3215
ag3216
ag3217
a(lp5371
I544
ag5280
aag3221
ag3222
ag3223
a(lp5372
I548
ag5280
aag3226
ag3227
ag3228
ag3229
ag3230
ag3231
ag3232
ag3233
ag3234
ag3235
ag3236
ag3237
ag3238
ag3239
ag3240
a(lp5373
I564
ag5280
aag3243
ag3244
ag3245
ag3246
a(lp5374
I570
ag5280
aag3249
ag3250
ag3251
ag3252
ag3253
ag3254
ag3255
a(lp5375
I578
ag5280
aag3258
ag3259
ag3260
ag3261
ag3262
ag3263
ag3264
a(lp5376
I587
ag5280
aag3267
ag3268
ag3269
ag3270
ag3271
ag3272
a(lp5377
I595
ag5280
aag3275
a(lp5378
I597
ag5280
aag3278
ag3279
ag3280
ag3281
ag3282
a(lp5379
I603
ag5280
aag3285
ag3286
ag3287
a(lp5380
I608
ag5280
aag3290
ag3291
ag3292
ag3293
ag3294
ag3295
ag3296
ag3297
ag3298
a(lp5381
I618
ag5280
aag3301
ag3302
ag3303
ag3304
ag3305
ag3306
ag3307
ag3308
a(lp5382
I627
ag5280
aag3312
ag3313
ag3314
a(lp5383
I631
ag5280
aag3318
ag3319
ag3320
a(lp5384
I635
ag5280
aag3324
ag3325
a(lp5385
I638
ag5280
aag3328
ag3329
a(lp5386
I642
ag5280
aag3333
ag3334
ag3335
ag3336
a(lp5387
I647
ag5280
aag3340
ag3341
ag3342
ag3343
a(lp5388
I652
ag5280
aag3346
ag3347
ag3348
ag3349
ag3350
ag3351
ag3352
a(lp5389
I660
ag5280
aag3355
ag3356
ag3357
ag3358
a(lp5390
I665
ag5280
aag3362
ag3363
a(lp5391
I668
ag5280
aag3366
a(lp5392
I670
ag5280
aag3369
ag3370
ag3371
ag3372
ag3373
ag3374
ag3375
ag3376
ag3377
ag3378
ag3379
a(lp5393
I683
ag5280
aag3382
ag3383
ag3384
ag3385
ag3386
ag3387
ag3388
ag3389
a(lp5394
I692
ag5280
aag3393
ag3394
a(lp5395
I695
ag5280
aag3398
ag3399
ag3400
ag3401
a(lp5396
I700
ag5280
aag3404
ag3405
ag3406
a(lp5397
I704
ag5280
aag3410
ag3411
ag3412
a(lp5398
I708
ag5280
aag3415
ag3416
ag3417
a(lp5399
I713
ag5280
aag3420
ag3421
ag3422
ag3423
ag3424
ag3425
ag3426
ag3427
a(lp5400
I723
ag5280
aag3430
ag3431
ag3432
ag3433
ag3434
ag3435
ag3436
ag3437
ag3438
ag3439
ag3440
ag3441
a(lp5401
I736
ag5280
aag3444
ag3445
ag3446
ag3447
ag3448
ag3449
ag3450
ag3451
ag3452
ag3453
a(lp5402
I749
ag5280
aag3457
ag3458
a(lp5403
I752
ag5280
aag3461
a(lp5404
I755
ag5280
aag3464
ag3465
ag3466
ag3467
ag3468
ag3469
a(lp5405
I763
ag5280
aag3472
a(lp5406
I766
ag5280
aag3475
a(lp5407
I769
ag5280
aag3478
ag3479
ag3480
ag3481
ag3482
a(lp5408
I776
ag5280
aag3485
a(lp5409
I779
ag5280
aag3488
a(lp5410
I782
ag5280
aag3491
ag3492
ag3493
ag3494
ag3495
ag3496
ag3497
ag3498
a(lp5411
I794
ag5280
aag3501
ag3502
ag3503
ag3504
ag3505
ag3506
ag3507
ag3508
ag3509
a(lp5412
I808
ag5280
aag3513
ag3514
ag3515
ag3516
ag3517
ag3518
ag3519
ag3520
ag3521
ag3522
ag3523
a(lp5413
I825
ag5280
aag3526
ag3527
ag3528
ag3529
ag3530
ag3531
ag3532
ag3533
ag3534
ag3535
ag3536
ag3537
ag3538
ag3539
ag3540
ag3541
ag3542
ag3543
ag3544
a(lp5414
I851
ag5280
aag3548
ag3549
ag3550
ag3551
ag3552
ag3553
ag3554
ag3555
ag3556
a(lp5415
I865
ag5280
aag3559
ag3560
ag3561
ag3562
ag3563
ag3564
ag3565
ag3566
ag3567
ag3568
ag3569
ag3570
ag3571
ag3572
ag3573
a(lp5416
I886
ag5280
aag3576
a(lp5417
I889
ag5280
aag3579
ag3580
ag3581
ag3582
ag3583
ag3584
ag3585
ag3586
ag3587
a(lp5418
I900
ag5280
aag3590
ag3591
ag3592
ag3593
a(lp5419
I905
ag5280
aag3597
ag3598
a(lp5420
I908
ag5280
aag3601
a(lp5421
I911
ag5280
aag3604
ag3605
ag3606
ag3607
ag3608
ag3609
a(lp5422
I919
ag5280
aag3612
a(lp5423
I922
ag5280
aag3615
a(lp5424
I925
ag5280
aag3618
ag3619
ag3620
ag3621
ag3622
a(lp5425
I932
ag5280
aag3625
ag3626
a(lp5426
I936
ag5280
aag3629
a(lp5427
I939
ag5280
aag3632
ag3633
ag3634
ag3635
ag3636
ag3637
ag3638
ag3639
a(lp5428
I951
ag5280
aag3642
ag3643
ag3644
ag3645
ag3646
ag3647
ag3648
ag3649
ag3650
a(lp5429
I965
ag5280
aag3653
ag3654
ag3655
ag3656
ag3657
ag3658
ag3659
ag3660
ag3661
ag3662
ag3663
a(lp5430
I982
ag5280
aag3666
ag3667
ag3668
ag3669
ag3670
ag3671
ag3672
ag3673
ag3674
ag3675
ag3676
ag3677
ag3678
ag3679
ag3680
ag3681
ag3682
ag3683
ag3684
a(lp5431
I1008
ag5280
aag3687
ag3688
ag3689
ag3690
ag3691
ag3692
ag3693
ag3694
ag3695
a(lp5432
I1022
ag5280
aag3699
ag3700
ag3701
ag3702
ag3703
ag3704
ag3705
ag3706
ag3707
ag3708
ag3709
ag3710
ag3711
ag3712
ag3713
a(lp5433
I1043
ag5280
aag3716
a(lp5434
I1046
ag5280
aag3719
ag3720
ag3721
ag3722
ag3723
a(lp5435
I1053
ag5280
aag3726
ag3727
ag3728
ag3729
ag3730
ag3731
a(lp5436
I1060
ag5280
aag3734
ag3735
ag3736
a(lp5437
I1064
ag5280
aag3739
ag3740
ag3741
a(lp5438
I1068
ag5280
aag3744
a(lp5439
I1071
ag5280
aag3747
ag3748
ag3749
ag3750
ag3751
ag3752
a(lp5440
I1079
ag5280
aag3755
a(lp5441
I1082
ag5280
aag3758
a(lp5442
I1085
ag5280
aag3761
ag3762
ag3763
ag3764
ag3765
a(lp5443
I1092
ag5280
aag3768
a(lp5444
I1095
ag5280
aag3771
a(lp5445
I1098
ag5280
aag3774
ag3775
ag3776
ag3777
ag3778
ag3779
ag3780
ag3781
a(lp5446
I1110
ag5280
aag3784
ag3785
ag3786
ag3787
ag3788
ag3789
ag3790
ag3791
ag3792
a(lp5447
I1124
ag5280
aag3796
ag3797
ag3798
ag3799
ag3800
ag3801
ag3802
ag3803
ag3804
ag3805
ag3806
a(lp5448
I1141
ag5280
aag3809
ag3810
ag3811
ag3812
ag3813
ag3814
ag3815
ag3816
ag3817
ag3818
ag3819
ag3820
ag3821
ag3822
ag3823
ag3824
ag3825
ag3826
ag3827
a(lp5449
I1167
ag5280
aag3830
ag3831
ag3832
ag3833
ag3834
ag3835
ag3836
ag3837
ag3838
a(lp5450
I1181
ag5280
aag3841
ag3842
ag3843
ag3844
ag3845
ag3846
ag3847
ag3848
ag3849
ag3850
ag3851
ag3852
ag3853
ag3854
ag3855
a(lp5451
I1202
ag5280
aag3858
a(lp5452
I1205
ag5280
aag3861
ag3862
ag3863
ag3864
ag3865
a(lp5453
I1212
ag5280
aag3868
ag3869
ag3870
ag3871
ag3872
ag3873
a(lp5454
I1219
ag5280
aag3876
ag3877
ag3878
a(lp5455
I1223
ag5280
aag3881
ag3882
ag3883
a(lp5456
I1227
ag5280
aag3886
a(lp5457
I1230
ag5280
aag3889
ag3890
ag3891
ag3892
ag3893
ag3894
a(lp5458
I1238
ag5280
aag3897
ag3898
a(lp5459
I1242
ag5280
aag3901
a(lp5460
I1245
ag5280
aag3904
ag3905
ag3906
ag3907
ag3908
a(lp5461
I1252
ag5280
aag3911
ag3912
a(lp5462
I1256
ag5280
aag3915
a(lp5463
I1259
ag5280
aag3918
ag3919
ag3920
ag3921
ag3922
ag3923
ag3924
ag3925
a(lp5464
I1271
ag5280
aag3928
ag3929
ag3930
ag3931
ag3932
ag3933
ag3934
a(lp5465
I1282
ag5280
aag3937
ag3938
ag3939
ag3940
ag3941
ag3942
ag3943
ag3944
ag3945
ag3946
ag3947
a(lp5466
I1299
ag5280
aag3950
ag3951
ag3952
ag3953
ag3954
ag3955
ag3956
ag3957
ag3958
ag3959
ag3960
ag3961
ag3962
ag3963
ag3964
ag3965
ag3966
ag3967
ag3968
a(lp5467
I1325
ag5280
aag3971
ag3972
ag3973
ag3974
ag3975
ag3976
ag3977
ag3978
ag3979
a(lp5468
I1339
ag5280
aag3982
ag3983
ag3984
ag3985
ag3986
ag3987
ag3988
ag3989
ag3990
ag3991
ag3992
ag3993
ag3994
a(lp5469
I1357
ag5280
aag3997
a(lp5470
I1360
ag5280
aag4000
ag4001
ag4002
ag4003
ag4004
a(lp5471
I1367
ag5280
aag4007
ag4008
ag4009
ag4010
ag4011
ag4012
a(lp5472
I1374
ag5280
aag4015
ag4016
ag4017
a(lp5473
I1378
ag5280
aag4021
ag4022
a(lp5474
I1381
ag5280
aag4025
a(lp5475
I1384
ag5280
aag4028
ag4029
ag4030
ag4031
ag4032
ag4033
a(lp5476
I1392
ag5280
aag4036
ag4037
a(lp5477
I1396
ag5280
aag4040
a(lp5478
I1399
ag5280
aag4043
ag4044
ag4045
ag4046
ag4047
a(lp5479
I1406
ag5280
aag4050
ag4051
a(lp5480
I1410
ag5280
aag4054
a(lp5481
I1413
ag5280
aag4057
ag4058
ag4059
ag4060
ag4061
ag4062
ag4063
ag4064
a(lp5482
I1425
ag5280
aag4067
ag4068
ag4069
ag4070
ag4071
ag4072
ag4073
ag4074
ag4075
a(lp5483
I1439
ag5280
aag4079
ag4080
ag4081
ag4082
ag4083
ag4084
ag4085
ag4086
ag4087
ag4088
ag4089
a(lp5484
I1456
ag5280
aag4092
ag4093
ag4094
ag4095
ag4096
ag4097
ag4098
ag4099
ag4100
ag4101
ag4102
ag4103
ag4104
ag4105
ag4106
ag4107
ag4108
ag4109
ag4110
a(lp5485
I1482
ag5280
aag4113
ag4114
ag4115
ag4116
ag4117
ag4118
ag4119
ag4120
ag4121
a(lp5486
I1496
ag5280
aag4124
ag4125
ag4126
ag4127
ag4128
ag4129
ag4130
ag4131
ag4132
ag4133
ag4134
ag4135
ag4136
ag4137
ag4138
a(lp5487
I1517
ag5280
aag4141
a(lp5488
I1520
ag5280
aag4144
ag4145
ag4146
ag4147
ag4148
a(lp5489
I1527
ag5280
aag4151
ag4152
ag4153
ag4154
ag4155
ag4156
a(lp5490
I1534
ag5280
aag4159
ag4160
ag4161
a(lp5491
I1538
ag5280
aag4165
ag4166
a(lp5492
I1541
ag5280
aag4169
a(lp5493
I1544
ag5280
aag4172
ag4173
ag4174
ag4175
ag4176
ag4177
a(lp5494
I1552
ag5280
aag4180
ag4181
a(lp5495
I1556
ag5280
aag4184
a(lp5496
I1559
ag5280
aag4187
ag4188
ag4189
ag4190
ag4191
a(lp5497
I1566
ag5280
aag4194
ag4195
a(lp5498
I1570
ag5280
aag4198
a(lp5499
I1573
ag5280
aag4201
ag4202
ag4203
ag4204
ag4205
ag4206
ag4207
ag4208
a(lp5500
I1585
ag5280
aag4211
ag4212
ag4213
ag4214
ag4215
ag4216
ag4217
a(lp5501
I1596
ag5280
aag4220
ag4221
ag4222
ag4223
ag4224
ag4225
ag4226
ag4227
ag4228
a(lp5502
I1610
ag5280
aag4231
ag4232
ag4233
ag4234
ag4235
ag4236
ag4237
ag4238
ag4239
ag4240
ag4241
ag4242
ag4243
ag4244
ag4245
ag4246
ag4247
a(lp5503
I1633
ag5280
aag4250
ag4251
ag4252
ag4253
ag4254
ag4255
ag4256
ag4257
ag4258
a(lp5504
I1647
ag5280
aag4261
ag4262
ag4263
ag4264
ag4265
ag4266
ag4267
ag4268
ag4269
ag4270
ag4271
ag4272
ag4273
a(lp5505
I1665
ag5280
aag4276
a(lp5506
I1668
ag5280
aag4279
ag4280
ag4281
ag4282
ag4283
a(lp5507
I1675
ag5280
aag4286
ag4287
ag4288
ag4289
ag4290
ag4291
a(lp5508
I1682
ag5280
aag4294
ag4295
ag4296
ag4297
a(lp5509
I1687
ag5280
aag4301
ag4302
a(lp5510
I1690
ag5280
aag4305
a(lp5511
I1693
ag5280
aag4308
ag4309
ag4310
ag4311
ag4312
ag4313
a(lp5512
I1701
ag5280
aag4316
ag4317
a(lp5513
I1705
ag5280
aag4320
a(lp5514
I1708
ag5280
aag4323
ag4324
ag4325
ag4326
ag4327
a(lp5515
I1715
ag5280
aag4330
ag4331
a(lp5516
I1719
ag5280
aag4334
a(lp5517
I1722
ag5280
aag4337
ag4338
ag4339
ag4340
ag4341
ag4342
ag4343
ag4344
ag4345
ag4346
a(lp5518
I1737
ag5280
aag4349
ag4350
ag4351
ag4352
ag4353
ag4354
ag4355
ag4356
ag4357
a(lp5519
I1751
ag5280
aag4360
ag4361
ag4362
ag4363
ag4364
ag4365
ag4366
ag4367
ag4368
ag4369
ag4370
a(lp5520
I1768
ag5280
aag4373
ag4374
ag4375
ag4376
ag4377
ag4378
ag4379
ag4380
ag4381
ag4382
ag4383
ag4384
ag4385
ag4386
ag4387
ag4388
ag4389
ag4390
ag4391
a(lp5521
I1794
ag5280
aag4394
ag4395
ag4396
ag4397
ag4398
ag4399
ag4400
ag4401
ag4402
a(lp5522
I1808
ag5280
aag4405
ag4406
ag4407
ag4408
ag4409
ag4410
ag4411
ag4412
ag4413
ag4414
ag4415
ag4416
ag4417
ag4418
ag4419
a(lp5523
I1829
ag5280
aag4422
a(lp5524
I1832
ag5280
aag4425
ag4426
ag4427
ag4428
ag4429
ag4430
ag4431
ag4432
a(lp5525
I1842
ag5280
aag4436
ag4437
a(lp5526
I1845
ag5280
aag4440
a(lp5527
I1848
ag5280
aag4443
ag4444
ag4445
ag4446
ag4447
ag4448
a(lp5528
I1856
ag5280
aag4451
a(lp5529
I1859
ag5280
aag4454
a(lp5530
I1862
ag5280
aag4457
ag4458
ag4459
ag4460
ag4461
a(lp5531
I1869
ag5280
aag4464
a(lp5532
I1872
ag5280
aag4467
a(lp5533
I1875
ag5280
aag4470
ag4471
ag4472
ag4473
ag4474
ag4475
ag4476
ag4477
a(lp5534
I1887
ag5280
aag4480
ag4481
ag4482
ag4483
ag4484
ag4485
ag4486
ag4487
ag4488
a(lp5535
I1901
ag5280
aag4491
ag4492
ag4493
ag4494
ag4495
ag4496
ag4497
ag4498
ag4499
ag4500
ag4501
a(lp5536
I1918
ag5280
aag4504
ag4505
ag4506
ag4507
ag4508
ag4509
ag4510
ag4511
ag4512
ag4513
ag4514
ag4515
ag4516
ag4517
ag4518
ag4519
ag4520
ag4521
ag4522
a(lp5537
I1944
ag5280
aag4525
ag4526
ag4527
ag4528
ag4529
ag4530
ag4531
ag4532
ag4533
a(lp5538
I1958
ag5280
aag4536
ag4537
ag4538
ag4539
ag4540
ag4541
ag4542
ag4543
ag4544
ag4545
ag4546
ag4547
ag4548
ag4549
ag4550
a(lp5539
I1979
ag5280
aag4553
a(lp5540
I1982
ag5280
aag4556
ag4557
ag4558
ag4559
ag4560
ag4561
ag4562
ag4563
a(lp5541
I1992
ag5280
aag4566
ag4567
ag4568
ag4569
ag4570
ag4571
ag4572
ag4573
ag4574
ag4575
ag4576
ag4577
a(lp5542
I2005
ag5280
aag4580
ag4581
ag4582
ag4583
ag4584
ag4585
ag4586
ag4587
ag4588
a(lp5543
I2017
ag5280
aag4591
ag4592
ag4593
ag4594
ag4595
ag4596
ag4597
ag4598
ag4599
ag4600
ag4601
ag4602
ag4603
ag4604
a(lp5544
I2034
ag5280
aag4607
ag4608
ag4609
ag4610
ag4611
ag4612
ag4613
a(lp5545
I2042
ag5280
aag4617
ag4618
a(lp5546
I2045
ag5280
aag4621
a(lp5547
I2048
ag5280
aag4624
ag4625
a(lp5548
I2051
ag5280
aag4628
ag4629
ag4630
ag4631
ag4632
ag4633
ag4634
a(lp5549
I2059
ag5280
aag4637
ag4638
ag4639
ag4640
ag4641
ag4642
ag4643
ag4644
a(lp5550
I2071
ag5280
aag4647
a(lp5551
I2073
ag5280
aag4650
a(lp5552
I2076
ag5280
aag4653
ag4654
ag4655
ag4656
ag4657
a(lp5553
I2083
ag5280
aag4660
a(lp5554
I2085
ag5280
aag4663
a(lp5555
I2088
ag5280
aag4666
ag4667
ag4668
ag4669
ag4670
ag4671
ag4672
a(lp5556
I2098
ag5280
aag4675
a(lp5557
I2100
ag5280
aag4678
a(lp5558
I2103
ag5280
aag4681
ag4682
ag4683
ag4684
ag4685
ag4686
ag4687
ag4688
ag4689
a(lp5559
I2114
ag5280
aag4692
ag4693
ag4694
ag4695
ag4696
a(lp5560
I2121
ag5280
aag4699
a(lp5561
I2123
ag5280
aag4702
a(lp5562
I2126
ag5280
aag4705
ag4706
ag4707
ag4708
ag4709
a(lp5563
I2133
ag5280
aag4712
a(lp5564
I2135
ag5280
aag4715
a(lp5565
I2138
ag5280
aag4718
ag4719
ag4720
ag4721
ag4722
a(lp5566
I2144
ag5280
aag4725
ag4726
ag4727
ag4728
ag4729
a(lp5567
I2151
ag5280
aag4732
a(lp5568
I2153
ag5280
aag4735
ag4736
ag4737
ag4738
ag4739
ag4740
a(lp5569
I2161
ag5280
aag4743
ag4744
ag4745
ag4746
ag4747
ag4748
ag4749
a(lp5570
I2169
ag5280
aag4752
a(lp5571
I2172
ag5280
aag4755
ag4756
ag4757
ag4758
ag4759
a(lp5572
I2179
ag5280
aag4762
ag4763
ag4764
ag4765
ag4766
ag4767
ag4768
a(lp5573
I2187
ag5280
aag4771
a(lp5574
I2190
ag5280
aag4774
ag4775
ag4776
ag4777
ag4778
ag4779
ag4780
ag4781
a(lp5575
I2202
ag5280
aag4784
ag4785
ag4786
ag4787
ag4788
ag4789
ag4790
a(lp5576
I2213
ag5280
aag4793
ag4794
ag4795
ag4796
ag4797
ag4798
ag4799
ag4800
ag4801
a(lp5577
I2227
ag5280
aag4804
ag4805
ag4806
ag4807
ag4808
ag4809
ag4810
ag4811
ag4812
ag4813
ag4814
ag4815
ag4816
ag4817
ag4818
ag4819
ag4820
a(lp5578
I2250
ag5280
aag4823
ag4824
ag4825
ag4826
ag4827
ag4828
ag4829
a(lp5579
I2261
ag5280
aag4832
ag4833
ag4834
ag4835
ag4836
ag4837
ag4838
ag4839
ag4840
ag4841
ag4842
ag4843
ag4844
a(lp5580
I2279
ag5280
aag4847
a(lp5581
I2282
ag5280
aag4850
ag4851
ag4852
ag4853
ag4854
ag4855
ag4856
a(lp5582
I2291
ag5280
aag4859
ag4860
ag4861
ag4862
a(lp5583
I2296
ag5280
aag4865
ag4866
ag4867
a(lp5584
I2300
ag5280
aag4870
a(lp5585
I2303
ag5280
aag4873
ag4874
ag4875
ag4876
ag4877
ag4878
a(lp5586
I2311
ag5280
aag4881
ag4882
a(lp5587
I2315
ag5280
aag4885
a(lp5588
I2318
ag5280
aag4888
ag4889
ag4890
ag4891
ag4892
a(lp5589
I2325
ag5280
aag4895
ag4896
a(lp5590
I2329
ag5280
aag4899
a(lp5591
I2332
ag5280
aag4902
ag4903
ag4904
ag4905
ag4906
ag4907
ag4908
ag4909
a(lp5592
I2344
ag5280
aag4912
ag4913
ag4914
ag4915
ag4916
ag4917
ag4918
ag4919
ag4920
a(lp5593
I2358
ag5280
aag4923
ag4924
ag4925
ag4926
ag4927
ag4928
ag4929
ag4930
ag4931
ag4932
ag4933
a(lp5594
I2375
ag5280
aag4936
ag4937
ag4938
ag4939
ag4940
ag4941
ag4942
ag4943
ag4944
ag4945
ag4946
ag4947
ag4948
ag4949
ag4950
ag4951
ag4952
ag4953
ag4954
a(lp5595
I2401
ag5280
aag4957
ag4958
ag4959
ag4960
ag4961
ag4962
ag4963
ag4964
ag4965
a(lp5596
I2415
ag5280
aag4968
ag4969
ag4970
ag4971
ag4972
ag4973
ag4974
ag4975
ag4976
ag4977
ag4978
ag4979
ag4980
ag4981
ag4982
a(lp5597
I2436
ag5280
aag4985
a(lp5598
I2439
ag5280
aag4988
ag4989
ag4990
ag4991
ag4992
ag4993
ag4994
ag4995
ag4996
ag4997
a(lp5599
I2451
ag5280
aag5000
ag5001
ag5002
a(lp5600
I2455
ag5280
aag5005
a(lp5601
I2458
ag5280
aag5008
ag5009
ag5010
ag5011
ag5012
ag5013
a(lp5602
I2466
ag5280
aag5016
ag5017
a(lp5603
I2470
ag5280
aag5020
a(lp5604
I2473
ag5280
aag5023
ag5024
ag5025
ag5026
ag5027
a(lp5605
I2480
ag5280
aag5030
ag5031
a(lp5606
I2484
ag5280
aag5034
a(lp5607
I2487
ag5280
aag5037
ag5038
ag5039
ag5040
ag5041
ag5042
ag5043
ag5044
a(lp5608
I2499
ag5280
aag5047
ag5048
ag5049
ag5050
ag5051
ag5052
ag5053
ag5054
ag5055
a(lp5609
I2513
ag5280
aag5058
ag5059
ag5060
ag5061
ag5062
ag5063
ag5064
ag5065
ag5066
ag5067
ag5068
a(lp5610
I2530
ag5280
aag5071
ag5072
ag5073
ag5074
ag5075
ag5076
ag5077
ag5078
ag5079
ag5080
ag5081
ag5082
ag5083
ag5084
ag5085
ag5086
ag5087
ag5088
ag5089
a(lp5611
I2556
ag5280
aag5092
ag5093
ag5094
ag5095
ag5096
ag5097
ag5098
ag5099
ag5100
a(lp5612
I2570
ag5280
aag5103
ag5104
ag5105
ag5106
ag5107
ag5108
ag5109
ag5110
ag5111
ag5112
ag5113
ag5114
ag5115
ag5116
ag5117
a(lp5613
I2591
ag5280
aag5120
a(lp5614
I2594
ag5280
aag5123
ag5124
ag5125
ag5126
ag5127
ag5128
ag5129
a(lp5615
I2603
ag5280
aag5133
ag5134
a(lp5616
I2606
ag5280
aag5137
a(lp5617
I2609
ag5280
aag5140
ag5141
ag5142
ag5143
ag5144
ag5145
a(lp5618
I2617
ag5280
aag5148
a(lp5619
I2620
ag5280
aag5151
a(lp5620
I2623
ag5280
aag5154
ag5155
ag5156
ag5157
ag5158
a(lp5621
I2630
ag5280
aag5161
a(lp5622
I2633
ag5280
aag5164
a(lp5623
I2636
ag5280
aag5167
ag5168
ag5169
ag5170
ag5171
ag5172
ag5173
ag5174
a(lp5624
I2648
ag5280
aag5177
ag5178
ag5179
ag5180
ag5181
ag5182
ag5183
ag5184
ag5185
a(lp5625
I2662
ag5280
aag5188
ag5189
ag5190
ag5191
ag5192
ag5193
ag5194
ag5195
ag5196
ag5197
ag5198
a(lp5626
I2679
ag5280
aag5201
ag5202
ag5203
ag5204
ag5205
ag5206
ag5207
ag5208
ag5209
ag5210
ag5211
ag5212
ag5213
ag5214
ag5215
ag5216
ag5217
ag5218
ag5219
a(lp5627
I2705
ag5280
aag5222
ag5223
ag5224
ag5225
ag5226
ag5227
ag5228
ag5229
ag5230
a(lp5628
I2719
ag5280
aag5233
ag5234
ag5235
ag5236
ag5237
ag5238
ag5239
ag5240
ag5241
ag5242
ag5243
ag5244
ag5245
ag5246
ag5247
a(lp5629
I2740
ag5280
aag5250
a(lp5630
I2743
ag5280
aag5253
ag5254
ag5255
ag5256
ag5257
ag5258
ag5259
ag5260
ag5261
ag5262
a(lp5631
I2755
ag5280
aag5265
ag5266
ag5267
ag5268
ag5269
ag5270
ag5271
ag5272
ag5273
ag5274
ag5275
ag5276
asS'text'
p5632
S'light magic - a spectacular journey (dvd) if there is a "land on the move," it has to be disneyland\'s tomorrowland. with neon spires reaching into the skyline and the roar of futuristic vehicles filling the air, this land is a buzz of activity, light-years ahead of the rest. designed to be futuristic but at the same time, completely down-to-earth in landscaping (every element used in the area\'s landscape is edible) and productive, tomorrowland is an on-going experiment that looks to the coming centuries we stand to face as well as salutes the accomplishments we\'ve already enjoyed. there\'s a great big, beautiful tomorrow for all of us; this very popular land is a disney-style sampling of that day and age. \xc2\xa0theater presentation (continuous) no \xc2\xa0 thrill: .8 \xc2\xa0 theme: .5 \xc2\xa0 \xc2\xa0infant:\xc2\xa0 \xc2\xa0child:\xc2\xa03.4 \xc2\xa0pre-teen:\xc2\xa03.4 \xc2\xa0teen/young\xc2\xa0adult:\xc2\xa03.0 \xc2\xa0adult:\xc2\xa03.5 \xc2\xa0older\xc2\xa0adult:\xc2\xa03.0 \xc2\xa0 \xc2\xa0spinning ride no \xc2\xa0 thrill: .5 \xc2\xa0 theme: 1.0 \xc2\xa0 \xc2\xa0infant:\xc2\xa0 \xc2\xa0child:\xc2\xa03.0 \xc2\xa0pre-teen:\xc2\xa03.3 \xc2\xa0teen/young\xc2\xa0adult:\xc2\xa02.3 \xc2\xa0adult:\xc2\xa02.6 \xc2\xa0older\xc2\xa0adult:\xc2\xa02.0 \xc2\xa0 \xc2\xa0slow moving car yes \xc2\xa0 thrill: .8 \xc2\xa0 theme: .8 \xc2\xa0 \xc2\xa0infant:\xc2\xa0 \xc2\xa0child:\xc2\xa03.9 \xc2\xa0pre-teen:\xc2\xa03.8 \xc2\xa0teen/young\xc2\xa0adult:\xc2\xa03.3 \xc2\xa0adult:\xc2\xa03.3 \xc2\xa0older\xc2\xa0adult:\xc2\xa04.0 \xc2\xa0 \xc2\xa0slow moving car yes \xc2\xa0 thrill: 3.0 \xc2\xa0 theme: 4.0 \xc2\xa0 \xc2\xa0infant:\xc2\xa0 \xc2\xa0child:\xc2\xa0 \xc2\xa0pre-teen:\xc2\xa03.0 \xc2\xa0teen/young\xc2\xa0adult:\xc2\xa03.3 \xc2\xa0adult:\xc2\xa03.5 \xc2\xa0older\xc2\xa0adult:\xc2\xa0 \xc2\xa0 \xc2\xa0slow moving car no \xc2\xa0 thrill: 1.0 \xc2\xa0 theme: 1.0 \xc2\xa0 \xc2\xa0infant:\xc2\xa0 \xc2\xa0child:\xc2\xa03.7 \xc2\xa0pre-teen:\xc2\xa03.0 \xc2\xa0teen/young\xc2\xa0adult:\xc2\xa03.2 \xc2\xa0adult:\xc2\xa03.3 \xc2\xa0older\xc2\xa0adult:\xc2\xa03.3 \xc2\xa0 \xc2\xa0slow moving car no \xc2\xa0 thrill: 2.0 \xc2\xa0 theme: 3.0 \xc2\xa0 \xc2\xa0infant:\xc2\xa0 \xc2\xa0child:\xc2\xa0 \xc2\xa0pre-teen:\xc2\xa0 \xc2\xa0teen/young\xc2\xa0adult:\xc2\xa0 \xc2\xa0adult:\xc2\xa04.0 \xc2\xa0older\xc2\xa0adult:\xc2\xa0 \xc2\xa0 \xc2\xa0slow moving boat no \xc2\xa0 thrill: 3.0 \xc2\xa0 theme: 4.0 \xc2\xa0 \xc2\xa0infant:\xc2\xa00.0 \xc2\xa0child:\xc2\xa04.0 \xc2\xa0pre-teen:\xc2\xa03.0 \xc2\xa0teen/young\xc2\xa0adult:\xc2\xa02.8 \xc2\xa0adult:\xc2\xa03.0 \xc2\xa0older\xc2\xa0adult:\xc2\xa04.0 \xc2\xa0 \xc2\xa0exhibit no \xc2\xa0 thrill: .5 \xc2\xa0 theme: .8 \xc2\xa0 \xc2\xa0infant:\xc2\xa0 \xc2\xa0child:\xc2\xa02.6 \xc2\xa0pre-teen:\xc2\xa03.0 \xc2\xa0teen/young\xc2\xa0adult:\xc2\xa02.0 \xc2\xa0adult:\xc2\xa01.7 \xc2\xa0older\xc2\xa0adult:\xc2\xa02.6 \xc2\xa0 \xc2\xa0theater presentation (scheduled) \xc2\xa0\xc2\xa0tomorrowland terrace no \xc2\xa0 20 minutes \xc2\xa0\xc2\xa0infant: 1 \xc2\xa0 child: 3 \xc2\xa0 pre-teen: 2 \xc2\xa0 teen/young adult: 2 \xc2\xa0 adult: 2 \xc2\xa0 older adult: 2 thrill: unrated \xc2\xa0 theme: unrated \xc2\xa0 \xc2\xa0infant:\xc2\xa0 \xc2\xa0child:\xc2\xa0 \xc2\xa0pre-teen:\xc2\xa0 \xc2\xa0teen/young\xc2\xa0adult:\xc2\xa0 \xc2\xa0adult:\xc2\xa0 \xc2\xa0older\xc2\xa0adult:\xc2\xa0 \xc2\xa0 \xc2\xa0thrill ride yes \xc2\xa0 thrill: 1.0 \xc2\xa0 theme: 1.0 \xc2\xa0 \xc2\xa0infant:\xc2\xa0 \xc2\xa0child:\xc2\xa03.8 \xc2\xa0pre-teen:\xc2\xa03.9 \xc2\xa0teen/young\xc2\xa0adult:\xc2\xa03.9 \xc2\xa0adult:\xc2\xa03.9 \xc2\xa0older\xc2\xa0adult:\xc2\xa04.0 \xc2\xa0 \xc2\xa0simulator yes \xc2\xa0 thrill: 1.0 \xc2\xa0 theme: 1.0 \xc2\xa0 \xc2\xa0infant:\xc2\xa0 \xc2\xa0child:\xc2\xa03.3 \xc2\xa0pre-teen:\xc2\xa03.4 \xc2\xa0teen/young\xc2\xa0adult:\xc2\xa03.4 \xc2\xa0adult:\xc2\xa03.3 \xc2\xa0older\xc2\xa0adult:\xc2\xa03.5 \xc2\xa0 \xc2\xa0arcade no \xc2\xa0 thrill: .3 \xc2\xa0 theme: .3 \xc2\xa0 \xc2\xa0infant:\xc2\xa0 \xc2\xa0child:\xc2\xa03.0 \xc2\xa0pre-teen:\xc2\xa03.0 \xc2\xa0teen/young\xc2\xa0adult:\xc2\xa01.5 \xc2\xa0adult:\xc2\xa01.7 \xc2\xa0older\xc2\xa0adult:\xc2\xa01.0 \xc2\xa0 disneyland: tomorrowland'
p5633
sS'cleanWordMap'
p5634
(lp5635
g2537
ag2549
ag2562
ag2580
ag2593
ag2622
ag2639
ag2667
ag2680
ag2702
ag2708
ag2716
ag2739
ag2761
ag2772
ag2784
ag2794
ag2809
ag2821
ag2835
ag2847
ag2857
ag2869
ag2887
ag2893
ag2913
ag2949
ag2955
ag2967
ag2985
ag2998
ag3005
ag3014
ag3031
ag3038
ag3054
ag3068
ag3080
ag3104
ag3113
ag3133
ag3151
ag3159
ag3175
ag3187
ag3198
ag3209
ag3224
ag3241
ag3247
ag3256
ag3265
ag3276
ag3283
ag3288
ag3299
ag3326
ag3344
ag3353
ag3367
ag3380
ag3402
ag3413
ag3418
ag3428
ag3442
ag3459
ag3462
ag3470
ag3473
ag3476
ag3483
ag3486
ag3489
ag3499
ag3511
ag3524
ag3546
ag3557
ag3574
ag3577
ag3588
ag3599
ag3602
ag3610
ag3613
ag3616
ag3623
ag3627
ag3630
ag3640
ag3651
ag3664
ag3685
ag3697
ag3714
ag3717
ag3724
ag3732
ag3737
ag3742
ag3745
ag3753
ag3756
ag3759
ag3766
ag3769
ag3772
ag3782
ag3794
ag3807
ag3828
ag3839
ag3856
ag3859
ag3866
ag3874
ag3879
ag3884
ag3887
ag3895
ag3899
ag3902
ag3909
ag3913
ag3916
ag3926
ag3935
ag3948
ag3969
ag3980
ag3995
ag3998
ag4005
ag4013
ag4023
ag4026
ag4034
ag4038
ag4041
ag4048
ag4052
ag4055
ag4065
ag4077
ag4090
ag4111
ag4122
ag4139
ag4142
ag4149
ag4157
ag4167
ag4170
ag4178
ag4182
ag4185
ag4192
ag4196
ag4199
ag4209
ag4218
ag4229
ag4248
ag4259
ag4274
ag4277
ag4284
ag4292
ag4303
ag4306
ag4314
ag4318
ag4321
ag4328
ag4332
ag4335
ag4347
ag4358
ag4371
ag4392
ag4403
ag4420
ag4423
ag4438
ag4441
ag4449
ag4452
ag4455
ag4462
ag4465
ag4468
ag4478
ag4489
ag4502
ag4523
ag4534
ag4551
ag4554
ag4564
ag4578
ag4589
ag4605
ag4619
ag4622
ag4626
ag4635
ag4645
ag4648
ag4651
ag4658
ag4661
ag4664
ag4673
ag4676
ag4679
ag4690
ag4697
ag4700
ag4703
ag4710
ag4713
ag4716
ag4723
ag4730
ag4733
ag4741
ag4750
ag4753
ag4760
ag4769
ag4772
ag4782
ag4791
ag4802
ag4821
ag4830
ag4845
ag4848
ag4857
ag4863
ag4868
ag4871
ag4879
ag4883
ag4886
ag4893
ag4897
ag4900
ag4910
ag4921
ag4934
ag4955
ag4966
ag4983
ag4986
ag4998
ag5003
ag5006
ag5014
ag5018
ag5021
ag5028
ag5032
ag5035
ag5045
ag5056
ag5069
ag5090
ag5101
ag5118
ag5121
ag5135
ag5138
ag5146
ag5149
ag5152
ag5159
ag5162
ag5165
ag5175
ag5186
ag5199
ag5220
ag5231
ag5248
ag5251
ag5263
asS'lines'
p5636
(lp5637
VLight Magic - A Spectacular Journey (DVD)\u000a
p5638
aVIf there is a "land on the move," it has to be Disneyland's Tomorrowland. With neon spires reaching into the skyline and the roar of futuristic vehicles filling the air, this land is a buzz of activity, light-years ahead of the rest. Designed to be futuristic but at the same time, completely down-to-earth in landscaping (every element used in the area's landscape is edible) and productive, Tomorrowland is an on-going experiment that looks to the coming centuries we stand to face as well as salutes the accomplishments we've already enjoyed. There's a great big, beautiful tomorrow for all of us; this very popular land is a Disney-style sampling of that day and age. Theater Presentation (Continuous) No  Thrill: .8  Theme: .5  Infant: Child:3.4 Pre-Teen:3.4 Teen/YoungAdult:3.0 Adult:3.5 OlderAdult:3.0  Spinning Ride No  Thrill: .5  Theme: 1.0  Infant: Child:3.0 Pre-Teen:3.3 Teen/YoungAdult:2.3 Adult:2.6 OlderAdult:2.0  Slow Moving Car Yes  Thrill: .8  Theme: .8  Infant: Child:3.9 Pre-Teen:3.8 Teen/YoungAdult:3.3 Adult:3.3 OlderAdult:4.0  Slow Moving Car Yes  Thrill: 3.0  Theme: 4.0  Infant: Child: Pre-Teen:3.0 Teen/YoungAdult:3.3 Adult:3.5 OlderAdult:  Slow Moving Car No  Thrill: 1.0  Theme: 1.0  Infant: Child:3.7 Pre-Teen:3.0 Teen/YoungAdult:3.2 Adult:3.3 OlderAdult:3.3  Slow Moving Car No  Thrill: 2.0  Theme: 3.0  Infant: Child: Pre-Teen: Teen/YoungAdult: Adult:4.0 OlderAdult:  Slow Moving Boat No  Thrill: 3.0  Theme: 4.0  Infant:0.0 Child:4.0 Pre-Teen:3.0 Teen/YoungAdult:2.8 Adult:3.0 OlderAdult:4.0  Exhibit No  Thrill: .5  Theme: .8  Infant: Child:2.6 Pre-Teen:3.0 Teen/YoungAdult:2.0 Adult:1.7 OlderAdult:2.6  Theater Presentation (Scheduled) Tomorrowland Terrace No  20 minutes Infant: 1  Child: 3  Pre-Teen: 2  Teen/Young Adult: 2  Adult: 2  Older Adult: 2 Thrill: Unrated  Theme: Unrated  Infant: Child: Pre-Teen: Teen/YoungAdult: Adult: OlderAdult:  Thrill Ride Yes  Thrill: 1.0  Theme: 1.0  Infant: Child:3.8 Pre-Teen:3.9 Teen/YoungAdult:3.9 Adult:3.9 OlderAdult:4.0  Simulator Yes  Thrill: 1.0  Theme: 1.0  Infant: Child:3.3 Pre-Teen:3.4 Teen/YoungAdult:3.4 Adult:3.3 OlderAdult:3.5  Arcade No  Thrill: .3  Theme: .3  Infant: Child:3.0 Pre-Teen:3.0 Teen/YoungAdult:1.5 Adult:1.7 OlderAdult:1.0 \u000a
p5639
aVDisneyland: Tomorrowland
p5640
asS'docType'
p5641
S'src'
p5642
sS'newfmap'
p5643
(lp5644
g4
ag8
ag10
ag12
ag14
ag17
ag19
ag21
ag23
ag26
ag28
ag30
ag32
ag35
ag37
ag39
ag41
ag44
ag46
ag48
ag50
ag53
ag55
ag57
ag59
ag62
ag64
ag66
ag68
ag71
ag73
ag75
ag77
ag80
ag82
ag84
ag86
ag89
ag91
ag93
ag95
ag98
ag100
ag102
ag104
ag107
ag109
ag111
ag113
ag116
ag118
ag120
ag122
ag125
ag127
ag129
ag131
ag134
ag136
ag138
ag140
ag143
ag145
ag147
ag149
ag152
ag154
ag156
ag158
ag161
ag163
ag165
ag167
ag170
ag172
ag174
ag176
ag179
ag181
ag183
ag185
ag188
ag190
ag192
ag194
ag197
ag199
ag201
ag203
ag206
ag208
ag210
ag212
ag215
ag217
ag219
ag221
ag224
ag226
ag228
ag230
ag233
ag235
ag237
ag239
ag242
ag244
ag246
ag248
ag251
ag253
ag255
ag257
ag260
ag262
ag264
ag266
ag269
ag271
ag273
ag275
ag278
ag280
ag282
ag284
ag287
ag289
ag291
ag293
ag296
ag298
ag300
ag302
ag305
ag307
ag309
ag311
ag314
ag316
ag318
ag320
ag323
ag325
ag327
ag329
ag332
ag334
ag336
ag338
ag341
ag343
ag345
ag347
ag350
ag352
ag354
ag356
ag359
ag361
ag363
ag365
ag368
ag370
ag372
ag374
ag377
ag379
ag381
ag383
ag386
ag388
ag390
ag392
ag395
ag397
ag399
ag401
ag404
ag406
ag408
ag410
ag413
ag415
ag417
ag419
ag422
ag424
ag426
ag428
ag431
ag433
ag435
ag437
ag440
ag442
ag444
ag446
ag449
ag451
ag453
ag455
ag458
ag460
ag462
ag464
ag467
ag469
ag471
ag473
ag476
ag478
ag480
ag482
ag485
ag487
ag489
ag491
ag494
ag496
ag498
ag500
ag503
ag505
ag507
ag509
ag512
ag514
ag516
ag518
ag521
ag523
ag525
ag527
ag530
ag532
ag534
ag536
ag539
ag541
ag543
ag545
ag548
ag550
ag552
ag554
ag557
ag559
ag561
ag563
ag566
ag568
ag570
ag572
ag575
ag577
ag579
ag581
ag584
ag586
ag588
ag590
ag593
ag595
ag597
ag599
ag602
ag604
ag606
ag611
ag613
ag615
ag617
ag620
ag622
ag624
ag632
ag637
ag643
ag646
ag648
ag650
ag663
ag669
ag672
ag674
ag676
ag678
ag681
ag683
ag685
ag687
ag690
ag692
ag694
ag696
ag699
ag701
ag703
ag705
ag708
ag710
ag712
ag714
ag716
ag718
ag720
ag722
ag725
ag727
ag729
ag731
ag734
ag736
ag738
ag740
ag742
ag746
ag751
ag753
ag757
ag759
ag761
ag763
ag771
ag776
ag782
ag787
ag802
ag808
ag811
ag813
ag815
ag817
ag820
ag822
ag824
ag826
ag829
ag831
ag833
ag835
ag838
ag840
ag842
ag844
ag847
ag849
ag851
ag853
ag855
ag857
ag859
ag864
ag866
ag868
ag875
ag877
ag879
ag882
ag884
ag886
ag888
ag891
ag893
ag895
ag908
ag910
ag914
ag916
ag918
ag920
ag933
ag939
ag941
ag943
ag945
ag958
ag964
ag967
ag969
ag971
ag973
ag976
ag978
ag980
ag982
ag985
ag987
ag989
ag991
ag994
ag996
ag998
ag1000
ag1003
ag1005
ag1007
ag1011
ag1013
ag1015
ag1020
ag1022
ag1024
ag1031
ag1033
ag1035
ag1038
ag1040
ag1042
ag1044
ag1047
ag1049
ag1051
ag1064
ag1066
ag1070
ag1073
ag1075
ag1077
ag1090
ag1096
ag1099
ag1101
ag1103
ag1105
ag1116
ag1122
ag1125
ag1127
ag1129
ag1131
ag1134
ag1138
ag1140
ag1143
ag1145
ag1147
ag1149
ag1152
ag1154
ag1156
ag1158
ag1161
ag1163
ag1165
ag1167
ag1169
ag1171
ag1178
ag1180
ag1182
ag1189
ag1191
ag1193
ag1196
ag1198
ag1200
ag1213
ag1217
ag1224
ag1226
ag1239
ag1245
ag1250
ag1265
ag1271
ag1274
ag1276
ag1278
ag1280
ag1283
ag1287
ag1289
ag1292
ag1294
ag1296
ag1298
ag1301
ag1303
ag1305
ag1307
ag1310
ag1312
ag1314
ag1316
ag1318
ag1320
ag1327
ag1329
ag1331
ag1338
ag1340
ag1342
ag1345
ag1347
ag1349
ag1362
ag1366
ag1368
ag1371
ag1373
ag1375
ag1377
ag1388
ag1394
ag1397
ag1399
ag1401
ag1409
ag1414
ag1420
ag1423
ag1425
ag1427
ag1429
ag1432
ag1434
ag1436
ag1438
ag1441
ag1443
ag1445
ag1447
ag1450
ag1452
ag1454
ag1456
ag1459
ag1461
ag1463
ag1465
ag1467
ag1469
ag1471
ag1476
ag1478
ag1480
ag1487
ag1489
ag1491
ag1494
ag1496
ag1498
ag1500
ag1511
ag1515
ag1517
ag1520
ag1522
ag1524
ag1532
ag1537
ag1543
ag1546
ag1548
ag1550
ag1552
ag1560
ag1563
ag1565
ag1567
ag1569
ag1572
ag1574
ag1576
ag1578
ag1581
ag1585
ag1587
ag1590
ag1592
ag1594
ag1596
ag1599
ag1601
ag1603
ag1605
ag1608
ag1610
ag1612
ag1616
ag1618
ag1622
ag1625
ag1627
ag1629
ag1631
ag1637
ag1642
ag1646
ag1648
ag1650
ag1652
ag1654
ag1662
ag1667
ag1673
ag1675
ag1677
ag1679
ag1692
ag1698
ag1701
ag1703
ag1705
ag1707
ag1710
ag1714
ag1716
ag1719
ag1721
ag1723
ag1725
ag1728
ag1730
ag1732
ag1734
ag1737
ag1739
ag1741
ag1743
ag1745
ag1747
ag1751
ag1754
ag1756
ag1758
ag1760
ag1763
ag1765
ag1767
ag1769
ag1772
ag1774
ag1776
ag1778
ag1781
ag1783
ag1785
ag1787
ag1790
ag1792
ag1794
ag1796
ag1798
ag1800
ag1802
ag1804
ag1807
ag1809
ag1811
ag1813
ag1816
ag1818
ag1820
ag1822
ag1825
ag1827
ag1829
ag1831
ag1834
ag1836
ag1838
ag1840
ag1842
ag1844
ag1846
ag1848
ag1851
ag1853
ag1855
ag1857
ag1860
ag1862
ag1864
ag1868
ag1872
ag1874
ag1877
ag1879
ag1881
ag1883
ag1886
ag1888
ag1890
ag1894
ag1900
ag1903
ag1905
ag1907
ag1909
ag1912
ag1914
ag1916
ag1918
ag1920
ag1922
ag1924
ag1928
ag1930
ag1934
ag1937
ag1939
ag1941
ag1943
ag1945
ag1947
ag1949
ag1953
ag1959
ag1962
ag1964
ag1966
ag1968
ag1971
ag1973
ag1975
ag1977
ag1979
ag1981
ag1983
ag1985
ag1988
ag1990
ag1994
ag1997
ag1999
ag2001
ag2003
ag2009
ag2014
ag2018
ag2020
ag2023
ag2025
ag2027
ag2029
ag2035
ag2040
ag2046
ag2049
ag2051
ag2053
ag2055
ag2058
ag2060
ag2062
ag2064
ag2067
ag2069
ag2071
ag2073
ag2076
ag2078
ag2080
ag2082
ag2085
ag2087
ag2089
ag2091
ag2093
ag2095
ag2097
ag2099
ag2102
ag2104
ag2106
ag2108
ag2111
ag2113
ag2115
ag2117
ag2120
ag2122
ag2124
ag2128
ag2130
ag2137
ag2139
ag2141
ag2148
ag2150
ag2163
ag2169
ag2174
ag2189
ag2195
ag2198
ag2200
ag2202
ag2204
ag2207
ag2209
ag2211
ag2213
ag2216
ag2218
ag2220
ag2222
ag2225
ag2227
ag2229
ag2231
ag2234
ag2236
ag2238
ag2242
ag2244
ag2246
ag2248
ag2251
ag2253
ag2255
ag2257
ag2260
ag2262
ag2264
ag2268
ag2277
ag2279
ag2288
ag2290
ag2303
ag2309
ag2314
ag2329
ag2335
ag2338
ag2340
ag2342
ag2344
ag2347
ag2349
ag2351
ag2353
ag2356
ag2358
ag2360
ag2362
ag2365
ag2367
ag2369
ag2371
ag2374
ag2376
ag2378
ag2380
ag2382
ag2384
ag2386
ag2388
ag2391
ag2393
ag2395
ag2397
ag2401
ag2403
ag2408
ag2412
ag2414
ag2416
ag2418
ag2420
ag2428
ag2433
ag2439
ag2441
ag2443
ag2445
ag2458
ag2464
ag2467
ag2469
ag2471
ag2473
ag2476
ag2480
ag2482
ag2485
ag2487
ag2489
ag2491
ag2494
ag2496
ag2498
ag2500
ag2503
ag2505
ag2507
ag2509
ag2511
ag2513
ag2517
ag2520
ag2522
ag2524
ag2526
ag2529
ag2531
ag2533
asS'featureMap'
p5645
(lp5646
(lp5647
I0
aI4
ag5
ag6
ag9
ag11
ag13
aa(lp5648
I6
aI10
ag15
ag16
ag18
ag20
ag22
aa(lp5649
I16
aI26
ag24
ag25
ag27
ag29
ag31
aa(lp5650
I28
aI34
ag33
ag34
ag36
ag38
ag40
aa(lp5651
I37
aI39
ag42
ag43
ag45
ag47
ag49
aa(lp5652
I57
aI60
ag51
ag52
ag54
ag56
ag58
aa(lp5653
I69
aI72
ag60
ag61
ag63
ag65
ag67
aa(lp5654
I89
aI100
ag69
ag70
ag72
ag74
ag76
aa(lp5655
I102
aI113
ag78
ag79
ag81
ag83
ag85
aa(lp5656
I121
aI124
ag87
ag88
ag90
ag92
ag94
aa(lp5657
I126
aI131
ag96
ag97
ag99
ag101
ag103
aa(lp5658
I133
aI140
ag105
ag106
ag108
ag110
ag112
aa(lp5659
I151
aI157
ag114
ag115
ag117
ag119
ag121
aa(lp5660
I167
aI170
ag123
ag124
ag126
ag128
ag130
aa(lp5661
I175
aI184
ag132
ag133
ag135
ag137
ag139
aa(lp5662
I186
aI193
ag141
ag142
ag144
ag146
ag148
aa(lp5663
I195
aI201
ag150
ag151
ag153
ag155
ag157
aa(lp5664
I207
aI209
ag159
ag160
ag162
ag164
ag166
aa(lp5665
I217
aI220
ag168
ag169
ag171
ag173
ag175
aa(lp5666
I227
aI230
ag177
ag178
ag180
ag182
ag184
aa(lp5667
I235
aI242
ag186
ag187
ag189
ag191
ag193
aa(lp5668
I245
aI255
ag195
ag196
ag198
ag200
ag202
aa(lp5669
I257
aI261
ag204
ag205
ag207
ag209
ag211
aa(lp5670
I270
aI273
ag213
ag214
ag216
ag218
ag220
aa(lp5671
I276
aI283
ag222
ag223
ag225
ag227
ag229
aa(lp5672
I291
aI300
ag231
ag232
ag234
ag236
ag238
aa(lp5673
I318
aI321
ag240
ag241
ag243
ag245
ag247
aa(lp5674
I324
aI333
ag249
ag250
ag252
ag254
ag256
aa(lp5675
I335
aI347
ag258
ag259
ag261
ag263
ag265
aa(lp5676
I352
aI362
ag267
ag268
ag270
ag272
ag274
aa(lp5677
I365
aI369
ag276
ag277
ag279
ag281
ag283
aa(lp5678
I371
aI377
ag285
ag286
ag288
ag290
ag292
aa(lp5679
I379
aI382
ag294
ag295
ag297
ag299
ag301
aa(lp5680
I391
aI396
ag303
ag304
ag306
ag308
ag310
aa(lp5681
I398
aI406
ag312
ag313
ag315
ag317
ag319
aa(lp5682
I411
aI416
ag321
ag322
ag324
ag326
ag328
aa(lp5683
I423
aI432
ag330
ag331
ag333
ag335
ag337
aa(lp5684
I435
aI446
ag339
ag340
ag342
ag344
ag346
aa(lp5685
I454
aI461
ag348
ag349
ag351
ag353
ag355
aa(lp5686
I463
aI472
ag357
ag358
ag360
ag362
ag364
aa(lp5687
I479
aI483
ag366
ag367
ag369
ag371
ag373
aa(lp5688
I492
aI497
ag375
ag376
ag378
ag380
ag382
aa(lp5689
I499
aI507
ag384
ag385
ag387
ag389
ag391
aa(lp5690
I512
aI516
ag393
ag394
ag396
ag398
ag400
aa(lp5691
I521
aI524
ag402
ag403
ag405
ag407
ag409
aa(lp5692
I529
aI532
ag411
ag412
ag414
ag416
ag418
aa(lp5693
I537
aI543
ag420
ag421
ag423
ag425
ag427
aa(lp5694
I549
aI563
ag429
ag430
ag432
ag434
ag436
aa(lp5695
I565
aI569
ag438
ag439
ag441
ag443
ag445
aa(lp5696
I571
aI577
ag447
ag448
ag450
ag452
ag454
aa(lp5697
I579
aI585
ag456
ag457
ag459
ag461
ag463
aa(lp5698
I588
aI594
ag465
ag466
ag468
ag470
ag472
aa(lp5699
I598
aI602
ag474
ag475
ag477
ag479
ag481
aa(lp5700
I604
aI606
ag483
ag484
ag486
ag488
ag490
aa(lp5701
I609
aI617
ag492
ag493
ag495
ag497
ag499
aa(lp5702
I619
aI626
ag501
ag502
ag504
ag506
ag508
aa(lp5703
I639
aI640
ag510
ag511
ag513
ag515
ag517
aa(lp5704
I653
aI659
ag519
ag520
ag522
ag524
ag526
aa(lp5705
I661
aI664
ag528
ag529
ag531
ag533
ag535
aa(lp5706
I671
aI682
ag537
ag538
ag540
ag542
ag544
aa(lp5707
I684
aI691
ag546
ag547
ag549
ag551
ag553
aa(lp5708
I701
aI703
ag555
ag556
ag558
ag560
ag562
aa(lp5709
I709
aI711
ag564
ag565
ag567
ag569
ag571
aa(lp5710
I715
aI722
ag573
ag574
ag576
ag578
ag580
aa(lp5711
I724
aI735
ag582
ag583
ag585
ag587
ag589
aa(lp5712
I738
aI747
ag591
ag592
ag594
ag596
ag598
aa(lp5713
I754
aI754
ag600
ag601
ag603
ag605
ag607
aa(lp5714
I756
aI761
ag609
ag610
ag612
ag614
ag616
aa(lp5715
I765
aI765
ag618
ag619
ag621
ag623
ag625
aa(lp5716
I768
aI768
ag600
ag627
ag629
ag631
ag633
aa(lp5717
I770
aI774
ag635
ag636
ag638
ag640
ag642
aa(lp5718
I778
aI778
ag644
ag645
ag647
ag649
ag651
aa(lp5719
I781
aI781
ag600
ag653
ag655
ag657
ag659
aa(lp5720
I784
aI793
ag661
ag662
ag664
ag666
ag668
aa(lp5721
I796
aI807
ag670
ag671
ag673
ag675
ag677
aa(lp5722
I810
aI824
ag679
ag680
ag682
ag684
ag686
aa(lp5723
I827
aI850
ag688
ag689
ag691
ag693
ag695
aa(lp5724
I853
aI864
ag697
ag698
ag700
ag702
ag704
aa(lp5725
I867
aI885
ag706
ag707
ag709
ag711
ag713
aa(lp5726
I888
aI888
ag600
ag715
ag717
ag719
ag721
aa(lp5727
I891
aI899
ag723
ag724
ag726
ag728
ag730
aa(lp5728
I901
aI904
ag732
ag733
ag735
ag737
ag739
aa(lp5729
I910
aI910
ag600
ag741
ag743
ag745
ag747
aa(lp5730
I912
aI917
ag749
ag750
ag752
ag754
ag756
aa(lp5731
I921
aI921
ag644
ag758
ag760
ag762
ag764
aa(lp5732
I924
aI924
ag600
ag766
ag768
ag770
ag772
aa(lp5733
I926
aI930
ag774
ag775
ag777
ag779
ag781
aa(lp5734
I933
aI935
ag783
ag784
ag786
ag788
ag790
aa(lp5735
I938
aI938
ag600
ag792
ag794
ag796
ag798
aa(lp5736
I941
aI950
ag800
ag801
ag803
ag805
ag807
aa(lp5737
I953
aI964
ag809
ag810
ag812
ag814
ag816
aa(lp5738
I967
aI981
ag818
ag819
ag821
ag823
ag825
aa(lp5739
I984
aI1007
ag827
ag828
ag830
ag832
ag834
aa(lp5740
I1010
aI1021
ag836
ag837
ag839
ag841
ag843
aa(lp5741
I1024
aI1042
ag845
ag846
ag848
ag850
ag852
aa(lp5742
I1045
aI1045
ag600
ag854
ag856
ag858
ag860
aa(lp5743
I1048
aI1052
ag862
ag863
ag865
ag867
ag869
aa(lp5744
I1054
aI1059
ag871
ag872
ag874
ag876
ag878
aa(lp5745
I1061
aI1063
ag880
ag881
ag883
ag885
ag887
aa(lp5746
I1065
aI1067
ag889
ag890
ag892
ag894
ag896
aa(lp5747
I1070
aI1070
ag600
ag898
ag900
ag902
ag904
aa(lp5748
I1072
aI1077
ag906
ag907
ag909
ag911
ag913
aa(lp5749
I1081
aI1081
ag618
ag915
ag917
ag919
ag921
aa(lp5750
I1084
aI1084
ag600
ag923
ag925
ag927
ag929
aa(lp5751
I1086
aI1090
ag931
ag932
ag934
ag936
ag938
aa(lp5752
I1094
aI1094
ag618
ag940
ag942
ag944
ag946
aa(lp5753
I1097
aI1097
ag600
ag948
ag950
ag952
ag954
aa(lp5754
I1100
aI1109
ag956
ag957
ag959
ag961
ag963
aa(lp5755
I1112
aI1123
ag965
ag966
ag968
ag970
ag972
aa(lp5756
I1126
aI1140
ag974
ag975
ag977
ag979
ag981
aa(lp5757
I1143
aI1166
ag983
ag984
ag986
ag988
ag990
aa(lp5758
I1169
aI1180
ag992
ag993
ag995
ag997
ag999
aa(lp5759
I1183
aI1201
ag1001
ag1002
ag1004
ag1006
ag1008
aa(lp5760
I1204
aI1204
ag600
ag1010
ag1012
ag1014
ag1016
aa(lp5761
I1207
aI1211
ag1018
ag1019
ag1021
ag1023
ag1025
aa(lp5762
I1213
aI1218
ag1027
ag1028
ag1030
ag1032
ag1034
aa(lp5763
I1220
aI1222
ag1036
ag1037
ag1039
ag1041
ag1043
aa(lp5764
I1224
aI1226
ag1045
ag1046
ag1048
ag1050
ag1052
aa(lp5765
I1229
aI1229
ag600
ag1054
ag1056
ag1058
ag1060
aa(lp5766
I1231
aI1236
ag1062
ag1063
ag1065
ag1067
ag1069
aa(lp5767
I1239
aI1241
ag1071
ag1072
ag1074
ag1076
ag1078
aa(lp5768
I1244
aI1244
ag600
ag1080
ag1082
ag1084
ag1086
aa(lp5769
I1246
aI1250
ag1088
ag1089
ag1091
ag1093
ag1095
aa(lp5770
I1253
aI1255
ag1097
ag1098
ag1100
ag1102
ag1104
aa(lp5771
I1258
aI1258
ag600
ag1106
ag1108
ag1110
ag1112
aa(lp5772
I1261
aI1270
ag1114
ag1115
ag1117
ag1119
ag1121
aa(lp5773
I1273
aI1281
ag1123
ag1124
ag1126
ag1128
ag1130
aa(lp5774
I1284
aI1298
ag1132
ag1133
ag1135
ag1137
ag1139
aa(lp5775
I1301
aI1324
ag1141
ag1142
ag1144
ag1146
ag1148
aa(lp5776
I1327
aI1338
ag1150
ag1151
ag1153
ag1155
ag1157
aa(lp5777
I1341
aI1356
ag1159
ag1160
ag1162
ag1164
ag1166
aa(lp5778
I1359
aI1359
ag600
ag1168
ag1170
ag1172
ag1174
aa(lp5779
I1362
aI1366
ag1176
ag1177
ag1179
ag1181
ag1183
aa(lp5780
I1368
aI1373
ag1185
ag1186
ag1188
ag1190
ag1192
aa(lp5781
I1375
aI1377
ag1194
ag1195
ag1197
ag1199
ag1201
aa(lp5782
I1383
aI1383
ag600
ag1203
ag1205
ag1207
ag1209
aa(lp5783
I1385
aI1390
ag1211
ag1212
ag1214
ag1216
ag1218
aa(lp5784
I1393
aI1395
ag1220
ag1221
ag1223
ag1225
ag1227
aa(lp5785
I1398
aI1398
ag600
ag1229
ag1231
ag1233
ag1235
aa(lp5786
I1400
aI1404
ag1237
ag1238
ag1240
ag1242
ag1244
aa(lp5787
I1407
aI1409
ag1246
ag1247
ag1249
ag1251
ag1253
aa(lp5788
I1412
aI1412
ag600
ag1255
ag1257
ag1259
ag1261
aa(lp5789
I1415
aI1424
ag1263
ag1264
ag1266
ag1268
ag1270
aa(lp5790
I1427
aI1438
ag1272
ag1273
ag1275
ag1277
ag1279
aa(lp5791
I1441
aI1455
ag1281
ag1282
ag1284
ag1286
ag1288
aa(lp5792
I1458
aI1481
ag1290
ag1291
ag1293
ag1295
ag1297
aa(lp5793
I1484
aI1495
ag1299
ag1300
ag1302
ag1304
ag1306
aa(lp5794
I1498
aI1516
ag1308
ag1309
ag1311
ag1313
ag1315
aa(lp5795
I1519
aI1519
ag600
ag1317
ag1319
ag1321
ag1323
aa(lp5796
I1522
aI1526
ag1325
ag1326
ag1328
ag1330
ag1332
aa(lp5797
I1528
aI1533
ag1334
ag1335
ag1337
ag1339
ag1341
aa(lp5798
I1535
aI1537
ag1343
ag1344
ag1346
ag1348
ag1350
aa(lp5799
I1543
aI1543
ag600
ag1352
ag1354
ag1356
ag1358
aa(lp5800
I1545
aI1550
ag1360
ag1361
ag1363
ag1365
ag1367
aa(lp5801
I1553
aI1555
ag1369
ag1370
ag1372
ag1374
ag1376
aa(lp5802
I1558
aI1558
ag600
ag1378
ag1380
ag1382
ag1384
aa(lp5803
I1560
aI1564
ag1386
ag1387
ag1389
ag1391
ag1393
aa(lp5804
I1567
aI1569
ag1395
ag1396
ag1398
ag1400
ag1402
aa(lp5805
I1572
aI1572
ag600
ag1404
ag1406
ag1408
ag1410
aa(lp5806
I1575
aI1584
ag1412
ag1413
ag1415
ag1417
ag1419
aa(lp5807
I1587
aI1595
ag1421
ag1422
ag1424
ag1426
ag1428
aa(lp5808
I1598
aI1609
ag1430
ag1431
ag1433
ag1435
ag1437
aa(lp5809
I1612
aI1632
ag1439
ag1440
ag1442
ag1444
ag1446
aa(lp5810
I1635
aI1646
ag1448
ag1449
ag1451
ag1453
ag1455
aa(lp5811
I1649
aI1664
ag1457
ag1458
ag1460
ag1462
ag1464
aa(lp5812
I1667
aI1667
ag600
ag1466
ag1468
ag1470
ag1472
aa(lp5813
I1670
aI1674
ag1474
ag1475
ag1477
ag1479
ag1481
aa(lp5814
I1676
aI1681
ag1483
ag1484
ag1486
ag1488
ag1490
aa(lp5815
I1683
aI1686
ag1492
ag1493
ag1495
ag1497
ag1499
aa(lp5816
I1692
aI1692
ag600
ag1501
ag1503
ag1505
ag1507
aa(lp5817
I1694
aI1699
ag1509
ag1510
ag1512
ag1514
ag1516
aa(lp5818
I1702
aI1704
ag1518
ag1519
ag1521
ag1523
ag1525
aa(lp5819
I1707
aI1707
ag600
ag1527
ag1529
ag1531
ag1533
aa(lp5820
I1709
aI1713
ag1535
ag1536
ag1538
ag1540
ag1542
aa(lp5821
I1716
aI1718
ag1544
ag1545
ag1547
ag1549
ag1551
aa(lp5822
I1721
aI1721
ag600
ag1553
ag1555
ag1557
ag1559
aa(lp5823
I1724
aI1736
ag1561
ag1562
ag1564
ag1566
ag1568
aa(lp5824
I1739
aI1750
ag1570
ag1571
ag1573
ag1575
ag1577
aa(lp5825
I1753
aI1767
ag1579
ag1580
ag1582
ag1584
ag1586
aa(lp5826
I1770
aI1793
ag1588
ag1589
ag1591
ag1593
ag1595
aa(lp5827
I1796
aI1807
ag1597
ag1598
ag1600
ag1602
ag1604
aa(lp5828
I1810
aI1828
ag1606
ag1607
ag1609
ag1611
ag1613
aa(lp5829
I1831
aI1831
ag600
ag1615
ag1617
ag1619
ag1621
aa(lp5830
I1834
aI1841
ag1623
ag1624
ag1626
ag1628
ag1630
aa(lp5831
I1847
aI1847
ag600
ag1632
ag1634
ag1636
ag1638
aa(lp5832
I1849
aI1854
ag1640
ag1641
ag1643
ag1645
ag1647
aa(lp5833
I1858
aI1858
ag644
ag1649
ag1651
ag1653
ag1655
aa(lp5834
I1861
aI1861
ag600
ag1657
ag1659
ag1661
ag1663
aa(lp5835
I1863
aI1867
ag1665
ag1666
ag1668
ag1670
ag1672
aa(lp5836
I1871
aI1871
ag618
ag1674
ag1676
ag1678
ag1680
aa(lp5837
I1874
aI1874
ag600
ag1682
ag1684
ag1686
ag1688
aa(lp5838
I1877
aI1886
ag1690
ag1691
ag1693
ag1695
ag1697
aa(lp5839
I1889
aI1900
ag1699
ag1700
ag1702
ag1704
ag1706
aa(lp5840
I1903
aI1917
ag1708
ag1709
ag1711
ag1713
ag1715
aa(lp5841
I1920
aI1943
ag1717
ag1718
ag1720
ag1722
ag1724
aa(lp5842
I1946
aI1957
ag1726
ag1727
ag1729
ag1731
ag1733
aa(lp5843
I1960
aI1978
ag1735
ag1736
ag1738
ag1740
ag1742
aa(lp5844
I1981
aI1981
ag600
ag1744
ag1746
ag1748
ag1750
aa(lp5845
I1984
aI1991
ag1752
ag1753
ag1755
ag1757
ag1759
aa(lp5846
I1993
aI2004
ag1761
ag1762
ag1764
ag1766
ag1768
aa(lp5847
I2007
aI2015
ag1770
ag1771
ag1773
ag1775
ag1777
aa(lp5848
I2019
aI2033
ag1779
ag1780
ag1782
ag1784
ag1786
aa(lp5849
I2035
aI2041
ag1788
ag1789
ag1791
ag1793
ag1795
aa(lp5850
I2047
aI2047
ag600
ag1797
ag1799
ag1801
ag1803
aa(lp5851
I2049
aI2050
ag1805
ag1806
ag1808
ag1810
ag1812
aa(lp5852
I2052
aI2058
ag1814
ag1815
ag1817
ag1819
ag1821
aa(lp5853
I2061
aI2069
ag1823
ag1824
ag1826
ag1828
ag1830
aa(lp5854
I2072
aI2072
ag1832
ag1833
ag1835
ag1837
ag1839
aa(lp5855
I2075
aI2075
ag600
ag1841
ag1843
ag1845
ag1847
aa(lp5856
I2077
aI2081
ag1849
ag1850
ag1852
ag1854
ag1856
aa(lp5857
I2084
aI2084
ag1858
ag1859
ag1861
ag1863
ag1865
aa(lp5858
I2087
aI2087
ag600
ag1867
ag1869
ag1871
ag1873
aa(lp5859
I2089
aI2096
ag1875
ag1876
ag1878
ag1880
ag1882
aa(lp5860
I2099
aI2099
ag1884
ag1885
ag1887
ag1889
ag1891
aa(lp5861
I2102
aI2102
ag600
ag1893
ag1895
ag1897
ag1899
aa(lp5862
I2104
aI2113
ag1901
ag1902
ag1904
ag1906
ag1908
aa(lp5863
I2115
aI2119
ag1910
ag1911
ag1913
ag1915
ag1917
aa(lp5864
I2122
aI2122
ag1884
ag1919
ag1921
ag1923
ag1925
aa(lp5865
I2125
aI2125
ag600
ag1927
ag1929
ag1931
ag1933
aa(lp5866
I2127
aI2131
ag1935
ag1936
ag1938
ag1940
ag1942
aa(lp5867
I2134
aI2134
ag1884
ag1944
ag1946
ag1948
ag1950
aa(lp5868
I2137
aI2137
ag600
ag1952
ag1954
ag1956
ag1958
aa(lp5869
I2139
aI2143
ag1960
ag1961
ag1963
ag1965
ag1967
aa(lp5870
I2145
aI2149
ag1969
ag1970
ag1972
ag1974
ag1976
aa(lp5871
I2152
aI2152
ag1884
ag1978
ag1980
ag1982
ag1984
aa(lp5872
I2154
aI2159
ag1986
ag1987
ag1989
ag1991
ag1993
aa(lp5873
I2162
aI2168
ag1995
ag1996
ag1998
ag2000
ag2002
aa(lp5874
I2171
aI2171
ag600
ag2004
ag2006
ag2008
ag2010
aa(lp5875
I2173
aI2177
ag2012
ag2013
ag2015
ag2017
ag2019
aa(lp5876
I2180
aI2186
ag2021
ag2022
ag2024
ag2026
ag2028
aa(lp5877
I2189
aI2189
ag600
ag2030
ag2032
ag2034
ag2036
aa(lp5878
I2192
aI2201
ag2038
ag2039
ag2041
ag2043
ag2045
aa(lp5879
I2204
aI2212
ag2047
ag2048
ag2050
ag2052
ag2054
aa(lp5880
I2215
aI2226
ag2056
ag2057
ag2059
ag2061
ag2063
aa(lp5881
I2229
aI2249
ag2065
ag2066
ag2068
ag2070
ag2072
aa(lp5882
I2252
aI2260
ag2074
ag2075
ag2077
ag2079
ag2081
aa(lp5883
I2263
aI2278
ag2083
ag2084
ag2086
ag2088
ag2090
aa(lp5884
I2281
aI2281
ag600
ag2092
ag2094
ag2096
ag2098
aa(lp5885
I2284
aI2290
ag2100
ag2101
ag2103
ag2105
ag2107
aa(lp5886
I2292
aI2295
ag2109
ag2110
ag2112
ag2114
ag2116
aa(lp5887
I2297
aI2299
ag2118
ag2119
ag2121
ag2123
ag2125
aa(lp5888
I2302
aI2302
ag600
ag2127
ag2129
ag2131
ag2133
aa(lp5889
I2304
aI2309
ag2135
ag2136
ag2138
ag2140
ag2142
aa(lp5890
I2312
aI2314
ag2144
ag2145
ag2147
ag2149
ag2151
aa(lp5891
I2317
aI2317
ag600
ag2153
ag2155
ag2157
ag2159
aa(lp5892
I2319
aI2323
ag2161
ag2162
ag2164
ag2166
ag2168
aa(lp5893
I2326
aI2328
ag2170
ag2171
ag2173
ag2175
ag2177
aa(lp5894
I2331
aI2331
ag600
ag2179
ag2181
ag2183
ag2185
aa(lp5895
I2334
aI2343
ag2187
ag2188
ag2190
ag2192
ag2194
aa(lp5896
I2346
aI2357
ag2196
ag2197
ag2199
ag2201
ag2203
aa(lp5897
I2360
aI2374
ag2205
ag2206
ag2208
ag2210
ag2212
aa(lp5898
I2377
aI2400
ag2214
ag2215
ag2217
ag2219
ag2221
aa(lp5899
I2403
aI2414
ag2223
ag2224
ag2226
ag2228
ag2230
aa(lp5900
I2417
aI2435
ag2232
ag2233
ag2235
ag2237
ag2239
aa(lp5901
I2438
aI2438
ag600
ag2241
ag2243
ag2245
ag2247
aa(lp5902
I2441
aI2450
ag2249
ag2250
ag2252
ag2254
ag2256
aa(lp5903
I2452
aI2454
ag2258
ag2259
ag2261
ag2263
ag2265
aa(lp5904
I2457
aI2457
ag600
ag2267
ag2269
ag2271
ag2273
aa(lp5905
I2459
aI2464
ag2275
ag2276
ag2278
ag2280
ag2282
aa(lp5906
I2467
aI2469
ag2284
ag2285
ag2287
ag2289
ag2291
aa(lp5907
I2472
aI2472
ag600
ag2293
ag2295
ag2297
ag2299
aa(lp5908
I2474
aI2478
ag2301
ag2302
ag2304
ag2306
ag2308
aa(lp5909
I2481
aI2483
ag2310
ag2311
ag2313
ag2315
ag2317
aa(lp5910
I2486
aI2486
ag600
ag2319
ag2321
ag2323
ag2325
aa(lp5911
I2489
aI2498
ag2327
ag2328
ag2330
ag2332
ag2334
aa(lp5912
I2501
aI2512
ag2336
ag2337
ag2339
ag2341
ag2343
aa(lp5913
I2515
aI2529
ag2345
ag2346
ag2348
ag2350
ag2352
aa(lp5914
I2532
aI2555
ag2354
ag2355
ag2357
ag2359
ag2361
aa(lp5915
I2558
aI2569
ag2363
ag2364
ag2366
ag2368
ag2370
aa(lp5916
I2572
aI2590
ag2372
ag2373
ag2375
ag2377
ag2379
aa(lp5917
I2593
aI2593
ag600
ag2381
ag2383
ag2385
ag2387
aa(lp5918
I2596
aI2602
ag2389
ag2390
ag2392
ag2394
ag2396
aa(lp5919
I2608
aI2608
ag600
ag2398
ag2400
ag2402
ag2404
aa(lp5920
I2610
aI2615
ag2406
ag2407
ag2409
ag2411
ag2413
aa(lp5921
I2619
aI2619
ag1858
ag2415
ag2417
ag2419
ag2421
aa(lp5922
I2622
aI2622
ag600
ag2423
ag2425
ag2427
ag2429
aa(lp5923
I2624
aI2628
ag2431
ag2432
ag2434
ag2436
ag2438
aa(lp5924
I2632
aI2632
ag1858
ag2440
ag2442
ag2444
ag2446
aa(lp5925
I2635
aI2635
ag600
ag2448
ag2450
ag2452
ag2454
aa(lp5926
I2638
aI2647
ag2456
ag2457
ag2459
ag2461
ag2463
aa(lp5927
I2650
aI2661
ag2465
ag2466
ag2468
ag2470
ag2472
aa(lp5928
I2664
aI2678
ag2474
ag2475
ag2477
ag2479
ag2481
aa(lp5929
I2681
aI2704
ag2483
ag2484
ag2486
ag2488
ag2490
aa(lp5930
I2707
aI2718
ag2492
ag2493
ag2495
ag2497
ag2499
aa(lp5931
I2721
aI2739
ag2501
ag2502
ag2504
ag2506
ag2508
aa(lp5932
I2742
aI2742
ag600
ag2510
ag2512
ag2514
ag2516
aa(lp5933
I2744
aI2753
ag2518
ag2519
ag2521
ag2523
ag2525
aa(lp5934
I2744
aI2753
ag2527
ag2528
ag2530
ag2532
ag2534
aasS'characterMap'
p5935
(lp5936
g2539
ag2541
ag2543
ag2545
ag2547
ag5279
ag2551
ag2553
ag2555
ag2556
ag2557
ag5281
a(lp5937
I12
aS'-'
p5938
aag5282
ag2561
ag5283
ag2564
ag2566
ag2568
ag2570
ag2571
ag2572
ag2573
ag2574
ag2576
ag2577
ag2578
ag5284
ag2582
ag2584
ag2586
ag2587
ag2588
ag2590
ag2591
ag5285
a(lp5939
I36
aS'('
p5940
aag2595
ag2597
ag2599
a(lp5941
I40
aS')'
p5942
aag5286
ag2603
ag2604
ag5287
ag2609
ag2610
ag2611
ag2612
ag2613
ag5288
ag2617
ag2618
ag5289
ag2621
ag5290
a(lp5943
I56
aS'"'
p5944
aag2624
ag2625
ag2626
ag2627
ag5291
ag2631
ag2632
ag5292
ag2636
ag2637
ag2638
ag5293
ag2641
ag2642
ag2643
ag2644
a(lp5945
I73
aS','
p5946
aa(lp5947
I74
ag5944
aag5294
ag2648
ag2649
ag5295
ag2653
ag2654
ag2655
ag5296
ag2659
ag2660
ag5297
ag2664
ag2666
ag5298
ag2669
ag2670
ag2671
ag2672
ag2673
ag2674
ag2675
ag2676
ag2677
ag2678
a(lp5948
I99
aS"'"
p5949
aag2679
ag5299
ag2682
ag2683
ag2684
ag2685
ag2686
ag2687
ag2688
ag2689
ag2691
ag2692
ag2693
ag2694
a(lp5950
I114
aS'.'
p5951
aag5300
ag2698
ag2699
ag2700
ag2701
ag5301
ag2704
ag2705
ag2706
ag2707
ag5302
ag2710
ag2711
ag2712
ag2713
ag2714
ag2715
ag5303
ag2718
ag2719
ag2720
ag2721
ag2722
ag2723
ag2724
ag2725
ag5304
ag2729
ag2730
ag2731
ag2732
ag5305
ag2736
ag2737
ag2738
ag5306
ag2741
ag2742
ag2744
ag2745
ag2746
ag2747
ag2748
ag5307
ag2752
ag2753
ag2754
ag5308
ag2758
ag2759
ag2760
ag5309
ag2763
ag2764
ag2765
ag2766
ag5310
ag2770
ag2771
ag5311
ag2774
ag2775
ag2776
ag2777
ag2778
ag2779
ag2780
ag2781
ag2782
ag2783
ag5312
ag2786
ag2787
ag2788
ag2789
ag2790
ag2791
ag2792
ag2793
ag5313
ag2796
ag2797
ag2798
ag2799
ag2800
ag2801
ag2802
ag5314
ag2806
ag2807
ag2808
ag5315
ag2811
ag2812
ag2813
a(lp5952
I210
ag5946
aag5316
ag2817
ag2818
ag2819
ag2820
ag5317
ag2823
ag2824
ag2825
ag2826
ag5318
ag2830
ag2831
ag5319
ag2834
ag5320
ag2837
ag2838
ag2839
ag2841
ag5321
ag2845
ag2846
ag5322
ag2849
ag2850
ag2851
ag2852
ag2853
ag2854
ag2855
ag2856
a(lp5953
I243
ag5946
aag5323
ag2859
ag2860
ag2861
ag2862
ag2863
a(lp5954
I250
ag5938
aag2864
ag2865
ag2866
ag2867
ag2868
ag5324
ag2871
ag2872
ag2873
ag2874
ag2875
ag5325
ag2879
ag2880
ag5326
ag2884
ag2885
ag2886
ag5327
ag2889
ag2890
ag2891
ag2892
a(lp5955
I274
ag5951
aag5328
ag2895
ag2896
ag2897
ag2898
ag2899
ag2900
ag2901
ag2902
ag5329
ag2906
ag2907
ag5330
ag2911
ag2912
ag5331
ag2915
ag2916
ag2917
ag2918
ag2919
ag2920
ag2921
ag2922
ag2923
ag2924
ag5332
ag2928
ag2929
ag2930
ag5333
ag2934
ag2935
ag5334
ag2939
ag2940
ag2941
ag5335
ag2945
ag2946
ag2947
ag2948
ag5336
ag2951
ag2952
ag2953
ag2954
a(lp5956
I322
ag5946
aag5337
ag2957
ag2958
ag2959
ag2960
ag2961
ag2962
ag2963
ag2964
ag2965
ag2966
ag5338
ag2969
ag2970
ag2971
ag2972
a(lp5957
I339
ag5938
aag2973
ag2974
a(lp5958
I342
ag5938
aag2975
ag2976
ag2977
ag2978
ag2979
ag5339
ag2983
ag2984
ag5340
ag2987
ag2988
ag2989
ag2990
ag2991
ag2992
ag2993
ag2994
ag2995
ag2996
ag2997
ag5341
a(lp5959
I364
ag5940
aag3000
ag3001
ag3002
ag3003
ag3004
ag5342
ag3007
ag3008
ag3009
ag3010
ag3011
ag3012
ag3013
ag5343
ag3016
ag3017
ag3018
ag3019
ag5344
ag3023
ag3024
ag5345
ag3028
ag3029
ag3030
ag5346
ag3033
ag3034
ag3035
ag3036
a(lp5960
I395
ag5949
aag3037
ag5347
ag3040
ag3041
ag3042
ag3043
ag3044
ag3045
ag3046
ag3047
ag3048
ag5348
ag3052
ag3053
ag5349
ag3056
ag3057
ag3058
ag3059
ag3060
ag3061
a(lp5961
I417
ag5942
aag5350
ag3065
ag3066
ag3067
ag5351
ag3070
ag3071
ag3072
ag3073
ag3074
ag3075
ag3076
ag3077
ag3078
ag3079
a(lp5962
I433
ag5946
aag5352
ag3082
ag3083
ag3084
ag3085
ag3086
ag3087
ag3088
ag3089
ag3090
ag3091
ag3092
ag3093
ag5353
ag3097
ag3098
ag5354
ag3102
ag3103
ag5355
ag3106
ag3107
a(lp5963
I456
ag5938
aag3108
ag3109
ag3110
ag3111
ag3112
ag5356
ag3115
ag3116
ag3118
ag3119
ag3120
ag3121
ag3122
ag3123
ag3124
ag3125
ag5357
ag3129
ag3130
ag3131
ag3132
ag5358
ag3135
ag3136
ag3137
ag3138
ag3139
ag5359
ag3143
ag3144
ag5360
ag3148
ag3149
ag3150
ag5361
ag3153
ag3154
ag3155
ag3156
ag3157
ag3158
ag5362
ag3161
ag3162
ag3163
ag3164
ag3165
ag3166
ag3167
ag3168
ag3169
ag5363
ag3173
ag3174
ag5364
ag3177
ag3178
ag3179
ag3180
ag3181
ag5365
ag3185
ag3186
ag5366
ag3189
ag3190
ag3191
ag3192
ag5367
ag3196
ag3197
ag5368
ag3200
ag3201
ag3202
ag3203
ag5369
ag3207
ag3208
ag5370
ag3211
ag3212
ag3213
ag3214
ag3215
ag3216
ag3217
ag5371
ag3221
ag3222
ag3223
ag5372
ag3226
ag3227
ag3228
ag3229
ag3230
ag3231
ag3232
ag3233
ag3234
ag3235
ag3236
ag3237
ag3238
ag3239
ag3240
ag5373
ag3243
ag3244
a(lp5964
I567
ag5949
aag3245
ag3246
ag5374
ag3249
ag3250
ag3251
ag3252
ag3253
ag3254
ag3255
ag5375
ag3258
ag3259
ag3260
ag3261
ag3262
ag3263
ag3264
a(lp5965
I586
ag5951
aag5376
ag3267
ag3268
ag3269
ag3270
ag3271
a(lp5966
I593
ag5949
aag3272
ag5377
ag3275
ag5378
ag3278
ag3279
ag3280
ag3281
ag3282
ag5379
ag3285
ag3286
ag3287
a(lp5967
I607
ag5946
aag5380
ag3290
ag3291
ag3292
ag3293
ag3294
ag3295
ag3296
ag3297
ag3298
ag5381
ag3301
ag3302
ag3303
ag3304
ag3305
ag3306
ag3307
ag3308
ag5382
ag3312
ag3313
ag3314
ag5383
ag3318
ag3319
ag3320
ag5384
ag3324
ag3325
ag5385
ag3328
ag3329
a(lp5968
I641
aS';'
p5969
aag5386
ag3333
ag3334
ag3335
ag3336
ag5387
ag3340
ag3341
ag3342
ag3343
ag5388
ag3346
ag3347
ag3348
ag3349
ag3350
ag3351
ag3352
ag5389
ag3355
ag3356
ag3357
ag3358
ag5390
ag3362
ag3363
ag5391
ag3366
ag5392
ag3369
ag3370
ag3371
ag3372
ag3373
ag3374
a(lp5970
I677
ag5938
aag3375
ag3376
ag3377
ag3378
ag3379
ag5393
ag3382
ag3383
ag3384
ag3385
ag3386
ag3387
ag3388
ag3389
ag5394
ag3393
ag3394
ag5395
ag3398
ag3399
ag3400
ag3401
ag5396
ag3404
ag3405
ag3406
ag5397
ag3410
ag3411
ag3412
ag5398
ag3415
ag3416
ag3417
a(lp5971
I712
ag5951
aag5399
a(lp5972
I714
aS'\xc2'
p5973
aag3420
ag3421
ag3422
ag3423
ag3424
ag3425
ag3426
ag3427
ag5400
ag3430
ag3431
ag3432
ag3433
ag3434
ag3435
ag3436
ag3437
ag3438
ag3439
ag3440
ag3441
ag5401
a(lp5974
I737
ag5940
aag3444
ag3445
ag3446
ag3447
ag3448
ag3449
ag3450
ag3451
ag3452
ag3453
a(lp5975
I748
ag5942
aag5402
ag3457
ag3458
ag5403
a(lp5976
I753
ag5973
aag3461
ag5404
ag3464
ag3465
ag3466
ag3467
ag3468
ag3469
a(lp5977
I762
aS':'
p5978
aag5405
a(lp5979
I764
ag5951
aag3472
ag5406
a(lp5980
I767
ag5973
aag3475
ag5407
ag3478
ag3479
ag3480
ag3481
ag3482
a(lp5981
I775
ag5978
aag5408
a(lp5982
I777
ag5951
aag3485
ag5409
a(lp5983
I780
ag5973
aag3488
ag5410
a(lp5984
I783
ag5973
aag3491
ag3492
ag3493
ag3494
ag3495
ag3496
ag3497
a(lp5985
I791
ag5978
aa(lp5986
I792
ag5973
aag3498
ag5411
a(lp5987
I795
ag5973
aag3501
ag3502
ag3503
ag3504
ag3505
ag3506
a(lp5988
I802
ag5978
aa(lp5989
I803
ag5973
aag3507
ag3508
a(lp5990
I806
ag5951
aag3509
ag5412
a(lp5991
I809
ag5973
aag3513
ag3514
ag3515
ag3516
a(lp5992
I814
ag5938
aag3517
ag3518
ag3519
ag3520
a(lp5993
I819
ag5978
aa(lp5994
I820
ag5973
aag3521
ag3522
a(lp5995
I823
ag5951
aag3523
ag5413
a(lp5996
I826
ag5973
aag3526
ag3527
ag3528
ag3529
ag3530
a(lp5997
I832
aS'/'
p5998
aag3531
ag3532
ag3533
ag3534
ag3535
a(lp5999
I838
ag5973
aag3536
ag3537
ag3538
ag3539
ag3540
ag3541
a(lp6000
I845
ag5978
aa(lp6001
I846
ag5973
aag3542
ag3543
a(lp6002
I849
ag5951
aag3544
ag5414
a(lp6003
I852
ag5973
aag3548
ag3549
ag3550
ag3551
ag3552
ag3553
a(lp6004
I859
ag5978
aa(lp6005
I860
ag5973
aag3554
ag3555
a(lp6006
I863
ag5951
aag3556
ag5415
a(lp6007
I866
ag5973
aag3559
ag3560
ag3561
ag3562
ag3563
ag3564
a(lp6008
I873
ag5973
aag3565
ag3566
ag3567
ag3568
ag3569
ag3570
a(lp6009
I880
ag5978
aa(lp6010
I881
ag5973
aag3571
ag3572
a(lp6011
I884
ag5951
aag3573
ag5416
a(lp6012
I887
ag5973
aag3576
ag5417
a(lp6013
I890
ag5973
aag3579
ag3580
ag3581
ag3582
ag3583
ag3584
ag3585
ag3586
ag3587
ag5418
ag3590
ag3591
ag3592
ag3593
ag5419
ag3597
ag3598
ag5420
a(lp6014
I909
ag5973
aag3601
ag5421
ag3604
ag3605
ag3606
ag3607
ag3608
ag3609
a(lp6015
I918
ag5978
aag5422
a(lp6016
I920
ag5951
aag3612
ag5423
a(lp6017
I923
ag5973
aag3615
ag5424
ag3618
ag3619
ag3620
ag3621
ag3622
a(lp6018
I931
ag5978
aag5425
ag3625
a(lp6019
I934
ag5951
aag3626
ag5426
a(lp6020
I937
ag5973
aag3629
ag5427
a(lp6021
I940
ag5973
aag3632
ag3633
ag3634
ag3635
ag3636
ag3637
ag3638
a(lp6022
I948
ag5978
aa(lp6023
I949
ag5973
aag3639
ag5428
a(lp6024
I952
ag5973
aag3642
ag3643
ag3644
ag3645
ag3646
ag3647
a(lp6025
I959
ag5978
aa(lp6026
I960
ag5973
aag3648
ag3649
a(lp6027
I963
ag5951
aag3650
ag5429
a(lp6028
I966
ag5973
aag3653
ag3654
ag3655
ag3656
a(lp6029
I971
ag5938
aag3657
ag3658
ag3659
ag3660
a(lp6030
I976
ag5978
aa(lp6031
I977
ag5973
aag3661
ag3662
a(lp6032
I980
ag5951
aag3663
ag5430
a(lp6033
I983
ag5973
aag3666
ag3667
ag3668
ag3669
ag3670
a(lp6034
I989
ag5998
aag3671
ag3672
ag3673
ag3674
ag3675
a(lp6035
I995
ag5973
aag3676
ag3677
ag3678
ag3679
ag3680
ag3681
a(lp6036
I1002
ag5978
aa(lp6037
I1003
ag5973
aag3682
ag3683
a(lp6038
I1006
ag5951
aag3684
ag5431
a(lp6039
I1009
ag5973
aag3687
ag3688
ag3689
ag3690
ag3691
ag3692
a(lp6040
I1016
ag5978
aa(lp6041
I1017
ag5973
aag3693
ag3694
a(lp6042
I1020
ag5951
aag3695
ag5432
a(lp6043
I1023
ag5973
aag3699
ag3700
ag3701
ag3702
ag3703
ag3704
a(lp6044
I1030
ag5973
aag3705
ag3706
ag3707
ag3708
ag3709
ag3710
a(lp6045
I1037
ag5978
aa(lp6046
I1038
ag5973
aag3711
ag3712
a(lp6047
I1041
ag5951
aag3713
ag5433
a(lp6048
I1044
ag5973
aag3716
ag5434
a(lp6049
I1047
ag5973
aag3719
ag3720
ag3721
ag3722
ag3723
ag5435
ag3726
ag3727
ag3728
ag3729
ag3730
ag3731
ag5436
ag3734
ag3735
ag3736
ag5437
ag3739
ag3740
ag3741
ag5438
a(lp6050
I1069
ag5973
aag3744
ag5439
ag3747
ag3748
ag3749
ag3750
ag3751
ag3752
a(lp6051
I1078
ag5978
aag5440
a(lp6052
I1080
ag5951
aag3755
ag5441
a(lp6053
I1083
ag5973
aag3758
ag5442
ag3761
ag3762
ag3763
ag3764
ag3765
a(lp6054
I1091
ag5978
aag5443
a(lp6055
I1093
ag5951
aag3768
ag5444
a(lp6056
I1096
ag5973
aag3771
ag5445
a(lp6057
I1099
ag5973
aag3774
ag3775
ag3776
ag3777
ag3778
ag3779
ag3780
a(lp6058
I1107
ag5978
aa(lp6059
I1108
ag5973
aag3781
ag5446
a(lp6060
I1111
ag5973
aag3784
ag3785
ag3786
ag3787
ag3788
ag3789
a(lp6061
I1118
ag5978
aa(lp6062
I1119
ag5973
aag3790
ag3791
a(lp6063
I1122
ag5951
aag3792
ag5447
a(lp6064
I1125
ag5973
aag3796
ag3797
ag3798
ag3799
a(lp6065
I1130
ag5938
aag3800
ag3801
ag3802
ag3803
a(lp6066
I1135
ag5978
aa(lp6067
I1136
ag5973
aag3804
ag3805
a(lp6068
I1139
ag5951
aag3806
ag5448
a(lp6069
I1142
ag5973
aag3809
ag3810
ag3811
ag3812
ag3813
a(lp6070
I1148
ag5998
aag3814
ag3815
ag3816
ag3817
ag3818
a(lp6071
I1154
ag5973
aag3819
ag3820
ag3821
ag3822
ag3823
ag3824
a(lp6072
I1161
ag5978
aa(lp6073
I1162
ag5973
aag3825
ag3826
a(lp6074
I1165
ag5951
aag3827
ag5449
a(lp6075
I1168
ag5973
aag3830
ag3831
ag3832
ag3833
ag3834
ag3835
a(lp6076
I1175
ag5978
aa(lp6077
I1176
ag5973
aag3836
ag3837
a(lp6078
I1179
ag5951
aag3838
ag5450
a(lp6079
I1182
ag5973
aag3841
ag3842
ag3843
ag3844
ag3845
ag3846
a(lp6080
I1189
ag5973
aag3847
ag3848
ag3849
ag3850
ag3851
ag3852
a(lp6081
I1196
ag5978
aa(lp6082
I1197
ag5973
aag3853
ag3854
a(lp6083
I1200
ag5951
aag3855
ag5451
a(lp6084
I1203
ag5973
aag3858
ag5452
a(lp6085
I1206
ag5973
aag3861
ag3862
ag3863
ag3864
ag3865
ag5453
ag3868
ag3869
ag3870
ag3871
ag3872
ag3873
ag5454
ag3876
ag3877
ag3878
ag5455
ag3881
ag3882
ag3883
ag5456
a(lp6086
I1228
ag5973
aag3886
ag5457
ag3889
ag3890
ag3891
ag3892
ag3893
ag3894
a(lp6087
I1237
ag5978
aag5458
ag3897
a(lp6088
I1240
ag5951
aag3898
ag5459
a(lp6089
I1243
ag5973
aag3901
ag5460
ag3904
ag3905
ag3906
ag3907
ag3908
a(lp6090
I1251
ag5978
aag5461
ag3911
a(lp6091
I1254
ag5951
aag3912
ag5462
a(lp6092
I1257
ag5973
aag3915
ag5463
a(lp6093
I1260
ag5973
aag3918
ag3919
ag3920
ag3921
ag3922
ag3923
ag3924
a(lp6094
I1268
ag5978
aa(lp6095
I1269
ag5973
aag3925
ag5464
a(lp6096
I1272
ag5973
aag3928
ag3929
ag3930
ag3931
ag3932
ag3933
a(lp6097
I1279
ag5978
aa(lp6098
I1280
ag5973
aag3934
ag5465
a(lp6099
I1283
ag5973
aag3937
ag3938
ag3939
ag3940
a(lp6100
I1288
ag5938
aag3941
ag3942
ag3943
ag3944
a(lp6101
I1293
ag5978
aa(lp6102
I1294
ag5973
aag3945
ag3946
a(lp6103
I1297
ag5951
aag3947
ag5466
a(lp6104
I1300
ag5973
aag3950
ag3951
ag3952
ag3953
ag3954
a(lp6105
I1306
ag5998
aag3955
ag3956
ag3957
ag3958
ag3959
a(lp6106
I1312
ag5973
aag3960
ag3961
ag3962
ag3963
ag3964
ag3965
a(lp6107
I1319
ag5978
aa(lp6108
I1320
ag5973
aag3966
ag3967
a(lp6109
I1323
ag5951
aag3968
ag5467
a(lp6110
I1326
ag5973
aag3971
ag3972
ag3973
ag3974
ag3975
ag3976
a(lp6111
I1333
ag5978
aa(lp6112
I1334
ag5973
aag3977
ag3978
a(lp6113
I1337
ag5951
aag3979
ag5468
a(lp6114
I1340
ag5973
aag3982
ag3983
ag3984
ag3985
ag3986
ag3987
a(lp6115
I1347
ag5973
aag3988
ag3989
ag3990
ag3991
ag3992
ag3993
a(lp6116
I1354
ag5978
aa(lp6117
I1355
ag5973
aag3994
ag5469
a(lp6118
I1358
ag5973
aag3997
ag5470
a(lp6119
I1361
ag5973
aag4000
ag4001
ag4002
ag4003
ag4004
ag5471
ag4007
ag4008
ag4009
ag4010
ag4011
ag4012
ag5472
ag4015
ag4016
ag4017
ag5473
ag4021
ag4022
ag5474
a(lp6120
I1382
ag5973
aag4025
ag5475
ag4028
ag4029
ag4030
ag4031
ag4032
ag4033
a(lp6121
I1391
ag5978
aag5476
ag4036
a(lp6122
I1394
ag5951
aag4037
ag5477
a(lp6123
I1397
ag5973
aag4040
ag5478
ag4043
ag4044
ag4045
ag4046
ag4047
a(lp6124
I1405
ag5978
aag5479
ag4050
a(lp6125
I1408
ag5951
aag4051
ag5480
a(lp6126
I1411
ag5973
aag4054
ag5481
a(lp6127
I1414
ag5973
aag4057
ag4058
ag4059
ag4060
ag4061
ag4062
ag4063
a(lp6128
I1422
ag5978
aa(lp6129
I1423
ag5973
aag4064
ag5482
a(lp6130
I1426
ag5973
aag4067
ag4068
ag4069
ag4070
ag4071
ag4072
a(lp6131
I1433
ag5978
aa(lp6132
I1434
ag5973
aag4073
ag4074
a(lp6133
I1437
ag5951
aag4075
ag5483
a(lp6134
I1440
ag5973
aag4079
ag4080
ag4081
ag4082
a(lp6135
I1445
ag5938
aag4083
ag4084
ag4085
ag4086
a(lp6136
I1450
ag5978
aa(lp6137
I1451
ag5973
aag4087
ag4088
a(lp6138
I1454
ag5951
aag4089
ag5484
a(lp6139
I1457
ag5973
aag4092
ag4093
ag4094
ag4095
ag4096
a(lp6140
I1463
ag5998
aag4097
ag4098
ag4099
ag4100
ag4101
a(lp6141
I1469
ag5973
aag4102
ag4103
ag4104
ag4105
ag4106
ag4107
a(lp6142
I1476
ag5978
aa(lp6143
I1477
ag5973
aag4108
ag4109
a(lp6144
I1480
ag5951
aag4110
ag5485
a(lp6145
I1483
ag5973
aag4113
ag4114
ag4115
ag4116
ag4117
ag4118
a(lp6146
I1490
ag5978
aa(lp6147
I1491
ag5973
aag4119
ag4120
a(lp6148
I1494
ag5951
aag4121
ag5486
a(lp6149
I1497
ag5973
aag4124
ag4125
ag4126
ag4127
ag4128
ag4129
a(lp6150
I1504
ag5973
aag4130
ag4131
ag4132
ag4133
ag4134
ag4135
a(lp6151
I1511
ag5978
aa(lp6152
I1512
ag5973
aag4136
ag4137
a(lp6153
I1515
ag5951
aag4138
ag5487
a(lp6154
I1518
ag5973
aag4141
ag5488
a(lp6155
I1521
ag5973
aag4144
ag4145
ag4146
ag4147
ag4148
ag5489
ag4151
ag4152
ag4153
ag4154
ag4155
ag4156
ag5490
ag4159
ag4160
ag4161
ag5491
ag4165
ag4166
ag5492
a(lp6156
I1542
ag5973
aag4169
ag5493
ag4172
ag4173
ag4174
ag4175
ag4176
ag4177
a(lp6157
I1551
ag5978
aag5494
ag4180
a(lp6158
I1554
ag5951
aag4181
ag5495
a(lp6159
I1557
ag5973
aag4184
ag5496
ag4187
ag4188
ag4189
ag4190
ag4191
a(lp6160
I1565
ag5978
aag5497
ag4194
a(lp6161
I1568
ag5951
aag4195
ag5498
a(lp6162
I1571
ag5973
aag4198
ag5499
a(lp6163
I1574
ag5973
aag4201
ag4202
ag4203
ag4204
ag4205
ag4206
ag4207
a(lp6164
I1582
ag5978
aa(lp6165
I1583
ag5973
aag4208
ag5500
a(lp6166
I1586
ag5973
aag4211
ag4212
ag4213
ag4214
ag4215
ag4216
a(lp6167
I1593
ag5978
aa(lp6168
I1594
ag5973
aag4217
ag5501
a(lp6169
I1597
ag5973
aag4220
ag4221
ag4222
ag4223
a(lp6170
I1602
ag5938
aag4224
ag4225
ag4226
ag4227
a(lp6171
I1607
ag5978
aa(lp6172
I1608
ag5973
aag4228
ag5502
a(lp6173
I1611
ag5973
aag4231
ag4232
ag4233
ag4234
ag4235
a(lp6174
I1617
ag5998
aag4236
ag4237
ag4238
ag4239
ag4240
a(lp6175
I1623
ag5973
aag4241
ag4242
ag4243
ag4244
ag4245
ag4246
a(lp6176
I1630
ag5978
aa(lp6177
I1631
ag5973
aag4247
ag5503
a(lp6178
I1634
ag5973
aag4250
ag4251
ag4252
ag4253
ag4254
ag4255
a(lp6179
I1641
ag5978
aa(lp6180
I1642
ag5973
aag4256
ag4257
a(lp6181
I1645
ag5951
aag4258
ag5504
a(lp6182
I1648
ag5973
aag4261
ag4262
ag4263
ag4264
ag4265
ag4266
a(lp6183
I1655
ag5973
aag4267
ag4268
ag4269
ag4270
ag4271
ag4272
a(lp6184
I1662
ag5978
aa(lp6185
I1663
ag5973
aag4273
ag5505
a(lp6186
I1666
ag5973
aag4276
ag5506
a(lp6187
I1669
ag5973
aag4279
ag4280
ag4281
ag4282
ag4283
ag5507
ag4286
ag4287
ag4288
ag4289
ag4290
ag4291
ag5508
ag4294
ag4295
ag4296
ag4297
ag5509
ag4301
ag4302
ag5510
a(lp6188
I1691
ag5973
aag4305
ag5511
ag4308
ag4309
ag4310
ag4311
ag4312
ag4313
a(lp6189
I1700
ag5978
aag5512
ag4316
a(lp6190
I1703
ag5951
aag4317
ag5513
a(lp6191
I1706
ag5973
aag4320
ag5514
ag4323
ag4324
ag4325
ag4326
ag4327
a(lp6192
I1714
ag5978
aag5515
ag4330
a(lp6193
I1717
ag5951
aag4331
ag5516
a(lp6194
I1720
ag5973
aag4334
ag5517
a(lp6195
I1723
ag5973
aag4337
ag4338
ag4339
ag4340
ag4341
ag4342
ag4343
a(lp6196
I1731
ag5978
aa(lp6197
I1732
ag5973
aag4344
ag4345
a(lp6198
I1735
ag5951
aag4346
ag5518
a(lp6199
I1738
ag5973
aag4349
ag4350
ag4351
ag4352
ag4353
ag4354
a(lp6200
I1745
ag5978
aa(lp6201
I1746
ag5973
aag4355
ag4356
a(lp6202
I1749
ag5951
aag4357
ag5519
a(lp6203
I1752
ag5973
aag4360
ag4361
ag4362
ag4363
a(lp6204
I1757
ag5938
aag4364
ag4365
ag4366
ag4367
a(lp6205
I1762
ag5978
aa(lp6206
I1763
ag5973
aag4368
ag4369
a(lp6207
I1766
ag5951
aag4370
ag5520
a(lp6208
I1769
ag5973
aag4373
ag4374
ag4375
ag4376
ag4377
a(lp6209
I1775
ag5998
aag4378
ag4379
ag4380
ag4381
ag4382
a(lp6210
I1781
ag5973
aag4383
ag4384
ag4385
ag4386
ag4387
ag4388
a(lp6211
I1788
ag5978
aa(lp6212
I1789
ag5973
aag4389
ag4390
a(lp6213
I1792
ag5951
aag4391
ag5521
a(lp6214
I1795
ag5973
aag4394
ag4395
ag4396
ag4397
ag4398
ag4399
a(lp6215
I1802
ag5978
aa(lp6216
I1803
ag5973
aag4400
ag4401
a(lp6217
I1806
ag5951
aag4402
ag5522
a(lp6218
I1809
ag5973
aag4405
ag4406
ag4407
ag4408
ag4409
ag4410
a(lp6219
I1816
ag5973
aag4411
ag4412
ag4413
ag4414
ag4415
ag4416
a(lp6220
I1823
ag5978
aa(lp6221
I1824
ag5973
aag4417
ag4418
a(lp6222
I1827
ag5951
aag4419
ag5523
a(lp6223
I1830
ag5973
aag4422
ag5524
a(lp6224
I1833
ag5973
aag4425
ag4426
ag4427
ag4428
ag4429
ag4430
ag4431
ag4432
ag5525
ag4436
ag4437
ag5526
a(lp6225
I1846
ag5973
aag4440
ag5527
ag4443
ag4444
ag4445
ag4446
ag4447
ag4448
a(lp6226
I1855
ag5978
aag5528
a(lp6227
I1857
ag5951
aag4451
ag5529
a(lp6228
I1860
ag5973
aag4454
ag5530
ag4457
ag4458
ag4459
ag4460
ag4461
a(lp6229
I1868
ag5978
aag5531
a(lp6230
I1870
ag5951
aag4464
ag5532
a(lp6231
I1873
ag5973
aag4467
ag5533
a(lp6232
I1876
ag5973
aag4470
ag4471
ag4472
ag4473
ag4474
ag4475
ag4476
a(lp6233
I1884
ag5978
aa(lp6234
I1885
ag5973
aag4477
ag5534
a(lp6235
I1888
ag5973
aag4480
ag4481
ag4482
ag4483
ag4484
ag4485
a(lp6236
I1895
ag5978
aa(lp6237
I1896
ag5973
aag4486
ag4487
a(lp6238
I1899
ag5951
aag4488
ag5535
a(lp6239
I1902
ag5973
aag4491
ag4492
ag4493
ag4494
a(lp6240
I1907
ag5938
aag4495
ag4496
ag4497
ag4498
a(lp6241
I1912
ag5978
aa(lp6242
I1913
ag5973
aag4499
ag4500
a(lp6243
I1916
ag5951
aag4501
ag5536
a(lp6244
I1919
ag5973
aag4504
ag4505
ag4506
ag4507
ag4508
a(lp6245
I1925
ag5998
aag4509
ag4510
ag4511
ag4512
ag4513
a(lp6246
I1931
ag5973
aag4514
ag4515
ag4516
ag4517
ag4518
ag4519
a(lp6247
I1938
ag5978
aa(lp6248
I1939
ag5973
aag4520
ag4521
a(lp6249
I1942
ag5951
aag4522
ag5537
a(lp6250
I1945
ag5973
aag4525
ag4526
ag4527
ag4528
ag4529
ag4530
a(lp6251
I1952
ag5978
aa(lp6252
I1953
ag5973
aag4531
ag4532
a(lp6253
I1956
ag5951
aag4533
ag5538
a(lp6254
I1959
ag5973
aag4536
ag4537
ag4538
ag4539
ag4540
ag4541
a(lp6255
I1966
ag5973
aag4542
ag4543
ag4544
ag4545
ag4546
ag4547
a(lp6256
I1973
ag5978
aa(lp6257
I1974
ag5973
aag4548
ag4549
a(lp6258
I1977
ag5951
aag4550
ag5539
a(lp6259
I1980
ag5973
aag4553
ag5540
a(lp6260
I1983
ag5973
aag4556
ag4557
ag4558
ag4559
ag4560
ag4561
ag4562
ag4563
ag5541
ag4566
ag4567
ag4568
ag4569
ag4570
ag4571
ag4572
ag4573
ag4574
ag4575
ag4576
ag4577
ag5542
a(lp6261
I2006
ag5940
aag4580
ag4581
ag4582
ag4583
ag4584
ag4585
ag4586
ag4587
ag4588
a(lp6262
I2016
ag5942
aag5543
a(lp6263
I2018
ag5973
aag4591
a(lp6264
I2020
ag5973
aag4592
ag4593
ag4594
ag4595
ag4596
ag4597
ag4598
ag4599
ag4600
ag4601
ag4602
ag4603
ag4604
ag5544
ag4607
ag4608
ag4609
ag4610
ag4611
ag4612
ag4613
ag5545
ag4617
ag4618
ag5546
a(lp6265
I2046
ag5973
aag4621
ag5547
ag4624
ag4625
ag5548
ag4628
ag4629
ag4630
ag4631
ag4632
ag4633
ag4634
ag5549
a(lp6266
I2060
ag5973
aag4637
a(lp6267
I2062
ag5973
aag4638
ag4639
ag4640
ag4641
ag4642
ag4643
ag4644
a(lp6268
I2070
ag5978
aag5550
ag4647
ag5551
a(lp6269
I2074
ag5973
aag4650
ag5552
ag4653
ag4654
ag4655
ag4656
ag4657
a(lp6270
I2082
ag5978
aag5553
ag4660
ag5554
a(lp6271
I2086
ag5973
aag4663
ag5555
ag4666
ag4667
ag4668
a(lp6272
I2092
ag5938
aag4669
ag4670
ag4671
ag4672
a(lp6273
I2097
ag5978
aag5556
ag4675
ag5557
a(lp6274
I2101
ag5973
aag4678
ag5558
ag4681
ag4682
ag4683
ag4684
a(lp6275
I2108
ag5998
aag4685
ag4686
ag4687
ag4688
ag4689
ag5559
ag4692
ag4693
ag4694
ag4695
ag4696
a(lp6276
I2120
ag5978
aag5560
ag4699
ag5561
a(lp6277
I2124
ag5973
aag4702
ag5562
ag4705
ag4706
ag4707
ag4708
ag4709
a(lp6278
I2132
ag5978
aag5563
ag4712
ag5564
a(lp6279
I2136
ag5973
aag4715
ag5565
ag4718
ag4719
ag4720
ag4721
ag4722
ag5566
ag4725
ag4726
ag4727
ag4728
ag4729
a(lp6280
I2150
ag5978
aag5567
ag4732
ag5568
ag4735
ag4736
ag4737
ag4738
ag4739
ag4740
a(lp6281
I2160
ag5978
aag5569
ag4743
ag4744
ag4745
ag4746
ag4747
ag4748
ag4749
ag5570
a(lp6282
I2170
ag5973
aag4752
ag5571
ag4755
ag4756
ag4757
ag4758
ag4759
a(lp6283
I2178
ag5978
aag5572
ag4762
ag4763
ag4764
ag4765
ag4766
ag4767
ag4768
ag5573
a(lp6284
I2188
ag5973
aag4771
ag5574
a(lp6285
I2191
ag5973
aag4774
ag4775
ag4776
ag4777
ag4778
ag4779
ag4780
a(lp6286
I2199
ag5978
aa(lp6287
I2200
ag5973
aag4781
ag5575
a(lp6288
I2203
ag5973
aag4784
ag4785
ag4786
ag4787
ag4788
ag4789
a(lp6289
I2210
ag5978
aa(lp6290
I2211
ag5973
aag4790
ag5576
a(lp6291
I2214
ag5973
aag4793
ag4794
ag4795
ag4796
a(lp6292
I2219
ag5938
aag4797
ag4798
ag4799
ag4800
a(lp6293
I2224
ag5978
aa(lp6294
I2225
ag5973
aag4801
ag5577
a(lp6295
I2228
ag5973
aag4804
ag4805
ag4806
ag4807
ag4808
a(lp6296
I2234
ag5998
aag4809
ag4810
ag4811
ag4812
ag4813
a(lp6297
I2240
ag5973
aag4814
ag4815
ag4816
ag4817
ag4818
ag4819
a(lp6298
I2247
ag5978
aa(lp6299
I2248
ag5973
aag4820
ag5578
a(lp6300
I2251
ag5973
aag4823
ag4824
ag4825
ag4826
ag4827
ag4828
a(lp6301
I2258
ag5978
aa(lp6302
I2259
ag5973
aag4829
ag5579
a(lp6303
I2262
ag5973
aag4832
ag4833
ag4834
ag4835
ag4836
ag4837
a(lp6304
I2269
ag5973
aag4838
ag4839
ag4840
ag4841
ag4842
ag4843
a(lp6305
I2276
ag5978
aa(lp6306
I2277
ag5973
aag4844
ag5580
a(lp6307
I2280
ag5973
aag4847
ag5581
a(lp6308
I2283
ag5973
aag4850
ag4851
ag4852
ag4853
ag4854
ag4855
ag4856
ag5582
ag4859
ag4860
ag4861
ag4862
ag5583
ag4865
ag4866
ag4867
ag5584
a(lp6309
I2301
ag5973
aag4870
ag5585
ag4873
ag4874
ag4875
ag4876
ag4877
ag4878
a(lp6310
I2310
ag5978
aag5586
ag4881
a(lp6311
I2313
ag5951
aag4882
ag5587
a(lp6312
I2316
ag5973
aag4885
ag5588
ag4888
ag4889
ag4890
ag4891
ag4892
a(lp6313
I2324
ag5978
aag5589
ag4895
a(lp6314
I2327
ag5951
aag4896
ag5590
a(lp6315
I2330
ag5973
aag4899
ag5591
a(lp6316
I2333
ag5973
aag4902
ag4903
ag4904
ag4905
ag4906
ag4907
ag4908
a(lp6317
I2341
ag5978
aa(lp6318
I2342
ag5973
aag4909
ag5592
a(lp6319
I2345
ag5973
aag4912
ag4913
ag4914
ag4915
ag4916
ag4917
a(lp6320
I2352
ag5978
aa(lp6321
I2353
ag5973
aag4918
ag4919
a(lp6322
I2356
ag5951
aag4920
ag5593
a(lp6323
I2359
ag5973
aag4923
ag4924
ag4925
ag4926
a(lp6324
I2364
ag5938
aag4927
ag4928
ag4929
ag4930
a(lp6325
I2369
ag5978
aa(lp6326
I2370
ag5973
aag4931
ag4932
a(lp6327
I2373
ag5951
aag4933
ag5594
a(lp6328
I2376
ag5973
aag4936
ag4937
ag4938
ag4939
ag4940
a(lp6329
I2382
ag5998
aag4941
ag4942
ag4943
ag4944
ag4945
a(lp6330
I2388
ag5973
aag4946
ag4947
ag4948
ag4949
ag4950
ag4951
a(lp6331
I2395
ag5978
aa(lp6332
I2396
ag5973
aag4952
ag4953
a(lp6333
I2399
ag5951
aag4954
ag5595
a(lp6334
I2402
ag5973
aag4957
ag4958
ag4959
ag4960
ag4961
ag4962
a(lp6335
I2409
ag5978
aa(lp6336
I2410
ag5973
aag4963
ag4964
a(lp6337
I2413
ag5951
aag4965
ag5596
a(lp6338
I2416
ag5973
aag4968
ag4969
ag4970
ag4971
ag4972
ag4973
a(lp6339
I2423
ag5973
aag4974
ag4975
ag4976
ag4977
ag4978
ag4979
a(lp6340
I2430
ag5978
aa(lp6341
I2431
ag5973
aag4980
ag4981
a(lp6342
I2434
ag5951
aag4982
ag5597
a(lp6343
I2437
ag5973
aag4985
ag5598
a(lp6344
I2440
ag5973
aag4988
ag4989
ag4990
ag4991
ag4992
ag4993
ag4994
ag4995
ag4996
ag4997
ag5599
ag5000
ag5001
ag5002
ag5600
a(lp6345
I2456
ag5973
aag5005
ag5601
ag5008
ag5009
ag5010
ag5011
ag5012
ag5013
a(lp6346
I2465
ag5978
aag5602
ag5016
a(lp6347
I2468
ag5951
aag5017
ag5603
a(lp6348
I2471
ag5973
aag5020
ag5604
ag5023
ag5024
ag5025
ag5026
ag5027
a(lp6349
I2479
ag5978
aag5605
ag5030
a(lp6350
I2482
ag5951
aag5031
ag5606
a(lp6351
I2485
ag5973
aag5034
ag5607
a(lp6352
I2488
ag5973
aag5037
ag5038
ag5039
ag5040
ag5041
ag5042
ag5043
a(lp6353
I2496
ag5978
aa(lp6354
I2497
ag5973
aag5044
ag5608
a(lp6355
I2500
ag5973
aag5047
ag5048
ag5049
ag5050
ag5051
ag5052
a(lp6356
I2507
ag5978
aa(lp6357
I2508
ag5973
aag5053
ag5054
a(lp6358
I2511
ag5951
aag5055
ag5609
a(lp6359
I2514
ag5973
aag5058
ag5059
ag5060
ag5061
a(lp6360
I2519
ag5938
aag5062
ag5063
ag5064
ag5065
a(lp6361
I2524
ag5978
aa(lp6362
I2525
ag5973
aag5066
ag5067
a(lp6363
I2528
ag5951
aag5068
ag5610
a(lp6364
I2531
ag5973
aag5071
ag5072
ag5073
ag5074
ag5075
a(lp6365
I2537
ag5998
aag5076
ag5077
ag5078
ag5079
ag5080
a(lp6366
I2543
ag5973
aag5081
ag5082
ag5083
ag5084
ag5085
ag5086
a(lp6367
I2550
ag5978
aa(lp6368
I2551
ag5973
aag5087
ag5088
a(lp6369
I2554
ag5951
aag5089
ag5611
a(lp6370
I2557
ag5973
aag5092
ag5093
ag5094
ag5095
ag5096
ag5097
a(lp6371
I2564
ag5978
aa(lp6372
I2565
ag5973
aag5098
ag5099
a(lp6373
I2568
ag5951
aag5100
ag5612
a(lp6374
I2571
ag5973
aag5103
ag5104
ag5105
ag5106
ag5107
ag5108
a(lp6375
I2578
ag5973
aag5109
ag5110
ag5111
ag5112
ag5113
ag5114
a(lp6376
I2585
ag5978
aa(lp6377
I2586
ag5973
aag5115
ag5116
a(lp6378
I2589
ag5951
aag5117
ag5613
a(lp6379
I2592
ag5973
aag5120
ag5614
a(lp6380
I2595
ag5973
aag5123
ag5124
ag5125
ag5126
ag5127
ag5128
ag5129
ag5615
ag5133
ag5134
ag5616
a(lp6381
I2607
ag5973
aag5137
ag5617
ag5140
ag5141
ag5142
ag5143
ag5144
ag5145
a(lp6382
I2616
ag5978
aag5618
a(lp6383
I2618
ag5951
aag5148
ag5619
a(lp6384
I2621
ag5973
aag5151
ag5620
ag5154
ag5155
ag5156
ag5157
ag5158
a(lp6385
I2629
ag5978
aag5621
a(lp6386
I2631
ag5951
aag5161
ag5622
a(lp6387
I2634
ag5973
aag5164
ag5623
a(lp6388
I2637
ag5973
aag5167
ag5168
ag5169
ag5170
ag5171
ag5172
ag5173
a(lp6389
I2645
ag5978
aa(lp6390
I2646
ag5973
aag5174
ag5624
a(lp6391
I2649
ag5973
aag5177
ag5178
ag5179
ag5180
ag5181
ag5182
a(lp6392
I2656
ag5978
aa(lp6393
I2657
ag5973
aag5183
ag5184
a(lp6394
I2660
ag5951
aag5185
ag5625
a(lp6395
I2663
ag5973
aag5188
ag5189
ag5190
ag5191
a(lp6396
I2668
ag5938
aag5192
ag5193
ag5194
ag5195
a(lp6397
I2673
ag5978
aa(lp6398
I2674
ag5973
aag5196
ag5197
a(lp6399
I2677
ag5951
aag5198
ag5626
a(lp6400
I2680
ag5973
aag5201
ag5202
ag5203
ag5204
ag5205
a(lp6401
I2686
ag5998
aag5206
ag5207
ag5208
ag5209
ag5210
a(lp6402
I2692
ag5973
aag5211
ag5212
ag5213
ag5214
ag5215
ag5216
a(lp6403
I2699
ag5978
aa(lp6404
I2700
ag5973
aag5217
ag5218
a(lp6405
I2703
ag5951
aag5219
ag5627
a(lp6406
I2706
ag5973
aag5222
ag5223
ag5224
ag5225
ag5226
ag5227
a(lp6407
I2713
ag5978
aa(lp6408
I2714
ag5973
aag5228
ag5229
a(lp6409
I2717
ag5951
aag5230
ag5628
a(lp6410
I2720
ag5973
aag5233
ag5234
ag5235
ag5236
ag5237
ag5238
a(lp6411
I2727
ag5973
aag5239
ag5240
ag5241
ag5242
ag5243
ag5244
a(lp6412
I2734
ag5978
aa(lp6413
I2735
ag5973
aag5245
ag5246
a(lp6414
I2738
ag5951
aag5247
ag5629
a(lp6415
I2741
ag5973
aag5250
ag5630
ag5253
ag5254
ag5255
ag5256
ag5257
ag5258
ag5259
ag5260
ag5261
ag5262
a(lp6416
I2754
ag5978
aag5631
ag5265
ag5266
ag5267
ag5268
ag5269
ag5270
ag5271
ag5272
ag5273
ag5274
ag5275
ag5276
asS'docName'
p6417
S'source-document01179.txt'
p6418
sb.