(iModel.Document
Document
p0
(dp1
S'fmap'
p2
(lp3
(lp4
I0
aI2
aS'hot'
p5
a(lp6
S'*'
p7
ag5
aaa(lp8
I0
aI2
ag5
a(lp9
g7
ag5
aaa(lp10
I0
aI2
ag5
a(lp11
g7
ag5
aaa(lp12
I0
aI2
ag5
a(lp13
g7
ag5
aaa(lp14
I4
aI10
aS'summers'
p15
a(lp16
g5
ag15
aaa(lp17
I4
aI10
ag15
a(lp18
g7
ag15
aaa(lp19
I4
aI10
ag15
a(lp20
g7
ag15
aaa(lp21
I4
aI10
ag15
a(lp22
g7
ag15
aaa(lp23
I13
aI17
aS'harsh'
p24
a(lp25
g15
ag24
aaa(lp26
I13
aI17
ag24
a(lp27
g5
ag24
aaa(lp28
I13
aI17
ag24
a(lp29
g7
ag24
aaa(lp30
I13
aI17
ag24
a(lp31
g7
ag24
aaa(lp32
I20
aI23
aS'cold'
p33
a(lp34
g24
ag33
aaa(lp35
I20
aI23
ag33
a(lp36
g15
ag33
aaa(lp37
I20
aI23
ag33
a(lp38
g5
ag33
aaa(lp39
I20
aI23
ag33
a(lp40
g7
ag33
aaa(lp41
I25
aI31
aS'winters'
p42
a(lp43
g33
ag42
aaa(lp44
I25
aI31
ag42
a(lp45
g24
ag42
aaa(lp46
I25
aI31
ag42
a(lp47
g15
ag42
aaa(lp48
I25
aI31
ag42
a(lp49
g5
ag42
aaa(lp50
I33
aI38
aS'plains'
p51
a(lp52
g42
ag51
aaa(lp53
I33
aI38
ag51
a(lp54
g33
ag51
aaa(lp55
I33
aI38
ag51
a(lp56
g24
ag51
aaa(lp57
I33
aI38
ag51
a(lp58
g15
ag51
aaa(lp59
I41
aI48
aS'prairies'
p60
a(lp61
g51
ag60
aaa(lp62
I41
aI48
ag60
a(lp63
g42
ag60
aaa(lp64
I41
aI48
ag60
a(lp65
g33
ag60
aaa(lp66
I41
aI48
ag60
a(lp67
g24
ag60
aaa(lp68
I51
aI57
aS'rolling'
p69
a(lp70
g60
ag69
aaa(lp71
I51
aI57
ag69
a(lp72
g51
ag69
aaa(lp73
I51
aI57
ag69
a(lp74
g42
ag69
aaa(lp75
I51
aI57
ag69
a(lp76
g33
ag69
aaa(lp77
I59
aI63
aS'hills'
p78
a(lp79
g69
ag78
aaa(lp80
I59
aI63
ag78
a(lp81
g60
ag78
aaa(lp82
I59
aI63
ag78
a(lp83
g51
ag78
aaa(lp84
I59
aI63
ag78
a(lp85
g42
ag78
aaa(lp86
I74
aI80
aS'grasses'
p87
a(lp88
g78
ag87
aaa(lp89
I74
aI80
ag87
a(lp90
g69
ag87
aaa(lp91
I74
aI80
ag87
a(lp92
g60
ag87
aaa(lp93
I74
aI80
ag87
a(lp94
g51
ag87
aaa(lp95
I87
aI91
aS'sioux'
p96
a(lp97
g87
ag96
aaa(lp98
I87
aI91
ag96
a(lp99
g78
ag96
aaa(lp100
I87
aI91
ag96
a(lp101
g69
ag96
aaa(lp102
I87
aI91
ag96
a(lp103
g60
ag96
aaa(lp104
I93
aI97
aS'moved'
p105
a(lp106
g96
ag105
aaa(lp107
I93
aI97
ag105
a(lp108
g87
ag105
aaa(lp109
I93
aI97
ag105
a(lp110
g78
ag105
aaa(lp111
I93
aI97
ag105
a(lp112
g69
ag105
aaa(lp113
I99
aI104
aS'around'
p114
a(lp115
g105
ag114
aaa(lp116
I99
aI104
ag114
a(lp117
g96
ag114
aaa(lp118
I99
aI104
ag114
a(lp119
g87
ag114
aaa(lp120
I99
aI104
ag114
a(lp121
g78
ag114
aaa(lp122
I110
aI115
aS'region'
p123
a(lp124
g114
ag123
aaa(lp125
I110
aI115
ag123
a(lp126
g105
ag123
aaa(lp127
I110
aI115
ag123
a(lp128
g96
ag123
aaa(lp129
I110
aI115
ag123
a(lp130
g87
ag123
aaa(lp131
I120
aI123
aS'hunt'
p132
a(lp133
g123
ag132
aaa(lp134
I120
aI123
ag132
a(lp135
g114
ag132
aaa(lp136
I120
aI123
ag132
a(lp137
g105
ag132
aaa(lp138
I120
aI123
ag132
a(lp139
g96
ag132
aaa(lp140
I129
aI135
aS'buffalo'
p141
a(lp142
g132
ag141
aaa(lp143
I129
aI135
ag141
a(lp144
g123
ag141
aaa(lp145
I129
aI135
ag141
a(lp146
g114
ag141
aaa(lp147
I129
aI135
ag141
a(lp148
g105
ag141
aaa(lp149
I143
aI146
aS'used'
p150
a(lp151
g141
ag150
aaa(lp152
I143
aI146
ag150
a(lp153
g132
ag150
aaa(lp154
I143
aI146
ag150
a(lp155
g123
ag150
aaa(lp156
I143
aI146
ag150
a(lp157
g114
ag150
aaa(lp158
I148
aI153
aS'horses'
p159
a(lp160
g150
ag159
aaa(lp161
I148
aI153
ag159
a(lp162
g141
ag159
aaa(lp163
I148
aI153
ag159
a(lp164
g132
ag159
aaa(lp165
I148
aI153
ag159
a(lp166
g123
ag159
aaa(lp167
I158
aI160
aS'get'
p168
a(lp169
g159
ag168
aaa(lp170
I158
aI160
ag168
a(lp171
g150
ag168
aaa(lp172
I158
aI160
ag168
a(lp173
g141
ag168
aaa(lp174
I158
aI160
ag168
a(lp175
g132
ag168
aaa(lp176
I162
aI167
aS'places'
p177
a(lp178
g168
ag177
aaa(lp179
I162
aI167
ag177
a(lp180
g159
ag177
aaa(lp181
I162
aI167
ag177
a(lp182
g150
ag177
aaa(lp183
I162
aI167
ag177
a(lp184
g141
ag177
aaa(lp185
I170
aI178
aS'southwest'
p186
a(lp187
g177
ag186
aaa(lp188
I170
aI178
ag186
a(lp189
g168
ag186
aaa(lp190
I170
aI178
ag186
a(lp191
g159
ag186
aaa(lp192
I170
aI178
ag186
a(lp193
g150
ag186
aaa(lp194
I180
aI184
aS'adobe'
p195
a(lp196
g186
ag195
aaa(lp197
I180
aI184
ag195
a(lp198
g177
ag195
aaa(lp199
I180
aI184
ag195
a(lp200
g168
ag195
aaa(lp201
I180
aI184
ag195
a(lp202
g159
ag195
aaa(lp203
I189
aI192
aS'clay'
p204
a(lp205
g195
ag204
aaa(lp206
I189
aI192
ag204
a(lp207
g186
ag204
aaa(lp208
I189
aI192
ag204
a(lp209
g177
ag204
aaa(lp210
I189
aI192
ag204
a(lp211
g168
ag204
aaa(lp212
I194
aI199
aS'houses'
p213
a(lp214
g204
ag213
aaa(lp215
I194
aI199
ag213
a(lp216
g195
ag213
aaa(lp217
I194
aI199
ag213
a(lp218
g186
ag213
aaa(lp219
I194
aI199
ag213
a(lp220
g177
ag213
aaa(lp221
I220
aI220
aS'1'
p222
a(lp223
g213
ag222
aaa(lp224
I220
aI220
ag222
a(lp225
g204
ag222
aaa(lp226
I220
aI220
ag222
a(lp227
g195
ag222
aaa(lp228
I220
aI220
ag222
a(lp229
g186
ag222
aaa(lp230
I222
aI226
aS'story'
p231
a(lp232
g222
ag231
aaa(lp233
I222
aI226
ag231
a(lp234
g213
ag231
aaa(lp235
I222
aI226
ag231
a(lp236
g204
ag231
aaa(lp237
I222
aI226
ag231
a(lp238
g195
ag231
aaa(lp239
I228
aI233
aS'walked'
p240
a(lp241
g231
ag240
aaa(lp242
I228
aI233
ag240
a(lp243
g222
ag240
aaa(lp244
I228
aI233
ag240
a(lp245
g213
ag240
aaa(lp246
I228
aI233
ag240
a(lp247
g204
ag240
aaa(lp248
I235
aI237
aS'hot'
p249
a(lp250
g240
ag249
aaa(lp251
I235
aI237
ag249
a(lp252
g231
ag249
aaa(lp253
I235
aI237
ag249
a(lp254
g222
ag249
aaa(lp255
I235
aI237
ag249
a(lp256
g213
ag249
aaa(lp257
I239
aI242
aS'days'
p258
a(lp259
g249
ag258
aaa(lp260
I239
aI242
ag258
a(lp261
g240
ag258
aaa(lp262
I239
aI242
ag258
a(lp263
g231
ag258
aaa(lp264
I239
aI242
ag258
a(lp265
g222
ag258
aaa(lp266
I245
aI248
aS'cold'
p267
a(lp268
g258
ag267
aaa(lp269
I245
aI248
ag267
a(lp270
g249
ag267
aaa(lp271
I245
aI248
ag267
a(lp272
g240
ag267
aaa(lp273
I245
aI248
ag267
a(lp274
g231
ag267
aaa(lp275
I250
aI255
aS'nights'
p276
a(lp277
g267
ag276
aaa(lp278
I250
aI255
ag276
a(lp279
g258
ag276
aaa(lp280
I250
aI255
ag276
a(lp281
g249
ag276
aaa(lp282
I250
aI255
ag276
a(lp283
g240
ag276
aaa(lp284
I258
aI263
aS'little'
p285
a(lp286
g276
ag285
aaa(lp287
I258
aI263
ag285
a(lp288
g267
ag285
aaa(lp289
I258
aI263
ag285
a(lp290
g258
ag285
aaa(lp291
I258
aI263
ag285
a(lp292
g249
ag285
aaa(lp293
I265
aI272
aS'rainfall'
p294
a(lp295
g285
ag294
aaa(lp296
I265
aI272
ag294
a(lp297
g276
ag294
aaa(lp298
I265
aI272
ag294
a(lp299
g267
ag294
aaa(lp300
I265
aI272
ag294
a(lp301
g258
ag294
aaa(lp302
I274
aI277
aS'high'
p303
a(lp304
g294
ag303
aaa(lp305
I274
aI277
ag303
a(lp306
g285
ag303
aaa(lp307
I274
aI277
ag303
a(lp308
g276
ag303
aaa(lp309
I274
aI277
ag303
a(lp310
g267
ag303
aaa(lp311
I279
aI287
aS'flatlands'
p312
a(lp313
g303
ag312
aaa(lp314
I279
aI287
ag312
a(lp315
g294
ag312
aaa(lp316
I279
aI287
ag312
a(lp317
g285
ag312
aaa(lp318
I279
aI287
ag312
a(lp319
g276
ag312
aaa(lp320
I289
aI294
aS'cactus'
p321
a(lp322
g312
ag321
aaa(lp323
I289
aI294
ag321
a(lp324
g303
ag321
aaa(lp325
I289
aI294
ag321
a(lp326
g294
ag321
aaa(lp327
I289
aI294
ag321
a(lp328
g285
ag321
aaa(lp329
I304
aI307
aS'main'
p330
a(lp331
g321
ag330
aaa(lp332
I304
aI307
ag330
a(lp333
g312
ag330
aaa(lp334
I304
aI307
ag330
a(lp335
g303
ag330
aaa(lp336
I304
aI307
ag330
a(lp337
g294
ag330
aaa(lp338
I309
aI313
aS'plant'
p339
a(lp340
g330
ag339
aaa(lp341
I309
aI313
ag339
a(lp342
g321
ag339
aaa(lp343
I309
aI313
ag339
a(lp344
g312
ag339
aaa(lp345
I309
aI313
ag339
a(lp346
g303
ag339
aaa(lp347
I321
aI326
aS'farmed'
p348
a(lp349
g339
ag348
aaa(lp350
I321
aI326
ag348
a(lp351
g330
ag348
aaa(lp352
I321
aI326
ag348
a(lp353
g321
ag348
aaa(lp354
I321
aI326
ag348
a(lp355
g312
ag348
aaa(lp356
I332
aI335
aS'land'
p357
a(lp358
g348
ag357
aaa(lp359
I332
aI335
ag357
a(lp360
g339
ag357
aaa(lp361
I332
aI335
ag357
a(lp362
g330
ag357
aaa(lp363
I332
aI335
ag357
a(lp364
g321
ag357
aaa(lp365
I343
aI347
aS'lived'
p366
a(lp367
g357
ag366
aaa(lp368
I343
aI347
ag366
a(lp369
g348
ag366
aaa(lp370
I343
aI347
ag366
a(lp371
g339
ag366
aaa(lp372
I343
aI347
ag366
a(lp373
g330
ag366
aaa(lp374
I352
aI359
aS'villages'
p375
a(lp376
g366
ag375
aaa(lp377
I352
aI359
ag375
a(lp378
g357
ag375
aaa(lp379
I352
aI359
ag375
a(lp380
g348
ag375
aaa(lp381
I352
aI359
ag375
a(lp382
g339
ag375
aaa(lp383
I364
aI368
aS'adobe'
p384
a(lp385
g375
ag384
aaa(lp386
I364
aI368
ag384
a(lp387
g366
ag384
aaa(lp388
I364
aI368
ag384
a(lp389
g357
ag384
aaa(lp390
I364
aI368
ag384
a(lp391
g348
ag384
aaa(lp392
I373
aI376
aS'clay'
p393
a(lp394
g384
ag393
aaa(lp395
I373
aI376
ag393
a(lp396
g375
ag393
aaa(lp397
I373
aI376
ag393
a(lp398
g366
ag393
aaa(lp399
I373
aI376
ag393
a(lp400
g357
ag393
aaa(lp401
I378
aI383
aS'houses'
p402
a(lp403
g393
ag402
aaa(lp404
I378
aI383
ag402
a(lp405
g384
ag402
aaa(lp406
I378
aI383
ag402
a(lp407
g375
ag402
aaa(lp408
I378
aI383
ag402
a(lp409
g366
ag402
aaa(lp410
I386
aI389
aS'take'
p411
a(lp412
g402
ag411
aaa(lp413
I386
aI389
ag411
a(lp414
g393
ag411
aaa(lp415
I386
aI389
ag411
a(lp416
g384
ag411
aaa(lp417
I386
aI389
ag411
a(lp418
g375
ag411
aaa(lp419
I393
aI396
aS'look'
p420
a(lp421
g411
ag420
aaa(lp422
I393
aI396
ag420
a(lp423
g402
ag420
aaa(lp424
I393
aI396
ag420
a(lp425
g393
ag420
aaa(lp426
I393
aI396
ag420
a(lp427
g384
ag420
aaa(lp428
I406
aI410
aS'great'
p429
a(lp430
g420
ag429
aaa(lp431
I406
aI410
ag429
a(lp432
g411
ag429
aaa(lp433
I406
aI410
ag429
a(lp434
g402
ag429
aaa(lp435
I406
aI410
ag429
a(lp436
g393
ag429
aaa(lp437
I412
aI418
aS'webpage'
p438
a(lp439
g429
ag438
aaa(lp440
I412
aI418
ag438
a(lp441
g420
ag438
aaa(lp442
I412
aI418
ag438
a(lp443
g411
ag438
aaa(lp444
I412
aI418
ag438
a(lp445
g402
ag438
aaa(lp446
I423
aI428
aS'native'
p447
a(lp448
g438
ag447
aaa(lp449
I423
aI428
ag447
a(lp450
g429
ag447
aaa(lp451
I423
aI428
ag447
a(lp452
g420
ag447
aaa(lp453
I423
aI428
ag447
a(lp454
g411
ag447
aaa(lp455
I430
aI437
aS'american'
p456
a(lp457
g447
ag456
aaa(lp458
I430
aI437
ag456
a(lp459
g438
ag456
aaa(lp460
I430
aI437
ag456
a(lp461
g429
ag456
aaa(lp462
I430
aI437
ag456
a(lp463
g420
ag456
aaa(lp464
I439
aI444
aS'tribes'
p465
a(lp466
g456
ag465
aaa(lp467
I439
aI444
ag465
a(lp468
g447
ag465
aaa(lp469
I439
aI444
ag465
a(lp470
g438
ag465
aaa(lp471
I439
aI444
ag465
a(lp472
g429
ag465
aaa(lp473
I455
aI458
aS'made'
p474
a(lp475
g465
ag474
aaa(lp476
I455
aI458
ag474
a(lp477
g456
ag474
aaa(lp478
I455
aI458
ag474
a(lp479
g447
ag474
aaa(lp480
I455
aI458
ag474
a(lp481
g438
ag474
aaa(lp482
I469
aI476
aS'students'
p483
a(lp484
g474
ag483
aaa(lp485
I469
aI476
ag483
a(lp486
g465
ag483
aaa(lp487
I469
aI476
ag483
a(lp488
g456
ag483
aaa(lp489
I469
aI476
ag483
a(lp490
g447
ag483
aaa(lp491
I484
aI492
aS'beautiful'
p492
a(lp493
g483
ag492
aaa(lp494
I484
aI492
ag492
a(lp495
g474
ag492
aaa(lp496
I484
aI492
ag492
a(lp497
g465
ag492
aaa(lp498
I484
aI492
ag492
a(lp499
g456
ag492
aaa(lp500
I494
aI500
aS'artwork'
p501
a(lp502
g492
ag501
aaa(lp503
I494
aI500
ag501
a(lp504
g483
ag501
aaa(lp505
I494
aI500
ag501
a(lp506
g474
ag501
aaa(lp507
I494
aI500
ag501
a(lp508
g465
ag501
aaa(lp509
I502
aI505
aS'made'
p510
a(lp511
g501
ag510
aaa(lp512
I502
aI505
ag510
a(lp513
g492
ag510
aaa(lp514
I502
aI505
ag510
a(lp515
g483
ag510
aaa(lp516
I502
aI505
ag510
a(lp517
g474
ag510
aaa(lp518
I512
aI514
aS'2nd'
p519
a(lp520
g510
ag519
aaa(lp521
I512
aI514
ag519
a(lp522
g501
ag519
aaa(lp523
I512
aI514
ag519
a(lp524
g492
ag519
aaa(lp525
I512
aI514
ag519
a(lp526
g483
ag519
aaa(lp527
I516
aI521
aS'grader'
p528
a(lp529
g519
ag528
aaa(lp530
I516
aI521
ag528
a(lp531
g510
ag528
aaa(lp532
I516
aI521
ag528
a(lp533
g501
ag528
aaa(lp534
I516
aI521
ag528
a(lp535
g492
ag528
aaa(lp536
I528
aI535
aS'compares'
p537
a(lp538
g528
ag537
aaa(lp539
I528
aI535
ag537
a(lp540
g519
ag537
aaa(lp541
I528
aI535
ag537
a(lp542
g510
ag537
aaa(lp543
I528
aI535
ag537
a(lp544
g501
ag537
aaa(lp545
I537
aI542
aS'native'
p546
a(lp547
g537
ag546
aaa(lp548
I537
aI542
ag546
a(lp549
g528
ag546
aaa(lp550
I537
aI542
ag546
a(lp551
g519
ag546
aaa(lp552
I537
aI542
ag546
a(lp553
g510
ag546
aaa(lp554
I544
aI551
aS'american'
p555
a(lp556
g546
ag555
aaa(lp557
I544
aI551
ag555
a(lp558
g537
ag555
aaa(lp559
I544
aI551
ag555
a(lp560
g528
ag555
aaa(lp561
I544
aI551
ag555
a(lp562
g519
ag555
aaa(lp563
I553
aI558
aS'tribes'
p564
a(lp565
g555
ag564
aaa(lp566
I553
aI558
ag564
a(lp567
g546
ag564
aaa(lp568
I553
aI558
ag564
a(lp569
g537
ag564
aaa(lp570
I553
aI558
ag564
a(lp571
g528
ag564
aaa(lp572
I561
aI565
aS'lets'
p573
a(lp574
g564
ag573
aaa(lp575
I561
aI565
ag573
a(lp576
g555
ag573
aaa(lp577
I561
aI565
ag573
a(lp578
g546
ag573
aaa(lp579
I561
aI565
ag573
a(lp580
g537
ag573
aaa(lp581
I567
aI572
aS'switch'
p582
a(lp583
g573
ag582
aaa(lp584
I567
aI572
ag582
a(lp585
g564
ag582
aaa(lp586
I567
aI572
ag582
a(lp587
g555
ag582
aaa(lp588
I567
aI572
ag582
a(lp589
g546
ag582
aaa(lp590
I574
aI578
aS'gears'
p591
a(lp592
g582
ag591
aaa(lp593
I574
aI578
ag591
a(lp594
g573
ag591
aaa(lp595
I574
aI578
ag591
a(lp596
g564
ag591
aaa(lp597
I574
aI578
ag591
a(lp598
g555
ag591
aaa(lp599
I584
aI589
aS'review'
p600
a(lp601
g591
ag600
aaa(lp602
I584
aI589
ag600
a(lp603
g582
ag600
aaa(lp604
I584
aI589
ag600
a(lp605
g573
ag600
aaa(lp606
I584
aI589
ag600
a(lp607
g564
ag600
aaa(lp608
I595
aI601
aS'ancient'
p609
a(lp610
g600
ag609
aaa(lp611
I595
aI601
ag609
a(lp612
g591
ag609
aaa(lp613
I595
aI601
ag609
a(lp614
g582
ag609
aaa(lp615
I595
aI601
ag609
a(lp616
g573
ag609
aaa(lp617
I603
aI610
aS'cultures'
p618
a(lp619
g609
ag618
aaa(lp620
I603
aI610
ag618
a(lp621
g600
ag618
aaa(lp622
I603
aI610
ag618
a(lp623
g591
ag618
aaa(lp624
I603
aI610
ag618
a(lp625
g582
ag618
aaa(lp626
I619
aI626
aS'studying'
p627
a(lp628
g618
ag627
aaa(lp629
I619
aI626
ag627
a(lp630
g609
ag627
aaa(lp631
I619
aI626
ag627
a(lp632
g600
ag627
aaa(lp633
I619
aI626
ag627
a(lp634
g591
ag627
aaa(lp635
I629
aI635
aS'ancient'
p636
a(lp637
g627
ag636
aaa(lp638
I629
aI635
ag636
a(lp639
g618
ag636
aaa(lp640
I629
aI635
ag636
a(lp641
g609
ag636
aaa(lp642
I629
aI635
ag636
a(lp643
g600
ag636
aaa(lp644
I629
aI635
aS'culture'
p645
a(lp646
g636
ag645
aaa(lp647
I629
aI635
ag645
a(lp648
g627
ag645
aaa(lp649
I629
aI635
ag645
a(lp650
g618
ag645
aaa(lp651
I629
aI635
ag645
a(lp652
g609
ag645
aaasS'wordMap'
p653
(lp654
(lp655
I0
aI2
ag5
a(lp656
(lp657
I0
aS'h'
p658
aa(lp659
I1
aS'o'
p660
aa(lp661
I2
aS't'
p662
aaaa(lp663
I4
aI10
ag15
a(lp664
(lp665
I4
aS's'
p666
aa(lp667
I5
aS'u'
p668
aa(lp669
I6
aS'm'
p670
aa(lp671
I7
ag670
aa(lp672
I8
aS'e'
p673
aa(lp674
I9
aS'r'
p675
aa(lp676
I10
ag666
aaaa(lp677
I13
aI17
ag24
a(lp678
(lp679
I13
ag658
aa(lp680
I14
aS'a'
p681
aa(lp682
I15
ag675
aa(lp683
I16
ag666
aa(lp684
I17
ag658
aaaa(lp685
I20
aI23
ag33
a(lp686
(lp687
I20
aS'c'
p688
aa(lp689
I21
ag660
aa(lp690
I22
aS'l'
p691
aa(lp692
I23
aS'd'
p693
aaaa(lp694
I25
aI31
ag42
a(lp695
(lp696
I25
aS'w'
p697
aa(lp698
I26
aS'i'
p699
aa(lp700
I27
aS'n'
p701
aa(lp702
I28
ag662
aa(lp703
I29
ag673
aa(lp704
I30
ag675
aa(lp705
I31
ag666
aaaa(lp706
I33
aI38
ag51
a(lp707
(lp708
I33
aS'p'
p709
aa(lp710
I34
ag691
aa(lp711
I35
ag681
aa(lp712
I36
ag699
aa(lp713
I37
ag701
aa(lp714
I38
ag666
aaaa(lp715
I41
aI48
ag60
a(lp716
(lp717
I41
ag709
aa(lp718
I42
ag675
aa(lp719
I43
ag681
aa(lp720
I44
ag699
aa(lp721
I45
ag675
aa(lp722
I46
ag699
aa(lp723
I47
ag673
aa(lp724
I48
ag666
aaaa(lp725
I51
aI57
ag69
a(lp726
(lp727
I51
ag675
aa(lp728
I52
ag660
aa(lp729
I53
ag691
aa(lp730
I54
ag691
aa(lp731
I55
ag699
aa(lp732
I56
ag701
aa(lp733
I57
aS'g'
p734
aaaa(lp735
I59
aI63
ag78
a(lp736
(lp737
I59
ag658
aa(lp738
I60
ag699
aa(lp739
I61
ag691
aa(lp740
I62
ag691
aa(lp741
I63
ag666
aaaa(lp742
I65
aI68
aS'they'
p743
a(lp744
(lp745
I65
ag662
aa(lp746
I66
ag658
aa(lp747
I67
ag673
aa(lp748
I68
aS'y'
p749
aaaa(lp750
I70
aI72
aS'had'
p751
a(lp752
(lp753
I70
ag658
aa(lp754
I71
ag681
aa(lp755
I72
ag693
aaaa(lp756
I74
aI80
ag87
a(lp757
(lp758
I74
ag734
aa(lp759
I75
ag675
aa(lp760
I76
ag681
aa(lp761
I77
ag666
aa(lp762
I78
ag666
aa(lp763
I79
ag673
aa(lp764
I80
ag666
aaaa(lp765
I83
aI85
aS'the'
p766
a(lp767
(lp768
I83
ag662
aa(lp769
I84
ag658
aa(lp770
I85
ag673
aaaa(lp771
I87
aI91
ag96
a(lp772
(lp773
I87
ag666
aa(lp774
I88
ag699
aa(lp775
I89
ag660
aa(lp776
I90
ag668
aa(lp777
I91
aS'x'
p778
aaaa(lp779
I93
aI97
ag105
a(lp780
(lp781
I93
ag670
aa(lp782
I94
ag660
aa(lp783
I95
aS'v'
p784
aa(lp785
I96
ag673
aa(lp786
I97
ag693
aaaa(lp787
I99
aI104
ag114
a(lp788
(lp789
I99
ag681
aa(lp790
I100
ag675
aa(lp791
I101
ag660
aa(lp792
I102
ag668
aa(lp793
I103
ag701
aa(lp794
I104
ag693
aaaa(lp795
I106
aI108
aS'the'
p796
a(lp797
(lp798
I106
ag662
aa(lp799
I107
ag658
aa(lp800
I108
ag673
aaaa(lp801
I110
aI115
ag123
a(lp802
(lp803
I110
ag675
aa(lp804
I111
ag673
aa(lp805
I112
ag734
aa(lp806
I113
ag699
aa(lp807
I114
ag660
aa(lp808
I115
ag701
aaaa(lp809
I117
aI118
aS'to'
p810
a(lp811
(lp812
I117
ag662
aa(lp813
I118
ag660
aaaa(lp814
I120
aI123
ag132
a(lp815
(lp816
I120
ag658
aa(lp817
I121
ag668
aa(lp818
I122
ag701
aa(lp819
I123
ag662
aaaa(lp820
I125
aI127
aS'for'
p821
a(lp822
(lp823
I125
aS'f'
p824
aa(lp825
I126
ag660
aa(lp826
I127
ag675
aaaa(lp827
I129
aI135
ag141
a(lp828
(lp829
I129
aS'b'
p830
aa(lp831
I130
ag668
aa(lp832
I131
ag824
aa(lp833
I132
ag824
aa(lp834
I133
ag681
aa(lp835
I134
ag691
aa(lp836
I135
ag660
aaaa(lp837
I138
aI141
aS'they'
p838
a(lp839
(lp840
I138
ag662
aa(lp841
I139
ag658
aa(lp842
I140
ag673
aa(lp843
I141
ag749
aaaa(lp844
I143
aI146
ag150
a(lp845
(lp846
I143
ag668
aa(lp847
I144
ag666
aa(lp848
I145
ag673
aa(lp849
I146
ag693
aaaa(lp850
I148
aI153
ag159
a(lp851
(lp852
I148
ag658
aa(lp853
I149
ag660
aa(lp854
I150
ag675
aa(lp855
I151
ag666
aa(lp856
I152
ag673
aa(lp857
I153
ag666
aaaa(lp858
I155
aI156
aS'to'
p859
a(lp860
(lp861
I155
ag662
aa(lp862
I156
ag660
aaaa(lp863
I158
aI160
ag168
a(lp864
(lp865
I158
ag734
aa(lp866
I159
ag673
aa(lp867
I160
ag662
aaaa(lp868
I162
aI167
ag177
a(lp869
(lp870
I162
ag709
aa(lp871
I163
ag691
aa(lp872
I164
ag681
aa(lp873
I165
ag688
aa(lp874
I166
ag673
aa(lp875
I167
ag666
aaaa(lp876
I170
aI178
ag186
a(lp877
(lp878
I170
ag666
aa(lp879
I171
ag660
aa(lp880
I172
ag668
aa(lp881
I173
ag662
aa(lp882
I174
ag658
aa(lp883
I175
ag697
aa(lp884
I176
ag673
aa(lp885
I177
ag666
aa(lp886
I178
ag662
aaaa(lp887
I180
aI184
ag195
a(lp888
(lp889
I180
ag681
aa(lp890
I181
ag693
aa(lp891
I182
ag660
aa(lp892
I183
ag830
aa(lp893
I184
ag673
aaaa(lp894
I186
aI187
aS'or'
p895
a(lp896
(lp897
I186
ag660
aa(lp898
I187
ag675
aaaa(lp899
I189
aI192
ag204
a(lp900
(lp901
I189
ag688
aa(lp902
I190
ag691
aa(lp903
I191
ag681
aa(lp904
I192
ag749
aaaa(lp905
I194
aI199
ag213
a(lp906
(lp907
I194
ag658
aa(lp908
I195
ag660
aa(lp909
I196
ag668
aa(lp910
I197
ag666
aa(lp911
I198
ag673
aa(lp912
I199
ag666
aaaa(lp913
I201
aI204
aS'that'
p914
a(lp915
(lp916
I201
ag662
aa(lp917
I202
ag658
aa(lp918
I203
ag681
aa(lp919
I204
ag662
aaaa(lp920
I206
aI208
aS'had'
p921
a(lp922
(lp923
I206
ag658
aa(lp924
I207
ag681
aa(lp925
I208
ag693
aaaa(lp926
I210
aI213
aS'more'
p927
a(lp928
(lp929
I210
ag670
aa(lp930
I211
ag660
aa(lp931
I212
ag675
aa(lp932
I213
ag673
aaaa(lp933
I215
aI218
aS'than'
p934
a(lp935
(lp936
I215
ag662
aa(lp937
I216
ag658
aa(lp938
I217
ag681
aa(lp939
I218
ag701
aaaa(lp940
I220
aI220
ag222
a(lp941
(lp942
I220
ag222
aaaa(lp943
I222
aI226
ag231
a(lp944
(lp945
I222
ag666
aa(lp946
I223
ag662
aa(lp947
I224
ag660
aa(lp948
I225
ag675
aa(lp949
I226
ag749
aaaa(lp950
I228
aI233
ag240
a(lp951
(lp952
I228
ag697
aa(lp953
I229
ag681
aa(lp954
I230
ag691
aa(lp955
I231
aS'k'
p956
aa(lp957
I232
ag673
aa(lp958
I233
ag693
aaaa(lp959
I235
aI237
ag249
a(lp960
(lp961
I235
ag658
aa(lp962
I236
ag660
aa(lp963
I237
ag662
aaaa(lp964
I239
aI242
ag258
a(lp965
(lp966
I239
ag693
aa(lp967
I240
ag681
aa(lp968
I241
ag749
aa(lp969
I242
ag666
aaaa(lp970
I245
aI248
ag267
a(lp971
(lp972
I245
ag688
aa(lp973
I246
ag660
aa(lp974
I247
ag691
aa(lp975
I248
ag693
aaaa(lp976
I250
aI255
ag276
a(lp977
(lp978
I250
ag701
aa(lp979
I251
ag699
aa(lp980
I252
ag734
aa(lp981
I253
ag658
aa(lp982
I254
ag662
aa(lp983
I255
ag666
aaaa(lp984
I258
aI263
ag285
a(lp985
(lp986
I258
ag691
aa(lp987
I259
ag699
aa(lp988
I260
ag662
aa(lp989
I261
ag662
aa(lp990
I262
ag691
aa(lp991
I263
ag673
aaaa(lp992
I265
aI272
ag294
a(lp993
(lp994
I265
ag675
aa(lp995
I266
ag681
aa(lp996
I267
ag699
aa(lp997
I268
ag701
aa(lp998
I269
ag824
aa(lp999
I270
ag681
aa(lp1000
I271
ag691
aa(lp1001
I272
ag691
aaaa(lp1002
I274
aI277
ag303
a(lp1003
(lp1004
I274
ag658
aa(lp1005
I275
ag699
aa(lp1006
I276
ag734
aa(lp1007
I277
ag658
aaaa(lp1008
I279
aI287
ag312
a(lp1009
(lp1010
I279
ag824
aa(lp1011
I280
ag691
aa(lp1012
I281
ag681
aa(lp1013
I282
ag662
aa(lp1014
I283
ag691
aa(lp1015
I284
ag681
aa(lp1016
I285
ag701
aa(lp1017
I286
ag693
aa(lp1018
I287
ag666
aaaa(lp1019
I289
aI294
ag321
a(lp1020
(lp1021
I289
ag688
aa(lp1022
I290
ag681
aa(lp1023
I291
ag688
aa(lp1024
I292
ag662
aa(lp1025
I293
ag668
aa(lp1026
I294
ag666
aaaa(lp1027
I296
aI298
aS'was'
p1028
a(lp1029
(lp1030
I296
ag697
aa(lp1031
I297
ag681
aa(lp1032
I298
ag666
aaaa(lp1033
I300
aI302
aS'the'
p1034
a(lp1035
(lp1036
I300
ag662
aa(lp1037
I301
ag658
aa(lp1038
I302
ag673
aaaa(lp1039
I304
aI307
ag330
a(lp1040
(lp1041
I304
ag670
aa(lp1042
I305
ag681
aa(lp1043
I306
ag699
aa(lp1044
I307
ag701
aaaa(lp1045
I309
aI313
ag339
a(lp1046
(lp1047
I309
ag709
aa(lp1048
I310
ag691
aa(lp1049
I311
ag681
aa(lp1050
I312
ag701
aa(lp1051
I313
ag662
aaaa(lp1052
I316
aI319
aS'they'
p1053
a(lp1054
(lp1055
I316
ag662
aa(lp1056
I317
ag658
aa(lp1057
I318
ag673
aa(lp1058
I319
ag749
aaaa(lp1059
I321
aI326
ag348
a(lp1060
(lp1061
I321
ag824
aa(lp1062
I322
ag681
aa(lp1063
I323
ag675
aa(lp1064
I324
ag670
aa(lp1065
I325
ag673
aa(lp1066
I326
ag693
aaaa(lp1067
I328
aI330
aS'the'
p1068
a(lp1069
(lp1070
I328
ag662
aa(lp1071
I329
ag658
aa(lp1072
I330
ag673
aaaa(lp1073
I332
aI335
ag357
a(lp1074
(lp1075
I332
ag691
aa(lp1076
I333
ag681
aa(lp1077
I334
ag701
aa(lp1078
I335
ag693
aaaa(lp1079
I338
aI341
aS'they'
p1080
a(lp1081
(lp1082
I338
ag662
aa(lp1083
I339
ag658
aa(lp1084
I340
ag673
aa(lp1085
I341
ag749
aaaa(lp1086
I343
aI347
ag366
a(lp1087
(lp1088
I343
ag691
aa(lp1089
I344
ag699
aa(lp1090
I345
ag784
aa(lp1091
I346
ag673
aa(lp1092
I347
ag693
aaaa(lp1093
I349
aI350
aS'in'
p1094
a(lp1095
(lp1096
I349
ag699
aa(lp1097
I350
ag701
aaaa(lp1098
I352
aI359
ag375
a(lp1099
(lp1100
I352
ag784
aa(lp1101
I353
ag699
aa(lp1102
I354
ag691
aa(lp1103
I355
ag691
aa(lp1104
I356
ag681
aa(lp1105
I357
ag734
aa(lp1106
I358
ag673
aa(lp1107
I359
ag666
aaaa(lp1108
I361
aI362
aS'in'
p1109
a(lp1110
(lp1111
I361
ag699
aa(lp1112
I362
ag701
aaaa(lp1113
I364
aI368
ag384
a(lp1114
(lp1115
I364
ag681
aa(lp1116
I365
ag693
aa(lp1117
I366
ag660
aa(lp1118
I367
ag830
aa(lp1119
I368
ag673
aaaa(lp1120
I370
aI371
aS'or'
p1121
a(lp1122
(lp1123
I370
ag660
aa(lp1124
I371
ag675
aaaa(lp1125
I373
aI376
ag393
a(lp1126
(lp1127
I373
ag688
aa(lp1128
I374
ag691
aa(lp1129
I375
ag681
aa(lp1130
I376
ag749
aaaa(lp1131
I378
aI383
ag402
a(lp1132
(lp1133
I378
ag658
aa(lp1134
I379
ag660
aa(lp1135
I380
ag668
aa(lp1136
I381
ag666
aa(lp1137
I382
ag673
aa(lp1138
I383
ag666
aaaa(lp1139
I386
aI389
ag411
a(lp1140
(lp1141
I386
ag662
aa(lp1142
I387
ag681
aa(lp1143
I388
ag956
aa(lp1144
I389
ag673
aaaa(lp1145
I391
aI391
ag681
a(lp1146
(lp1147
I391
ag681
aaaa(lp1148
I393
aI396
ag420
a(lp1149
(lp1150
I393
ag691
aa(lp1151
I394
ag660
aa(lp1152
I395
ag660
aa(lp1153
I396
ag956
aaaa(lp1154
I398
aI399
aS'at'
p1155
a(lp1156
(lp1157
I398
ag681
aa(lp1158
I399
ag662
aaaa(lp1159
I401
aI404
aS'this'
p1160
a(lp1161
(lp1162
I401
ag662
aa(lp1163
I402
ag658
aa(lp1164
I403
ag699
aa(lp1165
I404
ag666
aaaa(lp1166
I406
aI410
ag429
a(lp1167
(lp1168
I406
ag734
aa(lp1169
I407
ag675
aa(lp1170
I408
ag673
aa(lp1171
I409
ag681
aa(lp1172
I410
ag662
aaaa(lp1173
I412
aI418
ag438
a(lp1174
(lp1175
I412
ag697
aa(lp1176
I413
ag673
aa(lp1177
I414
ag830
aa(lp1178
I415
ag709
aa(lp1179
I416
ag681
aa(lp1180
I417
ag734
aa(lp1181
I418
ag673
aaaa(lp1182
I420
aI421
aS'on'
p1183
a(lp1184
(lp1185
I420
ag660
aa(lp1186
I421
ag701
aaaa(lp1187
I423
aI428
ag447
a(lp1188
(lp1189
I423
ag701
aa(lp1190
I424
ag681
aa(lp1191
I425
ag662
aa(lp1192
I426
ag699
aa(lp1193
I427
ag784
aa(lp1194
I428
ag673
aaaa(lp1195
I430
aI437
ag456
a(lp1196
(lp1197
I430
ag681
aa(lp1198
I431
ag670
aa(lp1199
I432
ag673
aa(lp1200
I433
ag675
aa(lp1201
I434
ag699
aa(lp1202
I435
ag688
aa(lp1203
I436
ag681
aa(lp1204
I437
ag701
aaaa(lp1205
I439
aI444
ag465
a(lp1206
(lp1207
I439
ag662
aa(lp1208
I440
ag675
aa(lp1209
I441
ag699
aa(lp1210
I442
ag830
aa(lp1211
I443
ag673
aa(lp1212
I444
ag666
aaaa(lp1213
I448
aI449
aS'it'
p1214
a(lp1215
(lp1216
I448
ag699
aa(lp1217
I449
ag662
aaaa(lp1218
I451
aI453
aS'was'
p1219
a(lp1220
(lp1221
I451
ag697
aa(lp1222
I452
ag681
aa(lp1223
I453
ag666
aaaa(lp1224
I455
aI458
ag474
a(lp1225
(lp1226
I455
ag670
aa(lp1227
I456
ag681
aa(lp1228
I457
ag693
aa(lp1229
I458
ag673
aaaa(lp1230
I460
aI461
aS'by'
p1231
a(lp1232
(lp1233
I460
ag830
aa(lp1234
I461
ag749
aaaa(lp1235
I463
aI467
aS'other'
p1236
a(lp1237
(lp1238
I463
ag660
aa(lp1239
I464
ag662
aa(lp1240
I465
ag658
aa(lp1241
I466
ag673
aa(lp1242
I467
ag675
aaaa(lp1243
I469
aI476
ag483
a(lp1244
(lp1245
I469
ag666
aa(lp1246
I470
ag662
aa(lp1247
I471
ag668
aa(lp1248
I472
ag693
aa(lp1249
I473
ag673
aa(lp1250
I474
ag701
aa(lp1251
I475
ag662
aa(lp1252
I476
ag666
aaaa(lp1253
I479
aI482
aS'some'
p1254
a(lp1255
(lp1256
I479
ag666
aa(lp1257
I480
ag660
aa(lp1258
I481
ag670
aa(lp1259
I482
ag673
aaaa(lp1260
I484
aI492
ag492
a(lp1261
(lp1262
I484
ag830
aa(lp1263
I485
ag673
aa(lp1264
I486
ag681
aa(lp1265
I487
ag668
aa(lp1266
I488
ag662
aa(lp1267
I489
ag699
aa(lp1268
I490
ag824
aa(lp1269
I491
ag668
aa(lp1270
I492
ag691
aaaa(lp1271
I494
aI500
ag501
a(lp1272
(lp1273
I494
ag681
aa(lp1274
I495
ag675
aa(lp1275
I496
ag662
aa(lp1276
I497
ag697
aa(lp1277
I498
ag660
aa(lp1278
I499
ag675
aa(lp1279
I500
ag956
aaaa(lp1280
I502
aI505
ag510
a(lp1281
(lp1282
I502
ag670
aa(lp1283
I503
ag681
aa(lp1284
I504
ag693
aa(lp1285
I505
ag673
aaaa(lp1286
I507
aI508
aS'by'
p1287
a(lp1288
(lp1289
I507
ag830
aa(lp1290
I508
ag749
aaaa(lp1291
I510
aI510
ag681
a(lp1292
(lp1293
I510
ag681
aaaa(lp1294
I512
aI514
ag519
a(lp1295
(lp1296
I512
aS'2'
p1297
aa(lp1298
I513
ag701
aa(lp1299
I514
ag693
aaaa(lp1300
I516
aI521
ag528
a(lp1301
(lp1302
I516
ag734
aa(lp1303
I517
ag675
aa(lp1304
I518
ag681
aa(lp1305
I519
ag693
aa(lp1306
I520
ag673
aa(lp1307
I521
ag675
aaaa(lp1308
I523
aI526
aS'that'
p1309
a(lp1310
(lp1311
I523
ag662
aa(lp1312
I524
ag658
aa(lp1313
I525
ag681
aa(lp1314
I526
ag662
aaaa(lp1315
I528
aI535
ag537
a(lp1316
(lp1317
I528
ag688
aa(lp1318
I529
ag660
aa(lp1319
I530
ag670
aa(lp1320
I531
ag709
aa(lp1321
I532
ag681
aa(lp1322
I533
ag675
aa(lp1323
I534
ag673
aa(lp1324
I535
ag666
aaaa(lp1325
I537
aI542
ag546
a(lp1326
(lp1327
I537
ag701
aa(lp1328
I538
ag681
aa(lp1329
I539
ag662
aa(lp1330
I540
ag699
aa(lp1331
I541
ag784
aa(lp1332
I542
ag673
aaaa(lp1333
I544
aI551
ag555
a(lp1334
(lp1335
I544
ag681
aa(lp1336
I545
ag670
aa(lp1337
I546
ag673
aa(lp1338
I547
ag675
aa(lp1339
I548
ag699
aa(lp1340
I549
ag688
aa(lp1341
I550
ag681
aa(lp1342
I551
ag701
aaaa(lp1343
I553
aI558
ag564
a(lp1344
(lp1345
I553
ag662
aa(lp1346
I554
ag675
aa(lp1347
I555
ag699
aa(lp1348
I556
ag830
aa(lp1349
I557
ag673
aa(lp1350
I558
ag666
aaaa(lp1351
I561
aI565
ag573
a(lp1352
(lp1353
I561
ag691
aa(lp1354
I562
ag673
aa(lp1355
I563
ag662
aa(lp1356
I565
ag666
aaaa(lp1357
I567
aI572
ag582
a(lp1358
(lp1359
I567
ag666
aa(lp1360
I568
ag697
aa(lp1361
I569
ag699
aa(lp1362
I570
ag662
aa(lp1363
I571
ag688
aa(lp1364
I572
ag658
aaaa(lp1365
I574
aI578
ag591
a(lp1366
(lp1367
I574
ag734
aa(lp1368
I575
ag673
aa(lp1369
I576
ag681
aa(lp1370
I577
ag675
aa(lp1371
I578
ag666
aaaa(lp1372
I580
aI582
aS'and'
p1373
a(lp1374
(lp1375
I580
ag681
aa(lp1376
I581
ag701
aa(lp1377
I582
ag693
aaaa(lp1378
I584
aI589
ag600
a(lp1379
(lp1380
I584
ag675
aa(lp1381
I585
ag673
aa(lp1382
I586
ag784
aa(lp1383
I587
ag699
aa(lp1384
I588
ag673
aa(lp1385
I589
ag697
aaaa(lp1386
I591
aI593
aS'the'
p1387
a(lp1388
(lp1389
I591
ag662
aa(lp1390
I592
ag658
aa(lp1391
I593
ag673
aaaa(lp1392
I595
aI601
ag609
a(lp1393
(lp1394
I595
ag681
aa(lp1395
I596
ag701
aa(lp1396
I597
ag688
aa(lp1397
I598
ag699
aa(lp1398
I599
ag673
aa(lp1399
I600
ag701
aa(lp1400
I601
ag662
aaaa(lp1401
I603
aI610
ag618
a(lp1402
(lp1403
I603
ag688
aa(lp1404
I604
ag668
aa(lp1405
I605
ag691
aa(lp1406
I606
ag662
aa(lp1407
I607
ag668
aa(lp1408
I608
ag675
aa(lp1409
I609
ag673
aa(lp1410
I610
ag666
aaaa(lp1411
I612
aI613
aS'we'
p1412
a(lp1413
(lp1414
I612
ag697
aa(lp1415
I613
ag673
aaaa(lp1416
I615
aI617
aS'are'
p1417
a(lp1418
(lp1419
I615
ag681
aa(lp1420
I616
ag675
aa(lp1421
I617
ag673
aaaa(lp1422
I619
aI626
ag627
a(lp1423
(lp1424
I619
ag666
aa(lp1425
I620
ag662
aa(lp1426
I621
ag668
aa(lp1427
I622
ag693
aa(lp1428
I623
ag749
aa(lp1429
I624
ag699
aa(lp1430
I625
ag701
aa(lp1431
I626
ag734
aaaa(lp1432
I629
aI635
ag636
a(lp1433
(lp1434
I629
ag681
aa(lp1435
I630
ag701
aa(lp1436
I631
ag688
aa(lp1437
I632
ag699
aa(lp1438
I633
ag673
aa(lp1439
I634
ag701
aa(lp1440
I635
ag662
aaaa(lp1441
I629
aI635
ag645
a(lp1442
(lp1443
I637
ag688
aa(lp1444
I638
ag668
aa(lp1445
I639
ag691
aa(lp1446
I640
ag662
aa(lp1447
I641
ag668
aa(lp1448
I642
ag675
aa(lp1449
I643
ag673
aaaasS'cleanCharacterMap'
p1450
(lp1451
g657
ag659
ag661
a(lp1452
I3
aS' '
p1453
aag665
ag667
ag669
ag671
ag672
ag674
ag676
a(lp1454
I12
ag1453
aag679
ag680
ag682
ag683
ag684
a(lp1455
I19
ag1453
aag687
ag689
ag690
ag692
a(lp1456
I24
ag1453
aag696
ag698
ag700
ag702
ag703
ag704
ag705
a(lp1457
I32
ag1453
aag708
ag710
ag711
ag712
ag713
ag714
a(lp1458
I40
ag1453
aag717
ag718
ag719
ag720
ag721
ag722
ag723
ag724
a(lp1459
I50
ag1453
aag727
ag728
ag729
ag730
ag731
ag732
ag733
a(lp1460
I58
ag1453
aag737
ag738
ag739
ag740
ag741
a(lp1461
I64
ag1453
aag745
ag746
ag747
ag748
a(lp1462
I69
ag1453
aag753
ag754
ag755
a(lp1463
I73
ag1453
aag758
ag759
ag760
ag761
ag762
ag763
ag764
a(lp1464
I82
ag1453
aag768
ag769
ag770
a(lp1465
I86
ag1453
aag773
ag774
ag775
ag776
ag777
a(lp1466
I92
ag1453
aag781
ag782
ag783
ag785
ag786
a(lp1467
I98
ag1453
aag789
ag790
ag791
ag792
ag793
ag794
a(lp1468
I105
ag1453
aag798
ag799
ag800
a(lp1469
I109
ag1453
aag803
ag804
ag805
ag806
ag807
ag808
a(lp1470
I116
ag1453
aag812
ag813
a(lp1471
I119
ag1453
aag816
ag817
ag818
ag819
a(lp1472
I124
ag1453
aag823
ag825
ag826
a(lp1473
I128
ag1453
aag829
ag831
ag832
ag833
ag834
ag835
ag836
a(lp1474
I137
ag1453
aag840
ag841
ag842
ag843
a(lp1475
I142
ag1453
aag846
ag847
ag848
ag849
a(lp1476
I147
ag1453
aag852
ag853
ag854
ag855
ag856
ag857
a(lp1477
I154
ag1453
aag861
ag862
a(lp1478
I157
ag1453
aag865
ag866
ag867
a(lp1479
I161
ag1453
aag870
ag871
ag872
ag873
ag874
ag875
a(lp1480
I169
ag1453
aag878
ag879
ag880
ag881
ag882
ag883
ag884
ag885
ag886
a(lp1481
I179
ag1453
aag889
ag890
ag891
ag892
ag893
a(lp1482
I185
ag1453
aag897
ag898
a(lp1483
I188
ag1453
aag901
ag902
ag903
ag904
a(lp1484
I193
ag1453
aag907
ag908
ag909
ag910
ag911
ag912
a(lp1485
I200
ag1453
aag916
ag917
ag918
ag919
a(lp1486
I205
ag1453
aag923
ag924
ag925
a(lp1487
I209
ag1453
aag929
ag930
ag931
ag932
a(lp1488
I214
ag1453
aag936
ag937
ag938
ag939
a(lp1489
I219
ag1453
aag942
a(lp1490
I221
ag1453
aag945
ag946
ag947
ag948
ag949
a(lp1491
I227
ag1453
aag952
ag953
ag954
ag955
ag957
ag958
a(lp1492
I234
ag1453
aag961
ag962
ag963
a(lp1493
I238
ag1453
aag966
ag967
ag968
ag969
a(lp1494
I244
ag1453
aag972
ag973
ag974
ag975
a(lp1495
I249
ag1453
aag978
ag979
ag980
ag981
ag982
ag983
a(lp1496
I257
ag1453
aag986
ag987
ag988
ag989
ag990
ag991
a(lp1497
I264
ag1453
aag994
ag995
ag996
ag997
ag998
ag999
ag1000
ag1001
a(lp1498
I273
ag1453
aag1004
ag1005
ag1006
ag1007
a(lp1499
I278
ag1453
aag1010
ag1011
ag1012
ag1013
ag1014
ag1015
ag1016
ag1017
ag1018
a(lp1500
I288
ag1453
aag1021
ag1022
ag1023
ag1024
ag1025
ag1026
a(lp1501
I295
ag1453
aag1030
ag1031
ag1032
a(lp1502
I299
ag1453
aag1036
ag1037
ag1038
a(lp1503
I303
ag1453
aag1041
ag1042
ag1043
ag1044
a(lp1504
I308
ag1453
aag1047
ag1048
ag1049
ag1050
ag1051
a(lp1505
I315
ag1453
aag1055
ag1056
ag1057
ag1058
a(lp1506
I320
ag1453
aag1061
ag1062
ag1063
ag1064
ag1065
ag1066
a(lp1507
I327
ag1453
aag1070
ag1071
ag1072
a(lp1508
I331
ag1453
aag1075
ag1076
ag1077
ag1078
a(lp1509
I337
ag1453
aag1082
ag1083
ag1084
ag1085
a(lp1510
I342
ag1453
aag1088
ag1089
ag1090
ag1091
ag1092
a(lp1511
I348
ag1453
aag1096
ag1097
a(lp1512
I351
ag1453
aag1100
ag1101
ag1102
ag1103
ag1104
ag1105
ag1106
ag1107
a(lp1513
I360
ag1453
aag1111
ag1112
a(lp1514
I363
ag1453
aag1115
ag1116
ag1117
ag1118
ag1119
a(lp1515
I369
ag1453
aag1123
ag1124
a(lp1516
I372
ag1453
aag1127
ag1128
ag1129
ag1130
a(lp1517
I377
ag1453
aag1133
ag1134
ag1135
ag1136
ag1137
ag1138
a(lp1518
I385
ag1453
aag1141
ag1142
ag1143
ag1144
a(lp1519
I390
ag1453
aag1147
a(lp1520
I392
ag1453
aag1150
ag1151
ag1152
ag1153
a(lp1521
I397
ag1453
aag1157
ag1158
a(lp1522
I400
ag1453
aag1162
ag1163
ag1164
ag1165
a(lp1523
I405
ag1453
aag1168
ag1169
ag1170
ag1171
ag1172
a(lp1524
I411
ag1453
aag1175
ag1176
ag1177
ag1178
ag1179
ag1180
ag1181
a(lp1525
I419
ag1453
aag1185
ag1186
a(lp1526
I422
ag1453
aag1189
ag1190
ag1191
ag1192
ag1193
ag1194
a(lp1527
I429
ag1453
aag1197
ag1198
ag1199
ag1200
ag1201
ag1202
ag1203
ag1204
a(lp1528
I438
ag1453
aag1207
ag1208
ag1209
ag1210
ag1211
ag1212
a(lp1529
I445
ag1453
aa(lp1530
I447
ag1453
aag1216
ag1217
a(lp1531
I450
ag1453
aag1221
ag1222
ag1223
a(lp1532
I454
ag1453
aag1226
ag1227
ag1228
ag1229
a(lp1533
I459
ag1453
aag1233
ag1234
a(lp1534
I462
ag1453
aag1238
ag1239
ag1240
ag1241
ag1242
a(lp1535
I468
ag1453
aag1245
ag1246
ag1247
ag1248
ag1249
ag1250
ag1251
ag1252
a(lp1536
I478
ag1453
aag1256
ag1257
ag1258
ag1259
a(lp1537
I483
ag1453
aag1262
ag1263
ag1264
ag1265
ag1266
ag1267
ag1268
ag1269
ag1270
a(lp1538
I493
ag1453
aag1273
ag1274
ag1275
ag1276
ag1277
ag1278
ag1279
a(lp1539
I501
ag1453
aag1282
ag1283
ag1284
ag1285
a(lp1540
I506
ag1453
aag1289
ag1290
a(lp1541
I509
ag1453
aag1293
a(lp1542
I511
ag1453
aag1296
ag1298
ag1299
a(lp1543
I515
ag1453
aag1302
ag1303
ag1304
ag1305
ag1306
ag1307
a(lp1544
I522
ag1453
aag1311
ag1312
ag1313
ag1314
a(lp1545
I527
ag1453
aag1317
ag1318
ag1319
ag1320
ag1321
ag1322
ag1323
ag1324
a(lp1546
I536
ag1453
aag1327
ag1328
ag1329
ag1330
ag1331
ag1332
a(lp1547
I543
ag1453
aag1335
ag1336
ag1337
ag1338
ag1339
ag1340
ag1341
ag1342
a(lp1548
I552
ag1453
aag1345
ag1346
ag1347
ag1348
ag1349
ag1350
a(lp1549
I560
ag1453
aag1353
ag1354
ag1355
ag1356
a(lp1550
I566
ag1453
aag1359
ag1360
ag1361
ag1362
ag1363
ag1364
a(lp1551
I573
ag1453
aag1367
ag1368
ag1369
ag1370
ag1371
a(lp1552
I579
ag1453
aag1375
ag1376
ag1377
a(lp1553
I583
ag1453
aag1380
ag1381
ag1382
ag1383
ag1384
ag1385
a(lp1554
I590
ag1453
aag1389
ag1390
ag1391
a(lp1555
I594
ag1453
aag1394
ag1395
ag1396
ag1397
ag1398
ag1399
ag1400
a(lp1556
I602
ag1453
aag1403
ag1404
ag1405
ag1406
ag1407
ag1408
ag1409
ag1410
a(lp1557
I611
ag1453
aag1414
ag1415
a(lp1558
I614
ag1453
aag1419
ag1420
ag1421
a(lp1559
I618
ag1453
aag1424
ag1425
ag1426
ag1427
ag1428
ag1429
ag1430
ag1431
a(lp1560
I628
ag1453
aag1434
ag1435
ag1436
ag1437
ag1438
ag1439
ag1440
a(lp1561
I636
ag1453
aag1443
ag1444
ag1445
ag1446
ag1447
ag1448
ag1449
asS'text'
p1562
S"hot summers; harsh, cold winters plains, prairies, rolling hills they had grasses. the sioux moved around the region to hunt for buffalo. they used horses to get places. southwest adobe or clay houses that had more than 1 story walked hot days, cold nights, little rainfall high flatlands cactus was the main plant. they farmed the land. they lived in villages in adobe or clay houses. take a look at this great webpage on native american tribes . it was made by other students! some beautiful artwork made by a 2nd grader that compares native american tribes: let's switch gears and review the ancient cultures we are studying: ancient culture"
p1563
sS'cleanWordMap'
p1564
(lp1565
g655
ag663
ag677
ag685
ag694
ag706
ag715
ag725
ag735
ag756
ag771
ag779
ag787
ag801
ag814
ag827
ag844
ag850
ag863
ag868
ag876
ag887
ag899
ag905
ag940
ag943
ag950
ag959
ag964
ag970
ag976
ag984
ag992
ag1002
ag1008
ag1019
ag1039
ag1045
ag1059
ag1073
ag1086
ag1098
ag1113
ag1125
ag1131
ag1139
ag1148
ag1166
ag1173
ag1187
ag1195
ag1205
ag1224
ag1243
ag1260
ag1271
ag1280
ag1294
ag1300
ag1315
ag1325
ag1333
ag1343
ag1351
ag1357
ag1365
ag1378
ag1392
ag1401
ag1422
ag1432
ag1441
asS'lines'
p1566
(lp1567
VHot summers; Harsh, cold winters\u000a
p1568
aVPlains, Prairies, Rolling Hills\u000a
p1569
aVThey had grasses.\u000a
p1570
aVThe Sioux moved around the region to hunt for buffalo. They used horses to get places.\u000a
p1571
aVSouthwest\u000a
p1572
aVAdobe or clay houses that had more than 1 story\u000a
p1573
aVWalked\u000a
p1574
aVHot days, Cold Nights, Little Rainfall\u000a
p1575
aVHigh Flatlands\u000a
p1576
aVCactus was the main plant.\u000a
p1577
aVThey farmed the land. They lived in villages in adobe or clay houses.\u000a
p1578
aVTake a look at this great webpage on Native American tribes . It was made by other students!\u000a
p1579
aVSome beautiful artwork made by a 2nd grader that compares Native American Tribes:\u000a
p1580
aVLet's switch gears and review the Ancient Cultures we are studying:\u000a
p1581
aVAncient Culture
p1582
asS'docType'
p1583
S'src'
p1584
sS'newfmap'
p1585
(lp1586
g4
ag8
ag10
ag12
ag14
ag17
ag19
ag21
ag23
ag26
ag28
ag30
ag32
ag35
ag37
ag39
ag41
ag44
ag46
ag48
ag50
ag53
ag55
ag57
ag59
ag62
ag64
ag66
ag68
ag71
ag73
ag75
ag77
ag80
ag82
ag84
ag86
ag89
ag91
ag93
ag95
ag98
ag100
ag102
ag104
ag107
ag109
ag111
ag113
ag116
ag118
ag120
ag122
ag125
ag127
ag129
ag131
ag134
ag136
ag138
ag140
ag143
ag145
ag147
ag149
ag152
ag154
ag156
ag158
ag161
ag163
ag165
ag167
ag170
ag172
ag174
ag176
ag179
ag181
ag183
ag185
ag188
ag190
ag192
ag194
ag197
ag199
ag201
ag203
ag206
ag208
ag210
ag212
ag215
ag217
ag219
ag221
ag224
ag226
ag228
ag230
ag233
ag235
ag237
ag239
ag242
ag244
ag246
ag248
ag251
ag253
ag255
ag257
ag260
ag262
ag264
ag266
ag269
ag271
ag273
ag275
ag278
ag280
ag282
ag284
ag287
ag289
ag291
ag293
ag296
ag298
ag300
ag302
ag305
ag307
ag309
ag311
ag314
ag316
ag318
ag320
ag323
ag325
ag327
ag329
ag332
ag334
ag336
ag338
ag341
ag343
ag345
ag347
ag350
ag352
ag354
ag356
ag359
ag361
ag363
ag365
ag368
ag370
ag372
ag374
ag377
ag379
ag381
ag383
ag386
ag388
ag390
ag392
ag395
ag397
ag399
ag401
ag404
ag406
ag408
ag410
ag413
ag415
ag417
ag419
ag422
ag424
ag426
ag428
ag431
ag433
ag435
ag437
ag440
ag442
ag444
ag446
ag449
ag451
ag453
ag455
ag458
ag460
ag462
ag464
ag467
ag469
ag471
ag473
ag476
ag478
ag480
ag482
ag485
ag487
ag489
ag491
ag494
ag496
ag498
ag500
ag503
ag505
ag507
ag509
ag512
ag514
ag516
ag518
ag521
ag523
ag525
ag527
ag530
ag532
ag534
ag536
ag539
ag541
ag543
ag545
ag548
ag550
ag552
ag554
ag557
ag559
ag561
ag563
ag566
ag568
ag570
ag572
ag575
ag577
ag579
ag581
ag584
ag586
ag588
ag590
ag593
ag595
ag597
ag599
ag602
ag604
ag606
ag608
ag611
ag613
ag615
ag617
ag620
ag622
ag624
ag626
ag629
ag631
ag633
ag635
ag638
ag640
ag642
ag644
ag647
ag649
ag651
asS'featureMap'
p1587
(lp1588
(lp1589
I0
aI2
ag5
ag6
ag9
ag11
ag13
aa(lp1590
I4
aI10
ag15
ag16
ag18
ag20
ag22
aa(lp1591
I13
aI17
ag24
ag25
ag27
ag29
ag31
aa(lp1592
I20
aI23
ag33
ag34
ag36
ag38
ag40
aa(lp1593
I25
aI31
ag42
ag43
ag45
ag47
ag49
aa(lp1594
I33
aI38
ag51
ag52
ag54
ag56
ag58
aa(lp1595
I41
aI48
ag60
ag61
ag63
ag65
ag67
aa(lp1596
I51
aI57
ag69
ag70
ag72
ag74
ag76
aa(lp1597
I59
aI63
ag78
ag79
ag81
ag83
ag85
aa(lp1598
I74
aI80
ag87
ag88
ag90
ag92
ag94
aa(lp1599
I87
aI91
ag96
ag97
ag99
ag101
ag103
aa(lp1600
I93
aI97
ag105
ag106
ag108
ag110
ag112
aa(lp1601
I99
aI104
ag114
ag115
ag117
ag119
ag121
aa(lp1602
I110
aI115
ag123
ag124
ag126
ag128
ag130
aa(lp1603
I120
aI123
ag132
ag133
ag135
ag137
ag139
aa(lp1604
I129
aI135
ag141
ag142
ag144
ag146
ag148
aa(lp1605
I143
aI146
ag150
ag151
ag153
ag155
ag157
aa(lp1606
I148
aI153
ag159
ag160
ag162
ag164
ag166
aa(lp1607
I158
aI160
ag168
ag169
ag171
ag173
ag175
aa(lp1608
I162
aI167
ag177
ag178
ag180
ag182
ag184
aa(lp1609
I170
aI178
ag186
ag187
ag189
ag191
ag193
aa(lp1610
I180
aI184
ag195
ag196
ag198
ag200
ag202
aa(lp1611
I189
aI192
ag204
ag205
ag207
ag209
ag211
aa(lp1612
I194
aI199
ag213
ag214
ag216
ag218
ag220
aa(lp1613
I220
aI220
ag222
ag223
ag225
ag227
ag229
aa(lp1614
I222
aI226
ag231
ag232
ag234
ag236
ag238
aa(lp1615
I228
aI233
ag240
ag241
ag243
ag245
ag247
aa(lp1616
I235
aI237
ag249
ag250
ag252
ag254
ag256
aa(lp1617
I239
aI242
ag258
ag259
ag261
ag263
ag265
aa(lp1618
I245
aI248
ag267
ag268
ag270
ag272
ag274
aa(lp1619
I250
aI255
ag276
ag277
ag279
ag281
ag283
aa(lp1620
I258
aI263
ag285
ag286
ag288
ag290
ag292
aa(lp1621
I265
aI272
ag294
ag295
ag297
ag299
ag301
aa(lp1622
I274
aI277
ag303
ag304
ag306
ag308
ag310
aa(lp1623
I279
aI287
ag312
ag313
ag315
ag317
ag319
aa(lp1624
I289
aI294
ag321
ag322
ag324
ag326
ag328
aa(lp1625
I304
aI307
ag330
ag331
ag333
ag335
ag337
aa(lp1626
I309
aI313
ag339
ag340
ag342
ag344
ag346
aa(lp1627
I321
aI326
ag348
ag349
ag351
ag353
ag355
aa(lp1628
I332
aI335
ag357
ag358
ag360
ag362
ag364
aa(lp1629
I343
aI347
ag366
ag367
ag369
ag371
ag373
aa(lp1630
I352
aI359
ag375
ag376
ag378
ag380
ag382
aa(lp1631
I364
aI368
ag384
ag385
ag387
ag389
ag391
aa(lp1632
I373
aI376
ag393
ag394
ag396
ag398
ag400
aa(lp1633
I378
aI383
ag402
ag403
ag405
ag407
ag409
aa(lp1634
I386
aI389
ag411
ag412
ag414
ag416
ag418
aa(lp1635
I393
aI396
ag420
ag421
ag423
ag425
ag427
aa(lp1636
I406
aI410
ag429
ag430
ag432
ag434
ag436
aa(lp1637
I412
aI418
ag438
ag439
ag441
ag443
ag445
aa(lp1638
I423
aI428
ag447
ag448
ag450
ag452
ag454
aa(lp1639
I430
aI437
ag456
ag457
ag459
ag461
ag463
aa(lp1640
I439
aI444
ag465
ag466
ag468
ag470
ag472
aa(lp1641
I455
aI458
ag474
ag475
ag477
ag479
ag481
aa(lp1642
I469
aI476
ag483
ag484
ag486
ag488
ag490
aa(lp1643
I484
aI492
ag492
ag493
ag495
ag497
ag499
aa(lp1644
I494
aI500
ag501
ag502
ag504
ag506
ag508
aa(lp1645
I502
aI505
ag510
ag511
ag513
ag515
ag517
aa(lp1646
I512
aI514
ag519
ag520
ag522
ag524
ag526
aa(lp1647
I516
aI521
ag528
ag529
ag531
ag533
ag535
aa(lp1648
I528
aI535
ag537
ag538
ag540
ag542
ag544
aa(lp1649
I537
aI542
ag546
ag547
ag549
ag551
ag553
aa(lp1650
I544
aI551
ag555
ag556
ag558
ag560
ag562
aa(lp1651
I553
aI558
ag564
ag565
ag567
ag569
ag571
aa(lp1652
I561
aI565
ag573
ag574
ag576
ag578
ag580
aa(lp1653
I567
aI572
ag582
ag583
ag585
ag587
ag589
aa(lp1654
I574
aI578
ag591
ag592
ag594
ag596
ag598
aa(lp1655
I584
aI589
ag600
ag601
ag603
ag605
ag607
aa(lp1656
I595
aI601
ag609
ag610
ag612
ag614
ag616
aa(lp1657
I603
aI610
ag618
ag619
ag621
ag623
ag625
aa(lp1658
I619
aI626
ag627
ag628
ag630
ag632
ag634
aa(lp1659
I629
aI635
ag636
ag637
ag639
ag641
ag643
aa(lp1660
I629
aI635
ag645
ag646
ag648
ag650
ag652
aasS'characterMap'
p1661
(lp1662
g657
ag659
ag661
ag1452
ag665
ag667
ag669
ag671
ag672
ag674
ag676
a(lp1663
I11
aS';'
p1664
aag1454
ag679
ag680
ag682
ag683
ag684
a(lp1665
I18
aS','
p1666
aag1455
ag687
ag689
ag690
ag692
ag1456
ag696
ag698
ag700
ag702
ag703
ag704
ag705
ag1457
ag708
ag710
ag711
ag712
ag713
ag714
a(lp1667
I39
ag1666
aag1458
ag717
ag718
ag719
ag720
ag721
ag722
ag723
ag724
a(lp1668
I49
ag1666
aag1459
ag727
ag728
ag729
ag730
ag731
ag732
ag733
ag1460
ag737
ag738
ag739
ag740
ag741
ag1461
ag745
ag746
ag747
ag748
ag1462
ag753
ag754
ag755
ag1463
ag758
ag759
ag760
ag761
ag762
ag763
ag764
a(lp1669
I81
aS'.'
p1670
aag1464
ag768
ag769
ag770
ag1465
ag773
ag774
ag775
ag776
ag777
ag1466
ag781
ag782
ag783
ag785
ag786
ag1467
ag789
ag790
ag791
ag792
ag793
ag794
ag1468
ag798
ag799
ag800
ag1469
ag803
ag804
ag805
ag806
ag807
ag808
ag1470
ag812
ag813
ag1471
ag816
ag817
ag818
ag819
ag1472
ag823
ag825
ag826
ag1473
ag829
ag831
ag832
ag833
ag834
ag835
ag836
a(lp1671
I136
ag1670
aag1474
ag840
ag841
ag842
ag843
ag1475
ag846
ag847
ag848
ag849
ag1476
ag852
ag853
ag854
ag855
ag856
ag857
ag1477
ag861
ag862
ag1478
ag865
ag866
ag867
ag1479
ag870
ag871
ag872
ag873
ag874
ag875
a(lp1672
I168
ag1670
aag1480
ag878
ag879
ag880
ag881
ag882
ag883
ag884
ag885
ag886
ag1481
ag889
ag890
ag891
ag892
ag893
ag1482
ag897
ag898
ag1483
ag901
ag902
ag903
ag904
ag1484
ag907
ag908
ag909
ag910
ag911
ag912
ag1485
ag916
ag917
ag918
ag919
ag1486
ag923
ag924
ag925
ag1487
ag929
ag930
ag931
ag932
ag1488
ag936
ag937
ag938
ag939
ag1489
ag942
ag1490
ag945
ag946
ag947
ag948
ag949
ag1491
ag952
ag953
ag954
ag955
ag957
ag958
ag1492
ag961
ag962
ag963
ag1493
ag966
ag967
ag968
ag969
a(lp1673
I243
ag1666
aag1494
ag972
ag973
ag974
ag975
ag1495
ag978
ag979
ag980
ag981
ag982
ag983
a(lp1674
I256
ag1666
aag1496
ag986
ag987
ag988
ag989
ag990
ag991
ag1497
ag994
ag995
ag996
ag997
ag998
ag999
ag1000
ag1001
ag1498
ag1004
ag1005
ag1006
ag1007
ag1499
ag1010
ag1011
ag1012
ag1013
ag1014
ag1015
ag1016
ag1017
ag1018
ag1500
ag1021
ag1022
ag1023
ag1024
ag1025
ag1026
ag1501
ag1030
ag1031
ag1032
ag1502
ag1036
ag1037
ag1038
ag1503
ag1041
ag1042
ag1043
ag1044
ag1504
ag1047
ag1048
ag1049
ag1050
ag1051
a(lp1675
I314
ag1670
aag1505
ag1055
ag1056
ag1057
ag1058
ag1506
ag1061
ag1062
ag1063
ag1064
ag1065
ag1066
ag1507
ag1070
ag1071
ag1072
ag1508
ag1075
ag1076
ag1077
ag1078
a(lp1676
I336
ag1670
aag1509
ag1082
ag1083
ag1084
ag1085
ag1510
ag1088
ag1089
ag1090
ag1091
ag1092
ag1511
ag1096
ag1097
ag1512
ag1100
ag1101
ag1102
ag1103
ag1104
ag1105
ag1106
ag1107
ag1513
ag1111
ag1112
ag1514
ag1115
ag1116
ag1117
ag1118
ag1119
ag1515
ag1123
ag1124
ag1516
ag1127
ag1128
ag1129
ag1130
ag1517
ag1133
ag1134
ag1135
ag1136
ag1137
ag1138
a(lp1677
I384
ag1670
aag1518
ag1141
ag1142
ag1143
ag1144
ag1519
ag1147
ag1520
ag1150
ag1151
ag1152
ag1153
ag1521
ag1157
ag1158
ag1522
ag1162
ag1163
ag1164
ag1165
ag1523
ag1168
ag1169
ag1170
ag1171
ag1172
ag1524
ag1175
ag1176
ag1177
ag1178
ag1179
ag1180
ag1181
ag1525
ag1185
ag1186
ag1526
ag1189
ag1190
ag1191
ag1192
ag1193
ag1194
ag1527
ag1197
ag1198
ag1199
ag1200
ag1201
ag1202
ag1203
ag1204
ag1528
ag1207
ag1208
ag1209
ag1210
ag1211
ag1212
ag1529
a(lp1678
I446
ag1670
aag1530
ag1216
ag1217
ag1531
ag1221
ag1222
ag1223
ag1532
ag1226
ag1227
ag1228
ag1229
ag1533
ag1233
ag1234
ag1534
ag1238
ag1239
ag1240
ag1241
ag1242
ag1535
ag1245
ag1246
ag1247
ag1248
ag1249
ag1250
ag1251
ag1252
a(lp1679
I477
aS'!'
p1680
aag1536
ag1256
ag1257
ag1258
ag1259
ag1537
ag1262
ag1263
ag1264
ag1265
ag1266
ag1267
ag1268
ag1269
ag1270
ag1538
ag1273
ag1274
ag1275
ag1276
ag1277
ag1278
ag1279
ag1539
ag1282
ag1283
ag1284
ag1285
ag1540
ag1289
ag1290
ag1541
ag1293
ag1542
ag1296
ag1298
ag1299
ag1543
ag1302
ag1303
ag1304
ag1305
ag1306
ag1307
ag1544
ag1311
ag1312
ag1313
ag1314
ag1545
ag1317
ag1318
ag1319
ag1320
ag1321
ag1322
ag1323
ag1324
ag1546
ag1327
ag1328
ag1329
ag1330
ag1331
ag1332
ag1547
ag1335
ag1336
ag1337
ag1338
ag1339
ag1340
ag1341
ag1342
ag1548
ag1345
ag1346
ag1347
ag1348
ag1349
ag1350
a(lp1681
I559
aS':'
p1682
aag1549
ag1353
ag1354
ag1355
a(lp1683
I564
aS"'"
p1684
aag1356
ag1550
ag1359
ag1360
ag1361
ag1362
ag1363
ag1364
ag1551
ag1367
ag1368
ag1369
ag1370
ag1371
ag1552
ag1375
ag1376
ag1377
ag1553
ag1380
ag1381
ag1382
ag1383
ag1384
ag1385
ag1554
ag1389
ag1390
ag1391
ag1555
ag1394
ag1395
ag1396
ag1397
ag1398
ag1399
ag1400
ag1556
ag1403
ag1404
ag1405
ag1406
ag1407
ag1408
ag1409
ag1410
ag1557
ag1414
ag1415
ag1558
ag1419
ag1420
ag1421
ag1559
ag1424
ag1425
ag1426
ag1427
ag1428
ag1429
ag1430
ag1431
a(lp1685
I627
ag1682
aag1560
ag1434
ag1435
ag1436
ag1437
ag1438
ag1439
ag1440
ag1561
ag1443
ag1444
ag1445
ag1446
ag1447
ag1448
ag1449
asS'docName'
p1686
S'source-document00818.txt'
p1687
sb.