(iModel.Document
Document
p0
(dp1
S'fmap'
p2
(lp3
(lp4
I18
aI21
aS'wear'
p5
a(lp6
S'*'
p7
ag5
aaa(lp8
I18
aI21
ag5
a(lp9
g7
ag5
aaa(lp10
I18
aI21
ag5
a(lp11
g7
ag5
aaa(lp12
I18
aI21
ag5
a(lp13
g7
ag5
aaa(lp14
I28
aI30
aS'job'
p15
a(lp16
g5
ag15
aaa(lp17
I28
aI30
ag15
a(lp18
g7
ag15
aaa(lp19
I28
aI30
ag15
a(lp20
g7
ag15
aaa(lp21
I28
aI30
ag15
a(lp22
g7
ag15
aaa(lp23
I32
aI40
aS'interview'
p24
a(lp25
g15
ag24
aaa(lp26
I32
aI40
ag24
a(lp27
g5
ag24
aaa(lp28
I32
aI40
ag24
a(lp29
g7
ag24
aaa(lp30
I32
aI40
ag24
a(lp31
g7
ag24
aaa(lp32
I43
aI48
aS'posted'
p33
a(lp34
g24
ag33
aaa(lp35
I43
aI48
ag33
a(lp36
g15
ag33
aaa(lp37
I43
aI48
ag33
a(lp38
g5
ag33
aaa(lp39
I43
aI48
ag33
a(lp40
g7
ag33
aaa(lp41
I53
aI54
aS'hr'
p42
a(lp43
g33
ag42
aaa(lp44
I53
aI54
ag42
a(lp45
g24
ag42
aaa(lp46
I53
aI54
ag42
a(lp47
g15
ag42
aaa(lp48
I53
aI54
ag42
a(lp49
g5
ag42
aaa(lp50
I60
aI68
aS'preparing'
p51
a(lp52
g42
ag51
aaa(lp53
I60
aI68
ag51
a(lp54
g33
ag51
aaa(lp55
I60
aI68
ag51
a(lp56
g24
ag51
aaa(lp57
I60
aI68
ag51
a(lp58
g15
ag51
aaa(lp59
I76
aI78
aS'job'
p60
a(lp61
g51
ag60
aaa(lp62
I76
aI78
ag60
a(lp63
g42
ag60
aaa(lp64
I76
aI78
ag60
a(lp65
g33
ag60
aaa(lp66
I76
aI78
ag60
a(lp67
g24
ag60
aaa(lp68
I80
aI88
aS'interview'
p69
a(lp70
g60
ag69
aaa(lp71
I80
aI88
ag69
a(lp72
g51
ag69
aaa(lp73
I80
aI88
ag69
a(lp74
g42
ag69
aaa(lp75
I80
aI88
ag69
a(lp76
g33
ag69
aaa(lp77
I103
aI111
aS'preparing'
p78
a(lp79
g69
ag78
aaa(lp80
I103
aI111
ag78
a(lp81
g60
ag78
aaa(lp82
I103
aI111
ag78
a(lp83
g51
ag78
aaa(lp84
I103
aI111
ag78
a(lp85
g42
ag78
aaa(lp86
I119
aI121
aS'job'
p87
a(lp88
g78
ag87
aaa(lp89
I119
aI121
ag87
a(lp90
g69
ag87
aaa(lp91
I119
aI121
ag87
a(lp92
g60
ag87
aaa(lp93
I119
aI121
ag87
a(lp94
g51
ag87
aaa(lp95
I123
aI131
aS'interview'
p96
a(lp97
g87
ag96
aaa(lp98
I123
aI131
ag96
a(lp99
g78
ag96
aaa(lp100
I123
aI131
ag96
a(lp101
g69
ag96
aaa(lp102
I123
aI131
ag96
a(lp103
g60
ag96
aaa(lp104
I137
aI140
aS'need'
p105
a(lp106
g96
ag105
aaa(lp107
I137
aI140
ag105
a(lp108
g87
ag105
aaa(lp109
I137
aI140
ag105
a(lp110
g78
ag105
aaa(lp111
I137
aI140
ag105
a(lp112
g69
ag105
aaa(lp113
I145
aI152
aS'remember'
p114
a(lp115
g105
ag114
aaa(lp116
I145
aI152
ag114
a(lp117
g96
ag114
aaa(lp118
I145
aI152
ag114
a(lp119
g87
ag114
aaa(lp120
I145
aI152
ag114
a(lp121
g78
ag114
aaa(lp122
I163
aI165
aS'way'
p123
a(lp124
g114
ag123
aaa(lp125
I163
aI165
ag123
a(lp126
g105
ag123
aaa(lp127
I163
aI165
ag123
a(lp128
g96
ag123
aaa(lp129
I163
aI165
ag123
a(lp130
g87
ag123
aaa(lp131
I171
aI175
aS'dress'
p132
a(lp133
g123
ag132
aaa(lp134
I171
aI175
ag132
a(lp135
g114
ag132
aaa(lp136
I171
aI175
ag132
a(lp137
g105
ag132
aaa(lp138
I171
aI175
ag132
a(lp139
g96
ag132
aaa(lp140
I181
aI184
aS'make'
p141
a(lp142
g132
ag141
aaa(lp143
I181
aI184
ag141
a(lp144
g123
ag141
aaa(lp145
I181
aI184
ag141
a(lp146
g114
ag141
aaa(lp147
I181
aI184
ag141
a(lp148
g105
ag141
aaa(lp149
I189
aI193
aS'break'
p150
a(lp151
g141
ag150
aaa(lp152
I189
aI193
ag150
a(lp153
g132
ag150
aaa(lp154
I189
aI193
ag150
a(lp155
g123
ag150
aaa(lp156
I189
aI193
ag150
a(lp157
g114
ag150
aaa(lp158
I200
aI205
aS'people'
p159
a(lp160
g150
ag159
aaa(lp161
I200
aI205
ag159
a(lp162
g141
ag159
aaa(lp163
I200
aI205
ag159
a(lp164
g132
ag159
aaa(lp165
I200
aI205
ag159
a(lp166
g123
ag159
aaa(lp167
I207
aI210
aS'need'
p168
a(lp169
g159
ag168
aaa(lp170
I207
aI210
ag168
a(lp171
g150
ag168
aaa(lp172
I207
aI210
ag168
a(lp173
g141
ag168
aaa(lp174
I207
aI210
ag168
a(lp175
g132
ag168
aaa(lp176
I212
aI218
aS'clothes'
p177
a(lp178
g168
ag177
aaa(lp179
I212
aI218
ag177
a(lp180
g159
ag177
aaa(lp181
I212
aI218
ag177
a(lp182
g150
ag177
aaa(lp183
I212
aI218
ag177
a(lp184
g141
ag177
aaa(lp185
I239
aI247
aS'necessity'
p186
a(lp187
g177
ag186
aaa(lp188
I239
aI247
ag186
a(lp189
g168
ag186
aaa(lp190
I239
aI247
ag186
a(lp191
g159
ag186
aaa(lp192
I239
aI247
ag186
a(lp193
g150
ag186
aaa(lp194
I264
aI269
aS'denied'
p195
a(lp196
g186
ag195
aaa(lp197
I264
aI269
ag195
a(lp198
g177
ag195
aaa(lp199
I264
aI269
ag195
a(lp200
g168
ag195
aaa(lp201
I264
aI269
ag195
a(lp202
g159
ag195
aaa(lp203
I286
aI289
aS'know'
p204
a(lp205
g195
ag204
aaa(lp206
I286
aI289
ag204
a(lp207
g186
ag204
aaa(lp208
I286
aI289
ag204
a(lp209
g177
ag204
aaa(lp210
I286
aI289
ag204
a(lp211
g168
ag204
aaa(lp212
I298
aI302
aS'dress'
p213
a(lp214
g204
ag213
aaa(lp215
I298
aI302
ag213
a(lp216
g195
ag213
aaa(lp217
I298
aI302
ag213
a(lp218
g186
ag213
aaa(lp219
I298
aI302
ag213
a(lp220
g177
ag213
aaa(lp221
I304
aI307
aS'well'
p222
a(lp223
g213
ag222
aaa(lp224
I304
aI307
ag222
a(lp225
g204
ag222
aaa(lp226
I304
aI307
ag222
a(lp227
g195
ag222
aaa(lp228
I304
aI307
ag222
a(lp229
g186
ag222
aaa(lp230
I314
aI319
aS'either'
p231
a(lp232
g222
ag231
aaa(lp233
I314
aI319
ag231
a(lp234
g213
ag231
aaa(lp235
I314
aI319
ag231
a(lp236
g204
ag231
aaa(lp237
I314
aI319
ag231
a(lp238
g195
ag231
aaa(lp239
I324
aI331
aS'ordinary'
p240
a(lp241
g231
ag240
aaa(lp242
I324
aI331
ag240
a(lp243
g222
ag240
aaa(lp244
I324
aI331
ag240
a(lp245
g213
ag240
aaa(lp246
I324
aI331
ag240
a(lp247
g204
ag240
aaa(lp248
I333
aI335
aS'day'
p249
a(lp250
g240
ag249
aaa(lp251
I333
aI335
ag249
a(lp252
g231
ag249
aaa(lp253
I333
aI335
ag249
a(lp254
g222
ag249
aaa(lp255
I333
aI335
ag249
a(lp256
g213
ag249
aaa(lp257
I342
aI348
aS'special'
p258
a(lp259
g249
ag258
aaa(lp260
I342
aI348
ag258
a(lp261
g240
ag258
aaa(lp262
I342
aI348
ag258
a(lp263
g231
ag258
aaa(lp264
I342
aI348
ag258
a(lp265
g222
ag258
aaa(lp266
I350
aI357
aS'occasion'
p267
a(lp268
g258
ag267
aaa(lp269
I350
aI357
ag267
a(lp270
g249
ag267
aaa(lp271
I350
aI357
ag267
a(lp272
g240
ag267
aaa(lp273
I350
aI357
ag267
a(lp274
g231
ag267
aaa(lp275
I364
aI369
aS'create'
p276
a(lp277
g267
ag276
aaa(lp278
I364
aI369
ag276
a(lp279
g258
ag276
aaa(lp280
I364
aI369
ag276
a(lp281
g249
ag276
aaa(lp282
I364
aI369
ag276
a(lp283
g240
ag276
aaa(lp284
I371
aI381
aS'impressions'
p285
a(lp286
g276
ag285
aaa(lp287
I371
aI381
ag285
a(lp288
g267
ag285
aaa(lp289
I371
aI381
ag285
a(lp290
g258
ag285
aaa(lp291
I371
aI381
ag285
a(lp292
g249
ag285
aaa(lp293
I392
aI399
aS'positive'
p294
a(lp295
g285
ag294
aaa(lp296
I392
aI399
ag294
a(lp297
g276
ag294
aaa(lp298
I392
aI399
ag294
a(lp299
g267
ag294
aaa(lp300
I392
aI399
ag294
a(lp301
g258
ag294
aaa(lp302
I406
aI407
aS'us'
p303
a(lp304
g294
ag303
aaa(lp305
I406
aI407
ag303
a(lp306
g285
ag303
aaa(lp307
I406
aI407
ag303
a(lp308
g276
ag303
aaa(lp309
I406
aI407
ag303
a(lp310
g267
ag303
aaa(lp311
I412
aI415
aS'come'
p312
a(lp313
g303
ag312
aaa(lp314
I412
aI415
ag312
a(lp315
g294
ag312
aaa(lp316
I412
aI415
ag312
a(lp317
g285
ag312
aaa(lp318
I412
aI415
ag312
a(lp319
g276
ag312
aaa(lp320
I429
aI434
aS'things'
p321
a(lp322
g312
ag321
aaa(lp323
I429
aI434
ag321
a(lp324
g303
ag321
aaa(lp325
I429
aI434
ag321
a(lp326
g294
ag321
aaa(lp327
I429
aI434
ag321
a(lp328
g285
ag321
aaa(lp329
I448
aI453
aS'remind'
p330
a(lp331
g321
ag330
aaa(lp332
I448
aI453
ag330
a(lp333
g312
ag330
aaa(lp334
I448
aI453
ag330
a(lp335
g303
ag330
aaa(lp336
I448
aI453
ag330
a(lp337
g294
ag330
aaa(lp338
I460
aI463
aS'self'
p339
a(lp340
g330
ag339
aaa(lp341
I460
aI463
ag339
a(lp342
g321
ag339
aaa(lp343
I460
aI463
ag339
a(lp344
g312
ag339
aaa(lp345
I460
aI463
ag339
a(lp346
g303
ag339
aaa(lp347
I472
aI477
aS'facing'
p348
a(lp349
g339
ag348
aaa(lp350
I472
aI477
ag348
a(lp351
g330
ag348
aaa(lp352
I472
aI477
ag348
a(lp353
g321
ag348
aaa(lp354
I472
aI477
ag348
a(lp355
g312
ag348
aaa(lp356
I484
aI494
aS'interviewer'
p357
a(lp358
g348
ag357
aaa(lp359
I484
aI494
ag357
a(lp360
g339
ag357
aaa(lp361
I484
aI494
ag357
a(lp362
g330
ag357
aaa(lp363
I484
aI494
ag357
a(lp364
g321
ag357
aaa(lp365
I497
aI499
aS'let'
p366
a(lp367
g357
ag366
aaa(lp368
I497
aI499
ag366
a(lp369
g348
ag366
aaa(lp370
I497
aI499
ag366
a(lp371
g339
ag366
aaa(lp372
I497
aI499
ag366
a(lp373
g330
ag366
aaa(lp374
I501
aI502
aS'us'
p375
a(lp376
g366
ag375
aaa(lp377
I501
aI502
ag375
a(lp378
g357
ag375
aaa(lp379
I501
aI502
ag375
a(lp380
g348
ag375
aaa(lp381
I501
aI502
ag375
a(lp382
g339
ag375
aaa(lp383
I504
aI511
aS'identify'
p384
a(lp385
g375
ag384
aaa(lp386
I504
aI511
ag384
a(lp387
g366
ag384
aaa(lp388
I504
aI511
ag384
a(lp389
g357
ag384
aaa(lp390
I504
aI511
ag384
a(lp391
g348
ag384
aaa(lp392
I519
aI525
aS'clothes'
p393
a(lp394
g384
ag393
aaa(lp395
I519
aI525
ag393
a(lp396
g375
ag393
aaa(lp397
I519
aI525
ag393
a(lp398
g366
ag393
aaa(lp399
I519
aI525
ag393
a(lp400
g357
ag393
aaa(lp401
I532
aI535
aS'even'
p402
a(lp403
g393
ag402
aaa(lp404
I532
aI535
ag402
a(lp405
g384
ag402
aaa(lp406
I532
aI535
ag402
a(lp407
g375
ag402
aaa(lp408
I532
aI535
ag402
a(lp409
g366
ag402
aaa(lp410
I537
aI547
aS'accessories'
p411
a(lp412
g402
ag411
aaa(lp413
I537
aI547
ag411
a(lp414
g393
ag411
aaa(lp415
I537
aI547
ag411
a(lp416
g384
ag411
aaa(lp417
I537
aI547
ag411
a(lp418
g375
ag411
aaa(lp419
I554
aI558
aS'would'
p420
a(lp421
g411
ag420
aaa(lp422
I554
aI558
ag420
a(lp423
g402
ag420
aaa(lp424
I554
aI558
ag420
a(lp425
g393
ag420
aaa(lp426
I554
aI558
ag420
a(lp427
g384
ag420
aaa(lp428
I567
aI576
aS'flattering'
p429
a(lp430
g420
ag429
aaa(lp431
I567
aI576
ag429
a(lp432
g411
ag429
aaa(lp433
I567
aI576
ag429
a(lp434
g402
ag429
aaa(lp435
I567
aI576
ag429
a(lp436
g393
ag429
aaa(lp437
I586
aI589
aS'wild'
p438
a(lp439
g429
ag438
aaa(lp440
I586
aI589
ag438
a(lp441
g420
ag438
aaa(lp442
I586
aI589
ag438
a(lp443
g411
ag438
aaa(lp444
I586
aI589
ag438
a(lp445
g402
ag438
aaa(lp446
I591
aI596
aS'colors'
p447
a(lp448
g438
ag447
aaa(lp449
I591
aI596
ag447
a(lp450
g429
ag447
aaa(lp451
I591
aI596
ag447
a(lp452
g420
ag447
aaa(lp453
I591
aI596
ag447
a(lp454
g411
ag447
aaa(lp455
I606
aI608
aS'hot'
p456
a(lp457
g447
ag456
aaa(lp458
I606
aI608
ag456
a(lp459
g438
ag456
aaa(lp460
I606
aI608
ag456
a(lp461
g429
ag456
aaa(lp462
I606
aI608
ag456
a(lp463
g420
ag456
aaa(lp464
I615
aI619
aS'could'
p465
a(lp466
g456
ag465
aaa(lp467
I615
aI619
ag465
a(lp468
g447
ag465
aaa(lp469
I615
aI619
ag465
a(lp470
g438
ag465
aaa(lp471
I615
aI619
ag465
a(lp472
g429
ag465
aaa(lp473
I628
aI634
aS'hottest'
p474
a(lp475
g465
ag474
aaa(lp476
I628
aI634
ag474
a(lp477
g456
ag474
aaa(lp478
I628
aI634
ag474
a(lp479
g447
ag474
aaa(lp480
I628
aI634
ag474
a(lp481
g438
ag474
aaa(lp482
I636
aI641
aS'person'
p483
a(lp484
g474
ag483
aaa(lp485
I636
aI641
ag483
a(lp486
g465
ag483
aaa(lp487
I636
aI641
ag483
a(lp488
g456
ag483
aaa(lp489
I636
aI641
ag483
a(lp490
g447
ag483
aaa(lp491
I654
aI656
aS'red'
p492
a(lp493
g483
ag492
aaa(lp494
I654
aI656
ag492
a(lp495
g474
ag492
aaa(lp496
I654
aI656
ag492
a(lp497
g465
ag492
aaa(lp498
I654
aI656
ag492
a(lp499
g456
ag492
aaa(lp500
I658
aI667
aS'toptotoe'
p501
a(lp502
g492
ag501
aaa(lp503
I658
aI667
ag501
a(lp504
g483
ag501
aaa(lp505
I658
aI667
ag501
a(lp506
g474
ag501
aaa(lp507
I658
aI667
ag501
a(lp508
g465
ag501
aaa(lp509
I669
aI671
aS'get'
p510
a(lp511
g501
ag510
aaa(lp512
I669
aI671
ag510
a(lp513
g492
ag510
aaa(lp514
I669
aI671
ag510
a(lp515
g483
ag510
aaa(lp516
I669
aI671
ag510
a(lp517
g474
ag510
aaa(lp518
I680
aI683
aS'much'
p519
a(lp520
g510
ag519
aaa(lp521
I680
aI683
ag519
a(lp522
g501
ag519
aaa(lp523
I680
aI683
ag519
a(lp524
g492
ag519
aaa(lp525
I680
aI683
ag519
a(lp526
g483
ag519
aaa(lp527
I688
aI695
aS'possible'
p528
a(lp529
g519
ag528
aaa(lp530
I688
aI695
ag528
a(lp531
g510
ag528
aaa(lp532
I688
aI695
ag528
a(lp533
g501
ag528
aaa(lp534
I688
aI695
ag528
a(lp535
g492
ag528
aaa(lp536
I697
aI700
aS'wear'
p537
a(lp538
g528
ag537
aaa(lp539
I697
aI700
ag537
a(lp540
g519
ag537
aaa(lp541
I697
aI700
ag537
a(lp542
g510
ag537
aaa(lp543
I697
aI700
ag537
a(lp544
g501
ag537
aaa(lp545
I702
aI710
aS'something'
p546
a(lp547
g537
ag546
aaa(lp548
I702
aI710
ag546
a(lp549
g528
ag546
aaa(lp550
I702
aI710
ag546
a(lp551
g519
ag546
aaa(lp552
I702
aI710
ag546
a(lp553
g510
ag546
aaa(lp554
I720
aI725
aS'subtle'
p555
a(lp556
g546
ag555
aaa(lp557
I720
aI725
ag555
a(lp558
g537
ag555
aaa(lp559
I720
aI725
ag555
a(lp560
g528
ag555
aaa(lp561
I720
aI725
ag555
a(lp562
g519
ag555
aaa(lp563
I730
aI734
aS'color'
p564
a(lp565
g555
ag564
aaa(lp566
I730
aI734
ag564
a(lp567
g546
ag564
aaa(lp568
I730
aI734
ag564
a(lp569
g537
ag564
aaa(lp570
I730
aI734
ag564
a(lp571
g528
ag564
aaa(lp572
I740
aI744
aS'would'
p573
a(lp574
g564
ag573
aaa(lp575
I740
aI744
ag573
a(lp576
g555
ag573
aaa(lp577
I740
aI744
ag573
a(lp578
g546
ag573
aaa(lp579
I740
aI744
ag573
a(lp580
g537
ag573
aaa(lp581
I746
aI749
aS'make'
p582
a(lp583
g573
ag582
aaa(lp584
I746
aI749
ag582
a(lp585
g564
ag582
aaa(lp586
I746
aI749
ag582
a(lp587
g555
ag582
aaa(lp588
I746
aI749
ag582
a(lp589
g546
ag582
aaa(lp590
I755
aI759
aS'looks'
p591
a(lp592
g582
ag591
aaa(lp593
I755
aI759
ag591
a(lp594
g573
ag591
aaa(lp595
I755
aI759
ag591
a(lp596
g564
ag591
aaa(lp597
I755
aI759
ag591
a(lp598
g555
ag591
aaa(lp599
I761
aI770
aS'flattering'
p600
a(lp601
g591
ag600
aaa(lp602
I761
aI770
ag600
a(lp603
g582
ag600
aaa(lp604
I761
aI770
ag600
a(lp605
g573
ag600
aaa(lp606
I761
aI770
ag600
a(lp607
g564
ag600
aaa(lp608
I784
aI787
aS'loud'
p609
a(lp610
g600
ag609
aaa(lp611
I784
aI787
ag609
a(lp612
g591
ag609
aaa(lp613
I784
aI787
ag609
a(lp614
g582
ag609
aaa(lp615
I784
aI787
ag609
a(lp616
g573
ag609
aaa(lp617
I790
aI797
aS'remember'
p618
a(lp619
g609
ag618
aaa(lp620
I790
aI797
ag618
a(lp621
g600
ag618
aaa(lp622
I790
aI797
ag618
a(lp623
g591
ag618
aaa(lp624
I790
aI797
ag618
a(lp625
g582
ag618
aaa(lp626
I825
aI833
aS'interview'
p627
a(lp628
g618
ag627
aaa(lp629
I825
aI833
ag627
a(lp630
g609
ag627
aaa(lp631
I825
aI833
ag627
a(lp632
g600
ag627
aaa(lp633
I825
aI833
ag627
a(lp634
g591
ag627
aaa(lp635
I849
aI853
aS'night'
p636
a(lp637
g627
ag636
aaa(lp638
I849
aI853
ag636
a(lp639
g618
ag636
aaa(lp640
I849
aI853
ag636
a(lp641
g609
ag636
aaa(lp642
I849
aI853
ag636
a(lp643
g600
ag636
aaa(lp644
I880
aI882
aS'bag'
p645
a(lp646
g636
ag645
aaa(lp647
I880
aI882
ag645
a(lp648
g627
ag645
aaa(lp649
I880
aI882
ag645
a(lp650
g618
ag645
aaa(lp651
I880
aI882
ag645
a(lp652
g609
ag645
aaa(lp653
I908
aI910
aS'job'
p654
a(lp655
g645
ag654
aaa(lp656
I908
aI910
ag654
a(lp657
g636
ag654
aaa(lp658
I908
aI910
ag654
a(lp659
g627
ag654
aaa(lp660
I908
aI910
ag654
a(lp661
g618
ag654
aaa(lp662
I912
aI920
aS'interview'
p663
a(lp664
g654
ag663
aaa(lp665
I912
aI920
ag663
a(lp666
g645
ag663
aaa(lp667
I912
aI920
ag663
a(lp668
g636
ag663
aaa(lp669
I912
aI920
ag663
a(lp670
g627
ag663
aaa(lp671
I930
aI934
aS'bring'
p672
a(lp673
g663
ag672
aaa(lp674
I930
aI934
ag672
a(lp675
g654
ag672
aaa(lp676
I930
aI934
ag672
a(lp677
g645
ag672
aaa(lp678
I930
aI934
ag672
a(lp679
g636
ag672
aaa(lp680
I947
aI953
aS'heavily'
p681
a(lp682
g672
ag681
aaa(lp683
I947
aI953
ag681
a(lp684
g663
ag681
aaa(lp685
I947
aI953
ag681
a(lp686
g654
ag681
aaa(lp687
I947
aI953
ag681
a(lp688
g645
ag681
aaa(lp689
I955
aI961
aS'printed'
p690
a(lp691
g681
ag690
aaa(lp692
I955
aI961
ag690
a(lp693
g672
ag690
aaa(lp694
I955
aI961
ag690
a(lp695
g663
ag690
aaa(lp696
I955
aI961
ag690
a(lp697
g654
ag690
aaa(lp698
I963
aI965
aS'bag'
p699
a(lp700
g690
ag699
aaa(lp701
I963
aI965
ag699
a(lp702
g681
ag699
aaa(lp703
I963
aI965
ag699
a(lp704
g672
ag699
aaa(lp705
I963
aI965
ag699
a(lp706
g663
ag699
aaa(lp707
I968
aI973
aS'purses'
p708
a(lp709
g699
ag708
aaa(lp710
I968
aI973
ag708
a(lp711
g690
ag708
aaa(lp712
I968
aI973
ag708
a(lp713
g681
ag708
aaa(lp714
I968
aI973
ag708
a(lp715
g672
ag708
aaa(lp716
I979
aI984
aS'better'
p717
a(lp718
g708
ag717
aaa(lp719
I979
aI984
ag717
a(lp720
g699
ag717
aaa(lp721
I979
aI984
ag717
a(lp722
g690
ag717
aaa(lp723
I979
aI984
ag717
a(lp724
g681
ag717
aaa(lp725
I986
aI992
aS'options'
p726
a(lp727
g717
ag726
aaa(lp728
I986
aI992
ag726
a(lp729
g708
ag726
aaa(lp730
I986
aI992
ag726
a(lp731
g699
ag726
aaa(lp732
I986
aI992
ag726
a(lp733
g690
ag726
aaa(lp734
I998
aI1003
aS'please'
p735
a(lp736
g726
ag735
aaa(lp737
I998
aI1003
ag735
a(lp738
g717
ag735
aaa(lp739
I998
aI1003
ag735
a(lp740
g708
ag735
aaa(lp741
I998
aI1003
ag735
a(lp742
g699
ag735
aaa(lp743
I1005
aI1010
aS'choose'
p744
a(lp745
g735
ag744
aaa(lp746
I1005
aI1010
ag744
a(lp747
g726
ag744
aaa(lp748
I1005
aI1010
ag744
a(lp749
g717
ag744
aaa(lp750
I1005
aI1010
ag744
a(lp751
g708
ag744
aaa(lp752
I1014
aI1025
aS'conservative'
p753
a(lp754
g744
ag753
aaa(lp755
I1014
aI1025
ag753
a(lp756
g735
ag753
aaa(lp757
I1014
aI1025
ag753
a(lp758
g726
ag753
aaa(lp759
I1014
aI1025
ag753
a(lp760
g717
ag753
aaa(lp761
I1027
aI1031
aS'color'
p762
a(lp763
g753
ag762
aaa(lp764
I1027
aI1031
ag762
a(lp765
g744
ag762
aaa(lp766
I1027
aI1031
ag762
a(lp767
g735
ag762
aaa(lp768
I1027
aI1031
ag762
a(lp769
g726
ag762
aaa(lp770
I1038
aI1042
aS'could'
p771
a(lp772
g762
ag771
aaa(lp773
I1038
aI1042
ag771
a(lp774
g753
ag771
aaa(lp775
I1038
aI1042
ag771
a(lp776
g744
ag771
aaa(lp777
I1038
aI1042
ag771
a(lp778
g735
ag771
aaa(lp779
I1044
aI1045
aS'go'
p780
a(lp781
g771
ag780
aaa(lp782
I1044
aI1045
ag780
a(lp783
g762
ag780
aaa(lp784
I1044
aI1045
ag780
a(lp785
g753
ag780
aaa(lp786
I1044
aI1045
ag780
a(lp787
g744
ag780
aaa(lp788
I1047
aI1051
aS'along'
p789
a(lp790
g780
ag789
aaa(lp791
I1047
aI1051
ag789
a(lp792
g771
ag789
aaa(lp793
I1047
aI1051
ag789
a(lp794
g762
ag789
aaa(lp795
I1047
aI1051
ag789
a(lp796
g753
ag789
aaa(lp797
I1063
aI1067
aS'dress'
p798
a(lp799
g789
ag798
aaa(lp800
I1063
aI1067
ag798
a(lp801
g780
ag798
aaa(lp802
I1063
aI1067
ag798
a(lp803
g771
ag798
aaa(lp804
I1063
aI1067
ag798
a(lp805
g762
ag798
aaa(lp806
I1070
aI1074
aS'short'
p807
a(lp808
g798
ag807
aaa(lp809
I1070
aI1074
ag807
a(lp810
g789
ag807
aaa(lp811
I1070
aI1074
ag807
a(lp812
g780
ag807
aaa(lp813
I1070
aI1074
ag807
a(lp814
g771
ag807
aaa(lp815
I1076
aI1080
aS'skirt'
p816
a(lp817
g807
ag816
aaa(lp818
I1076
aI1080
ag816
a(lp819
g798
ag816
aaa(lp820
I1076
aI1080
ag816
a(lp821
g789
ag816
aaa(lp822
I1076
aI1080
ag816
a(lp823
g780
ag816
aaa(lp824
I1083
aI1087
aS'short'
p825
a(lp826
g816
ag825
aaa(lp827
I1083
aI1087
ag825
a(lp828
g807
ag825
aaa(lp829
I1083
aI1087
ag825
a(lp830
g798
ag825
aaa(lp831
I1083
aI1087
ag825
a(lp832
g789
ag825
aaa(lp833
I1089
aI1094
aS'chance'
p834
a(lp835
g825
ag834
aaa(lp836
I1089
aI1094
ag834
a(lp837
g816
ag834
aaa(lp838
I1089
aI1094
ag834
a(lp839
g807
ag834
aaa(lp840
I1089
aI1094
ag834
a(lp841
g798
ag834
aaa(lp842
I1097
aI1101
aS'never'
p843
a(lp844
g834
ag843
aaa(lp845
I1097
aI1101
ag843
a(lp846
g825
ag843
aaa(lp847
I1097
aI1101
ag843
a(lp848
g816
ag843
aaa(lp849
I1097
aI1101
ag843
a(lp850
g807
ag843
aaa(lp851
I1103
aI1106
aS'wear'
p852
a(lp853
g843
ag852
aaa(lp854
I1103
aI1106
ag852
a(lp855
g834
ag852
aaa(lp856
I1103
aI1106
ag852
a(lp857
g825
ag852
aaa(lp858
I1103
aI1106
ag852
a(lp859
g816
ag852
aaa(lp860
I1121
aI1124
aS'knee'
p861
a(lp862
g852
ag861
aaa(lp863
I1121
aI1124
ag861
a(lp864
g843
ag861
aaa(lp865
I1121
aI1124
ag861
a(lp866
g834
ag861
aaa(lp867
I1121
aI1124
ag861
a(lp868
g825
ag861
aaa(lp869
I1126
aI1130
aS'skirt'
p870
a(lp871
g861
ag870
aaa(lp872
I1126
aI1130
ag870
a(lp873
g852
ag870
aaa(lp874
I1126
aI1130
ag870
a(lp875
g843
ag870
aaa(lp876
I1126
aI1130
ag870
a(lp877
g834
ag870
aaa(lp878
I1138
aI1141
aS'legs'
p879
a(lp880
g870
ag879
aaa(lp881
I1138
aI1141
ag879
a(lp882
g861
ag879
aaa(lp883
I1138
aI1141
ag879
a(lp884
g852
ag879
aaa(lp885
I1138
aI1141
ag879
a(lp886
g843
ag879
aaa(lp887
I1143
aI1145
aS'may'
p888
a(lp889
g879
ag888
aaa(lp890
I1143
aI1145
ag888
a(lp891
g870
ag888
aaa(lp892
I1143
aI1145
ag888
a(lp893
g861
ag888
aaa(lp894
I1143
aI1145
ag888
a(lp895
g852
ag888
aaa(lp896
I1154
aI1161
aS'silkiest'
p897
a(lp898
g888
ag897
aaa(lp899
I1154
aI1161
ag897
a(lp900
g879
ag897
aaa(lp901
I1154
aI1161
ag897
a(lp902
g870
ag897
aaa(lp903
I1154
aI1161
ag897
a(lp904
g861
ag897
aaa(lp905
I1166
aI1169
aS'town'
p906
a(lp907
g897
ag906
aaa(lp908
I1166
aI1169
ag906
a(lp909
g888
ag906
aaa(lp910
I1166
aI1169
ag906
a(lp911
g879
ag906
aaa(lp912
I1166
aI1169
ag906
a(lp913
g870
ag906
aaa(lp914
I1184
aI1194
aS'interviewee'
p915
a(lp916
g906
ag915
aaa(lp917
I1184
aI1194
ag915
a(lp918
g897
ag915
aaa(lp919
I1184
aI1194
ag915
a(lp920
g888
ag915
aaa(lp921
I1184
aI1194
ag915
a(lp922
g879
ag915
aaa(lp923
I1205
aI1211
aS'require'
p924
a(lp925
g915
ag924
aaa(lp926
I1205
aI1211
ag924
a(lp927
g906
ag924
aaa(lp928
I1205
aI1211
ag924
a(lp929
g897
ag924
aaa(lp930
I1205
aI1211
ag924
a(lp931
g888
ag924
aaa(lp932
I1220
aI1223
aS'wear'
p933
a(lp934
g924
ag933
aaa(lp935
I1220
aI1223
ag933
a(lp936
g915
ag933
aaa(lp937
I1220
aI1223
ag933
a(lp938
g906
ag933
aaa(lp939
I1220
aI1223
ag933
a(lp940
g897
ag933
aaa(lp941
I1230
aI1233
aS'type'
p942
a(lp943
g933
ag942
aaa(lp944
I1230
aI1233
ag942
a(lp945
g924
ag942
aaa(lp946
I1230
aI1233
ag942
a(lp947
g915
ag942
aaa(lp948
I1230
aI1233
ag942
a(lp949
g906
ag942
aaa(lp950
I1238
aI1242
aS'skirt'
p951
a(lp952
g942
ag951
aaa(lp953
I1238
aI1242
ag951
a(lp954
g933
ag951
aaa(lp955
I1238
aI1242
ag951
a(lp956
g924
ag951
aaa(lp957
I1238
aI1242
ag951
a(lp958
g915
ag951
aaa(lp959
I1249
aI1253
aS'would'
p960
a(lp961
g951
ag960
aaa(lp962
I1249
aI1253
ag960
a(lp963
g942
ag960
aaa(lp964
I1249
aI1253
ag960
a(lp965
g933
ag960
aaa(lp966
I1249
aI1253
ag960
a(lp967
g924
ag960
aaa(lp968
I1255
aI1258
aS'look'
p969
a(lp970
g960
ag969
aaa(lp971
I1255
aI1258
ag969
a(lp972
g951
ag969
aaa(lp973
I1255
aI1258
ag969
a(lp974
g942
ag969
aaa(lp975
I1255
aI1258
ag969
a(lp976
g933
ag969
aaa(lp977
I1260
aI1273
aS'unprofessional'
p978
a(lp979
g969
ag978
aaa(lp980
I1260
aI1273
ag978
a(lp981
g960
ag978
aaa(lp982
I1260
aI1273
ag978
a(lp983
g951
ag978
aaa(lp984
I1260
aI1273
ag978
a(lp985
g942
ag978
aaa(lp986
I1290
aI1298
aS'christmas'
p987
a(lp988
g978
ag987
aaa(lp989
I1290
aI1298
ag987
a(lp990
g969
ag987
aaa(lp991
I1290
aI1298
ag987
a(lp992
g960
ag987
aaa(lp993
I1290
aI1298
ag987
a(lp994
g951
ag987
aaa(lp995
I1300
aI1303
aS'tree'
p996
a(lp997
g987
ag996
aaa(lp998
I1300
aI1303
ag996
a(lp999
g978
ag996
aaa(lp1000
I1300
aI1303
ag996
a(lp1001
g969
ag996
aaa(lp1002
I1300
aI1303
ag996
a(lp1003
g960
ag996
aaa(lp1004
I1306
aI1312
aS'jewelry'
p1005
a(lp1006
g996
ag1005
aaa(lp1007
I1306
aI1312
ag1005
a(lp1008
g987
ag1005
aaa(lp1009
I1306
aI1312
ag1005
a(lp1010
g978
ag1005
aaa(lp1011
I1306
aI1312
ag1005
a(lp1012
g969
ag1005
aaa(lp1013
I1318
aI1328
aS'accessories'
p1014
a(lp1015
g1005
ag1014
aaa(lp1016
I1318
aI1328
ag1014
a(lp1017
g996
ag1014
aaa(lp1018
I1318
aI1328
ag1014
a(lp1019
g987
ag1014
aaa(lp1020
I1318
aI1328
ag1014
a(lp1021
g978
ag1014
aaa(lp1022
I1330
aI1334
aS'could'
p1023
a(lp1024
g1014
ag1023
aaa(lp1025
I1330
aI1334
ag1023
a(lp1026
g1005
ag1023
aaa(lp1027
I1330
aI1334
ag1023
a(lp1028
g996
ag1023
aaa(lp1029
I1330
aI1334
ag1023
a(lp1030
g987
ag1023
aaa(lp1031
I1336
aI1341
aS'really'
p1032
a(lp1033
g1023
ag1032
aaa(lp1034
I1336
aI1341
ag1032
a(lp1035
g1014
ag1032
aaa(lp1036
I1336
aI1341
ag1032
a(lp1037
g1005
ag1032
aaa(lp1038
I1336
aI1341
ag1032
a(lp1039
g996
ag1032
aaa(lp1040
I1346
aI1349
aS'good'
p1041
a(lp1042
g1032
ag1041
aaa(lp1043
I1346
aI1349
ag1041
a(lp1044
g1023
ag1041
aaa(lp1045
I1346
aI1349
ag1041
a(lp1046
g1014
ag1041
aaa(lp1047
I1346
aI1349
ag1041
a(lp1048
g1005
ag1041
aaa(lp1049
I1351
aI1357
aS'addons'
p1050
a(lp1051
g1041
ag1050
aaa(lp1052
I1351
aI1357
ag1050
a(lp1053
g1032
ag1050
aaa(lp1054
I1351
aI1357
ag1050
a(lp1055
g1023
ag1050
aaa(lp1056
I1351
aI1357
ag1050
a(lp1057
g1014
ag1050
aaa(lp1058
I1368
aI1372
aS'looks'
p1059
a(lp1060
g1050
ag1059
aaa(lp1061
I1368
aI1372
ag1059
a(lp1062
g1041
ag1059
aaa(lp1063
I1368
aI1372
ag1059
a(lp1064
g1032
ag1059
aaa(lp1065
I1368
aI1372
ag1059
a(lp1066
g1023
ag1059
aaa(lp1067
I1379
aI1388
aS'interviews'
p1068
a(lp1069
g1059
ag1068
aaa(lp1070
I1379
aI1388
ag1068
a(lp1071
g1050
ag1068
aaa(lp1072
I1379
aI1388
ag1068
a(lp1073
g1041
ag1068
aaa(lp1074
I1379
aI1388
ag1068
a(lp1075
g1032
ag1068
aaa(lp1076
I1391
aI1393
aS'job'
p1077
a(lp1078
g1068
ag1077
aaa(lp1079
I1391
aI1393
ag1077
a(lp1080
g1059
ag1077
aaa(lp1081
I1391
aI1393
ag1077
a(lp1082
g1050
ag1077
aaa(lp1083
I1391
aI1393
ag1077
a(lp1084
g1041
ag1077
aaa(lp1085
I1395
aI1404
aS'interviews'
p1086
a(lp1087
g1077
ag1086
aaa(lp1088
I1395
aI1404
ag1086
a(lp1089
g1068
ag1086
aaa(lp1090
I1395
aI1404
ag1086
a(lp1091
g1059
ag1086
aaa(lp1092
I1395
aI1404
ag1086
a(lp1093
g1050
ag1086
aaa(lp1094
I1407
aI1410
aS'make'
p1095
a(lp1096
g1086
ag1095
aaa(lp1097
I1407
aI1410
ag1095
a(lp1098
g1077
ag1095
aaa(lp1099
I1407
aI1410
ag1095
a(lp1100
g1068
ag1095
aaa(lp1101
I1407
aI1410
ag1095
a(lp1102
g1059
ag1095
aaa(lp1103
I1412
aI1415
aS'sure'
p1104
a(lp1105
g1095
ag1104
aaa(lp1106
I1412
aI1415
ag1104
a(lp1107
g1086
ag1104
aaa(lp1108
I1412
aI1415
ag1104
a(lp1109
g1077
ag1104
aaa(lp1110
I1412
aI1415
ag1104
a(lp1111
g1068
ag1104
aaa(lp1112
I1433
aI1436
aS'wear'
p1113
a(lp1114
g1104
ag1113
aaa(lp1115
I1433
aI1436
ag1113
a(lp1116
g1095
ag1113
aaa(lp1117
I1433
aI1436
ag1113
a(lp1118
g1086
ag1113
aaa(lp1119
I1433
aI1436
ag1113
a(lp1120
g1077
ag1113
aaa(lp1121
I1442
aI1445
aS'much'
p1122
a(lp1123
g1113
ag1122
aaa(lp1124
I1442
aI1445
ag1122
a(lp1125
g1104
ag1122
aaa(lp1126
I1442
aI1445
ag1122
a(lp1127
g1095
ag1122
aaa(lp1128
I1442
aI1445
ag1122
a(lp1129
g1086
ag1122
aaa(lp1130
I1452
aI1458
aS'example'
p1131
a(lp1132
g1122
ag1131
aaa(lp1133
I1452
aI1458
ag1131
a(lp1134
g1113
ag1131
aaa(lp1135
I1452
aI1458
ag1131
a(lp1136
g1104
ag1131
aaa(lp1137
I1452
aI1458
ag1131
a(lp1138
g1095
ag1131
aaa(lp1139
I1460
aI1467
aS'earrings'
p1140
a(lp1141
g1131
ag1140
aaa(lp1142
I1460
aI1467
ag1140
a(lp1143
g1122
ag1140
aaa(lp1144
I1460
aI1467
ag1140
a(lp1145
g1113
ag1140
aaa(lp1146
I1460
aI1467
ag1140
a(lp1147
g1104
ag1140
aaa(lp1148
I1477
aI1480
aS'show'
p1149
a(lp1150
g1140
ag1149
aaa(lp1151
I1477
aI1480
ag1149
a(lp1152
g1131
ag1149
aaa(lp1153
I1477
aI1480
ag1149
a(lp1154
g1122
ag1149
aaa(lp1155
I1477
aI1480
ag1149
a(lp1156
g1113
ag1149
aaa(lp1157
I1510
aI1512
aS'one'
p1158
a(lp1159
g1149
ag1158
aaa(lp1160
I1510
aI1512
ag1158
a(lp1161
g1140
ag1158
aaa(lp1162
I1510
aI1512
ag1158
a(lp1163
g1131
ag1158
aaa(lp1164
I1510
aI1512
ag1158
a(lp1165
g1122
ag1158
aaa(lp1166
I1514
aI1521
aS'piercing'
p1167
a(lp1168
g1158
ag1167
aaa(lp1169
I1514
aI1521
ag1167
a(lp1170
g1149
ag1167
aaa(lp1171
I1514
aI1521
ag1167
a(lp1172
g1140
ag1167
aaa(lp1173
I1514
aI1521
ag1167
a(lp1174
g1131
ag1167
aaa(lp1175
I1523
aI1525
aS'per'
p1176
a(lp1177
g1167
ag1176
aaa(lp1178
I1523
aI1525
ag1176
a(lp1179
g1158
ag1176
aaa(lp1180
I1523
aI1525
ag1176
a(lp1181
g1149
ag1176
aaa(lp1182
I1523
aI1525
ag1176
a(lp1183
g1140
ag1176
aaa(lp1184
I1527
aI1529
aS'ear'
p1185
a(lp1186
g1176
ag1185
aaa(lp1187
I1527
aI1529
ag1185
a(lp1188
g1167
ag1185
aaa(lp1189
I1527
aI1529
ag1185
a(lp1190
g1158
ag1185
aaa(lp1191
I1527
aI1529
ag1185
a(lp1192
g1149
ag1185
aaa(lp1193
I1534
aI1540
aS'wearing'
p1194
a(lp1195
g1185
ag1194
aaa(lp1196
I1534
aI1540
ag1194
a(lp1197
g1176
ag1194
aaa(lp1198
I1534
aI1540
ag1194
a(lp1199
g1167
ag1194
aaa(lp1200
I1534
aI1540
ag1194
a(lp1201
g1158
ag1194
aaa(lp1202
I1552
aI1554
aS'one'
p1203
a(lp1204
g1194
ag1203
aaa(lp1205
I1552
aI1554
ag1203
a(lp1206
g1185
ag1203
aaa(lp1207
I1552
aI1554
ag1203
a(lp1208
g1176
ag1203
aaa(lp1209
I1552
aI1554
ag1203
a(lp1210
g1167
ag1203
aaa(lp1211
I1556
aI1562
aS'earring'
p1212
a(lp1213
g1203
ag1212
aaa(lp1214
I1556
aI1562
ag1212
a(lp1215
g1194
ag1212
aaa(lp1216
I1556
aI1562
ag1212
a(lp1217
g1185
ag1212
aaa(lp1218
I1556
aI1562
ag1212
a(lp1219
g1176
ag1212
aaa(lp1220
I1565
aI1567
aS'tie'
p1221
a(lp1222
g1212
ag1221
aaa(lp1223
I1565
aI1567
ag1221
a(lp1224
g1203
ag1221
aaa(lp1225
I1565
aI1567
ag1221
a(lp1226
g1194
ag1221
aaa(lp1227
I1565
aI1567
ag1221
a(lp1228
g1185
ag1221
aaa(lp1229
I1582
aI1584
aS'men'
p1230
a(lp1231
g1221
ag1230
aaa(lp1232
I1582
aI1584
ag1230
a(lp1233
g1212
ag1230
aaa(lp1234
I1582
aI1584
ag1230
a(lp1235
g1203
ag1230
aaa(lp1236
I1582
aI1584
ag1230
a(lp1237
g1194
ag1230
aaa(lp1238
I1591
aI1596
aS'safest'
p1239
a(lp1240
g1230
ag1239
aaa(lp1241
I1591
aI1596
ag1239
a(lp1242
g1221
ag1239
aaa(lp1243
I1591
aI1596
ag1239
a(lp1244
g1212
ag1239
aaa(lp1245
I1591
aI1596
ag1239
a(lp1246
g1203
ag1239
aaa(lp1247
I1601
aI1604
aS'wear'
p1248
a(lp1249
g1239
ag1248
aaa(lp1250
I1601
aI1604
ag1248
a(lp1251
g1230
ag1248
aaa(lp1252
I1601
aI1604
ag1248
a(lp1253
g1221
ag1248
aaa(lp1254
I1601
aI1604
ag1248
a(lp1255
g1212
ag1248
aaa(lp1256
I1611
aI1618
aS'collared'
p1257
a(lp1258
g1248
ag1257
aaa(lp1259
I1611
aI1618
ag1257
a(lp1260
g1239
ag1257
aaa(lp1261
I1611
aI1618
ag1257
a(lp1262
g1230
ag1257
aaa(lp1263
I1611
aI1618
ag1257
a(lp1264
g1221
ag1257
aaa(lp1265
I1620
aI1624
aS'shirt'
p1266
a(lp1267
g1257
ag1266
aaa(lp1268
I1620
aI1624
ag1266
a(lp1269
g1248
ag1266
aaa(lp1270
I1620
aI1624
ag1266
a(lp1271
g1239
ag1266
aaa(lp1272
I1620
aI1624
ag1266
a(lp1273
g1230
ag1266
aaa(lp1274
I1633
aI1637
aS'would'
p1275
a(lp1276
g1266
ag1275
aaa(lp1277
I1633
aI1637
ag1275
a(lp1278
g1257
ag1275
aaa(lp1279
I1633
aI1637
ag1275
a(lp1280
g1248
ag1275
aaa(lp1281
I1633
aI1637
ag1275
a(lp1282
g1239
ag1275
aaa(lp1283
I1642
aI1645
aS'also'
p1284
a(lp1285
g1275
ag1284
aaa(lp1286
I1642
aI1645
ag1284
a(lp1287
g1266
ag1284
aaa(lp1288
I1642
aI1645
ag1284
a(lp1289
g1257
ag1284
aaa(lp1290
I1642
aI1645
ag1284
a(lp1291
g1248
ag1284
aaa(lp1292
I1652
aI1663
aS'professional'
p1293
a(lp1294
g1284
ag1293
aaa(lp1295
I1652
aI1663
ag1293
a(lp1296
g1275
ag1293
aaa(lp1297
I1652
aI1663
ag1293
a(lp1298
g1266
ag1293
aaa(lp1299
I1652
aI1663
ag1293
a(lp1300
g1257
ag1293
aaa(lp1301
I1668
aI1671
aS'wear'
p1302
a(lp1303
g1293
ag1302
aaa(lp1304
I1668
aI1671
ag1302
a(lp1305
g1284
ag1302
aaa(lp1306
I1668
aI1671
ag1302
a(lp1307
g1275
ag1302
aaa(lp1308
I1668
aI1671
ag1302
a(lp1309
g1266
ag1302
aaa(lp1310
I1675
aI1686
aS'longsleeved'
p1311
a(lp1312
g1302
ag1311
aaa(lp1313
I1675
aI1686
ag1311
a(lp1314
g1293
ag1311
aaa(lp1315
I1675
aI1686
ag1311
a(lp1316
g1284
ag1311
aaa(lp1317
I1675
aI1686
ag1311
a(lp1318
g1275
ag1311
aaa(lp1319
I1688
aI1690
aS'top'
p1320
a(lp1321
g1311
ag1320
aaa(lp1322
I1688
aI1690
ag1320
a(lp1323
g1302
ag1320
aaa(lp1324
I1688
aI1690
ag1320
a(lp1325
g1293
ag1320
aaa(lp1326
I1688
aI1690
ag1320
a(lp1327
g1284
ag1320
aaa(lp1328
I1697
aI1699
aS'tie'
p1329
a(lp1330
g1320
ag1329
aaa(lp1331
I1697
aI1699
ag1329
a(lp1332
g1311
ag1329
aaa(lp1333
I1697
aI1699
ag1329
a(lp1334
g1302
ag1329
aaa(lp1335
I1697
aI1699
ag1329
a(lp1336
g1293
ag1329
aaa(lp1337
I1702
aI1706
aS'never'
p1338
a(lp1339
g1329
ag1338
aaa(lp1340
I1702
aI1706
ag1338
a(lp1341
g1320
ag1338
aaa(lp1342
I1702
aI1706
ag1338
a(lp1343
g1311
ag1338
aaa(lp1344
I1702
aI1706
ag1338
a(lp1345
g1302
ag1338
aaa(lp1346
I1708
aI1711
aS'wear'
p1347
a(lp1348
g1338
ag1347
aaa(lp1349
I1708
aI1711
ag1347
a(lp1350
g1329
ag1347
aaa(lp1351
I1708
aI1711
ag1347
a(lp1352
g1320
ag1347
aaa(lp1353
I1708
aI1711
ag1347
a(lp1354
g1311
ag1347
aaa(lp1355
I1713
aI1723
aS'turtleneck'
p1356
a(lp1357
g1347
ag1356
aaa(lp1358
I1713
aI1723
ag1356
a(lp1359
g1338
ag1356
aaa(lp1360
I1713
aI1723
ag1356
a(lp1361
g1329
ag1356
aaa(lp1362
I1713
aI1723
ag1356
a(lp1363
g1320
ag1356
aaa(lp1364
I1732
aI1740
aS'interview'
p1365
a(lp1366
g1356
ag1365
aaa(lp1367
I1732
aI1740
ag1365
a(lp1368
g1347
ag1365
aaa(lp1369
I1732
aI1740
ag1365
a(lp1370
g1338
ag1365
aaa(lp1371
I1732
aI1740
ag1365
a(lp1372
g1329
ag1365
aaa(lp1373
I1747
aI1749
aS'may'
p1374
a(lp1375
g1365
ag1374
aaa(lp1376
I1747
aI1749
ag1374
a(lp1377
g1356
ag1374
aaa(lp1378
I1747
aI1749
ag1374
a(lp1379
g1347
ag1374
aaa(lp1380
I1747
aI1749
ag1374
a(lp1381
g1338
ag1374
aaa(lp1382
I1756
aI1758
aS'end'
p1383
a(lp1384
g1374
ag1383
aaa(lp1385
I1756
aI1758
ag1383
a(lp1386
g1365
ag1383
aaa(lp1387
I1756
aI1758
ag1383
a(lp1388
g1356
ag1383
aaa(lp1389
I1756
aI1758
ag1383
a(lp1390
g1347
ag1383
aaa(lp1391
I1763
aI1768
aS'sweaty'
p1392
a(lp1393
g1383
ag1392
aaa(lp1394
I1763
aI1768
ag1392
a(lp1395
g1374
ag1392
aaa(lp1396
I1763
aI1768
ag1392
a(lp1397
g1365
ag1392
aaa(lp1398
I1763
aI1768
ag1392
a(lp1399
g1356
ag1392
aaa(lp1400
I1781
aI1787
aS'fashion'
p1401
a(lp1402
g1392
ag1401
aaa(lp1403
I1781
aI1787
ag1401
a(lp1404
g1383
ag1401
aaa(lp1405
I1781
aI1787
ag1401
a(lp1406
g1374
ag1401
aaa(lp1407
I1781
aI1787
ag1401
a(lp1408
g1365
ag1401
aaa(lp1409
I1814
aI1818
aS'power'
p1410
a(lp1411
g1401
ag1410
aaa(lp1412
I1814
aI1818
ag1410
a(lp1413
g1392
ag1410
aaa(lp1414
I1814
aI1818
ag1410
a(lp1415
g1383
ag1410
aaa(lp1416
I1814
aI1818
ag1410
a(lp1417
g1374
ag1410
aaa(lp1418
I1820
aI1826
aS'dresser'
p1419
a(lp1420
g1410
ag1419
aaa(lp1421
I1820
aI1826
ag1419
a(lp1422
g1401
ag1419
aaa(lp1423
I1820
aI1826
ag1419
a(lp1424
g1392
ag1419
aaa(lp1425
I1820
aI1826
ag1419
a(lp1426
g1383
ag1419
aaa(lp1427
I1833
aI1836
aS'head'
p1428
a(lp1429
g1419
ag1428
aaa(lp1430
I1833
aI1836
ag1428
a(lp1431
g1410
ag1428
aaa(lp1432
I1833
aI1836
ag1428
a(lp1433
g1401
ag1428
aaa(lp1434
I1833
aI1836
ag1428
a(lp1435
g1392
ag1428
aaa(lp1436
I1838
aI1843
aS'turner'
p1437
a(lp1438
g1428
ag1437
aaa(lp1439
I1838
aI1843
ag1437
a(lp1440
g1419
ag1437
aaa(lp1441
I1838
aI1843
ag1437
a(lp1442
g1410
ag1437
aaa(lp1443
I1838
aI1843
ag1437
a(lp1444
g1401
ag1437
aaa(lp1445
I1854
aI1857
aS'wear'
p1446
a(lp1447
g1437
ag1446
aaa(lp1448
I1854
aI1857
ag1446
a(lp1449
g1428
ag1446
aaa(lp1450
I1854
aI1857
ag1446
a(lp1451
g1419
ag1446
aaa(lp1452
I1854
aI1857
ag1446
a(lp1453
g1410
ag1446
aaa(lp1454
I1859
aI1865
aS'clothes'
p1455
a(lp1456
g1446
ag1455
aaa(lp1457
I1859
aI1865
ag1455
a(lp1458
g1437
ag1455
aaa(lp1459
I1859
aI1865
ag1455
a(lp1460
g1428
ag1455
aaa(lp1461
I1859
aI1865
ag1455
a(lp1462
g1419
ag1455
aaa(lp1463
I1873
aI1875
aS'job'
p1464
a(lp1465
g1455
ag1464
aaa(lp1466
I1873
aI1875
ag1464
a(lp1467
g1446
ag1464
aaa(lp1468
I1873
aI1875
ag1464
a(lp1469
g1437
ag1464
aaa(lp1470
I1873
aI1875
ag1464
a(lp1471
g1428
ag1464
aaa(lp1472
I1877
aI1885
aS'interview'
p1473
a(lp1474
g1464
ag1473
aaa(lp1475
I1877
aI1885
ag1473
a(lp1476
g1455
ag1473
aaa(lp1477
I1877
aI1885
ag1473
a(lp1478
g1446
ag1473
aaa(lp1479
I1877
aI1885
ag1473
a(lp1480
g1437
ag1473
aaa(lp1481
I1905
aI1912
aS'remember'
p1482
a(lp1483
g1473
ag1482
aaa(lp1484
I1905
aI1912
ag1482
a(lp1485
g1464
ag1482
aaa(lp1486
I1905
aI1912
ag1482
a(lp1487
g1455
ag1482
aaa(lp1488
I1905
aI1912
ag1482
a(lp1489
g1446
ag1482
aaa(lp1490
I1918
aI1922
aS'basic'
p1491
a(lp1492
g1482
ag1491
aaa(lp1493
I1918
aI1922
ag1491
a(lp1494
g1473
ag1491
aaa(lp1495
I1918
aI1922
ag1491
a(lp1496
g1464
ag1491
aaa(lp1497
I1918
aI1922
ag1491
a(lp1498
g1455
ag1491
aaa(lp1499
I1924
aI1932
aS'reminders'
p1500
a(lp1501
g1491
ag1500
aaa(lp1502
I1924
aI1932
ag1500
a(lp1503
g1482
ag1500
aaa(lp1504
I1924
aI1932
ag1500
a(lp1505
g1473
ag1500
aaa(lp1506
I1924
aI1932
ag1500
a(lp1507
g1464
ag1500
aaa(lp1508
I1937
aI1943
aS'looking'
p1509
a(lp1510
g1500
ag1509
aaa(lp1511
I1937
aI1943
ag1509
a(lp1512
g1491
ag1509
aaa(lp1513
I1937
aI1943
ag1509
a(lp1514
g1482
ag1509
aaa(lp1515
I1937
aI1943
ag1509
a(lp1516
g1473
ag1509
aaa(lp1517
I1945
aI1956
aS'professional'
p1518
a(lp1519
g1509
ag1518
aaa(lp1520
I1945
aI1956
ag1518
a(lp1521
g1500
ag1518
aaa(lp1522
I1945
aI1956
ag1518
a(lp1523
g1491
ag1518
aaa(lp1524
I1945
aI1956
ag1518
a(lp1525
g1482
ag1518
aaa(lp1526
I1962
aI1972
aS'presentable'
p1527
a(lp1528
g1518
ag1527
aaa(lp1529
I1962
aI1972
ag1527
a(lp1530
g1509
ag1527
aaa(lp1531
I1962
aI1972
ag1527
a(lp1532
g1500
ag1527
aaa(lp1533
I1962
aI1972
ag1527
a(lp1534
g1491
ag1527
aaa(lp1535
I1980
aI1986
aS'article'
p1536
a(lp1537
g1527
ag1536
aaa(lp1538
I1980
aI1986
ag1536
a(lp1539
g1518
ag1536
aaa(lp1540
I1980
aI1986
ag1536
a(lp1541
g1509
ag1536
aaa(lp1542
I1980
aI1986
ag1536
a(lp1543
g1500
ag1536
aaa(lp1544
I1988
aI1992
aS'would'
p1545
a(lp1546
g1536
ag1545
aaa(lp1547
I1988
aI1992
ag1545
a(lp1548
g1527
ag1545
aaa(lp1549
I1988
aI1992
ag1545
a(lp1550
g1518
ag1545
aaa(lp1551
I1988
aI1992
ag1545
a(lp1552
g1509
ag1545
aaa(lp1553
I1994
aI2003
aS'definitely'
p1554
a(lp1555
g1545
ag1554
aaa(lp1556
I1994
aI2003
ag1554
a(lp1557
g1536
ag1554
aaa(lp1558
I1994
aI2003
ag1554
a(lp1559
g1527
ag1554
aaa(lp1560
I1994
aI2003
ag1554
a(lp1561
g1518
ag1554
aaa(lp1562
I2010
aI2016
aS'benefit'
p1563
a(lp1564
g1554
ag1563
aaa(lp1565
I2010
aI2016
ag1563
a(lp1566
g1545
ag1563
aaa(lp1567
I2010
aI2016
ag1563
a(lp1568
g1536
ag1563
aaa(lp1569
I2010
aI2016
ag1563
a(lp1570
g1527
ag1563
aaa(lp1571
I2036
aI2044
aS'preparing'
p1572
a(lp1573
g1563
ag1572
aaa(lp1574
I2036
aI2044
ag1572
a(lp1575
g1554
ag1572
aaa(lp1576
I2036
aI2044
ag1572
a(lp1577
g1545
ag1572
aaa(lp1578
I2036
aI2044
ag1572
a(lp1579
g1536
ag1572
aaa(lp1580
I2052
aI2054
aS'job'
p1581
a(lp1582
g1572
ag1581
aaa(lp1583
I2052
aI2054
ag1581
a(lp1584
g1563
ag1581
aaa(lp1585
I2052
aI2054
ag1581
a(lp1586
g1554
ag1581
aaa(lp1587
I2052
aI2054
ag1581
a(lp1588
g1545
ag1581
aaa(lp1589
I2056
aI2064
aS'interview'
p1590
a(lp1591
g1581
ag1590
aaa(lp1592
I2056
aI2064
ag1590
a(lp1593
g1572
ag1590
aaa(lp1594
I2056
aI2064
ag1590
a(lp1595
g1563
ag1590
aaa(lp1596
I2056
aI2064
ag1590
a(lp1597
g1554
ag1590
aaa(lp1598
I2087
aI2090
aS'idea'
p1599
a(lp1600
g1590
ag1599
aaa(lp1601
I2087
aI2090
ag1599
a(lp1602
g1581
ag1599
aaa(lp1603
I2087
aI2090
ag1599
a(lp1604
g1572
ag1599
aaa(lp1605
I2087
aI2090
ag1599
a(lp1606
g1563
ag1599
aaa(lp1607
I2116
aI2118
aS'job'
p1608
a(lp1609
g1599
ag1608
aaa(lp1610
I2116
aI2118
ag1608
a(lp1611
g1590
ag1608
aaa(lp1612
I2116
aI2118
ag1608
a(lp1613
g1581
ag1608
aaa(lp1614
I2116
aI2118
ag1608
a(lp1615
g1572
ag1608
aaa(lp1616
I2120
aI2128
aS'interview'
p1617
a(lp1618
g1608
ag1617
aaa(lp1619
I2120
aI2128
ag1617
a(lp1620
g1599
ag1617
aaa(lp1621
I2120
aI2128
ag1617
a(lp1622
g1590
ag1617
aaa(lp1623
I2120
aI2128
ag1617
a(lp1624
g1581
ag1617
aaa(lp1625
I2134
aI2141
aS'comments'
p1626
a(lp1627
g1617
ag1626
aaa(lp1628
I2134
aI2141
ag1626
a(lp1629
g1608
ag1626
aaa(lp1630
I2134
aI2141
ag1626
a(lp1631
g1599
ag1626
aaa(lp1632
I2134
aI2141
ag1626
a(lp1633
g1590
ag1626
aaa(lp1634
I2134
aI2141
aS'\xbb'
p1635
a(lp1636
g1626
ag1635
aaa(lp1637
I2134
aI2141
ag1635
a(lp1638
g1617
ag1635
aaa(lp1639
I2134
aI2141
ag1635
a(lp1640
g1608
ag1635
aaa(lp1641
I2134
aI2141
ag1635
a(lp1642
g1599
ag1635
aaasS'wordMap'
p1643
(lp1644
(lp1645
I0
aI3
aS'what'
p1646
a(lp1647
(lp1648
I0
aS'w'
p1649
aa(lp1650
I1
aS'h'
p1651
aa(lp1652
I2
aS'a'
p1653
aa(lp1654
I3
aS't'
p1655
aaaa(lp1656
I5
aI10
aS'should'
p1657
a(lp1658
(lp1659
I5
aS's'
p1660
aa(lp1661
I6
ag1651
aa(lp1662
I7
aS'o'
p1663
aa(lp1664
I8
aS'u'
p1665
aa(lp1666
I9
aS'l'
p1667
aa(lp1668
I10
aS'd'
p1669
aaaa(lp1670
I12
aI12
aS'i'
p1671
a(lp1672
(lp1673
I12
ag1671
aaaa(lp1674
I14
aI16
aS'not'
p1675
a(lp1676
(lp1677
I14
aS'n'
p1678
aa(lp1679
I15
ag1663
aa(lp1680
I16
ag1655
aaaa(lp1681
I18
aI21
ag5
a(lp1682
(lp1683
I18
ag1649
aa(lp1684
I19
aS'e'
p1685
aa(lp1686
I20
ag1653
aa(lp1687
I21
aS'r'
p1688
aaaa(lp1689
I23
aI24
aS'to'
p1690
a(lp1691
(lp1692
I23
ag1655
aa(lp1693
I24
ag1663
aaaa(lp1694
I26
aI26
ag1653
a(lp1695
(lp1696
I26
ag1653
aaaa(lp1697
I28
aI30
ag15
a(lp1698
(lp1699
I28
aS'j'
p1700
aa(lp1701
I29
ag1663
aa(lp1702
I30
aS'b'
p1703
aaaa(lp1704
I32
aI40
ag24
a(lp1705
(lp1706
I32
ag1671
aa(lp1707
I33
ag1678
aa(lp1708
I34
ag1655
aa(lp1709
I35
ag1685
aa(lp1710
I36
ag1688
aa(lp1711
I37
aS'v'
p1712
aa(lp1713
I38
ag1671
aa(lp1714
I39
ag1685
aa(lp1715
I40
ag1649
aaaa(lp1716
I43
aI48
ag33
a(lp1717
(lp1718
I43
aS'p'
p1719
aa(lp1720
I44
ag1663
aa(lp1721
I45
ag1660
aa(lp1722
I46
ag1655
aa(lp1723
I47
ag1685
aa(lp1724
I48
ag1669
aaaa(lp1725
I50
aI51
aS'by'
p1726
a(lp1727
(lp1728
I50
ag1703
aa(lp1729
I51
aS'y'
p1730
aaaa(lp1731
I53
aI54
ag42
a(lp1732
(lp1733
I53
ag1651
aa(lp1734
I54
ag1688
aaaa(lp1735
I60
aI68
ag51
a(lp1736
(lp1737
I60
ag1719
aa(lp1738
I61
ag1688
aa(lp1739
I62
ag1685
aa(lp1740
I63
ag1719
aa(lp1741
I64
ag1653
aa(lp1742
I65
ag1688
aa(lp1743
I66
ag1671
aa(lp1744
I67
ag1678
aa(lp1745
I68
aS'g'
p1746
aaaa(lp1747
I70
aI72
aS'for'
p1748
a(lp1749
(lp1750
I70
aS'f'
p1751
aa(lp1752
I71
ag1663
aa(lp1753
I72
ag1688
aaaa(lp1754
I74
aI74
ag1653
a(lp1755
(lp1756
I74
ag1653
aaaa(lp1757
I76
aI78
ag60
a(lp1758
(lp1759
I76
ag1700
aa(lp1760
I77
ag1663
aa(lp1761
I78
ag1703
aaaa(lp1762
I80
aI88
ag69
a(lp1763
(lp1764
I80
ag1671
aa(lp1765
I81
ag1678
aa(lp1766
I82
ag1655
aa(lp1767
I83
ag1685
aa(lp1768
I84
ag1688
aa(lp1769
I85
ag1712
aa(lp1770
I86
ag1671
aa(lp1771
I87
ag1685
aa(lp1772
I88
ag1649
aaaa(lp1773
I90
aI93
aS'when'
p1774
a(lp1775
(lp1776
I90
ag1649
aa(lp1777
I91
ag1651
aa(lp1778
I92
ag1685
aa(lp1779
I93
ag1678
aaaa(lp1780
I95
aI97
aS'you'
p1781
a(lp1782
(lp1783
I95
ag1730
aa(lp1784
I96
ag1663
aa(lp1785
I97
ag1665
aaaa(lp1786
I99
aI101
aS'are'
p1787
a(lp1788
(lp1789
I99
ag1653
aa(lp1790
I100
ag1688
aa(lp1791
I101
ag1685
aaaa(lp1792
I103
aI111
ag78
a(lp1793
(lp1794
I103
ag1719
aa(lp1795
I104
ag1688
aa(lp1796
I105
ag1685
aa(lp1797
I106
ag1719
aa(lp1798
I107
ag1653
aa(lp1799
I108
ag1688
aa(lp1800
I109
ag1671
aa(lp1801
I110
ag1678
aa(lp1802
I111
ag1746
aaaa(lp1803
I113
aI115
aS'for'
p1804
a(lp1805
(lp1806
I113
ag1751
aa(lp1807
I114
ag1663
aa(lp1808
I115
ag1688
aaaa(lp1809
I117
aI117
ag1653
a(lp1810
(lp1811
I117
ag1653
aaaa(lp1812
I119
aI121
ag87
a(lp1813
(lp1814
I119
ag1700
aa(lp1815
I120
ag1663
aa(lp1816
I121
ag1703
aaaa(lp1817
I123
aI131
ag96
a(lp1818
(lp1819
I123
ag1671
aa(lp1820
I124
ag1678
aa(lp1821
I125
ag1655
aa(lp1822
I126
ag1685
aa(lp1823
I127
ag1688
aa(lp1824
I128
ag1712
aa(lp1825
I129
ag1671
aa(lp1826
I130
ag1685
aa(lp1827
I131
ag1649
aaaa(lp1828
I133
aI135
aS'you'
p1829
a(lp1830
(lp1831
I133
ag1730
aa(lp1832
I134
ag1663
aa(lp1833
I135
ag1665
aaaa(lp1834
I137
aI140
ag105
a(lp1835
(lp1836
I137
ag1678
aa(lp1837
I138
ag1685
aa(lp1838
I139
ag1685
aa(lp1839
I140
ag1669
aaaa(lp1840
I142
aI143
aS'to'
p1841
a(lp1842
(lp1843
I142
ag1655
aa(lp1844
I143
ag1663
aaaa(lp1845
I145
aI152
ag114
a(lp1846
(lp1847
I145
ag1688
aa(lp1848
I146
ag1685
aa(lp1849
I147
aS'm'
p1850
aa(lp1851
I148
ag1685
aa(lp1852
I149
ag1850
aa(lp1853
I150
ag1703
aa(lp1854
I151
ag1685
aa(lp1855
I152
ag1688
aaaa(lp1856
I154
aI157
aS'that'
p1857
a(lp1858
(lp1859
I154
ag1655
aa(lp1860
I155
ag1651
aa(lp1861
I156
ag1653
aa(lp1862
I157
ag1655
aaaa(lp1863
I159
aI161
aS'the'
p1864
a(lp1865
(lp1866
I159
ag1655
aa(lp1867
I160
ag1651
aa(lp1868
I161
ag1685
aaaa(lp1869
I163
aI165
ag123
a(lp1870
(lp1871
I163
ag1649
aa(lp1872
I164
ag1653
aa(lp1873
I165
ag1730
aaaa(lp1874
I167
aI169
aS'you'
p1875
a(lp1876
(lp1877
I167
ag1730
aa(lp1878
I168
ag1663
aa(lp1879
I169
ag1665
aaaa(lp1880
I171
aI175
ag132
a(lp1881
(lp1882
I171
ag1669
aa(lp1883
I172
ag1688
aa(lp1884
I173
ag1685
aa(lp1885
I174
ag1660
aa(lp1886
I175
ag1660
aaaa(lp1887
I177
aI179
aS'can'
p1888
a(lp1889
(lp1890
I177
aS'c'
p1891
aa(lp1892
I178
ag1653
aa(lp1893
I179
ag1678
aaaa(lp1894
I181
aI184
ag141
a(lp1895
(lp1896
I181
ag1850
aa(lp1897
I182
ag1653
aa(lp1898
I183
aS'k'
p1899
aa(lp1900
I184
ag1685
aaaa(lp1901
I186
aI187
aS'or'
p1902
a(lp1903
(lp1904
I186
ag1663
aa(lp1905
I187
ag1688
aaaa(lp1906
I189
aI193
ag150
a(lp1907
(lp1908
I189
ag1703
aa(lp1909
I190
ag1688
aa(lp1910
I191
ag1685
aa(lp1911
I192
ag1653
aa(lp1912
I193
ag1899
aaaa(lp1913
I195
aI197
aS'you'
p1914
a(lp1915
(lp1916
I195
ag1730
aa(lp1917
I196
ag1663
aa(lp1918
I197
ag1665
aaaa(lp1919
I200
aI205
ag159
a(lp1920
(lp1921
I200
ag1719
aa(lp1922
I201
ag1685
aa(lp1923
I202
ag1663
aa(lp1924
I203
ag1719
aa(lp1925
I204
ag1667
aa(lp1926
I205
ag1685
aaaa(lp1927
I207
aI210
ag168
a(lp1928
(lp1929
I207
ag1678
aa(lp1930
I208
ag1685
aa(lp1931
I209
ag1685
aa(lp1932
I210
ag1669
aaaa(lp1933
I212
aI218
ag177
a(lp1934
(lp1935
I212
ag1891
aa(lp1936
I213
ag1667
aa(lp1937
I214
ag1663
aa(lp1938
I215
ag1655
aa(lp1939
I216
ag1651
aa(lp1940
I217
ag1685
aa(lp1941
I218
ag1660
aaaa(lp1942
I221
aI223
aS'but'
p1943
a(lp1944
(lp1945
I221
ag1703
aa(lp1946
I222
ag1665
aa(lp1947
I223
ag1655
aaaa(lp1948
I225
aI228
aS'more'
p1949
a(lp1950
(lp1951
I225
ag1850
aa(lp1952
I226
ag1663
aa(lp1953
I227
ag1688
aa(lp1954
I228
ag1685
aaaa(lp1955
I230
aI233
aS'than'
p1956
a(lp1957
(lp1958
I230
ag1655
aa(lp1959
I231
ag1651
aa(lp1960
I232
ag1653
aa(lp1961
I233
ag1678
aaaa(lp1962
I235
aI237
aS'the'
p1963
a(lp1964
(lp1965
I235
ag1655
aa(lp1966
I236
ag1651
aa(lp1967
I237
ag1685
aaaa(lp1968
I239
aI247
ag186
a(lp1969
(lp1970
I239
ag1678
aa(lp1971
I240
ag1685
aa(lp1972
I241
ag1891
aa(lp1973
I242
ag1685
aa(lp1974
I243
ag1660
aa(lp1975
I244
ag1660
aa(lp1976
I245
ag1671
aa(lp1977
I246
ag1655
aa(lp1978
I247
ag1730
aaaa(lp1979
I250
aI251
aS'it'
p1980
a(lp1981
(lp1982
I250
ag1671
aa(lp1983
I251
ag1655
aaaa(lp1984
I253
aI255
aS'can'
p1985
a(lp1986
(lp1987
I253
ag1891
aa(lp1988
I254
ag1653
aa(lp1989
I255
ag1678
aaaa(lp1990
I257
aI259
aS'not'
p1991
a(lp1992
(lp1993
I257
ag1678
aa(lp1994
I258
ag1663
aa(lp1995
I259
ag1655
aaaa(lp1996
I261
aI262
aS'be'
p1997
a(lp1998
(lp1999
I261
ag1703
aa(lp2000
I262
ag1685
aaaa(lp2001
I264
aI269
ag195
a(lp2002
(lp2003
I264
ag1669
aa(lp2004
I265
ag1685
aa(lp2005
I266
ag1678
aa(lp2006
I267
ag1671
aa(lp2007
I268
ag1685
aa(lp2008
I269
ag1669
aaaa(lp2009
I271
aI274
aS'that'
p2010
a(lp2011
(lp2012
I271
ag1655
aa(lp2013
I272
ag1651
aa(lp2014
I273
ag1653
aa(lp2015
I274
ag1655
aaaa(lp2016
I276
aI280
aS'those'
p2017
a(lp2018
(lp2019
I276
ag1655
aa(lp2020
I277
ag1651
aa(lp2021
I278
ag1663
aa(lp2022
I279
ag1660
aa(lp2023
I280
ag1685
aaaa(lp2024
I282
aI284
aS'who'
p2025
a(lp2026
(lp2027
I282
ag1649
aa(lp2028
I283
ag1651
aa(lp2029
I284
ag1663
aaaa(lp2030
I286
aI289
ag204
a(lp2031
(lp2032
I286
ag1899
aa(lp2033
I287
ag1678
aa(lp2034
I288
ag1663
aa(lp2035
I289
ag1649
aaaa(lp2036
I291
aI293
aS'how'
p2037
a(lp2038
(lp2039
I291
ag1651
aa(lp2040
I292
ag1663
aa(lp2041
I293
ag1649
aaaa(lp2042
I295
aI296
aS'to'
p2043
a(lp2044
(lp2045
I295
ag1655
aa(lp2046
I296
ag1663
aaaa(lp2047
I298
aI302
ag213
a(lp2048
(lp2049
I298
ag1669
aa(lp2050
I299
ag1688
aa(lp2051
I300
ag1685
aa(lp2052
I301
ag1660
aa(lp2053
I302
ag1660
aaaa(lp2054
I304
aI307
ag222
a(lp2055
(lp2056
I304
ag1649
aa(lp2057
I305
ag1685
aa(lp2058
I306
ag1667
aa(lp2059
I307
ag1667
aaaa(lp2060
I310
aI312
aS'for'
p2061
a(lp2062
(lp2063
I310
ag1751
aa(lp2064
I311
ag1663
aa(lp2065
I312
ag1688
aaaa(lp2066
I314
aI319
ag231
a(lp2067
(lp2068
I314
ag1685
aa(lp2069
I315
ag1671
aa(lp2070
I316
ag1655
aa(lp2071
I317
ag1651
aa(lp2072
I318
ag1685
aa(lp2073
I319
ag1688
aaaa(lp2074
I321
aI322
aS'an'
p2075
a(lp2076
(lp2077
I321
ag1653
aa(lp2078
I322
ag1678
aaaa(lp2079
I324
aI331
ag240
a(lp2080
(lp2081
I324
ag1663
aa(lp2082
I325
ag1688
aa(lp2083
I326
ag1669
aa(lp2084
I327
ag1671
aa(lp2085
I328
ag1678
aa(lp2086
I329
ag1653
aa(lp2087
I330
ag1688
aa(lp2088
I331
ag1730
aaaa(lp2089
I333
aI335
ag249
a(lp2090
(lp2091
I333
ag1669
aa(lp2092
I334
ag1653
aa(lp2093
I335
ag1730
aaaa(lp2094
I337
aI338
aS'or'
p2095
a(lp2096
(lp2097
I337
ag1663
aa(lp2098
I338
ag1688
aaaa(lp2099
I340
aI340
ag1653
a(lp2100
(lp2101
I340
ag1653
aaaa(lp2102
I342
aI348
ag258
a(lp2103
(lp2104
I342
ag1660
aa(lp2105
I343
ag1719
aa(lp2106
I344
ag1685
aa(lp2107
I345
ag1891
aa(lp2108
I346
ag1671
aa(lp2109
I347
ag1653
aa(lp2110
I348
ag1667
aaaa(lp2111
I350
aI357
ag267
a(lp2112
(lp2113
I350
ag1663
aa(lp2114
I351
ag1891
aa(lp2115
I352
ag1891
aa(lp2116
I353
ag1653
aa(lp2117
I354
ag1660
aa(lp2118
I355
ag1671
aa(lp2119
I356
ag1663
aa(lp2120
I357
ag1678
aaaa(lp2121
I359
aI362
aS'will'
p2122
a(lp2123
(lp2124
I359
ag1649
aa(lp2125
I360
ag1671
aa(lp2126
I361
ag1667
aa(lp2127
I362
ag1667
aaaa(lp2128
I364
aI369
ag276
a(lp2129
(lp2130
I364
ag1891
aa(lp2131
I365
ag1688
aa(lp2132
I366
ag1685
aa(lp2133
I367
ag1653
aa(lp2134
I368
ag1655
aa(lp2135
I369
ag1685
aaaa(lp2136
I371
aI381
ag285
a(lp2137
(lp2138
I371
ag1671
aa(lp2139
I372
ag1850
aa(lp2140
I373
ag1719
aa(lp2141
I374
ag1688
aa(lp2142
I375
ag1685
aa(lp2143
I376
ag1660
aa(lp2144
I377
ag1660
aa(lp2145
I378
ag1671
aa(lp2146
I379
ag1663
aa(lp2147
I380
ag1678
aa(lp2148
I381
ag1660
aaaa(lp2149
I383
aI386
aS'that'
p2150
a(lp2151
(lp2152
I383
ag1655
aa(lp2153
I384
ag1651
aa(lp2154
I385
ag1653
aa(lp2155
I386
ag1655
aaaa(lp2156
I388
aI390
aS'are'
p2157
a(lp2158
(lp2159
I388
ag1653
aa(lp2160
I389
ag1688
aa(lp2161
I390
ag1685
aaaa(lp2162
I392
aI399
ag294
a(lp2163
(lp2164
I392
ag1719
aa(lp2165
I393
ag1663
aa(lp2166
I394
ag1660
aa(lp2167
I395
ag1671
aa(lp2168
I396
ag1655
aa(lp2169
I397
ag1671
aa(lp2170
I398
ag1712
aa(lp2171
I399
ag1685
aaaa(lp2172
I402
aI404
aS'for'
p2173
a(lp2174
(lp2175
I402
ag1751
aa(lp2176
I403
ag1663
aa(lp2177
I404
ag1688
aaaa(lp2178
I406
aI407
ag303
a(lp2179
(lp2180
I406
ag1665
aa(lp2181
I407
ag1660
aaaa(lp2182
I409
aI410
aS'to'
p2183
a(lp2184
(lp2185
I409
ag1655
aa(lp2186
I410
ag1663
aaaa(lp2187
I412
aI415
ag312
a(lp2188
(lp2189
I412
ag1891
aa(lp2190
I413
ag1663
aa(lp2191
I414
ag1850
aa(lp2192
I415
ag1685
aaaa(lp2193
I417
aI418
aS'up'
p2194
a(lp2195
(lp2196
I417
ag1665
aa(lp2197
I418
ag1719
aaaa(lp2198
I420
aI423
aS'with'
p2199
a(lp2200
(lp2201
I420
ag1649
aa(lp2202
I421
ag1671
aa(lp2203
I422
ag1655
aa(lp2204
I423
ag1651
aaaa(lp2205
I425
aI427
aS'the'
p2206
a(lp2207
(lp2208
I425
ag1655
aa(lp2209
I426
ag1651
aa(lp2210
I427
ag1685
aaaa(lp2211
I429
aI434
ag321
a(lp2212
(lp2213
I429
ag1655
aa(lp2214
I430
ag1651
aa(lp2215
I431
ag1671
aa(lp2216
I432
ag1678
aa(lp2217
I433
ag1746
aa(lp2218
I434
ag1660
aaaa(lp2219
I436
aI438
aS'you'
p2220
a(lp2221
(lp2222
I436
ag1730
aa(lp2223
I437
ag1663
aa(lp2224
I438
ag1665
aaaa(lp2225
I440
aI443
aS'have'
p2226
a(lp2227
(lp2228
I440
ag1651
aa(lp2229
I441
ag1653
aa(lp2230
I442
ag1712
aa(lp2231
I443
ag1685
aaaa(lp2232
I445
aI446
aS'to'
p2233
a(lp2234
(lp2235
I445
ag1655
aa(lp2236
I446
ag1663
aaaa(lp2237
I448
aI453
ag330
a(lp2238
(lp2239
I448
ag1688
aa(lp2240
I449
ag1685
aa(lp2241
I450
ag1850
aa(lp2242
I451
ag1671
aa(lp2243
I452
ag1678
aa(lp2244
I453
ag1669
aaaa(lp2245
I455
aI458
aS'your'
p2246
a(lp2247
(lp2248
I455
ag1730
aa(lp2249
I456
ag1663
aa(lp2250
I457
ag1665
aa(lp2251
I458
ag1688
aaaa(lp2252
I460
aI463
ag339
a(lp2253
(lp2254
I460
ag1660
aa(lp2255
I461
ag1685
aa(lp2256
I462
ag1667
aa(lp2257
I463
ag1751
aaaa(lp2258
I465
aI470
aS'before'
p2259
a(lp2260
(lp2261
I465
ag1703
aa(lp2262
I466
ag1685
aa(lp2263
I467
ag1751
aa(lp2264
I468
ag1663
aa(lp2265
I469
ag1688
aa(lp2266
I470
ag1685
aaaa(lp2267
I472
aI477
ag348
a(lp2268
(lp2269
I472
ag1751
aa(lp2270
I473
ag1653
aa(lp2271
I474
ag1891
aa(lp2272
I475
ag1671
aa(lp2273
I476
ag1678
aa(lp2274
I477
ag1746
aaaa(lp2275
I479
aI482
aS'your'
p2276
a(lp2277
(lp2278
I479
ag1730
aa(lp2279
I480
ag1663
aa(lp2280
I481
ag1665
aa(lp2281
I482
ag1688
aaaa(lp2282
I484
aI494
ag357
a(lp2283
(lp2284
I484
ag1671
aa(lp2285
I485
ag1678
aa(lp2286
I486
ag1655
aa(lp2287
I487
ag1685
aa(lp2288
I488
ag1688
aa(lp2289
I489
ag1712
aa(lp2290
I490
ag1671
aa(lp2291
I491
ag1685
aa(lp2292
I492
ag1649
aa(lp2293
I493
ag1685
aa(lp2294
I494
ag1688
aaaa(lp2295
I497
aI499
ag366
a(lp2296
(lp2297
I497
ag1667
aa(lp2298
I498
ag1685
aa(lp2299
I499
ag1655
aaaa(lp2300
I501
aI502
ag375
a(lp2301
(lp2302
I501
ag1665
aa(lp2303
I502
ag1660
aaaa(lp2304
I504
aI511
ag384
a(lp2305
(lp2306
I504
ag1671
aa(lp2307
I505
ag1669
aa(lp2308
I506
ag1685
aa(lp2309
I507
ag1678
aa(lp2310
I508
ag1655
aa(lp2311
I509
ag1671
aa(lp2312
I510
ag1751
aa(lp2313
I511
ag1730
aaaa(lp2314
I513
aI517
aS'those'
p2315
a(lp2316
(lp2317
I513
ag1655
aa(lp2318
I514
ag1651
aa(lp2319
I515
ag1663
aa(lp2320
I516
ag1660
aa(lp2321
I517
ag1685
aaaa(lp2322
I519
aI525
ag393
a(lp2323
(lp2324
I519
ag1891
aa(lp2325
I520
ag1667
aa(lp2326
I521
ag1663
aa(lp2327
I522
ag1655
aa(lp2328
I523
ag1651
aa(lp2329
I524
ag1685
aa(lp2330
I525
ag1660
aaaa(lp2331
I528
aI530
aS'and'
p2332
a(lp2333
(lp2334
I528
ag1653
aa(lp2335
I529
ag1678
aa(lp2336
I530
ag1669
aaaa(lp2337
I532
aI535
ag402
a(lp2338
(lp2339
I532
ag1685
aa(lp2340
I533
ag1712
aa(lp2341
I534
ag1685
aa(lp2342
I535
ag1678
aaaa(lp2343
I537
aI547
ag411
a(lp2344
(lp2345
I537
ag1653
aa(lp2346
I538
ag1891
aa(lp2347
I539
ag1891
aa(lp2348
I540
ag1685
aa(lp2349
I541
ag1660
aa(lp2350
I542
ag1660
aa(lp2351
I543
ag1663
aa(lp2352
I544
ag1688
aa(lp2353
I545
ag1671
aa(lp2354
I546
ag1685
aa(lp2355
I547
ag1660
aaaa(lp2356
I549
aI552
aS'that'
p2357
a(lp2358
(lp2359
I549
ag1655
aa(lp2360
I550
ag1651
aa(lp2361
I551
ag1653
aa(lp2362
I552
ag1655
aaaa(lp2363
I554
aI558
ag420
a(lp2364
(lp2365
I554
ag1649
aa(lp2366
I555
ag1663
aa(lp2367
I556
ag1665
aa(lp2368
I557
ag1667
aa(lp2369
I558
ag1669
aaaa(lp2370
I560
aI562
aS'not'
p2371
a(lp2372
(lp2373
I560
ag1678
aa(lp2374
I561
ag1663
aa(lp2375
I562
ag1655
aaaa(lp2376
I564
aI565
aS'be'
p2377
a(lp2378
(lp2379
I564
ag1703
aa(lp2380
I565
ag1685
aaaa(lp2381
I567
aI576
ag429
a(lp2382
(lp2383
I567
ag1751
aa(lp2384
I568
ag1667
aa(lp2385
I569
ag1653
aa(lp2386
I570
ag1655
aa(lp2387
I571
ag1655
aa(lp2388
I572
ag1685
aa(lp2389
I573
ag1688
aa(lp2390
I574
ag1671
aa(lp2391
I575
ag1678
aa(lp2392
I576
ag1746
aaaa(lp2393
I578
aI579
aS'at'
p2394
a(lp2395
(lp2396
I578
ag1653
aa(lp2397
I579
ag1655
aaaa(lp2398
I581
aI583
aS'all'
p2399
a(lp2400
(lp2401
I581
ag1653
aa(lp2402
I582
ag1667
aa(lp2403
I583
ag1667
aaaa(lp2404
I586
aI589
ag438
a(lp2405
(lp2406
I586
ag1649
aa(lp2407
I587
ag1671
aa(lp2408
I588
ag1667
aa(lp2409
I589
ag1669
aaaa(lp2410
I591
aI596
ag447
a(lp2411
(lp2412
I591
ag1891
aa(lp2413
I592
ag1663
aa(lp2414
I593
ag1667
aa(lp2415
I594
ag1663
aa(lp2416
I595
ag1688
aa(lp2417
I596
ag1660
aaaa(lp2418
I598
aI600
aS'are'
p2419
a(lp2420
(lp2421
I598
ag1653
aa(lp2422
I599
ag1688
aa(lp2423
I600
ag1685
aaaa(lp2424
I602
aI604
aS'not'
p2425
a(lp2426
(lp2427
I602
ag1678
aa(lp2428
I603
ag1663
aa(lp2429
I604
ag1655
aaaa(lp2430
I606
aI608
ag456
a(lp2431
(lp2432
I606
ag1651
aa(lp2433
I607
ag1663
aa(lp2434
I608
ag1655
aaaa(lp2435
I611
aI613
aS'you'
p2436
a(lp2437
(lp2438
I611
ag1730
aa(lp2439
I612
ag1663
aa(lp2440
I613
ag1665
aaaa(lp2441
I615
aI619
ag465
a(lp2442
(lp2443
I615
ag1891
aa(lp2444
I616
ag1663
aa(lp2445
I617
ag1665
aa(lp2446
I618
ag1667
aa(lp2447
I619
ag1669
aaaa(lp2448
I621
aI622
aS'be'
p2449
a(lp2450
(lp2451
I621
ag1703
aa(lp2452
I622
ag1685
aaaa(lp2453
I624
aI626
aS'the'
p2454
a(lp2455
(lp2456
I624
ag1655
aa(lp2457
I625
ag1651
aa(lp2458
I626
ag1685
aaaa(lp2459
I628
aI634
ag474
a(lp2460
(lp2461
I628
ag1651
aa(lp2462
I629
ag1663
aa(lp2463
I630
ag1655
aa(lp2464
I631
ag1655
aa(lp2465
I632
ag1685
aa(lp2466
I633
ag1660
aa(lp2467
I634
ag1655
aaaa(lp2468
I636
aI641
ag483
a(lp2469
(lp2470
I636
ag1719
aa(lp2471
I637
ag1685
aa(lp2472
I638
ag1688
aa(lp2473
I639
ag1660
aa(lp2474
I640
ag1663
aa(lp2475
I641
ag1678
aaaa(lp2476
I643
aI646
aS'with'
p2477
a(lp2478
(lp2479
I643
ag1649
aa(lp2480
I644
ag1671
aa(lp2481
I645
ag1655
aa(lp2482
I646
ag1651
aaaa(lp2483
I648
aI652
aS'those'
p2484
a(lp2485
(lp2486
I648
ag1655
aa(lp2487
I649
ag1651
aa(lp2488
I650
ag1663
aa(lp2489
I651
ag1660
aa(lp2490
I652
ag1685
aaaa(lp2491
I654
aI656
ag492
a(lp2492
(lp2493
I654
ag1688
aa(lp2494
I655
ag1685
aa(lp2495
I656
ag1669
aaaa(lp2496
I658
aI667
ag501
a(lp2497
(lp2498
I658
ag1655
aa(lp2499
I659
ag1663
aa(lp2500
I660
ag1719
aa(lp2501
I662
ag1655
aa(lp2502
I663
ag1663
aa(lp2503
I665
ag1655
aa(lp2504
I666
ag1663
aa(lp2505
I667
ag1685
aaaa(lp2506
I669
aI671
ag510
a(lp2507
(lp2508
I669
ag1746
aa(lp2509
I670
ag1685
aa(lp2510
I671
ag1655
aaaa(lp2511
I673
aI674
aS'up'
p2512
a(lp2513
(lp2514
I673
ag1665
aa(lp2515
I674
ag1719
aaaa(lp2516
I677
aI678
aS'as'
p2517
a(lp2518
(lp2519
I677
ag1653
aa(lp2520
I678
ag1660
aaaa(lp2521
I680
aI683
ag519
a(lp2522
(lp2523
I680
ag1850
aa(lp2524
I681
ag1665
aa(lp2525
I682
ag1891
aa(lp2526
I683
ag1651
aaaa(lp2527
I685
aI686
aS'as'
p2528
a(lp2529
(lp2530
I685
ag1653
aa(lp2531
I686
ag1660
aaaa(lp2532
I688
aI695
ag528
a(lp2533
(lp2534
I688
ag1719
aa(lp2535
I689
ag1663
aa(lp2536
I690
ag1660
aa(lp2537
I691
ag1660
aa(lp2538
I692
ag1671
aa(lp2539
I693
ag1703
aa(lp2540
I694
ag1667
aa(lp2541
I695
ag1685
aaaa(lp2542
I697
aI700
ag537
a(lp2543
(lp2544
I697
ag1649
aa(lp2545
I698
ag1685
aa(lp2546
I699
ag1653
aa(lp2547
I700
ag1688
aaaa(lp2548
I702
aI710
ag546
a(lp2549
(lp2550
I702
ag1660
aa(lp2551
I703
ag1663
aa(lp2552
I704
ag1850
aa(lp2553
I705
ag1685
aa(lp2554
I706
ag1655
aa(lp2555
I707
ag1651
aa(lp2556
I708
ag1671
aa(lp2557
I709
ag1678
aa(lp2558
I710
ag1746
aaaa(lp2559
I712
aI715
aS'that'
p2560
a(lp2561
(lp2562
I712
ag1655
aa(lp2563
I713
ag1651
aa(lp2564
I714
ag1653
aa(lp2565
I715
ag1655
aaaa(lp2566
I717
aI718
aS'is'
p2567
a(lp2568
(lp2569
I717
ag1671
aa(lp2570
I718
ag1660
aaaa(lp2571
I720
aI725
ag555
a(lp2572
(lp2573
I720
ag1660
aa(lp2574
I721
ag1665
aa(lp2575
I722
ag1703
aa(lp2576
I723
ag1655
aa(lp2577
I724
ag1667
aa(lp2578
I725
ag1685
aaaa(lp2579
I727
aI728
aS'in'
p2580
a(lp2581
(lp2582
I727
ag1671
aa(lp2583
I728
ag1678
aaaa(lp2584
I730
aI734
ag564
a(lp2585
(lp2586
I730
ag1891
aa(lp2587
I731
ag1663
aa(lp2588
I732
ag1667
aa(lp2589
I733
ag1663
aa(lp2590
I734
ag1688
aaaa(lp2591
I736
aI738
aS'but'
p2592
a(lp2593
(lp2594
I736
ag1703
aa(lp2595
I737
ag1665
aa(lp2596
I738
ag1655
aaaa(lp2597
I740
aI744
ag573
a(lp2598
(lp2599
I740
ag1649
aa(lp2600
I741
ag1663
aa(lp2601
I742
ag1665
aa(lp2602
I743
ag1667
aa(lp2603
I744
ag1669
aaaa(lp2604
I746
aI749
ag582
a(lp2605
(lp2606
I746
ag1850
aa(lp2607
I747
ag1653
aa(lp2608
I748
ag1899
aa(lp2609
I749
ag1685
aaaa(lp2610
I751
aI753
aS'you'
p2611
a(lp2612
(lp2613
I751
ag1730
aa(lp2614
I752
ag1663
aa(lp2615
I753
ag1665
aaaa(lp2616
I755
aI759
ag591
a(lp2617
(lp2618
I755
ag1667
aa(lp2619
I756
ag1663
aa(lp2620
I757
ag1663
aa(lp2621
I758
ag1899
aa(lp2622
I759
ag1660
aaaa(lp2623
I761
aI770
ag600
a(lp2624
(lp2625
I761
ag1751
aa(lp2626
I762
ag1667
aa(lp2627
I763
ag1653
aa(lp2628
I764
ag1655
aa(lp2629
I765
ag1655
aa(lp2630
I766
ag1685
aa(lp2631
I767
ag1688
aa(lp2632
I768
ag1671
aa(lp2633
I769
ag1678
aa(lp2634
I770
ag1746
aaaa(lp2635
I772
aI774
aS'but'
p2636
a(lp2637
(lp2638
I772
ag1703
aa(lp2639
I773
ag1665
aa(lp2640
I774
ag1655
aaaa(lp2641
I776
aI778
aS'not'
p2642
a(lp2643
(lp2644
I776
ag1678
aa(lp2645
I777
ag1663
aa(lp2646
I778
ag1655
aaaa(lp2647
I780
aI782
aS'too'
p2648
a(lp2649
(lp2650
I780
ag1655
aa(lp2651
I781
ag1663
aa(lp2652
I782
ag1663
aaaa(lp2653
I784
aI787
ag609
a(lp2654
(lp2655
I784
ag1667
aa(lp2656
I785
ag1663
aa(lp2657
I786
ag1665
aa(lp2658
I787
ag1669
aaaa(lp2659
I790
aI797
ag618
a(lp2660
(lp2661
I790
ag1688
aa(lp2662
I791
ag1685
aa(lp2663
I792
ag1850
aa(lp2664
I793
ag1685
aa(lp2665
I794
ag1850
aa(lp2666
I795
ag1703
aa(lp2667
I796
ag1685
aa(lp2668
I797
ag1688
aaaa(lp2669
I799
aI802
aS'that'
p2670
a(lp2671
(lp2672
I799
ag1655
aa(lp2673
I800
ag1651
aa(lp2674
I801
ag1653
aa(lp2675
I802
ag1655
aaaa(lp2676
I804
aI806
aS'you'
p2677
a(lp2678
(lp2679
I804
ag1730
aa(lp2680
I805
ag1663
aa(lp2681
I806
ag1665
aaaa(lp2682
I808
aI810
aS'are'
p2683
a(lp2684
(lp2685
I808
ag1653
aa(lp2686
I809
ag1688
aa(lp2687
I810
ag1685
aaaa(lp2688
I812
aI816
aS'there'
p2689
a(lp2690
(lp2691
I812
ag1655
aa(lp2692
I813
ag1651
aa(lp2693
I814
ag1685
aa(lp2694
I815
ag1688
aa(lp2695
I816
ag1685
aaaa(lp2696
I818
aI820
aS'for'
p2697
a(lp2698
(lp2699
I818
ag1751
aa(lp2700
I819
ag1663
aa(lp2701
I820
ag1688
aaaa(lp2702
I822
aI823
aS'an'
p2703
a(lp2704
(lp2705
I822
ag1653
aa(lp2706
I823
ag1678
aaaa(lp2707
I825
aI833
ag627
a(lp2708
(lp2709
I825
ag1671
aa(lp2710
I826
ag1678
aa(lp2711
I827
ag1655
aa(lp2712
I828
ag1685
aa(lp2713
I829
ag1688
aa(lp2714
I830
ag1712
aa(lp2715
I831
ag1671
aa(lp2716
I832
ag1685
aa(lp2717
I833
ag1649
aaaa(lp2718
I835
aI837
aS'and'
p2719
a(lp2720
(lp2721
I835
ag1653
aa(lp2722
I836
ag1678
aa(lp2723
I837
ag1669
aaaa(lp2724
I839
aI841
aS'not'
p2725
a(lp2726
(lp2727
I839
ag1678
aa(lp2728
I840
ag1663
aa(lp2729
I841
ag1655
aaaa(lp2730
I843
aI845
aS'for'
p2731
a(lp2732
(lp2733
I843
ag1751
aa(lp2734
I844
ag1663
aa(lp2735
I845
ag1688
aaaa(lp2736
I847
aI847
ag1653
a(lp2737
(lp2738
I847
ag1653
aaaa(lp2739
I849
aI853
ag636
a(lp2740
(lp2741
I849
ag1678
aa(lp2742
I850
ag1671
aa(lp2743
I851
ag1746
aa(lp2744
I852
ag1651
aa(lp2745
I853
ag1655
aaaa(lp2746
I855
aI857
aS'out'
p2747
a(lp2748
(lp2749
I855
ag1663
aa(lp2750
I856
ag1665
aa(lp2751
I857
ag1655
aaaa(lp2752
I860
aI861
aS'it'
p2753
a(lp2754
(lp2755
I860
ag1671
aa(lp2756
I861
ag1655
aaaa(lp2757
I863
aI864
aS'is'
p2758
a(lp2759
(lp2760
I863
ag1671
aa(lp2761
I864
ag1660
aaaa(lp2762
I866
aI868
aS'you'
p2763
a(lp2764
(lp2765
I866
ag1730
aa(lp2766
I867
ag1663
aa(lp2767
I868
ag1665
aaaa(lp2768
I871
aI873
aS'not'
p2769
a(lp2770
(lp2771
I871
ag1678
aa(lp2772
I872
ag1663
aa(lp2773
I873
ag1655
aaaa(lp2774
I875
aI878
aS'your'
p2775
a(lp2776
(lp2777
I875
ag1730
aa(lp2778
I876
ag1663
aa(lp2779
I877
ag1665
aa(lp2780
I878
ag1688
aaaa(lp2781
I880
aI882
ag645
a(lp2782
(lp2783
I880
ag1703
aa(lp2784
I881
ag1653
aa(lp2785
I882
ag1746
aaaa(lp2786
I885
aI888
aS'when'
p2787
a(lp2788
(lp2789
I885
ag1649
aa(lp2790
I886
ag1651
aa(lp2791
I887
ag1685
aa(lp2792
I888
ag1678
aaaa(lp2793
I890
aI892
aS'you'
p2794
a(lp2795
(lp2796
I890
ag1730
aa(lp2797
I891
ag1663
aa(lp2798
I892
ag1665
aaaa(lp2799
I894
aI896
aS'are'
p2800
a(lp2801
(lp2802
I894
ag1653
aa(lp2803
I895
ag1688
aa(lp2804
I896
ag1685
aaaa(lp2805
I898
aI900
aS'out'
p2806
a(lp2807
(lp2808
I898
ag1663
aa(lp2809
I899
ag1665
aa(lp2810
I900
ag1655
aaaa(lp2811
I902
aI904
aS'for'
p2812
a(lp2813
(lp2814
I902
ag1751
aa(lp2815
I903
ag1663
aa(lp2816
I904
ag1688
aaaa(lp2817
I906
aI906
ag1653
a(lp2818
(lp2819
I906
ag1653
aaaa(lp2820
I908
aI910
ag654
a(lp2821
(lp2822
I908
ag1700
aa(lp2823
I909
ag1663
aa(lp2824
I910
ag1703
aaaa(lp2825
I912
aI920
ag663
a(lp2826
(lp2827
I912
ag1671
aa(lp2828
I913
ag1678
aa(lp2829
I914
ag1655
aa(lp2830
I915
ag1685
aa(lp2831
I916
ag1688
aa(lp2832
I917
ag1712
aa(lp2833
I918
ag1671
aa(lp2834
I919
ag1685
aa(lp2835
I920
ag1649
aaaa(lp2836
I923
aI924
aS'do'
p2837
a(lp2838
(lp2839
I923
ag1669
aa(lp2840
I924
ag1663
aaaa(lp2841
I926
aI928
aS'not'
p2842
a(lp2843
(lp2844
I926
ag1678
aa(lp2845
I927
ag1663
aa(lp2846
I928
ag1655
aaaa(lp2847
I930
aI934
ag672
a(lp2848
(lp2849
I930
ag1703
aa(lp2850
I931
ag1688
aa(lp2851
I932
ag1671
aa(lp2852
I933
ag1678
aa(lp2853
I934
ag1746
aaaa(lp2854
I936
aI939
aS'with'
p2855
a(lp2856
(lp2857
I936
ag1649
aa(lp2858
I937
ag1671
aa(lp2859
I938
ag1655
aa(lp2860
I939
ag1651
aaaa(lp2861
I941
aI943
aS'you'
p2862
a(lp2863
(lp2864
I941
ag1730
aa(lp2865
I942
ag1663
aa(lp2866
I943
ag1665
aaaa(lp2867
I945
aI945
ag1653
a(lp2868
(lp2869
I945
ag1653
aaaa(lp2870
I947
aI953
ag681
a(lp2871
(lp2872
I947
ag1651
aa(lp2873
I948
ag1685
aa(lp2874
I949
ag1653
aa(lp2875
I950
ag1712
aa(lp2876
I951
ag1671
aa(lp2877
I952
ag1667
aa(lp2878
I953
ag1730
aaaa(lp2879
I955
aI961
ag690
a(lp2880
(lp2881
I955
ag1719
aa(lp2882
I956
ag1688
aa(lp2883
I957
ag1671
aa(lp2884
I958
ag1678
aa(lp2885
I959
ag1655
aa(lp2886
I960
ag1685
aa(lp2887
I961
ag1669
aaaa(lp2888
I963
aI965
ag699
a(lp2889
(lp2890
I963
ag1703
aa(lp2891
I964
ag1653
aa(lp2892
I965
ag1746
aaaa(lp2893
I968
aI973
ag708
a(lp2894
(lp2895
I968
ag1719
aa(lp2896
I969
ag1665
aa(lp2897
I970
ag1688
aa(lp2898
I971
ag1660
aa(lp2899
I972
ag1685
aa(lp2900
I973
ag1660
aaaa(lp2901
I975
aI977
aS'are'
p2902
a(lp2903
(lp2904
I975
ag1653
aa(lp2905
I976
ag1688
aa(lp2906
I977
ag1685
aaaa(lp2907
I979
aI984
ag717
a(lp2908
(lp2909
I979
ag1703
aa(lp2910
I980
ag1685
aa(lp2911
I981
ag1655
aa(lp2912
I982
ag1655
aa(lp2913
I983
ag1685
aa(lp2914
I984
ag1688
aaaa(lp2915
I986
aI992
ag726
a(lp2916
(lp2917
I986
ag1663
aa(lp2918
I987
ag1719
aa(lp2919
I988
ag1655
aa(lp2920
I989
ag1671
aa(lp2921
I990
ag1663
aa(lp2922
I991
ag1678
aa(lp2923
I992
ag1660
aaaa(lp2924
I994
aI996
aS'and'
p2925
a(lp2926
(lp2927
I994
ag1653
aa(lp2928
I995
ag1678
aa(lp2929
I996
ag1669
aaaa(lp2930
I998
aI1003
ag735
a(lp2931
(lp2932
I998
ag1719
aa(lp2933
I999
ag1667
aa(lp2934
I1000
ag1685
aa(lp2935
I1001
ag1653
aa(lp2936
I1002
ag1660
aa(lp2937
I1003
ag1685
aaaa(lp2938
I1005
aI1010
ag744
a(lp2939
(lp2940
I1005
ag1891
aa(lp2941
I1006
ag1651
aa(lp2942
I1007
ag1663
aa(lp2943
I1008
ag1663
aa(lp2944
I1009
ag1660
aa(lp2945
I1010
ag1685
aaaa(lp2946
I1012
aI1012
ag1653
a(lp2947
(lp2948
I1012
ag1653
aaaa(lp2949
I1014
aI1025
ag753
a(lp2950
(lp2951
I1014
ag1891
aa(lp2952
I1015
ag1663
aa(lp2953
I1016
ag1678
aa(lp2954
I1017
ag1660
aa(lp2955
I1018
ag1685
aa(lp2956
I1019
ag1688
aa(lp2957
I1020
ag1712
aa(lp2958
I1021
ag1653
aa(lp2959
I1022
ag1655
aa(lp2960
I1023
ag1671
aa(lp2961
I1024
ag1712
aa(lp2962
I1025
ag1685
aaaa(lp2963
I1027
aI1031
ag762
a(lp2964
(lp2965
I1027
ag1891
aa(lp2966
I1028
ag1663
aa(lp2967
I1029
ag1667
aa(lp2968
I1030
ag1663
aa(lp2969
I1031
ag1688
aaaa(lp2970
I1033
aI1036
aS'that'
p2971
a(lp2972
(lp2973
I1033
ag1655
aa(lp2974
I1034
ag1651
aa(lp2975
I1035
ag1653
aa(lp2976
I1036
ag1655
aaaa(lp2977
I1038
aI1042
ag771
a(lp2978
(lp2979
I1038
ag1891
aa(lp2980
I1039
ag1663
aa(lp2981
I1040
ag1665
aa(lp2982
I1041
ag1667
aa(lp2983
I1042
ag1669
aaaa(lp2984
I1044
aI1045
ag780
a(lp2985
(lp2986
I1044
ag1746
aa(lp2987
I1045
ag1663
aaaa(lp2988
I1047
aI1051
ag789
a(lp2989
(lp2990
I1047
ag1653
aa(lp2991
I1048
ag1667
aa(lp2992
I1049
ag1663
aa(lp2993
I1050
ag1678
aa(lp2994
I1051
ag1746
aaaa(lp2995
I1053
aI1056
aS'with'
p2996
a(lp2997
(lp2998
I1053
ag1649
aa(lp2999
I1054
ag1671
aa(lp3000
I1055
ag1655
aa(lp3001
I1056
ag1651
aaaa(lp3002
I1058
aI1061
aS'your'
p3003
a(lp3004
(lp3005
I1058
ag1730
aa(lp3006
I1059
ag1663
aa(lp3007
I1060
ag1665
aa(lp3008
I1061
ag1688
aaaa(lp3009
I1063
aI1067
ag798
a(lp3010
(lp3011
I1063
ag1669
aa(lp3012
I1064
ag1688
aa(lp3013
I1065
ag1685
aa(lp3014
I1066
ag1660
aa(lp3015
I1067
ag1660
aaaa(lp3016
I1070
aI1074
ag807
a(lp3017
(lp3018
I1070
ag1660
aa(lp3019
I1071
ag1651
aa(lp3020
I1072
ag1663
aa(lp3021
I1073
ag1688
aa(lp3022
I1074
ag1655
aaaa(lp3023
I1076
aI1080
ag816
a(lp3024
(lp3025
I1076
ag1660
aa(lp3026
I1077
ag1899
aa(lp3027
I1078
ag1671
aa(lp3028
I1079
ag1688
aa(lp3029
I1080
ag1655
aaaa(lp3030
I1083
aI1087
ag825
a(lp3031
(lp3032
I1083
ag1660
aa(lp3033
I1084
ag1651
aa(lp3034
I1085
ag1663
aa(lp3035
I1086
ag1688
aa(lp3036
I1087
ag1655
aaaa(lp3037
I1089
aI1094
ag834
a(lp3038
(lp3039
I1089
ag1891
aa(lp3040
I1090
ag1651
aa(lp3041
I1091
ag1653
aa(lp3042
I1092
ag1678
aa(lp3043
I1093
ag1891
aa(lp3044
I1094
ag1685
aaaa(lp3045
I1097
aI1101
ag843
a(lp3046
(lp3047
I1097
ag1678
aa(lp3048
I1098
ag1685
aa(lp3049
I1099
ag1712
aa(lp3050
I1100
ag1685
aa(lp3051
I1101
ag1688
aaaa(lp3052
I1103
aI1106
ag852
a(lp3053
(lp3054
I1103
ag1649
aa(lp3055
I1104
ag1685
aa(lp3056
I1105
ag1653
aa(lp3057
I1106
ag1688
aaaa(lp3058
I1108
aI1109
aS'an'
p3059
a(lp3060
(lp3061
I1108
ag1653
aa(lp3062
I1109
ag1678
aaaa(lp3063
I1111
aI1115
aS'above'
p3064
a(lp3065
(lp3066
I1111
ag1653
aa(lp3067
I1112
ag1703
aa(lp3068
I1113
ag1663
aa(lp3069
I1114
ag1712
aa(lp3070
I1115
ag1685
aaaa(lp3071
I1117
aI1119
aS'the'
p3072
a(lp3073
(lp3074
I1117
ag1655
aa(lp3075
I1118
ag1651
aa(lp3076
I1119
ag1685
aaaa(lp3077
I1121
aI1124
ag861
a(lp3078
(lp3079
I1121
ag1899
aa(lp3080
I1122
ag1678
aa(lp3081
I1123
ag1685
aa(lp3082
I1124
ag1685
aaaa(lp3083
I1126
aI1130
ag870
a(lp3084
(lp3085
I1126
ag1660
aa(lp3086
I1127
ag1899
aa(lp3087
I1128
ag1671
aa(lp3088
I1129
ag1688
aa(lp3089
I1130
ag1655
aaaa(lp3090
I1133
aI1136
aS'your'
p3091
a(lp3092
(lp3093
I1133
ag1730
aa(lp3094
I1134
ag1663
aa(lp3095
I1135
ag1665
aa(lp3096
I1136
ag1688
aaaa(lp3097
I1138
aI1141
ag879
a(lp3098
(lp3099
I1138
ag1667
aa(lp3100
I1139
ag1685
aa(lp3101
I1140
ag1746
aa(lp3102
I1141
ag1660
aaaa(lp3103
I1143
aI1145
ag888
a(lp3104
(lp3105
I1143
ag1850
aa(lp3106
I1144
ag1653
aa(lp3107
I1145
ag1730
aaaa(lp3108
I1147
aI1148
aS'be'
p3109
a(lp3110
(lp3111
I1147
ag1703
aa(lp3112
I1148
ag1685
aaaa(lp3113
I1150
aI1152
aS'the'
p3114
a(lp3115
(lp3116
I1150
ag1655
aa(lp3117
I1151
ag1651
aa(lp3118
I1152
ag1685
aaaa(lp3119
I1154
aI1161
ag897
a(lp3120
(lp3121
I1154
ag1660
aa(lp3122
I1155
ag1671
aa(lp3123
I1156
ag1667
aa(lp3124
I1157
ag1899
aa(lp3125
I1158
ag1671
aa(lp3126
I1159
ag1685
aa(lp3127
I1160
ag1660
aa(lp3128
I1161
ag1655
aaaa(lp3129
I1163
aI1164
aS'in'
p3130
a(lp3131
(lp3132
I1163
ag1671
aa(lp3133
I1164
ag1678
aaaa(lp3134
I1166
aI1169
ag906
a(lp3135
(lp3136
I1166
ag1655
aa(lp3137
I1167
ag1663
aa(lp3138
I1168
ag1649
aa(lp3139
I1169
ag1678
aaaa(lp3140
I1171
aI1173
aS'but'
p3141
a(lp3142
(lp3143
I1171
ag1703
aa(lp3144
I1172
ag1665
aa(lp3145
I1173
ag1655
aaaa(lp3146
I1175
aI1179
aS'being'
p3147
a(lp3148
(lp3149
I1175
ag1703
aa(lp3150
I1176
ag1685
aa(lp3151
I1177
ag1671
aa(lp3152
I1178
ag1678
aa(lp3153
I1179
ag1746
aaaa(lp3154
I1181
aI1182
aS'an'
p3155
a(lp3156
(lp3157
I1181
ag1653
aa(lp3158
I1182
ag1678
aaaa(lp3159
I1184
aI1194
ag915
a(lp3160
(lp3161
I1184
ag1671
aa(lp3162
I1185
ag1678
aa(lp3163
I1186
ag1655
aa(lp3164
I1187
ag1685
aa(lp3165
I1188
ag1688
aa(lp3166
I1189
ag1712
aa(lp3167
I1190
ag1671
aa(lp3168
I1191
ag1685
aa(lp3169
I1192
ag1649
aa(lp3170
I1193
ag1685
aa(lp3171
I1194
ag1685
aaaa(lp3172
I1196
aI1199
aS'does'
p3173
a(lp3174
(lp3175
I1196
ag1669
aa(lp3176
I1197
ag1663
aa(lp3177
I1198
ag1685
aa(lp3178
I1199
ag1660
aaaa(lp3179
I1201
aI1203
aS'not'
p3180
a(lp3181
(lp3182
I1201
ag1678
aa(lp3183
I1202
ag1663
aa(lp3184
I1203
ag1655
aaaa(lp3185
I1205
aI1211
ag924
a(lp3186
(lp3187
I1205
ag1688
aa(lp3188
I1206
ag1685
aa(lp3189
I1207
aS'q'
p3190
aa(lp3191
I1208
ag1665
aa(lp3192
I1209
ag1671
aa(lp3193
I1210
ag1688
aa(lp3194
I1211
ag1685
aaaa(lp3195
I1213
aI1215
aS'you'
p3196
a(lp3197
(lp3198
I1213
ag1730
aa(lp3199
I1214
ag1663
aa(lp3200
I1215
ag1665
aaaa(lp3201
I1217
aI1218
aS'to'
p3202
a(lp3203
(lp3204
I1217
ag1655
aa(lp3205
I1218
ag1663
aaaa(lp3206
I1220
aI1223
ag933
a(lp3207
(lp3208
I1220
ag1649
aa(lp3209
I1221
ag1685
aa(lp3210
I1222
ag1653
aa(lp3211
I1223
ag1688
aaaa(lp3212
I1225
aI1228
aS'this'
p3213
a(lp3214
(lp3215
I1225
ag1655
aa(lp3216
I1226
ag1651
aa(lp3217
I1227
ag1671
aa(lp3218
I1228
ag1660
aaaa(lp3219
I1230
aI1233
ag942
a(lp3220
(lp3221
I1230
ag1655
aa(lp3222
I1231
ag1730
aa(lp3223
I1232
ag1719
aa(lp3224
I1233
ag1685
aaaa(lp3225
I1235
aI1236
aS'of'
p3226
a(lp3227
(lp3228
I1235
ag1663
aa(lp3229
I1236
ag1751
aaaa(lp3230
I1238
aI1242
ag951
a(lp3231
(lp3232
I1238
ag1660
aa(lp3233
I1239
ag1899
aa(lp3234
I1240
ag1671
aa(lp3235
I1241
ag1688
aa(lp3236
I1242
ag1655
aaaa(lp3237
I1245
aI1247
aS'you'
p3238
a(lp3239
(lp3240
I1245
ag1730
aa(lp3241
I1246
ag1663
aa(lp3242
I1247
ag1665
aaaa(lp3243
I1249
aI1253
ag960
a(lp3244
(lp3245
I1249
ag1649
aa(lp3246
I1250
ag1663
aa(lp3247
I1251
ag1665
aa(lp3248
I1252
ag1667
aa(lp3249
I1253
ag1669
aaaa(lp3250
I1255
aI1258
ag969
a(lp3251
(lp3252
I1255
ag1667
aa(lp3253
I1256
ag1663
aa(lp3254
I1257
ag1663
aa(lp3255
I1258
ag1899
aaaa(lp3256
I1260
aI1273
ag978
a(lp3257
(lp3258
I1260
ag1665
aa(lp3259
I1261
ag1678
aa(lp3260
I1262
ag1719
aa(lp3261
I1263
ag1688
aa(lp3262
I1264
ag1663
aa(lp3263
I1265
ag1751
aa(lp3264
I1266
ag1685
aa(lp3265
I1267
ag1660
aa(lp3266
I1268
ag1660
aa(lp3267
I1269
ag1671
aa(lp3268
I1270
ag1663
aa(lp3269
I1271
ag1678
aa(lp3270
I1272
ag1653
aa(lp3271
I1273
ag1667
aaaa(lp3272
I1276
aI1278
aS'you'
p3273
a(lp3274
(lp3275
I1276
ag1730
aa(lp3276
I1277
ag1663
aa(lp3277
I1278
ag1665
aaaa(lp3278
I1280
aI1282
aS'are'
p3279
a(lp3280
(lp3281
I1280
ag1653
aa(lp3282
I1281
ag1688
aa(lp3283
I1282
ag1685
aaaa(lp3284
I1284
aI1286
aS'not'
p3285
a(lp3286
(lp3287
I1284
ag1678
aa(lp3288
I1285
ag1663
aa(lp3289
I1286
ag1655
aaaa(lp3290
I1288
aI1288
ag1653
a(lp3291
(lp3292
I1288
ag1653
aaaa(lp3293
I1290
aI1298
ag987
a(lp3294
(lp3295
I1290
ag1891
aa(lp3296
I1291
ag1651
aa(lp3297
I1292
ag1688
aa(lp3298
I1293
ag1671
aa(lp3299
I1294
ag1660
aa(lp3300
I1295
ag1655
aa(lp3301
I1296
ag1850
aa(lp3302
I1297
ag1653
aa(lp3303
I1298
ag1660
aaaa(lp3304
I1300
aI1303
ag996
a(lp3305
(lp3306
I1300
ag1655
aa(lp3307
I1301
ag1688
aa(lp3308
I1302
ag1685
aa(lp3309
I1303
ag1685
aaaa(lp3310
I1306
aI1312
ag1005
a(lp3311
(lp3312
I1306
ag1700
aa(lp3313
I1307
ag1685
aa(lp3314
I1308
ag1649
aa(lp3315
I1309
ag1685
aa(lp3316
I1310
ag1667
aa(lp3317
I1311
ag1688
aa(lp3318
I1312
ag1730
aaaa(lp3319
I1314
aI1316
aS'and'
p3320
a(lp3321
(lp3322
I1314
ag1653
aa(lp3323
I1315
ag1678
aa(lp3324
I1316
ag1669
aaaa(lp3325
I1318
aI1328
ag1014
a(lp3326
(lp3327
I1318
ag1653
aa(lp3328
I1319
ag1891
aa(lp3329
I1320
ag1891
aa(lp3330
I1321
ag1685
aa(lp3331
I1322
ag1660
aa(lp3332
I1323
ag1660
aa(lp3333
I1324
ag1663
aa(lp3334
I1325
ag1688
aa(lp3335
I1326
ag1671
aa(lp3336
I1327
ag1685
aa(lp3337
I1328
ag1660
aaaa(lp3338
I1330
aI1334
ag1023
a(lp3339
(lp3340
I1330
ag1891
aa(lp3341
I1331
ag1663
aa(lp3342
I1332
ag1665
aa(lp3343
I1333
ag1667
aa(lp3344
I1334
ag1669
aaaa(lp3345
I1336
aI1341
ag1032
a(lp3346
(lp3347
I1336
ag1688
aa(lp3348
I1337
ag1685
aa(lp3349
I1338
ag1653
aa(lp3350
I1339
ag1667
aa(lp3351
I1340
ag1667
aa(lp3352
I1341
ag1730
aaaa(lp3353
I1343
aI1344
aS'be'
p3354
a(lp3355
(lp3356
I1343
ag1703
aa(lp3357
I1344
ag1685
aaaa(lp3358
I1346
aI1349
ag1041
a(lp3359
(lp3360
I1346
ag1746
aa(lp3361
I1347
ag1663
aa(lp3362
I1348
ag1663
aa(lp3363
I1349
ag1669
aaaa(lp3364
I1351
aI1357
ag1050
a(lp3365
(lp3366
I1351
ag1653
aa(lp3367
I1352
ag1669
aa(lp3368
I1353
ag1669
aa(lp3369
I1355
ag1663
aa(lp3370
I1356
ag1678
aa(lp3371
I1357
ag1660
aaaa(lp3372
I1359
aI1361
aS'for'
p3373
a(lp3374
(lp3375
I1359
ag1751
aa(lp3376
I1360
ag1663
aa(lp3377
I1361
ag1688
aaaa(lp3378
I1363
aI1366
aS'your'
p3379
a(lp3380
(lp3381
I1363
ag1730
aa(lp3382
I1364
ag1663
aa(lp3383
I1365
ag1665
aa(lp3384
I1366
ag1688
aaaa(lp3385
I1368
aI1372
ag1059
a(lp3386
(lp3387
I1368
ag1667
aa(lp3388
I1369
ag1663
aa(lp3389
I1370
ag1663
aa(lp3390
I1371
ag1899
aa(lp3391
I1372
ag1660
aaaa(lp3392
I1375
aI1377
aS'for'
p3393
a(lp3394
(lp3395
I1375
ag1751
aa(lp3396
I1376
ag1663
aa(lp3397
I1377
ag1688
aaaa(lp3398
I1379
aI1388
ag1068
a(lp3399
(lp3400
I1379
ag1671
aa(lp3401
I1380
ag1678
aa(lp3402
I1381
ag1655
aa(lp3403
I1382
ag1685
aa(lp3404
I1383
ag1688
aa(lp3405
I1384
ag1712
aa(lp3406
I1385
ag1671
aa(lp3407
I1386
ag1685
aa(lp3408
I1387
ag1649
aa(lp3409
I1388
ag1660
aaaa(lp3410
I1391
aI1393
ag1077
a(lp3411
(lp3412
I1391
ag1700
aa(lp3413
I1392
ag1663
aa(lp3414
I1393
ag1703
aaaa(lp3415
I1395
aI1404
ag1086
a(lp3416
(lp3417
I1395
ag1671
aa(lp3418
I1396
ag1678
aa(lp3419
I1397
ag1655
aa(lp3420
I1398
ag1685
aa(lp3421
I1399
ag1688
aa(lp3422
I1400
ag1712
aa(lp3423
I1401
ag1671
aa(lp3424
I1402
ag1685
aa(lp3425
I1403
ag1649
aa(lp3426
I1404
ag1660
aaaa(lp3427
I1407
aI1410
ag1095
a(lp3428
(lp3429
I1407
ag1850
aa(lp3430
I1408
ag1653
aa(lp3431
I1409
ag1899
aa(lp3432
I1410
ag1685
aaaa(lp3433
I1412
aI1415
ag1104
a(lp3434
(lp3435
I1412
ag1660
aa(lp3436
I1413
ag1665
aa(lp3437
I1414
ag1688
aa(lp3438
I1415
ag1685
aaaa(lp3439
I1417
aI1420
aS'that'
p3440
a(lp3441
(lp3442
I1417
ag1655
aa(lp3443
I1418
ag1651
aa(lp3444
I1419
ag1653
aa(lp3445
I1420
ag1655
aaaa(lp3446
I1422
aI1424
aS'you'
p3447
a(lp3448
(lp3449
I1422
ag1730
aa(lp3450
I1423
ag1663
aa(lp3451
I1424
ag1665
aaaa(lp3452
I1426
aI1427
aS'do'
p3453
a(lp3454
(lp3455
I1426
ag1669
aa(lp3456
I1427
ag1663
aaaa(lp3457
I1429
aI1431
aS'not'
p3458
a(lp3459
(lp3460
I1429
ag1678
aa(lp3461
I1430
ag1663
aa(lp3462
I1431
ag1655
aaaa(lp3463
I1433
aI1436
ag1113
a(lp3464
(lp3465
I1433
ag1649
aa(lp3466
I1434
ag1685
aa(lp3467
I1435
ag1653
aa(lp3468
I1436
ag1688
aaaa(lp3469
I1438
aI1440
aS'too'
p3470
a(lp3471
(lp3472
I1438
ag1655
aa(lp3473
I1439
ag1663
aa(lp3474
I1440
ag1663
aaaa(lp3475
I1442
aI1445
ag1122
a(lp3476
(lp3477
I1442
ag1850
aa(lp3478
I1443
ag1665
aa(lp3479
I1444
ag1891
aa(lp3480
I1445
ag1651
aaaa(lp3481
I1448
aI1450
aS'for'
p3482
a(lp3483
(lp3484
I1448
ag1751
aa(lp3485
I1449
ag1663
aa(lp3486
I1450
ag1688
aaaa(lp3487
I1452
aI1458
ag1131
a(lp3488
(lp3489
I1452
ag1685
aa(lp3490
I1453
aS'x'
p3491
aa(lp3492
I1454
ag1653
aa(lp3493
I1455
ag1850
aa(lp3494
I1456
ag1719
aa(lp3495
I1457
ag1667
aa(lp3496
I1458
ag1685
aaaa(lp3497
I1460
aI1467
ag1140
a(lp3498
(lp3499
I1460
ag1685
aa(lp3500
I1461
ag1653
aa(lp3501
I1462
ag1688
aa(lp3502
I1463
ag1688
aa(lp3503
I1464
ag1671
aa(lp3504
I1465
ag1678
aa(lp3505
I1466
ag1746
aa(lp3506
I1467
ag1660
aaaa(lp3507
I1470
aI1471
aS'do'
p3508
a(lp3509
(lp3510
I1470
ag1669
aa(lp3511
I1471
ag1663
aaaa(lp3512
I1473
aI1475
aS'not'
p3513
a(lp3514
(lp3515
I1473
ag1678
aa(lp3516
I1474
ag1663
aa(lp3517
I1475
ag1655
aaaa(lp3518
I1477
aI1480
ag1149
a(lp3519
(lp3520
I1477
ag1660
aa(lp3521
I1478
ag1651
aa(lp3522
I1479
ag1663
aa(lp3523
I1480
ag1649
aaaa(lp3524
I1482
aI1484
aS'off'
p3525
a(lp3526
(lp3527
I1482
ag1663
aa(lp3528
I1483
ag1751
aa(lp3529
I1484
ag1751
aaaa(lp3530
I1486
aI1489
aS'that'
p3531
a(lp3532
(lp3533
I1486
ag1655
aa(lp3534
I1487
ag1651
aa(lp3535
I1488
ag1653
aa(lp3536
I1489
ag1655
aaaa(lp3537
I1491
aI1493
aS'you'
p3538
a(lp3539
(lp3540
I1491
ag1730
aa(lp3541
I1492
ag1663
aa(lp3542
I1493
ag1665
aaaa(lp3543
I1495
aI1498
aS'have'
p3544
a(lp3545
(lp3546
I1495
ag1651
aa(lp3547
I1496
ag1653
aa(lp3548
I1497
ag1712
aa(lp3549
I1498
ag1685
aaaa(lp3550
I1500
aI1503
aS'more'
p3551
a(lp3552
(lp3553
I1500
ag1850
aa(lp3554
I1501
ag1663
aa(lp3555
I1502
ag1688
aa(lp3556
I1503
ag1685
aaaa(lp3557
I1505
aI1508
aS'than'
p3558
a(lp3559
(lp3560
I1505
ag1655
aa(lp3561
I1506
ag1651
aa(lp3562
I1507
ag1653
aa(lp3563
I1508
ag1678
aaaa(lp3564
I1510
aI1512
ag1158
a(lp3565
(lp3566
I1510
ag1663
aa(lp3567
I1511
ag1678
aa(lp3568
I1512
ag1685
aaaa(lp3569
I1514
aI1521
ag1167
a(lp3570
(lp3571
I1514
ag1719
aa(lp3572
I1515
ag1671
aa(lp3573
I1516
ag1685
aa(lp3574
I1517
ag1688
aa(lp3575
I1518
ag1891
aa(lp3576
I1519
ag1671
aa(lp3577
I1520
ag1678
aa(lp3578
I1521
ag1746
aaaa(lp3579
I1523
aI1525
ag1176
a(lp3580
(lp3581
I1523
ag1719
aa(lp3582
I1524
ag1685
aa(lp3583
I1525
ag1688
aaaa(lp3584
I1527
aI1529
ag1185
a(lp3585
(lp3586
I1527
ag1685
aa(lp3587
I1528
ag1653
aa(lp3588
I1529
ag1688
aaaa(lp3589
I1531
aI1532
aS'by'
p3590
a(lp3591
(lp3592
I1531
ag1703
aa(lp3593
I1532
ag1730
aaaa(lp3594
I1534
aI1540
ag1194
a(lp3595
(lp3596
I1534
ag1649
aa(lp3597
I1535
ag1685
aa(lp3598
I1536
ag1653
aa(lp3599
I1537
ag1688
aa(lp3600
I1538
ag1671
aa(lp3601
I1539
ag1678
aa(lp3602
I1540
ag1746
aaaa(lp3603
I1542
aI1545
aS'more'
p3604
a(lp3605
(lp3606
I1542
ag1850
aa(lp3607
I1543
ag1663
aa(lp3608
I1544
ag1688
aa(lp3609
I1545
ag1685
aaaa(lp3610
I1547
aI1550
aS'than'
p3611
a(lp3612
(lp3613
I1547
ag1655
aa(lp3614
I1548
ag1651
aa(lp3615
I1549
ag1653
aa(lp3616
I1550
ag1678
aaaa(lp3617
I1552
aI1554
ag1203
a(lp3618
(lp3619
I1552
ag1663
aa(lp3620
I1553
ag1678
aa(lp3621
I1554
ag1685
aaaa(lp3622
I1556
aI1562
ag1212
a(lp3623
(lp3624
I1556
ag1685
aa(lp3625
I1557
ag1653
aa(lp3626
I1558
ag1688
aa(lp3627
I1559
ag1688
aa(lp3628
I1560
ag1671
aa(lp3629
I1561
ag1678
aa(lp3630
I1562
ag1746
aaaa(lp3631
I1565
aI1567
ag1221
a(lp3632
(lp3633
I1565
ag1655
aa(lp3634
I1566
ag1671
aa(lp3635
I1567
ag1685
aaaa(lp3636
I1569
aI1571
aS'for'
p3637
a(lp3638
(lp3639
I1569
ag1751
aa(lp3640
I1570
ag1663
aa(lp3641
I1571
ag1688
aaaa(lp3642
I1573
aI1575
aS'him'
p3643
a(lp3644
(lp3645
I1573
ag1651
aa(lp3646
I1574
ag1671
aa(lp3647
I1575
ag1850
aaaa(lp3648
I1578
aI1580
aS'for'
p3649
a(lp3650
(lp3651
I1578
ag1751
aa(lp3652
I1579
ag1663
aa(lp3653
I1580
ag1688
aaaa(lp3654
I1582
aI1584
ag1230
a(lp3655
(lp3656
I1582
ag1850
aa(lp3657
I1583
ag1685
aa(lp3658
I1584
ag1678
aaaa(lp3659
I1587
aI1589
aS'the'
p3660
a(lp3661
(lp3662
I1587
ag1655
aa(lp3663
I1588
ag1651
aa(lp3664
I1589
ag1685
aaaa(lp3665
I1591
aI1596
ag1239
a(lp3666
(lp3667
I1591
ag1660
aa(lp3668
I1592
ag1653
aa(lp3669
I1593
ag1751
aa(lp3670
I1594
ag1685
aa(lp3671
I1595
ag1660
aa(lp3672
I1596
ag1655
aaaa(lp3673
I1598
aI1599
aS'to'
p3674
a(lp3675
(lp3676
I1598
ag1655
aa(lp3677
I1599
ag1663
aaaa(lp3678
I1601
aI1604
ag1248
a(lp3679
(lp3680
I1601
ag1649
aa(lp3681
I1602
ag1685
aa(lp3682
I1603
ag1653
aa(lp3683
I1604
ag1688
aaaa(lp3684
I1606
aI1607
aS'is'
p3685
a(lp3686
(lp3687
I1606
ag1671
aa(lp3688
I1607
ag1660
aaaa(lp3689
I1609
aI1609
ag1653
a(lp3690
(lp3691
I1609
ag1653
aaaa(lp3692
I1611
aI1618
ag1257
a(lp3693
(lp3694
I1611
ag1891
aa(lp3695
I1612
ag1663
aa(lp3696
I1613
ag1667
aa(lp3697
I1614
ag1667
aa(lp3698
I1615
ag1653
aa(lp3699
I1616
ag1688
aa(lp3700
I1617
ag1685
aa(lp3701
I1618
ag1669
aaaa(lp3702
I1620
aI1624
ag1266
a(lp3703
(lp3704
I1620
ag1660
aa(lp3705
I1621
ag1651
aa(lp3706
I1622
ag1671
aa(lp3707
I1623
ag1688
aa(lp3708
I1624
ag1655
aaaa(lp3709
I1626
aI1628
aS'but'
p3710
a(lp3711
(lp3712
I1626
ag1703
aa(lp3713
I1627
ag1665
aa(lp3714
I1628
ag1655
aaaa(lp3715
I1630
aI1631
aS'it'
p3716
a(lp3717
(lp3718
I1630
ag1671
aa(lp3719
I1631
ag1655
aaaa(lp3720
I1633
aI1637
ag1275
a(lp3721
(lp3722
I1633
ag1649
aa(lp3723
I1634
ag1663
aa(lp3724
I1635
ag1665
aa(lp3725
I1636
ag1667
aa(lp3726
I1637
ag1669
aaaa(lp3727
I1639
aI1640
aS'be'
p3728
a(lp3729
(lp3730
I1639
ag1703
aa(lp3731
I1640
ag1685
aaaa(lp3732
I1642
aI1645
ag1284
a(lp3733
(lp3734
I1642
ag1653
aa(lp3735
I1643
ag1667
aa(lp3736
I1644
ag1660
aa(lp3737
I1645
ag1663
aaaa(lp3738
I1647
aI1650
aS'more'
p3739
a(lp3740
(lp3741
I1647
ag1850
aa(lp3742
I1648
ag1663
aa(lp3743
I1649
ag1688
aa(lp3744
I1650
ag1685
aaaa(lp3745
I1652
aI1663
ag1293
a(lp3746
(lp3747
I1652
ag1719
aa(lp3748
I1653
ag1688
aa(lp3749
I1654
ag1663
aa(lp3750
I1655
ag1751
aa(lp3751
I1656
ag1685
aa(lp3752
I1657
ag1660
aa(lp3753
I1658
ag1660
aa(lp3754
I1659
ag1671
aa(lp3755
I1660
ag1663
aa(lp3756
I1661
ag1678
aa(lp3757
I1662
ag1653
aa(lp3758
I1663
ag1667
aaaa(lp3759
I1665
aI1666
aS'to'
p3760
a(lp3761
(lp3762
I1665
ag1655
aa(lp3763
I1666
ag1663
aaaa(lp3764
I1668
aI1671
ag1302
a(lp3765
(lp3766
I1668
ag1649
aa(lp3767
I1669
ag1685
aa(lp3768
I1670
ag1653
aa(lp3769
I1671
ag1688
aaaa(lp3770
I1673
aI1673
ag1653
a(lp3771
(lp3772
I1673
ag1653
aaaa(lp3773
I1675
aI1686
ag1311
a(lp3774
(lp3775
I1675
ag1667
aa(lp3776
I1676
ag1663
aa(lp3777
I1677
ag1678
aa(lp3778
I1678
ag1746
aa(lp3779
I1680
ag1660
aa(lp3780
I1681
ag1667
aa(lp3781
I1682
ag1685
aa(lp3782
I1683
ag1685
aa(lp3783
I1684
ag1712
aa(lp3784
I1685
ag1685
aa(lp3785
I1686
ag1669
aaaa(lp3786
I1688
aI1690
ag1320
a(lp3787
(lp3788
I1688
ag1655
aa(lp3789
I1689
ag1663
aa(lp3790
I1690
ag1719
aaaa(lp3791
I1692
aI1695
aS'with'
p3792
a(lp3793
(lp3794
I1692
ag1649
aa(lp3795
I1693
ag1671
aa(lp3796
I1694
ag1655
aa(lp3797
I1695
ag1651
aaaa(lp3798
I1697
aI1699
ag1329
a(lp3799
(lp3800
I1697
ag1655
aa(lp3801
I1698
ag1671
aa(lp3802
I1699
ag1685
aaaa(lp3803
I1702
aI1706
ag1338
a(lp3804
(lp3805
I1702
ag1678
aa(lp3806
I1703
ag1685
aa(lp3807
I1704
ag1712
aa(lp3808
I1705
ag1685
aa(lp3809
I1706
ag1688
aaaa(lp3810
I1708
aI1711
ag1347
a(lp3811
(lp3812
I1708
ag1649
aa(lp3813
I1709
ag1685
aa(lp3814
I1710
ag1653
aa(lp3815
I1711
ag1688
aaaa(lp3816
I1713
aI1723
ag1356
a(lp3817
(lp3818
I1713
ag1655
aa(lp3819
I1714
ag1665
aa(lp3820
I1715
ag1688
aa(lp3821
I1716
ag1655
aa(lp3822
I1717
ag1667
aa(lp3823
I1718
ag1685
aa(lp3824
I1720
ag1678
aa(lp3825
I1721
ag1685
aa(lp3826
I1722
ag1891
aa(lp3827
I1723
ag1899
aaaa(lp3828
I1725
aI1727
aS'for'
p3829
a(lp3830
(lp3831
I1725
ag1751
aa(lp3832
I1726
ag1663
aa(lp3833
I1727
ag1688
aaaa(lp3834
I1729
aI1730
aS'an'
p3835
a(lp3836
(lp3837
I1729
ag1653
aa(lp3838
I1730
ag1678
aaaa(lp3839
I1732
aI1740
ag1365
a(lp3840
(lp3841
I1732
ag1671
aa(lp3842
I1733
ag1678
aa(lp3843
I1734
ag1655
aa(lp3844
I1735
ag1685
aa(lp3845
I1736
ag1688
aa(lp3846
I1737
ag1712
aa(lp3847
I1738
ag1671
aa(lp3848
I1739
ag1685
aa(lp3849
I1740
ag1649
aaaa(lp3850
I1743
aI1745
aS'you'
p3851
a(lp3852
(lp3853
I1743
ag1730
aa(lp3854
I1744
ag1663
aa(lp3855
I1745
ag1665
aaaa(lp3856
I1747
aI1749
ag1374
a(lp3857
(lp3858
I1747
ag1850
aa(lp3859
I1748
ag1653
aa(lp3860
I1749
ag1730
aaaa(lp3861
I1751
aI1754
aS'just'
p3862
a(lp3863
(lp3864
I1751
ag1700
aa(lp3865
I1752
ag1665
aa(lp3866
I1753
ag1660
aa(lp3867
I1754
ag1655
aaaa(lp3868
I1756
aI1758
ag1383
a(lp3869
(lp3870
I1756
ag1685
aa(lp3871
I1757
ag1678
aa(lp3872
I1758
ag1669
aaaa(lp3873
I1760
aI1761
aS'up'
p3874
a(lp3875
(lp3876
I1760
ag1665
aa(lp3877
I1761
ag1719
aaaa(lp3878
I1763
aI1768
ag1392
a(lp3879
(lp3880
I1763
ag1660
aa(lp3881
I1764
ag1649
aa(lp3882
I1765
ag1685
aa(lp3883
I1766
ag1653
aa(lp3884
I1767
ag1655
aa(lp3885
I1768
ag1730
aaaa(lp3886
I1770
aI1772
aS'and'
p3887
a(lp3888
(lp3889
I1770
ag1653
aa(lp3890
I1771
ag1678
aa(lp3891
I1772
ag1669
aaaa(lp3892
I1774
aI1776
aS'out'
p3893
a(lp3894
(lp3895
I1774
ag1663
aa(lp3896
I1775
ag1665
aa(lp3897
I1776
ag1655
aaaa(lp3898
I1778
aI1779
aS'of'
p3899
a(lp3900
(lp3901
I1778
ag1663
aa(lp3902
I1779
ag1751
aaaa(lp3903
I1781
aI1787
ag1401
a(lp3904
(lp3905
I1781
ag1751
aa(lp3906
I1782
ag1653
aa(lp3907
I1783
ag1660
aa(lp3908
I1784
ag1651
aa(lp3909
I1785
ag1671
aa(lp3910
I1786
ag1663
aa(lp3911
I1787
ag1678
aaaa(lp3912
I1790
aI1792
aS'you'
p3913
a(lp3914
(lp3915
I1790
ag1730
aa(lp3916
I1791
ag1663
aa(lp3917
I1792
ag1665
aaaa(lp3918
I1794
aI1795
aS'do'
p3919
a(lp3920
(lp3921
I1794
ag1669
aa(lp3922
I1795
ag1663
aaaa(lp3923
I1797
aI1799
aS'not'
p3924
a(lp3925
(lp3926
I1797
ag1678
aa(lp3927
I1798
ag1663
aa(lp3928
I1799
ag1655
aaaa(lp3929
I1801
aI1804
aS'have'
p3930
a(lp3931
(lp3932
I1801
ag1651
aa(lp3933
I1802
ag1653
aa(lp3934
I1803
ag1712
aa(lp3935
I1804
ag1685
aaaa(lp3936
I1806
aI1807
aS'to'
p3937
a(lp3938
(lp3939
I1806
ag1655
aa(lp3940
I1807
ag1663
aaaa(lp3941
I1809
aI1810
aS'be'
p3942
a(lp3943
(lp3944
I1809
ag1703
aa(lp3945
I1810
ag1685
aaaa(lp3946
I1812
aI1812
ag1653
a(lp3947
(lp3948
I1812
ag1653
aaaa(lp3949
I1814
aI1818
ag1410
a(lp3950
(lp3951
I1814
ag1719
aa(lp3952
I1815
ag1663
aa(lp3953
I1816
ag1649
aa(lp3954
I1817
ag1685
aa(lp3955
I1818
ag1688
aaaa(lp3956
I1820
aI1826
ag1419
a(lp3957
(lp3958
I1820
ag1669
aa(lp3959
I1821
ag1688
aa(lp3960
I1822
ag1685
aa(lp3961
I1823
ag1660
aa(lp3962
I1824
ag1660
aa(lp3963
I1825
ag1685
aa(lp3964
I1826
ag1688
aaaa(lp3965
I1828
aI1829
aS'or'
p3966
a(lp3967
(lp3968
I1828
ag1663
aa(lp3969
I1829
ag1688
aaaa(lp3970
I1831
aI1831
ag1653
a(lp3971
(lp3972
I1831
ag1653
aaaa(lp3973
I1833
aI1836
ag1428
a(lp3974
(lp3975
I1833
ag1651
aa(lp3976
I1834
ag1685
aa(lp3977
I1835
ag1653
aa(lp3978
I1836
ag1669
aaaa(lp3979
I1838
aI1843
ag1437
a(lp3980
(lp3981
I1838
ag1655
aa(lp3982
I1839
ag1665
aa(lp3983
I1840
ag1688
aa(lp3984
I1841
ag1678
aa(lp3985
I1842
ag1685
aa(lp3986
I1843
ag1688
aaaa(lp3987
I1845
aI1848
aS'when'
p3988
a(lp3989
(lp3990
I1845
ag1649
aa(lp3991
I1846
ag1651
aa(lp3992
I1847
ag1685
aa(lp3993
I1848
ag1678
aaaa(lp3994
I1850
aI1852
aS'you'
p3995
a(lp3996
(lp3997
I1850
ag1730
aa(lp3998
I1851
ag1663
aa(lp3999
I1852
ag1665
aaaa(lp4000
I1854
aI1857
ag1446
a(lp4001
(lp4002
I1854
ag1649
aa(lp4003
I1855
ag1685
aa(lp4004
I1856
ag1653
aa(lp4005
I1857
ag1688
aaaa(lp4006
I1859
aI1865
ag1455
a(lp4007
(lp4008
I1859
ag1891
aa(lp4009
I1860
ag1667
aa(lp4010
I1861
ag1663
aa(lp4011
I1862
ag1655
aa(lp4012
I1863
ag1651
aa(lp4013
I1864
ag1685
aa(lp4014
I1865
ag1660
aaaa(lp4015
I1867
aI1869
aS'for'
p4016
a(lp4017
(lp4018
I1867
ag1751
aa(lp4019
I1868
ag1663
aa(lp4020
I1869
ag1688
aaaa(lp4021
I1871
aI1871
ag1653
a(lp4022
(lp4023
I1871
ag1653
aaaa(lp4024
I1873
aI1875
ag1464
a(lp4025
(lp4026
I1873
ag1700
aa(lp4027
I1874
ag1663
aa(lp4028
I1875
ag1703
aaaa(lp4029
I1877
aI1885
ag1473
a(lp4030
(lp4031
I1877
ag1671
aa(lp4032
I1878
ag1678
aa(lp4033
I1879
ag1655
aa(lp4034
I1880
ag1685
aa(lp4035
I1881
ag1688
aa(lp4036
I1882
ag1712
aa(lp4037
I1883
ag1671
aa(lp4038
I1884
ag1685
aa(lp4039
I1885
ag1649
aaaa(lp4040
I1888
aI1890
aS'you'
p4041
a(lp4042
(lp4043
I1888
ag1730
aa(lp4044
I1889
ag1663
aa(lp4045
I1890
ag1665
aaaa(lp4046
I1892
aI1895
aS'just'
p4047
a(lp4048
(lp4049
I1892
ag1700
aa(lp4050
I1893
ag1665
aa(lp4051
I1894
ag1660
aa(lp4052
I1895
ag1655
aaaa(lp4053
I1897
aI1900
aS'have'
p4054
a(lp4055
(lp4056
I1897
ag1651
aa(lp4057
I1898
ag1653
aa(lp4058
I1899
ag1712
aa(lp4059
I1900
ag1685
aaaa(lp4060
I1902
aI1903
aS'to'
p4061
a(lp4062
(lp4063
I1902
ag1655
aa(lp4064
I1903
ag1663
aaaa(lp4065
I1905
aI1912
ag1482
a(lp4066
(lp4067
I1905
ag1688
aa(lp4068
I1906
ag1685
aa(lp4069
I1907
ag1850
aa(lp4070
I1908
ag1685
aa(lp4071
I1909
ag1850
aa(lp4072
I1910
ag1703
aa(lp4073
I1911
ag1685
aa(lp4074
I1912
ag1688
aaaa(lp4075
I1914
aI1916
aS'the'
p4076
a(lp4077
(lp4078
I1914
ag1655
aa(lp4079
I1915
ag1651
aa(lp4080
I1916
ag1685
aaaa(lp4081
I1918
aI1922
ag1491
a(lp4082
(lp4083
I1918
ag1703
aa(lp4084
I1919
ag1653
aa(lp4085
I1920
ag1660
aa(lp4086
I1921
ag1671
aa(lp4087
I1922
ag1891
aaaa(lp4088
I1924
aI1932
ag1500
a(lp4089
(lp4090
I1924
ag1688
aa(lp4091
I1925
ag1685
aa(lp4092
I1926
ag1850
aa(lp4093
I1927
ag1671
aa(lp4094
I1928
ag1678
aa(lp4095
I1929
ag1669
aa(lp4096
I1930
ag1685
aa(lp4097
I1931
ag1688
aa(lp4098
I1932
ag1660
aaaa(lp4099
I1934
aI1935
aS'of'
p4100
a(lp4101
(lp4102
I1934
ag1663
aa(lp4103
I1935
ag1751
aaaa(lp4104
I1937
aI1943
ag1509
a(lp4105
(lp4106
I1937
ag1667
aa(lp4107
I1938
ag1663
aa(lp4108
I1939
ag1663
aa(lp4109
I1940
ag1899
aa(lp4110
I1941
ag1671
aa(lp4111
I1942
ag1678
aa(lp4112
I1943
ag1746
aaaa(lp4113
I1945
aI1956
ag1518
a(lp4114
(lp4115
I1945
ag1719
aa(lp4116
I1946
ag1688
aa(lp4117
I1947
ag1663
aa(lp4118
I1948
ag1751
aa(lp4119
I1949
ag1685
aa(lp4120
I1950
ag1660
aa(lp4121
I1951
ag1660
aa(lp4122
I1952
ag1671
aa(lp4123
I1953
ag1663
aa(lp4124
I1954
ag1678
aa(lp4125
I1955
ag1653
aa(lp4126
I1956
ag1667
aaaa(lp4127
I1958
aI1960
aS'and'
p4128
a(lp4129
(lp4130
I1958
ag1653
aa(lp4131
I1959
ag1678
aa(lp4132
I1960
ag1669
aaaa(lp4133
I1962
aI1972
ag1527
a(lp4134
(lp4135
I1962
ag1719
aa(lp4136
I1963
ag1688
aa(lp4137
I1964
ag1685
aa(lp4138
I1965
ag1660
aa(lp4139
I1966
ag1685
aa(lp4140
I1967
ag1678
aa(lp4141
I1968
ag1655
aa(lp4142
I1969
ag1653
aa(lp4143
I1970
ag1703
aa(lp4144
I1971
ag1667
aa(lp4145
I1972
ag1685
aaaa(lp4146
I1975
aI1978
aS'this'
p4147
a(lp4148
(lp4149
I1975
ag1655
aa(lp4150
I1976
ag1651
aa(lp4151
I1977
ag1671
aa(lp4152
I1978
ag1660
aaaa(lp4153
I1980
aI1986
ag1536
a(lp4154
(lp4155
I1980
ag1653
aa(lp4156
I1981
ag1688
aa(lp4157
I1982
ag1655
aa(lp4158
I1983
ag1671
aa(lp4159
I1984
ag1891
aa(lp4160
I1985
ag1667
aa(lp4161
I1986
ag1685
aaaa(lp4162
I1988
aI1992
ag1545
a(lp4163
(lp4164
I1988
ag1649
aa(lp4165
I1989
ag1663
aa(lp4166
I1990
ag1665
aa(lp4167
I1991
ag1667
aa(lp4168
I1992
ag1669
aaaa(lp4169
I1994
aI2003
ag1554
a(lp4170
(lp4171
I1994
ag1669
aa(lp4172
I1995
ag1685
aa(lp4173
I1996
ag1751
aa(lp4174
I1997
ag1671
aa(lp4175
I1998
ag1678
aa(lp4176
I1999
ag1671
aa(lp4177
I2000
ag1655
aa(lp4178
I2001
ag1685
aa(lp4179
I2002
ag1667
aa(lp4180
I2003
ag1730
aaaa(lp4181
I2005
aI2006
aS'be'
p4182
a(lp4183
(lp4184
I2005
ag1703
aa(lp4185
I2006
ag1685
aaaa(lp4186
I2008
aI2008
ag1653
a(lp4187
(lp4188
I2008
ag1653
aaaa(lp4189
I2010
aI2016
ag1563
a(lp4190
(lp4191
I2010
ag1703
aa(lp4192
I2011
ag1685
aa(lp4193
I2012
ag1678
aa(lp4194
I2013
ag1685
aa(lp4195
I2014
ag1751
aa(lp4196
I2015
ag1671
aa(lp4197
I2016
ag1655
aaaa(lp4198
I2018
aI2020
aS'for'
p4199
a(lp4200
(lp4201
I2018
ag1751
aa(lp4202
I2019
ag1663
aa(lp4203
I2020
ag1688
aaaa(lp4204
I2022
aI2026
aS'those'
p4205
a(lp4206
(lp4207
I2022
ag1655
aa(lp4208
I2023
ag1651
aa(lp4209
I2024
ag1663
aa(lp4210
I2025
ag1660
aa(lp4211
I2026
ag1685
aaaa(lp4212
I2028
aI2030
aS'who'
p4213
a(lp4214
(lp4215
I2028
ag1649
aa(lp4216
I2029
ag1651
aa(lp4217
I2030
ag1663
aaaa(lp4218
I2032
aI2034
aS'are'
p4219
a(lp4220
(lp4221
I2032
ag1653
aa(lp4222
I2033
ag1688
aa(lp4223
I2034
ag1685
aaaa(lp4224
I2036
aI2044
ag1572
a(lp4225
(lp4226
I2036
ag1719
aa(lp4227
I2037
ag1688
aa(lp4228
I2038
ag1685
aa(lp4229
I2039
ag1719
aa(lp4230
I2040
ag1653
aa(lp4231
I2041
ag1688
aa(lp4232
I2042
ag1671
aa(lp4233
I2043
ag1678
aa(lp4234
I2044
ag1746
aaaa(lp4235
I2046
aI2048
aS'for'
p4236
a(lp4237
(lp4238
I2046
ag1751
aa(lp4239
I2047
ag1663
aa(lp4240
I2048
ag1688
aaaa(lp4241
I2050
aI2050
ag1653
a(lp4242
(lp4243
I2050
ag1653
aaaa(lp4244
I2052
aI2054
ag1581
a(lp4245
(lp4246
I2052
ag1700
aa(lp4247
I2053
ag1663
aa(lp4248
I2054
ag1703
aaaa(lp4249
I2056
aI2064
ag1590
a(lp4250
(lp4251
I2056
ag1671
aa(lp4252
I2057
ag1678
aa(lp4253
I2058
ag1655
aa(lp4254
I2059
ag1685
aa(lp4255
I2060
ag1688
aa(lp4256
I2061
ag1712
aa(lp4257
I2062
ag1671
aa(lp4258
I2063
ag1685
aa(lp4259
I2064
ag1649
aaaa(lp4260
I2067
aI2069
aS'but'
p4261
a(lp4262
(lp4263
I2067
ag1703
aa(lp4264
I2068
ag1665
aa(lp4265
I2069
ag1655
aaaa(lp4266
I2071
aI2072
aS'do'
p4267
a(lp4268
(lp4269
I2071
ag1669
aa(lp4270
I2072
ag1663
aaaa(lp4271
I2074
aI2076
aS'not'
p4272
a(lp4273
(lp4274
I2074
ag1678
aa(lp4275
I2075
ag1663
aa(lp4276
I2076
ag1655
aaaa(lp4277
I2078
aI2081
aS'have'
p4278
a(lp4279
(lp4280
I2078
ag1651
aa(lp4281
I2079
ag1653
aa(lp4282
I2080
ag1712
aa(lp4283
I2081
ag1685
aaaa(lp4284
I2083
aI2085
aS'the'
p4285
a(lp4286
(lp4287
I2083
ag1655
aa(lp4288
I2084
ag1651
aa(lp4289
I2085
ag1685
aaaa(lp4290
I2087
aI2090
ag1599
a(lp4291
(lp4292
I2087
ag1671
aa(lp4293
I2088
ag1669
aa(lp4294
I2089
ag1685
aa(lp4295
I2090
ag1653
aaaa(lp4296
I2092
aI2093
aS'of'
p4297
a(lp4298
(lp4299
I2092
ag1663
aa(lp4300
I2093
ag1751
aaaa(lp4301
I2095
aI2097
aS'how'
p4302
a(lp4303
(lp4304
I2095
ag1651
aa(lp4305
I2096
ag1663
aa(lp4306
I2097
ag1649
aaaa(lp4307
I2099
aI2100
aS'it'
p4308
a(lp4309
(lp4310
I2099
ag1671
aa(lp4311
I2100
ag1655
aaaa(lp4312
I2102
aI2103
aS'is'
p4313
a(lp4314
(lp4315
I2102
ag1671
aa(lp4316
I2103
ag1660
aaaa(lp4317
I2105
aI2106
aS'to'
p4318
a(lp4319
(lp4320
I2105
ag1655
aa(lp4321
I2106
ag1663
aaaa(lp4322
I2108
aI2109
aS'be'
p4323
a(lp4324
(lp4325
I2108
ag1703
aa(lp4326
I2109
ag1685
aaaa(lp4327
I2111
aI2112
aS'in'
p4328
a(lp4329
(lp4330
I2111
ag1671
aa(lp4331
I2112
ag1678
aaaa(lp4332
I2114
aI2114
ag1653
a(lp4333
(lp4334
I2114
ag1653
aaaa(lp4335
I2116
aI2118
ag1608
a(lp4336
(lp4337
I2116
ag1700
aa(lp4338
I2117
ag1663
aa(lp4339
I2118
ag1703
aaaa(lp4340
I2120
aI2128
ag1617
a(lp4341
(lp4342
I2120
ag1671
aa(lp4343
I2121
ag1678
aa(lp4344
I2122
ag1655
aa(lp4345
I2123
ag1685
aa(lp4346
I2124
ag1688
aa(lp4347
I2125
ag1712
aa(lp4348
I2126
ag1671
aa(lp4349
I2127
ag1685
aa(lp4350
I2128
ag1649
aaaa(lp4351
I2131
aI2132
aS'no'
p4352
a(lp4353
(lp4354
I2131
ag1678
aa(lp4355
I2132
ag1663
aaaa(lp4356
I2134
aI2141
ag1626
a(lp4357
(lp4358
I2134
ag1891
aa(lp4359
I2135
ag1663
aa(lp4360
I2136
ag1850
aa(lp4361
I2137
ag1850
aa(lp4362
I2138
ag1685
aa(lp4363
I2139
ag1678
aa(lp4364
I2140
ag1655
aa(lp4365
I2141
ag1660
aaaa(lp4366
I2134
aI2141
ag1635
a(lp4367
(lp4368
I2144
ag1635
aaaasS'cleanCharacterMap'
p4369
(lp4370
g1648
ag1650
ag1652
ag1654
a(lp4371
I4
aS' '
p4372
aag1659
ag1661
ag1662
ag1664
ag1666
ag1668
a(lp4373
I11
ag4372
aag1673
a(lp4374
I13
ag4372
aag1677
ag1679
ag1680
a(lp4375
I17
ag4372
aag1683
ag1684
ag1686
ag1687
a(lp4376
I22
ag4372
aag1692
ag1693
a(lp4377
I25
ag4372
aag1696
a(lp4378
I27
ag4372
aag1699
ag1701
ag1702
a(lp4379
I31
ag4372
aag1706
ag1707
ag1708
ag1709
ag1710
ag1711
ag1713
ag1714
ag1715
a(lp4380
I42
ag4372
aag1718
ag1720
ag1721
ag1722
ag1723
ag1724
a(lp4381
I49
ag4372
aag1728
ag1729
a(lp4382
I52
ag4372
aag1733
ag1734
a(lp4383
I55
ag4372
aa(lp4384
I57
ag4372
aa(lp4385
I59
ag4372
aag1737
ag1738
ag1739
ag1740
ag1741
ag1742
ag1743
ag1744
ag1745
a(lp4386
I69
ag4372
aag1750
ag1752
ag1753
a(lp4387
I73
ag4372
aag1756
a(lp4388
I75
ag4372
aag1759
ag1760
ag1761
a(lp4389
I79
ag4372
aag1764
ag1765
ag1766
ag1767
ag1768
ag1769
ag1770
ag1771
ag1772
a(lp4390
I89
ag4372
aag1776
ag1777
ag1778
ag1779
a(lp4391
I94
ag4372
aag1783
ag1784
ag1785
a(lp4392
I98
ag4372
aag1789
ag1790
ag1791
a(lp4393
I102
ag4372
aag1794
ag1795
ag1796
ag1797
ag1798
ag1799
ag1800
ag1801
ag1802
a(lp4394
I112
ag4372
aag1806
ag1807
ag1808
a(lp4395
I116
ag4372
aag1811
a(lp4396
I118
ag4372
aag1814
ag1815
ag1816
a(lp4397
I122
ag4372
aag1819
ag1820
ag1821
ag1822
ag1823
ag1824
ag1825
ag1826
ag1827
a(lp4398
I132
ag4372
aag1831
ag1832
ag1833
a(lp4399
I136
ag4372
aag1836
ag1837
ag1838
ag1839
a(lp4400
I141
ag4372
aag1843
ag1844
a(lp4401
I144
ag4372
aag1847
ag1848
ag1849
ag1851
ag1852
ag1853
ag1854
ag1855
a(lp4402
I153
ag4372
aag1859
ag1860
ag1861
ag1862
a(lp4403
I158
ag4372
aag1866
ag1867
ag1868
a(lp4404
I162
ag4372
aag1871
ag1872
ag1873
a(lp4405
I166
ag4372
aag1877
ag1878
ag1879
a(lp4406
I170
ag4372
aag1882
ag1883
ag1884
ag1885
ag1886
a(lp4407
I176
ag4372
aag1890
ag1892
ag1893
a(lp4408
I180
ag4372
aag1896
ag1897
ag1898
ag1900
a(lp4409
I185
ag4372
aag1904
ag1905
a(lp4410
I188
ag4372
aag1908
ag1909
ag1910
ag1911
ag1912
a(lp4411
I194
ag4372
aag1916
ag1917
ag1918
a(lp4412
I199
ag4372
aag1921
ag1922
ag1923
ag1924
ag1925
ag1926
a(lp4413
I206
ag4372
aag1929
ag1930
ag1931
ag1932
a(lp4414
I211
ag4372
aag1935
ag1936
ag1937
ag1938
ag1939
ag1940
ag1941
a(lp4415
I220
ag4372
aag1945
ag1946
ag1947
a(lp4416
I224
ag4372
aag1951
ag1952
ag1953
ag1954
a(lp4417
I229
ag4372
aag1958
ag1959
ag1960
ag1961
a(lp4418
I234
ag4372
aag1965
ag1966
ag1967
a(lp4419
I238
ag4372
aag1970
ag1971
ag1972
ag1973
ag1974
ag1975
ag1976
ag1977
ag1978
a(lp4420
I249
ag4372
aag1982
ag1983
a(lp4421
I252
ag4372
aag1987
ag1988
ag1989
a(lp4422
I256
ag4372
aag1993
ag1994
ag1995
a(lp4423
I260
ag4372
aag1999
ag2000
a(lp4424
I263
ag4372
aag2003
ag2004
ag2005
ag2006
ag2007
ag2008
a(lp4425
I270
ag4372
aag2012
ag2013
ag2014
ag2015
a(lp4426
I275
ag4372
aag2019
ag2020
ag2021
ag2022
ag2023
a(lp4427
I281
ag4372
aag2027
ag2028
ag2029
a(lp4428
I285
ag4372
aag2032
ag2033
ag2034
ag2035
a(lp4429
I290
ag4372
aag2039
ag2040
ag2041
a(lp4430
I294
ag4372
aag2045
ag2046
a(lp4431
I297
ag4372
aag2049
ag2050
ag2051
ag2052
ag2053
a(lp4432
I303
ag4372
aag2056
ag2057
ag2058
ag2059
a(lp4433
I309
ag4372
aag2063
ag2064
ag2065
a(lp4434
I313
ag4372
aag2068
ag2069
ag2070
ag2071
ag2072
ag2073
a(lp4435
I320
ag4372
aag2077
ag2078
a(lp4436
I323
ag4372
aag2081
ag2082
ag2083
ag2084
ag2085
ag2086
ag2087
ag2088
a(lp4437
I332
ag4372
aag2091
ag2092
ag2093
a(lp4438
I336
ag4372
aag2097
ag2098
a(lp4439
I339
ag4372
aag2101
a(lp4440
I341
ag4372
aag2104
ag2105
ag2106
ag2107
ag2108
ag2109
ag2110
a(lp4441
I349
ag4372
aag2113
ag2114
ag2115
ag2116
ag2117
ag2118
ag2119
ag2120
a(lp4442
I358
ag4372
aag2124
ag2125
ag2126
ag2127
a(lp4443
I363
ag4372
aag2130
ag2131
ag2132
ag2133
ag2134
ag2135
a(lp4444
I370
ag4372
aag2138
ag2139
ag2140
ag2141
ag2142
ag2143
ag2144
ag2145
ag2146
ag2147
ag2148
a(lp4445
I382
ag4372
aag2152
ag2153
ag2154
ag2155
a(lp4446
I387
ag4372
aag2159
ag2160
ag2161
a(lp4447
I391
ag4372
aag2164
ag2165
ag2166
ag2167
ag2168
ag2169
ag2170
ag2171
a(lp4448
I401
ag4372
aag2175
ag2176
ag2177
a(lp4449
I405
ag4372
aag2180
ag2181
a(lp4450
I408
ag4372
aag2185
ag2186
a(lp4451
I411
ag4372
aag2189
ag2190
ag2191
ag2192
a(lp4452
I416
ag4372
aag2196
ag2197
a(lp4453
I419
ag4372
aag2201
ag2202
ag2203
ag2204
a(lp4454
I424
ag4372
aag2208
ag2209
ag2210
a(lp4455
I428
ag4372
aag2213
ag2214
ag2215
ag2216
ag2217
ag2218
a(lp4456
I435
ag4372
aag2222
ag2223
ag2224
a(lp4457
I439
ag4372
aag2228
ag2229
ag2230
ag2231
a(lp4458
I444
ag4372
aag2235
ag2236
a(lp4459
I447
ag4372
aag2239
ag2240
ag2241
ag2242
ag2243
ag2244
a(lp4460
I454
ag4372
aag2248
ag2249
ag2250
ag2251
a(lp4461
I459
ag4372
aag2254
ag2255
ag2256
ag2257
a(lp4462
I464
ag4372
aag2261
ag2262
ag2263
ag2264
ag2265
ag2266
a(lp4463
I471
ag4372
aag2269
ag2270
ag2271
ag2272
ag2273
ag2274
a(lp4464
I478
ag4372
aag2278
ag2279
ag2280
ag2281
a(lp4465
I483
ag4372
aag2284
ag2285
ag2286
ag2287
ag2288
ag2289
ag2290
ag2291
ag2292
ag2293
ag2294
a(lp4466
I496
ag4372
aag2297
ag2298
ag2299
a(lp4467
I500
ag4372
aag2302
ag2303
a(lp4468
I503
ag4372
aag2306
ag2307
ag2308
ag2309
ag2310
ag2311
ag2312
ag2313
a(lp4469
I512
ag4372
aag2317
ag2318
ag2319
ag2320
ag2321
a(lp4470
I518
ag4372
aag2324
ag2325
ag2326
ag2327
ag2328
ag2329
ag2330
a(lp4471
I527
ag4372
aag2334
ag2335
ag2336
a(lp4472
I531
ag4372
aag2339
ag2340
ag2341
ag2342
a(lp4473
I536
ag4372
aag2345
ag2346
ag2347
ag2348
ag2349
ag2350
ag2351
ag2352
ag2353
ag2354
ag2355
a(lp4474
I548
ag4372
aag2359
ag2360
ag2361
ag2362
a(lp4475
I553
ag4372
aag2365
ag2366
ag2367
ag2368
ag2369
a(lp4476
I559
ag4372
aag2373
ag2374
ag2375
a(lp4477
I563
ag4372
aag2379
ag2380
a(lp4478
I566
ag4372
aag2383
ag2384
ag2385
ag2386
ag2387
ag2388
ag2389
ag2390
ag2391
ag2392
a(lp4479
I577
ag4372
aag2396
ag2397
a(lp4480
I580
ag4372
aag2401
ag2402
ag2403
a(lp4481
I585
ag4372
aag2406
ag2407
ag2408
ag2409
a(lp4482
I590
ag4372
aag2412
ag2413
ag2414
ag2415
ag2416
ag2417
a(lp4483
I597
ag4372
aag2421
ag2422
ag2423
a(lp4484
I601
ag4372
aag2427
ag2428
ag2429
a(lp4485
I605
ag4372
aag2432
ag2433
ag2434
a(lp4486
I610
ag4372
aag2438
ag2439
ag2440
a(lp4487
I614
ag4372
aag2443
ag2444
ag2445
ag2446
ag2447
a(lp4488
I620
ag4372
aag2451
ag2452
a(lp4489
I623
ag4372
aag2456
ag2457
ag2458
a(lp4490
I627
ag4372
aag2461
ag2462
ag2463
ag2464
ag2465
ag2466
ag2467
a(lp4491
I635
ag4372
aag2470
ag2471
ag2472
ag2473
ag2474
ag2475
a(lp4492
I642
ag4372
aag2479
ag2480
ag2481
ag2482
a(lp4493
I647
ag4372
aag2486
ag2487
ag2488
ag2489
ag2490
a(lp4494
I653
ag4372
aag2493
ag2494
ag2495
a(lp4495
I657
ag4372
aag2498
ag2499
ag2500
ag2501
ag2502
ag2503
ag2504
ag2505
a(lp4496
I668
ag4372
aag2508
ag2509
ag2510
a(lp4497
I672
ag4372
aag2514
ag2515
a(lp4498
I676
ag4372
aag2519
ag2520
a(lp4499
I679
ag4372
aag2523
ag2524
ag2525
ag2526
a(lp4500
I684
ag4372
aag2530
ag2531
a(lp4501
I687
ag4372
aag2534
ag2535
ag2536
ag2537
ag2538
ag2539
ag2540
ag2541
a(lp4502
I696
ag4372
aag2544
ag2545
ag2546
ag2547
a(lp4503
I701
ag4372
aag2550
ag2551
ag2552
ag2553
ag2554
ag2555
ag2556
ag2557
ag2558
a(lp4504
I711
ag4372
aag2562
ag2563
ag2564
ag2565
a(lp4505
I716
ag4372
aag2569
ag2570
a(lp4506
I719
ag4372
aag2573
ag2574
ag2575
ag2576
ag2577
ag2578
a(lp4507
I726
ag4372
aag2582
ag2583
a(lp4508
I729
ag4372
aag2586
ag2587
ag2588
ag2589
ag2590
a(lp4509
I735
ag4372
aag2594
ag2595
ag2596
a(lp4510
I739
ag4372
aag2599
ag2600
ag2601
ag2602
ag2603
a(lp4511
I745
ag4372
aag2606
ag2607
ag2608
ag2609
a(lp4512
I750
ag4372
aag2613
ag2614
ag2615
a(lp4513
I754
ag4372
aag2618
ag2619
ag2620
ag2621
ag2622
a(lp4514
I760
ag4372
aag2625
ag2626
ag2627
ag2628
ag2629
ag2630
ag2631
ag2632
ag2633
ag2634
a(lp4515
I771
ag4372
aag2638
ag2639
ag2640
a(lp4516
I775
ag4372
aag2644
ag2645
ag2646
a(lp4517
I779
ag4372
aag2650
ag2651
ag2652
a(lp4518
I783
ag4372
aag2655
ag2656
ag2657
ag2658
a(lp4519
I789
ag4372
aag2661
ag2662
ag2663
ag2664
ag2665
ag2666
ag2667
ag2668
a(lp4520
I798
ag4372
aag2672
ag2673
ag2674
ag2675
a(lp4521
I803
ag4372
aag2679
ag2680
ag2681
a(lp4522
I807
ag4372
aag2685
ag2686
ag2687
a(lp4523
I811
ag4372
aag2691
ag2692
ag2693
ag2694
ag2695
a(lp4524
I817
ag4372
aag2699
ag2700
ag2701
a(lp4525
I821
ag4372
aag2705
ag2706
a(lp4526
I824
ag4372
aag2709
ag2710
ag2711
ag2712
ag2713
ag2714
ag2715
ag2716
ag2717
a(lp4527
I834
ag4372
aag2721
ag2722
ag2723
a(lp4528
I838
ag4372
aag2727
ag2728
ag2729
a(lp4529
I842
ag4372
aag2733
ag2734
ag2735
a(lp4530
I846
ag4372
aag2738
a(lp4531
I848
ag4372
aag2741
ag2742
ag2743
ag2744
ag2745
a(lp4532
I854
ag4372
aag2749
ag2750
ag2751
a(lp4533
I859
ag4372
aag2755
ag2756
a(lp4534
I862
ag4372
aag2760
ag2761
a(lp4535
I865
ag4372
aag2765
ag2766
ag2767
a(lp4536
I870
ag4372
aag2771
ag2772
ag2773
a(lp4537
I874
ag4372
aag2777
ag2778
ag2779
ag2780
a(lp4538
I879
ag4372
aag2783
ag2784
ag2785
a(lp4539
I884
ag4372
aag2789
ag2790
ag2791
ag2792
a(lp4540
I889
ag4372
aag2796
ag2797
ag2798
a(lp4541
I893
ag4372
aag2802
ag2803
ag2804
a(lp4542
I897
ag4372
aag2808
ag2809
ag2810
a(lp4543
I901
ag4372
aag2814
ag2815
ag2816
a(lp4544
I905
ag4372
aag2819
a(lp4545
I907
ag4372
aag2822
ag2823
ag2824
a(lp4546
I911
ag4372
aag2827
ag2828
ag2829
ag2830
ag2831
ag2832
ag2833
ag2834
ag2835
a(lp4547
I922
ag4372
aag2839
ag2840
a(lp4548
I925
ag4372
aag2844
ag2845
ag2846
a(lp4549
I929
ag4372
aag2849
ag2850
ag2851
ag2852
ag2853
a(lp4550
I935
ag4372
aag2857
ag2858
ag2859
ag2860
a(lp4551
I940
ag4372
aag2864
ag2865
ag2866
a(lp4552
I944
ag4372
aag2869
a(lp4553
I946
ag4372
aag2872
ag2873
ag2874
ag2875
ag2876
ag2877
ag2878
a(lp4554
I954
ag4372
aag2881
ag2882
ag2883
ag2884
ag2885
ag2886
ag2887
a(lp4555
I962
ag4372
aag2890
ag2891
ag2892
a(lp4556
I967
ag4372
aag2895
ag2896
ag2897
ag2898
ag2899
ag2900
a(lp4557
I974
ag4372
aag2904
ag2905
ag2906
a(lp4558
I978
ag4372
aag2909
ag2910
ag2911
ag2912
ag2913
ag2914
a(lp4559
I985
ag4372
aag2917
ag2918
ag2919
ag2920
ag2921
ag2922
ag2923
a(lp4560
I993
ag4372
aag2927
ag2928
ag2929
a(lp4561
I997
ag4372
aag2932
ag2933
ag2934
ag2935
ag2936
ag2937
a(lp4562
I1004
ag4372
aag2940
ag2941
ag2942
ag2943
ag2944
ag2945
a(lp4563
I1011
ag4372
aag2948
a(lp4564
I1013
ag4372
aag2951
ag2952
ag2953
ag2954
ag2955
ag2956
ag2957
ag2958
ag2959
ag2960
ag2961
ag2962
a(lp4565
I1026
ag4372
aag2965
ag2966
ag2967
ag2968
ag2969
a(lp4566
I1032
ag4372
aag2973
ag2974
ag2975
ag2976
a(lp4567
I1037
ag4372
aag2979
ag2980
ag2981
ag2982
ag2983
a(lp4568
I1043
ag4372
aag2986
ag2987
a(lp4569
I1046
ag4372
aag2990
ag2991
ag2992
ag2993
ag2994
a(lp4570
I1052
ag4372
aag2998
ag2999
ag3000
ag3001
a(lp4571
I1057
ag4372
aag3005
ag3006
ag3007
ag3008
a(lp4572
I1062
ag4372
aag3011
ag3012
ag3013
ag3014
ag3015
a(lp4573
I1069
ag4372
aag3018
ag3019
ag3020
ag3021
ag3022
a(lp4574
I1075
ag4372
aag3025
ag3026
ag3027
ag3028
ag3029
a(lp4575
I1082
ag4372
aag3032
ag3033
ag3034
ag3035
ag3036
a(lp4576
I1088
ag4372
aag3039
ag3040
ag3041
ag3042
ag3043
ag3044
a(lp4577
I1096
ag4372
aag3047
ag3048
ag3049
ag3050
ag3051
a(lp4578
I1102
ag4372
aag3054
ag3055
ag3056
ag3057
a(lp4579
I1107
ag4372
aag3061
ag3062
a(lp4580
I1110
ag4372
aag3066
ag3067
ag3068
ag3069
ag3070
a(lp4581
I1116
ag4372
aag3074
ag3075
ag3076
a(lp4582
I1120
ag4372
aag3079
ag3080
ag3081
ag3082
a(lp4583
I1125
ag4372
aag3085
ag3086
ag3087
ag3088
ag3089
a(lp4584
I1132
ag4372
aag3093
ag3094
ag3095
ag3096
a(lp4585
I1137
ag4372
aag3099
ag3100
ag3101
ag3102
a(lp4586
I1142
ag4372
aag3105
ag3106
ag3107
a(lp4587
I1146
ag4372
aag3111
ag3112
a(lp4588
I1149
ag4372
aag3116
ag3117
ag3118
a(lp4589
I1153
ag4372
aag3121
ag3122
ag3123
ag3124
ag3125
ag3126
ag3127
ag3128
a(lp4590
I1162
ag4372
aag3132
ag3133
a(lp4591
I1165
ag4372
aag3136
ag3137
ag3138
ag3139
a(lp4592
I1170
ag4372
aag3143
ag3144
ag3145
a(lp4593
I1174
ag4372
aag3149
ag3150
ag3151
ag3152
ag3153
a(lp4594
I1180
ag4372
aag3157
ag3158
a(lp4595
I1183
ag4372
aag3161
ag3162
ag3163
ag3164
ag3165
ag3166
ag3167
ag3168
ag3169
ag3170
ag3171
a(lp4596
I1195
ag4372
aag3175
ag3176
ag3177
ag3178
a(lp4597
I1200
ag4372
aag3182
ag3183
ag3184
a(lp4598
I1204
ag4372
aag3187
ag3188
ag3189
ag3191
ag3192
ag3193
ag3194
a(lp4599
I1212
ag4372
aag3198
ag3199
ag3200
a(lp4600
I1216
ag4372
aag3204
ag3205
a(lp4601
I1219
ag4372
aag3208
ag3209
ag3210
ag3211
a(lp4602
I1224
ag4372
aag3215
ag3216
ag3217
ag3218
a(lp4603
I1229
ag4372
aag3221
ag3222
ag3223
ag3224
a(lp4604
I1234
ag4372
aag3228
ag3229
a(lp4605
I1237
ag4372
aag3232
ag3233
ag3234
ag3235
ag3236
a(lp4606
I1244
ag4372
aag3240
ag3241
ag3242
a(lp4607
I1248
ag4372
aag3245
ag3246
ag3247
ag3248
ag3249
a(lp4608
I1254
ag4372
aag3252
ag3253
ag3254
ag3255
a(lp4609
I1259
ag4372
aag3258
ag3259
ag3260
ag3261
ag3262
ag3263
ag3264
ag3265
ag3266
ag3267
ag3268
ag3269
ag3270
ag3271
a(lp4610
I1275
ag4372
aag3275
ag3276
ag3277
a(lp4611
I1279
ag4372
aag3281
ag3282
ag3283
a(lp4612
I1283
ag4372
aag3287
ag3288
ag3289
a(lp4613
I1287
ag4372
aag3292
a(lp4614
I1289
ag4372
aag3295
ag3296
ag3297
ag3298
ag3299
ag3300
ag3301
ag3302
ag3303
a(lp4615
I1299
ag4372
aag3306
ag3307
ag3308
ag3309
a(lp4616
I1305
ag4372
aag3312
ag3313
ag3314
ag3315
ag3316
ag3317
ag3318
a(lp4617
I1313
ag4372
aag3322
ag3323
ag3324
a(lp4618
I1317
ag4372
aag3327
ag3328
ag3329
ag3330
ag3331
ag3332
ag3333
ag3334
ag3335
ag3336
ag3337
a(lp4619
I1329
ag4372
aag3340
ag3341
ag3342
ag3343
ag3344
a(lp4620
I1335
ag4372
aag3347
ag3348
ag3349
ag3350
ag3351
ag3352
a(lp4621
I1342
ag4372
aag3356
ag3357
a(lp4622
I1345
ag4372
aag3360
ag3361
ag3362
ag3363
a(lp4623
I1350
ag4372
aag3366
ag3367
ag3368
ag3369
ag3370
ag3371
a(lp4624
I1358
ag4372
aag3375
ag3376
ag3377
a(lp4625
I1362
ag4372
aag3381
ag3382
ag3383
ag3384
a(lp4626
I1367
ag4372
aag3387
ag3388
ag3389
ag3390
ag3391
a(lp4627
I1374
ag4372
aag3395
ag3396
ag3397
a(lp4628
I1378
ag4372
aag3400
ag3401
ag3402
ag3403
ag3404
ag3405
ag3406
ag3407
ag3408
ag3409
a(lp4629
I1390
ag4372
aag3412
ag3413
ag3414
a(lp4630
I1394
ag4372
aag3417
ag3418
ag3419
ag3420
ag3421
ag3422
ag3423
ag3424
ag3425
ag3426
a(lp4631
I1406
ag4372
aag3429
ag3430
ag3431
ag3432
a(lp4632
I1411
ag4372
aag3435
ag3436
ag3437
ag3438
a(lp4633
I1416
ag4372
aag3442
ag3443
ag3444
ag3445
a(lp4634
I1421
ag4372
aag3449
ag3450
ag3451
a(lp4635
I1425
ag4372
aag3455
ag3456
a(lp4636
I1428
ag4372
aag3460
ag3461
ag3462
a(lp4637
I1432
ag4372
aag3465
ag3466
ag3467
ag3468
a(lp4638
I1437
ag4372
aag3472
ag3473
ag3474
a(lp4639
I1441
ag4372
aag3477
ag3478
ag3479
ag3480
a(lp4640
I1447
ag4372
aag3484
ag3485
ag3486
a(lp4641
I1451
ag4372
aag3489
ag3490
ag3492
ag3493
ag3494
ag3495
ag3496
a(lp4642
I1459
ag4372
aag3499
ag3500
ag3501
ag3502
ag3503
ag3504
ag3505
ag3506
a(lp4643
I1469
ag4372
aag3510
ag3511
a(lp4644
I1472
ag4372
aag3515
ag3516
ag3517
a(lp4645
I1476
ag4372
aag3520
ag3521
ag3522
ag3523
a(lp4646
I1481
ag4372
aag3527
ag3528
ag3529
a(lp4647
I1485
ag4372
aag3533
ag3534
ag3535
ag3536
a(lp4648
I1490
ag4372
aag3540
ag3541
ag3542
a(lp4649
I1494
ag4372
aag3546
ag3547
ag3548
ag3549
a(lp4650
I1499
ag4372
aag3553
ag3554
ag3555
ag3556
a(lp4651
I1504
ag4372
aag3560
ag3561
ag3562
ag3563
a(lp4652
I1509
ag4372
aag3566
ag3567
ag3568
a(lp4653
I1513
ag4372
aag3571
ag3572
ag3573
ag3574
ag3575
ag3576
ag3577
ag3578
a(lp4654
I1522
ag4372
aag3581
ag3582
ag3583
a(lp4655
I1526
ag4372
aag3586
ag3587
ag3588
a(lp4656
I1530
ag4372
aag3592
ag3593
a(lp4657
I1533
ag4372
aag3596
ag3597
ag3598
ag3599
ag3600
ag3601
ag3602
a(lp4658
I1541
ag4372
aag3606
ag3607
ag3608
ag3609
a(lp4659
I1546
ag4372
aag3613
ag3614
ag3615
ag3616
a(lp4660
I1551
ag4372
aag3619
ag3620
ag3621
a(lp4661
I1555
ag4372
aag3624
ag3625
ag3626
ag3627
ag3628
ag3629
ag3630
a(lp4662
I1564
ag4372
aag3633
ag3634
ag3635
a(lp4663
I1568
ag4372
aag3639
ag3640
ag3641
a(lp4664
I1572
ag4372
aag3645
ag3646
ag3647
a(lp4665
I1577
ag4372
aag3651
ag3652
ag3653
a(lp4666
I1581
ag4372
aag3656
ag3657
ag3658
a(lp4667
I1586
ag4372
aag3662
ag3663
ag3664
a(lp4668
I1590
ag4372
aag3667
ag3668
ag3669
ag3670
ag3671
ag3672
a(lp4669
I1597
ag4372
aag3676
ag3677
a(lp4670
I1600
ag4372
aag3680
ag3681
ag3682
ag3683
a(lp4671
I1605
ag4372
aag3687
ag3688
a(lp4672
I1608
ag4372
aag3691
a(lp4673
I1610
ag4372
aag3694
ag3695
ag3696
ag3697
ag3698
ag3699
ag3700
ag3701
a(lp4674
I1619
ag4372
aag3704
ag3705
ag3706
ag3707
ag3708
a(lp4675
I1625
ag4372
aag3712
ag3713
ag3714
a(lp4676
I1629
ag4372
aag3718
ag3719
a(lp4677
I1632
ag4372
aag3722
ag3723
ag3724
ag3725
ag3726
a(lp4678
I1638
ag4372
aag3730
ag3731
a(lp4679
I1641
ag4372
aag3734
ag3735
ag3736
ag3737
a(lp4680
I1646
ag4372
aag3741
ag3742
ag3743
ag3744
a(lp4681
I1651
ag4372
aag3747
ag3748
ag3749
ag3750
ag3751
ag3752
ag3753
ag3754
ag3755
ag3756
ag3757
ag3758
a(lp4682
I1664
ag4372
aag3762
ag3763
a(lp4683
I1667
ag4372
aag3766
ag3767
ag3768
ag3769
a(lp4684
I1672
ag4372
aag3772
a(lp4685
I1674
ag4372
aag3775
ag3776
ag3777
ag3778
ag3779
ag3780
ag3781
ag3782
ag3783
ag3784
ag3785
a(lp4686
I1687
ag4372
aag3788
ag3789
ag3790
a(lp4687
I1691
ag4372
aag3794
ag3795
ag3796
ag3797
a(lp4688
I1696
ag4372
aag3800
ag3801
ag3802
a(lp4689
I1701
ag4372
aag3805
ag3806
ag3807
ag3808
ag3809
a(lp4690
I1707
ag4372
aag3812
ag3813
ag3814
ag3815
a(lp4691
I1712
ag4372
aag3818
ag3819
ag3820
ag3821
ag3822
ag3823
ag3824
ag3825
ag3826
ag3827
a(lp4692
I1724
ag4372
aag3831
ag3832
ag3833
a(lp4693
I1728
ag4372
aag3837
ag3838
a(lp4694
I1731
ag4372
aag3841
ag3842
ag3843
ag3844
ag3845
ag3846
ag3847
ag3848
ag3849
a(lp4695
I1742
ag4372
aag3853
ag3854
ag3855
a(lp4696
I1746
ag4372
aag3858
ag3859
ag3860
a(lp4697
I1750
ag4372
aag3864
ag3865
ag3866
ag3867
a(lp4698
I1755
ag4372
aag3870
ag3871
ag3872
a(lp4699
I1759
ag4372
aag3876
ag3877
a(lp4700
I1762
ag4372
aag3880
ag3881
ag3882
ag3883
ag3884
ag3885
a(lp4701
I1769
ag4372
aag3889
ag3890
ag3891
a(lp4702
I1773
ag4372
aag3895
ag3896
ag3897
a(lp4703
I1777
ag4372
aag3901
ag3902
a(lp4704
I1780
ag4372
aag3905
ag3906
ag3907
ag3908
ag3909
ag3910
ag3911
a(lp4705
I1789
ag4372
aag3915
ag3916
ag3917
a(lp4706
I1793
ag4372
aag3921
ag3922
a(lp4707
I1796
ag4372
aag3926
ag3927
ag3928
a(lp4708
I1800
ag4372
aag3932
ag3933
ag3934
ag3935
a(lp4709
I1805
ag4372
aag3939
ag3940
a(lp4710
I1808
ag4372
aag3944
ag3945
a(lp4711
I1811
ag4372
aag3948
a(lp4712
I1813
ag4372
aag3951
ag3952
ag3953
ag3954
ag3955
a(lp4713
I1819
ag4372
aag3958
ag3959
ag3960
ag3961
ag3962
ag3963
ag3964
a(lp4714
I1827
ag4372
aag3968
ag3969
a(lp4715
I1830
ag4372
aag3972
a(lp4716
I1832
ag4372
aag3975
ag3976
ag3977
ag3978
a(lp4717
I1837
ag4372
aag3981
ag3982
ag3983
ag3984
ag3985
ag3986
a(lp4718
I1844
ag4372
aag3990
ag3991
ag3992
ag3993
a(lp4719
I1849
ag4372
aag3997
ag3998
ag3999
a(lp4720
I1853
ag4372
aag4002
ag4003
ag4004
ag4005
a(lp4721
I1858
ag4372
aag4008
ag4009
ag4010
ag4011
ag4012
ag4013
ag4014
a(lp4722
I1866
ag4372
aag4018
ag4019
ag4020
a(lp4723
I1870
ag4372
aag4023
a(lp4724
I1872
ag4372
aag4026
ag4027
ag4028
a(lp4725
I1876
ag4372
aag4031
ag4032
ag4033
ag4034
ag4035
ag4036
ag4037
ag4038
ag4039
a(lp4726
I1887
ag4372
aag4043
ag4044
ag4045
a(lp4727
I1891
ag4372
aag4049
ag4050
ag4051
ag4052
a(lp4728
I1896
ag4372
aag4056
ag4057
ag4058
ag4059
a(lp4729
I1901
ag4372
aag4063
ag4064
a(lp4730
I1904
ag4372
aag4067
ag4068
ag4069
ag4070
ag4071
ag4072
ag4073
ag4074
a(lp4731
I1913
ag4372
aag4078
ag4079
ag4080
a(lp4732
I1917
ag4372
aag4083
ag4084
ag4085
ag4086
ag4087
a(lp4733
I1923
ag4372
aag4090
ag4091
ag4092
ag4093
ag4094
ag4095
ag4096
ag4097
ag4098
a(lp4734
I1933
ag4372
aag4102
ag4103
a(lp4735
I1936
ag4372
aag4106
ag4107
ag4108
ag4109
ag4110
ag4111
ag4112
a(lp4736
I1944
ag4372
aag4115
ag4116
ag4117
ag4118
ag4119
ag4120
ag4121
ag4122
ag4123
ag4124
ag4125
ag4126
a(lp4737
I1957
ag4372
aag4130
ag4131
ag4132
a(lp4738
I1961
ag4372
aag4135
ag4136
ag4137
ag4138
ag4139
ag4140
ag4141
ag4142
ag4143
ag4144
ag4145
a(lp4739
I1974
ag4372
aag4149
ag4150
ag4151
ag4152
a(lp4740
I1979
ag4372
aag4155
ag4156
ag4157
ag4158
ag4159
ag4160
ag4161
a(lp4741
I1987
ag4372
aag4164
ag4165
ag4166
ag4167
ag4168
a(lp4742
I1993
ag4372
aag4171
ag4172
ag4173
ag4174
ag4175
ag4176
ag4177
ag4178
ag4179
ag4180
a(lp4743
I2004
ag4372
aag4184
ag4185
a(lp4744
I2007
ag4372
aag4188
a(lp4745
I2009
ag4372
aag4191
ag4192
ag4193
ag4194
ag4195
ag4196
ag4197
a(lp4746
I2017
ag4372
aag4201
ag4202
ag4203
a(lp4747
I2021
ag4372
aag4207
ag4208
ag4209
ag4210
ag4211
a(lp4748
I2027
ag4372
aag4215
ag4216
ag4217
a(lp4749
I2031
ag4372
aag4221
ag4222
ag4223
a(lp4750
I2035
ag4372
aag4226
ag4227
ag4228
ag4229
ag4230
ag4231
ag4232
ag4233
ag4234
a(lp4751
I2045
ag4372
aag4238
ag4239
ag4240
a(lp4752
I2049
ag4372
aag4243
a(lp4753
I2051
ag4372
aag4246
ag4247
ag4248
a(lp4754
I2055
ag4372
aag4251
ag4252
ag4253
ag4254
ag4255
ag4256
ag4257
ag4258
ag4259
a(lp4755
I2066
ag4372
aag4263
ag4264
ag4265
a(lp4756
I2070
ag4372
aag4269
ag4270
a(lp4757
I2073
ag4372
aag4274
ag4275
ag4276
a(lp4758
I2077
ag4372
aag4280
ag4281
ag4282
ag4283
a(lp4759
I2082
ag4372
aag4287
ag4288
ag4289
a(lp4760
I2086
ag4372
aag4292
ag4293
ag4294
ag4295
a(lp4761
I2091
ag4372
aag4299
ag4300
a(lp4762
I2094
ag4372
aag4304
ag4305
ag4306
a(lp4763
I2098
ag4372
aag4310
ag4311
a(lp4764
I2101
ag4372
aag4315
ag4316
a(lp4765
I2104
ag4372
aag4320
ag4321
a(lp4766
I2107
ag4372
aag4325
ag4326
a(lp4767
I2110
ag4372
aag4330
ag4331
a(lp4768
I2113
ag4372
aag4334
a(lp4769
I2115
ag4372
aag4337
ag4338
ag4339
a(lp4770
I2119
ag4372
aag4342
ag4343
ag4344
ag4345
ag4346
ag4347
ag4348
ag4349
ag4350
a(lp4771
I2130
ag4372
aag4354
ag4355
a(lp4772
I2133
ag4372
aag4358
ag4359
ag4360
ag4361
ag4362
ag4363
ag4364
ag4365
a(lp4773
I2142
ag4372
aag4368
asS'text'
p4774
S'what should i not wear to a job interview? posted by hr | | preparing for a job interview when you are preparing for a job interview you need to remember that the way you dress can make or break you. people need clothes, but more than the necessity, it can not be denied that those who know how to dress well, for either an ordinary day or a special occasion will create impressions that are positive. for us to come up with the things you have to remind your self before facing your interviewer, let us identify those clothes, and even accessories that would not be flattering at all. wild colors are not hot. you could be the hottest person with those red top-to-toe get up. as much as possible wear something that is subtle in color but would make you looks flattering but not too loud. remember that you are there for an interview and not for a night out. it is you, not your bag. when you are out for a job interview, do not bring with you a heavily printed bag, purses are better options and please choose a conservative color that could go along with your dress. short skirt, short chance. never wear an above the knee skirt. your legs may be the silkiest in town but being an interviewee does not require you to wear this type of skirt. you would look unprofessional. you are not a christmas tree. jewelry and accessories could really be good add-ons for your looks. for interviews, job interviews, make sure that you do not wear too much. for example earrings, do not show off that you have more than one piercing per ear by wearing more than one earring. tie for him. for men, the safest to wear is a collared shirt but it would be also more professional to wear a long-sleeved top with tie. never wear turtle-neck for an interview. you may just end up sweaty and out of fashion. you do not have to be a power dresser or a head turner when you wear clothes for a job interview. you just have to remember the basic reminders of looking professional and presentable. this article would definitely be a benefit for those who are preparing for a job interview, but do not have the idea of how it is to be in a job interview. no comments \xc2\xbb'
p4775
sS'cleanWordMap'
p4776
(lp4777
g1681
ag1697
ag1704
ag1716
ag1731
ag1735
ag1757
ag1762
ag1792
ag1812
ag1817
ag1834
ag1845
ag1869
ag1880
ag1894
ag1906
ag1919
ag1927
ag1933
ag1968
ag2001
ag2030
ag2047
ag2054
ag2066
ag2079
ag2089
ag2102
ag2111
ag2128
ag2136
ag2162
ag2178
ag2187
ag2211
ag2237
ag2252
ag2267
ag2282
ag2295
ag2300
ag2304
ag2322
ag2337
ag2343
ag2363
ag2381
ag2404
ag2410
ag2430
ag2441
ag2459
ag2468
ag2491
ag2496
ag2506
ag2521
ag2532
ag2542
ag2548
ag2571
ag2584
ag2597
ag2604
ag2616
ag2623
ag2653
ag2659
ag2707
ag2739
ag2781
ag2820
ag2825
ag2847
ag2870
ag2879
ag2888
ag2893
ag2907
ag2915
ag2930
ag2938
ag2949
ag2963
ag2977
ag2984
ag2988
ag3009
ag3016
ag3023
ag3030
ag3037
ag3045
ag3052
ag3077
ag3083
ag3097
ag3103
ag3119
ag3134
ag3159
ag3185
ag3206
ag3219
ag3230
ag3243
ag3250
ag3256
ag3293
ag3304
ag3310
ag3325
ag3338
ag3345
ag3358
ag3364
ag3385
ag3398
ag3410
ag3415
ag3427
ag3433
ag3463
ag3475
ag3487
ag3497
ag3518
ag3564
ag3569
ag3579
ag3584
ag3594
ag3617
ag3622
ag3631
ag3654
ag3665
ag3678
ag3692
ag3702
ag3720
ag3732
ag3745
ag3764
ag3773
ag3786
ag3798
ag3803
ag3810
ag3816
ag3839
ag3856
ag3868
ag3878
ag3903
ag3949
ag3956
ag3973
ag3979
ag4000
ag4006
ag4024
ag4029
ag4065
ag4081
ag4088
ag4104
ag4113
ag4133
ag4153
ag4162
ag4169
ag4189
ag4224
ag4244
ag4249
ag4290
ag4335
ag4340
ag4356
ag4366
asS'lines'
p4778
(lp4779
VWhat Should I NOT Wear to a Job Interview?\u000a
p4780
aVPosted by HR | | Preparing for a job interview\u000a
p4781
aVWhen you are preparing for a job interview you need to remember that the way you dress can make or break you. People need clothes, but more than the necessity, it can not be denied that those who know how to dress well, for either an ordinary day or a special occasion will create impressions that are positive. For us to come up with the things you have to remind your self before facing your interviewer, let us identify those clothes, and even accessories that would not be flattering at all.\u000a
p4782
aVWild colors are not hot.\u000a
p4783
aVYou could be the hottest person with those red top-to-toe get up. As much as possible wear something that is subtle in color but would make you looks flattering but not too loud. Remember that you are there for an interview and not for a night out.\u000a
p4784
aVIt is you, not your bag.\u000a
p4785
aVWhen you are out for a job interview, do not bring with you a heavily printed bag, purses are better options and please choose a conservative color that could go along with your dress.\u000a
p4786
aVShort skirt, short chance.\u000a
p4787
aVNever wear an above the knee skirt. Your legs may be the silkiest in town but being an interviewee does not require you to wear this type of skirt. You would look unprofessional.\u000a
p4788
aVYou are not a Christmas tree.\u000a
p4789
aVJewelry and accessories could really be good add-ons for your looks. For interviews, job interviews, make sure that you do not wear too much. For example earrings, do not show off that you have more than one piercing per ear by wearing more than one earring.\u000a
p4790
aVTie for him.\u000a
p4791
aVFor men, the safest to wear is a collared shirt but it would be also more professional to wear a long-sleeved top with tie. Never wear turtle-neck for an interview. You may just end up sweaty and out of fashion.\u000a
p4792
aVYou do not have to be a power dresser or a head turner when you wear clothes for a job interview. You just have to remember the basic reminders of looking professional and presentable. This article would definitely be a benefit for those who are preparing for a job interview, but do not have the idea of how it is to be in a job interview.\u000a
p4793
aVNo Comments 
p4794
asS'docType'
p4795
S'src'
p4796
sS'newfmap'
p4797
(lp4798
g4
ag8
ag10
ag12
ag14
ag17
ag19
ag21
ag26
ag28
ag30
ag32
ag35
ag37
ag39
ag41
ag44
ag46
ag48
ag50
ag53
ag55
ag57
ag62
ag64
ag66
ag71
ag73
ag75
ag77
ag80
ag82
ag84
ag89
ag91
ag98
ag100
ag104
ag107
ag109
ag111
ag113
ag116
ag118
ag120
ag122
ag125
ag127
ag129
ag131
ag134
ag136
ag138
ag140
ag143
ag145
ag147
ag149
ag152
ag154
ag156
ag158
ag161
ag163
ag165
ag167
ag170
ag172
ag174
ag176
ag179
ag181
ag183
ag185
ag188
ag190
ag192
ag194
ag197
ag199
ag201
ag203
ag206
ag208
ag210
ag212
ag215
ag217
ag219
ag221
ag224
ag226
ag228
ag230
ag233
ag235
ag237
ag239
ag242
ag244
ag246
ag248
ag251
ag253
ag255
ag257
ag260
ag262
ag264
ag266
ag269
ag271
ag273
ag275
ag278
ag280
ag282
ag284
ag287
ag289
ag291
ag293
ag296
ag298
ag300
ag302
ag305
ag307
ag309
ag311
ag314
ag316
ag318
ag320
ag323
ag325
ag327
ag329
ag332
ag334
ag336
ag338
ag341
ag343
ag345
ag347
ag350
ag352
ag354
ag356
ag359
ag361
ag363
ag365
ag368
ag370
ag372
ag374
ag377
ag379
ag381
ag383
ag386
ag388
ag390
ag392
ag395
ag397
ag399
ag401
ag404
ag406
ag408
ag410
ag413
ag415
ag417
ag419
ag422
ag424
ag426
ag428
ag431
ag433
ag435
ag437
ag440
ag442
ag444
ag446
ag449
ag451
ag453
ag455
ag458
ag460
ag462
ag464
ag467
ag469
ag471
ag473
ag476
ag478
ag480
ag482
ag485
ag487
ag489
ag491
ag494
ag496
ag498
ag500
ag503
ag505
ag507
ag509
ag512
ag514
ag516
ag518
ag521
ag523
ag525
ag527
ag530
ag532
ag534
ag536
ag539
ag541
ag543
ag545
ag548
ag550
ag552
ag554
ag557
ag559
ag561
ag563
ag566
ag568
ag570
ag572
ag575
ag577
ag579
ag581
ag584
ag586
ag588
ag590
ag593
ag595
ag597
ag599
ag602
ag604
ag606
ag608
ag611
ag613
ag615
ag617
ag620
ag622
ag624
ag626
ag629
ag631
ag633
ag635
ag638
ag640
ag642
ag644
ag647
ag649
ag651
ag653
ag656
ag658
ag660
ag665
ag667
ag669
ag671
ag674
ag676
ag678
ag680
ag683
ag685
ag687
ag689
ag692
ag694
ag696
ag698
ag701
ag703
ag705
ag707
ag710
ag712
ag714
ag716
ag719
ag721
ag723
ag725
ag728
ag730
ag732
ag734
ag737
ag739
ag741
ag743
ag746
ag748
ag750
ag752
ag755
ag757
ag759
ag761
ag764
ag766
ag768
ag770
ag773
ag775
ag777
ag779
ag782
ag784
ag786
ag788
ag791
ag793
ag795
ag797
ag800
ag802
ag804
ag806
ag809
ag811
ag813
ag815
ag818
ag820
ag822
ag824
ag827
ag829
ag831
ag833
ag836
ag838
ag840
ag842
ag845
ag847
ag849
ag851
ag854
ag856
ag858
ag860
ag863
ag865
ag867
ag869
ag872
ag874
ag876
ag878
ag881
ag883
ag885
ag887
ag890
ag892
ag894
ag896
ag899
ag901
ag903
ag905
ag908
ag910
ag912
ag914
ag917
ag919
ag921
ag923
ag926
ag928
ag930
ag932
ag935
ag937
ag939
ag941
ag944
ag946
ag948
ag950
ag953
ag955
ag957
ag959
ag962
ag964
ag966
ag968
ag971
ag973
ag975
ag977
ag980
ag982
ag984
ag986
ag989
ag991
ag993
ag995
ag998
ag1000
ag1002
ag1004
ag1007
ag1009
ag1011
ag1013
ag1016
ag1018
ag1020
ag1022
ag1025
ag1027
ag1029
ag1031
ag1034
ag1036
ag1038
ag1040
ag1043
ag1045
ag1047
ag1049
ag1052
ag1054
ag1056
ag1058
ag1061
ag1063
ag1065
ag1067
ag1070
ag1072
ag1074
ag1076
ag1079
ag1081
ag1083
ag1085
ag1088
ag1090
ag1092
ag1094
ag1097
ag1099
ag1101
ag1103
ag1106
ag1108
ag1110
ag1112
ag1115
ag1117
ag1119
ag1121
ag1124
ag1126
ag1128
ag1130
ag1133
ag1135
ag1137
ag1139
ag1142
ag1144
ag1146
ag1148
ag1151
ag1153
ag1155
ag1157
ag1160
ag1162
ag1164
ag1166
ag1169
ag1171
ag1173
ag1175
ag1178
ag1180
ag1182
ag1184
ag1187
ag1189
ag1191
ag1193
ag1196
ag1198
ag1200
ag1202
ag1205
ag1207
ag1209
ag1211
ag1214
ag1216
ag1218
ag1220
ag1223
ag1225
ag1227
ag1229
ag1232
ag1234
ag1236
ag1238
ag1241
ag1243
ag1245
ag1247
ag1250
ag1252
ag1254
ag1256
ag1259
ag1261
ag1263
ag1265
ag1268
ag1270
ag1272
ag1274
ag1277
ag1279
ag1281
ag1283
ag1286
ag1288
ag1290
ag1292
ag1295
ag1297
ag1299
ag1301
ag1304
ag1306
ag1308
ag1310
ag1313
ag1315
ag1317
ag1319
ag1322
ag1324
ag1326
ag1328
ag1331
ag1333
ag1335
ag1337
ag1340
ag1342
ag1344
ag1346
ag1349
ag1351
ag1353
ag1355
ag1358
ag1360
ag1362
ag1364
ag1367
ag1369
ag1371
ag1373
ag1376
ag1378
ag1380
ag1382
ag1385
ag1387
ag1389
ag1391
ag1394
ag1396
ag1398
ag1400
ag1403
ag1405
ag1407
ag1409
ag1412
ag1414
ag1416
ag1418
ag1421
ag1423
ag1425
ag1427
ag1430
ag1432
ag1434
ag1436
ag1439
ag1441
ag1443
ag1445
ag1448
ag1450
ag1452
ag1454
ag1457
ag1459
ag1461
ag1463
ag1466
ag1468
ag1470
ag1475
ag1477
ag1479
ag1481
ag1484
ag1486
ag1488
ag1490
ag1493
ag1495
ag1497
ag1499
ag1502
ag1504
ag1506
ag1508
ag1511
ag1513
ag1515
ag1517
ag1520
ag1522
ag1524
ag1526
ag1529
ag1531
ag1533
ag1535
ag1538
ag1540
ag1542
ag1544
ag1547
ag1549
ag1551
ag1553
ag1556
ag1558
ag1560
ag1562
ag1565
ag1567
ag1569
ag1571
ag1574
ag1576
ag1578
ag1583
ag1585
ag1587
ag1592
ag1594
ag1596
ag1598
ag1601
ag1603
ag1605
ag1607
ag1610
ag1612
ag1619
ag1621
ag1625
ag1628
ag1630
ag1632
ag1634
ag1637
ag1639
ag1641
asS'featureMap'
p4799
(lp4800
(lp4801
I18
aI21
ag5
ag6
ag9
ag11
ag13
aa(lp4802
I28
aI30
ag15
ag16
ag18
ag20
ag22
aa(lp4803
I32
aI40
ag24
ag25
ag27
ag29
ag31
aa(lp4804
I43
aI48
ag33
ag34
ag36
ag38
ag40
aa(lp4805
I53
aI54
ag42
ag43
ag45
ag47
ag49
aa(lp4806
I60
aI68
ag51
ag52
ag54
ag56
ag58
aa(lp4807
I76
aI78
ag60
ag61
ag63
ag65
ag67
aa(lp4808
I80
aI88
ag69
ag70
ag72
ag74
ag76
aa(lp4809
I103
aI111
ag78
ag79
ag81
ag83
ag85
aa(lp4810
I119
aI121
ag87
ag88
ag90
ag92
ag94
aa(lp4811
I123
aI131
ag96
ag97
ag99
ag101
ag103
aa(lp4812
I137
aI140
ag105
ag106
ag108
ag110
ag112
aa(lp4813
I145
aI152
ag114
ag115
ag117
ag119
ag121
aa(lp4814
I163
aI165
ag123
ag124
ag126
ag128
ag130
aa(lp4815
I171
aI175
ag132
ag133
ag135
ag137
ag139
aa(lp4816
I181
aI184
ag141
ag142
ag144
ag146
ag148
aa(lp4817
I189
aI193
ag150
ag151
ag153
ag155
ag157
aa(lp4818
I200
aI205
ag159
ag160
ag162
ag164
ag166
aa(lp4819
I207
aI210
ag168
ag169
ag171
ag173
ag175
aa(lp4820
I212
aI218
ag177
ag178
ag180
ag182
ag184
aa(lp4821
I239
aI247
ag186
ag187
ag189
ag191
ag193
aa(lp4822
I264
aI269
ag195
ag196
ag198
ag200
ag202
aa(lp4823
I286
aI289
ag204
ag205
ag207
ag209
ag211
aa(lp4824
I298
aI302
ag213
ag214
ag216
ag218
ag220
aa(lp4825
I304
aI307
ag222
ag223
ag225
ag227
ag229
aa(lp4826
I314
aI319
ag231
ag232
ag234
ag236
ag238
aa(lp4827
I324
aI331
ag240
ag241
ag243
ag245
ag247
aa(lp4828
I333
aI335
ag249
ag250
ag252
ag254
ag256
aa(lp4829
I342
aI348
ag258
ag259
ag261
ag263
ag265
aa(lp4830
I350
aI357
ag267
ag268
ag270
ag272
ag274
aa(lp4831
I364
aI369
ag276
ag277
ag279
ag281
ag283
aa(lp4832
I371
aI381
ag285
ag286
ag288
ag290
ag292
aa(lp4833
I392
aI399
ag294
ag295
ag297
ag299
ag301
aa(lp4834
I406
aI407
ag303
ag304
ag306
ag308
ag310
aa(lp4835
I412
aI415
ag312
ag313
ag315
ag317
ag319
aa(lp4836
I429
aI434
ag321
ag322
ag324
ag326
ag328
aa(lp4837
I448
aI453
ag330
ag331
ag333
ag335
ag337
aa(lp4838
I460
aI463
ag339
ag340
ag342
ag344
ag346
aa(lp4839
I472
aI477
ag348
ag349
ag351
ag353
ag355
aa(lp4840
I484
aI494
ag357
ag358
ag360
ag362
ag364
aa(lp4841
I497
aI499
ag366
ag367
ag369
ag371
ag373
aa(lp4842
I501
aI502
ag375
ag376
ag378
ag380
ag382
aa(lp4843
I504
aI511
ag384
ag385
ag387
ag389
ag391
aa(lp4844
I519
aI525
ag393
ag394
ag396
ag398
ag400
aa(lp4845
I532
aI535
ag402
ag403
ag405
ag407
ag409
aa(lp4846
I537
aI547
ag411
ag412
ag414
ag416
ag418
aa(lp4847
I554
aI558
ag420
ag421
ag423
ag425
ag427
aa(lp4848
I567
aI576
ag429
ag430
ag432
ag434
ag436
aa(lp4849
I586
aI589
ag438
ag439
ag441
ag443
ag445
aa(lp4850
I591
aI596
ag447
ag448
ag450
ag452
ag454
aa(lp4851
I606
aI608
ag456
ag457
ag459
ag461
ag463
aa(lp4852
I615
aI619
ag465
ag466
ag468
ag470
ag472
aa(lp4853
I628
aI634
ag474
ag475
ag477
ag479
ag481
aa(lp4854
I636
aI641
ag483
ag484
ag486
ag488
ag490
aa(lp4855
I654
aI656
ag492
ag493
ag495
ag497
ag499
aa(lp4856
I658
aI667
ag501
ag502
ag504
ag506
ag508
aa(lp4857
I669
aI671
ag510
ag511
ag513
ag515
ag517
aa(lp4858
I680
aI683
ag519
ag520
ag522
ag524
ag526
aa(lp4859
I688
aI695
ag528
ag529
ag531
ag533
ag535
aa(lp4860
I697
aI700
ag537
ag538
ag540
ag542
ag544
aa(lp4861
I702
aI710
ag546
ag547
ag549
ag551
ag553
aa(lp4862
I720
aI725
ag555
ag556
ag558
ag560
ag562
aa(lp4863
I730
aI734
ag564
ag565
ag567
ag569
ag571
aa(lp4864
I740
aI744
ag573
ag574
ag576
ag578
ag580
aa(lp4865
I746
aI749
ag582
ag583
ag585
ag587
ag589
aa(lp4866
I755
aI759
ag591
ag592
ag594
ag596
ag598
aa(lp4867
I761
aI770
ag600
ag601
ag603
ag605
ag607
aa(lp4868
I784
aI787
ag609
ag610
ag612
ag614
ag616
aa(lp4869
I790
aI797
ag618
ag619
ag621
ag623
ag625
aa(lp4870
I825
aI833
ag627
ag628
ag630
ag632
ag634
aa(lp4871
I849
aI853
ag636
ag637
ag639
ag641
ag643
aa(lp4872
I880
aI882
ag645
ag646
ag648
ag650
ag652
aa(lp4873
I908
aI910
ag654
ag655
ag657
ag659
ag661
aa(lp4874
I912
aI920
ag663
ag664
ag666
ag668
ag670
aa(lp4875
I930
aI934
ag672
ag673
ag675
ag677
ag679
aa(lp4876
I947
aI953
ag681
ag682
ag684
ag686
ag688
aa(lp4877
I955
aI961
ag690
ag691
ag693
ag695
ag697
aa(lp4878
I963
aI965
ag699
ag700
ag702
ag704
ag706
aa(lp4879
I968
aI973
ag708
ag709
ag711
ag713
ag715
aa(lp4880
I979
aI984
ag717
ag718
ag720
ag722
ag724
aa(lp4881
I986
aI992
ag726
ag727
ag729
ag731
ag733
aa(lp4882
I998
aI1003
ag735
ag736
ag738
ag740
ag742
aa(lp4883
I1005
aI1010
ag744
ag745
ag747
ag749
ag751
aa(lp4884
I1014
aI1025
ag753
ag754
ag756
ag758
ag760
aa(lp4885
I1027
aI1031
ag762
ag763
ag765
ag767
ag769
aa(lp4886
I1038
aI1042
ag771
ag772
ag774
ag776
ag778
aa(lp4887
I1044
aI1045
ag780
ag781
ag783
ag785
ag787
aa(lp4888
I1047
aI1051
ag789
ag790
ag792
ag794
ag796
aa(lp4889
I1063
aI1067
ag798
ag799
ag801
ag803
ag805
aa(lp4890
I1070
aI1074
ag807
ag808
ag810
ag812
ag814
aa(lp4891
I1076
aI1080
ag816
ag817
ag819
ag821
ag823
aa(lp4892
I1083
aI1087
ag825
ag826
ag828
ag830
ag832
aa(lp4893
I1089
aI1094
ag834
ag835
ag837
ag839
ag841
aa(lp4894
I1097
aI1101
ag843
ag844
ag846
ag848
ag850
aa(lp4895
I1103
aI1106
ag852
ag853
ag855
ag857
ag859
aa(lp4896
I1121
aI1124
ag861
ag862
ag864
ag866
ag868
aa(lp4897
I1126
aI1130
ag870
ag871
ag873
ag875
ag877
aa(lp4898
I1138
aI1141
ag879
ag880
ag882
ag884
ag886
aa(lp4899
I1143
aI1145
ag888
ag889
ag891
ag893
ag895
aa(lp4900
I1154
aI1161
ag897
ag898
ag900
ag902
ag904
aa(lp4901
I1166
aI1169
ag906
ag907
ag909
ag911
ag913
aa(lp4902
I1184
aI1194
ag915
ag916
ag918
ag920
ag922
aa(lp4903
I1205
aI1211
ag924
ag925
ag927
ag929
ag931
aa(lp4904
I1220
aI1223
ag933
ag934
ag936
ag938
ag940
aa(lp4905
I1230
aI1233
ag942
ag943
ag945
ag947
ag949
aa(lp4906
I1238
aI1242
ag951
ag952
ag954
ag956
ag958
aa(lp4907
I1249
aI1253
ag960
ag961
ag963
ag965
ag967
aa(lp4908
I1255
aI1258
ag969
ag970
ag972
ag974
ag976
aa(lp4909
I1260
aI1273
ag978
ag979
ag981
ag983
ag985
aa(lp4910
I1290
aI1298
ag987
ag988
ag990
ag992
ag994
aa(lp4911
I1300
aI1303
ag996
ag997
ag999
ag1001
ag1003
aa(lp4912
I1306
aI1312
ag1005
ag1006
ag1008
ag1010
ag1012
aa(lp4913
I1318
aI1328
ag1014
ag1015
ag1017
ag1019
ag1021
aa(lp4914
I1330
aI1334
ag1023
ag1024
ag1026
ag1028
ag1030
aa(lp4915
I1336
aI1341
ag1032
ag1033
ag1035
ag1037
ag1039
aa(lp4916
I1346
aI1349
ag1041
ag1042
ag1044
ag1046
ag1048
aa(lp4917
I1351
aI1357
ag1050
ag1051
ag1053
ag1055
ag1057
aa(lp4918
I1368
aI1372
ag1059
ag1060
ag1062
ag1064
ag1066
aa(lp4919
I1379
aI1388
ag1068
ag1069
ag1071
ag1073
ag1075
aa(lp4920
I1391
aI1393
ag1077
ag1078
ag1080
ag1082
ag1084
aa(lp4921
I1395
aI1404
ag1086
ag1087
ag1089
ag1091
ag1093
aa(lp4922
I1407
aI1410
ag1095
ag1096
ag1098
ag1100
ag1102
aa(lp4923
I1412
aI1415
ag1104
ag1105
ag1107
ag1109
ag1111
aa(lp4924
I1433
aI1436
ag1113
ag1114
ag1116
ag1118
ag1120
aa(lp4925
I1442
aI1445
ag1122
ag1123
ag1125
ag1127
ag1129
aa(lp4926
I1452
aI1458
ag1131
ag1132
ag1134
ag1136
ag1138
aa(lp4927
I1460
aI1467
ag1140
ag1141
ag1143
ag1145
ag1147
aa(lp4928
I1477
aI1480
ag1149
ag1150
ag1152
ag1154
ag1156
aa(lp4929
I1510
aI1512
ag1158
ag1159
ag1161
ag1163
ag1165
aa(lp4930
I1514
aI1521
ag1167
ag1168
ag1170
ag1172
ag1174
aa(lp4931
I1523
aI1525
ag1176
ag1177
ag1179
ag1181
ag1183
aa(lp4932
I1527
aI1529
ag1185
ag1186
ag1188
ag1190
ag1192
aa(lp4933
I1534
aI1540
ag1194
ag1195
ag1197
ag1199
ag1201
aa(lp4934
I1552
aI1554
ag1203
ag1204
ag1206
ag1208
ag1210
aa(lp4935
I1556
aI1562
ag1212
ag1213
ag1215
ag1217
ag1219
aa(lp4936
I1565
aI1567
ag1221
ag1222
ag1224
ag1226
ag1228
aa(lp4937
I1582
aI1584
ag1230
ag1231
ag1233
ag1235
ag1237
aa(lp4938
I1591
aI1596
ag1239
ag1240
ag1242
ag1244
ag1246
aa(lp4939
I1601
aI1604
ag1248
ag1249
ag1251
ag1253
ag1255
aa(lp4940
I1611
aI1618
ag1257
ag1258
ag1260
ag1262
ag1264
aa(lp4941
I1620
aI1624
ag1266
ag1267
ag1269
ag1271
ag1273
aa(lp4942
I1633
aI1637
ag1275
ag1276
ag1278
ag1280
ag1282
aa(lp4943
I1642
aI1645
ag1284
ag1285
ag1287
ag1289
ag1291
aa(lp4944
I1652
aI1663
ag1293
ag1294
ag1296
ag1298
ag1300
aa(lp4945
I1668
aI1671
ag1302
ag1303
ag1305
ag1307
ag1309
aa(lp4946
I1675
aI1686
ag1311
ag1312
ag1314
ag1316
ag1318
aa(lp4947
I1688
aI1690
ag1320
ag1321
ag1323
ag1325
ag1327
aa(lp4948
I1697
aI1699
ag1329
ag1330
ag1332
ag1334
ag1336
aa(lp4949
I1702
aI1706
ag1338
ag1339
ag1341
ag1343
ag1345
aa(lp4950
I1708
aI1711
ag1347
ag1348
ag1350
ag1352
ag1354
aa(lp4951
I1713
aI1723
ag1356
ag1357
ag1359
ag1361
ag1363
aa(lp4952
I1732
aI1740
ag1365
ag1366
ag1368
ag1370
ag1372
aa(lp4953
I1747
aI1749
ag1374
ag1375
ag1377
ag1379
ag1381
aa(lp4954
I1756
aI1758
ag1383
ag1384
ag1386
ag1388
ag1390
aa(lp4955
I1763
aI1768
ag1392
ag1393
ag1395
ag1397
ag1399
aa(lp4956
I1781
aI1787
ag1401
ag1402
ag1404
ag1406
ag1408
aa(lp4957
I1814
aI1818
ag1410
ag1411
ag1413
ag1415
ag1417
aa(lp4958
I1820
aI1826
ag1419
ag1420
ag1422
ag1424
ag1426
aa(lp4959
I1833
aI1836
ag1428
ag1429
ag1431
ag1433
ag1435
aa(lp4960
I1838
aI1843
ag1437
ag1438
ag1440
ag1442
ag1444
aa(lp4961
I1854
aI1857
ag1446
ag1447
ag1449
ag1451
ag1453
aa(lp4962
I1859
aI1865
ag1455
ag1456
ag1458
ag1460
ag1462
aa(lp4963
I1873
aI1875
ag1464
ag1465
ag1467
ag1469
ag1471
aa(lp4964
I1877
aI1885
ag1473
ag1474
ag1476
ag1478
ag1480
aa(lp4965
I1905
aI1912
ag1482
ag1483
ag1485
ag1487
ag1489
aa(lp4966
I1918
aI1922
ag1491
ag1492
ag1494
ag1496
ag1498
aa(lp4967
I1924
aI1932
ag1500
ag1501
ag1503
ag1505
ag1507
aa(lp4968
I1937
aI1943
ag1509
ag1510
ag1512
ag1514
ag1516
aa(lp4969
I1945
aI1956
ag1518
ag1519
ag1521
ag1523
ag1525
aa(lp4970
I1962
aI1972
ag1527
ag1528
ag1530
ag1532
ag1534
aa(lp4971
I1980
aI1986
ag1536
ag1537
ag1539
ag1541
ag1543
aa(lp4972
I1988
aI1992
ag1545
ag1546
ag1548
ag1550
ag1552
aa(lp4973
I1994
aI2003
ag1554
ag1555
ag1557
ag1559
ag1561
aa(lp4974
I2010
aI2016
ag1563
ag1564
ag1566
ag1568
ag1570
aa(lp4975
I2036
aI2044
ag1572
ag1573
ag1575
ag1577
ag1579
aa(lp4976
I2052
aI2054
ag1581
ag1582
ag1584
ag1586
ag1588
aa(lp4977
I2056
aI2064
ag1590
ag1591
ag1593
ag1595
ag1597
aa(lp4978
I2087
aI2090
ag1599
ag1600
ag1602
ag1604
ag1606
aa(lp4979
I2116
aI2118
ag1608
ag1609
ag1611
ag1613
ag1615
aa(lp4980
I2120
aI2128
ag1617
ag1618
ag1620
ag1622
ag1624
aa(lp4981
I2134
aI2141
ag1626
ag1627
ag1629
ag1631
ag1633
aa(lp4982
I2134
aI2141
ag1635
ag1636
ag1638
ag1640
ag1642
aasS'characterMap'
p4983
(lp4984
g1648
ag1650
ag1652
ag1654
ag4371
ag1659
ag1661
ag1662
ag1664
ag1666
ag1668
ag4373
ag1673
ag4374
ag1677
ag1679
ag1680
ag4375
ag1683
ag1684
ag1686
ag1687
ag4376
ag1692
ag1693
ag4377
ag1696
ag4378
ag1699
ag1701
ag1702
ag4379
ag1706
ag1707
ag1708
ag1709
ag1710
ag1711
ag1713
ag1714
ag1715
a(lp4985
I41
aS'?'
p4986
aag4380
ag1718
ag1720
ag1721
ag1722
ag1723
ag1724
ag4381
ag1728
ag1729
ag4382
ag1733
ag1734
ag4383
a(lp4987
I56
aS'|'
p4988
aag4384
a(lp4989
I58
ag4988
aag4385
ag1737
ag1738
ag1739
ag1740
ag1741
ag1742
ag1743
ag1744
ag1745
ag4386
ag1750
ag1752
ag1753
ag4387
ag1756
ag4388
ag1759
ag1760
ag1761
ag4389
ag1764
ag1765
ag1766
ag1767
ag1768
ag1769
ag1770
ag1771
ag1772
ag4390
ag1776
ag1777
ag1778
ag1779
ag4391
ag1783
ag1784
ag1785
ag4392
ag1789
ag1790
ag1791
ag4393
ag1794
ag1795
ag1796
ag1797
ag1798
ag1799
ag1800
ag1801
ag1802
ag4394
ag1806
ag1807
ag1808
ag4395
ag1811
ag4396
ag1814
ag1815
ag1816
ag4397
ag1819
ag1820
ag1821
ag1822
ag1823
ag1824
ag1825
ag1826
ag1827
ag4398
ag1831
ag1832
ag1833
ag4399
ag1836
ag1837
ag1838
ag1839
ag4400
ag1843
ag1844
ag4401
ag1847
ag1848
ag1849
ag1851
ag1852
ag1853
ag1854
ag1855
ag4402
ag1859
ag1860
ag1861
ag1862
ag4403
ag1866
ag1867
ag1868
ag4404
ag1871
ag1872
ag1873
ag4405
ag1877
ag1878
ag1879
ag4406
ag1882
ag1883
ag1884
ag1885
ag1886
ag4407
ag1890
ag1892
ag1893
ag4408
ag1896
ag1897
ag1898
ag1900
ag4409
ag1904
ag1905
ag4410
ag1908
ag1909
ag1910
ag1911
ag1912
ag4411
ag1916
ag1917
ag1918
a(lp4990
I198
aS'.'
p4991
aag4412
ag1921
ag1922
ag1923
ag1924
ag1925
ag1926
ag4413
ag1929
ag1930
ag1931
ag1932
ag4414
ag1935
ag1936
ag1937
ag1938
ag1939
ag1940
ag1941
a(lp4992
I219
aS','
p4993
aag4415
ag1945
ag1946
ag1947
ag4416
ag1951
ag1952
ag1953
ag1954
ag4417
ag1958
ag1959
ag1960
ag1961
ag4418
ag1965
ag1966
ag1967
ag4419
ag1970
ag1971
ag1972
ag1973
ag1974
ag1975
ag1976
ag1977
ag1978
a(lp4994
I248
ag4993
aag4420
ag1982
ag1983
ag4421
ag1987
ag1988
ag1989
ag4422
ag1993
ag1994
ag1995
ag4423
ag1999
ag2000
ag4424
ag2003
ag2004
ag2005
ag2006
ag2007
ag2008
ag4425
ag2012
ag2013
ag2014
ag2015
ag4426
ag2019
ag2020
ag2021
ag2022
ag2023
ag4427
ag2027
ag2028
ag2029
ag4428
ag2032
ag2033
ag2034
ag2035
ag4429
ag2039
ag2040
ag2041
ag4430
ag2045
ag2046
ag4431
ag2049
ag2050
ag2051
ag2052
ag2053
ag4432
ag2056
ag2057
ag2058
ag2059
a(lp4995
I308
ag4993
aag4433
ag2063
ag2064
ag2065
ag4434
ag2068
ag2069
ag2070
ag2071
ag2072
ag2073
ag4435
ag2077
ag2078
ag4436
ag2081
ag2082
ag2083
ag2084
ag2085
ag2086
ag2087
ag2088
ag4437
ag2091
ag2092
ag2093
ag4438
ag2097
ag2098
ag4439
ag2101
ag4440
ag2104
ag2105
ag2106
ag2107
ag2108
ag2109
ag2110
ag4441
ag2113
ag2114
ag2115
ag2116
ag2117
ag2118
ag2119
ag2120
ag4442
ag2124
ag2125
ag2126
ag2127
ag4443
ag2130
ag2131
ag2132
ag2133
ag2134
ag2135
ag4444
ag2138
ag2139
ag2140
ag2141
ag2142
ag2143
ag2144
ag2145
ag2146
ag2147
ag2148
ag4445
ag2152
ag2153
ag2154
ag2155
ag4446
ag2159
ag2160
ag2161
ag4447
ag2164
ag2165
ag2166
ag2167
ag2168
ag2169
ag2170
ag2171
a(lp4996
I400
ag4991
aag4448
ag2175
ag2176
ag2177
ag4449
ag2180
ag2181
ag4450
ag2185
ag2186
ag4451
ag2189
ag2190
ag2191
ag2192
ag4452
ag2196
ag2197
ag4453
ag2201
ag2202
ag2203
ag2204
ag4454
ag2208
ag2209
ag2210
ag4455
ag2213
ag2214
ag2215
ag2216
ag2217
ag2218
ag4456
ag2222
ag2223
ag2224
ag4457
ag2228
ag2229
ag2230
ag2231
ag4458
ag2235
ag2236
ag4459
ag2239
ag2240
ag2241
ag2242
ag2243
ag2244
ag4460
ag2248
ag2249
ag2250
ag2251
ag4461
ag2254
ag2255
ag2256
ag2257
ag4462
ag2261
ag2262
ag2263
ag2264
ag2265
ag2266
ag4463
ag2269
ag2270
ag2271
ag2272
ag2273
ag2274
ag4464
ag2278
ag2279
ag2280
ag2281
ag4465
ag2284
ag2285
ag2286
ag2287
ag2288
ag2289
ag2290
ag2291
ag2292
ag2293
ag2294
a(lp4997
I495
ag4993
aag4466
ag2297
ag2298
ag2299
ag4467
ag2302
ag2303
ag4468
ag2306
ag2307
ag2308
ag2309
ag2310
ag2311
ag2312
ag2313
ag4469
ag2317
ag2318
ag2319
ag2320
ag2321
ag4470
ag2324
ag2325
ag2326
ag2327
ag2328
ag2329
ag2330
a(lp4998
I526
ag4993
aag4471
ag2334
ag2335
ag2336
ag4472
ag2339
ag2340
ag2341
ag2342
ag4473
ag2345
ag2346
ag2347
ag2348
ag2349
ag2350
ag2351
ag2352
ag2353
ag2354
ag2355
ag4474
ag2359
ag2360
ag2361
ag2362
ag4475
ag2365
ag2366
ag2367
ag2368
ag2369
ag4476
ag2373
ag2374
ag2375
ag4477
ag2379
ag2380
ag4478
ag2383
ag2384
ag2385
ag2386
ag2387
ag2388
ag2389
ag2390
ag2391
ag2392
ag4479
ag2396
ag2397
ag4480
ag2401
ag2402
ag2403
a(lp4999
I584
ag4991
aag4481
ag2406
ag2407
ag2408
ag2409
ag4482
ag2412
ag2413
ag2414
ag2415
ag2416
ag2417
ag4483
ag2421
ag2422
ag2423
ag4484
ag2427
ag2428
ag2429
ag4485
ag2432
ag2433
ag2434
a(lp5000
I609
ag4991
aag4486
ag2438
ag2439
ag2440
ag4487
ag2443
ag2444
ag2445
ag2446
ag2447
ag4488
ag2451
ag2452
ag4489
ag2456
ag2457
ag2458
ag4490
ag2461
ag2462
ag2463
ag2464
ag2465
ag2466
ag2467
ag4491
ag2470
ag2471
ag2472
ag2473
ag2474
ag2475
ag4492
ag2479
ag2480
ag2481
ag2482
ag4493
ag2486
ag2487
ag2488
ag2489
ag2490
ag4494
ag2493
ag2494
ag2495
ag4495
ag2498
ag2499
ag2500
a(lp5001
I661
aS'-'
p5002
aag2501
ag2502
a(lp5003
I664
ag5002
aag2503
ag2504
ag2505
ag4496
ag2508
ag2509
ag2510
ag4497
ag2514
ag2515
a(lp5004
I675
ag4991
aag4498
ag2519
ag2520
ag4499
ag2523
ag2524
ag2525
ag2526
ag4500
ag2530
ag2531
ag4501
ag2534
ag2535
ag2536
ag2537
ag2538
ag2539
ag2540
ag2541
ag4502
ag2544
ag2545
ag2546
ag2547
ag4503
ag2550
ag2551
ag2552
ag2553
ag2554
ag2555
ag2556
ag2557
ag2558
ag4504
ag2562
ag2563
ag2564
ag2565
ag4505
ag2569
ag2570
ag4506
ag2573
ag2574
ag2575
ag2576
ag2577
ag2578
ag4507
ag2582
ag2583
ag4508
ag2586
ag2587
ag2588
ag2589
ag2590
ag4509
ag2594
ag2595
ag2596
ag4510
ag2599
ag2600
ag2601
ag2602
ag2603
ag4511
ag2606
ag2607
ag2608
ag2609
ag4512
ag2613
ag2614
ag2615
ag4513
ag2618
ag2619
ag2620
ag2621
ag2622
ag4514
ag2625
ag2626
ag2627
ag2628
ag2629
ag2630
ag2631
ag2632
ag2633
ag2634
ag4515
ag2638
ag2639
ag2640
ag4516
ag2644
ag2645
ag2646
ag4517
ag2650
ag2651
ag2652
ag4518
ag2655
ag2656
ag2657
ag2658
a(lp5005
I788
ag4991
aag4519
ag2661
ag2662
ag2663
ag2664
ag2665
ag2666
ag2667
ag2668
ag4520
ag2672
ag2673
ag2674
ag2675
ag4521
ag2679
ag2680
ag2681
ag4522
ag2685
ag2686
ag2687
ag4523
ag2691
ag2692
ag2693
ag2694
ag2695
ag4524
ag2699
ag2700
ag2701
ag4525
ag2705
ag2706
ag4526
ag2709
ag2710
ag2711
ag2712
ag2713
ag2714
ag2715
ag2716
ag2717
ag4527
ag2721
ag2722
ag2723
ag4528
ag2727
ag2728
ag2729
ag4529
ag2733
ag2734
ag2735
ag4530
ag2738
ag4531
ag2741
ag2742
ag2743
ag2744
ag2745
ag4532
ag2749
ag2750
ag2751
a(lp5006
I858
ag4991
aag4533
ag2755
ag2756
ag4534
ag2760
ag2761
ag4535
ag2765
ag2766
ag2767
a(lp5007
I869
ag4993
aag4536
ag2771
ag2772
ag2773
ag4537
ag2777
ag2778
ag2779
ag2780
ag4538
ag2783
ag2784
ag2785
a(lp5008
I883
ag4991
aag4539
ag2789
ag2790
ag2791
ag2792
ag4540
ag2796
ag2797
ag2798
ag4541
ag2802
ag2803
ag2804
ag4542
ag2808
ag2809
ag2810
ag4543
ag2814
ag2815
ag2816
ag4544
ag2819
ag4545
ag2822
ag2823
ag2824
ag4546
ag2827
ag2828
ag2829
ag2830
ag2831
ag2832
ag2833
ag2834
ag2835
a(lp5009
I921
ag4993
aag4547
ag2839
ag2840
ag4548
ag2844
ag2845
ag2846
ag4549
ag2849
ag2850
ag2851
ag2852
ag2853
ag4550
ag2857
ag2858
ag2859
ag2860
ag4551
ag2864
ag2865
ag2866
ag4552
ag2869
ag4553
ag2872
ag2873
ag2874
ag2875
ag2876
ag2877
ag2878
ag4554
ag2881
ag2882
ag2883
ag2884
ag2885
ag2886
ag2887
ag4555
ag2890
ag2891
ag2892
a(lp5010
I966
ag4993
aag4556
ag2895
ag2896
ag2897
ag2898
ag2899
ag2900
ag4557
ag2904
ag2905
ag2906
ag4558
ag2909
ag2910
ag2911
ag2912
ag2913
ag2914
ag4559
ag2917
ag2918
ag2919
ag2920
ag2921
ag2922
ag2923
ag4560
ag2927
ag2928
ag2929
ag4561
ag2932
ag2933
ag2934
ag2935
ag2936
ag2937
ag4562
ag2940
ag2941
ag2942
ag2943
ag2944
ag2945
ag4563
ag2948
ag4564
ag2951
ag2952
ag2953
ag2954
ag2955
ag2956
ag2957
ag2958
ag2959
ag2960
ag2961
ag2962
ag4565
ag2965
ag2966
ag2967
ag2968
ag2969
ag4566
ag2973
ag2974
ag2975
ag2976
ag4567
ag2979
ag2980
ag2981
ag2982
ag2983
ag4568
ag2986
ag2987
ag4569
ag2990
ag2991
ag2992
ag2993
ag2994
ag4570
ag2998
ag2999
ag3000
ag3001
ag4571
ag3005
ag3006
ag3007
ag3008
ag4572
ag3011
ag3012
ag3013
ag3014
ag3015
a(lp5011
I1068
ag4991
aag4573
ag3018
ag3019
ag3020
ag3021
ag3022
ag4574
ag3025
ag3026
ag3027
ag3028
ag3029
a(lp5012
I1081
ag4993
aag4575
ag3032
ag3033
ag3034
ag3035
ag3036
ag4576
ag3039
ag3040
ag3041
ag3042
ag3043
ag3044
a(lp5013
I1095
ag4991
aag4577
ag3047
ag3048
ag3049
ag3050
ag3051
ag4578
ag3054
ag3055
ag3056
ag3057
ag4579
ag3061
ag3062
ag4580
ag3066
ag3067
ag3068
ag3069
ag3070
ag4581
ag3074
ag3075
ag3076
ag4582
ag3079
ag3080
ag3081
ag3082
ag4583
ag3085
ag3086
ag3087
ag3088
ag3089
a(lp5014
I1131
ag4991
aag4584
ag3093
ag3094
ag3095
ag3096
ag4585
ag3099
ag3100
ag3101
ag3102
ag4586
ag3105
ag3106
ag3107
ag4587
ag3111
ag3112
ag4588
ag3116
ag3117
ag3118
ag4589
ag3121
ag3122
ag3123
ag3124
ag3125
ag3126
ag3127
ag3128
ag4590
ag3132
ag3133
ag4591
ag3136
ag3137
ag3138
ag3139
ag4592
ag3143
ag3144
ag3145
ag4593
ag3149
ag3150
ag3151
ag3152
ag3153
ag4594
ag3157
ag3158
ag4595
ag3161
ag3162
ag3163
ag3164
ag3165
ag3166
ag3167
ag3168
ag3169
ag3170
ag3171
ag4596
ag3175
ag3176
ag3177
ag3178
ag4597
ag3182
ag3183
ag3184
ag4598
ag3187
ag3188
ag3189
ag3191
ag3192
ag3193
ag3194
ag4599
ag3198
ag3199
ag3200
ag4600
ag3204
ag3205
ag4601
ag3208
ag3209
ag3210
ag3211
ag4602
ag3215
ag3216
ag3217
ag3218
ag4603
ag3221
ag3222
ag3223
ag3224
ag4604
ag3228
ag3229
ag4605
ag3232
ag3233
ag3234
ag3235
ag3236
a(lp5015
I1243
ag4991
aag4606
ag3240
ag3241
ag3242
ag4607
ag3245
ag3246
ag3247
ag3248
ag3249
ag4608
ag3252
ag3253
ag3254
ag3255
ag4609
ag3258
ag3259
ag3260
ag3261
ag3262
ag3263
ag3264
ag3265
ag3266
ag3267
ag3268
ag3269
ag3270
ag3271
a(lp5016
I1274
ag4991
aag4610
ag3275
ag3276
ag3277
ag4611
ag3281
ag3282
ag3283
ag4612
ag3287
ag3288
ag3289
ag4613
ag3292
ag4614
ag3295
ag3296
ag3297
ag3298
ag3299
ag3300
ag3301
ag3302
ag3303
ag4615
ag3306
ag3307
ag3308
ag3309
a(lp5017
I1304
ag4991
aag4616
ag3312
ag3313
ag3314
ag3315
ag3316
ag3317
ag3318
ag4617
ag3322
ag3323
ag3324
ag4618
ag3327
ag3328
ag3329
ag3330
ag3331
ag3332
ag3333
ag3334
ag3335
ag3336
ag3337
ag4619
ag3340
ag3341
ag3342
ag3343
ag3344
ag4620
ag3347
ag3348
ag3349
ag3350
ag3351
ag3352
ag4621
ag3356
ag3357
ag4622
ag3360
ag3361
ag3362
ag3363
ag4623
ag3366
ag3367
ag3368
a(lp5018
I1354
ag5002
aag3369
ag3370
ag3371
ag4624
ag3375
ag3376
ag3377
ag4625
ag3381
ag3382
ag3383
ag3384
ag4626
ag3387
ag3388
ag3389
ag3390
ag3391
a(lp5019
I1373
ag4991
aag4627
ag3395
ag3396
ag3397
ag4628
ag3400
ag3401
ag3402
ag3403
ag3404
ag3405
ag3406
ag3407
ag3408
ag3409
a(lp5020
I1389
ag4993
aag4629
ag3412
ag3413
ag3414
ag4630
ag3417
ag3418
ag3419
ag3420
ag3421
ag3422
ag3423
ag3424
ag3425
ag3426
a(lp5021
I1405
ag4993
aag4631
ag3429
ag3430
ag3431
ag3432
ag4632
ag3435
ag3436
ag3437
ag3438
ag4633
ag3442
ag3443
ag3444
ag3445
ag4634
ag3449
ag3450
ag3451
ag4635
ag3455
ag3456
ag4636
ag3460
ag3461
ag3462
ag4637
ag3465
ag3466
ag3467
ag3468
ag4638
ag3472
ag3473
ag3474
ag4639
ag3477
ag3478
ag3479
ag3480
a(lp5022
I1446
ag4991
aag4640
ag3484
ag3485
ag3486
ag4641
ag3489
ag3490
ag3492
ag3493
ag3494
ag3495
ag3496
ag4642
ag3499
ag3500
ag3501
ag3502
ag3503
ag3504
ag3505
ag3506
a(lp5023
I1468
ag4993
aag4643
ag3510
ag3511
ag4644
ag3515
ag3516
ag3517
ag4645
ag3520
ag3521
ag3522
ag3523
ag4646
ag3527
ag3528
ag3529
ag4647
ag3533
ag3534
ag3535
ag3536
ag4648
ag3540
ag3541
ag3542
ag4649
ag3546
ag3547
ag3548
ag3549
ag4650
ag3553
ag3554
ag3555
ag3556
ag4651
ag3560
ag3561
ag3562
ag3563
ag4652
ag3566
ag3567
ag3568
ag4653
ag3571
ag3572
ag3573
ag3574
ag3575
ag3576
ag3577
ag3578
ag4654
ag3581
ag3582
ag3583
ag4655
ag3586
ag3587
ag3588
ag4656
ag3592
ag3593
ag4657
ag3596
ag3597
ag3598
ag3599
ag3600
ag3601
ag3602
ag4658
ag3606
ag3607
ag3608
ag3609
ag4659
ag3613
ag3614
ag3615
ag3616
ag4660
ag3619
ag3620
ag3621
ag4661
ag3624
ag3625
ag3626
ag3627
ag3628
ag3629
ag3630
a(lp5024
I1563
ag4991
aag4662
ag3633
ag3634
ag3635
ag4663
ag3639
ag3640
ag3641
ag4664
ag3645
ag3646
ag3647
a(lp5025
I1576
ag4991
aag4665
ag3651
ag3652
ag3653
ag4666
ag3656
ag3657
ag3658
a(lp5026
I1585
ag4993
aag4667
ag3662
ag3663
ag3664
ag4668
ag3667
ag3668
ag3669
ag3670
ag3671
ag3672
ag4669
ag3676
ag3677
ag4670
ag3680
ag3681
ag3682
ag3683
ag4671
ag3687
ag3688
ag4672
ag3691
ag4673
ag3694
ag3695
ag3696
ag3697
ag3698
ag3699
ag3700
ag3701
ag4674
ag3704
ag3705
ag3706
ag3707
ag3708
ag4675
ag3712
ag3713
ag3714
ag4676
ag3718
ag3719
ag4677
ag3722
ag3723
ag3724
ag3725
ag3726
ag4678
ag3730
ag3731
ag4679
ag3734
ag3735
ag3736
ag3737
ag4680
ag3741
ag3742
ag3743
ag3744
ag4681
ag3747
ag3748
ag3749
ag3750
ag3751
ag3752
ag3753
ag3754
ag3755
ag3756
ag3757
ag3758
ag4682
ag3762
ag3763
ag4683
ag3766
ag3767
ag3768
ag3769
ag4684
ag3772
ag4685
ag3775
ag3776
ag3777
ag3778
a(lp5027
I1679
ag5002
aag3779
ag3780
ag3781
ag3782
ag3783
ag3784
ag3785
ag4686
ag3788
ag3789
ag3790
ag4687
ag3794
ag3795
ag3796
ag3797
ag4688
ag3800
ag3801
ag3802
a(lp5028
I1700
ag4991
aag4689
ag3805
ag3806
ag3807
ag3808
ag3809
ag4690
ag3812
ag3813
ag3814
ag3815
ag4691
ag3818
ag3819
ag3820
ag3821
ag3822
ag3823
a(lp5029
I1719
ag5002
aag3824
ag3825
ag3826
ag3827
ag4692
ag3831
ag3832
ag3833
ag4693
ag3837
ag3838
ag4694
ag3841
ag3842
ag3843
ag3844
ag3845
ag3846
ag3847
ag3848
ag3849
a(lp5030
I1741
ag4991
aag4695
ag3853
ag3854
ag3855
ag4696
ag3858
ag3859
ag3860
ag4697
ag3864
ag3865
ag3866
ag3867
ag4698
ag3870
ag3871
ag3872
ag4699
ag3876
ag3877
ag4700
ag3880
ag3881
ag3882
ag3883
ag3884
ag3885
ag4701
ag3889
ag3890
ag3891
ag4702
ag3895
ag3896
ag3897
ag4703
ag3901
ag3902
ag4704
ag3905
ag3906
ag3907
ag3908
ag3909
ag3910
ag3911
a(lp5031
I1788
ag4991
aag4705
ag3915
ag3916
ag3917
ag4706
ag3921
ag3922
ag4707
ag3926
ag3927
ag3928
ag4708
ag3932
ag3933
ag3934
ag3935
ag4709
ag3939
ag3940
ag4710
ag3944
ag3945
ag4711
ag3948
ag4712
ag3951
ag3952
ag3953
ag3954
ag3955
ag4713
ag3958
ag3959
ag3960
ag3961
ag3962
ag3963
ag3964
ag4714
ag3968
ag3969
ag4715
ag3972
ag4716
ag3975
ag3976
ag3977
ag3978
ag4717
ag3981
ag3982
ag3983
ag3984
ag3985
ag3986
ag4718
ag3990
ag3991
ag3992
ag3993
ag4719
ag3997
ag3998
ag3999
ag4720
ag4002
ag4003
ag4004
ag4005
ag4721
ag4008
ag4009
ag4010
ag4011
ag4012
ag4013
ag4014
ag4722
ag4018
ag4019
ag4020
ag4723
ag4023
ag4724
ag4026
ag4027
ag4028
ag4725
ag4031
ag4032
ag4033
ag4034
ag4035
ag4036
ag4037
ag4038
ag4039
a(lp5032
I1886
ag4991
aag4726
ag4043
ag4044
ag4045
ag4727
ag4049
ag4050
ag4051
ag4052
ag4728
ag4056
ag4057
ag4058
ag4059
ag4729
ag4063
ag4064
ag4730
ag4067
ag4068
ag4069
ag4070
ag4071
ag4072
ag4073
ag4074
ag4731
ag4078
ag4079
ag4080
ag4732
ag4083
ag4084
ag4085
ag4086
ag4087
ag4733
ag4090
ag4091
ag4092
ag4093
ag4094
ag4095
ag4096
ag4097
ag4098
ag4734
ag4102
ag4103
ag4735
ag4106
ag4107
ag4108
ag4109
ag4110
ag4111
ag4112
ag4736
ag4115
ag4116
ag4117
ag4118
ag4119
ag4120
ag4121
ag4122
ag4123
ag4124
ag4125
ag4126
ag4737
ag4130
ag4131
ag4132
ag4738
ag4135
ag4136
ag4137
ag4138
ag4139
ag4140
ag4141
ag4142
ag4143
ag4144
ag4145
a(lp5033
I1973
ag4991
aag4739
ag4149
ag4150
ag4151
ag4152
ag4740
ag4155
ag4156
ag4157
ag4158
ag4159
ag4160
ag4161
ag4741
ag4164
ag4165
ag4166
ag4167
ag4168
ag4742
ag4171
ag4172
ag4173
ag4174
ag4175
ag4176
ag4177
ag4178
ag4179
ag4180
ag4743
ag4184
ag4185
ag4744
ag4188
ag4745
ag4191
ag4192
ag4193
ag4194
ag4195
ag4196
ag4197
ag4746
ag4201
ag4202
ag4203
ag4747
ag4207
ag4208
ag4209
ag4210
ag4211
ag4748
ag4215
ag4216
ag4217
ag4749
ag4221
ag4222
ag4223
ag4750
ag4226
ag4227
ag4228
ag4229
ag4230
ag4231
ag4232
ag4233
ag4234
ag4751
ag4238
ag4239
ag4240
ag4752
ag4243
ag4753
ag4246
ag4247
ag4248
ag4754
ag4251
ag4252
ag4253
ag4254
ag4255
ag4256
ag4257
ag4258
ag4259
a(lp5034
I2065
ag4993
aag4755
ag4263
ag4264
ag4265
ag4756
ag4269
ag4270
ag4757
ag4274
ag4275
ag4276
ag4758
ag4280
ag4281
ag4282
ag4283
ag4759
ag4287
ag4288
ag4289
ag4760
ag4292
ag4293
ag4294
ag4295
ag4761
ag4299
ag4300
ag4762
ag4304
ag4305
ag4306
ag4763
ag4310
ag4311
ag4764
ag4315
ag4316
ag4765
ag4320
ag4321
ag4766
ag4325
ag4326
ag4767
ag4330
ag4331
ag4768
ag4334
ag4769
ag4337
ag4338
ag4339
ag4770
ag4342
ag4343
ag4344
ag4345
ag4346
ag4347
ag4348
ag4349
ag4350
a(lp5035
I2129
ag4991
aag4771
ag4354
ag4355
ag4772
ag4358
ag4359
ag4360
ag4361
ag4362
ag4363
ag4364
ag4365
ag4773
a(lp5036
I2143
aS'\xc2'
p5037
aag4368
asS'docName'
p5038
S'source-document00846.txt'
p5039
sb.