(iModel.Document
Document
p0
(dp1
S'fmap'
p2
(lp3
(lp4
I0
aI9
aS'overcoming'
p5
a(lp6
S'*'
p7
ag5
aaa(lp8
I0
aI9
ag5
a(lp9
g7
ag5
aaa(lp10
I0
aI9
ag5
a(lp11
g7
ag5
aaa(lp12
I0
aI9
ag5
a(lp13
g7
ag5
aaa(lp14
I15
aI18
aS'fear'
p15
a(lp16
g5
ag15
aaa(lp17
I15
aI18
ag15
a(lp18
g7
ag15
aaa(lp19
I15
aI18
ag15
a(lp20
g7
ag15
aaa(lp21
I15
aI18
ag15
a(lp22
g7
ag15
aaa(lp23
I23
aI29
aS'selling'
p24
a(lp25
g15
ag24
aaa(lp26
I23
aI29
ag24
a(lp27
g5
ag24
aaa(lp28
I23
aI29
ag24
a(lp29
g7
ag24
aaa(lp30
I23
aI29
ag24
a(lp31
g7
ag24
aaa(lp32
I32
aI32
aS'\xa0'
p33
a(lp34
g24
ag33
aaa(lp35
I32
aI32
ag33
a(lp36
g15
ag33
aaa(lp37
I32
aI32
ag33
a(lp38
g5
ag33
aaa(lp39
I32
aI32
ag33
a(lp40
g7
ag33
aaa(lp41
I38
aI41
aS'many'
p42
a(lp43
g33
ag42
aaa(lp44
I38
aI41
ag42
a(lp45
g24
ag42
aaa(lp46
I38
aI41
ag42
a(lp47
g15
ag42
aaa(lp48
I38
aI41
ag42
a(lp49
g5
ag42
aaa(lp50
I54
aI57
aS'fear'
p51
a(lp52
g42
ag51
aaa(lp53
I54
aI57
ag51
a(lp54
g33
ag51
aaa(lp55
I54
aI57
ag51
a(lp56
g24
ag51
aaa(lp57
I54
aI57
ag51
a(lp58
g15
ag51
aaa(lp59
I62
aI68
aS'selling'
p60
a(lp61
g51
ag60
aaa(lp62
I62
aI68
ag60
a(lp63
g42
ag60
aaa(lp64
I62
aI68
ag60
a(lp65
g33
ag60
aaa(lp66
I62
aI68
ag60
a(lp67
g24
ag60
aaa(lp68
I75
aI78
aS'huge'
p69
a(lp70
g60
ag69
aaa(lp71
I75
aI78
ag69
a(lp72
g51
ag69
aaa(lp73
I75
aI78
ag69
a(lp74
g42
ag69
aaa(lp75
I75
aI78
ag69
a(lp76
g33
ag69
aaa(lp77
I80
aI88
aS'challenge'
p78
a(lp79
g69
ag78
aaa(lp80
I80
aI88
ag78
a(lp81
g60
ag78
aaa(lp82
I80
aI88
ag78
a(lp83
g51
ag78
aaa(lp84
I80
aI88
ag78
a(lp85
g42
ag78
aaa(lp86
I94
aI101
aS'obstacle'
p87
a(lp88
g78
ag87
aaa(lp89
I94
aI101
ag87
a(lp90
g69
ag87
aaa(lp91
I94
aI101
ag87
a(lp92
g60
ag87
aaa(lp93
I94
aI101
ag87
a(lp94
g51
ag87
aaa(lp95
I116
aI118
aS'day'
p96
a(lp97
g87
ag96
aaa(lp98
I116
aI118
ag96
a(lp99
g78
ag96
aaa(lp100
I116
aI118
ag96
a(lp101
g69
ag96
aaa(lp102
I116
aI118
ag96
a(lp103
g60
ag96
aaa(lp104
I123
aI125
aS'day'
p105
a(lp106
g96
ag105
aaa(lp107
I123
aI125
ag105
a(lp108
g87
ag105
aaa(lp109
I123
aI125
ag105
a(lp110
g78
ag105
aaa(lp111
I123
aI125
ag105
a(lp112
g69
ag105
aaa(lp113
I132
aI136
aS'first'
p114
a(lp115
g105
ag114
aaa(lp116
I132
aI136
ag114
a(lp117
g96
ag114
aaa(lp118
I132
aI136
ag114
a(lp119
g87
ag114
aaa(lp120
I132
aI136
ag114
a(lp121
g78
ag114
aaa(lp122
I138
aI142
aS'thing'
p123
a(lp124
g114
ag123
aaa(lp125
I138
aI142
ag123
a(lp126
g105
ag123
aaa(lp127
I138
aI142
ag123
a(lp128
g96
ag123
aaa(lp129
I138
aI142
ag123
a(lp130
g87
ag123
aaa(lp131
I148
aI151
aS'need'
p132
a(lp133
g123
ag132
aaa(lp134
I148
aI151
ag132
a(lp135
g114
ag132
aaa(lp136
I148
aI151
ag132
a(lp137
g105
ag132
aaa(lp138
I148
aI151
ag132
a(lp139
g96
ag132
aaa(lp140
I162
aI165
aS'find'
p141
a(lp142
g132
ag141
aaa(lp143
I162
aI165
ag141
a(lp144
g123
ag141
aaa(lp145
I162
aI165
ag141
a(lp146
g114
ag141
aaa(lp147
I162
aI165
ag141
a(lp148
g105
ag141
aaa(lp149
I171
aI177
aS'exactly'
p150
a(lp151
g141
ag150
aaa(lp152
I171
aI177
ag150
a(lp153
g132
ag150
aaa(lp154
I171
aI177
ag150
a(lp155
g123
ag150
aaa(lp156
I171
aI177
ag150
a(lp157
g114
ag150
aaa(lp158
I190
aI195
aS'youre'
p159
a(lp160
g150
ag159
aaa(lp161
I190
aI195
ag159
a(lp162
g141
ag159
aaa(lp163
I190
aI195
ag159
a(lp164
g132
ag159
aaa(lp165
I190
aI195
ag159
a(lp166
g123
ag159
aaa(lp167
I197
aI202
aS'afraid'
p168
a(lp169
g159
ag168
aaa(lp170
I197
aI202
ag168
a(lp171
g150
ag168
aaa(lp172
I197
aI202
ag168
a(lp173
g141
ag168
aaa(lp174
I197
aI202
ag168
a(lp175
g132
ag168
aaa(lp176
I216
aI221
aS'afraid'
p177
a(lp178
g168
ag177
aaa(lp179
I216
aI221
ag177
a(lp180
g159
ag177
aaa(lp181
I216
aI221
ag177
a(lp182
g150
ag177
aaa(lp183
I216
aI221
ag177
a(lp184
g141
ag177
aaa(lp185
I226
aI232
aS'success'
p186
a(lp187
g177
ag186
aaa(lp188
I226
aI232
ag186
a(lp189
g168
ag186
aaa(lp190
I226
aI232
ag186
a(lp191
g159
ag186
aaa(lp192
I226
aI232
ag186
a(lp193
g150
ag186
aaa(lp194
I235
aI241
aS'believe'
p195
a(lp196
g186
ag195
aaa(lp197
I235
aI241
ag195
a(lp198
g177
ag195
aaa(lp199
I235
aI241
ag195
a(lp200
g168
ag195
aaa(lp201
I235
aI241
ag195
a(lp202
g159
ag195
aaa(lp203
I270
aI275
aS'actual'
p204
a(lp205
g195
ag204
aaa(lp206
I270
aI275
ag204
a(lp207
g186
ag204
aaa(lp208
I270
aI275
ag204
a(lp209
g177
ag204
aaa(lp210
I270
aI275
ag204
a(lp211
g168
ag204
aaa(lp212
I277
aI280
aS'fear'
p213
a(lp214
g204
ag213
aaa(lp215
I277
aI280
ag213
a(lp216
g195
ag213
aaa(lp217
I277
aI280
ag213
a(lp218
g186
ag213
aaa(lp219
I277
aI280
ag213
a(lp220
g177
ag213
aaa(lp221
I290
aI294
aS'folks'
p222
a(lp223
g213
ag222
aaa(lp224
I290
aI294
ag222
a(lp225
g204
ag222
aaa(lp226
I290
aI294
ag222
a(lp227
g195
ag222
aaa(lp228
I290
aI294
ag222
a(lp229
g186
ag222
aaa(lp230
I305
aI310
aS'afraid'
p231
a(lp232
g222
ag231
aaa(lp233
I305
aI310
ag231
a(lp234
g213
ag231
aaa(lp235
I305
aI310
ag231
a(lp236
g204
ag231
aaa(lp237
I305
aI310
ag231
a(lp238
g195
ag231
aaa(lp239
I315
aI321
aS'failure'
p240
a(lp241
g231
ag240
aaa(lp242
I315
aI321
ag240
a(lp243
g222
ag240
aaa(lp244
I315
aI321
ag240
a(lp245
g213
ag240
aaa(lp246
I315
aI321
ag240
a(lp247
g204
ag240
aaa(lp248
I326
aI334
aS'rejection'
p249
a(lp250
g240
ag249
aaa(lp251
I326
aI334
ag249
a(lp252
g231
ag249
aaa(lp253
I326
aI334
ag249
a(lp254
g222
ag249
aaa(lp255
I326
aI334
ag249
a(lp256
g213
ag249
aaa(lp257
I344
aI347
aS'fear'
p258
a(lp259
g249
ag258
aaa(lp260
I344
aI347
ag258
a(lp261
g240
ag258
aaa(lp262
I344
aI347
ag258
a(lp263
g231
ag258
aaa(lp264
I344
aI347
ag258
a(lp265
g222
ag258
aaa(lp266
I355
aI363
aS'perceived'
p267
a(lp268
g258
ag267
aaa(lp269
I355
aI363
ag267
a(lp270
g249
ag267
aaa(lp271
I355
aI363
ag267
a(lp272
g240
ag267
aaa(lp273
I355
aI363
ag267
a(lp274
g231
ag267
aaa(lp275
I374
aI378
aS'pushy'
p276
a(lp277
g267
ag276
aaa(lp278
I374
aI378
ag276
a(lp279
g258
ag276
aaa(lp280
I374
aI378
ag276
a(lp281
g249
ag276
aaa(lp282
I374
aI378
ag276
a(lp283
g240
ag276
aaa(lp284
I389
aI396
aS'secretly'
p285
a(lp286
g276
ag285
aaa(lp287
I389
aI396
ag285
a(lp288
g267
ag285
aaa(lp289
I389
aI396
ag285
a(lp290
g258
ag285
aaa(lp291
I389
aI396
ag285
a(lp292
g249
ag285
aaa(lp293
I401
aI406
aS'course'
p294
a(lp295
g285
ag294
aaa(lp296
I401
aI406
ag294
a(lp297
g276
ag294
aaa(lp298
I401
aI406
ag294
a(lp299
g267
ag294
aaa(lp300
I401
aI406
ag294
a(lp301
g258
ag294
aaa(lp302
I409
aI412
aS'fear'
p303
a(lp304
g294
ag303
aaa(lp305
I409
aI412
ag303
a(lp306
g285
ag303
aaa(lp307
I409
aI412
ag303
a(lp308
g276
ag303
aaa(lp309
I409
aI412
ag303
a(lp310
g267
ag303
aaa(lp311
I424
aI430
aS'product'
p312
a(lp313
g303
ag312
aaa(lp314
I424
aI430
ag312
a(lp315
g294
ag312
aaa(lp316
I424
aI430
ag312
a(lp317
g285
ag312
aaa(lp318
I424
aI430
ag312
a(lp319
g276
ag312
aaa(lp320
I432
aI434
aS'may'
p321
a(lp322
g312
ag321
aaa(lp323
I432
aI434
ag321
a(lp324
g303
ag321
aaa(lp325
I432
aI434
ag321
a(lp326
g294
ag321
aaa(lp327
I432
aI434
ag321
a(lp328
g285
ag321
aaa(lp329
I440
aI443
aS'meet'
p330
a(lp331
g321
ag330
aaa(lp332
I440
aI443
ag330
a(lp333
g312
ag330
aaa(lp334
I440
aI443
ag330
a(lp335
g303
ag330
aaa(lp336
I440
aI443
ag330
a(lp337
g294
ag330
aaa(lp338
I449
aI460
aS'expectations'
p339
a(lp340
g330
ag339
aaa(lp341
I449
aI460
ag339
a(lp342
g321
ag339
aaa(lp343
I449
aI460
ag339
a(lp344
g312
ag339
aaa(lp345
I449
aI460
ag339
a(lp346
g303
ag339
aaa(lp347
I470
aI477
aS'customer'
p348
a(lp349
g339
ag348
aaa(lp350
I470
aI477
ag348
a(lp351
g330
ag348
aaa(lp352
I470
aI477
ag348
a(lp353
g321
ag348
aaa(lp354
I470
aI477
ag348
a(lp355
g312
ag348
aaa(lp356
I484
aI488
aS'cant'
p357
a(lp358
g348
ag357
aaa(lp359
I484
aI488
ag357
a(lp360
g339
ag357
aaa(lp361
I484
aI488
ag357
a(lp362
g330
ag357
aaa(lp363
I484
aI488
ag357
a(lp364
g321
ag357
aaa(lp365
I490
aI493
aS'come'
p366
a(lp367
g357
ag366
aaa(lp368
I490
aI493
ag366
a(lp369
g348
ag366
aaa(lp370
I490
aI493
ag366
a(lp371
g339
ag366
aaa(lp372
I490
aI493
ag366
a(lp373
g330
ag366
aaa(lp374
I505
aI512
aS'solution'
p375
a(lp376
g366
ag375
aaa(lp377
I505
aI512
ag375
a(lp378
g357
ag375
aaa(lp379
I505
aI512
ag375
a(lp380
g348
ag375
aaa(lp381
I505
aI512
ag375
a(lp382
g339
ag375
aaa(lp383
I521
aI525
aS'dont'
p384
a(lp385
g375
ag384
aaa(lp386
I521
aI525
ag384
a(lp387
g366
ag384
aaa(lp388
I521
aI525
ag384
a(lp389
g357
ag384
aaa(lp390
I521
aI525
ag384
a(lp391
g348
ag384
aaa(lp392
I527
aI530
aS'know'
p393
a(lp394
g384
ag393
aaa(lp395
I527
aI530
ag393
a(lp396
g375
ag393
aaa(lp397
I527
aI530
ag393
a(lp398
g366
ag393
aaa(lp399
I527
aI530
ag393
a(lp400
g357
ag393
aaa(lp401
I541
aI547
aS'problem'
p402
a(lp403
g393
ag402
aaa(lp404
I541
aI547
ag402
a(lp405
g384
ag402
aaa(lp406
I541
aI547
ag402
a(lp407
g375
ag402
aaa(lp408
I541
aI547
ag402
a(lp409
g366
ag402
aaa(lp410
I554
aI554
ag33
a(lp411
g402
ag33
aaa(lp412
I554
aI554
ag33
a(lp413
g393
ag33
aaa(lp414
I554
aI554
ag33
a(lp415
g384
ag33
aaa(lp416
I554
aI554
ag33
a(lp417
g375
ag33
aaa(lp418
I556
aI562
aS'theres'
p419
a(lp420
g33
ag419
aaa(lp421
I556
aI562
ag419
a(lp422
g402
ag419
aaa(lp423
I556
aI562
ag419
a(lp424
g393
ag419
aaa(lp425
I556
aI562
ag419
a(lp426
g384
ag419
aaa(lp427
I566
aI569
aS'huge'
p428
a(lp429
g419
ag428
aaa(lp430
I566
aI569
ag428
a(lp431
g33
ag428
aaa(lp432
I566
aI569
ag428
a(lp433
g402
ag428
aaa(lp434
I566
aI569
ag428
a(lp435
g393
ag428
aaa(lp436
I571
aI583
aS'misconception'
p437
a(lp438
g428
ag437
aaa(lp439
I571
aI583
ag437
a(lp440
g419
ag437
aaa(lp441
I571
aI583
ag437
a(lp442
g33
ag437
aaa(lp443
I571
aI583
ag437
a(lp444
g402
ag437
aaa(lp445
I588
aI593
aS'direct'
p446
a(lp447
g437
ag446
aaa(lp448
I588
aI593
ag446
a(lp449
g428
ag446
aaa(lp450
I588
aI593
ag446
a(lp451
g419
ag446
aaa(lp452
I588
aI593
ag446
a(lp453
g33
ag446
aaa(lp454
I595
aI599
aS'sales'
p455
a(lp456
g446
ag455
aaa(lp457
I595
aI599
ag455
a(lp458
g437
ag455
aaa(lp459
I595
aI599
ag455
a(lp460
g428
ag455
aaa(lp461
I595
aI599
ag455
a(lp462
g419
ag455
aaa(lp463
I616
aI620
aS'think'
p464
a(lp465
g455
ag464
aaa(lp466
I616
aI620
ag464
a(lp467
g446
ag464
aaa(lp468
I616
aI620
ag464
a(lp469
g437
ag464
aaa(lp470
I616
aI620
ag464
a(lp471
g428
ag464
aaa(lp472
I622
aI627
aS'youre'
p473
a(lp474
g464
ag473
aaa(lp475
I622
aI627
ag473
a(lp476
g455
ag473
aaa(lp477
I622
aI627
ag473
a(lp478
g446
ag473
aaa(lp479
I622
aI627
ag473
a(lp480
g437
ag473
aaa(lp481
I630
aI637
aS'imposing'
p482
a(lp483
g473
ag482
aaa(lp484
I630
aI637
ag482
a(lp485
g464
ag482
aaa(lp486
I630
aI637
ag482
a(lp487
g455
ag482
aaa(lp488
I630
aI637
ag482
a(lp489
g446
ag482
aaa(lp490
I648
aI654
aS'friends'
p491
a(lp492
g482
ag491
aaa(lp493
I648
aI654
ag491
a(lp494
g473
ag491
aaa(lp495
I648
aI654
ag491
a(lp496
g464
ag491
aaa(lp497
I648
aI654
ag491
a(lp498
g455
ag491
aaa(lp499
I657
aI662
aS'family'
p500
a(lp501
g491
ag500
aaa(lp502
I657
aI662
ag500
a(lp503
g482
ag500
aaa(lp504
I657
aI662
ag500
a(lp505
g473
ag500
aaa(lp506
I657
aI662
ag500
a(lp507
g464
ag500
aaa(lp508
I674
aI681
aS'customer'
p509
a(lp510
g500
ag509
aaa(lp511
I674
aI681
ag509
a(lp512
g491
ag509
aaa(lp513
I674
aI681
ag509
a(lp514
g482
ag509
aaa(lp515
I674
aI681
ag509
a(lp516
g473
ag509
aaa(lp517
I686
aI692
aS'general'
p518
a(lp519
g509
ag518
aaa(lp520
I686
aI692
ag518
a(lp521
g500
ag518
aaa(lp522
I686
aI692
ag518
a(lp523
g491
ag518
aaa(lp524
I686
aI692
ag518
a(lp525
g482
ag518
aaa(lp526
I698
aI701
aS'long'
p527
a(lp528
g518
ag527
aaa(lp529
I698
aI701
ag527
a(lp530
g509
ag527
aaa(lp531
I698
aI701
ag527
a(lp532
g500
ag527
aaa(lp533
I698
aI701
ag527
a(lp534
g491
ag527
aaa(lp535
I710
aI713
aS'feel'
p536
a(lp537
g527
ag536
aaa(lp538
I710
aI713
ag536
a(lp539
g518
ag536
aaa(lp540
I710
aI713
ag536
a(lp541
g509
ag536
aaa(lp542
I710
aI713
ag536
a(lp543
g500
ag536
aaa(lp544
I718
aI723
aS'though'
p545
a(lp546
g536
ag545
aaa(lp547
I718
aI723
ag545
a(lp548
g527
ag545
aaa(lp549
I718
aI723
ag545
a(lp550
g518
ag545
aaa(lp551
I718
aI723
ag545
a(lp552
g509
ag545
aaa(lp553
I725
aI730
aS'youre'
p554
a(lp555
g545
ag554
aaa(lp556
I725
aI730
ag554
a(lp557
g536
ag554
aaa(lp558
I725
aI730
ag554
a(lp559
g527
ag554
aaa(lp560
I725
aI730
ag554
a(lp561
g518
ag554
aaa(lp562
I732
aI745
aS'imposingyou'
p563
a(lp564
g554
ag563
aaa(lp565
I732
aI745
ag563
a(lp566
g545
ag563
aaa(lp567
I732
aI745
ag563
a(lp568
g536
ag563
aaa(lp569
I732
aI745
ag563
a(lp570
g527
ag563
aaa(lp571
I756
aI759
aS'need'
p572
a(lp573
g563
ag572
aaa(lp574
I756
aI759
ag572
a(lp575
g554
ag572
aaa(lp576
I756
aI759
ag572
a(lp577
g545
ag572
aaa(lp578
I756
aI759
ag572
a(lp579
g536
ag572
aaa(lp580
I764
aI767
aS'love'
p581
a(lp582
g572
ag581
aaa(lp583
I764
aI767
ag581
a(lp584
g563
ag581
aaa(lp585
I764
aI767
ag581
a(lp586
g554
ag581
aaa(lp587
I764
aI767
ag581
a(lp588
g545
ag581
aaa(lp589
I774
aI780
aS'product'
p590
a(lp591
g581
ag590
aaa(lp592
I774
aI780
ag590
a(lp593
g572
ag590
aaa(lp594
I774
aI780
ag590
a(lp595
g563
ag590
aaa(lp596
I774
aI780
ag590
a(lp597
g554
ag590
aaa(lp598
I786
aI789
aS'feel'
p599
a(lp600
g590
ag599
aaa(lp601
I786
aI789
ag599
a(lp602
g581
ag599
aaa(lp603
I786
aI789
ag599
a(lp604
g572
ag599
aaa(lp605
I786
aI789
ag599
a(lp606
g563
ag599
aaa(lp607
I794
aI799
aS'though'
p608
a(lp609
g599
ag608
aaa(lp610
I794
aI799
ag608
a(lp611
g590
ag608
aaa(lp612
I794
aI799
ag608
a(lp613
g581
ag608
aaa(lp614
I794
aI799
ag608
a(lp615
g572
ag608
aaa(lp616
I809
aI816
aS'offering'
p617
a(lp618
g608
ag617
aaa(lp619
I809
aI816
ag617
a(lp620
g599
ag617
aaa(lp621
I809
aI816
ag617
a(lp622
g590
ag617
aaa(lp623
I809
aI816
ag617
a(lp624
g581
ag617
aaa(lp625
I820
aI826
aS'service'
p626
a(lp627
g617
ag626
aaa(lp628
I820
aI826
ag626
a(lp629
g608
ag626
aaa(lp630
I820
aI826
ag626
a(lp631
g599
ag626
aaa(lp632
I820
aI826
ag626
a(lp633
g590
ag626
aaa(lp634
I829
aI834
aS'youre'
p635
a(lp636
g626
ag635
aaa(lp637
I829
aI834
ag635
a(lp638
g617
ag635
aaa(lp639
I829
aI834
ag635
a(lp640
g608
ag635
aaa(lp641
I829
aI834
ag635
a(lp642
g599
ag635
aaa(lp643
I836
aI842
aS'filling'
p644
a(lp645
g635
ag644
aaa(lp646
I836
aI842
ag644
a(lp647
g626
ag644
aaa(lp648
I836
aI842
ag644
a(lp649
g617
ag644
aaa(lp650
I836
aI842
ag644
a(lp651
g608
ag644
aaa(lp652
I846
aI849
aS'need'
p653
a(lp654
g644
ag653
aaa(lp655
I846
aI849
ag653
a(lp656
g635
ag653
aaa(lp657
I846
aI849
ag653
a(lp658
g626
ag653
aaa(lp659
I846
aI849
ag653
a(lp660
g617
ag653
aaa(lp661
I853
aI853
ag33
a(lp662
g653
ag33
aaa(lp663
I853
aI853
ag33
a(lp664
g644
ag33
aaa(lp665
I853
aI853
ag33
a(lp666
g635
ag33
aaa(lp667
I853
aI853
ag33
a(lp668
g626
ag33
aaa(lp669
I855
aI860
aS'people'
p670
a(lp671
g33
ag670
aaa(lp672
I855
aI860
ag670
a(lp673
g653
ag670
aaa(lp674
I855
aI860
ag670
a(lp675
g644
ag670
aaa(lp676
I855
aI860
ag670
a(lp677
g635
ag670
aaa(lp678
I866
aI877
aS'naturalborn'
p679
a(lp680
g670
ag679
aaa(lp681
I866
aI877
ag679
a(lp682
g33
ag679
aaa(lp683
I866
aI877
ag679
a(lp684
g653
ag679
aaa(lp685
I866
aI877
ag679
a(lp686
g644
ag679
aaa(lp687
I879
aI885
aS'sellers'
p688
a(lp689
g679
ag688
aaa(lp690
I879
aI885
ag688
a(lp691
g670
ag688
aaa(lp692
I879
aI885
ag688
a(lp693
g33
ag688
aaa(lp694
I879
aI885
ag688
a(lp695
g653
ag688
aaa(lp696
I896
aI900
aS'dont'
p697
a(lp698
g688
ag697
aaa(lp699
I896
aI900
ag697
a(lp700
g679
ag697
aaa(lp701
I896
aI900
ag697
a(lp702
g670
ag697
aaa(lp703
I896
aI900
ag697
a(lp704
g33
ag697
aaa(lp705
I902
aI908
aS'realize'
p706
a(lp707
g697
ag706
aaa(lp708
I902
aI908
ag706
a(lp709
g688
ag706
aaa(lp710
I902
aI908
ag706
a(lp711
g679
ag706
aaa(lp712
I902
aI908
ag706
a(lp713
g670
ag706
aaa(lp714
I928
aI933
aS'making'
p715
a(lp716
g706
ag715
aaa(lp717
I928
aI933
ag715
a(lp718
g697
ag715
aaa(lp719
I928
aI933
ag715
a(lp720
g688
ag715
aaa(lp721
I928
aI933
ag715
a(lp722
g679
ag715
aaa(lp723
I935
aI939
aS'money'
p724
a(lp725
g715
ag724
aaa(lp726
I935
aI939
ag724
a(lp727
g706
ag724
aaa(lp728
I935
aI939
ag724
a(lp729
g697
ag724
aaa(lp730
I935
aI939
ag724
a(lp731
g688
ag724
aaa(lp732
I950
aI954
aS'lets'
p733
a(lp734
g724
ag733
aaa(lp735
I950
aI954
ag733
a(lp736
g715
ag733
aaa(lp737
I950
aI954
ag733
a(lp738
g706
ag733
aaa(lp739
I950
aI954
ag733
a(lp740
g697
ag733
aaa(lp741
I956
aI958
aS'say'
p742
a(lp743
g733
ag742
aaa(lp744
I956
aI958
ag742
a(lp745
g724
ag742
aaa(lp746
I956
aI958
ag742
a(lp747
g715
ag742
aaa(lp748
I956
aI958
ag742
a(lp749
g706
ag742
aaa(lp750
I964
aI965
aS'go'
p751
a(lp752
g742
ag751
aaa(lp753
I964
aI965
ag751
a(lp754
g733
ag751
aaa(lp755
I964
aI965
ag751
a(lp756
g724
ag751
aaa(lp757
I964
aI965
ag751
a(lp758
g715
ag751
aaa(lp759
I972
aI976
aS'movie'
p760
a(lp761
g751
ag760
aaa(lp762
I972
aI976
ag760
a(lp763
g742
ag760
aaa(lp764
I972
aI976
ag760
a(lp765
g733
ag760
aaa(lp766
I972
aI976
ag760
a(lp767
g724
ag760
aaa(lp768
I987
aI991
aS'loved'
p769
a(lp770
g760
ag769
aaa(lp771
I987
aI991
ag769
a(lp772
g751
ag769
aaa(lp773
I987
aI991
ag769
a(lp774
g742
ag769
aaa(lp775
I987
aI991
ag769
a(lp776
g733
ag769
aaa(lp777
I1008
aI1013
aS'friend'
p778
a(lp779
g769
ag778
aaa(lp780
I1008
aI1013
ag778
a(lp781
g760
ag778
aaa(lp782
I1008
aI1013
ag778
a(lp783
g751
ag778
aaa(lp784
I1008
aI1013
ag778
a(lp785
g742
ag778
aaa(lp786
I1024
aI1027
aS'know'
p787
a(lp788
g778
ag787
aaa(lp789
I1024
aI1027
ag787
a(lp790
g769
ag787
aaa(lp791
I1024
aI1027
ag787
a(lp792
g760
ag787
aaa(lp793
I1024
aI1027
ag787
a(lp794
g751
ag787
aaa(lp795
I1029
aI1033
aS'would'
p796
a(lp797
g787
ag796
aaa(lp798
I1029
aI1033
ag796
a(lp799
g778
ag796
aaa(lp800
I1029
aI1033
ag796
a(lp801
g769
ag796
aaa(lp802
I1029
aI1033
ag796
a(lp803
g760
ag796
aaa(lp804
I1035
aI1039
aS'enjoy'
p805
a(lp806
g796
ag805
aaa(lp807
I1035
aI1039
ag805
a(lp808
g787
ag805
aaa(lp809
I1035
aI1039
ag805
a(lp810
g778
ag805
aaa(lp811
I1035
aI1039
ag805
a(lp812
g769
ag805
aaa(lp813
I1049
aI1056
aS'wouldnt'
p814
a(lp815
g805
ag814
aaa(lp816
I1049
aI1056
ag814
a(lp817
g796
ag814
aaa(lp818
I1049
aI1056
ag814
a(lp819
g787
ag814
aaa(lp820
I1049
aI1056
ag814
a(lp821
g778
ag814
aaa(lp822
I1062
aI1070
aS'recommend'
p823
a(lp824
g814
ag823
aaa(lp825
I1062
aI1070
ag823
a(lp826
g805
ag823
aaa(lp827
I1062
aI1070
ag823
a(lp828
g796
ag823
aaa(lp829
I1062
aI1070
ag823
a(lp830
g787
ag823
aaa(lp831
I1078
aI1084
aS'himher'
p832
a(lp833
g823
ag832
aaa(lp834
I1078
aI1084
ag832
a(lp835
g814
ag832
aaa(lp836
I1078
aI1084
ag832
a(lp837
g805
ag832
aaa(lp838
I1078
aI1084
ag832
a(lp839
g796
ag832
aaa(lp840
I1088
aI1088
ag33
a(lp841
g832
ag33
aaa(lp842
I1088
aI1088
ag33
a(lp843
g823
ag33
aaa(lp844
I1088
aI1088
ag33
a(lp845
g814
ag33
aaa(lp846
I1088
aI1088
ag33
a(lp847
g805
ag33
aaa(lp848
I1111
aI1114
aS'soon'
p849
a(lp850
g33
ag849
aaa(lp851
I1111
aI1114
ag849
a(lp852
g832
ag849
aaa(lp853
I1111
aI1114
ag849
a(lp854
g823
ag849
aaa(lp855
I1111
aI1114
ag849
a(lp856
g814
ag849
aaa(lp857
I1122
aI1123
aS'go'
p858
a(lp859
g849
ag858
aaa(lp860
I1122
aI1123
ag858
a(lp861
g33
ag858
aaa(lp862
I1122
aI1123
ag858
a(lp863
g832
ag858
aaa(lp864
I1122
aI1123
ag858
a(lp865
g823
ag858
aaa(lp866
I1130
aI1134
aS'sales'
p867
a(lp868
g858
ag867
aaa(lp869
I1130
aI1134
ag867
a(lp870
g849
ag867
aaa(lp871
I1130
aI1134
ag867
a(lp872
g33
ag867
aaa(lp873
I1130
aI1134
ag867
a(lp874
g832
ag867
aaa(lp875
I1139
aI1151
aS'automatically'
p876
a(lp877
g867
ag876
aaa(lp878
I1139
aI1151
ag876
a(lp879
g858
ag876
aaa(lp880
I1139
aI1151
ag876
a(lp881
g849
ag876
aaa(lp882
I1139
aI1151
ag876
a(lp883
g33
ag876
aaa(lp884
I1153
aI1156
aS'feel'
p885
a(lp886
g876
ag885
aaa(lp887
I1153
aI1156
ag885
a(lp888
g867
ag885
aaa(lp889
I1153
aI1156
ag885
a(lp890
g858
ag885
aaa(lp891
I1153
aI1156
ag885
a(lp892
g849
ag885
aaa(lp893
I1161
aI1166
aS'though'
p894
a(lp895
g885
ag894
aaa(lp896
I1161
aI1166
ag894
a(lp897
g876
ag894
aaa(lp898
I1161
aI1166
ag894
a(lp899
g867
ag894
aaa(lp900
I1161
aI1166
ag894
a(lp901
g858
ag894
aaa(lp902
I1175
aI1183
aS'recommend'
p903
a(lp904
g894
ag903
aaa(lp905
I1175
aI1183
ag903
a(lp906
g885
ag903
aaa(lp907
I1175
aI1183
ag903
a(lp908
g876
ag903
aaa(lp909
I1175
aI1183
ag903
a(lp910
g867
ag903
aaa(lp911
I1189
aI1196
aS'products'
p912
a(lp913
g903
ag912
aaa(lp914
I1189
aI1196
ag912
a(lp915
g894
ag912
aaa(lp916
I1189
aI1196
ag912
a(lp917
g885
ag912
aaa(lp918
I1189
aI1196
ag912
a(lp919
g876
ag912
aaa(lp920
I1201
aI1204
aS'sell'
p921
a(lp922
g912
ag921
aaa(lp923
I1201
aI1204
ag921
a(lp924
g903
ag921
aaa(lp925
I1201
aI1204
ag921
a(lp926
g894
ag921
aaa(lp927
I1201
aI1204
ag921
a(lp928
g885
ag921
aaa(lp929
I1225
aI1228
aS'tend'
p930
a(lp931
g921
ag930
aaa(lp932
I1225
aI1228
ag930
a(lp933
g912
ag930
aaa(lp934
I1225
aI1228
ag930
a(lp935
g903
ag930
aaa(lp936
I1225
aI1228
ag930
a(lp937
g894
ag930
aaa(lp938
I1233
aI1236
aS'feel'
p939
a(lp940
g930
ag939
aaa(lp941
I1233
aI1236
ag939
a(lp942
g921
ag939
aaa(lp943
I1233
aI1236
ag939
a(lp944
g912
ag939
aaa(lp945
I1233
aI1236
ag939
a(lp946
g903
ag939
aaa(lp947
I1238
aI1243
aS'guilty'
p948
a(lp949
g939
ag948
aaa(lp950
I1238
aI1243
ag948
a(lp951
g930
ag948
aaa(lp952
I1238
aI1243
ag948
a(lp953
g921
ag948
aaa(lp954
I1238
aI1243
ag948
a(lp955
g912
ag948
aaa(lp956
I1253
aI1255
aS'wee'
p957
a(lp958
g948
ag957
aaa(lp959
I1253
aI1255
ag957
a(lp960
g939
ag957
aaa(lp961
I1253
aI1255
ag957
a(lp962
g930
ag957
aaa(lp963
I1253
aI1255
ag957
a(lp964
g921
ag957
aaa(lp965
I1257
aI1261
aS'going'
p966
a(lp967
g957
ag966
aaa(lp968
I1257
aI1261
ag966
a(lp969
g948
ag966
aaa(lp970
I1257
aI1261
ag966
a(lp971
g939
ag966
aaa(lp972
I1257
aI1261
ag966
a(lp973
g930
ag966
aaa(lp974
I1266
aI1269
aS'make'
p975
a(lp976
g966
ag975
aaa(lp977
I1266
aI1269
ag975
a(lp978
g957
ag975
aaa(lp979
I1266
aI1269
ag975
a(lp980
g948
ag975
aaa(lp981
I1266
aI1269
ag975
a(lp982
g939
ag975
aaa(lp983
I1273
aI1278
aS'profit'
p984
a(lp985
g975
ag984
aaa(lp986
I1273
aI1278
ag984
a(lp987
g966
ag984
aaa(lp988
I1273
aI1278
ag984
a(lp989
g957
ag984
aaa(lp990
I1273
aI1278
ag984
a(lp991
g948
ag984
aaa(lp992
I1292
aI1292
ag33
a(lp993
g984
ag33
aaa(lp994
I1292
aI1292
ag33
a(lp995
g975
ag33
aaa(lp996
I1292
aI1292
ag33
a(lp997
g966
ag33
aaa(lp998
I1292
aI1292
ag33
a(lp999
g957
ag33
aaa(lp1000
I1305
aI1307
aS'one'
p1001
a(lp1002
g33
ag1001
aaa(lp1003
I1305
aI1307
ag1001
a(lp1004
g984
ag1001
aaa(lp1005
I1305
aI1307
ag1001
a(lp1006
g975
ag1001
aaa(lp1007
I1305
aI1307
ag1001
a(lp1008
g966
ag1001
aaa(lp1009
I1320
aI1323
aS'fear'
p1010
a(lp1011
g1001
ag1010
aaa(lp1012
I1320
aI1323
ag1010
a(lp1013
g33
ag1010
aaa(lp1014
I1320
aI1323
ag1010
a(lp1015
g984
ag1010
aaa(lp1016
I1320
aI1323
ag1010
a(lp1017
g975
ag1010
aaa(lp1018
I1328
aI1334
aS'selling'
p1019
a(lp1020
g1010
ag1019
aaa(lp1021
I1328
aI1334
ag1019
a(lp1022
g1001
ag1019
aaa(lp1023
I1328
aI1334
ag1019
a(lp1024
g33
ag1019
aaa(lp1025
I1328
aI1334
ag1019
a(lp1026
g984
ag1019
aaa(lp1027
I1337
aI1340
aS'take'
p1028
a(lp1029
g1019
ag1028
aaa(lp1030
I1337
aI1340
ag1028
a(lp1031
g1010
ag1028
aaa(lp1032
I1337
aI1340
ag1028
a(lp1033
g1001
ag1028
aaa(lp1034
I1337
aI1340
ag1028
a(lp1035
g33
ag1028
aaa(lp1036
I1347
aI1350
aS'time'
p1037
a(lp1038
g1028
ag1037
aaa(lp1039
I1347
aI1350
ag1037
a(lp1040
g1019
ag1037
aaa(lp1041
I1347
aI1350
ag1037
a(lp1042
g1010
ag1037
aaa(lp1043
I1347
aI1350
ag1037
a(lp1044
g1001
ag1037
aaa(lp1045
I1352
aI1356
aS'today'
p1046
a(lp1047
g1037
ag1046
aaa(lp1048
I1352
aI1356
ag1046
a(lp1049
g1028
ag1046
aaa(lp1050
I1352
aI1356
ag1046
a(lp1051
g1019
ag1046
aaa(lp1052
I1352
aI1356
ag1046
a(lp1053
g1010
ag1046
aaa(lp1054
I1361
aI1366
aS'figure'
p1055
a(lp1056
g1046
ag1055
aaa(lp1057
I1361
aI1366
ag1055
a(lp1058
g1037
ag1055
aaa(lp1059
I1361
aI1366
ag1055
a(lp1060
g1028
ag1055
aaa(lp1061
I1361
aI1366
ag1055
a(lp1062
g1019
ag1055
aaa(lp1063
I1376
aI1380
aS'cause'
p1064
a(lp1065
g1055
ag1064
aaa(lp1066
I1376
aI1380
ag1064
a(lp1067
g1046
ag1064
aaa(lp1068
I1376
aI1380
ag1064
a(lp1069
g1037
ag1064
aaa(lp1070
I1376
aI1380
ag1064
a(lp1071
g1028
ag1064
aaa(lp1072
I1390
aI1393
aS'fear'
p1073
a(lp1074
g1064
ag1073
aaa(lp1075
I1390
aI1393
ag1073
a(lp1076
g1055
ag1073
aaa(lp1077
I1390
aI1393
ag1073
a(lp1078
g1046
ag1073
aaa(lp1079
I1390
aI1393
ag1073
a(lp1080
g1037
ag1073
aaa(lp1081
I1400
aI1403
aS'take'
p1082
a(lp1083
g1073
ag1082
aaa(lp1084
I1400
aI1403
ag1082
a(lp1085
g1064
ag1082
aaa(lp1086
I1400
aI1403
ag1082
a(lp1087
g1055
ag1082
aaa(lp1088
I1400
aI1403
ag1082
a(lp1089
g1046
ag1082
aaa(lp1090
I1405
aI1410
aS'action'
p1091
a(lp1092
g1082
ag1091
aaa(lp1093
I1405
aI1410
ag1091
a(lp1094
g1073
ag1091
aaa(lp1095
I1405
aI1410
ag1091
a(lp1096
g1064
ag1091
aaa(lp1097
I1405
aI1410
ag1091
a(lp1098
g1055
ag1091
aaa(lp1099
I1415
aI1417
aS'fix'
p1100
a(lp1101
g1091
ag1100
aaa(lp1102
I1415
aI1417
ag1100
a(lp1103
g1082
ag1100
aaa(lp1104
I1415
aI1417
ag1100
a(lp1105
g1073
ag1100
aaa(lp1106
I1415
aI1417
ag1100
a(lp1107
g1064
ag1100
aaa(lp1108
I1424
aI1424
ag33
a(lp1109
g1100
ag33
aaa(lp1110
I1424
aI1424
ag33
a(lp1111
g1091
ag33
aaa(lp1112
I1424
aI1424
ag33
a(lp1113
g1082
ag33
aaa(lp1114
I1424
aI1424
ag33
a(lp1115
g1073
ag33
aaa(lp1116
I1444
aI1450
aS'authors'
p1117
a(lp1118
g33
ag1117
aaa(lp1119
I1444
aI1450
ag1117
a(lp1120
g1100
ag1117
aaa(lp1121
I1444
aI1450
ag1117
a(lp1122
g1091
ag1117
aaa(lp1123
I1444
aI1450
ag1117
a(lp1124
g1082
ag1117
aaa(lp1125
I1453
aI1456
aS'kara'
p1126
a(lp1127
g1117
ag1126
aaa(lp1128
I1453
aI1456
ag1126
a(lp1129
g33
ag1126
aaa(lp1130
I1453
aI1456
ag1126
a(lp1131
g1100
ag1126
aaa(lp1132
I1453
aI1456
ag1126
a(lp1133
g1091
ag1126
aaa(lp1134
I1458
aI1462
aS'kelso'
p1135
a(lp1136
g1126
ag1135
aaa(lp1137
I1458
aI1462
ag1135
a(lp1138
g1117
ag1135
aaa(lp1139
I1458
aI1462
ag1135
a(lp1140
g33
ag1135
aaa(lp1141
I1458
aI1462
ag1135
a(lp1142
g1100
ag1135
aaa(lp1143
I1466
aI1470
aS'anita'
p1144
a(lp1145
g1135
ag1144
aaa(lp1146
I1466
aI1470
ag1144
a(lp1147
g1126
ag1144
aaa(lp1148
I1466
aI1470
ag1144
a(lp1149
g1117
ag1144
aaa(lp1150
I1466
aI1470
ag1144
a(lp1151
g33
ag1144
aaa(lp1152
I1472
aI1478
aS'defrank'
p1153
a(lp1154
g1144
ag1153
aaa(lp1155
I1472
aI1478
ag1153
a(lp1156
g1135
ag1153
aaa(lp1157
I1472
aI1478
ag1153
a(lp1158
g1126
ag1153
aaa(lp1159
I1472
aI1478
ag1153
a(lp1160
g1117
ag1153
aaa(lp1161
I1484
aI1486
aS'two'
p1162
a(lp1163
g1153
ag1162
aaa(lp1164
I1484
aI1486
ag1162
a(lp1165
g1144
ag1162
aaa(lp1166
I1484
aI1486
ag1162
a(lp1167
g1135
ag1162
aaa(lp1168
I1484
aI1486
ag1162
a(lp1169
g1126
ag1162
aaa(lp1170
I1488
aI1491
aS'busy'
p1171
a(lp1172
g1162
ag1171
aaa(lp1173
I1488
aI1491
ag1171
a(lp1174
g1153
ag1171
aaa(lp1175
I1488
aI1491
ag1171
a(lp1176
g1144
ag1171
aaa(lp1177
I1488
aI1491
ag1171
a(lp1178
g1135
ag1171
aaa(lp1179
I1493
aI1497
aS'wahms'
p1180
a(lp1181
g1171
ag1180
aaa(lp1182
I1493
aI1497
ag1180
a(lp1183
g1162
ag1180
aaa(lp1184
I1493
aI1497
ag1180
a(lp1185
g1153
ag1180
aaa(lp1186
I1493
aI1497
ag1180
a(lp1187
g1144
ag1180
aaa(lp1188
I1508
aI1513
aS'owners'
p1189
a(lp1190
g1180
ag1189
aaa(lp1191
I1508
aI1513
ag1189
a(lp1192
g1171
ag1189
aaa(lp1193
I1508
aI1513
ag1189
a(lp1194
g1162
ag1189
aaa(lp1195
I1508
aI1513
ag1189
a(lp1196
g1153
ag1189
aaa(lp1197
I1518
aI1523
aS'direct'
p1198
a(lp1199
g1189
ag1198
aaa(lp1200
I1518
aI1523
ag1198
a(lp1201
g1180
ag1198
aaa(lp1202
I1518
aI1523
ag1198
a(lp1203
g1171
ag1198
aaa(lp1204
I1518
aI1523
ag1198
a(lp1205
g1162
ag1198
aaa(lp1206
I1525
aI1529
aS'sales'
p1207
a(lp1208
g1198
ag1207
aaa(lp1209
I1525
aI1529
ag1207
a(lp1210
g1189
ag1207
aaa(lp1211
I1525
aI1529
ag1207
a(lp1212
g1180
ag1207
aaa(lp1213
I1525
aI1529
ag1207
a(lp1214
g1171
ag1207
aaa(lp1215
I1531
aI1537
aS'helpers'
p1216
a(lp1217
g1207
ag1216
aaa(lp1218
I1531
aI1537
ag1216
a(lp1219
g1198
ag1216
aaa(lp1220
I1531
aI1537
ag1216
a(lp1221
g1189
ag1216
aaa(lp1222
I1531
aI1537
ag1216
a(lp1223
g1180
ag1216
aaa(lp1224
I1540
aI1544
aS'learn'
p1225
a(lp1226
g1216
ag1225
aaa(lp1227
I1540
aI1544
ag1225
a(lp1228
g1207
ag1225
aaa(lp1229
I1540
aI1544
ag1225
a(lp1230
g1198
ag1225
aaa(lp1231
I1540
aI1544
ag1225
a(lp1232
g1189
ag1225
aaa(lp1233
I1561
aI1570
aS'successful'
p1234
a(lp1235
g1225
ag1234
aaa(lp1236
I1561
aI1570
ag1234
a(lp1237
g1216
ag1234
aaa(lp1238
I1561
aI1570
ag1234
a(lp1239
g1207
ag1234
aaa(lp1240
I1561
aI1570
ag1234
a(lp1241
g1198
ag1234
aaa(lp1242
I1580
aI1586
aS'company'
p1243
a(lp1244
g1234
ag1243
aaa(lp1245
I1580
aI1586
ag1243
a(lp1246
g1225
ag1243
aaa(lp1247
I1580
aI1586
ag1243
a(lp1248
g1216
ag1243
aaa(lp1249
I1580
aI1586
ag1243
a(lp1250
g1207
ag1243
aaa(lp1251
I1588
aI1589
aS'visiting'
p1252
a(lp1253
g1243
ag1252
aaa(lp1254
I1588
aI1589
ag1252
a(lp1255
g1234
ag1252
aaa(lp1256
I1588
aI1589
ag1252
a(lp1257
g1225
ag1252
aaa(lp1258
I1588
aI1589
ag1252
a(lp1259
g1216
ag1252
aaasS'wordMap'
p1260
(lp1261
(lp1262
I0
aI9
ag5
a(lp1263
(lp1264
I0
aS'o'
p1265
aa(lp1266
I1
aS'v'
p1267
aa(lp1268
I2
aS'e'
p1269
aa(lp1270
I3
aS'r'
p1271
aa(lp1272
I4
aS'c'
p1273
aa(lp1274
I5
ag1265
aa(lp1275
I6
aS'm'
p1276
aa(lp1277
I7
aS'i'
p1278
aa(lp1279
I8
aS'n'
p1280
aa(lp1281
I9
aS'g'
p1282
aaaa(lp1283
I11
aI13
aS'the'
p1284
a(lp1285
(lp1286
I11
aS't'
p1287
aa(lp1288
I12
aS'h'
p1289
aa(lp1290
I13
ag1269
aaaa(lp1291
I15
aI18
ag15
a(lp1292
(lp1293
I15
aS'f'
p1294
aa(lp1295
I16
ag1269
aa(lp1296
I17
aS'a'
p1297
aa(lp1298
I18
ag1271
aaaa(lp1299
I20
aI21
aS'of'
p1300
a(lp1301
(lp1302
I20
ag1265
aa(lp1303
I21
ag1294
aaaa(lp1304
I23
aI29
ag24
a(lp1305
(lp1306
I23
aS's'
p1307
aa(lp1308
I24
ag1269
aa(lp1309
I25
aS'l'
p1310
aa(lp1311
I26
ag1310
aa(lp1312
I27
ag1278
aa(lp1313
I28
ag1280
aa(lp1314
I29
ag1282
aaaa(lp1315
I32
aI32
ag33
a(lp1316
(lp1317
I32
ag33
aaaa(lp1318
I34
aI36
aS'for'
p1319
a(lp1320
(lp1321
I34
ag1294
aa(lp1322
I35
ag1265
aa(lp1323
I36
ag1271
aaaa(lp1324
I38
aI41
ag42
a(lp1325
(lp1326
I38
ag1276
aa(lp1327
I39
ag1297
aa(lp1328
I40
ag1280
aa(lp1329
I41
aS'y'
p1330
aaaa(lp1331
I43
aI44
aS'of'
p1332
a(lp1333
(lp1334
I43
ag1265
aa(lp1335
I44
ag1294
aaaa(lp1336
I46
aI48
aS'you'
p1337
a(lp1338
(lp1339
I46
ag1330
aa(lp1340
I47
ag1265
aa(lp1341
I48
aS'u'
p1342
aaaa(lp1343
I50
aI52
aS'the'
p1344
a(lp1345
(lp1346
I50
ag1287
aa(lp1347
I51
ag1289
aa(lp1348
I52
ag1269
aaaa(lp1349
I54
aI57
ag51
a(lp1350
(lp1351
I54
ag1294
aa(lp1352
I55
ag1269
aa(lp1353
I56
ag1297
aa(lp1354
I57
ag1271
aaaa(lp1355
I59
aI60
aS'of'
p1356
a(lp1357
(lp1358
I59
ag1265
aa(lp1359
I60
ag1294
aaaa(lp1360
I62
aI68
ag60
a(lp1361
(lp1362
I62
ag1307
aa(lp1363
I63
ag1269
aa(lp1364
I64
ag1310
aa(lp1365
I65
ag1310
aa(lp1366
I66
ag1278
aa(lp1367
I67
ag1280
aa(lp1368
I68
ag1282
aaaa(lp1369
I70
aI71
aS'is'
p1370
a(lp1371
(lp1372
I70
ag1278
aa(lp1373
I71
ag1307
aaaa(lp1374
I73
aI73
ag1297
a(lp1375
(lp1376
I73
ag1297
aaaa(lp1377
I75
aI78
ag69
a(lp1378
(lp1379
I75
ag1289
aa(lp1380
I76
ag1342
aa(lp1381
I77
ag1282
aa(lp1382
I78
ag1269
aaaa(lp1383
I80
aI88
ag78
a(lp1384
(lp1385
I80
ag1273
aa(lp1386
I81
ag1289
aa(lp1387
I82
ag1297
aa(lp1388
I83
ag1310
aa(lp1389
I84
ag1310
aa(lp1390
I85
ag1269
aa(lp1391
I86
ag1280
aa(lp1392
I87
ag1282
aa(lp1393
I88
ag1269
aaaa(lp1394
I90
aI92
aS'and'
p1395
a(lp1396
(lp1397
I90
ag1297
aa(lp1398
I91
ag1280
aa(lp1399
I92
aS'd'
p1400
aaaa(lp1401
I94
aI101
ag87
a(lp1402
(lp1403
I94
ag1265
aa(lp1404
I95
aS'b'
p1405
aa(lp1406
I96
ag1307
aa(lp1407
I97
ag1287
aa(lp1408
I98
ag1297
aa(lp1409
I99
ag1273
aa(lp1410
I100
ag1310
aa(lp1411
I101
ag1269
aaaa(lp1412
I103
aI105
aS'for'
p1413
a(lp1414
(lp1415
I103
ag1294
aa(lp1416
I104
ag1265
aa(lp1417
I105
ag1271
aaaa(lp1418
I107
aI109
aS'you'
p1419
a(lp1420
(lp1421
I107
ag1330
aa(lp1422
I108
ag1265
aa(lp1423
I109
ag1342
aaaa(lp1424
I111
aI114
aS'from'
p1425
a(lp1426
(lp1427
I111
ag1294
aa(lp1428
I112
ag1271
aa(lp1429
I113
ag1265
aa(lp1430
I114
ag1276
aaaa(lp1431
I116
aI118
ag96
a(lp1432
(lp1433
I116
ag1400
aa(lp1434
I117
ag1297
aa(lp1435
I118
ag1330
aaaa(lp1436
I120
aI121
aS'to'
p1437
a(lp1438
(lp1439
I120
ag1287
aa(lp1440
I121
ag1265
aaaa(lp1441
I123
aI125
ag105
a(lp1442
(lp1443
I123
ag1400
aa(lp1444
I124
ag1297
aa(lp1445
I125
ag1330
aaaa(lp1446
I128
aI130
aS'the'
p1447
a(lp1448
(lp1449
I128
ag1287
aa(lp1450
I129
ag1289
aa(lp1451
I130
ag1269
aaaa(lp1452
I132
aI136
ag114
a(lp1453
(lp1454
I132
ag1294
aa(lp1455
I133
ag1278
aa(lp1456
I134
ag1271
aa(lp1457
I135
ag1307
aa(lp1458
I136
ag1287
aaaa(lp1459
I138
aI142
ag123
a(lp1460
(lp1461
I138
ag1287
aa(lp1462
I139
ag1289
aa(lp1463
I140
ag1278
aa(lp1464
I141
ag1280
aa(lp1465
I142
ag1282
aaaa(lp1466
I144
aI146
aS'you'
p1467
a(lp1468
(lp1469
I144
ag1330
aa(lp1470
I145
ag1265
aa(lp1471
I146
ag1342
aaaa(lp1472
I148
aI151
ag132
a(lp1473
(lp1474
I148
ag1280
aa(lp1475
I149
ag1269
aa(lp1476
I150
ag1269
aa(lp1477
I151
ag1400
aaaa(lp1478
I153
aI154
aS'to'
p1479
a(lp1480
(lp1481
I153
ag1287
aa(lp1482
I154
ag1265
aaaa(lp1483
I156
aI157
aS'do'
p1484
a(lp1485
(lp1486
I156
ag1400
aa(lp1487
I157
ag1265
aaaa(lp1488
I159
aI160
aS'is'
p1489
a(lp1490
(lp1491
I159
ag1278
aa(lp1492
I160
ag1307
aaaa(lp1493
I162
aI165
ag141
a(lp1494
(lp1495
I162
ag1294
aa(lp1496
I163
ag1278
aa(lp1497
I164
ag1280
aa(lp1498
I165
ag1400
aaaa(lp1499
I167
aI169
aS'out'
p1500
a(lp1501
(lp1502
I167
ag1265
aa(lp1503
I168
ag1342
aa(lp1504
I169
ag1287
aaaa(lp1505
I171
aI177
ag150
a(lp1506
(lp1507
I171
ag1269
aa(lp1508
I172
aS'x'
p1509
aa(lp1510
I173
ag1297
aa(lp1511
I174
ag1273
aa(lp1512
I175
ag1287
aa(lp1513
I176
ag1310
aa(lp1514
I177
ag1330
aaaa(lp1515
I179
aI182
aS'what'
p1516
a(lp1517
(lp1518
I179
aS'w'
p1519
aa(lp1520
I180
ag1289
aa(lp1521
I181
ag1297
aa(lp1522
I182
ag1287
aaaa(lp1523
I184
aI185
aS'it'
p1524
a(lp1525
(lp1526
I184
ag1278
aa(lp1527
I185
ag1287
aaaa(lp1528
I187
aI188
aS'is'
p1529
a(lp1530
(lp1531
I187
ag1278
aa(lp1532
I188
ag1307
aaaa(lp1533
I190
aI195
ag159
a(lp1534
(lp1535
I190
ag1330
aa(lp1536
I191
ag1265
aa(lp1537
I192
ag1342
aa(lp1538
I194
ag1271
aa(lp1539
I195
ag1269
aaaa(lp1540
I197
aI202
ag168
a(lp1541
(lp1542
I197
ag1297
aa(lp1543
I198
ag1294
aa(lp1544
I199
ag1271
aa(lp1545
I200
ag1297
aa(lp1546
I201
ag1278
aa(lp1547
I202
ag1400
aaaa(lp1548
I204
aI205
aS'of'
p1549
a(lp1550
(lp1551
I204
ag1265
aa(lp1552
I205
ag1294
aaaa(lp1553
I208
aI210
aS'are'
p1554
a(lp1555
(lp1556
I208
ag1297
aa(lp1557
I209
ag1271
aa(lp1558
I210
ag1269
aaaa(lp1559
I212
aI214
aS'you'
p1560
a(lp1561
(lp1562
I212
ag1330
aa(lp1563
I213
ag1265
aa(lp1564
I214
ag1342
aaaa(lp1565
I216
aI221
ag177
a(lp1566
(lp1567
I216
ag1297
aa(lp1568
I217
ag1294
aa(lp1569
I218
ag1271
aa(lp1570
I219
ag1297
aa(lp1571
I220
ag1278
aa(lp1572
I221
ag1400
aaaa(lp1573
I223
aI224
aS'of'
p1574
a(lp1575
(lp1576
I223
ag1265
aa(lp1577
I224
ag1294
aaaa(lp1578
I226
aI232
ag186
a(lp1579
(lp1580
I226
ag1307
aa(lp1581
I227
ag1342
aa(lp1582
I228
ag1273
aa(lp1583
I229
ag1273
aa(lp1584
I230
ag1269
aa(lp1585
I231
ag1307
aa(lp1586
I232
ag1307
aaaa(lp1587
I235
aI241
ag195
a(lp1588
(lp1589
I235
ag1405
aa(lp1590
I236
ag1269
aa(lp1591
I237
ag1310
aa(lp1592
I238
ag1278
aa(lp1593
I239
ag1269
aa(lp1594
I240
ag1267
aa(lp1595
I241
ag1269
aaaa(lp1596
I243
aI244
aS'it'
p1597
a(lp1598
(lp1599
I243
ag1278
aa(lp1600
I244
ag1287
aaaa(lp1601
I246
aI247
aS'or'
p1602
a(lp1603
(lp1604
I246
ag1265
aa(lp1605
I247
ag1271
aaaa(lp1606
I249
aI251
aS'not'
p1607
a(lp1608
(lp1609
I249
ag1280
aa(lp1610
I250
ag1265
aa(lp1611
I251
ag1287
aaaa(lp1612
I253
aI257
aS'there'
p1613
a(lp1614
(lp1615
I253
ag1287
aa(lp1616
I254
ag1289
aa(lp1617
I255
ag1269
aa(lp1618
I256
ag1271
aa(lp1619
I257
ag1269
aaaa(lp1620
I259
aI262
aS'this'
p1621
a(lp1622
(lp1623
I259
ag1287
aa(lp1624
I260
ag1289
aa(lp1625
I261
ag1278
aa(lp1626
I262
ag1307
aaaa(lp1627
I264
aI265
aS'is'
p1628
a(lp1629
(lp1630
I264
ag1278
aa(lp1631
I265
ag1307
aaaa(lp1632
I267
aI268
aS'an'
p1633
a(lp1634
(lp1635
I267
ag1297
aa(lp1636
I268
ag1280
aaaa(lp1637
I270
aI275
ag204
a(lp1638
(lp1639
I270
ag1297
aa(lp1640
I271
ag1273
aa(lp1641
I272
ag1287
aa(lp1642
I273
ag1342
aa(lp1643
I274
ag1297
aa(lp1644
I275
ag1310
aaaa(lp1645
I277
aI280
ag213
a(lp1646
(lp1647
I277
ag1294
aa(lp1648
I278
ag1269
aa(lp1649
I279
ag1297
aa(lp1650
I280
ag1271
aaaa(lp1651
I282
aI283
aS'of'
p1652
a(lp1653
(lp1654
I282
ag1265
aa(lp1655
I283
ag1294
aaaa(lp1656
I285
aI288
aS'some'
p1657
a(lp1658
(lp1659
I285
ag1307
aa(lp1660
I286
ag1265
aa(lp1661
I287
ag1276
aa(lp1662
I288
ag1269
aaaa(lp1663
I290
aI294
ag222
a(lp1664
(lp1665
I290
ag1294
aa(lp1666
I291
ag1265
aa(lp1667
I292
ag1310
aa(lp1668
I293
aS'k'
p1669
aa(lp1670
I294
ag1307
aaaa(lp1671
I297
aI299
aS'are'
p1672
a(lp1673
(lp1674
I297
ag1297
aa(lp1675
I298
ag1271
aa(lp1676
I299
ag1269
aaaa(lp1677
I301
aI303
aS'you'
p1678
a(lp1679
(lp1680
I301
ag1330
aa(lp1681
I302
ag1265
aa(lp1682
I303
ag1342
aaaa(lp1683
I305
aI310
ag231
a(lp1684
(lp1685
I305
ag1297
aa(lp1686
I306
ag1294
aa(lp1687
I307
ag1271
aa(lp1688
I308
ag1297
aa(lp1689
I309
ag1278
aa(lp1690
I310
ag1400
aaaa(lp1691
I312
aI313
aS'of'
p1692
a(lp1693
(lp1694
I312
ag1265
aa(lp1695
I313
ag1294
aaaa(lp1696
I315
aI321
ag240
a(lp1697
(lp1698
I315
ag1294
aa(lp1699
I316
ag1297
aa(lp1700
I317
ag1278
aa(lp1701
I318
ag1310
aa(lp1702
I319
ag1342
aa(lp1703
I320
ag1271
aa(lp1704
I321
ag1269
aaaa(lp1705
I323
aI324
aS'or'
p1706
a(lp1707
(lp1708
I323
ag1265
aa(lp1709
I324
ag1271
aaaa(lp1710
I326
aI334
ag249
a(lp1711
(lp1712
I326
ag1271
aa(lp1713
I327
ag1269
aa(lp1714
I328
aS'j'
p1715
aa(lp1716
I329
ag1269
aa(lp1717
I330
ag1273
aa(lp1718
I331
ag1287
aa(lp1719
I332
ag1278
aa(lp1720
I333
ag1265
aa(lp1721
I334
ag1280
aaaa(lp1722
I337
aI338
aS'do'
p1723
a(lp1724
(lp1725
I337
ag1400
aa(lp1726
I338
ag1265
aaaa(lp1727
I340
aI342
aS'you'
p1728
a(lp1729
(lp1730
I340
ag1330
aa(lp1731
I341
ag1265
aa(lp1732
I342
ag1342
aaaa(lp1733
I344
aI347
ag258
a(lp1734
(lp1735
I344
ag1294
aa(lp1736
I345
ag1269
aa(lp1737
I346
ag1297
aa(lp1738
I347
ag1271
aaaa(lp1739
I349
aI353
aS'being'
p1740
a(lp1741
(lp1742
I349
ag1405
aa(lp1743
I350
ag1269
aa(lp1744
I351
ag1278
aa(lp1745
I352
ag1280
aa(lp1746
I353
ag1282
aaaa(lp1747
I355
aI363
ag267
a(lp1748
(lp1749
I355
aS'p'
p1750
aa(lp1751
I356
ag1269
aa(lp1752
I357
ag1271
aa(lp1753
I358
ag1273
aa(lp1754
I359
ag1269
aa(lp1755
I360
ag1278
aa(lp1756
I361
ag1267
aa(lp1757
I362
ag1269
aa(lp1758
I363
ag1400
aaaa(lp1759
I365
aI366
aS'as'
p1760
a(lp1761
(lp1762
I365
ag1297
aa(lp1763
I366
ag1307
aaaa(lp1764
I368
aI372
aS'being'
p1765
a(lp1766
(lp1767
I368
ag1405
aa(lp1768
I369
ag1269
aa(lp1769
I370
ag1278
aa(lp1770
I371
ag1280
aa(lp1771
I372
ag1282
aaaa(lp1772
I374
aI378
ag276
a(lp1773
(lp1774
I374
ag1750
aa(lp1775
I375
ag1342
aa(lp1776
I376
ag1307
aa(lp1777
I377
ag1289
aa(lp1778
I378
ag1330
aaaa(lp1779
I381
aI382
aS'do'
p1780
a(lp1781
(lp1782
I381
ag1400
aa(lp1783
I382
ag1265
aaaa(lp1784
I384
aI386
aS'you'
p1785
a(lp1786
(lp1787
I384
ag1330
aa(lp1788
I385
ag1265
aa(lp1789
I386
ag1342
aaaa(lp1790
I389
aI396
ag285
a(lp1791
(lp1792
I389
ag1307
aa(lp1793
I390
ag1269
aa(lp1794
I391
ag1273
aa(lp1795
I392
ag1271
aa(lp1796
I393
ag1269
aa(lp1797
I394
ag1287
aa(lp1798
I395
ag1310
aa(lp1799
I396
ag1330
aaaa(lp1800
I398
aI399
aS'of'
p1801
a(lp1802
(lp1803
I398
ag1265
aa(lp1804
I399
ag1294
aaaa(lp1805
I401
aI406
ag294
a(lp1806
(lp1807
I401
ag1273
aa(lp1808
I402
ag1265
aa(lp1809
I403
ag1342
aa(lp1810
I404
ag1271
aa(lp1811
I405
ag1307
aa(lp1812
I406
ag1269
aaaa(lp1813
I409
aI412
ag303
a(lp1814
(lp1815
I409
ag1294
aa(lp1816
I410
ag1269
aa(lp1817
I411
ag1297
aa(lp1818
I412
ag1271
aaaa(lp1819
I414
aI417
aS'that'
p1820
a(lp1821
(lp1822
I414
ag1287
aa(lp1823
I415
ag1289
aa(lp1824
I416
ag1297
aa(lp1825
I417
ag1287
aaaa(lp1826
I419
aI422
aS'your'
p1827
a(lp1828
(lp1829
I419
ag1330
aa(lp1830
I420
ag1265
aa(lp1831
I421
ag1342
aa(lp1832
I422
ag1271
aaaa(lp1833
I424
aI430
ag312
a(lp1834
(lp1835
I424
ag1750
aa(lp1836
I425
ag1271
aa(lp1837
I426
ag1265
aa(lp1838
I427
ag1400
aa(lp1839
I428
ag1342
aa(lp1840
I429
ag1273
aa(lp1841
I430
ag1287
aaaa(lp1842
I432
aI434
ag321
a(lp1843
(lp1844
I432
ag1276
aa(lp1845
I433
ag1297
aa(lp1846
I434
ag1330
aaaa(lp1847
I436
aI438
aS'not'
p1848
a(lp1849
(lp1850
I436
ag1280
aa(lp1851
I437
ag1265
aa(lp1852
I438
ag1287
aaaa(lp1853
I440
aI443
ag330
a(lp1854
(lp1855
I440
ag1276
aa(lp1856
I441
ag1269
aa(lp1857
I442
ag1269
aa(lp1858
I443
ag1287
aaaa(lp1859
I445
aI447
aS'the'
p1860
a(lp1861
(lp1862
I445
ag1287
aa(lp1863
I446
ag1289
aa(lp1864
I447
ag1269
aaaa(lp1865
I449
aI460
ag339
a(lp1866
(lp1867
I449
ag1269
aa(lp1868
I450
ag1509
aa(lp1869
I451
ag1750
aa(lp1870
I452
ag1269
aa(lp1871
I453
ag1273
aa(lp1872
I454
ag1287
aa(lp1873
I455
ag1297
aa(lp1874
I456
ag1287
aa(lp1875
I457
ag1278
aa(lp1876
I458
ag1265
aa(lp1877
I459
ag1280
aa(lp1878
I460
ag1307
aaaa(lp1879
I462
aI463
aS'of'
p1880
a(lp1881
(lp1882
I462
ag1265
aa(lp1883
I463
ag1294
aaaa(lp1884
I465
aI468
aS'your'
p1885
a(lp1886
(lp1887
I465
ag1330
aa(lp1888
I466
ag1265
aa(lp1889
I467
ag1342
aa(lp1890
I468
ag1271
aaaa(lp1891
I470
aI477
ag348
a(lp1892
(lp1893
I470
ag1273
aa(lp1894
I471
ag1342
aa(lp1895
I472
ag1307
aa(lp1896
I473
ag1287
aa(lp1897
I474
ag1265
aa(lp1898
I475
ag1276
aa(lp1899
I476
ag1269
aa(lp1900
I477
ag1271
aaaa(lp1901
I480
aI482
aS'you'
p1902
a(lp1903
(lp1904
I480
ag1330
aa(lp1905
I481
ag1265
aa(lp1906
I482
ag1342
aaaa(lp1907
I484
aI488
ag357
a(lp1908
(lp1909
I484
ag1273
aa(lp1910
I485
ag1297
aa(lp1911
I486
ag1280
aa(lp1912
I488
ag1287
aaaa(lp1913
I490
aI493
ag366
a(lp1914
(lp1915
I490
ag1273
aa(lp1916
I491
ag1265
aa(lp1917
I492
ag1276
aa(lp1918
I493
ag1269
aaaa(lp1919
I495
aI496
aS'up'
p1920
a(lp1921
(lp1922
I495
ag1342
aa(lp1923
I496
ag1750
aaaa(lp1924
I498
aI501
aS'with'
p1925
a(lp1926
(lp1927
I498
ag1519
aa(lp1928
I499
ag1278
aa(lp1929
I500
ag1287
aa(lp1930
I501
ag1289
aaaa(lp1931
I503
aI503
ag1297
a(lp1932
(lp1933
I503
ag1297
aaaa(lp1934
I505
aI512
ag375
a(lp1935
(lp1936
I505
ag1307
aa(lp1937
I506
ag1265
aa(lp1938
I507
ag1310
aa(lp1939
I508
ag1342
aa(lp1940
I509
ag1287
aa(lp1941
I510
ag1278
aa(lp1942
I511
ag1265
aa(lp1943
I512
ag1280
aaaa(lp1944
I514
aI515
aS'if'
p1945
a(lp1946
(lp1947
I514
ag1278
aa(lp1948
I515
ag1294
aaaa(lp1949
I517
aI519
aS'you'
p1950
a(lp1951
(lp1952
I517
ag1330
aa(lp1953
I518
ag1265
aa(lp1954
I519
ag1342
aaaa(lp1955
I521
aI525
ag384
a(lp1956
(lp1957
I521
ag1400
aa(lp1958
I522
ag1265
aa(lp1959
I523
ag1280
aa(lp1960
I525
ag1287
aaaa(lp1961
I527
aI530
ag393
a(lp1962
(lp1963
I527
ag1669
aa(lp1964
I528
ag1280
aa(lp1965
I529
ag1265
aa(lp1966
I530
ag1519
aaaa(lp1967
I532
aI535
aS'what'
p1968
a(lp1969
(lp1970
I532
ag1519
aa(lp1971
I533
ag1289
aa(lp1972
I534
ag1297
aa(lp1973
I535
ag1287
aaaa(lp1974
I537
aI539
aS'the'
p1975
a(lp1976
(lp1977
I537
ag1287
aa(lp1978
I538
ag1289
aa(lp1979
I539
ag1269
aaaa(lp1980
I541
aI547
ag402
a(lp1981
(lp1982
I541
ag1750
aa(lp1983
I542
ag1271
aa(lp1984
I543
ag1265
aa(lp1985
I544
ag1405
aa(lp1986
I545
ag1310
aa(lp1987
I546
ag1269
aa(lp1988
I547
ag1276
aaaa(lp1989
I549
aI550
aS'is'
p1990
a(lp1991
(lp1992
I549
ag1278
aa(lp1993
I550
ag1307
aaaa(lp1994
I554
aI554
ag33
a(lp1995
(lp1996
I554
ag33
aaaa(lp1997
I556
aI562
ag419
a(lp1998
(lp1999
I556
ag1287
aa(lp2000
I557
ag1289
aa(lp2001
I558
ag1269
aa(lp2002
I559
ag1271
aa(lp2003
I560
ag1269
aa(lp2004
I562
ag1307
aaaa(lp2005
I564
aI564
ag1297
a(lp2006
(lp2007
I564
ag1297
aaaa(lp2008
I566
aI569
ag428
a(lp2009
(lp2010
I566
ag1289
aa(lp2011
I567
ag1342
aa(lp2012
I568
ag1282
aa(lp2013
I569
ag1269
aaaa(lp2014
I571
aI583
ag437
a(lp2015
(lp2016
I571
ag1276
aa(lp2017
I572
ag1278
aa(lp2018
I573
ag1307
aa(lp2019
I574
ag1273
aa(lp2020
I575
ag1265
aa(lp2021
I576
ag1280
aa(lp2022
I577
ag1273
aa(lp2023
I578
ag1269
aa(lp2024
I579
ag1750
aa(lp2025
I580
ag1287
aa(lp2026
I581
ag1278
aa(lp2027
I582
ag1265
aa(lp2028
I583
ag1280
aaaa(lp2029
I585
aI586
aS'in'
p2030
a(lp2031
(lp2032
I585
ag1278
aa(lp2033
I586
ag1280
aaaa(lp2034
I588
aI593
ag446
a(lp2035
(lp2036
I588
ag1400
aa(lp2037
I589
ag1278
aa(lp2038
I590
ag1271
aa(lp2039
I591
ag1269
aa(lp2040
I592
ag1273
aa(lp2041
I593
ag1287
aaaa(lp2042
I595
aI599
ag455
a(lp2043
(lp2044
I595
ag1307
aa(lp2045
I596
ag1297
aa(lp2046
I597
ag1310
aa(lp2047
I598
ag1269
aa(lp2048
I599
ag1307
aaaa(lp2049
I601
aI605
aS'being'
p2050
a(lp2051
(lp2052
I601
ag1405
aa(lp2053
I602
ag1269
aa(lp2054
I603
ag1278
aa(lp2055
I604
ag1280
aa(lp2056
I605
ag1282
aaaa(lp2057
I607
aI610
aS'that'
p2058
a(lp2059
(lp2060
I607
ag1287
aa(lp2061
I608
ag1289
aa(lp2062
I609
ag1297
aa(lp2063
I610
ag1287
aaaa(lp2064
I612
aI614
aS'you'
p2065
a(lp2066
(lp2067
I612
ag1330
aa(lp2068
I613
ag1265
aa(lp2069
I614
ag1342
aaaa(lp2070
I616
aI620
ag464
a(lp2071
(lp2072
I616
ag1287
aa(lp2073
I617
ag1289
aa(lp2074
I618
ag1278
aa(lp2075
I619
ag1280
aa(lp2076
I620
ag1669
aaaa(lp2077
I622
aI627
ag473
a(lp2078
(lp2079
I622
ag1330
aa(lp2080
I623
ag1265
aa(lp2081
I624
ag1342
aa(lp2082
I626
ag1271
aa(lp2083
I627
ag1269
aaaa(lp2084
I630
aI637
ag482
a(lp2085
(lp2086
I630
ag1278
aa(lp2087
I631
ag1276
aa(lp2088
I632
ag1750
aa(lp2089
I633
ag1265
aa(lp2090
I634
ag1307
aa(lp2091
I635
ag1278
aa(lp2092
I636
ag1280
aa(lp2093
I637
ag1282
aaaa(lp2094
I640
aI641
aS'on'
p2095
a(lp2096
(lp2097
I640
ag1265
aa(lp2098
I641
ag1280
aaaa(lp2099
I643
aI646
aS'your'
p2100
a(lp2101
(lp2102
I643
ag1330
aa(lp2103
I644
ag1265
aa(lp2104
I645
ag1342
aa(lp2105
I646
ag1271
aaaa(lp2106
I648
aI654
ag491
a(lp2107
(lp2108
I648
ag1294
aa(lp2109
I649
ag1271
aa(lp2110
I650
ag1278
aa(lp2111
I651
ag1269
aa(lp2112
I652
ag1280
aa(lp2113
I653
ag1400
aa(lp2114
I654
ag1307
aaaa(lp2115
I657
aI662
ag500
a(lp2116
(lp2117
I657
ag1294
aa(lp2118
I658
ag1297
aa(lp2119
I659
ag1276
aa(lp2120
I660
ag1278
aa(lp2121
I661
ag1310
aa(lp2122
I662
ag1330
aaaa(lp2123
I664
aI665
aS'or'
p2124
a(lp2125
(lp2126
I664
ag1265
aa(lp2127
I665
ag1271
aaaa(lp2128
I667
aI670
aS'just'
p2129
a(lp2130
(lp2131
I667
ag1715
aa(lp2132
I668
ag1342
aa(lp2133
I669
ag1307
aa(lp2134
I670
ag1287
aaaa(lp2135
I672
aI672
ag1297
a(lp2136
(lp2137
I672
ag1297
aaaa(lp2138
I674
aI681
ag509
a(lp2139
(lp2140
I674
ag1273
aa(lp2141
I675
ag1342
aa(lp2142
I676
ag1307
aa(lp2143
I677
ag1287
aa(lp2144
I678
ag1265
aa(lp2145
I679
ag1276
aa(lp2146
I680
ag1269
aa(lp2147
I681
ag1271
aaaa(lp2148
I683
aI684
aS'in'
p2149
a(lp2150
(lp2151
I683
ag1278
aa(lp2152
I684
ag1280
aaaa(lp2153
I686
aI692
ag518
a(lp2154
(lp2155
I686
ag1282
aa(lp2156
I687
ag1269
aa(lp2157
I688
ag1280
aa(lp2158
I689
ag1269
aa(lp2159
I690
ag1271
aa(lp2160
I691
ag1297
aa(lp2161
I692
ag1310
aaaa(lp2162
I695
aI696
aS'as'
p2163
a(lp2164
(lp2165
I695
ag1297
aa(lp2166
I696
ag1307
aaaa(lp2167
I698
aI701
ag527
a(lp2168
(lp2169
I698
ag1310
aa(lp2170
I699
ag1265
aa(lp2171
I700
ag1280
aa(lp2172
I701
ag1282
aaaa(lp2173
I703
aI704
aS'as'
p2174
a(lp2175
(lp2176
I703
ag1297
aa(lp2177
I704
ag1307
aaaa(lp2178
I706
aI708
aS'you'
p2179
a(lp2180
(lp2181
I706
ag1330
aa(lp2182
I707
ag1265
aa(lp2183
I708
ag1342
aaaa(lp2184
I710
aI713
ag536
a(lp2185
(lp2186
I710
ag1294
aa(lp2187
I711
ag1269
aa(lp2188
I712
ag1269
aa(lp2189
I713
ag1310
aaaa(lp2190
I715
aI716
aS'as'
p2191
a(lp2192
(lp2193
I715
ag1297
aa(lp2194
I716
ag1307
aaaa(lp2195
I718
aI723
ag545
a(lp2196
(lp2197
I718
ag1287
aa(lp2198
I719
ag1289
aa(lp2199
I720
ag1265
aa(lp2200
I721
ag1342
aa(lp2201
I722
ag1282
aa(lp2202
I723
ag1289
aaaa(lp2203
I725
aI730
ag554
a(lp2204
(lp2205
I725
ag1330
aa(lp2206
I726
ag1265
aa(lp2207
I727
ag1342
aa(lp2208
I729
ag1271
aa(lp2209
I730
ag1269
aaaa(lp2210
I732
aI745
ag563
a(lp2211
(lp2212
I732
ag1278
aa(lp2213
I733
ag1276
aa(lp2214
I734
ag1750
aa(lp2215
I735
ag1265
aa(lp2216
I736
ag1307
aa(lp2217
I737
ag1278
aa(lp2218
I738
ag1280
aa(lp2219
I739
ag1282
aa(lp2220
I743
ag1330
aa(lp2221
I744
ag1265
aa(lp2222
I745
ag1342
aaaa(lp2223
I747
aI749
aS'are'
p2224
a(lp2225
(lp2226
I747
ag1297
aa(lp2227
I748
ag1271
aa(lp2228
I749
ag1269
aaaa(lp2229
I752
aI754
aS'you'
p2230
a(lp2231
(lp2232
I752
ag1330
aa(lp2233
I753
ag1265
aa(lp2234
I754
ag1342
aaaa(lp2235
I756
aI759
ag572
a(lp2236
(lp2237
I756
ag1280
aa(lp2238
I757
ag1269
aa(lp2239
I758
ag1269
aa(lp2240
I759
ag1400
aaaa(lp2241
I761
aI762
aS'to'
p2242
a(lp2243
(lp2244
I761
ag1287
aa(lp2245
I762
ag1265
aaaa(lp2246
I764
aI767
ag581
a(lp2247
(lp2248
I764
ag1310
aa(lp2249
I765
ag1265
aa(lp2250
I766
ag1267
aa(lp2251
I767
ag1269
aaaa(lp2252
I769
aI772
aS'your'
p2253
a(lp2254
(lp2255
I769
ag1330
aa(lp2256
I770
ag1265
aa(lp2257
I771
ag1342
aa(lp2258
I772
ag1271
aaaa(lp2259
I774
aI780
ag590
a(lp2260
(lp2261
I774
ag1750
aa(lp2262
I775
ag1271
aa(lp2263
I776
ag1265
aa(lp2264
I777
ag1400
aa(lp2265
I778
ag1342
aa(lp2266
I779
ag1273
aa(lp2267
I780
ag1287
aaaa(lp2268
I782
aI784
aS'and'
p2269
a(lp2270
(lp2271
I782
ag1297
aa(lp2272
I783
ag1280
aa(lp2273
I784
ag1400
aaaa(lp2274
I786
aI789
ag599
a(lp2275
(lp2276
I786
ag1294
aa(lp2277
I787
ag1269
aa(lp2278
I788
ag1269
aa(lp2279
I789
ag1310
aaaa(lp2280
I791
aI792
aS'as'
p2281
a(lp2282
(lp2283
I791
ag1297
aa(lp2284
I792
ag1307
aaaa(lp2285
I794
aI799
ag608
a(lp2286
(lp2287
I794
ag1287
aa(lp2288
I795
ag1289
aa(lp2289
I796
ag1265
aa(lp2290
I797
ag1342
aa(lp2291
I798
ag1282
aa(lp2292
I799
ag1289
aaaa(lp2293
I801
aI803
aS'you'
p2294
a(lp2295
(lp2296
I801
ag1330
aa(lp2297
I802
ag1265
aa(lp2298
I803
ag1342
aaaa(lp2299
I805
aI807
aS'are'
p2300
a(lp2301
(lp2302
I805
ag1297
aa(lp2303
I806
ag1271
aa(lp2304
I807
ag1269
aaaa(lp2305
I809
aI816
ag617
a(lp2306
(lp2307
I809
ag1265
aa(lp2308
I810
ag1294
aa(lp2309
I811
ag1294
aa(lp2310
I812
ag1269
aa(lp2311
I813
ag1271
aa(lp2312
I814
ag1278
aa(lp2313
I815
ag1280
aa(lp2314
I816
ag1282
aaaa(lp2315
I818
aI818
ag1297
a(lp2316
(lp2317
I818
ag1297
aaaa(lp2318
I820
aI826
ag626
a(lp2319
(lp2320
I820
ag1307
aa(lp2321
I821
ag1269
aa(lp2322
I822
ag1271
aa(lp2323
I823
ag1267
aa(lp2324
I824
ag1278
aa(lp2325
I825
ag1273
aa(lp2326
I826
ag1269
aaaa(lp2327
I829
aI834
ag635
a(lp2328
(lp2329
I829
ag1330
aa(lp2330
I830
ag1265
aa(lp2331
I831
ag1342
aa(lp2332
I833
ag1271
aa(lp2333
I834
ag1269
aaaa(lp2334
I836
aI842
ag644
a(lp2335
(lp2336
I836
ag1294
aa(lp2337
I837
ag1278
aa(lp2338
I838
ag1310
aa(lp2339
I839
ag1310
aa(lp2340
I840
ag1278
aa(lp2341
I841
ag1280
aa(lp2342
I842
ag1282
aaaa(lp2343
I844
aI844
ag1297
a(lp2344
(lp2345
I844
ag1297
aaaa(lp2346
I846
aI849
ag653
a(lp2347
(lp2348
I846
ag1280
aa(lp2349
I847
ag1269
aa(lp2350
I848
ag1269
aa(lp2351
I849
ag1400
aaaa(lp2352
I853
aI853
ag33
a(lp2353
(lp2354
I853
ag33
aaaa(lp2355
I855
aI860
ag670
a(lp2356
(lp2357
I855
ag1750
aa(lp2358
I856
ag1269
aa(lp2359
I857
ag1265
aa(lp2360
I858
ag1750
aa(lp2361
I859
ag1310
aa(lp2362
I860
ag1269
aaaa(lp2363
I862
aI864
aS'are'
p2364
a(lp2365
(lp2366
I862
ag1297
aa(lp2367
I863
ag1271
aa(lp2368
I864
ag1269
aaaa(lp2369
I866
aI877
ag679
a(lp2370
(lp2371
I866
ag1280
aa(lp2372
I867
ag1297
aa(lp2373
I868
ag1287
aa(lp2374
I869
ag1342
aa(lp2375
I870
ag1271
aa(lp2376
I871
ag1297
aa(lp2377
I872
ag1310
aa(lp2378
I874
ag1405
aa(lp2379
I875
ag1265
aa(lp2380
I876
ag1271
aa(lp2381
I877
ag1280
aaaa(lp2382
I879
aI885
ag688
a(lp2383
(lp2384
I879
ag1307
aa(lp2385
I880
ag1269
aa(lp2386
I881
ag1310
aa(lp2387
I882
ag1310
aa(lp2388
I883
ag1269
aa(lp2389
I884
ag1271
aa(lp2390
I885
ag1307
aaaa(lp2391
I888
aI889
aS'we'
p2392
a(lp2393
(lp2394
I888
ag1519
aa(lp2395
I889
ag1269
aaaa(lp2396
I891
aI894
aS'just'
p2397
a(lp2398
(lp2399
I891
ag1715
aa(lp2400
I892
ag1342
aa(lp2401
I893
ag1307
aa(lp2402
I894
ag1287
aaaa(lp2403
I896
aI900
ag697
a(lp2404
(lp2405
I896
ag1400
aa(lp2406
I897
ag1265
aa(lp2407
I898
ag1280
aa(lp2408
I900
ag1287
aaaa(lp2409
I902
aI908
ag706
a(lp2410
(lp2411
I902
ag1271
aa(lp2412
I903
ag1269
aa(lp2413
I904
ag1297
aa(lp2414
I905
ag1310
aa(lp2415
I906
ag1278
aa(lp2416
I907
aS'z'
p2417
aa(lp2418
I908
ag1269
aaaa(lp2419
I910
aI911
aS'it'
p2420
a(lp2421
(lp2422
I910
ag1278
aa(lp2423
I911
ag1287
aaaa(lp2424
I913
aI916
aS'when'
p2425
a(lp2426
(lp2427
I913
ag1519
aa(lp2428
I914
ag1289
aa(lp2429
I915
ag1269
aa(lp2430
I916
ag1280
aaaa(lp2431
I918
aI922
aS'were'
p2432
a(lp2433
(lp2434
I918
ag1519
aa(lp2435
I919
ag1269
aa(lp2436
I921
ag1271
aa(lp2437
I922
ag1269
aaaa(lp2438
I924
aI926
aS'not'
p2439
a(lp2440
(lp2441
I924
ag1280
aa(lp2442
I925
ag1265
aa(lp2443
I926
ag1287
aaaa(lp2444
I928
aI933
ag715
a(lp2445
(lp2446
I928
ag1276
aa(lp2447
I929
ag1297
aa(lp2448
I930
ag1669
aa(lp2449
I931
ag1278
aa(lp2450
I932
ag1280
aa(lp2451
I933
ag1282
aaaa(lp2452
I935
aI939
ag724
a(lp2453
(lp2454
I935
ag1276
aa(lp2455
I936
ag1265
aa(lp2456
I937
ag1280
aa(lp2457
I938
ag1269
aa(lp2458
I939
ag1330
aaaa(lp2459
I941
aI944
aS'from'
p2460
a(lp2461
(lp2462
I941
ag1294
aa(lp2463
I942
ag1271
aa(lp2464
I943
ag1265
aa(lp2465
I944
ag1276
aaaa(lp2466
I946
aI947
aS'it'
p2467
a(lp2468
(lp2469
I946
ag1278
aa(lp2470
I947
ag1287
aaaa(lp2471
I950
aI954
ag733
a(lp2472
(lp2473
I950
ag1310
aa(lp2474
I951
ag1269
aa(lp2475
I952
ag1287
aa(lp2476
I954
ag1307
aaaa(lp2477
I956
aI958
ag742
a(lp2478
(lp2479
I956
ag1307
aa(lp2480
I957
ag1297
aa(lp2481
I958
ag1330
aaaa(lp2482
I960
aI962
aS'you'
p2483
a(lp2484
(lp2485
I960
ag1330
aa(lp2486
I961
ag1265
aa(lp2487
I962
ag1342
aaaa(lp2488
I964
aI965
ag751
a(lp2489
(lp2490
I964
ag1282
aa(lp2491
I965
ag1265
aaaa(lp2492
I967
aI968
aS'to'
p2493
a(lp2494
(lp2495
I967
ag1287
aa(lp2496
I968
ag1265
aaaa(lp2497
I970
aI970
ag1297
a(lp2498
(lp2499
I970
ag1297
aaaa(lp2500
I972
aI976
ag760
a(lp2501
(lp2502
I972
ag1276
aa(lp2503
I973
ag1265
aa(lp2504
I974
ag1267
aa(lp2505
I975
ag1278
aa(lp2506
I976
ag1269
aaaa(lp2507
I978
aI981
aS'that'
p2508
a(lp2509
(lp2510
I978
ag1287
aa(lp2511
I979
ag1289
aa(lp2512
I980
ag1297
aa(lp2513
I981
ag1287
aaaa(lp2514
I983
aI985
aS'you'
p2515
a(lp2516
(lp2517
I983
ag1330
aa(lp2518
I984
ag1265
aa(lp2519
I985
ag1342
aaaa(lp2520
I987
aI991
ag769
a(lp2521
(lp2522
I987
ag1310
aa(lp2523
I988
ag1265
aa(lp2524
I989
ag1267
aa(lp2525
I990
ag1269
aa(lp2526
I991
ag1400
aaaa(lp2527
I993
aI995
aS'and'
p2528
a(lp2529
(lp2530
I993
ag1297
aa(lp2531
I994
ag1280
aa(lp2532
I995
ag1400
aaaa(lp2533
I997
aI999
aS'you'
p2534
a(lp2535
(lp2536
I997
ag1330
aa(lp2537
I998
ag1265
aa(lp2538
I999
ag1342
aaaa(lp2539
I1001
aI1004
aS'have'
p2540
a(lp2541
(lp2542
I1001
ag1289
aa(lp2543
I1002
ag1297
aa(lp2544
I1003
ag1267
aa(lp2545
I1004
ag1269
aaaa(lp2546
I1006
aI1006
ag1297
a(lp2547
(lp2548
I1006
ag1297
aaaa(lp2549
I1008
aI1013
ag778
a(lp2550
(lp2551
I1008
ag1294
aa(lp2552
I1009
ag1271
aa(lp2553
I1010
ag1278
aa(lp2554
I1011
ag1269
aa(lp2555
I1012
ag1280
aa(lp2556
I1013
ag1400
aaaa(lp2557
I1015
aI1018
aS'that'
p2558
a(lp2559
(lp2560
I1015
ag1287
aa(lp2561
I1016
ag1289
aa(lp2562
I1017
ag1297
aa(lp2563
I1018
ag1287
aaaa(lp2564
I1020
aI1022
aS'you'
p2565
a(lp2566
(lp2567
I1020
ag1330
aa(lp2568
I1021
ag1265
aa(lp2569
I1022
ag1342
aaaa(lp2570
I1024
aI1027
ag787
a(lp2571
(lp2572
I1024
ag1669
aa(lp2573
I1025
ag1280
aa(lp2574
I1026
ag1265
aa(lp2575
I1027
ag1519
aaaa(lp2576
I1029
aI1033
ag796
a(lp2577
(lp2578
I1029
ag1519
aa(lp2579
I1030
ag1265
aa(lp2580
I1031
ag1342
aa(lp2581
I1032
ag1310
aa(lp2582
I1033
ag1400
aaaa(lp2583
I1035
aI1039
ag805
a(lp2584
(lp2585
I1035
ag1269
aa(lp2586
I1036
ag1280
aa(lp2587
I1037
ag1715
aa(lp2588
I1038
ag1265
aa(lp2589
I1039
ag1330
aaaa(lp2590
I1041
aI1042
aS'it'
p2591
a(lp2592
(lp2593
I1041
ag1278
aa(lp2594
I1042
ag1287
aaaa(lp2595
I1044
aI1046
aS'too'
p2596
a(lp2597
(lp2598
I1044
ag1287
aa(lp2599
I1045
ag1265
aa(lp2600
I1046
ag1265
aaaa(lp2601
I1049
aI1056
ag814
a(lp2602
(lp2603
I1049
ag1519
aa(lp2604
I1050
ag1265
aa(lp2605
I1051
ag1342
aa(lp2606
I1052
ag1310
aa(lp2607
I1053
ag1400
aa(lp2608
I1054
ag1280
aa(lp2609
I1056
ag1287
aaaa(lp2610
I1058
aI1060
aS'you'
p2611
a(lp2612
(lp2613
I1058
ag1330
aa(lp2614
I1059
ag1265
aa(lp2615
I1060
ag1342
aaaa(lp2616
I1062
aI1070
ag823
a(lp2617
(lp2618
I1062
ag1271
aa(lp2619
I1063
ag1269
aa(lp2620
I1064
ag1273
aa(lp2621
I1065
ag1265
aa(lp2622
I1066
ag1276
aa(lp2623
I1067
ag1276
aa(lp2624
I1068
ag1269
aa(lp2625
I1069
ag1280
aa(lp2626
I1070
ag1400
aaaa(lp2627
I1072
aI1073
aS'it'
p2628
a(lp2629
(lp2630
I1072
ag1278
aa(lp2631
I1073
ag1287
aaaa(lp2632
I1075
aI1076
aS'to'
p2633
a(lp2634
(lp2635
I1075
ag1287
aa(lp2636
I1076
ag1265
aaaa(lp2637
I1078
aI1084
ag832
a(lp2638
(lp2639
I1078
ag1289
aa(lp2640
I1079
ag1278
aa(lp2641
I1080
ag1276
aa(lp2642
I1082
ag1289
aa(lp2643
I1083
ag1269
aa(lp2644
I1084
ag1271
aaaa(lp2645
I1088
aI1088
ag33
a(lp2646
(lp2647
I1088
ag33
aaaa(lp2648
I1090
aI1091
aS'so'
p2649
a(lp2650
(lp2651
I1090
ag1307
aa(lp2652
I1091
ag1265
aaaa(lp2653
I1093
aI1095
aS'why'
p2654
a(lp2655
(lp2656
I1093
ag1519
aa(lp2657
I1094
ag1289
aa(lp2658
I1095
ag1330
aaaa(lp2659
I1097
aI1098
aS'is'
p2660
a(lp2661
(lp2662
I1097
ag1278
aa(lp2663
I1098
ag1307
aaaa(lp2664
I1100
aI1101
aS'it'
p2665
a(lp2666
(lp2667
I1100
ag1278
aa(lp2668
I1101
ag1287
aaaa(lp2669
I1103
aI1106
aS'that'
p2670
a(lp2671
(lp2672
I1103
ag1287
aa(lp2673
I1104
ag1289
aa(lp2674
I1105
ag1297
aa(lp2675
I1106
ag1287
aaaa(lp2676
I1108
aI1109
aS'as'
p2677
a(lp2678
(lp2679
I1108
ag1297
aa(lp2680
I1109
ag1307
aaaa(lp2681
I1111
aI1114
ag849
a(lp2682
(lp2683
I1111
ag1307
aa(lp2684
I1112
ag1265
aa(lp2685
I1113
ag1265
aa(lp2686
I1114
ag1280
aaaa(lp2687
I1116
aI1117
aS'as'
p2688
a(lp2689
(lp2690
I1116
ag1297
aa(lp2691
I1117
ag1307
aaaa(lp2692
I1119
aI1120
aS'we'
p2693
a(lp2694
(lp2695
I1119
ag1519
aa(lp2696
I1120
ag1269
aaaa(lp2697
I1122
aI1123
ag858
a(lp2698
(lp2699
I1122
ag1282
aa(lp2700
I1123
ag1265
aaaa(lp2701
I1125
aI1128
aS'into'
p2702
a(lp2703
(lp2704
I1125
ag1278
aa(lp2705
I1126
ag1280
aa(lp2706
I1127
ag1287
aa(lp2707
I1128
ag1265
aaaa(lp2708
I1130
aI1134
ag867
a(lp2709
(lp2710
I1130
ag1307
aa(lp2711
I1131
ag1297
aa(lp2712
I1132
ag1310
aa(lp2713
I1133
ag1269
aa(lp2714
I1134
ag1307
aaaa(lp2715
I1136
aI1137
aS'we'
p2716
a(lp2717
(lp2718
I1136
ag1519
aa(lp2719
I1137
ag1269
aaaa(lp2720
I1139
aI1151
ag876
a(lp2721
(lp2722
I1139
ag1297
aa(lp2723
I1140
ag1342
aa(lp2724
I1141
ag1287
aa(lp2725
I1142
ag1265
aa(lp2726
I1143
ag1276
aa(lp2727
I1144
ag1297
aa(lp2728
I1145
ag1287
aa(lp2729
I1146
ag1278
aa(lp2730
I1147
ag1273
aa(lp2731
I1148
ag1297
aa(lp2732
I1149
ag1310
aa(lp2733
I1150
ag1310
aa(lp2734
I1151
ag1330
aaaa(lp2735
I1153
aI1156
ag885
a(lp2736
(lp2737
I1153
ag1294
aa(lp2738
I1154
ag1269
aa(lp2739
I1155
ag1269
aa(lp2740
I1156
ag1310
aaaa(lp2741
I1158
aI1159
aS'as'
p2742
a(lp2743
(lp2744
I1158
ag1297
aa(lp2745
I1159
ag1307
aaaa(lp2746
I1161
aI1166
ag894
a(lp2747
(lp2748
I1161
ag1287
aa(lp2749
I1162
ag1289
aa(lp2750
I1163
ag1265
aa(lp2751
I1164
ag1342
aa(lp2752
I1165
ag1282
aa(lp2753
I1166
ag1289
aaaa(lp2754
I1168
aI1169
aS'we'
p2755
a(lp2756
(lp2757
I1168
ag1519
aa(lp2758
I1169
ag1269
aaaa(lp2759
I1171
aI1173
aS'can'
p2760
a(lp2761
(lp2762
I1171
ag1273
aa(lp2763
I1172
ag1297
aa(lp2764
I1173
ag1280
aaaa(lp2765
I1175
aI1183
ag903
a(lp2766
(lp2767
I1175
ag1271
aa(lp2768
I1176
ag1269
aa(lp2769
I1177
ag1273
aa(lp2770
I1178
ag1265
aa(lp2771
I1179
ag1276
aa(lp2772
I1180
ag1276
aa(lp2773
I1181
ag1269
aa(lp2774
I1182
ag1280
aa(lp2775
I1183
ag1400
aaaa(lp2776
I1185
aI1187
aS'the'
p2777
a(lp2778
(lp2779
I1185
ag1287
aa(lp2780
I1186
ag1289
aa(lp2781
I1187
ag1269
aaaa(lp2782
I1189
aI1196
ag912
a(lp2783
(lp2784
I1189
ag1750
aa(lp2785
I1190
ag1271
aa(lp2786
I1191
ag1265
aa(lp2787
I1192
ag1400
aa(lp2788
I1193
ag1342
aa(lp2789
I1194
ag1273
aa(lp2790
I1195
ag1287
aa(lp2791
I1196
ag1307
aaaa(lp2792
I1198
aI1199
aS'we'
p2793
a(lp2794
(lp2795
I1198
ag1519
aa(lp2796
I1199
ag1269
aaaa(lp2797
I1201
aI1204
ag921
a(lp2798
(lp2799
I1201
ag1307
aa(lp2800
I1202
ag1269
aa(lp2801
I1203
ag1310
aa(lp2802
I1204
ag1310
aaaa(lp2803
I1207
aI1209
aS'why'
p2804
a(lp2805
(lp2806
I1207
ag1519
aa(lp2807
I1208
ag1289
aa(lp2808
I1209
ag1330
aaaa(lp2809
I1211
aI1212
aS'is'
p2810
a(lp2811
(lp2812
I1211
ag1278
aa(lp2813
I1212
ag1307
aaaa(lp2814
I1214
aI1215
aS'it'
p2815
a(lp2816
(lp2817
I1214
ag1278
aa(lp2818
I1215
ag1287
aaaa(lp2819
I1217
aI1220
aS'that'
p2820
a(lp2821
(lp2822
I1217
ag1287
aa(lp2823
I1218
ag1289
aa(lp2824
I1219
ag1297
aa(lp2825
I1220
ag1287
aaaa(lp2826
I1222
aI1223
aS'we'
p2827
a(lp2828
(lp2829
I1222
ag1519
aa(lp2830
I1223
ag1269
aaaa(lp2831
I1225
aI1228
ag930
a(lp2832
(lp2833
I1225
ag1287
aa(lp2834
I1226
ag1269
aa(lp2835
I1227
ag1280
aa(lp2836
I1228
ag1400
aaaa(lp2837
I1230
aI1231
aS'to'
p2838
a(lp2839
(lp2840
I1230
ag1287
aa(lp2841
I1231
ag1265
aaaa(lp2842
I1233
aI1236
ag939
a(lp2843
(lp2844
I1233
ag1294
aa(lp2845
I1234
ag1269
aa(lp2846
I1235
ag1269
aa(lp2847
I1236
ag1310
aaaa(lp2848
I1238
aI1243
ag948
a(lp2849
(lp2850
I1238
ag1282
aa(lp2851
I1239
ag1342
aa(lp2852
I1240
ag1278
aa(lp2853
I1241
ag1310
aa(lp2854
I1242
ag1287
aa(lp2855
I1243
ag1330
aaaa(lp2856
I1245
aI1251
aS'because'
p2857
a(lp2858
(lp2859
I1245
ag1405
aa(lp2860
I1246
ag1269
aa(lp2861
I1247
ag1273
aa(lp2862
I1248
ag1297
aa(lp2863
I1249
ag1342
aa(lp2864
I1250
ag1307
aa(lp2865
I1251
ag1269
aaaa(lp2866
I1253
aI1255
ag957
a(lp2867
(lp2868
I1253
ag1519
aa(lp2869
I1254
ag1269
aa(lp2870
I1255
ag1269
aaaa(lp2871
I1257
aI1261
ag966
a(lp2872
(lp2873
I1257
ag1282
aa(lp2874
I1258
ag1265
aa(lp2875
I1259
ag1278
aa(lp2876
I1260
ag1280
aa(lp2877
I1261
ag1282
aaaa(lp2878
I1263
aI1264
aS'to'
p2879
a(lp2880
(lp2881
I1263
ag1287
aa(lp2882
I1264
ag1265
aaaa(lp2883
I1266
aI1269
ag975
a(lp2884
(lp2885
I1266
ag1276
aa(lp2886
I1267
ag1297
aa(lp2887
I1268
ag1669
aa(lp2888
I1269
ag1269
aaaa(lp2889
I1271
aI1271
ag1297
a(lp2890
(lp2891
I1271
ag1297
aaaa(lp2892
I1273
aI1278
ag984
a(lp2893
(lp2894
I1273
ag1750
aa(lp2895
I1274
ag1271
aa(lp2896
I1275
ag1265
aa(lp2897
I1276
ag1294
aa(lp2898
I1277
ag1278
aa(lp2899
I1278
ag1287
aaaa(lp2900
I1280
aI1282
aS'off'
p2901
a(lp2902
(lp2903
I1280
ag1265
aa(lp2904
I1281
ag1294
aa(lp2905
I1282
ag1294
aaaa(lp2906
I1284
aI1285
aS'of'
p2907
a(lp2908
(lp2909
I1284
ag1265
aa(lp2910
I1285
ag1294
aaaa(lp2911
I1287
aI1288
aS'it'
p2912
a(lp2913
(lp2914
I1287
ag1278
aa(lp2915
I1288
ag1287
aaaa(lp2916
I1292
aI1292
ag33
a(lp2917
(lp2918
I1292
ag33
aaaa(lp2919
I1294
aI1295
aS'if'
p2920
a(lp2921
(lp2922
I1294
ag1278
aa(lp2923
I1295
ag1294
aaaa(lp2924
I1297
aI1299
aS'you'
p2925
a(lp2926
(lp2927
I1297
ag1330
aa(lp2928
I1298
ag1265
aa(lp2929
I1299
ag1342
aaaa(lp2930
I1301
aI1303
aS'are'
p2931
a(lp2932
(lp2933
I1301
ag1297
aa(lp2934
I1302
ag1271
aa(lp2935
I1303
ag1269
aaaa(lp2936
I1305
aI1307
ag1001
a(lp2937
(lp2938
I1305
ag1265
aa(lp2939
I1306
ag1280
aa(lp2940
I1307
ag1269
aaaa(lp2941
I1309
aI1312
aS'that'
p2942
a(lp2943
(lp2944
I1309
ag1287
aa(lp2945
I1310
ag1289
aa(lp2946
I1311
ag1297
aa(lp2947
I1312
ag1287
aaaa(lp2948
I1314
aI1316
aS'has'
p2949
a(lp2950
(lp2951
I1314
ag1289
aa(lp2952
I1315
ag1297
aa(lp2953
I1316
ag1307
aaaa(lp2954
I1318
aI1318
ag1297
a(lp2955
(lp2956
I1318
ag1297
aaaa(lp2957
I1320
aI1323
ag1010
a(lp2958
(lp2959
I1320
ag1294
aa(lp2960
I1321
ag1269
aa(lp2961
I1322
ag1297
aa(lp2962
I1323
ag1271
aaaa(lp2963
I1325
aI1326
aS'of'
p2964
a(lp2965
(lp2966
I1325
ag1265
aa(lp2967
I1326
ag1294
aaaa(lp2968
I1328
aI1334
ag1019
a(lp2969
(lp2970
I1328
ag1307
aa(lp2971
I1329
ag1269
aa(lp2972
I1330
ag1310
aa(lp2973
I1331
ag1310
aa(lp2974
I1332
ag1278
aa(lp2975
I1333
ag1280
aa(lp2976
I1334
ag1282
aaaa(lp2977
I1337
aI1340
ag1028
a(lp2978
(lp2979
I1337
ag1287
aa(lp2980
I1338
ag1297
aa(lp2981
I1339
ag1669
aa(lp2982
I1340
ag1269
aaaa(lp2983
I1342
aI1345
aS'some'
p2984
a(lp2985
(lp2986
I1342
ag1307
aa(lp2987
I1343
ag1265
aa(lp2988
I1344
ag1276
aa(lp2989
I1345
ag1269
aaaa(lp2990
I1347
aI1350
ag1037
a(lp2991
(lp2992
I1347
ag1287
aa(lp2993
I1348
ag1278
aa(lp2994
I1349
ag1276
aa(lp2995
I1350
ag1269
aaaa(lp2996
I1352
aI1356
ag1046
a(lp2997
(lp2998
I1352
ag1287
aa(lp2999
I1353
ag1265
aa(lp3000
I1354
ag1400
aa(lp3001
I1355
ag1297
aa(lp3002
I1356
ag1330
aaaa(lp3003
I1358
aI1359
aS'to'
p3004
a(lp3005
(lp3006
I1358
ag1287
aa(lp3007
I1359
ag1265
aaaa(lp3008
I1361
aI1366
ag1055
a(lp3009
(lp3010
I1361
ag1294
aa(lp3011
I1362
ag1278
aa(lp3012
I1363
ag1282
aa(lp3013
I1364
ag1342
aa(lp3014
I1365
ag1271
aa(lp3015
I1366
ag1269
aaaa(lp3016
I1368
aI1370
aS'out'
p3017
a(lp3018
(lp3019
I1368
ag1265
aa(lp3020
I1369
ag1342
aa(lp3021
I1370
ag1287
aaaa(lp3022
I1372
aI1374
aS'the'
p3023
a(lp3024
(lp3025
I1372
ag1287
aa(lp3026
I1373
ag1289
aa(lp3027
I1374
ag1269
aaaa(lp3028
I1376
aI1380
ag1064
a(lp3029
(lp3030
I1376
ag1273
aa(lp3031
I1377
ag1297
aa(lp3032
I1378
ag1342
aa(lp3033
I1379
ag1307
aa(lp3034
I1380
ag1269
aaaa(lp3035
I1382
aI1383
aS'of'
p3036
a(lp3037
(lp3038
I1382
ag1265
aa(lp3039
I1383
ag1294
aaaa(lp3040
I1385
aI1388
aS'your'
p3041
a(lp3042
(lp3043
I1385
ag1330
aa(lp3044
I1386
ag1265
aa(lp3045
I1387
ag1342
aa(lp3046
I1388
ag1271
aaaa(lp3047
I1390
aI1393
ag1073
a(lp3048
(lp3049
I1390
ag1294
aa(lp3050
I1391
ag1269
aa(lp3051
I1392
ag1297
aa(lp3052
I1393
ag1271
aaaa(lp3053
I1396
aI1398
aS'and'
p3054
a(lp3055
(lp3056
I1396
ag1297
aa(lp3057
I1397
ag1280
aa(lp3058
I1398
ag1400
aaaa(lp3059
I1400
aI1403
ag1082
a(lp3060
(lp3061
I1400
ag1287
aa(lp3062
I1401
ag1297
aa(lp3063
I1402
ag1669
aa(lp3064
I1403
ag1269
aaaa(lp3065
I1405
aI1410
ag1091
a(lp3066
(lp3067
I1405
ag1297
aa(lp3068
I1406
ag1273
aa(lp3069
I1407
ag1287
aa(lp3070
I1408
ag1278
aa(lp3071
I1409
ag1265
aa(lp3072
I1410
ag1280
aaaa(lp3073
I1412
aI1413
aS'to'
p3074
a(lp3075
(lp3076
I1412
ag1287
aa(lp3077
I1413
ag1265
aaaa(lp3078
I1415
aI1417
ag1100
a(lp3079
(lp3080
I1415
ag1294
aa(lp3081
I1416
ag1278
aa(lp3082
I1417
ag1509
aaaa(lp3083
I1419
aI1420
aS'it'
p3084
a(lp3085
(lp3086
I1419
ag1278
aa(lp3087
I1420
ag1287
aaaa(lp3088
I1424
aI1424
ag33
a(lp3089
(lp3090
I1424
ag33
aaaa(lp3091
I1434
aI1438
aS'about'
p3092
a(lp3093
(lp3094
I1434
ag1297
aa(lp3095
I1435
ag1405
aa(lp3096
I1436
ag1265
aa(lp3097
I1437
ag1342
aa(lp3098
I1438
ag1287
aaaa(lp3099
I1440
aI1442
aS'the'
p3100
a(lp3101
(lp3102
I1440
ag1287
aa(lp3103
I1441
ag1289
aa(lp3104
I1442
ag1269
aaaa(lp3105
I1444
aI1450
ag1117
a(lp3106
(lp3107
I1444
ag1297
aa(lp3108
I1445
ag1342
aa(lp3109
I1446
ag1287
aa(lp3110
I1447
ag1289
aa(lp3111
I1448
ag1265
aa(lp3112
I1449
ag1271
aa(lp3113
I1450
ag1307
aaaa(lp3114
I1453
aI1456
ag1126
a(lp3115
(lp3116
I1453
ag1669
aa(lp3117
I1454
ag1297
aa(lp3118
I1455
ag1271
aa(lp3119
I1456
ag1297
aaaa(lp3120
I1458
aI1462
ag1135
a(lp3121
(lp3122
I1458
ag1669
aa(lp3123
I1459
ag1269
aa(lp3124
I1460
ag1310
aa(lp3125
I1461
ag1307
aa(lp3126
I1462
ag1265
aaaa(lp3127
I1466
aI1470
ag1144
a(lp3128
(lp3129
I1466
ag1297
aa(lp3130
I1467
ag1280
aa(lp3131
I1468
ag1278
aa(lp3132
I1469
ag1287
aa(lp3133
I1470
ag1297
aaaa(lp3134
I1472
aI1478
ag1153
a(lp3135
(lp3136
I1472
ag1400
aa(lp3137
I1473
ag1269
aa(lp3138
I1474
ag1294
aa(lp3139
I1475
ag1271
aa(lp3140
I1476
ag1297
aa(lp3141
I1477
ag1280
aa(lp3142
I1478
ag1669
aaaa(lp3143
I1480
aI1482
aS'are'
p3144
a(lp3145
(lp3146
I1480
ag1297
aa(lp3147
I1481
ag1271
aa(lp3148
I1482
ag1269
aaaa(lp3149
I1484
aI1486
ag1162
a(lp3150
(lp3151
I1484
ag1287
aa(lp3152
I1485
ag1519
aa(lp3153
I1486
ag1265
aaaa(lp3154
I1488
aI1491
ag1171
a(lp3155
(lp3156
I1488
ag1405
aa(lp3157
I1489
ag1342
aa(lp3158
I1490
ag1307
aa(lp3159
I1491
ag1330
aaaa(lp3160
I1493
aI1497
ag1180
a(lp3161
(lp3162
I1493
ag1519
aa(lp3163
I1494
ag1297
aa(lp3164
I1495
ag1289
aa(lp3165
I1496
ag1276
aa(lp3166
I1497
ag1307
aaaa(lp3167
I1500
aI1502
aS'and'
p3168
a(lp3169
(lp3170
I1500
ag1297
aa(lp3171
I1501
ag1280
aa(lp3172
I1502
ag1400
aaaa(lp3173
I1504
aI1506
aS'the'
p3174
a(lp3175
(lp3176
I1504
ag1287
aa(lp3177
I1505
ag1289
aa(lp3178
I1506
ag1269
aaaa(lp3179
I1508
aI1513
ag1189
a(lp3180
(lp3181
I1508
ag1265
aa(lp3182
I1509
ag1519
aa(lp3183
I1510
ag1280
aa(lp3184
I1511
ag1269
aa(lp3185
I1512
ag1271
aa(lp3186
I1513
ag1307
aaaa(lp3187
I1515
aI1516
aS'of'
p3188
a(lp3189
(lp3190
I1515
ag1265
aa(lp3191
I1516
ag1294
aaaa(lp3192
I1518
aI1523
ag1198
a(lp3193
(lp3194
I1518
ag1400
aa(lp3195
I1519
ag1278
aa(lp3196
I1520
ag1271
aa(lp3197
I1521
ag1269
aa(lp3198
I1522
ag1273
aa(lp3199
I1523
ag1287
aaaa(lp3200
I1525
aI1529
ag1207
a(lp3201
(lp3202
I1525
ag1307
aa(lp3203
I1526
ag1297
aa(lp3204
I1527
ag1310
aa(lp3205
I1528
ag1269
aa(lp3206
I1529
ag1307
aaaa(lp3207
I1531
aI1537
ag1216
a(lp3208
(lp3209
I1531
ag1289
aa(lp3210
I1532
ag1269
aa(lp3211
I1533
ag1310
aa(lp3212
I1534
ag1750
aa(lp3213
I1535
ag1269
aa(lp3214
I1536
ag1271
aa(lp3215
I1537
ag1307
aaaa(lp3216
I1540
aI1544
ag1225
a(lp3217
(lp3218
I1540
ag1310
aa(lp3219
I1541
ag1269
aa(lp3220
I1542
ag1297
aa(lp3221
I1543
ag1271
aa(lp3222
I1544
ag1280
aaaa(lp3223
I1546
aI1548
aS'how'
p3224
a(lp3225
(lp3226
I1546
ag1289
aa(lp3227
I1547
ag1265
aa(lp3228
I1548
ag1519
aaaa(lp3229
I1550
aI1552
aS'you'
p3230
a(lp3231
(lp3232
I1550
ag1330
aa(lp3233
I1551
ag1265
aa(lp3234
I1552
ag1342
aaaa(lp3235
I1554
aI1556
aS'can'
p3236
a(lp3237
(lp3238
I1554
ag1273
aa(lp3239
I1555
ag1297
aa(lp3240
I1556
ag1280
aaaa(lp3241
I1558
aI1559
aS'be'
p3242
a(lp3243
(lp3244
I1558
ag1405
aa(lp3245
I1559
ag1269
aaaa(lp3246
I1561
aI1570
ag1234
a(lp3247
(lp3248
I1561
ag1307
aa(lp3249
I1562
ag1342
aa(lp3250
I1563
ag1273
aa(lp3251
I1564
ag1273
aa(lp3252
I1565
ag1269
aa(lp3253
I1566
ag1307
aa(lp3254
I1567
ag1307
aa(lp3255
I1568
ag1294
aa(lp3256
I1569
ag1342
aa(lp3257
I1570
ag1310
aaaa(lp3258
I1572
aI1573
aS'in'
p3259
a(lp3260
(lp3261
I1572
ag1278
aa(lp3262
I1573
ag1280
aaaa(lp3263
I1575
aI1578
aS'your'
p3264
a(lp3265
(lp3266
I1575
ag1330
aa(lp3267
I1576
ag1265
aa(lp3268
I1577
ag1342
aa(lp3269
I1578
ag1271
aaaa(lp3270
I1580
aI1586
ag1243
a(lp3271
(lp3272
I1580
ag1273
aa(lp3273
I1581
ag1265
aa(lp3274
I1582
ag1276
aa(lp3275
I1583
ag1750
aa(lp3276
I1584
ag1297
aa(lp3277
I1585
ag1280
aa(lp3278
I1586
ag1330
aaaa(lp3279
I1588
aI1589
aS'by'
p3280
a(lp3281
(lp3282
I1588
ag1405
aa(lp3283
I1589
ag1330
aaaa(lp3284
I1588
aI1589
ag1252
a(lp3285
(lp3286
I1591
ag1267
aa(lp3287
I1592
ag1278
aa(lp3288
I1593
ag1307
aa(lp3289
I1594
ag1278
aa(lp3290
I1595
ag1287
aa(lp3291
I1596
ag1278
aa(lp3292
I1597
ag1280
aa(lp3293
I1598
ag1282
aaaasS'cleanCharacterMap'
p3294
(lp3295
g1264
ag1266
ag1268
ag1270
ag1272
ag1274
ag1275
ag1277
ag1279
ag1281
a(lp3296
I10
aS' '
p3297
aag1286
ag1288
ag1290
a(lp3298
I14
ag3297
aag1293
ag1295
ag1296
ag1298
a(lp3299
I19
ag3297
aag1302
ag1303
a(lp3300
I22
ag3297
aag1306
ag1308
ag1309
ag1311
ag1312
ag1313
ag1314
a(lp3301
I30
ag3297
aag1317
a(lp3302
I33
ag3297
aag1321
ag1322
ag1323
a(lp3303
I37
ag3297
aag1326
ag1327
ag1328
ag1329
a(lp3304
I42
ag3297
aag1334
ag1335
a(lp3305
I45
ag3297
aag1339
ag1340
ag1341
a(lp3306
I49
ag3297
aag1346
ag1347
ag1348
a(lp3307
I53
ag3297
aag1351
ag1352
ag1353
ag1354
a(lp3308
I58
ag3297
aag1358
ag1359
a(lp3309
I61
ag3297
aag1362
ag1363
ag1364
ag1365
ag1366
ag1367
ag1368
a(lp3310
I69
ag3297
aag1372
ag1373
a(lp3311
I72
ag3297
aag1376
a(lp3312
I74
ag3297
aag1379
ag1380
ag1381
ag1382
a(lp3313
I79
ag3297
aag1385
ag1386
ag1387
ag1388
ag1389
ag1390
ag1391
ag1392
ag1393
a(lp3314
I89
ag3297
aag1397
ag1398
ag1399
a(lp3315
I93
ag3297
aag1403
ag1404
ag1406
ag1407
ag1408
ag1409
ag1410
ag1411
a(lp3316
I102
ag3297
aag1415
ag1416
ag1417
a(lp3317
I106
ag3297
aag1421
ag1422
ag1423
a(lp3318
I110
ag3297
aag1427
ag1428
ag1429
ag1430
a(lp3319
I115
ag3297
aag1433
ag1434
ag1435
a(lp3320
I119
ag3297
aag1439
ag1440
a(lp3321
I122
ag3297
aag1443
ag1444
ag1445
a(lp3322
I127
ag3297
aag1449
ag1450
ag1451
a(lp3323
I131
ag3297
aag1454
ag1455
ag1456
ag1457
ag1458
a(lp3324
I137
ag3297
aag1461
ag1462
ag1463
ag1464
ag1465
a(lp3325
I143
ag3297
aag1469
ag1470
ag1471
a(lp3326
I147
ag3297
aag1474
ag1475
ag1476
ag1477
a(lp3327
I152
ag3297
aag1481
ag1482
a(lp3328
I155
ag3297
aag1486
ag1487
a(lp3329
I158
ag3297
aag1491
ag1492
a(lp3330
I161
ag3297
aag1495
ag1496
ag1497
ag1498
a(lp3331
I166
ag3297
aag1502
ag1503
ag1504
a(lp3332
I170
ag3297
aag1507
ag1508
ag1510
ag1511
ag1512
ag1513
ag1514
a(lp3333
I178
ag3297
aag1518
ag1520
ag1521
ag1522
a(lp3334
I183
ag3297
aag1526
ag1527
a(lp3335
I186
ag3297
aag1531
ag1532
a(lp3336
I189
ag3297
aag1535
ag1536
ag1537
ag1538
ag1539
a(lp3337
I196
ag3297
aag1542
ag1543
ag1544
ag1545
ag1546
ag1547
a(lp3338
I203
ag3297
aag1551
ag1552
a(lp3339
I207
ag3297
aag1556
ag1557
ag1558
a(lp3340
I211
ag3297
aag1562
ag1563
ag1564
a(lp3341
I215
ag3297
aag1567
ag1568
ag1569
ag1570
ag1571
ag1572
a(lp3342
I222
ag3297
aag1576
ag1577
a(lp3343
I225
ag3297
aag1580
ag1581
ag1582
ag1583
ag1584
ag1585
ag1586
a(lp3344
I234
ag3297
aag1589
ag1590
ag1591
ag1592
ag1593
ag1594
ag1595
a(lp3345
I242
ag3297
aag1599
ag1600
a(lp3346
I245
ag3297
aag1604
ag1605
a(lp3347
I248
ag3297
aag1609
ag1610
ag1611
a(lp3348
I252
ag3297
aag1615
ag1616
ag1617
ag1618
ag1619
a(lp3349
I258
ag3297
aag1623
ag1624
ag1625
ag1626
a(lp3350
I263
ag3297
aag1630
ag1631
a(lp3351
I266
ag3297
aag1635
ag1636
a(lp3352
I269
ag3297
aag1639
ag1640
ag1641
ag1642
ag1643
ag1644
a(lp3353
I276
ag3297
aag1647
ag1648
ag1649
ag1650
a(lp3354
I281
ag3297
aag1654
ag1655
a(lp3355
I284
ag3297
aag1659
ag1660
ag1661
ag1662
a(lp3356
I289
ag3297
aag1665
ag1666
ag1667
ag1668
ag1670
a(lp3357
I296
ag3297
aag1674
ag1675
ag1676
a(lp3358
I300
ag3297
aag1680
ag1681
ag1682
a(lp3359
I304
ag3297
aag1685
ag1686
ag1687
ag1688
ag1689
ag1690
a(lp3360
I311
ag3297
aag1694
ag1695
a(lp3361
I314
ag3297
aag1698
ag1699
ag1700
ag1701
ag1702
ag1703
ag1704
a(lp3362
I322
ag3297
aag1708
ag1709
a(lp3363
I325
ag3297
aag1712
ag1713
ag1714
ag1716
ag1717
ag1718
ag1719
ag1720
ag1721
a(lp3364
I336
ag3297
aag1725
ag1726
a(lp3365
I339
ag3297
aag1730
ag1731
ag1732
a(lp3366
I343
ag3297
aag1735
ag1736
ag1737
ag1738
a(lp3367
I348
ag3297
aag1742
ag1743
ag1744
ag1745
ag1746
a(lp3368
I354
ag3297
aag1749
ag1751
ag1752
ag1753
ag1754
ag1755
ag1756
ag1757
ag1758
a(lp3369
I364
ag3297
aag1762
ag1763
a(lp3370
I367
ag3297
aag1767
ag1768
ag1769
ag1770
ag1771
a(lp3371
I373
ag3297
aag1774
ag1775
ag1776
ag1777
ag1778
a(lp3372
I380
ag3297
aag1782
ag1783
a(lp3373
I383
ag3297
aag1787
ag1788
ag1789
a(lp3374
I387
ag3297
aag1792
ag1793
ag1794
ag1795
ag1796
ag1797
ag1798
ag1799
a(lp3375
I397
ag3297
aag1803
ag1804
a(lp3376
I400
ag3297
aag1807
ag1808
ag1809
ag1810
ag1811
ag1812
a(lp3377
I408
ag3297
aag1815
ag1816
ag1817
ag1818
a(lp3378
I413
ag3297
aag1822
ag1823
ag1824
ag1825
a(lp3379
I418
ag3297
aag1829
ag1830
ag1831
ag1832
a(lp3380
I423
ag3297
aag1835
ag1836
ag1837
ag1838
ag1839
ag1840
ag1841
a(lp3381
I431
ag3297
aag1844
ag1845
ag1846
a(lp3382
I435
ag3297
aag1850
ag1851
ag1852
a(lp3383
I439
ag3297
aag1855
ag1856
ag1857
ag1858
a(lp3384
I444
ag3297
aag1862
ag1863
ag1864
a(lp3385
I448
ag3297
aag1867
ag1868
ag1869
ag1870
ag1871
ag1872
ag1873
ag1874
ag1875
ag1876
ag1877
ag1878
a(lp3386
I461
ag3297
aag1882
ag1883
a(lp3387
I464
ag3297
aag1887
ag1888
ag1889
ag1890
a(lp3388
I469
ag3297
aag1893
ag1894
ag1895
ag1896
ag1897
ag1898
ag1899
ag1900
a(lp3389
I479
ag3297
aag1904
ag1905
ag1906
a(lp3390
I483
ag3297
aag1909
ag1910
ag1911
ag1912
a(lp3391
I489
ag3297
aag1915
ag1916
ag1917
ag1918
a(lp3392
I494
ag3297
aag1922
ag1923
a(lp3393
I497
ag3297
aag1927
ag1928
ag1929
ag1930
a(lp3394
I502
ag3297
aag1933
a(lp3395
I504
ag3297
aag1936
ag1937
ag1938
ag1939
ag1940
ag1941
ag1942
ag1943
a(lp3396
I513
ag3297
aag1947
ag1948
a(lp3397
I516
ag3297
aag1952
ag1953
ag1954
a(lp3398
I520
ag3297
aag1957
ag1958
ag1959
ag1960
a(lp3399
I526
ag3297
aag1963
ag1964
ag1965
ag1966
a(lp3400
I531
ag3297
aag1970
ag1971
ag1972
ag1973
a(lp3401
I536
ag3297
aag1977
ag1978
ag1979
a(lp3402
I540
ag3297
aag1982
ag1983
ag1984
ag1985
ag1986
ag1987
ag1988
a(lp3403
I548
ag3297
aag1992
ag1993
a(lp3404
I552
ag3297
aag1996
a(lp3405
I555
ag3297
aag1999
ag2000
ag2001
ag2002
ag2003
ag2004
a(lp3406
I563
ag3297
aag2007
a(lp3407
I565
ag3297
aag2010
ag2011
ag2012
ag2013
a(lp3408
I570
ag3297
aag2016
ag2017
ag2018
ag2019
ag2020
ag2021
ag2022
ag2023
ag2024
ag2025
ag2026
ag2027
ag2028
a(lp3409
I584
ag3297
aag2032
ag2033
a(lp3410
I587
ag3297
aag2036
ag2037
ag2038
ag2039
ag2040
ag2041
a(lp3411
I594
ag3297
aag2044
ag2045
ag2046
ag2047
ag2048
a(lp3412
I600
ag3297
aag2052
ag2053
ag2054
ag2055
ag2056
a(lp3413
I606
ag3297
aag2060
ag2061
ag2062
ag2063
a(lp3414
I611
ag3297
aag2067
ag2068
ag2069
a(lp3415
I615
ag3297
aag2072
ag2073
ag2074
ag2075
ag2076
a(lp3416
I621
ag3297
aag2079
ag2080
ag2081
ag2082
ag2083
a(lp3417
I628
ag3297
aag2086
ag2087
ag2088
ag2089
ag2090
ag2091
ag2092
ag2093
a(lp3418
I639
ag3297
aag2097
ag2098
a(lp3419
I642
ag3297
aag2102
ag2103
ag2104
ag2105
a(lp3420
I647
ag3297
aag2108
ag2109
ag2110
ag2111
ag2112
ag2113
ag2114
a(lp3421
I656
ag3297
aag2117
ag2118
ag2119
ag2120
ag2121
ag2122
a(lp3422
I663
ag3297
aag2126
ag2127
a(lp3423
I666
ag3297
aag2131
ag2132
ag2133
ag2134
a(lp3424
I671
ag3297
aag2137
a(lp3425
I673
ag3297
aag2140
ag2141
ag2142
ag2143
ag2144
ag2145
ag2146
ag2147
a(lp3426
I682
ag3297
aag2151
ag2152
a(lp3427
I685
ag3297
aag2155
ag2156
ag2157
ag2158
ag2159
ag2160
ag2161
a(lp3428
I694
ag3297
aag2165
ag2166
a(lp3429
I697
ag3297
aag2169
ag2170
ag2171
ag2172
a(lp3430
I702
ag3297
aag2176
ag2177
a(lp3431
I705
ag3297
aag2181
ag2182
ag2183
a(lp3432
I709
ag3297
aag2186
ag2187
ag2188
ag2189
a(lp3433
I714
ag3297
aag2193
ag2194
a(lp3434
I717
ag3297
aag2197
ag2198
ag2199
ag2200
ag2201
ag2202
a(lp3435
I724
ag3297
aag2205
ag2206
ag2207
ag2208
ag2209
a(lp3436
I731
ag3297
aag2212
ag2213
ag2214
ag2215
ag2216
ag2217
ag2218
ag2219
ag2220
ag2221
ag2222
a(lp3437
I746
ag3297
aag2226
ag2227
ag2228
a(lp3438
I751
ag3297
aag2232
ag2233
ag2234
a(lp3439
I755
ag3297
aag2237
ag2238
ag2239
ag2240
a(lp3440
I760
ag3297
aag2244
ag2245
a(lp3441
I763
ag3297
aag2248
ag2249
ag2250
ag2251
a(lp3442
I768
ag3297
aag2255
ag2256
ag2257
ag2258
a(lp3443
I773
ag3297
aag2261
ag2262
ag2263
ag2264
ag2265
ag2266
ag2267
a(lp3444
I781
ag3297
aag2271
ag2272
ag2273
a(lp3445
I785
ag3297
aag2276
ag2277
ag2278
ag2279
a(lp3446
I790
ag3297
aag2283
ag2284
a(lp3447
I793
ag3297
aag2287
ag2288
ag2289
ag2290
ag2291
ag2292
a(lp3448
I800
ag3297
aag2296
ag2297
ag2298
a(lp3449
I804
ag3297
aag2302
ag2303
ag2304
a(lp3450
I808
ag3297
aag2307
ag2308
ag2309
ag2310
ag2311
ag2312
ag2313
ag2314
a(lp3451
I817
ag3297
aag2317
a(lp3452
I819
ag3297
aag2320
ag2321
ag2322
ag2323
ag2324
ag2325
ag2326
a(lp3453
I828
ag3297
aag2329
ag2330
ag2331
ag2332
ag2333
a(lp3454
I835
ag3297
aag2336
ag2337
ag2338
ag2339
ag2340
ag2341
ag2342
a(lp3455
I843
ag3297
aag2345
a(lp3456
I845
ag3297
aag2348
ag2349
ag2350
ag2351
a(lp3457
I851
ag3297
aag2354
a(lp3458
I854
ag3297
aag2357
ag2358
ag2359
ag2360
ag2361
ag2362
a(lp3459
I861
ag3297
aag2366
ag2367
ag2368
a(lp3460
I865
ag3297
aag2371
ag2372
ag2373
ag2374
ag2375
ag2376
ag2377
ag2378
ag2379
ag2380
ag2381
a(lp3461
I878
ag3297
aag2384
ag2385
ag2386
ag2387
ag2388
ag2389
ag2390
a(lp3462
I887
ag3297
aag2394
ag2395
a(lp3463
I890
ag3297
aag2399
ag2400
ag2401
ag2402
a(lp3464
I895
ag3297
aag2405
ag2406
ag2407
ag2408
a(lp3465
I901
ag3297
aag2411
ag2412
ag2413
ag2414
ag2415
ag2416
ag2418
a(lp3466
I909
ag3297
aag2422
ag2423
a(lp3467
I912
ag3297
aag2427
ag2428
ag2429
ag2430
a(lp3468
I917
ag3297
aag2434
ag2435
ag2436
ag2437
a(lp3469
I923
ag3297
aag2441
ag2442
ag2443
a(lp3470
I927
ag3297
aag2446
ag2447
ag2448
ag2449
ag2450
ag2451
a(lp3471
I934
ag3297
aag2454
ag2455
ag2456
ag2457
ag2458
a(lp3472
I940
ag3297
aag2462
ag2463
ag2464
ag2465
a(lp3473
I945
ag3297
aag2469
ag2470
a(lp3474
I949
ag3297
aag2473
ag2474
ag2475
ag2476
a(lp3475
I955
ag3297
aag2479
ag2480
ag2481
a(lp3476
I959
ag3297
aag2485
ag2486
ag2487
a(lp3477
I963
ag3297
aag2490
ag2491
a(lp3478
I966
ag3297
aag2495
ag2496
a(lp3479
I969
ag3297
aag2499
a(lp3480
I971
ag3297
aag2502
ag2503
ag2504
ag2505
ag2506
a(lp3481
I977
ag3297
aag2510
ag2511
ag2512
ag2513
a(lp3482
I982
ag3297
aag2517
ag2518
ag2519
a(lp3483
I986
ag3297
aag2522
ag2523
ag2524
ag2525
ag2526
a(lp3484
I992
ag3297
aag2530
ag2531
ag2532
a(lp3485
I996
ag3297
aag2536
ag2537
ag2538
a(lp3486
I1000
ag3297
aag2542
ag2543
ag2544
ag2545
a(lp3487
I1005
ag3297
aag2548
a(lp3488
I1007
ag3297
aag2551
ag2552
ag2553
ag2554
ag2555
ag2556
a(lp3489
I1014
ag3297
aag2560
ag2561
ag2562
ag2563
a(lp3490
I1019
ag3297
aag2567
ag2568
ag2569
a(lp3491
I1023
ag3297
aag2572
ag2573
ag2574
ag2575
a(lp3492
I1028
ag3297
aag2578
ag2579
ag2580
ag2581
ag2582
a(lp3493
I1034
ag3297
aag2585
ag2586
ag2587
ag2588
ag2589
a(lp3494
I1040
ag3297
aag2593
ag2594
a(lp3495
I1043
ag3297
aag2598
ag2599
ag2600
a(lp3496
I1048
ag3297
aag2603
ag2604
ag2605
ag2606
ag2607
ag2608
ag2609
a(lp3497
I1057
ag3297
aag2613
ag2614
ag2615
a(lp3498
I1061
ag3297
aag2618
ag2619
ag2620
ag2621
ag2622
ag2623
ag2624
ag2625
ag2626
a(lp3499
I1071
ag3297
aag2630
ag2631
a(lp3500
I1074
ag3297
aag2635
ag2636
a(lp3501
I1077
ag3297
aag2639
ag2640
ag2641
ag2642
ag2643
ag2644
a(lp3502
I1086
ag3297
aag2647
a(lp3503
I1089
ag3297
aag2651
ag2652
a(lp3504
I1092
ag3297
aag2656
ag2657
ag2658
a(lp3505
I1096
ag3297
aag2662
ag2663
a(lp3506
I1099
ag3297
aag2667
ag2668
a(lp3507
I1102
ag3297
aag2672
ag2673
ag2674
ag2675
a(lp3508
I1107
ag3297
aag2679
ag2680
a(lp3509
I1110
ag3297
aag2683
ag2684
ag2685
ag2686
a(lp3510
I1115
ag3297
aag2690
ag2691
a(lp3511
I1118
ag3297
aag2695
ag2696
a(lp3512
I1121
ag3297
aag2699
ag2700
a(lp3513
I1124
ag3297
aag2704
ag2705
ag2706
ag2707
a(lp3514
I1129
ag3297
aag2710
ag2711
ag2712
ag2713
ag2714
a(lp3515
I1135
ag3297
aag2718
ag2719
a(lp3516
I1138
ag3297
aag2722
ag2723
ag2724
ag2725
ag2726
ag2727
ag2728
ag2729
ag2730
ag2731
ag2732
ag2733
ag2734
a(lp3517
I1152
ag3297
aag2737
ag2738
ag2739
ag2740
a(lp3518
I1157
ag3297
aag2744
ag2745
a(lp3519
I1160
ag3297
aag2748
ag2749
ag2750
ag2751
ag2752
ag2753
a(lp3520
I1167
ag3297
aag2757
ag2758
a(lp3521
I1170
ag3297
aag2762
ag2763
ag2764
a(lp3522
I1174
ag3297
aag2767
ag2768
ag2769
ag2770
ag2771
ag2772
ag2773
ag2774
ag2775
a(lp3523
I1184
ag3297
aag2779
ag2780
ag2781
a(lp3524
I1188
ag3297
aag2784
ag2785
ag2786
ag2787
ag2788
ag2789
ag2790
ag2791
a(lp3525
I1197
ag3297
aag2795
ag2796
a(lp3526
I1200
ag3297
aag2799
ag2800
ag2801
ag2802
a(lp3527
I1206
ag3297
aag2806
ag2807
ag2808
a(lp3528
I1210
ag3297
aag2812
ag2813
a(lp3529
I1213
ag3297
aag2817
ag2818
a(lp3530
I1216
ag3297
aag2822
ag2823
ag2824
ag2825
a(lp3531
I1221
ag3297
aag2829
ag2830
a(lp3532
I1224
ag3297
aag2833
ag2834
ag2835
ag2836
a(lp3533
I1229
ag3297
aag2840
ag2841
a(lp3534
I1232
ag3297
aag2844
ag2845
ag2846
ag2847
a(lp3535
I1237
ag3297
aag2850
ag2851
ag2852
ag2853
ag2854
ag2855
a(lp3536
I1244
ag3297
aag2859
ag2860
ag2861
ag2862
ag2863
ag2864
ag2865
a(lp3537
I1252
ag3297
aag2868
ag2869
ag2870
a(lp3538
I1256
ag3297
aag2873
ag2874
ag2875
ag2876
ag2877
a(lp3539
I1262
ag3297
aag2881
ag2882
a(lp3540
I1265
ag3297
aag2885
ag2886
ag2887
ag2888
a(lp3541
I1270
ag3297
aag2891
a(lp3542
I1272
ag3297
aag2894
ag2895
ag2896
ag2897
ag2898
ag2899
a(lp3543
I1279
ag3297
aag2903
ag2904
ag2905
a(lp3544
I1283
ag3297
aag2909
ag2910
a(lp3545
I1286
ag3297
aag2914
ag2915
a(lp3546
I1290
ag3297
aag2918
a(lp3547
I1293
ag3297
aag2922
ag2923
a(lp3548
I1296
ag3297
aag2927
ag2928
ag2929
a(lp3549
I1300
ag3297
aag2933
ag2934
ag2935
a(lp3550
I1304
ag3297
aag2938
ag2939
ag2940
a(lp3551
I1308
ag3297
aag2944
ag2945
ag2946
ag2947
a(lp3552
I1313
ag3297
aag2951
ag2952
ag2953
a(lp3553
I1317
ag3297
aag2956
a(lp3554
I1319
ag3297
aag2959
ag2960
ag2961
ag2962
a(lp3555
I1324
ag3297
aag2966
ag2967
a(lp3556
I1327
ag3297
aag2970
ag2971
ag2972
ag2973
ag2974
ag2975
ag2976
a(lp3557
I1336
ag3297
aag2979
ag2980
ag2981
ag2982
a(lp3558
I1341
ag3297
aag2986
ag2987
ag2988
ag2989
a(lp3559
I1346
ag3297
aag2992
ag2993
ag2994
ag2995
a(lp3560
I1351
ag3297
aag2998
ag2999
ag3000
ag3001
ag3002
a(lp3561
I1357
ag3297
aag3006
ag3007
a(lp3562
I1360
ag3297
aag3010
ag3011
ag3012
ag3013
ag3014
ag3015
a(lp3563
I1367
ag3297
aag3019
ag3020
ag3021
a(lp3564
I1371
ag3297
aag3025
ag3026
ag3027
a(lp3565
I1375
ag3297
aag3030
ag3031
ag3032
ag3033
ag3034
a(lp3566
I1381
ag3297
aag3038
ag3039
a(lp3567
I1384
ag3297
aag3043
ag3044
ag3045
ag3046
a(lp3568
I1389
ag3297
aag3049
ag3050
ag3051
ag3052
a(lp3569
I1395
ag3297
aag3056
ag3057
ag3058
a(lp3570
I1399
ag3297
aag3061
ag3062
ag3063
ag3064
a(lp3571
I1404
ag3297
aag3067
ag3068
ag3069
ag3070
ag3071
ag3072
a(lp3572
I1411
ag3297
aag3076
ag3077
a(lp3573
I1414
ag3297
aag3080
ag3081
ag3082
a(lp3574
I1418
ag3297
aag3086
ag3087
a(lp3575
I1422
ag3297
aag3090
a(lp3576
I1425
ag3297
aa(lp3577
I1433
ag3297
aag3094
ag3095
ag3096
ag3097
ag3098
a(lp3578
I1439
ag3297
aag3102
ag3103
ag3104
a(lp3579
I1443
ag3297
aag3107
ag3108
ag3109
ag3110
ag3111
ag3112
ag3113
a(lp3580
I1452
ag3297
aag3116
ag3117
ag3118
ag3119
a(lp3581
I1457
ag3297
aag3122
ag3123
ag3124
ag3125
ag3126
a(lp3582
I1463
ag3297
aa(lp3583
I1465
ag3297
aag3129
ag3130
ag3131
ag3132
ag3133
a(lp3584
I1471
ag3297
aag3136
ag3137
ag3138
ag3139
ag3140
ag3141
ag3142
a(lp3585
I1479
ag3297
aag3146
ag3147
ag3148
a(lp3586
I1483
ag3297
aag3151
ag3152
ag3153
a(lp3587
I1487
ag3297
aag3156
ag3157
ag3158
ag3159
a(lp3588
I1492
ag3297
aag3162
ag3163
ag3164
ag3165
ag3166
a(lp3589
I1499
ag3297
aag3170
ag3171
ag3172
a(lp3590
I1503
ag3297
aag3176
ag3177
ag3178
a(lp3591
I1507
ag3297
aag3181
ag3182
ag3183
ag3184
ag3185
ag3186
a(lp3592
I1514
ag3297
aag3190
ag3191
a(lp3593
I1517
ag3297
aag3194
ag3195
ag3196
ag3197
ag3198
ag3199
a(lp3594
I1524
ag3297
aag3202
ag3203
ag3204
ag3205
ag3206
a(lp3595
I1530
ag3297
aag3209
ag3210
ag3211
ag3212
ag3213
ag3214
ag3215
a(lp3596
I1539
ag3297
aag3218
ag3219
ag3220
ag3221
ag3222
a(lp3597
I1545
ag3297
aag3226
ag3227
ag3228
a(lp3598
I1549
ag3297
aag3232
ag3233
ag3234
a(lp3599
I1553
ag3297
aag3238
ag3239
ag3240
a(lp3600
I1557
ag3297
aag3244
ag3245
a(lp3601
I1560
ag3297
aag3248
ag3249
ag3250
ag3251
ag3252
ag3253
ag3254
ag3255
ag3256
ag3257
a(lp3602
I1571
ag3297
aag3261
ag3262
a(lp3603
I1574
ag3297
aag3266
ag3267
ag3268
ag3269
a(lp3604
I1579
ag3297
aag3272
ag3273
ag3274
ag3275
ag3276
ag3277
ag3278
a(lp3605
I1587
ag3297
aag3282
ag3283
a(lp3606
I1590
ag3297
aag3286
ag3287
ag3288
ag3289
ag3290
ag3291
ag3292
ag3293
asS'text'
p3607
S"overcoming the fear of selling \xc2\xa0 for many of you the fear of selling is a huge challenge and obstacle for you from day to day. the first thing you need to do is find out exactly what it is you're afraid of. are you afraid of success? believe it or not there this is an actual fear of some folks. are you afraid of failure or rejection? do you fear being perceived as being pushy? do you (secretly of course) fear that your product may not meet the expectations of your customer? you can't come up with a solution if you don't know what the problem is. \xc2\xa0 there's a huge misconception in direct sales being that you think you're 'imposing' on your friends, family or just a customer in general. as long as you feel as though you're imposing...you are. you need to love your product and feel as though you are offering a service. you're filling a need. \xc2\xa0 people are natural-born sellers. we just don't realize it when we're not making money from it. let's say you go to a movie that you loved and you have a friend that you know would enjoy it too. wouldn't you recommend it to him/her? \xc2\xa0 so why is it that as soon as we go into sales we automatically feel as though we can recommend the products we sell. why is it that we tend to feel guilty because wee going to make a profit off of it? \xc2\xa0 if you are one that has a fear of selling, take some time today to figure out the cause of your fear, and take action to fix it! \xc2\xa0 ~~~~~~~ about the authors: kara kelso & anita defrank are two busy wahms, and the owners of direct sales helpers. learn how you can be successful in your company by visiting:"
p3608
sS'cleanWordMap'
p3609
(lp3610
g1262
ag1291
ag1304
ag1315
ag1324
ag1349
ag1360
ag1377
ag1383
ag1401
ag1431
ag1441
ag1452
ag1459
ag1472
ag1493
ag1505
ag1533
ag1540
ag1565
ag1578
ag1587
ag1637
ag1645
ag1663
ag1683
ag1696
ag1710
ag1733
ag1747
ag1772
ag1790
ag1805
ag1813
ag1833
ag1842
ag1853
ag1865
ag1891
ag1907
ag1913
ag1934
ag1955
ag1961
ag1980
ag1994
ag1997
ag2008
ag2014
ag2034
ag2042
ag2070
ag2077
ag2084
ag2106
ag2115
ag2138
ag2153
ag2167
ag2184
ag2195
ag2203
ag2210
ag2235
ag2246
ag2259
ag2274
ag2285
ag2305
ag2318
ag2327
ag2334
ag2346
ag2352
ag2355
ag2369
ag2382
ag2403
ag2409
ag2444
ag2452
ag2471
ag2477
ag2488
ag2500
ag2520
ag2549
ag2570
ag2576
ag2583
ag2601
ag2616
ag2637
ag2645
ag2681
ag2697
ag2708
ag2720
ag2735
ag2746
ag2765
ag2782
ag2797
ag2831
ag2842
ag2848
ag2866
ag2871
ag2883
ag2892
ag2916
ag2936
ag2957
ag2968
ag2977
ag2990
ag2996
ag3008
ag3028
ag3047
ag3059
ag3065
ag3078
ag3088
ag3105
ag3114
ag3120
ag3127
ag3134
ag3149
ag3154
ag3160
ag3179
ag3192
ag3200
ag3207
ag3216
ag3246
ag3270
ag3284
asS'lines'
p3611
(lp3612
VOvercoming the Fear of Selling\u000a
p3613
aV\u000a
p3614
aVFor many of you the Fear of Selling is a huge challenge and obstacle for you from day to day. The first thing you need to do is find out exactly what it is you're afraid of. Are you afraid of success? Believe it or not there this is an actual fear of some folks. Are you afraid of failure or rejection? Do you fear being perceived as being pushy? Do you (secretly of course) fear that your product may not meet the expectations of your customer? You can't come up with a solution if you don't know what the problem is.\u000a
p3615
aV\u000a
p3616
aVThere's a huge misconception in direct sales being that you think you're 'imposing' on your friends, family or just a customer in general. As long as you feel as though you're imposing...you are. You need to love your product and feel as though you are offering a service. You're filling a need.\u000a
p3617
aV\u000a
p3618
aVPeople are natural-born sellers. We just don't realize it when we're not making money from it. Let's say you go to a movie that you loved and you have a friend that you know would enjoy it too. Wouldn't you recommend it to him/her?\u000a
p3619
aV\u000a
p3620
aVSo why is it that as soon as we go into sales we automatically feel as though we can recommend the products we sell. Why is it that we tend to feel guilty because wee going to make a profit off of it?\u000a
p3621
aV\u000a
p3622
aVIf you are one that has a fear of selling, take some time today to figure out the cause of your fear, and take action to fix it!\u000a
p3623
aV\u000a
p3624
aV~~~~~~~ About the Authors: Kara Kelso & Anita DeFrank are two busy wahms, and the owners of Direct Sales Helpers. Learn how you can be successful in your company by visiting:
p3625
asS'docType'
p3626
S'src'
p3627
sS'newfmap'
p3628
(lp3629
g4
ag8
ag10
ag12
ag14
ag17
ag19
ag21
ag23
ag26
ag28
ag30
ag32
ag35
ag37
ag39
ag41
ag44
ag46
ag48
ag50
ag53
ag55
ag57
ag59
ag62
ag64
ag66
ag68
ag71
ag73
ag75
ag77
ag80
ag82
ag84
ag86
ag89
ag91
ag93
ag95
ag98
ag100
ag102
ag104
ag107
ag109
ag111
ag113
ag116
ag118
ag120
ag122
ag125
ag127
ag129
ag131
ag134
ag136
ag138
ag140
ag143
ag145
ag147
ag149
ag152
ag154
ag156
ag158
ag161
ag163
ag165
ag167
ag170
ag172
ag174
ag176
ag179
ag181
ag183
ag185
ag188
ag190
ag192
ag194
ag197
ag199
ag201
ag203
ag206
ag208
ag210
ag212
ag215
ag217
ag219
ag221
ag224
ag226
ag228
ag230
ag233
ag235
ag237
ag239
ag242
ag244
ag246
ag248
ag251
ag253
ag255
ag257
ag260
ag262
ag264
ag266
ag269
ag271
ag273
ag275
ag278
ag280
ag282
ag284
ag287
ag289
ag291
ag293
ag296
ag298
ag300
ag302
ag305
ag307
ag309
ag311
ag314
ag316
ag318
ag320
ag323
ag325
ag327
ag329
ag332
ag334
ag336
ag338
ag341
ag343
ag345
ag347
ag350
ag352
ag354
ag356
ag359
ag361
ag363
ag365
ag368
ag370
ag372
ag374
ag377
ag379
ag381
ag383
ag386
ag388
ag390
ag392
ag395
ag397
ag399
ag401
ag404
ag406
ag408
ag410
ag412
ag414
ag416
ag418
ag421
ag423
ag425
ag427
ag430
ag432
ag434
ag436
ag439
ag441
ag443
ag445
ag448
ag450
ag452
ag454
ag457
ag459
ag461
ag463
ag466
ag468
ag470
ag472
ag475
ag477
ag479
ag481
ag484
ag486
ag488
ag490
ag493
ag495
ag497
ag499
ag502
ag504
ag506
ag508
ag511
ag513
ag515
ag517
ag520
ag522
ag524
ag526
ag529
ag531
ag533
ag535
ag538
ag540
ag542
ag544
ag547
ag549
ag551
ag553
ag556
ag558
ag560
ag562
ag565
ag567
ag569
ag571
ag574
ag576
ag578
ag580
ag583
ag585
ag587
ag589
ag592
ag594
ag596
ag598
ag601
ag603
ag605
ag607
ag610
ag612
ag614
ag616
ag619
ag621
ag623
ag625
ag628
ag630
ag632
ag634
ag637
ag639
ag641
ag643
ag646
ag648
ag650
ag652
ag655
ag657
ag659
ag661
ag663
ag665
ag667
ag669
ag672
ag674
ag676
ag678
ag681
ag683
ag685
ag687
ag690
ag692
ag694
ag696
ag699
ag701
ag703
ag705
ag708
ag710
ag712
ag714
ag717
ag719
ag721
ag723
ag726
ag728
ag730
ag732
ag735
ag737
ag739
ag741
ag744
ag746
ag748
ag750
ag753
ag755
ag757
ag759
ag762
ag764
ag766
ag768
ag771
ag773
ag775
ag777
ag780
ag782
ag784
ag786
ag789
ag791
ag793
ag795
ag798
ag800
ag802
ag804
ag807
ag809
ag811
ag813
ag816
ag818
ag820
ag822
ag825
ag827
ag829
ag831
ag834
ag836
ag838
ag840
ag842
ag844
ag846
ag848
ag851
ag853
ag855
ag857
ag860
ag862
ag864
ag866
ag869
ag871
ag873
ag875
ag878
ag880
ag882
ag884
ag887
ag889
ag891
ag893
ag896
ag898
ag900
ag902
ag905
ag907
ag909
ag911
ag914
ag916
ag918
ag920
ag923
ag925
ag927
ag929
ag932
ag934
ag936
ag938
ag941
ag943
ag945
ag947
ag950
ag952
ag954
ag956
ag959
ag961
ag963
ag965
ag968
ag970
ag972
ag974
ag977
ag979
ag981
ag983
ag986
ag988
ag990
ag992
ag994
ag996
ag998
ag1000
ag1003
ag1005
ag1007
ag1009
ag1012
ag1014
ag1016
ag1018
ag1021
ag1023
ag1025
ag1027
ag1030
ag1032
ag1034
ag1036
ag1039
ag1041
ag1043
ag1045
ag1048
ag1050
ag1052
ag1054
ag1057
ag1059
ag1061
ag1063
ag1066
ag1068
ag1070
ag1072
ag1075
ag1077
ag1079
ag1081
ag1084
ag1086
ag1088
ag1090
ag1093
ag1095
ag1097
ag1099
ag1102
ag1104
ag1106
ag1108
ag1110
ag1112
ag1114
ag1116
ag1119
ag1121
ag1123
ag1125
ag1128
ag1130
ag1132
ag1134
ag1137
ag1139
ag1141
ag1143
ag1146
ag1148
ag1150
ag1152
ag1155
ag1157
ag1159
ag1161
ag1164
ag1166
ag1168
ag1170
ag1173
ag1175
ag1177
ag1179
ag1182
ag1184
ag1186
ag1188
ag1191
ag1193
ag1195
ag1197
ag1200
ag1202
ag1204
ag1206
ag1209
ag1211
ag1213
ag1215
ag1218
ag1220
ag1222
ag1224
ag1227
ag1229
ag1231
ag1233
ag1236
ag1238
ag1240
ag1242
ag1245
ag1247
ag1249
ag1251
ag1254
ag1256
ag1258
asS'featureMap'
p3630
(lp3631
(lp3632
I0
aI9
ag5
ag6
ag9
ag11
ag13
aa(lp3633
I15
aI18
ag15
ag16
ag18
ag20
ag22
aa(lp3634
I23
aI29
ag24
ag25
ag27
ag29
ag31
aa(lp3635
I32
aI32
ag33
ag34
ag36
ag38
ag40
aa(lp3636
I38
aI41
ag42
ag43
ag45
ag47
ag49
aa(lp3637
I54
aI57
ag51
ag52
ag54
ag56
ag58
aa(lp3638
I62
aI68
ag60
ag61
ag63
ag65
ag67
aa(lp3639
I75
aI78
ag69
ag70
ag72
ag74
ag76
aa(lp3640
I80
aI88
ag78
ag79
ag81
ag83
ag85
aa(lp3641
I94
aI101
ag87
ag88
ag90
ag92
ag94
aa(lp3642
I116
aI118
ag96
ag97
ag99
ag101
ag103
aa(lp3643
I123
aI125
ag105
ag106
ag108
ag110
ag112
aa(lp3644
I132
aI136
ag114
ag115
ag117
ag119
ag121
aa(lp3645
I138
aI142
ag123
ag124
ag126
ag128
ag130
aa(lp3646
I148
aI151
ag132
ag133
ag135
ag137
ag139
aa(lp3647
I162
aI165
ag141
ag142
ag144
ag146
ag148
aa(lp3648
I171
aI177
ag150
ag151
ag153
ag155
ag157
aa(lp3649
I190
aI195
ag159
ag160
ag162
ag164
ag166
aa(lp3650
I197
aI202
ag168
ag169
ag171
ag173
ag175
aa(lp3651
I216
aI221
ag177
ag178
ag180
ag182
ag184
aa(lp3652
I226
aI232
ag186
ag187
ag189
ag191
ag193
aa(lp3653
I235
aI241
ag195
ag196
ag198
ag200
ag202
aa(lp3654
I270
aI275
ag204
ag205
ag207
ag209
ag211
aa(lp3655
I277
aI280
ag213
ag214
ag216
ag218
ag220
aa(lp3656
I290
aI294
ag222
ag223
ag225
ag227
ag229
aa(lp3657
I305
aI310
ag231
ag232
ag234
ag236
ag238
aa(lp3658
I315
aI321
ag240
ag241
ag243
ag245
ag247
aa(lp3659
I326
aI334
ag249
ag250
ag252
ag254
ag256
aa(lp3660
I344
aI347
ag258
ag259
ag261
ag263
ag265
aa(lp3661
I355
aI363
ag267
ag268
ag270
ag272
ag274
aa(lp3662
I374
aI378
ag276
ag277
ag279
ag281
ag283
aa(lp3663
I389
aI396
ag285
ag286
ag288
ag290
ag292
aa(lp3664
I401
aI406
ag294
ag295
ag297
ag299
ag301
aa(lp3665
I409
aI412
ag303
ag304
ag306
ag308
ag310
aa(lp3666
I424
aI430
ag312
ag313
ag315
ag317
ag319
aa(lp3667
I432
aI434
ag321
ag322
ag324
ag326
ag328
aa(lp3668
I440
aI443
ag330
ag331
ag333
ag335
ag337
aa(lp3669
I449
aI460
ag339
ag340
ag342
ag344
ag346
aa(lp3670
I470
aI477
ag348
ag349
ag351
ag353
ag355
aa(lp3671
I484
aI488
ag357
ag358
ag360
ag362
ag364
aa(lp3672
I490
aI493
ag366
ag367
ag369
ag371
ag373
aa(lp3673
I505
aI512
ag375
ag376
ag378
ag380
ag382
aa(lp3674
I521
aI525
ag384
ag385
ag387
ag389
ag391
aa(lp3675
I527
aI530
ag393
ag394
ag396
ag398
ag400
aa(lp3676
I541
aI547
ag402
ag403
ag405
ag407
ag409
aa(lp3677
I554
aI554
ag33
ag411
ag413
ag415
ag417
aa(lp3678
I556
aI562
ag419
ag420
ag422
ag424
ag426
aa(lp3679
I566
aI569
ag428
ag429
ag431
ag433
ag435
aa(lp3680
I571
aI583
ag437
ag438
ag440
ag442
ag444
aa(lp3681
I588
aI593
ag446
ag447
ag449
ag451
ag453
aa(lp3682
I595
aI599
ag455
ag456
ag458
ag460
ag462
aa(lp3683
I616
aI620
ag464
ag465
ag467
ag469
ag471
aa(lp3684
I622
aI627
ag473
ag474
ag476
ag478
ag480
aa(lp3685
I630
aI637
ag482
ag483
ag485
ag487
ag489
aa(lp3686
I648
aI654
ag491
ag492
ag494
ag496
ag498
aa(lp3687
I657
aI662
ag500
ag501
ag503
ag505
ag507
aa(lp3688
I674
aI681
ag509
ag510
ag512
ag514
ag516
aa(lp3689
I686
aI692
ag518
ag519
ag521
ag523
ag525
aa(lp3690
I698
aI701
ag527
ag528
ag530
ag532
ag534
aa(lp3691
I710
aI713
ag536
ag537
ag539
ag541
ag543
aa(lp3692
I718
aI723
ag545
ag546
ag548
ag550
ag552
aa(lp3693
I725
aI730
ag554
ag555
ag557
ag559
ag561
aa(lp3694
I732
aI745
ag563
ag564
ag566
ag568
ag570
aa(lp3695
I756
aI759
ag572
ag573
ag575
ag577
ag579
aa(lp3696
I764
aI767
ag581
ag582
ag584
ag586
ag588
aa(lp3697
I774
aI780
ag590
ag591
ag593
ag595
ag597
aa(lp3698
I786
aI789
ag599
ag600
ag602
ag604
ag606
aa(lp3699
I794
aI799
ag608
ag609
ag611
ag613
ag615
aa(lp3700
I809
aI816
ag617
ag618
ag620
ag622
ag624
aa(lp3701
I820
aI826
ag626
ag627
ag629
ag631
ag633
aa(lp3702
I829
aI834
ag635
ag636
ag638
ag640
ag642
aa(lp3703
I836
aI842
ag644
ag645
ag647
ag649
ag651
aa(lp3704
I846
aI849
ag653
ag654
ag656
ag658
ag660
aa(lp3705
I853
aI853
ag33
ag662
ag664
ag666
ag668
aa(lp3706
I855
aI860
ag670
ag671
ag673
ag675
ag677
aa(lp3707
I866
aI877
ag679
ag680
ag682
ag684
ag686
aa(lp3708
I879
aI885
ag688
ag689
ag691
ag693
ag695
aa(lp3709
I896
aI900
ag697
ag698
ag700
ag702
ag704
aa(lp3710
I902
aI908
ag706
ag707
ag709
ag711
ag713
aa(lp3711
I928
aI933
ag715
ag716
ag718
ag720
ag722
aa(lp3712
I935
aI939
ag724
ag725
ag727
ag729
ag731
aa(lp3713
I950
aI954
ag733
ag734
ag736
ag738
ag740
aa(lp3714
I956
aI958
ag742
ag743
ag745
ag747
ag749
aa(lp3715
I964
aI965
ag751
ag752
ag754
ag756
ag758
aa(lp3716
I972
aI976
ag760
ag761
ag763
ag765
ag767
aa(lp3717
I987
aI991
ag769
ag770
ag772
ag774
ag776
aa(lp3718
I1008
aI1013
ag778
ag779
ag781
ag783
ag785
aa(lp3719
I1024
aI1027
ag787
ag788
ag790
ag792
ag794
aa(lp3720
I1029
aI1033
ag796
ag797
ag799
ag801
ag803
aa(lp3721
I1035
aI1039
ag805
ag806
ag808
ag810
ag812
aa(lp3722
I1049
aI1056
ag814
ag815
ag817
ag819
ag821
aa(lp3723
I1062
aI1070
ag823
ag824
ag826
ag828
ag830
aa(lp3724
I1078
aI1084
ag832
ag833
ag835
ag837
ag839
aa(lp3725
I1088
aI1088
ag33
ag841
ag843
ag845
ag847
aa(lp3726
I1111
aI1114
ag849
ag850
ag852
ag854
ag856
aa(lp3727
I1122
aI1123
ag858
ag859
ag861
ag863
ag865
aa(lp3728
I1130
aI1134
ag867
ag868
ag870
ag872
ag874
aa(lp3729
I1139
aI1151
ag876
ag877
ag879
ag881
ag883
aa(lp3730
I1153
aI1156
ag885
ag886
ag888
ag890
ag892
aa(lp3731
I1161
aI1166
ag894
ag895
ag897
ag899
ag901
aa(lp3732
I1175
aI1183
ag903
ag904
ag906
ag908
ag910
aa(lp3733
I1189
aI1196
ag912
ag913
ag915
ag917
ag919
aa(lp3734
I1201
aI1204
ag921
ag922
ag924
ag926
ag928
aa(lp3735
I1225
aI1228
ag930
ag931
ag933
ag935
ag937
aa(lp3736
I1233
aI1236
ag939
ag940
ag942
ag944
ag946
aa(lp3737
I1238
aI1243
ag948
ag949
ag951
ag953
ag955
aa(lp3738
I1253
aI1255
ag957
ag958
ag960
ag962
ag964
aa(lp3739
I1257
aI1261
ag966
ag967
ag969
ag971
ag973
aa(lp3740
I1266
aI1269
ag975
ag976
ag978
ag980
ag982
aa(lp3741
I1273
aI1278
ag984
ag985
ag987
ag989
ag991
aa(lp3742
I1292
aI1292
ag33
ag993
ag995
ag997
ag999
aa(lp3743
I1305
aI1307
ag1001
ag1002
ag1004
ag1006
ag1008
aa(lp3744
I1320
aI1323
ag1010
ag1011
ag1013
ag1015
ag1017
aa(lp3745
I1328
aI1334
ag1019
ag1020
ag1022
ag1024
ag1026
aa(lp3746
I1337
aI1340
ag1028
ag1029
ag1031
ag1033
ag1035
aa(lp3747
I1347
aI1350
ag1037
ag1038
ag1040
ag1042
ag1044
aa(lp3748
I1352
aI1356
ag1046
ag1047
ag1049
ag1051
ag1053
aa(lp3749
I1361
aI1366
ag1055
ag1056
ag1058
ag1060
ag1062
aa(lp3750
I1376
aI1380
ag1064
ag1065
ag1067
ag1069
ag1071
aa(lp3751
I1390
aI1393
ag1073
ag1074
ag1076
ag1078
ag1080
aa(lp3752
I1400
aI1403
ag1082
ag1083
ag1085
ag1087
ag1089
aa(lp3753
I1405
aI1410
ag1091
ag1092
ag1094
ag1096
ag1098
aa(lp3754
I1415
aI1417
ag1100
ag1101
ag1103
ag1105
ag1107
aa(lp3755
I1424
aI1424
ag33
ag1109
ag1111
ag1113
ag1115
aa(lp3756
I1444
aI1450
ag1117
ag1118
ag1120
ag1122
ag1124
aa(lp3757
I1453
aI1456
ag1126
ag1127
ag1129
ag1131
ag1133
aa(lp3758
I1458
aI1462
ag1135
ag1136
ag1138
ag1140
ag1142
aa(lp3759
I1466
aI1470
ag1144
ag1145
ag1147
ag1149
ag1151
aa(lp3760
I1472
aI1478
ag1153
ag1154
ag1156
ag1158
ag1160
aa(lp3761
I1484
aI1486
ag1162
ag1163
ag1165
ag1167
ag1169
aa(lp3762
I1488
aI1491
ag1171
ag1172
ag1174
ag1176
ag1178
aa(lp3763
I1493
aI1497
ag1180
ag1181
ag1183
ag1185
ag1187
aa(lp3764
I1508
aI1513
ag1189
ag1190
ag1192
ag1194
ag1196
aa(lp3765
I1518
aI1523
ag1198
ag1199
ag1201
ag1203
ag1205
aa(lp3766
I1525
aI1529
ag1207
ag1208
ag1210
ag1212
ag1214
aa(lp3767
I1531
aI1537
ag1216
ag1217
ag1219
ag1221
ag1223
aa(lp3768
I1540
aI1544
ag1225
ag1226
ag1228
ag1230
ag1232
aa(lp3769
I1561
aI1570
ag1234
ag1235
ag1237
ag1239
ag1241
aa(lp3770
I1580
aI1586
ag1243
ag1244
ag1246
ag1248
ag1250
aa(lp3771
I1588
aI1589
ag1252
ag1253
ag1255
ag1257
ag1259
aasS'characterMap'
p3772
(lp3773
g1264
ag1266
ag1268
ag1270
ag1272
ag1274
ag1275
ag1277
ag1279
ag1281
ag3296
ag1286
ag1288
ag1290
ag3298
ag1293
ag1295
ag1296
ag1298
ag3299
ag1302
ag1303
ag3300
ag1306
ag1308
ag1309
ag1311
ag1312
ag1313
ag1314
ag3301
a(lp3774
I31
aS'\xc2'
p3775
aag1317
ag3302
ag1321
ag1322
ag1323
ag3303
ag1326
ag1327
ag1328
ag1329
ag3304
ag1334
ag1335
ag3305
ag1339
ag1340
ag1341
ag3306
ag1346
ag1347
ag1348
ag3307
ag1351
ag1352
ag1353
ag1354
ag3308
ag1358
ag1359
ag3309
ag1362
ag1363
ag1364
ag1365
ag1366
ag1367
ag1368
ag3310
ag1372
ag1373
ag3311
ag1376
ag3312
ag1379
ag1380
ag1381
ag1382
ag3313
ag1385
ag1386
ag1387
ag1388
ag1389
ag1390
ag1391
ag1392
ag1393
ag3314
ag1397
ag1398
ag1399
ag3315
ag1403
ag1404
ag1406
ag1407
ag1408
ag1409
ag1410
ag1411
ag3316
ag1415
ag1416
ag1417
ag3317
ag1421
ag1422
ag1423
ag3318
ag1427
ag1428
ag1429
ag1430
ag3319
ag1433
ag1434
ag1435
ag3320
ag1439
ag1440
ag3321
ag1443
ag1444
ag1445
a(lp3776
I126
aS'.'
p3777
aag3322
ag1449
ag1450
ag1451
ag3323
ag1454
ag1455
ag1456
ag1457
ag1458
ag3324
ag1461
ag1462
ag1463
ag1464
ag1465
ag3325
ag1469
ag1470
ag1471
ag3326
ag1474
ag1475
ag1476
ag1477
ag3327
ag1481
ag1482
ag3328
ag1486
ag1487
ag3329
ag1491
ag1492
ag3330
ag1495
ag1496
ag1497
ag1498
ag3331
ag1502
ag1503
ag1504
ag3332
ag1507
ag1508
ag1510
ag1511
ag1512
ag1513
ag1514
ag3333
ag1518
ag1520
ag1521
ag1522
ag3334
ag1526
ag1527
ag3335
ag1531
ag1532
ag3336
ag1535
ag1536
ag1537
a(lp3778
I193
aS"'"
p3779
aag1538
ag1539
ag3337
ag1542
ag1543
ag1544
ag1545
ag1546
ag1547
ag3338
ag1551
ag1552
a(lp3780
I206
ag3777
aag3339
ag1556
ag1557
ag1558
ag3340
ag1562
ag1563
ag1564
ag3341
ag1567
ag1568
ag1569
ag1570
ag1571
ag1572
ag3342
ag1576
ag1577
ag3343
ag1580
ag1581
ag1582
ag1583
ag1584
ag1585
ag1586
a(lp3781
I233
aS'?'
p3782
aag3344
ag1589
ag1590
ag1591
ag1592
ag1593
ag1594
ag1595
ag3345
ag1599
ag1600
ag3346
ag1604
ag1605
ag3347
ag1609
ag1610
ag1611
ag3348
ag1615
ag1616
ag1617
ag1618
ag1619
ag3349
ag1623
ag1624
ag1625
ag1626
ag3350
ag1630
ag1631
ag3351
ag1635
ag1636
ag3352
ag1639
ag1640
ag1641
ag1642
ag1643
ag1644
ag3353
ag1647
ag1648
ag1649
ag1650
ag3354
ag1654
ag1655
ag3355
ag1659
ag1660
ag1661
ag1662
ag3356
ag1665
ag1666
ag1667
ag1668
ag1670
a(lp3783
I295
ag3777
aag3357
ag1674
ag1675
ag1676
ag3358
ag1680
ag1681
ag1682
ag3359
ag1685
ag1686
ag1687
ag1688
ag1689
ag1690
ag3360
ag1694
ag1695
ag3361
ag1698
ag1699
ag1700
ag1701
ag1702
ag1703
ag1704
ag3362
ag1708
ag1709
ag3363
ag1712
ag1713
ag1714
ag1716
ag1717
ag1718
ag1719
ag1720
ag1721
a(lp3784
I335
ag3782
aag3364
ag1725
ag1726
ag3365
ag1730
ag1731
ag1732
ag3366
ag1735
ag1736
ag1737
ag1738
ag3367
ag1742
ag1743
ag1744
ag1745
ag1746
ag3368
ag1749
ag1751
ag1752
ag1753
ag1754
ag1755
ag1756
ag1757
ag1758
ag3369
ag1762
ag1763
ag3370
ag1767
ag1768
ag1769
ag1770
ag1771
ag3371
ag1774
ag1775
ag1776
ag1777
ag1778
a(lp3785
I379
ag3782
aag3372
ag1782
ag1783
ag3373
ag1787
ag1788
ag1789
ag3374
a(lp3786
I388
aS'('
p3787
aag1792
ag1793
ag1794
ag1795
ag1796
ag1797
ag1798
ag1799
ag3375
ag1803
ag1804
ag3376
ag1807
ag1808
ag1809
ag1810
ag1811
ag1812
a(lp3788
I407
aS')'
p3789
aag3377
ag1815
ag1816
ag1817
ag1818
ag3378
ag1822
ag1823
ag1824
ag1825
ag3379
ag1829
ag1830
ag1831
ag1832
ag3380
ag1835
ag1836
ag1837
ag1838
ag1839
ag1840
ag1841
ag3381
ag1844
ag1845
ag1846
ag3382
ag1850
ag1851
ag1852
ag3383
ag1855
ag1856
ag1857
ag1858
ag3384
ag1862
ag1863
ag1864
ag3385
ag1867
ag1868
ag1869
ag1870
ag1871
ag1872
ag1873
ag1874
ag1875
ag1876
ag1877
ag1878
ag3386
ag1882
ag1883
ag3387
ag1887
ag1888
ag1889
ag1890
ag3388
ag1893
ag1894
ag1895
ag1896
ag1897
ag1898
ag1899
ag1900
a(lp3790
I478
ag3782
aag3389
ag1904
ag1905
ag1906
ag3390
ag1909
ag1910
ag1911
a(lp3791
I487
ag3779
aag1912
ag3391
ag1915
ag1916
ag1917
ag1918
ag3392
ag1922
ag1923
ag3393
ag1927
ag1928
ag1929
ag1930
ag3394
ag1933
ag3395
ag1936
ag1937
ag1938
ag1939
ag1940
ag1941
ag1942
ag1943
ag3396
ag1947
ag1948
ag3397
ag1952
ag1953
ag1954
ag3398
ag1957
ag1958
ag1959
a(lp3792
I524
ag3779
aag1960
ag3399
ag1963
ag1964
ag1965
ag1966
ag3400
ag1970
ag1971
ag1972
ag1973
ag3401
ag1977
ag1978
ag1979
ag3402
ag1982
ag1983
ag1984
ag1985
ag1986
ag1987
ag1988
ag3403
ag1992
ag1993
a(lp3793
I551
ag3777
aag3404
a(lp3794
I553
ag3775
aag1996
ag3405
ag1999
ag2000
ag2001
ag2002
ag2003
a(lp3795
I561
ag3779
aag2004
ag3406
ag2007
ag3407
ag2010
ag2011
ag2012
ag2013
ag3408
ag2016
ag2017
ag2018
ag2019
ag2020
ag2021
ag2022
ag2023
ag2024
ag2025
ag2026
ag2027
ag2028
ag3409
ag2032
ag2033
ag3410
ag2036
ag2037
ag2038
ag2039
ag2040
ag2041
ag3411
ag2044
ag2045
ag2046
ag2047
ag2048
ag3412
ag2052
ag2053
ag2054
ag2055
ag2056
ag3413
ag2060
ag2061
ag2062
ag2063
ag3414
ag2067
ag2068
ag2069
ag3415
ag2072
ag2073
ag2074
ag2075
ag2076
ag3416
ag2079
ag2080
ag2081
a(lp3796
I625
ag3779
aag2082
ag2083
ag3417
a(lp3797
I629
ag3779
aag2086
ag2087
ag2088
ag2089
ag2090
ag2091
ag2092
ag2093
a(lp3798
I638
ag3779
aag3418
ag2097
ag2098
ag3419
ag2102
ag2103
ag2104
ag2105
ag3420
ag2108
ag2109
ag2110
ag2111
ag2112
ag2113
ag2114
a(lp3799
I655
aS','
p3800
aag3421
ag2117
ag2118
ag2119
ag2120
ag2121
ag2122
ag3422
ag2126
ag2127
ag3423
ag2131
ag2132
ag2133
ag2134
ag3424
ag2137
ag3425
ag2140
ag2141
ag2142
ag2143
ag2144
ag2145
ag2146
ag2147
ag3426
ag2151
ag2152
ag3427
ag2155
ag2156
ag2157
ag2158
ag2159
ag2160
ag2161
a(lp3801
I693
ag3777
aag3428
ag2165
ag2166
ag3429
ag2169
ag2170
ag2171
ag2172
ag3430
ag2176
ag2177
ag3431
ag2181
ag2182
ag2183
ag3432
ag2186
ag2187
ag2188
ag2189
ag3433
ag2193
ag2194
ag3434
ag2197
ag2198
ag2199
ag2200
ag2201
ag2202
ag3435
ag2205
ag2206
ag2207
a(lp3802
I728
ag3779
aag2208
ag2209
ag3436
ag2212
ag2213
ag2214
ag2215
ag2216
ag2217
ag2218
ag2219
a(lp3803
I740
ag3777
aa(lp3804
I741
ag3777
aa(lp3805
I742
ag3777
aag2220
ag2221
ag2222
ag3437
ag2226
ag2227
ag2228
a(lp3806
I750
ag3777
aag3438
ag2232
ag2233
ag2234
ag3439
ag2237
ag2238
ag2239
ag2240
ag3440
ag2244
ag2245
ag3441
ag2248
ag2249
ag2250
ag2251
ag3442
ag2255
ag2256
ag2257
ag2258
ag3443
ag2261
ag2262
ag2263
ag2264
ag2265
ag2266
ag2267
ag3444
ag2271
ag2272
ag2273
ag3445
ag2276
ag2277
ag2278
ag2279
ag3446
ag2283
ag2284
ag3447
ag2287
ag2288
ag2289
ag2290
ag2291
ag2292
ag3448
ag2296
ag2297
ag2298
ag3449
ag2302
ag2303
ag2304
ag3450
ag2307
ag2308
ag2309
ag2310
ag2311
ag2312
ag2313
ag2314
ag3451
ag2317
ag3452
ag2320
ag2321
ag2322
ag2323
ag2324
ag2325
ag2326
a(lp3807
I827
ag3777
aag3453
ag2329
ag2330
ag2331
a(lp3808
I832
ag3779
aag2332
ag2333
ag3454
ag2336
ag2337
ag2338
ag2339
ag2340
ag2341
ag2342
ag3455
ag2345
ag3456
ag2348
ag2349
ag2350
ag2351
a(lp3809
I850
ag3777
aag3457
a(lp3810
I852
ag3775
aag2354
ag3458
ag2357
ag2358
ag2359
ag2360
ag2361
ag2362
ag3459
ag2366
ag2367
ag2368
ag3460
ag2371
ag2372
ag2373
ag2374
ag2375
ag2376
ag2377
a(lp3811
I873
aS'-'
p3812
aag2378
ag2379
ag2380
ag2381
ag3461
ag2384
ag2385
ag2386
ag2387
ag2388
ag2389
ag2390
a(lp3813
I886
ag3777
aag3462
ag2394
ag2395
ag3463
ag2399
ag2400
ag2401
ag2402
ag3464
ag2405
ag2406
ag2407
a(lp3814
I899
ag3779
aag2408
ag3465
ag2411
ag2412
ag2413
ag2414
ag2415
ag2416
ag2418
ag3466
ag2422
ag2423
ag3467
ag2427
ag2428
ag2429
ag2430
ag3468
ag2434
ag2435
a(lp3815
I920
ag3779
aag2436
ag2437
ag3469
ag2441
ag2442
ag2443
ag3470
ag2446
ag2447
ag2448
ag2449
ag2450
ag2451
ag3471
ag2454
ag2455
ag2456
ag2457
ag2458
ag3472
ag2462
ag2463
ag2464
ag2465
ag3473
ag2469
ag2470
a(lp3816
I948
ag3777
aag3474
ag2473
ag2474
ag2475
a(lp3817
I953
ag3779
aag2476
ag3475
ag2479
ag2480
ag2481
ag3476
ag2485
ag2486
ag2487
ag3477
ag2490
ag2491
ag3478
ag2495
ag2496
ag3479
ag2499
ag3480
ag2502
ag2503
ag2504
ag2505
ag2506
ag3481
ag2510
ag2511
ag2512
ag2513
ag3482
ag2517
ag2518
ag2519
ag3483
ag2522
ag2523
ag2524
ag2525
ag2526
ag3484
ag2530
ag2531
ag2532
ag3485
ag2536
ag2537
ag2538
ag3486
ag2542
ag2543
ag2544
ag2545
ag3487
ag2548
ag3488
ag2551
ag2552
ag2553
ag2554
ag2555
ag2556
ag3489
ag2560
ag2561
ag2562
ag2563
ag3490
ag2567
ag2568
ag2569
ag3491
ag2572
ag2573
ag2574
ag2575
ag3492
ag2578
ag2579
ag2580
ag2581
ag2582
ag3493
ag2585
ag2586
ag2587
ag2588
ag2589
ag3494
ag2593
ag2594
ag3495
ag2598
ag2599
ag2600
a(lp3818
I1047
ag3777
aag3496
ag2603
ag2604
ag2605
ag2606
ag2607
ag2608
a(lp3819
I1055
ag3779
aag2609
ag3497
ag2613
ag2614
ag2615
ag3498
ag2618
ag2619
ag2620
ag2621
ag2622
ag2623
ag2624
ag2625
ag2626
ag3499
ag2630
ag2631
ag3500
ag2635
ag2636
ag3501
ag2639
ag2640
ag2641
a(lp3820
I1081
aS'/'
p3821
aag2642
ag2643
ag2644
a(lp3822
I1085
ag3782
aag3502
a(lp3823
I1087
ag3775
aag2647
ag3503
ag2651
ag2652
ag3504
ag2656
ag2657
ag2658
ag3505
ag2662
ag2663
ag3506
ag2667
ag2668
ag3507
ag2672
ag2673
ag2674
ag2675
ag3508
ag2679
ag2680
ag3509
ag2683
ag2684
ag2685
ag2686
ag3510
ag2690
ag2691
ag3511
ag2695
ag2696
ag3512
ag2699
ag2700
ag3513
ag2704
ag2705
ag2706
ag2707
ag3514
ag2710
ag2711
ag2712
ag2713
ag2714
ag3515
ag2718
ag2719
ag3516
ag2722
ag2723
ag2724
ag2725
ag2726
ag2727
ag2728
ag2729
ag2730
ag2731
ag2732
ag2733
ag2734
ag3517
ag2737
ag2738
ag2739
ag2740
ag3518
ag2744
ag2745
ag3519
ag2748
ag2749
ag2750
ag2751
ag2752
ag2753
ag3520
ag2757
ag2758
ag3521
ag2762
ag2763
ag2764
ag3522
ag2767
ag2768
ag2769
ag2770
ag2771
ag2772
ag2773
ag2774
ag2775
ag3523
ag2779
ag2780
ag2781
ag3524
ag2784
ag2785
ag2786
ag2787
ag2788
ag2789
ag2790
ag2791
ag3525
ag2795
ag2796
ag3526
ag2799
ag2800
ag2801
ag2802
a(lp3824
I1205
ag3777
aag3527
ag2806
ag2807
ag2808
ag3528
ag2812
ag2813
ag3529
ag2817
ag2818
ag3530
ag2822
ag2823
ag2824
ag2825
ag3531
ag2829
ag2830
ag3532
ag2833
ag2834
ag2835
ag2836
ag3533
ag2840
ag2841
ag3534
ag2844
ag2845
ag2846
ag2847
ag3535
ag2850
ag2851
ag2852
ag2853
ag2854
ag2855
ag3536
ag2859
ag2860
ag2861
ag2862
ag2863
ag2864
ag2865
ag3537
ag2868
ag2869
ag2870
ag3538
ag2873
ag2874
ag2875
ag2876
ag2877
ag3539
ag2881
ag2882
ag3540
ag2885
ag2886
ag2887
ag2888
ag3541
ag2891
ag3542
ag2894
ag2895
ag2896
ag2897
ag2898
ag2899
ag3543
ag2903
ag2904
ag2905
ag3544
ag2909
ag2910
ag3545
ag2914
ag2915
a(lp3825
I1289
ag3782
aag3546
a(lp3826
I1291
ag3775
aag2918
ag3547
ag2922
ag2923
ag3548
ag2927
ag2928
ag2929
ag3549
ag2933
ag2934
ag2935
ag3550
ag2938
ag2939
ag2940
ag3551
ag2944
ag2945
ag2946
ag2947
ag3552
ag2951
ag2952
ag2953
ag3553
ag2956
ag3554
ag2959
ag2960
ag2961
ag2962
ag3555
ag2966
ag2967
ag3556
ag2970
ag2971
ag2972
ag2973
ag2974
ag2975
ag2976
a(lp3827
I1335
ag3800
aag3557
ag2979
ag2980
ag2981
ag2982
ag3558
ag2986
ag2987
ag2988
ag2989
ag3559
ag2992
ag2993
ag2994
ag2995
ag3560
ag2998
ag2999
ag3000
ag3001
ag3002
ag3561
ag3006
ag3007
ag3562
ag3010
ag3011
ag3012
ag3013
ag3014
ag3015
ag3563
ag3019
ag3020
ag3021
ag3564
ag3025
ag3026
ag3027
ag3565
ag3030
ag3031
ag3032
ag3033
ag3034
ag3566
ag3038
ag3039
ag3567
ag3043
ag3044
ag3045
ag3046
ag3568
ag3049
ag3050
ag3051
ag3052
a(lp3828
I1394
ag3800
aag3569
ag3056
ag3057
ag3058
ag3570
ag3061
ag3062
ag3063
ag3064
ag3571
ag3067
ag3068
ag3069
ag3070
ag3071
ag3072
ag3572
ag3076
ag3077
ag3573
ag3080
ag3081
ag3082
ag3574
ag3086
ag3087
a(lp3829
I1421
aS'!'
p3830
aag3575
a(lp3831
I1423
ag3775
aag3090
ag3576
a(lp3832
I1426
aS'~'
p3833
aa(lp3834
I1427
ag3833
aa(lp3835
I1428
ag3833
aa(lp3836
I1429
ag3833
aa(lp3837
I1430
ag3833
aa(lp3838
I1431
ag3833
aa(lp3839
I1432
ag3833
aag3577
ag3094
ag3095
ag3096
ag3097
ag3098
ag3578
ag3102
ag3103
ag3104
ag3579
ag3107
ag3108
ag3109
ag3110
ag3111
ag3112
ag3113
a(lp3840
I1451
aS':'
p3841
aag3580
ag3116
ag3117
ag3118
ag3119
ag3581
ag3122
ag3123
ag3124
ag3125
ag3126
ag3582
a(lp3842
I1464
aS'&'
p3843
aag3583
ag3129
ag3130
ag3131
ag3132
ag3133
ag3584
ag3136
ag3137
ag3138
ag3139
ag3140
ag3141
ag3142
ag3585
ag3146
ag3147
ag3148
ag3586
ag3151
ag3152
ag3153
ag3587
ag3156
ag3157
ag3158
ag3159
ag3588
ag3162
ag3163
ag3164
ag3165
ag3166
a(lp3844
I1498
ag3800
aag3589
ag3170
ag3171
ag3172
ag3590
ag3176
ag3177
ag3178
ag3591
ag3181
ag3182
ag3183
ag3184
ag3185
ag3186
ag3592
ag3190
ag3191
ag3593
ag3194
ag3195
ag3196
ag3197
ag3198
ag3199
ag3594
ag3202
ag3203
ag3204
ag3205
ag3206
ag3595
ag3209
ag3210
ag3211
ag3212
ag3213
ag3214
ag3215
a(lp3845
I1538
ag3777
aag3596
ag3218
ag3219
ag3220
ag3221
ag3222
ag3597
ag3226
ag3227
ag3228
ag3598
ag3232
ag3233
ag3234
ag3599
ag3238
ag3239
ag3240
ag3600
ag3244
ag3245
ag3601
ag3248
ag3249
ag3250
ag3251
ag3252
ag3253
ag3254
ag3255
ag3256
ag3257
ag3602
ag3261
ag3262
ag3603
ag3266
ag3267
ag3268
ag3269
ag3604
ag3272
ag3273
ag3274
ag3275
ag3276
ag3277
ag3278
ag3605
ag3282
ag3283
ag3606
ag3286
ag3287
ag3288
ag3289
ag3290
ag3291
ag3292
ag3293
a(lp3846
I1599
ag3841
aasS'docName'
p3847
S'source-document01493.txt'
p3848
sb.