(iModel.Document
Document
p0
(dp1
S'fmap'
p2
(lp3
(lp4
I0
aI3
aS'send'
p5
a(lp6
S'*'
p7
ag5
aaa(lp8
I0
aI3
ag5
a(lp9
g7
ag5
aaa(lp10
I0
aI3
ag5
a(lp11
g7
ag5
aaa(lp12
I0
aI3
ag5
a(lp13
g7
ag5
aaa(lp14
I10
aI15
aS'friend'
p15
a(lp16
g5
ag15
aaa(lp17
I10
aI15
ag15
a(lp18
g7
ag15
aaa(lp19
I10
aI15
ag15
a(lp20
g7
ag15
aaa(lp21
I10
aI15
ag15
a(lp22
g7
ag15
aaa(lp23
I20
aI26
aS'located'
p24
a(lp25
g15
ag24
aaa(lp26
I20
aI26
ag24
a(lp27
g5
ag24
aaa(lp28
I20
aI26
ag24
a(lp29
g7
ag24
aaa(lp30
I20
aI26
ag24
a(lp31
g7
ag24
aaa(lp32
I31
aI41
aS'bloomington'
p33
a(lp34
g24
ag33
aaa(lp35
I31
aI41
ag33
a(lp36
g15
ag33
aaa(lp37
I31
aI41
ag33
a(lp38
g5
ag33
aaa(lp39
I31
aI41
ag33
a(lp40
g7
ag33
aaa(lp41
I44
aI51
aS'although'
p42
a(lp43
g33
ag42
aaa(lp44
I44
aI51
ag42
a(lp45
g24
ag42
aaa(lp46
I44
aI51
ag42
a(lp47
g15
ag42
aaa(lp48
I44
aI51
ag42
a(lp49
g5
ag42
aaa(lp50
I63
aI67
aS'seven'
p51
a(lp52
g42
ag51
aaa(lp53
I63
aI67
ag51
a(lp54
g33
ag51
aaa(lp55
I63
aI67
ag51
a(lp56
g24
ag51
aaa(lp57
I63
aI67
ag51
a(lp58
g15
ag51
aaa(lp59
I69
aI77
aS'satellite'
p60
a(lp61
g51
ag60
aaa(lp62
I69
aI77
ag60
a(lp63
g42
ag60
aaa(lp64
I69
aI77
ag60
a(lp65
g33
ag60
aaa(lp66
I69
aI77
ag60
a(lp67
g24
ag60
aaa(lp68
I79
aI86
aS'campuses'
p69
a(lp70
g60
ag69
aaa(lp71
I79
aI86
ag69
a(lp72
g51
ag69
aaa(lp73
I79
aI86
ag69
a(lp74
g42
ag69
aaa(lp75
I79
aI86
ag69
a(lp76
g33
ag69
aaa(lp77
I97
aI102
aS'cities'
p78
a(lp79
g69
ag78
aaa(lp80
I97
aI102
ag78
a(lp81
g60
ag78
aaa(lp82
I97
aI102
ag78
a(lp83
g51
ag78
aaa(lp84
I97
aI102
ag78
a(lp85
g42
ag78
aaa(lp86
I104
aI109
aS'across'
p87
a(lp88
g78
ag87
aaa(lp89
I104
aI109
ag87
a(lp90
g69
ag87
aaa(lp91
I104
aI109
ag87
a(lp92
g60
ag87
aaa(lp93
I104
aI109
ag87
a(lp94
g51
ag87
aaa(lp95
I115
aI119
aS'state'
p96
a(lp97
g87
ag96
aaa(lp98
I115
aI119
ag96
a(lp99
g78
ag96
aaa(lp100
I115
aI119
ag96
a(lp101
g69
ag96
aaa(lp102
I115
aI119
ag96
a(lp103
g60
ag96
aaa(lp104
I122
aI125
aS'long'
p105
a(lp106
g96
ag105
aaa(lp107
I122
aI125
ag105
a(lp108
g87
ag105
aaa(lp109
I122
aI125
ag105
a(lp110
g78
ag105
aaa(lp111
I122
aI125
ag105
a(lp112
g69
ag105
aaa(lp113
I127
aI131
aS'known'
p114
a(lp115
g105
ag114
aaa(lp116
I127
aI131
ag114
a(lp117
g96
ag114
aaa(lp118
I127
aI131
ag114
a(lp119
g87
ag114
aaa(lp120
I127
aI131
ag114
a(lp121
g78
ag114
aaa(lp122
I141
aI150
aS'reputation'
p123
a(lp124
g114
ag123
aaa(lp125
I141
aI150
ag123
a(lp126
g105
ag123
aaa(lp127
I141
aI150
ag123
a(lp128
g96
ag123
aaa(lp129
I141
aI150
ag123
a(lp130
g87
ag123
aaa(lp131
I157
aI163
aS'leading'
p132
a(lp133
g123
ag132
aaa(lp134
I157
aI163
ag132
a(lp135
g114
ag132
aaa(lp136
I157
aI163
ag132
a(lp137
g105
ag132
aaa(lp138
I157
aI163
ag132
a(lp139
g96
ag132
aaa(lp140
I165
aI172
aS'research'
p141
a(lp142
g132
ag141
aaa(lp143
I165
aI172
ag141
a(lp144
g123
ag141
aaa(lp145
I165
aI172
ag141
a(lp146
g114
ag141
aaa(lp147
I165
aI172
ag141
a(lp148
g105
ag141
aaa(lp149
I174
aI183
aS'university'
p150
a(lp151
g141
ag150
aaa(lp152
I174
aI183
ag150
a(lp153
g132
ag150
aaa(lp154
I174
aI183
ag150
a(lp155
g123
ag150
aaa(lp156
I174
aI183
ag150
a(lp157
g114
ag150
aaa(lp158
I186
aI192
aS'indiana'
p159
a(lp160
g150
ag159
aaa(lp161
I186
aI192
ag159
a(lp162
g141
ag159
aaa(lp163
I186
aI192
ag159
a(lp164
g132
ag159
aaa(lp165
I186
aI192
ag159
a(lp166
g123
ag159
aaa(lp167
I194
aI203
aS'university'
p168
a(lp169
g159
ag168
aaa(lp170
I194
aI203
ag168
a(lp171
g150
ag168
aaa(lp172
I194
aI203
ag168
a(lp173
g141
ag168
aaa(lp174
I194
aI203
ag168
a(lp175
g132
ag168
aaa(lp176
I214
aI218
aS'named'
p177
a(lp178
g168
ag177
aaa(lp179
I214
aI218
ag177
a(lp180
g159
ag177
aaa(lp181
I214
aI218
ag177
a(lp182
g150
ag177
aaa(lp183
I214
aI218
ag177
a(lp184
g141
ag177
aaa(lp185
I225
aI231
aS'college'
p186
a(lp187
g177
ag186
aaa(lp188
I225
aI231
ag186
a(lp189
g168
ag186
aaa(lp190
I225
aI231
ag186
a(lp191
g159
ag186
aaa(lp192
I225
aI231
ag186
a(lp193
g150
ag186
aaa(lp194
I240
aI243
aS'year'
p195
a(lp196
g186
ag195
aaa(lp197
I240
aI243
ag195
a(lp198
g177
ag195
aaa(lp199
I240
aI243
ag195
a(lp200
g168
ag195
aaa(lp201
I240
aI243
ag195
a(lp202
g159
ag195
aaa(lp203
I245
aI249
aS'among'
p204
a(lp205
g195
ag204
aaa(lp206
I245
aI249
ag204
a(lp207
g186
ag204
aaa(lp208
I245
aI249
ag204
a(lp209
g177
ag204
aaa(lp210
I245
aI249
ag204
a(lp211
g168
ag204
aaa(lp212
I251
aI258
aS'research'
p213
a(lp214
g204
ag213
aaa(lp215
I251
aI258
ag213
a(lp216
g195
ag213
aaa(lp217
I251
aI258
ag213
a(lp218
g186
ag213
aaa(lp219
I251
aI258
ag213
a(lp220
g177
ag213
aaa(lp221
I260
aI271
aS'universities'
p222
a(lp223
g213
ag222
aaa(lp224
I260
aI271
ag222
a(lp225
g204
ag222
aaa(lp226
I260
aI271
ag222
a(lp227
g195
ag222
aaa(lp228
I260
aI271
ag222
a(lp229
g186
ag222
aaa(lp230
I279
aI285
aS'founded'
p231
a(lp232
g222
ag231
aaa(lp233
I279
aI285
ag231
a(lp234
g213
ag231
aaa(lp235
I279
aI285
ag231
a(lp236
g204
ag231
aaa(lp237
I279
aI285
ag231
a(lp238
g195
ag231
aaa(lp239
I290
aI293
aS'1820'
p240
a(lp241
g231
ag240
aaa(lp242
I290
aI293
ag240
a(lp243
g222
ag240
aaa(lp244
I290
aI293
ag240
a(lp245
g213
ag240
aaa(lp246
I290
aI293
ag240
a(lp247
g204
ag240
aaa(lp248
I296
aI302
aS'indiana'
p249
a(lp250
g240
ag249
aaa(lp251
I296
aI302
ag249
a(lp252
g231
ag249
aaa(lp253
I296
aI302
ag249
a(lp254
g222
ag249
aaa(lp255
I296
aI302
ag249
a(lp256
g213
ag249
aaa(lp257
I304
aI313
aS'university'
p258
a(lp259
g249
ag258
aaa(lp260
I304
aI313
ag258
a(lp261
g240
ag258
aaa(lp262
I304
aI313
ag258
a(lp263
g231
ag258
aaa(lp264
I304
aI313
ag258
a(lp265
g222
ag258
aaa(lp266
I322
aI327
aS'oldest'
p267
a(lp268
g258
ag267
aaa(lp269
I322
aI327
ag267
a(lp270
g249
ag267
aaa(lp271
I322
aI327
ag267
a(lp272
g240
ag267
aaa(lp273
I322
aI327
ag267
a(lp274
g231
ag267
aaa(lp275
I329
aI338
aS'university'
p276
a(lp277
g267
ag276
aaa(lp278
I329
aI338
ag276
a(lp279
g258
ag276
aaa(lp280
I329
aI338
ag276
a(lp281
g249
ag276
aaa(lp282
I329
aI338
ag276
a(lp283
g240
ag276
aaa(lp284
I340
aI343
aS'west'
p285
a(lp286
g276
ag285
aaa(lp287
I340
aI343
ag285
a(lp288
g267
ag285
aaa(lp289
I340
aI343
ag285
a(lp290
g258
ag285
aaa(lp291
I340
aI343
ag285
a(lp292
g249
ag285
aaa(lp293
I352
aI362
aS'appalachian'
p294
a(lp295
g285
ag294
aaa(lp296
I352
aI362
ag294
a(lp297
g276
ag294
aaa(lp298
I352
aI362
ag294
a(lp299
g267
ag294
aaa(lp300
I352
aI362
ag294
a(lp301
g258
ag294
aaa(lp302
I364
aI372
aS'mountains'
p303
a(lp304
g294
ag303
aaa(lp305
I364
aI372
ag303
a(lp306
g285
ag303
aaa(lp307
I364
aI372
ag303
a(lp308
g276
ag303
aaa(lp309
I364
aI372
ag303
a(lp310
g267
ag303
aaa(lp311
I375
aI383
aS'initially'
p312
a(lp313
g303
ag312
aaa(lp314
I375
aI383
ag312
a(lp315
g294
ag312
aaa(lp316
I375
aI383
ag312
a(lp317
g285
ag312
aaa(lp318
I375
aI383
ag312
a(lp319
g276
ag312
aaa(lp320
I385
aI393
aS'chartered'
p321
a(lp322
g312
ag321
aaa(lp323
I385
aI393
ag321
a(lp324
g303
ag321
aaa(lp325
I385
aI393
ag321
a(lp326
g294
ag321
aaa(lp327
I385
aI393
ag321
a(lp328
g285
ag321
aaa(lp329
I402
aI406
aS'state'
p330
a(lp331
g321
ag330
aaa(lp332
I402
aI406
ag330
a(lp333
g312
ag330
aaa(lp334
I402
aI406
ag330
a(lp335
g303
ag330
aaa(lp336
I402
aI406
ag330
a(lp337
g294
ag330
aaa(lp338
I408
aI415
aS'seminary'
p339
a(lp340
g330
ag339
aaa(lp341
I408
aI415
ag339
a(lp342
g321
ag339
aaa(lp343
I408
aI415
ag339
a(lp344
g312
ag339
aaa(lp345
I408
aI415
ag339
a(lp346
g303
ag339
aaa(lp347
I422
aI427
aS'school'
p348
a(lp349
g339
ag348
aaa(lp350
I422
aI427
ag348
a(lp351
g330
ag348
aaa(lp352
I422
aI427
ag348
a(lp353
g321
ag348
aaa(lp354
I422
aI427
ag348
a(lp355
g312
ag348
aaa(lp356
I429
aI434
aS'became'
p357
a(lp358
g348
ag357
aaa(lp359
I429
aI434
ag357
a(lp360
g339
ag357
aaa(lp361
I429
aI434
ag357
a(lp362
g330
ag357
aaa(lp363
I429
aI434
ag357
a(lp364
g321
ag357
aaa(lp365
I436
aI442
aS'indiana'
p366
a(lp367
g357
ag366
aaa(lp368
I436
aI442
ag366
a(lp369
g348
ag366
aaa(lp370
I436
aI442
ag366
a(lp371
g339
ag366
aaa(lp372
I436
aI442
ag366
a(lp373
g330
ag366
aaa(lp374
I444
aI450
aS'college'
p375
a(lp376
g366
ag375
aaa(lp377
I444
aI450
ag375
a(lp378
g357
ag375
aaa(lp379
I444
aI450
ag375
a(lp380
g348
ag375
aaa(lp381
I444
aI450
ag375
a(lp382
g339
ag375
aaa(lp383
I455
aI458
aS'1828'
p384
a(lp385
g375
ag384
aaa(lp386
I455
aI458
ag384
a(lp387
g366
ag384
aaa(lp388
I455
aI458
ag384
a(lp389
g357
ag384
aaa(lp390
I455
aI458
ag384
a(lp391
g348
ag384
aaa(lp392
I465
aI471
aS'finally'
p393
a(lp394
g384
ag393
aaa(lp395
I465
aI471
ag393
a(lp396
g375
ag393
aaa(lp397
I465
aI471
ag393
a(lp398
g366
ag393
aaa(lp399
I465
aI471
ag393
a(lp400
g357
ag393
aaa(lp401
I473
aI479
aS'indiana'
p402
a(lp403
g393
ag402
aaa(lp404
I473
aI479
ag402
a(lp405
g384
ag402
aaa(lp406
I473
aI479
ag402
a(lp407
g375
ag402
aaa(lp408
I473
aI479
ag402
a(lp409
g366
ag402
aaa(lp410
I481
aI490
aS'university'
p411
a(lp412
g402
ag411
aaa(lp413
I481
aI490
ag411
a(lp414
g393
ag411
aaa(lp415
I481
aI490
ag411
a(lp416
g384
ag411
aaa(lp417
I481
aI490
ag411
a(lp418
g375
ag411
aaa(lp419
I495
aI498
aS'1838'
p420
a(lp421
g411
ag420
aaa(lp422
I495
aI498
ag420
a(lp423
g402
ag420
aaa(lp424
I495
aI498
ag420
a(lp425
g393
ag420
aaa(lp426
I495
aI498
ag420
a(lp427
g384
ag420
aaa(lp428
I505
aI515
aS'bloomington'
p429
a(lp430
g420
ag429
aaa(lp431
I505
aI515
ag429
a(lp432
g411
ag429
aaa(lp433
I505
aI515
ag429
a(lp434
g402
ag429
aaa(lp435
I505
aI515
ag429
a(lp436
g393
ag429
aaa(lp437
I517
aI522
aS'campus'
p438
a(lp439
g429
ag438
aaa(lp440
I517
aI522
ag438
a(lp441
g420
ag438
aaa(lp442
I517
aI522
ag438
a(lp443
g411
ag438
aaa(lp444
I517
aI522
ag438
a(lp445
g402
ag438
aaa(lp446
I530
aI536
aS'student'
p447
a(lp448
g438
ag447
aaa(lp449
I530
aI536
ag447
a(lp450
g429
ag447
aaa(lp451
I530
aI536
ag447
a(lp452
g420
ag447
aaa(lp453
I530
aI536
ag447
a(lp454
g411
ag447
aaa(lp455
I538
aI541
aS'body'
p456
a(lp457
g447
ag456
aaa(lp458
I538
aI541
ag456
a(lp459
g438
ag456
aaa(lp460
I538
aI541
ag456
a(lp461
g429
ag456
aaa(lp462
I538
aI541
ag456
a(lp463
g420
ag456
aaa(lp464
I546
aI551
aS'almost'
p465
a(lp466
g456
ag465
aaa(lp467
I546
aI551
ag465
a(lp468
g447
ag465
aaa(lp469
I546
aI551
ag465
a(lp470
g438
ag465
aaa(lp471
I546
aI551
ag465
a(lp472
g429
ag465
aaa(lp473
I553
aI558
aS'38000'
p474
a(lp475
g465
ag474
aaa(lp476
I553
aI558
ag474
a(lp477
g456
ag474
aaa(lp478
I553
aI558
ag474
a(lp479
g447
ag474
aaa(lp480
I553
aI558
ag474
a(lp481
g438
ag474
aaa(lp482
I567
aI573
aS'located'
p483
a(lp484
g474
ag483
aaa(lp485
I567
aI573
ag483
a(lp486
g465
ag483
aaa(lp487
I567
aI573
ag483
a(lp488
g456
ag483
aaa(lp489
I567
aI573
ag483
a(lp490
g447
ag483
aaa(lp491
I578
aI582
aS'1931'
p492
a(lp493
g483
ag492
aaa(lp494
I578
aI582
ag492
a(lp495
g474
ag492
aaa(lp496
I578
aI582
ag492
a(lp497
g465
ag492
aaa(lp498
I578
aI582
ag492
a(lp499
g456
ag492
aaa(lp500
I584
aI588
aS'acres'
p501
a(lp502
g492
ag501
aaa(lp503
I584
aI588
ag501
a(lp504
g483
ag501
aaa(lp505
I584
aI588
ag501
a(lp506
g474
ag501
aaa(lp507
I584
aI588
ag501
a(lp508
g465
ag501
aaa(lp509
I591
aI593
aS'781'
p510
a(lp511
g501
ag510
aaa(lp512
I591
aI593
ag510
a(lp513
g492
ag510
aaa(lp514
I591
aI593
ag510
a(lp515
g483
ag510
aaa(lp516
I591
aI593
ag510
a(lp517
g474
ag510
aaa(lp518
I595
aI602
aS'hectares'
p519
a(lp520
g510
ag519
aaa(lp521
I595
aI602
ag519
a(lp522
g501
ag519
aaa(lp523
I595
aI602
ag519
a(lp524
g492
ag519
aaa(lp525
I595
aI602
ag519
a(lp526
g483
ag519
aaa(lp527
I617
aI625
aS'northeast'
p528
a(lp529
g519
ag528
aaa(lp530
I617
aI625
ag528
a(lp531
g510
ag528
aaa(lp532
I617
aI625
ag528
a(lp533
g501
ag528
aaa(lp534
I617
aI625
ag528
a(lp535
g492
ag528
aaa(lp536
I634
aI641
aS'downtown'
p537
a(lp538
g528
ag537
aaa(lp539
I634
aI641
ag537
a(lp540
g519
ag537
aaa(lp541
I634
aI641
ag537
a(lp542
g510
ag537
aaa(lp543
I634
aI641
ag537
a(lp544
g501
ag537
aaa(lp545
I634
aI641
aS'area'
p546
a(lp547
g537
ag546
aaa(lp548
I634
aI641
ag546
a(lp549
g528
ag546
aaa(lp550
I634
aI641
ag546
a(lp551
g519
ag546
aaa(lp552
I634
aI641
ag546
a(lp553
g510
ag546
aaasS'wordMap'
p554
(lp555
(lp556
I0
aI3
ag5
a(lp557
(lp558
I0
aS's'
p559
aa(lp560
I1
aS'e'
p561
aa(lp562
I2
aS'n'
p563
aa(lp564
I3
aS'd'
p565
aaaa(lp566
I5
aI6
aS'to'
p567
a(lp568
(lp569
I5
aS't'
p570
aa(lp571
I6
aS'o'
p572
aaaa(lp573
I8
aI8
aS'a'
p574
a(lp575
(lp576
I8
ag574
aaaa(lp577
I10
aI15
ag15
a(lp578
(lp579
I10
aS'f'
p580
aa(lp581
I11
aS'r'
p582
aa(lp583
I12
aS'i'
p584
aa(lp585
I13
ag561
aa(lp586
I14
ag563
aa(lp587
I15
ag565
aaaa(lp588
I17
aI18
aS'is'
p589
a(lp590
(lp591
I17
ag584
aa(lp592
I18
ag559
aaaa(lp593
I20
aI26
ag24
a(lp594
(lp595
I20
aS'l'
p596
aa(lp597
I21
ag572
aa(lp598
I22
aS'c'
p599
aa(lp600
I23
ag574
aa(lp601
I24
ag570
aa(lp602
I25
ag561
aa(lp603
I26
ag565
aaaa(lp604
I28
aI29
aS'in'
p605
a(lp606
(lp607
I28
ag584
aa(lp608
I29
ag563
aaaa(lp609
I31
aI41
ag33
a(lp610
(lp611
I31
aS'b'
p612
aa(lp613
I32
ag596
aa(lp614
I33
ag572
aa(lp615
I34
ag572
aa(lp616
I35
aS'm'
p617
aa(lp618
I36
ag584
aa(lp619
I37
ag563
aa(lp620
I38
aS'g'
p621
aa(lp622
I39
ag570
aa(lp623
I40
ag572
aa(lp624
I41
ag563
aaaa(lp625
I44
aI51
ag42
a(lp626
(lp627
I44
ag574
aa(lp628
I45
ag596
aa(lp629
I46
ag570
aa(lp630
I47
aS'h'
p631
aa(lp632
I48
ag572
aa(lp633
I49
aS'u'
p634
aa(lp635
I50
ag621
aa(lp636
I51
ag631
aaaa(lp637
I53
aI57
aS'there'
p638
a(lp639
(lp640
I53
ag570
aa(lp641
I54
ag631
aa(lp642
I55
ag561
aa(lp643
I56
ag582
aa(lp644
I57
ag561
aaaa(lp645
I59
aI61
aS'are'
p646
a(lp647
(lp648
I59
ag574
aa(lp649
I60
ag582
aa(lp650
I61
ag561
aaaa(lp651
I63
aI67
ag51
a(lp652
(lp653
I63
ag559
aa(lp654
I64
ag561
aa(lp655
I65
aS'v'
p656
aa(lp657
I66
ag561
aa(lp658
I67
ag563
aaaa(lp659
I69
aI77
ag60
a(lp660
(lp661
I69
ag559
aa(lp662
I70
ag574
aa(lp663
I71
ag570
aa(lp664
I72
ag561
aa(lp665
I73
ag596
aa(lp666
I74
ag596
aa(lp667
I75
ag584
aa(lp668
I76
ag570
aa(lp669
I77
ag561
aaaa(lp670
I79
aI86
ag69
a(lp671
(lp672
I79
ag599
aa(lp673
I80
ag574
aa(lp674
I81
ag617
aa(lp675
I82
aS'p'
p676
aa(lp677
I83
ag634
aa(lp678
I84
ag559
aa(lp679
I85
ag561
aa(lp680
I86
ag559
aaaa(lp681
I88
aI89
aS'in'
p682
a(lp683
(lp684
I88
ag584
aa(lp685
I89
ag563
aaaa(lp686
I91
aI95
aS'other'
p687
a(lp688
(lp689
I91
ag572
aa(lp690
I92
ag570
aa(lp691
I93
ag631
aa(lp692
I94
ag561
aa(lp693
I95
ag582
aaaa(lp694
I97
aI102
ag78
a(lp695
(lp696
I97
ag599
aa(lp697
I98
ag584
aa(lp698
I99
ag570
aa(lp699
I100
ag584
aa(lp700
I101
ag561
aa(lp701
I102
ag559
aaaa(lp702
I104
aI109
ag87
a(lp703
(lp704
I104
ag574
aa(lp705
I105
ag599
aa(lp706
I106
ag582
aa(lp707
I107
ag572
aa(lp708
I108
ag559
aa(lp709
I109
ag559
aaaa(lp710
I111
aI113
aS'the'
p711
a(lp712
(lp713
I111
ag570
aa(lp714
I112
ag631
aa(lp715
I113
ag561
aaaa(lp716
I115
aI119
ag96
a(lp717
(lp718
I115
ag559
aa(lp719
I116
ag570
aa(lp720
I117
ag574
aa(lp721
I118
ag570
aa(lp722
I119
ag561
aaaa(lp723
I122
aI125
ag105
a(lp724
(lp725
I122
ag596
aa(lp726
I123
ag572
aa(lp727
I124
ag563
aa(lp728
I125
ag621
aaaa(lp729
I127
aI131
ag114
a(lp730
(lp731
I127
aS'k'
p732
aa(lp733
I128
ag563
aa(lp734
I129
ag572
aa(lp735
I130
aS'w'
p736
aa(lp737
I131
ag563
aaaa(lp738
I133
aI135
aS'for'
p739
a(lp740
(lp741
I133
ag580
aa(lp742
I134
ag572
aa(lp743
I135
ag582
aaaa(lp744
I137
aI139
aS'its'
p745
a(lp746
(lp747
I137
ag584
aa(lp748
I138
ag570
aa(lp749
I139
ag559
aaaa(lp750
I141
aI150
ag123
a(lp751
(lp752
I141
ag582
aa(lp753
I142
ag561
aa(lp754
I143
ag676
aa(lp755
I144
ag634
aa(lp756
I145
ag570
aa(lp757
I146
ag574
aa(lp758
I147
ag570
aa(lp759
I148
ag584
aa(lp760
I149
ag572
aa(lp761
I150
ag563
aaaa(lp762
I152
aI153
aS'as'
p763
a(lp764
(lp765
I152
ag574
aa(lp766
I153
ag559
aaaa(lp767
I155
aI155
ag574
a(lp768
(lp769
I155
ag574
aaaa(lp770
I157
aI163
ag132
a(lp771
(lp772
I157
ag596
aa(lp773
I158
ag561
aa(lp774
I159
ag574
aa(lp775
I160
ag565
aa(lp776
I161
ag584
aa(lp777
I162
ag563
aa(lp778
I163
ag621
aaaa(lp779
I165
aI172
ag141
a(lp780
(lp781
I165
ag582
aa(lp782
I166
ag561
aa(lp783
I167
ag559
aa(lp784
I168
ag561
aa(lp785
I169
ag574
aa(lp786
I170
ag582
aa(lp787
I171
ag599
aa(lp788
I172
ag631
aaaa(lp789
I174
aI183
ag150
a(lp790
(lp791
I174
ag634
aa(lp792
I175
ag563
aa(lp793
I176
ag584
aa(lp794
I177
ag656
aa(lp795
I178
ag561
aa(lp796
I179
ag582
aa(lp797
I180
ag559
aa(lp798
I181
ag584
aa(lp799
I182
ag570
aa(lp800
I183
aS'y'
p801
aaaa(lp802
I186
aI192
ag159
a(lp803
(lp804
I186
ag584
aa(lp805
I187
ag563
aa(lp806
I188
ag565
aa(lp807
I189
ag584
aa(lp808
I190
ag574
aa(lp809
I191
ag563
aa(lp810
I192
ag574
aaaa(lp811
I194
aI203
ag168
a(lp812
(lp813
I194
ag634
aa(lp814
I195
ag563
aa(lp815
I196
ag584
aa(lp816
I197
ag656
aa(lp817
I198
ag561
aa(lp818
I199
ag582
aa(lp819
I200
ag559
aa(lp820
I201
ag584
aa(lp821
I202
ag570
aa(lp822
I203
ag801
aaaa(lp823
I205
aI207
aS'has'
p824
a(lp825
(lp826
I205
ag631
aa(lp827
I206
ag574
aa(lp828
I207
ag559
aaaa(lp829
I209
aI212
aS'been'
p830
a(lp831
(lp832
I209
ag612
aa(lp833
I210
ag561
aa(lp834
I211
ag561
aa(lp835
I212
ag563
aaaa(lp836
I214
aI218
ag177
a(lp837
(lp838
I214
ag563
aa(lp839
I215
ag574
aa(lp840
I216
ag617
aa(lp841
I217
ag561
aa(lp842
I218
ag565
aaaa(lp843
I220
aI222
aS'the'
p844
a(lp845
(lp846
I220
ag570
aa(lp847
I221
ag631
aa(lp848
I222
ag561
aaaa(lp849
I225
aI231
ag186
a(lp850
(lp851
I225
ag599
aa(lp852
I226
ag572
aa(lp853
I227
ag596
aa(lp854
I228
ag596
aa(lp855
I229
ag561
aa(lp856
I230
ag621
aa(lp857
I231
ag561
aaaa(lp858
I233
aI234
aS'of'
p859
a(lp860
(lp861
I233
ag572
aa(lp862
I234
ag580
aaaa(lp863
I236
aI238
aS'the'
p864
a(lp865
(lp866
I236
ag570
aa(lp867
I237
ag631
aa(lp868
I238
ag561
aaaa(lp869
I240
aI243
ag195
a(lp870
(lp871
I240
ag801
aa(lp872
I241
ag561
aa(lp873
I242
ag574
aa(lp874
I243
ag582
aaaa(lp875
I245
aI249
ag204
a(lp876
(lp877
I245
ag574
aa(lp878
I246
ag617
aa(lp879
I247
ag572
aa(lp880
I248
ag563
aa(lp881
I249
ag621
aaaa(lp882
I251
aI258
ag213
a(lp883
(lp884
I251
ag582
aa(lp885
I252
ag561
aa(lp886
I253
ag559
aa(lp887
I254
ag561
aa(lp888
I255
ag574
aa(lp889
I256
ag582
aa(lp890
I257
ag599
aa(lp891
I258
ag631
aaaa(lp892
I260
aI271
ag222
a(lp893
(lp894
I260
ag634
aa(lp895
I261
ag563
aa(lp896
I262
ag584
aa(lp897
I263
ag656
aa(lp898
I264
ag561
aa(lp899
I265
ag582
aa(lp900
I266
ag559
aa(lp901
I267
ag584
aa(lp902
I268
ag570
aa(lp903
I269
ag584
aa(lp904
I270
ag561
aa(lp905
I271
ag559
aaaa(lp906
I274
aI275
aS'by'
p907
a(lp908
(lp909
I274
ag612
aa(lp910
I275
ag801
aaaa(lp911
I279
aI285
ag231
a(lp912
(lp913
I279
ag580
aa(lp914
I280
ag572
aa(lp915
I281
ag634
aa(lp916
I282
ag563
aa(lp917
I283
ag565
aa(lp918
I284
ag561
aa(lp919
I285
ag565
aaaa(lp920
I287
aI288
aS'in'
p921
a(lp922
(lp923
I287
ag584
aa(lp924
I288
ag563
aaaa(lp925
I290
aI293
ag240
a(lp926
(lp927
I290
aS'1'
p928
aa(lp929
I291
aS'8'
p930
aa(lp931
I292
aS'2'
p932
aa(lp933
I293
aS'0'
p934
aaaa(lp935
I296
aI302
ag249
a(lp936
(lp937
I296
ag584
aa(lp938
I297
ag563
aa(lp939
I298
ag565
aa(lp940
I299
ag584
aa(lp941
I300
ag574
aa(lp942
I301
ag563
aa(lp943
I302
ag574
aaaa(lp944
I304
aI313
ag258
a(lp945
(lp946
I304
ag634
aa(lp947
I305
ag563
aa(lp948
I306
ag584
aa(lp949
I307
ag656
aa(lp950
I308
ag561
aa(lp951
I309
ag582
aa(lp952
I310
ag559
aa(lp953
I311
ag584
aa(lp954
I312
ag570
aa(lp955
I313
ag801
aaaa(lp956
I315
aI316
aS'is'
p957
a(lp958
(lp959
I315
ag584
aa(lp960
I316
ag559
aaaa(lp961
I318
aI320
aS'the'
p962
a(lp963
(lp964
I318
ag570
aa(lp965
I319
ag631
aa(lp966
I320
ag561
aaaa(lp967
I322
aI327
ag267
a(lp968
(lp969
I322
ag572
aa(lp970
I323
ag596
aa(lp971
I324
ag565
aa(lp972
I325
ag561
aa(lp973
I326
ag559
aa(lp974
I327
ag570
aaaa(lp975
I329
aI338
ag276
a(lp976
(lp977
I329
ag634
aa(lp978
I330
ag563
aa(lp979
I331
ag584
aa(lp980
I332
ag656
aa(lp981
I333
ag561
aa(lp982
I334
ag582
aa(lp983
I335
ag559
aa(lp984
I336
ag584
aa(lp985
I337
ag570
aa(lp986
I338
ag801
aaaa(lp987
I340
aI343
ag285
a(lp988
(lp989
I340
ag736
aa(lp990
I341
ag561
aa(lp991
I342
ag559
aa(lp992
I343
ag570
aaaa(lp993
I345
aI346
aS'of'
p994
a(lp995
(lp996
I345
ag572
aa(lp997
I346
ag580
aaaa(lp998
I348
aI350
aS'the'
p999
a(lp1000
(lp1001
I348
ag570
aa(lp1002
I349
ag631
aa(lp1003
I350
ag561
aaaa(lp1004
I352
aI362
ag294
a(lp1005
(lp1006
I352
ag574
aa(lp1007
I353
ag676
aa(lp1008
I354
ag676
aa(lp1009
I355
ag574
aa(lp1010
I356
ag596
aa(lp1011
I357
ag574
aa(lp1012
I358
ag599
aa(lp1013
I359
ag631
aa(lp1014
I360
ag584
aa(lp1015
I361
ag574
aa(lp1016
I362
ag563
aaaa(lp1017
I364
aI372
ag303
a(lp1018
(lp1019
I364
ag617
aa(lp1020
I365
ag572
aa(lp1021
I366
ag634
aa(lp1022
I367
ag563
aa(lp1023
I368
ag570
aa(lp1024
I369
ag574
aa(lp1025
I370
ag584
aa(lp1026
I371
ag563
aa(lp1027
I372
ag559
aaaa(lp1028
I375
aI383
ag312
a(lp1029
(lp1030
I375
ag584
aa(lp1031
I376
ag563
aa(lp1032
I377
ag584
aa(lp1033
I378
ag570
aa(lp1034
I379
ag584
aa(lp1035
I380
ag574
aa(lp1036
I381
ag596
aa(lp1037
I382
ag596
aa(lp1038
I383
ag801
aaaa(lp1039
I385
aI393
ag321
a(lp1040
(lp1041
I385
ag599
aa(lp1042
I386
ag631
aa(lp1043
I387
ag574
aa(lp1044
I388
ag582
aa(lp1045
I389
ag570
aa(lp1046
I390
ag561
aa(lp1047
I391
ag582
aa(lp1048
I392
ag561
aa(lp1049
I393
ag565
aaaa(lp1050
I395
aI396
aS'as'
p1051
a(lp1052
(lp1053
I395
ag574
aa(lp1054
I396
ag559
aaaa(lp1055
I398
aI400
aS'the'
p1056
a(lp1057
(lp1058
I398
ag570
aa(lp1059
I399
ag631
aa(lp1060
I400
ag561
aaaa(lp1061
I402
aI406
ag330
a(lp1062
(lp1063
I402
ag559
aa(lp1064
I403
ag570
aa(lp1065
I404
ag574
aa(lp1066
I405
ag570
aa(lp1067
I406
ag561
aaaa(lp1068
I408
aI415
ag339
a(lp1069
(lp1070
I408
ag559
aa(lp1071
I409
ag561
aa(lp1072
I410
ag617
aa(lp1073
I411
ag584
aa(lp1074
I412
ag563
aa(lp1075
I413
ag574
aa(lp1076
I414
ag582
aa(lp1077
I415
ag801
aaaa(lp1078
I418
aI420
aS'the'
p1079
a(lp1080
(lp1081
I418
ag570
aa(lp1082
I419
ag631
aa(lp1083
I420
ag561
aaaa(lp1084
I422
aI427
ag348
a(lp1085
(lp1086
I422
ag559
aa(lp1087
I423
ag599
aa(lp1088
I424
ag631
aa(lp1089
I425
ag572
aa(lp1090
I426
ag572
aa(lp1091
I427
ag596
aaaa(lp1092
I429
aI434
ag357
a(lp1093
(lp1094
I429
ag612
aa(lp1095
I430
ag561
aa(lp1096
I431
ag599
aa(lp1097
I432
ag574
aa(lp1098
I433
ag617
aa(lp1099
I434
ag561
aaaa(lp1100
I436
aI442
ag366
a(lp1101
(lp1102
I436
ag584
aa(lp1103
I437
ag563
aa(lp1104
I438
ag565
aa(lp1105
I439
ag584
aa(lp1106
I440
ag574
aa(lp1107
I441
ag563
aa(lp1108
I442
ag574
aaaa(lp1109
I444
aI450
ag375
a(lp1110
(lp1111
I444
ag599
aa(lp1112
I445
ag572
aa(lp1113
I446
ag596
aa(lp1114
I447
ag596
aa(lp1115
I448
ag561
aa(lp1116
I449
ag621
aa(lp1117
I450
ag561
aaaa(lp1118
I452
aI453
aS'in'
p1119
a(lp1120
(lp1121
I452
ag584
aa(lp1122
I453
ag563
aaaa(lp1123
I455
aI458
ag384
a(lp1124
(lp1125
I455
ag928
aa(lp1126
I456
ag930
aa(lp1127
I457
ag932
aa(lp1128
I458
ag930
aaaa(lp1129
I461
aI463
aS'and'
p1130
a(lp1131
(lp1132
I461
ag574
aa(lp1133
I462
ag563
aa(lp1134
I463
ag565
aaaa(lp1135
I465
aI471
ag393
a(lp1136
(lp1137
I465
ag580
aa(lp1138
I466
ag584
aa(lp1139
I467
ag563
aa(lp1140
I468
ag574
aa(lp1141
I469
ag596
aa(lp1142
I470
ag596
aa(lp1143
I471
ag801
aaaa(lp1144
I473
aI479
ag402
a(lp1145
(lp1146
I473
ag584
aa(lp1147
I474
ag563
aa(lp1148
I475
ag565
aa(lp1149
I476
ag584
aa(lp1150
I477
ag574
aa(lp1151
I478
ag563
aa(lp1152
I479
ag574
aaaa(lp1153
I481
aI490
ag411
a(lp1154
(lp1155
I481
ag634
aa(lp1156
I482
ag563
aa(lp1157
I483
ag584
aa(lp1158
I484
ag656
aa(lp1159
I485
ag561
aa(lp1160
I486
ag582
aa(lp1161
I487
ag559
aa(lp1162
I488
ag584
aa(lp1163
I489
ag570
aa(lp1164
I490
ag801
aaaa(lp1165
I492
aI493
aS'in'
p1166
a(lp1167
(lp1168
I492
ag584
aa(lp1169
I493
ag563
aaaa(lp1170
I495
aI498
ag420
a(lp1171
(lp1172
I495
ag928
aa(lp1173
I496
ag930
aa(lp1174
I497
aS'3'
p1175
aa(lp1176
I498
ag930
aaaa(lp1177
I501
aI503
aS'the'
p1178
a(lp1179
(lp1180
I501
ag570
aa(lp1181
I502
ag631
aa(lp1182
I503
ag561
aaaa(lp1183
I505
aI515
ag429
a(lp1184
(lp1185
I505
ag612
aa(lp1186
I506
ag596
aa(lp1187
I507
ag572
aa(lp1188
I508
ag572
aa(lp1189
I509
ag617
aa(lp1190
I510
ag584
aa(lp1191
I511
ag563
aa(lp1192
I512
ag621
aa(lp1193
I513
ag570
aa(lp1194
I514
ag572
aa(lp1195
I515
ag563
aaaa(lp1196
I517
aI522
ag438
a(lp1197
(lp1198
I517
ag599
aa(lp1199
I518
ag574
aa(lp1200
I519
ag617
aa(lp1201
I520
ag676
aa(lp1202
I521
ag634
aa(lp1203
I522
ag559
aaaa(lp1204
I524
aI526
aS'has'
p1205
a(lp1206
(lp1207
I524
ag631
aa(lp1208
I525
ag574
aa(lp1209
I526
ag559
aaaa(lp1210
I528
aI528
ag574
a(lp1211
(lp1212
I528
ag574
aaaa(lp1213
I530
aI536
ag447
a(lp1214
(lp1215
I530
ag559
aa(lp1216
I531
ag570
aa(lp1217
I532
ag634
aa(lp1218
I533
ag565
aa(lp1219
I534
ag561
aa(lp1220
I535
ag563
aa(lp1221
I536
ag570
aaaa(lp1222
I538
aI541
ag456
a(lp1223
(lp1224
I538
ag612
aa(lp1225
I539
ag572
aa(lp1226
I540
ag565
aa(lp1227
I541
ag801
aaaa(lp1228
I543
aI544
aS'of'
p1229
a(lp1230
(lp1231
I543
ag572
aa(lp1232
I544
ag580
aaaa(lp1233
I546
aI551
ag465
a(lp1234
(lp1235
I546
ag574
aa(lp1236
I547
ag596
aa(lp1237
I548
ag617
aa(lp1238
I549
ag572
aa(lp1239
I550
ag559
aa(lp1240
I551
ag570
aaaa(lp1241
I553
aI558
ag474
a(lp1242
(lp1243
I553
ag1175
aa(lp1244
I554
ag930
aa(lp1245
I556
ag934
aa(lp1246
I557
ag934
aa(lp1247
I558
ag934
aaaa(lp1248
I560
aI562
aS'and'
p1249
a(lp1250
(lp1251
I560
ag574
aa(lp1252
I561
ag563
aa(lp1253
I562
ag565
aaaa(lp1254
I564
aI565
aS'is'
p1255
a(lp1256
(lp1257
I564
ag584
aa(lp1258
I565
ag559
aaaa(lp1259
I567
aI573
ag483
a(lp1260
(lp1261
I567
ag596
aa(lp1262
I568
ag572
aa(lp1263
I569
ag599
aa(lp1264
I570
ag574
aa(lp1265
I571
ag570
aa(lp1266
I572
ag561
aa(lp1267
I573
ag565
aaaa(lp1268
I575
aI576
aS'on'
p1269
a(lp1270
(lp1271
I575
ag572
aa(lp1272
I576
ag563
aaaa(lp1273
I578
aI582
ag492
a(lp1274
(lp1275
I578
ag928
aa(lp1276
I580
aS'9'
p1277
aa(lp1278
I581
ag1175
aa(lp1279
I582
ag928
aaaa(lp1280
I584
aI588
ag501
a(lp1281
(lp1282
I584
ag574
aa(lp1283
I585
ag599
aa(lp1284
I586
ag582
aa(lp1285
I587
ag561
aa(lp1286
I588
ag559
aaaa(lp1287
I591
aI593
ag510
a(lp1288
(lp1289
I591
aS'7'
p1290
aa(lp1291
I592
ag930
aa(lp1292
I593
ag928
aaaa(lp1293
I595
aI602
ag519
a(lp1294
(lp1295
I595
ag631
aa(lp1296
I596
ag561
aa(lp1297
I597
ag599
aa(lp1298
I598
ag570
aa(lp1299
I599
ag574
aa(lp1300
I600
ag582
aa(lp1301
I601
ag561
aa(lp1302
I602
ag559
aaaa(lp1303
I605
aI608
aS'just'
p1304
a(lp1305
(lp1306
I605
aS'j'
p1307
aa(lp1308
I606
ag634
aa(lp1309
I607
ag559
aa(lp1310
I608
ag570
aaaa(lp1311
I610
aI611
aS'to'
p1312
a(lp1313
(lp1314
I610
ag570
aa(lp1315
I611
ag572
aaaa(lp1316
I613
aI615
aS'the'
p1317
a(lp1318
(lp1319
I613
ag570
aa(lp1320
I614
ag631
aa(lp1321
I615
ag561
aaaa(lp1322
I617
aI625
ag528
a(lp1323
(lp1324
I617
ag563
aa(lp1325
I618
ag572
aa(lp1326
I619
ag582
aa(lp1327
I620
ag570
aa(lp1328
I621
ag631
aa(lp1329
I622
ag561
aa(lp1330
I623
ag574
aa(lp1331
I624
ag559
aa(lp1332
I625
ag570
aaaa(lp1333
I627
aI628
aS'of'
p1334
a(lp1335
(lp1336
I627
ag572
aa(lp1337
I628
ag580
aaaa(lp1338
I630
aI632
aS'the'
p1339
a(lp1340
(lp1341
I630
ag570
aa(lp1342
I631
ag631
aa(lp1343
I632
ag561
aaaa(lp1344
I634
aI641
ag537
a(lp1345
(lp1346
I634
ag565
aa(lp1347
I635
ag572
aa(lp1348
I636
ag736
aa(lp1349
I637
ag563
aa(lp1350
I638
ag570
aa(lp1351
I639
ag572
aa(lp1352
I640
ag736
aa(lp1353
I641
ag563
aaaa(lp1354
I634
aI641
ag546
a(lp1355
(lp1356
I643
ag574
aa(lp1357
I644
ag582
aa(lp1358
I645
ag561
aa(lp1359
I646
ag574
aaaasS'cleanCharacterMap'
p1360
(lp1361
g558
ag560
ag562
ag564
a(lp1362
I4
aS' '
p1363
aag569
ag571
a(lp1364
I7
ag1363
aag576
a(lp1365
I9
ag1363
aag579
ag581
ag583
ag585
ag586
ag587
a(lp1366
I16
ag1363
aag591
ag592
a(lp1367
I19
ag1363
aag595
ag597
ag598
ag600
ag601
ag602
ag603
a(lp1368
I27
ag1363
aag607
ag608
a(lp1369
I30
ag1363
aag611
ag613
ag614
ag615
ag616
ag618
ag619
ag620
ag622
ag623
ag624
a(lp1370
I43
ag1363
aag627
ag628
ag629
ag630
ag632
ag633
ag635
ag636
a(lp1371
I52
ag1363
aag640
ag641
ag642
ag643
ag644
a(lp1372
I58
ag1363
aag648
ag649
ag650
a(lp1373
I62
ag1363
aag653
ag654
ag655
ag657
ag658
a(lp1374
I68
ag1363
aag661
ag662
ag663
ag664
ag665
ag666
ag667
ag668
ag669
a(lp1375
I78
ag1363
aag672
ag673
ag674
ag675
ag677
ag678
ag679
ag680
a(lp1376
I87
ag1363
aag684
ag685
a(lp1377
I90
ag1363
aag689
ag690
ag691
ag692
ag693
a(lp1378
I96
ag1363
aag696
ag697
ag698
ag699
ag700
ag701
a(lp1379
I103
ag1363
aag704
ag705
ag706
ag707
ag708
ag709
a(lp1380
I110
ag1363
aag713
ag714
ag715
a(lp1381
I114
ag1363
aag718
ag719
ag720
ag721
ag722
a(lp1382
I121
ag1363
aag725
ag726
ag727
ag728
a(lp1383
I126
ag1363
aag731
ag733
ag734
ag735
ag737
a(lp1384
I132
ag1363
aag741
ag742
ag743
a(lp1385
I136
ag1363
aag747
ag748
ag749
a(lp1386
I140
ag1363
aag752
ag753
ag754
ag755
ag756
ag757
ag758
ag759
ag760
ag761
a(lp1387
I151
ag1363
aag765
ag766
a(lp1388
I154
ag1363
aag769
a(lp1389
I156
ag1363
aag772
ag773
ag774
ag775
ag776
ag777
ag778
a(lp1390
I164
ag1363
aag781
ag782
ag783
ag784
ag785
ag786
ag787
ag788
a(lp1391
I173
ag1363
aag791
ag792
ag793
ag794
ag795
ag796
ag797
ag798
ag799
ag800
a(lp1392
I185
ag1363
aag804
ag805
ag806
ag807
ag808
ag809
ag810
a(lp1393
I193
ag1363
aag813
ag814
ag815
ag816
ag817
ag818
ag819
ag820
ag821
ag822
a(lp1394
I204
ag1363
aag826
ag827
ag828
a(lp1395
I208
ag1363
aag832
ag833
ag834
ag835
a(lp1396
I213
ag1363
aag838
ag839
ag840
ag841
ag842
a(lp1397
I219
ag1363
aag846
ag847
ag848
a(lp1398
I223
ag1363
aag851
ag852
ag853
ag854
ag855
ag856
ag857
a(lp1399
I232
ag1363
aag861
ag862
a(lp1400
I235
ag1363
aag866
ag867
ag868
a(lp1401
I239
ag1363
aag871
ag872
ag873
ag874
a(lp1402
I244
ag1363
aag877
ag878
ag879
ag880
ag881
a(lp1403
I250
ag1363
aag884
ag885
ag886
ag887
ag888
ag889
ag890
ag891
a(lp1404
I259
ag1363
aag894
ag895
ag896
ag897
ag898
ag899
ag900
ag901
ag902
ag903
ag904
ag905
a(lp1405
I273
ag1363
aag909
ag910
a(lp1406
I276
ag1363
aa(lp1407
I278
ag1363
aag913
ag914
ag915
ag916
ag917
ag918
ag919
a(lp1408
I286
ag1363
aag923
ag924
a(lp1409
I289
ag1363
aag927
ag929
ag931
ag933
a(lp1410
I295
ag1363
aag937
ag938
ag939
ag940
ag941
ag942
ag943
a(lp1411
I303
ag1363
aag946
ag947
ag948
ag949
ag950
ag951
ag952
ag953
ag954
ag955
a(lp1412
I314
ag1363
aag959
ag960
a(lp1413
I317
ag1363
aag964
ag965
ag966
a(lp1414
I321
ag1363
aag969
ag970
ag971
ag972
ag973
ag974
a(lp1415
I328
ag1363
aag977
ag978
ag979
ag980
ag981
ag982
ag983
ag984
ag985
ag986
a(lp1416
I339
ag1363
aag989
ag990
ag991
ag992
a(lp1417
I344
ag1363
aag996
ag997
a(lp1418
I347
ag1363
aag1001
ag1002
ag1003
a(lp1419
I351
ag1363
aag1006
ag1007
ag1008
ag1009
ag1010
ag1011
ag1012
ag1013
ag1014
ag1015
ag1016
a(lp1420
I363
ag1363
aag1019
ag1020
ag1021
ag1022
ag1023
ag1024
ag1025
ag1026
ag1027
a(lp1421
I374
ag1363
aag1030
ag1031
ag1032
ag1033
ag1034
ag1035
ag1036
ag1037
ag1038
a(lp1422
I384
ag1363
aag1041
ag1042
ag1043
ag1044
ag1045
ag1046
ag1047
ag1048
ag1049
a(lp1423
I394
ag1363
aag1053
ag1054
a(lp1424
I397
ag1363
aag1058
ag1059
ag1060
a(lp1425
I401
ag1363
aag1063
ag1064
ag1065
ag1066
ag1067
a(lp1426
I407
ag1363
aag1070
ag1071
ag1072
ag1073
ag1074
ag1075
ag1076
ag1077
a(lp1427
I417
ag1363
aag1081
ag1082
ag1083
a(lp1428
I421
ag1363
aag1086
ag1087
ag1088
ag1089
ag1090
ag1091
a(lp1429
I428
ag1363
aag1094
ag1095
ag1096
ag1097
ag1098
ag1099
a(lp1430
I435
ag1363
aag1102
ag1103
ag1104
ag1105
ag1106
ag1107
ag1108
a(lp1431
I443
ag1363
aag1111
ag1112
ag1113
ag1114
ag1115
ag1116
ag1117
a(lp1432
I451
ag1363
aag1121
ag1122
a(lp1433
I454
ag1363
aag1125
ag1126
ag1127
ag1128
a(lp1434
I460
ag1363
aag1132
ag1133
ag1134
a(lp1435
I464
ag1363
aag1137
ag1138
ag1139
ag1140
ag1141
ag1142
ag1143
a(lp1436
I472
ag1363
aag1146
ag1147
ag1148
ag1149
ag1150
ag1151
ag1152
a(lp1437
I480
ag1363
aag1155
ag1156
ag1157
ag1158
ag1159
ag1160
ag1161
ag1162
ag1163
ag1164
a(lp1438
I491
ag1363
aag1168
ag1169
a(lp1439
I494
ag1363
aag1172
ag1173
ag1174
ag1176
a(lp1440
I500
ag1363
aag1180
ag1181
ag1182
a(lp1441
I504
ag1363
aag1185
ag1186
ag1187
ag1188
ag1189
ag1190
ag1191
ag1192
ag1193
ag1194
ag1195
a(lp1442
I516
ag1363
aag1198
ag1199
ag1200
ag1201
ag1202
ag1203
a(lp1443
I523
ag1363
aag1207
ag1208
ag1209
a(lp1444
I527
ag1363
aag1212
a(lp1445
I529
ag1363
aag1215
ag1216
ag1217
ag1218
ag1219
ag1220
ag1221
a(lp1446
I537
ag1363
aag1224
ag1225
ag1226
ag1227
a(lp1447
I542
ag1363
aag1231
ag1232
a(lp1448
I545
ag1363
aag1235
ag1236
ag1237
ag1238
ag1239
ag1240
a(lp1449
I552
ag1363
aag1243
ag1244
ag1245
ag1246
ag1247
a(lp1450
I559
ag1363
aag1251
ag1252
ag1253
a(lp1451
I563
ag1363
aag1257
ag1258
a(lp1452
I566
ag1363
aag1261
ag1262
ag1263
ag1264
ag1265
ag1266
ag1267
a(lp1453
I574
ag1363
aag1271
ag1272
a(lp1454
I577
ag1363
aag1275
ag1276
ag1278
ag1279
a(lp1455
I583
ag1363
aag1282
ag1283
ag1284
ag1285
ag1286
a(lp1456
I589
ag1363
aag1289
ag1291
ag1292
a(lp1457
I594
ag1363
aag1295
ag1296
ag1297
ag1298
ag1299
ag1300
ag1301
ag1302
a(lp1458
I604
ag1363
aag1306
ag1308
ag1309
ag1310
a(lp1459
I609
ag1363
aag1314
ag1315
a(lp1460
I612
ag1363
aag1319
ag1320
ag1321
a(lp1461
I616
ag1363
aag1324
ag1325
ag1326
ag1327
ag1328
ag1329
ag1330
ag1331
ag1332
a(lp1462
I626
ag1363
aag1336
ag1337
a(lp1463
I629
ag1363
aag1341
ag1342
ag1343
a(lp1464
I633
ag1363
aag1346
ag1347
ag1348
ag1349
ag1350
ag1351
ag1352
ag1353
a(lp1465
I642
ag1363
aag1356
ag1357
ag1358
ag1359
asS'text'
p1466
S'send to a friend is located in bloomington, although there are seven satellite campuses in other cities across the state. long known for its reputation as a leading research university, indiana university has been named the "college of the year among research universities" by . founded in 1820, indiana university is the oldest university west of the appalachian mountains. initially chartered as the state seminary, the school became indiana college in 1828, and finally indiana university in 1838. the bloomington campus has a student body of almost 38,000 and is located on 1,931 acres (781 hectares) just to the northeast of the downtown area.'
p1467
sS'cleanWordMap'
p1468
(lp1469
g556
ag577
ag593
ag609
ag625
ag651
ag659
ag670
ag694
ag702
ag716
ag723
ag729
ag750
ag770
ag779
ag789
ag802
ag811
ag836
ag849
ag869
ag875
ag882
ag892
ag911
ag925
ag935
ag944
ag967
ag975
ag987
ag1004
ag1017
ag1028
ag1039
ag1061
ag1068
ag1084
ag1092
ag1100
ag1109
ag1123
ag1135
ag1144
ag1153
ag1170
ag1183
ag1196
ag1213
ag1222
ag1233
ag1241
ag1259
ag1273
ag1280
ag1287
ag1293
ag1322
ag1344
ag1354
asS'lines'
p1470
(lp1471
VSend to a Friend\u000a
p1472
aVis located in Bloomington, although there are seven satellite campuses in other cities across the state. Long known for its reputation as a leading research university, Indiana University has been named the "College of the Year Among Research Universities" by . Founded in 1820, Indiana University is the oldest university west of the Appalachian Mountains. Initially chartered as the State Seminary, the school became Indiana College in 1828, and finally Indiana University in 1838. The Bloomington campus has a student body of almost 38,000 and is located on 1,931 acres (781 hectares) just to the northeast of the downtown area.
p1473
asS'docType'
p1474
S'src'
p1475
sS'newfmap'
p1476
(lp1477
g4
ag8
ag10
ag12
ag14
ag17
ag19
ag21
ag23
ag26
ag28
ag30
ag32
ag35
ag37
ag39
ag41
ag44
ag46
ag48
ag50
ag53
ag55
ag57
ag59
ag62
ag64
ag66
ag68
ag71
ag73
ag75
ag77
ag80
ag82
ag84
ag86
ag89
ag91
ag93
ag95
ag98
ag100
ag102
ag104
ag107
ag109
ag111
ag113
ag116
ag118
ag120
ag122
ag125
ag127
ag129
ag131
ag134
ag136
ag138
ag140
ag143
ag145
ag147
ag149
ag152
ag154
ag156
ag158
ag161
ag163
ag165
ag167
ag170
ag172
ag174
ag176
ag179
ag181
ag183
ag185
ag188
ag190
ag192
ag194
ag197
ag199
ag201
ag203
ag206
ag208
ag210
ag212
ag215
ag217
ag219
ag221
ag224
ag226
ag228
ag230
ag233
ag235
ag237
ag239
ag242
ag244
ag246
ag248
ag251
ag253
ag255
ag257
ag260
ag262
ag264
ag266
ag269
ag271
ag273
ag275
ag278
ag280
ag282
ag284
ag287
ag289
ag291
ag293
ag296
ag298
ag300
ag302
ag305
ag307
ag309
ag311
ag314
ag316
ag318
ag320
ag323
ag325
ag327
ag329
ag332
ag334
ag336
ag338
ag341
ag343
ag345
ag347
ag350
ag352
ag354
ag356
ag359
ag361
ag363
ag365
ag368
ag370
ag372
ag374
ag377
ag379
ag381
ag383
ag386
ag388
ag390
ag392
ag395
ag397
ag399
ag401
ag404
ag406
ag408
ag410
ag413
ag415
ag417
ag419
ag422
ag424
ag426
ag428
ag431
ag433
ag435
ag437
ag440
ag442
ag444
ag446
ag449
ag451
ag453
ag455
ag458
ag460
ag462
ag464
ag467
ag469
ag471
ag473
ag476
ag478
ag480
ag482
ag485
ag487
ag489
ag491
ag494
ag496
ag498
ag500
ag503
ag505
ag507
ag509
ag512
ag514
ag516
ag518
ag521
ag523
ag525
ag527
ag530
ag532
ag534
ag536
ag539
ag541
ag543
ag545
ag548
ag550
ag552
asS'featureMap'
p1478
(lp1479
(lp1480
I0
aI3
ag5
ag6
ag9
ag11
ag13
aa(lp1481
I10
aI15
ag15
ag16
ag18
ag20
ag22
aa(lp1482
I20
aI26
ag24
ag25
ag27
ag29
ag31
aa(lp1483
I31
aI41
ag33
ag34
ag36
ag38
ag40
aa(lp1484
I44
aI51
ag42
ag43
ag45
ag47
ag49
aa(lp1485
I63
aI67
ag51
ag52
ag54
ag56
ag58
aa(lp1486
I69
aI77
ag60
ag61
ag63
ag65
ag67
aa(lp1487
I79
aI86
ag69
ag70
ag72
ag74
ag76
aa(lp1488
I97
aI102
ag78
ag79
ag81
ag83
ag85
aa(lp1489
I104
aI109
ag87
ag88
ag90
ag92
ag94
aa(lp1490
I115
aI119
ag96
ag97
ag99
ag101
ag103
aa(lp1491
I122
aI125
ag105
ag106
ag108
ag110
ag112
aa(lp1492
I127
aI131
ag114
ag115
ag117
ag119
ag121
aa(lp1493
I141
aI150
ag123
ag124
ag126
ag128
ag130
aa(lp1494
I157
aI163
ag132
ag133
ag135
ag137
ag139
aa(lp1495
I165
aI172
ag141
ag142
ag144
ag146
ag148
aa(lp1496
I174
aI183
ag150
ag151
ag153
ag155
ag157
aa(lp1497
I186
aI192
ag159
ag160
ag162
ag164
ag166
aa(lp1498
I194
aI203
ag168
ag169
ag171
ag173
ag175
aa(lp1499
I214
aI218
ag177
ag178
ag180
ag182
ag184
aa(lp1500
I225
aI231
ag186
ag187
ag189
ag191
ag193
aa(lp1501
I240
aI243
ag195
ag196
ag198
ag200
ag202
aa(lp1502
I245
aI249
ag204
ag205
ag207
ag209
ag211
aa(lp1503
I251
aI258
ag213
ag214
ag216
ag218
ag220
aa(lp1504
I260
aI271
ag222
ag223
ag225
ag227
ag229
aa(lp1505
I279
aI285
ag231
ag232
ag234
ag236
ag238
aa(lp1506
I290
aI293
ag240
ag241
ag243
ag245
ag247
aa(lp1507
I296
aI302
ag249
ag250
ag252
ag254
ag256
aa(lp1508
I304
aI313
ag258
ag259
ag261
ag263
ag265
aa(lp1509
I322
aI327
ag267
ag268
ag270
ag272
ag274
aa(lp1510
I329
aI338
ag276
ag277
ag279
ag281
ag283
aa(lp1511
I340
aI343
ag285
ag286
ag288
ag290
ag292
aa(lp1512
I352
aI362
ag294
ag295
ag297
ag299
ag301
aa(lp1513
I364
aI372
ag303
ag304
ag306
ag308
ag310
aa(lp1514
I375
aI383
ag312
ag313
ag315
ag317
ag319
aa(lp1515
I385
aI393
ag321
ag322
ag324
ag326
ag328
aa(lp1516
I402
aI406
ag330
ag331
ag333
ag335
ag337
aa(lp1517
I408
aI415
ag339
ag340
ag342
ag344
ag346
aa(lp1518
I422
aI427
ag348
ag349
ag351
ag353
ag355
aa(lp1519
I429
aI434
ag357
ag358
ag360
ag362
ag364
aa(lp1520
I436
aI442
ag366
ag367
ag369
ag371
ag373
aa(lp1521
I444
aI450
ag375
ag376
ag378
ag380
ag382
aa(lp1522
I455
aI458
ag384
ag385
ag387
ag389
ag391
aa(lp1523
I465
aI471
ag393
ag394
ag396
ag398
ag400
aa(lp1524
I473
aI479
ag402
ag403
ag405
ag407
ag409
aa(lp1525
I481
aI490
ag411
ag412
ag414
ag416
ag418
aa(lp1526
I495
aI498
ag420
ag421
ag423
ag425
ag427
aa(lp1527
I505
aI515
ag429
ag430
ag432
ag434
ag436
aa(lp1528
I517
aI522
ag438
ag439
ag441
ag443
ag445
aa(lp1529
I530
aI536
ag447
ag448
ag450
ag452
ag454
aa(lp1530
I538
aI541
ag456
ag457
ag459
ag461
ag463
aa(lp1531
I546
aI551
ag465
ag466
ag468
ag470
ag472
aa(lp1532
I553
aI558
ag474
ag475
ag477
ag479
ag481
aa(lp1533
I567
aI573
ag483
ag484
ag486
ag488
ag490
aa(lp1534
I578
aI582
ag492
ag493
ag495
ag497
ag499
aa(lp1535
I584
aI588
ag501
ag502
ag504
ag506
ag508
aa(lp1536
I591
aI593
ag510
ag511
ag513
ag515
ag517
aa(lp1537
I595
aI602
ag519
ag520
ag522
ag524
ag526
aa(lp1538
I617
aI625
ag528
ag529
ag531
ag533
ag535
aa(lp1539
I634
aI641
ag537
ag538
ag540
ag542
ag544
aa(lp1540
I634
aI641
ag546
ag547
ag549
ag551
ag553
aasS'characterMap'
p1541
(lp1542
g558
ag560
ag562
ag564
ag1362
ag569
ag571
ag1364
ag576
ag1365
ag579
ag581
ag583
ag585
ag586
ag587
ag1366
ag591
ag592
ag1367
ag595
ag597
ag598
ag600
ag601
ag602
ag603
ag1368
ag607
ag608
ag1369
ag611
ag613
ag614
ag615
ag616
ag618
ag619
ag620
ag622
ag623
ag624
a(lp1543
I42
aS','
p1544
aag1370
ag627
ag628
ag629
ag630
ag632
ag633
ag635
ag636
ag1371
ag640
ag641
ag642
ag643
ag644
ag1372
ag648
ag649
ag650
ag1373
ag653
ag654
ag655
ag657
ag658
ag1374
ag661
ag662
ag663
ag664
ag665
ag666
ag667
ag668
ag669
ag1375
ag672
ag673
ag674
ag675
ag677
ag678
ag679
ag680
ag1376
ag684
ag685
ag1377
ag689
ag690
ag691
ag692
ag693
ag1378
ag696
ag697
ag698
ag699
ag700
ag701
ag1379
ag704
ag705
ag706
ag707
ag708
ag709
ag1380
ag713
ag714
ag715
ag1381
ag718
ag719
ag720
ag721
ag722
a(lp1545
I120
aS'.'
p1546
aag1382
ag725
ag726
ag727
ag728
ag1383
ag731
ag733
ag734
ag735
ag737
ag1384
ag741
ag742
ag743
ag1385
ag747
ag748
ag749
ag1386
ag752
ag753
ag754
ag755
ag756
ag757
ag758
ag759
ag760
ag761
ag1387
ag765
ag766
ag1388
ag769
ag1389
ag772
ag773
ag774
ag775
ag776
ag777
ag778
ag1390
ag781
ag782
ag783
ag784
ag785
ag786
ag787
ag788
ag1391
ag791
ag792
ag793
ag794
ag795
ag796
ag797
ag798
ag799
ag800
a(lp1547
I184
ag1544
aag1392
ag804
ag805
ag806
ag807
ag808
ag809
ag810
ag1393
ag813
ag814
ag815
ag816
ag817
ag818
ag819
ag820
ag821
ag822
ag1394
ag826
ag827
ag828
ag1395
ag832
ag833
ag834
ag835
ag1396
ag838
ag839
ag840
ag841
ag842
ag1397
ag846
ag847
ag848
ag1398
a(lp1548
I224
aS'"'
p1549
aag851
ag852
ag853
ag854
ag855
ag856
ag857
ag1399
ag861
ag862
ag1400
ag866
ag867
ag868
ag1401
ag871
ag872
ag873
ag874
ag1402
ag877
ag878
ag879
ag880
ag881
ag1403
ag884
ag885
ag886
ag887
ag888
ag889
ag890
ag891
ag1404
ag894
ag895
ag896
ag897
ag898
ag899
ag900
ag901
ag902
ag903
ag904
ag905
a(lp1550
I272
ag1549
aag1405
ag909
ag910
ag1406
a(lp1551
I277
ag1546
aag1407
ag913
ag914
ag915
ag916
ag917
ag918
ag919
ag1408
ag923
ag924
ag1409
ag927
ag929
ag931
ag933
a(lp1552
I294
ag1544
aag1410
ag937
ag938
ag939
ag940
ag941
ag942
ag943
ag1411
ag946
ag947
ag948
ag949
ag950
ag951
ag952
ag953
ag954
ag955
ag1412
ag959
ag960
ag1413
ag964
ag965
ag966
ag1414
ag969
ag970
ag971
ag972
ag973
ag974
ag1415
ag977
ag978
ag979
ag980
ag981
ag982
ag983
ag984
ag985
ag986
ag1416
ag989
ag990
ag991
ag992
ag1417
ag996
ag997
ag1418
ag1001
ag1002
ag1003
ag1419
ag1006
ag1007
ag1008
ag1009
ag1010
ag1011
ag1012
ag1013
ag1014
ag1015
ag1016
ag1420
ag1019
ag1020
ag1021
ag1022
ag1023
ag1024
ag1025
ag1026
ag1027
a(lp1553
I373
ag1546
aag1421
ag1030
ag1031
ag1032
ag1033
ag1034
ag1035
ag1036
ag1037
ag1038
ag1422
ag1041
ag1042
ag1043
ag1044
ag1045
ag1046
ag1047
ag1048
ag1049
ag1423
ag1053
ag1054
ag1424
ag1058
ag1059
ag1060
ag1425
ag1063
ag1064
ag1065
ag1066
ag1067
ag1426
ag1070
ag1071
ag1072
ag1073
ag1074
ag1075
ag1076
ag1077
a(lp1554
I416
ag1544
aag1427
ag1081
ag1082
ag1083
ag1428
ag1086
ag1087
ag1088
ag1089
ag1090
ag1091
ag1429
ag1094
ag1095
ag1096
ag1097
ag1098
ag1099
ag1430
ag1102
ag1103
ag1104
ag1105
ag1106
ag1107
ag1108
ag1431
ag1111
ag1112
ag1113
ag1114
ag1115
ag1116
ag1117
ag1432
ag1121
ag1122
ag1433
ag1125
ag1126
ag1127
ag1128
a(lp1555
I459
ag1544
aag1434
ag1132
ag1133
ag1134
ag1435
ag1137
ag1138
ag1139
ag1140
ag1141
ag1142
ag1143
ag1436
ag1146
ag1147
ag1148
ag1149
ag1150
ag1151
ag1152
ag1437
ag1155
ag1156
ag1157
ag1158
ag1159
ag1160
ag1161
ag1162
ag1163
ag1164
ag1438
ag1168
ag1169
ag1439
ag1172
ag1173
ag1174
ag1176
a(lp1556
I499
ag1546
aag1440
ag1180
ag1181
ag1182
ag1441
ag1185
ag1186
ag1187
ag1188
ag1189
ag1190
ag1191
ag1192
ag1193
ag1194
ag1195
ag1442
ag1198
ag1199
ag1200
ag1201
ag1202
ag1203
ag1443
ag1207
ag1208
ag1209
ag1444
ag1212
ag1445
ag1215
ag1216
ag1217
ag1218
ag1219
ag1220
ag1221
ag1446
ag1224
ag1225
ag1226
ag1227
ag1447
ag1231
ag1232
ag1448
ag1235
ag1236
ag1237
ag1238
ag1239
ag1240
ag1449
ag1243
ag1244
a(lp1557
I555
ag1544
aag1245
ag1246
ag1247
ag1450
ag1251
ag1252
ag1253
ag1451
ag1257
ag1258
ag1452
ag1261
ag1262
ag1263
ag1264
ag1265
ag1266
ag1267
ag1453
ag1271
ag1272
ag1454
ag1275
a(lp1558
I579
ag1544
aag1276
ag1278
ag1279
ag1455
ag1282
ag1283
ag1284
ag1285
ag1286
ag1456
a(lp1559
I590
aS'('
p1560
aag1289
ag1291
ag1292
ag1457
ag1295
ag1296
ag1297
ag1298
ag1299
ag1300
ag1301
ag1302
a(lp1561
I603
aS')'
p1562
aag1458
ag1306
ag1308
ag1309
ag1310
ag1459
ag1314
ag1315
ag1460
ag1319
ag1320
ag1321
ag1461
ag1324
ag1325
ag1326
ag1327
ag1328
ag1329
ag1330
ag1331
ag1332
ag1462
ag1336
ag1337
ag1463
ag1341
ag1342
ag1343
ag1464
ag1346
ag1347
ag1348
ag1349
ag1350
ag1351
ag1352
ag1353
ag1465
ag1356
ag1357
ag1358
ag1359
a(lp1563
I647
ag1546
aasS'docName'
p1564
S'source-document02663.txt'
p1565
sb.