(iModel.Document
Document
p0
(dp1
S'fmap'
p2
(lp3
sS'wordMap'
p4
(lp5
sS'cleanCharacterMap'
p6
(lp7
(lp8
I1
aS' '
p9
aa(lp10
I2
aS'f'
p11
aa(lp12
I3
aS'l'
p13
aa(lp14
I4
aS'a'
p15
aa(lp16
I5
aS'm'
p17
aa(lp18
I6
aS'e'
p19
aa(lp20
I7
ag9
aa(lp21
I8
aS'p'
p22
aa(lp23
I9
aS'r'
p24
aa(lp25
I10
aS'i'
p26
aa(lp27
I11
ag17
aa(lp28
I12
ag15
aa(lp29
I13
ag24
aa(lp30
I14
aS'y'
p31
aa(lp32
I15
ag9
aa(lp33
I16
aS'w'
p34
aa(lp35
I17
ag15
aa(lp36
I18
ag13
aa(lp37
I19
ag13
aa(lp38
I20
ag22
aa(lp39
I21
ag15
aa(lp40
I22
ag22
aa(lp41
I23
ag19
aa(lp42
I24
ag24
aa(lp43
I25
ag9
aa(lp44
I26
aS'b'
p45
aa(lp46
I27
aS'o'
p47
aa(lp48
I28
ag24
aa(lp49
I29
aS'd'
p50
aa(lp51
I30
ag19
aa(lp52
I31
ag24
aa(lp53
I32
ag9
aa(lp54
I33
ag45
aa(lp55
I34
ag31
aa(lp56
I35
ag9
aa(lp57
I36
aS'v'
p58
aa(lp59
I37
ag26
aa(lp60
I38
ag13
aa(lp61
I39
ag13
aa(lp62
I40
ag15
aa(lp63
I41
aS'g'
p64
aa(lp65
I42
ag19
aa(lp66
I43
ag9
aa(lp67
I44
ag26
aa(lp68
I45
aS'n'
p69
aa(lp70
I46
ag9
aa(lp71
I47
aS'c'
p72
aa(lp73
I48
ag47
aa(lp74
I49
ag17
aa(lp75
I50
ag22
aa(lp76
I51
ag13
aa(lp77
I52
ag19
aa(lp78
I53
aS't'
p79
aa(lp80
I54
ag19
aa(lp81
I55
ag13
aa(lp82
I56
ag31
aa(lp83
I57
ag9
aa(lp84
I58
aS'k'
p85
aa(lp86
I59
ag26
aa(lp87
I60
ag50
aa(lp88
I61
aS's'
p89
aa(lp90
I62
ag9
aa(lp91
I63
aS'h'
p92
aa(lp93
I64
ag47
aa(lp94
I65
ag17
aa(lp95
I66
ag19
aa(lp96
I67
ag9
aa(lp97
I68
ag34
aa(lp98
I69
ag15
aa(lp99
I70
ag13
aa(lp100
I71
ag13
aa(lp101
I72
ag22
aa(lp102
I73
ag15
aa(lp103
I74
ag22
aa(lp104
I75
ag19
aa(lp105
I76
ag24
aa(lp106
I77
ag9
aa(lp107
I78
ag45
aa(lp108
I79
ag47
aa(lp109
I80
ag24
aa(lp110
I81
ag50
aa(lp111
I82
ag19
aa(lp112
I83
ag24
aa(lp113
I84
ag89
aa(lp114
I85
ag9
aa(lp115
I87
ag9
aa(lp116
I88
ag85
aa(lp117
I89
ag26
aa(lp118
I90
ag50
aa(lp119
I91
ag89
aa(lp120
I93
aS'j'
p121
aa(lp122
I94
aS'u'
p123
aa(lp124
I95
ag58
aa(lp125
I96
ag19
aa(lp126
I97
ag69
aa(lp127
I98
ag26
aa(lp128
I99
ag13
aa(lp129
I100
ag19
aa(lp130
I101
ag89
aa(lp131
I103
ag79
aa(lp132
I104
ag19
aa(lp133
I105
ag19
aa(lp134
I106
ag69
aa(lp135
I107
ag89
aa(lp136
I108
ag9
aa(lp137
I110
ag9
aa(lp138
I111
ag11
aa(lp139
I112
ag13
aa(lp140
I113
ag15
aa(lp141
I114
ag17
aa(lp142
I115
ag19
aa(lp143
I116
ag9
aa(lp144
I117
ag22
aa(lp145
I118
ag24
aa(lp146
I119
ag26
aa(lp147
I120
ag17
aa(lp148
I121
ag15
aa(lp149
I122
ag24
aa(lp150
I123
ag31
aa(lp151
I124
ag9
aa(lp152
I125
ag34
aa(lp153
I126
ag15
aa(lp154
I127
ag13
aa(lp155
I128
ag13
aa(lp156
I129
ag22
aa(lp157
I130
ag15
aa(lp158
I131
ag22
aa(lp159
I132
ag19
aa(lp160
I133
ag24
aa(lp161
I134
ag9
aa(lp162
I135
ag45
aa(lp163
I136
ag47
aa(lp164
I137
ag24
aa(lp165
I138
ag50
aa(lp166
I139
ag19
aa(lp167
I140
ag24
aa(lp168
I141
ag9
aa(lp169
I142
ag45
aa(lp170
I143
ag31
aa(lp171
I144
ag9
aa(lp172
I145
ag58
aa(lp173
I146
ag26
aa(lp174
I147
ag13
aa(lp175
I148
ag13
aa(lp176
I149
ag15
aa(lp177
I150
ag64
aa(lp178
I151
ag19
aa(lp179
I152
ag9
aa(lp180
I153
ag26
aa(lp181
I154
ag69
aa(lp182
I155
ag9
aa(lp183
I156
ag72
aa(lp184
I157
ag47
aa(lp185
I158
ag17
aa(lp186
I159
ag22
aa(lp187
I160
ag13
aa(lp188
I161
ag19
aa(lp189
I162
ag79
aa(lp190
I163
ag19
aa(lp191
I164
ag13
aa(lp192
I165
ag31
aa(lp193
I166
ag9
aa(lp194
I167
ag85
aa(lp195
I168
ag26
aa(lp196
I169
ag50
aa(lp197
I170
ag89
aa(lp198
I171
ag9
aa(lp199
I172
ag11
aa(lp200
I173
ag13
aa(lp201
I174
ag15
aa(lp202
I175
ag17
aa(lp203
I176
ag19
aa(lp204
I177
ag9
aa(lp205
I178
ag22
aa(lp206
I179
ag24
aa(lp207
I180
ag26
aa(lp208
I181
ag17
aa(lp209
I182
ag15
aa(lp210
I183
ag24
aa(lp211
I184
ag31
aa(lp212
I185
ag9
aa(lp213
I186
ag34
aa(lp214
I187
ag15
aa(lp215
I188
ag13
aa(lp216
I189
ag13
aa(lp217
I190
ag22
aa(lp218
I191
ag15
aa(lp219
I192
ag22
aa(lp220
I193
ag19
aa(lp221
I194
ag24
aa(lp222
I195
ag9
aa(lp223
I196
ag45
aa(lp224
I197
ag47
aa(lp225
I198
ag24
aa(lp226
I199
ag50
aa(lp227
I200
ag19
aa(lp228
I201
ag24
aa(lp229
I203
ag9
aa(lp230
I204
ag58
aa(lp231
I205
ag26
aa(lp232
I206
ag13
aa(lp233
I207
ag13
aa(lp234
I208
ag15
aa(lp235
I209
ag64
aa(lp236
I210
ag19
aa(lp237
I212
ag9
aa(lp238
I213
ag72
aa(lp239
I214
ag47
aa(lp240
I215
ag17
aa(lp241
I216
ag22
aa(lp242
I217
ag13
aa(lp243
I218
ag19
aa(lp244
I219
ag79
aa(lp245
I220
ag19
aa(lp246
I221
ag13
aa(lp247
I222
ag31
aa(lp248
I223
ag9
aa(lp249
I224
ag85
aa(lp250
I225
ag26
aa(lp251
I226
ag50
aa(lp252
I227
ag89
aa(lp253
I229
ag9
aa(lp254
I230
aS'5'
p255
aa(lp256
I231
aS'8'
p257
aa(lp258
I232
aS'1'
p259
aa(lp260
I233
aS'4'
p261
aa(lp262
I234
ag255
aa(lp263
I235
aS'6'
p264
aa(lp265
I236
ag255
aa(lp266
I238
ag9
aa(lp267
I239
ag92
aa(lp268
I240
ag15
aa(lp269
I241
ag89
aa(lp270
I242
ag9
aa(lp271
I243
ag15
aa(lp272
I244
ag9
aa(lp273
I245
ag13
aa(lp274
I246
ag19
aa(lp275
I247
ag69
aa(lp276
I248
ag64
aa(lp277
I249
ag79
aa(lp278
I250
ag92
aa(lp279
I251
ag9
aa(lp280
I252
ag47
aa(lp281
I253
ag11
aa(lp282
I254
ag9
aa(lp283
I255
ag255
aa(lp284
I256
ag9
aa(lp285
I257
ag31
aa(lp286
I258
ag15
aa(lp287
I259
ag24
aa(lp288
I260
ag50
aa(lp289
I261
ag89
aa(lp290
I263
ag9
aa(lp291
I264
ag92
aa(lp292
I265
ag47
aa(lp293
I266
ag24
aa(lp294
I267
ag26
aa(lp295
I268
aS'z'
p296
aa(lp297
I269
ag47
aa(lp298
I270
ag69
aa(lp299
I271
ag79
aa(lp300
I272
ag15
aa(lp301
I273
ag13
aa(lp302
I274
ag9
aa(lp303
I275
ag24
aa(lp304
I276
ag19
aa(lp305
I277
ag22
aa(lp306
I278
ag19
aa(lp307
I279
ag15
aa(lp308
I280
ag79
aa(lp309
I281
ag9
aa(lp310
I282
ag47
aa(lp311
I283
ag11
aa(lp312
I284
ag9
aa(lp313
I285
aS'2'
p314
aa(lp315
I286
aS'0'
p316
aa(lp317
I288
ag255
aa(lp318
I289
ag9
aa(lp319
I290
ag26
aa(lp320
I291
ag69
aa(lp321
I294
ag9
aa(lp322
I295
ag15
aa(lp323
I296
ag69
aa(lp324
I297
ag50
aa(lp325
I298
ag9
aa(lp326
I299
ag15
aa(lp327
I300
ag9
aa(lp328
I301
ag34
aa(lp329
I302
ag26
aa(lp330
I303
ag50
aa(lp331
I304
ag79
aa(lp332
I305
ag92
aa(lp333
I306
ag9
aa(lp334
I307
ag47
aa(lp335
I308
ag11
aa(lp336
I309
ag9
aa(lp337
I310
ag264
aa(lp338
I312
ag257
aa(lp339
I313
aS'7'
p340
aa(lp341
I314
ag255
aa(lp342
I315
ag9
aa(lp343
I316
ag26
aa(lp344
I317
ag69
aa(lp345
I319
ag9
aa(lp346
I320
ag79
aa(lp347
I321
ag92
aa(lp348
I322
ag19
aa(lp349
I323
ag9
aa(lp350
I324
ag45
aa(lp351
I325
ag47
aa(lp352
I326
ag24
aa(lp353
I327
ag50
aa(lp354
I328
ag19
aa(lp355
I329
ag24
aa(lp356
I330
ag9
aa(lp357
I331
ag26
aa(lp358
I332
ag89
aa(lp359
I333
ag9
aa(lp360
I334
ag22
aa(lp361
I335
ag24
aa(lp362
I336
ag19
aa(lp363
I337
ag22
aa(lp364
I338
ag15
aa(lp365
I339
ag89
aa(lp366
I340
ag79
aa(lp367
I341
ag19
aa(lp368
I342
ag50
aa(lp369
I344
ag9
aa(lp370
I345
ag89
aa(lp371
I346
ag72
aa(lp372
I347
ag24
aa(lp373
I348
ag123
aa(lp374
I349
ag45
aa(lp375
I350
ag45
aa(lp376
I351
ag15
aa(lp377
I352
ag45
aa(lp378
I353
ag13
aa(lp379
I354
ag19
aa(lp380
I356
ag9
aa(lp381
I357
ag22
aa(lp382
I358
ag19
aa(lp383
I359
ag19
aa(lp384
I360
ag13
aa(lp385
I361
ag15
aa(lp386
I362
ag45
aa(lp387
I363
ag13
aa(lp388
I364
ag19
aa(lp389
I365
ag9
aa(lp390
I366
ag15
aa(lp391
I367
ag69
aa(lp392
I368
ag50
aa(lp393
I369
ag9
aa(lp394
I370
ag26
aa(lp395
I371
ag89
aa(lp396
I372
ag9
aa(lp397
I373
ag22
aa(lp398
I374
ag15
aa(lp399
I375
ag22
aa(lp400
I376
ag19
aa(lp401
I377
ag24
aa(lp402
I378
ag9
aa(lp403
I379
ag45
aa(lp404
I380
ag15
aa(lp405
I381
ag72
aa(lp406
I382
ag85
aa(lp407
I383
ag19
aa(lp408
I384
ag50
aa(lp409
I385
ag9
aa(lp410
I386
ag58
aa(lp411
I387
ag26
aa(lp412
I388
ag69
aa(lp413
I389
ag31
aa(lp414
I390
ag13
aa(lp415
I392
ag9
aa(lp416
I393
ag123
aa(lp417
I394
ag89
aa(lp418
I395
ag123
aa(lp419
I396
ag15
aa(lp420
I397
ag13
aa(lp421
I398
ag13
aa(lp422
I399
ag31
aa(lp423
I400
ag9
aa(lp424
I401
ag89
aa(lp425
I402
ag92
aa(lp426
I403
ag26
aa(lp427
I404
ag22
aa(lp428
I405
ag89
aa(lp429
I406
ag9
aa(lp430
I407
ag26
aa(lp431
I408
ag69
aa(lp432
I409
ag9
aa(lp433
I410
ag314
aa(lp434
I412
aS'3'
p435
aa(lp436
I413
ag9
aa(lp437
I414
ag45
aa(lp438
I415
ag123
aa(lp439
I416
ag89
aa(lp440
I417
ag26
aa(lp441
I418
ag69
aa(lp442
I419
ag19
aa(lp443
I420
ag89
aa(lp444
I421
ag89
aa(lp445
I422
ag9
aa(lp446
I423
ag50
aa(lp447
I424
ag15
aa(lp448
I425
ag31
aa(lp449
I426
ag89
aa(lp450
I428
ag9
aa(lp451
I429
ag255
aa(lp452
I430
ag257
aa(lp453
I431
ag259
aa(lp454
I432
ag261
aa(lp455
I433
ag255
aa(lp456
I434
ag264
aa(lp457
I435
ag255
aa(lp458
I436
ag24
aa(lp459
I437
ag19
aa(lp460
I438
ag64
aa(lp461
I439
ag123
aa(lp462
I440
ag13
aa(lp463
I441
ag15
aa(lp464
I442
ag24
aa(lp465
I443
ag9
aa(lp466
I444
ag22
aa(lp467
I445
ag24
aa(lp468
I446
ag26
aa(lp469
I447
ag72
aa(lp470
I448
ag19
aa(lp471
I450
ag9
aa(lp472
I452
ag314
aa(lp473
I453
ag257
aa(lp474
I455
aS'9'
p475
aa(lp476
I456
ag475
aa(lp477
I457
ag9
aa(lp478
I458
ag15
aa(lp479
I459
ag58
aa(lp480
I460
ag15
aa(lp481
I461
ag26
aa(lp482
I462
ag13
aa(lp483
I463
ag15
aa(lp484
I464
ag45
aa(lp485
I465
ag26
aa(lp486
I466
ag13
aa(lp487
I467
ag26
aa(lp488
I468
ag79
aa(lp489
I469
ag31
aa(lp490
I471
ag9
aa(lp491
I472
ag11
aa(lp492
I473
ag13
aa(lp493
I474
ag15
aa(lp494
I475
ag17
aa(lp495
I476
ag19
aa(lp496
I477
ag9
aa(lp497
I478
ag22
aa(lp498
I479
ag24
aa(lp499
I480
ag26
aa(lp500
I481
ag17
aa(lp501
I482
ag15
aa(lp502
I483
ag24
aa(lp503
I484
ag31
aa(lp504
I485
ag9
aa(lp505
I486
ag34
aa(lp506
I487
ag15
aa(lp507
I488
ag13
aa(lp508
I489
ag13
aa(lp509
I490
ag22
aa(lp510
I491
ag15
aa(lp511
I492
ag22
aa(lp512
I493
ag19
aa(lp513
I494
ag24
aa(lp514
I495
ag9
aa(lp515
I496
ag45
aa(lp516
I497
ag47
aa(lp517
I498
ag24
aa(lp518
I499
ag50
aa(lp519
I500
ag19
aa(lp520
I501
ag24
aa(lp521
I502
ag9
aa(lp522
I503
ag45
aa(lp523
I504
ag31
aa(lp524
I505
ag9
aa(lp525
I506
ag58
aa(lp526
I507
ag26
aa(lp527
I508
ag13
aa(lp528
I509
ag13
aa(lp529
I510
ag15
aa(lp530
I511
ag64
aa(lp531
I512
ag19
aa(lp532
I513
ag9
aa(lp533
I514
ag26
aa(lp534
I515
ag69
aa(lp535
I516
ag9
aa(lp536
I517
ag72
aa(lp537
I518
ag47
aa(lp538
I519
ag17
aa(lp539
I520
ag22
aa(lp540
I521
ag13
aa(lp541
I522
ag19
aa(lp542
I523
ag79
aa(lp543
I524
ag19
aa(lp544
I525
ag13
aa(lp545
I526
ag31
aa(lp546
I527
ag9
aa(lp547
I528
ag85
aa(lp548
I529
ag26
aa(lp549
I530
ag50
aa(lp550
I531
ag89
aa(lp551
I532
ag9
aa(lp552
I533
ag50
aa(lp553
I534
ag19
aa(lp554
I535
ag72
aa(lp555
I536
ag47
aa(lp556
I537
ag24
aa(lp557
I538
ag15
aa(lp558
I539
ag79
aa(lp559
I540
ag19
aa(lp560
I541
ag79
aa(lp561
I542
ag47
aa(lp562
I543
ag64
aa(lp563
I544
ag47
aa(lp564
I546
ag72
aa(lp565
I547
ag47
aa(lp566
I548
ag17
aa(lp567
I549
ag9
aa(lp568
I550
ag50
aa(lp569
I551
ag26
aa(lp570
I552
ag89
aa(lp571
I553
ag72
aa(lp572
I554
ag47
aa(lp573
I555
ag123
aa(lp574
I556
ag69
aa(lp575
I557
ag79
aa(lp576
I558
ag9
aa(lp577
I559
ag22
aa(lp578
I560
ag24
aa(lp579
I561
ag26
aa(lp580
I562
ag72
aa(lp581
I563
ag19
aa(lp582
I565
ag9
aa(lp583
I566
ag47
aa(lp584
I567
ag69
aa(lp585
I568
ag19
aa(lp586
I569
ag9
aa(lp587
I570
ag11
aa(lp588
I571
ag47
aa(lp589
I572
ag47
aa(lp590
I573
ag79
aa(lp591
I574
ag9
aa(lp592
I575
ag89
aa(lp593
I576
ag15
aa(lp594
I577
ag17
aa(lp595
I578
ag22
aa(lp596
I579
ag13
aa(lp597
I580
ag19
aa(lp598
I581
ag9
aa(lp599
I582
ag47
aa(lp600
I583
ag11
aa(lp601
I584
ag9
aa(lp602
I585
ag15
aa(lp603
I586
ag45
aa(lp604
I587
ag47
aa(lp605
I588
ag58
aa(lp606
I589
ag19
aa(lp607
I590
ag9
aa(lp608
I591
ag34
aa(lp609
I592
ag15
aa(lp610
I593
ag13
aa(lp611
I594
ag13
aa(lp612
I595
ag22
aa(lp613
I596
ag15
aa(lp614
I597
ag22
aa(lp615
I598
ag19
aa(lp616
I599
ag24
aa(lp617
I600
ag9
aa(lp618
I601
ag45
aa(lp619
I602
ag47
aa(lp620
I603
ag24
aa(lp621
I604
ag50
aa(lp622
I605
ag19
aa(lp623
I606
ag24
aa(lp624
I607
ag9
aa(lp625
I608
ag26
aa(lp626
I609
ag69
aa(lp627
I610
ag72
aa(lp628
I611
ag13
aa(lp629
I612
ag123
aa(lp630
I613
ag50
aa(lp631
I614
ag26
aa(lp632
I615
ag69
aa(lp633
I616
ag64
aa(lp634
I617
ag9
aa(lp635
I618
ag89
aa(lp636
I619
ag92
aa(lp637
I620
ag26
aa(lp638
I621
ag22
aa(lp639
I622
ag22
aa(lp640
I623
ag26
aa(lp641
I624
ag69
aa(lp642
I625
ag64
aa(lp643
I627
ag11
aa(lp644
I628
ag13
aa(lp645
I629
ag15
aa(lp646
I630
ag17
aa(lp647
I631
ag19
aa(lp648
I632
ag9
aa(lp649
I633
ag22
aa(lp650
I634
ag24
aa(lp651
I635
ag26
aa(lp652
I636
ag17
aa(lp653
I637
ag15
aa(lp654
I638
ag24
aa(lp655
I639
ag31
aa(lp656
I640
ag9
aa(lp657
I641
ag34
aa(lp658
I642
ag15
aa(lp659
I643
ag13
aa(lp660
I644
ag13
aa(lp661
I645
ag22
aa(lp662
I646
ag15
aa(lp663
I647
ag22
aa(lp664
I648
ag19
aa(lp665
I649
ag24
aa(lp666
I650
ag9
aa(lp667
I651
ag45
aa(lp668
I652
ag47
aa(lp669
I653
ag24
aa(lp670
I654
ag50
aa(lp671
I655
ag19
aa(lp672
I656
ag24
aa(lp673
I657
ag9
aa(lp674
I658
ag47
aa(lp675
I659
ag69
aa(lp676
I660
ag19
aa(lp677
I661
ag9
aa(lp678
I662
ag11
aa(lp679
I663
ag47
aa(lp680
I664
ag47
aa(lp681
I665
ag79
aa(lp682
I666
ag9
aa(lp683
I667
ag89
aa(lp684
I668
ag15
aa(lp685
I669
ag17
aa(lp686
I670
ag22
aa(lp687
I671
ag13
aa(lp688
I672
ag19
aa(lp689
I673
ag9
aa(lp690
I674
ag123
aa(lp691
I675
ag89
aa(lp692
I676
ag123
aa(lp693
I677
ag15
aa(lp694
I678
ag13
aa(lp695
I679
ag13
aa(lp696
I680
ag31
aa(lp697
I681
ag9
aa(lp698
I682
ag89
aa(lp699
I683
ag92
aa(lp700
I684
ag26
aa(lp701
I685
ag22
aa(lp702
I686
ag89
aa(lp703
I687
ag9
aa(lp704
I688
ag26
aa(lp705
I689
ag69
aa(lp706
I690
ag9
aa(lp707
I691
ag314
aa(lp708
I693
ag435
aa(lp709
I694
ag9
aa(lp710
I695
ag45
aa(lp711
I696
ag123
aa(lp712
I697
ag89
aa(lp713
I698
ag26
aa(lp714
I699
ag69
aa(lp715
I700
ag19
aa(lp716
I701
ag89
aa(lp717
I702
ag89
aa(lp718
I703
ag9
aa(lp719
I704
ag50
aa(lp720
I705
ag15
aa(lp721
I706
ag31
aa(lp722
I707
ag89
aa(lp723
I709
ag9
aa(lp724
I710
ag255
aa(lp725
I711
ag257
aa(lp726
I712
ag259
aa(lp727
I713
ag261
aa(lp728
I714
ag255
aa(lp729
I715
ag264
aa(lp730
I716
ag255
aa(lp731
I717
ag89
aa(lp732
I718
ag15
aa(lp733
I719
ag17
aa(lp734
I720
ag22
aa(lp735
I721
ag13
aa(lp736
I722
ag19
aa(lp737
I723
ag9
aa(lp738
I724
ag15
aa(lp739
I725
ag58
aa(lp740
I726
ag15
aa(lp741
I727
ag26
aa(lp742
I728
ag13
aa(lp743
I729
ag15
aa(lp744
I730
ag45
aa(lp745
I731
ag26
aa(lp746
I732
ag13
aa(lp747
I733
ag26
aa(lp748
I734
ag79
aa(lp749
I735
ag31
aasS'text'
p750
S'> flame primary wallpaper border by village in completely kids home wallpaper borders > kids/juveniles/teens > flame primary wallpaper border by village in completely kids flame primary wallpaper border, village, completely kids, 5814565, has a length of 5 yards, horizontal repeat of 20.5 in., and a width of 6.875 in. the border is prepasted, scrubbable, peelable and is paper backed vinyl. usually ships in 2-3 business days. 5814565regular price: $28.99 availability: flame primary wallpaper border by village in completely kids decoratetogo.com discount price: one foot sample of above wallpaper border including shipping.flame primary wallpaper border one foot sample usually ships in 2-3 business days. 5814565sample availability:'
p751
sS'cleanWordMap'
p752
(lp753
sS'lines'
p754
(lp755
V> Flame Primary Wallpaper Border by Village in Completely Kids Home Wallpaper Borders > Kids/Juveniles/Teens >\u000a
p756
aVFlame Primary Wallpaper Border by Village in Completely Kids\u000a
p757
aVFlame Primary wallpaper border, Village, Completely Kids, 5814565, has a length of 5 yards, horizontal repeat of 20.5 in., and a width of 6.875 in. The border is prepasted, scrubbable, peelable and is paper backed vinyl.\u000a
p758
aVUsually ships in 2-3 business days. 5814565Regular Price: $28.99\u000a
p759
aVAvailability:\u000a
p760
aVFlame Primary Wallpaper Border by Village in Completely Kids\u000a
p761
aVDecorateToGo.com Discount Price:\u000a
p762
aVOne foot sample of above wallpaper border including shipping.Flame Primary Wallpaper Border one foot sample\u000a
p763
aVUsually ships in 2-3 business days. 5814565Sample\u000a
p764
aVAvailability:
p765
asS'docType'
p766
S'src'
p767
sS'newfmap'
p768
(lp769
sS'featureMap'
p770
(lp771
sS'characterMap'
p772
(lp773
(lp774
I0
aS'>'
p775
aag8
ag10
ag12
ag14
ag16
ag18
ag20
ag21
ag23
ag25
ag27
ag28
ag29
ag30
ag32
ag33
ag35
ag36
ag37
ag38
ag39
ag40
ag41
ag42
ag43
ag44
ag46
ag48
ag49
ag51
ag52
ag53
ag54
ag55
ag56
ag57
ag59
ag60
ag61
ag62
ag63
ag65
ag66
ag67
ag68
ag70
ag71
ag73
ag74
ag75
ag76
ag77
ag78
ag80
ag81
ag82
ag83
ag84
ag86
ag87
ag88
ag90
ag91
ag93
ag94
ag95
ag96
ag97
ag98
ag99
ag100
ag101
ag102
ag103
ag104
ag105
ag106
ag107
ag108
ag109
ag110
ag111
ag112
ag113
ag114
a(lp776
I86
ag775
aag115
ag116
ag117
ag118
ag119
a(lp777
I92
aS'/'
p778
aag120
ag122
ag124
ag125
ag126
ag127
ag128
ag129
ag130
a(lp779
I102
ag778
aag131
ag132
ag133
ag134
ag135
ag136
a(lp780
I109
ag775
aag137
ag138
ag139
ag140
ag141
ag142
ag143
ag144
ag145
ag146
ag147
ag148
ag149
ag150
ag151
ag152
ag153
ag154
ag155
ag156
ag157
ag158
ag159
ag160
ag161
ag162
ag163
ag164
ag165
ag166
ag167
ag168
ag169
ag170
ag171
ag172
ag173
ag174
ag175
ag176
ag177
ag178
ag179
ag180
ag181
ag182
ag183
ag184
ag185
ag186
ag187
ag188
ag189
ag190
ag191
ag192
ag193
ag194
ag195
ag196
ag197
ag198
ag199
ag200
ag201
ag202
ag203
ag204
ag205
ag206
ag207
ag208
ag209
ag210
ag211
ag212
ag213
ag214
ag215
ag216
ag217
ag218
ag219
ag220
ag221
ag222
ag223
ag224
ag225
ag226
ag227
ag228
a(lp781
I202
aS','
p782
aag229
ag230
ag231
ag232
ag233
ag234
ag235
ag236
a(lp783
I211
ag782
aag237
ag238
ag239
ag240
ag241
ag242
ag243
ag244
ag245
ag246
ag247
ag248
ag249
ag250
ag251
ag252
a(lp784
I228
ag782
aag253
ag254
ag256
ag258
ag260
ag262
ag263
ag265
a(lp785
I237
ag782
aag266
ag267
ag268
ag269
ag270
ag271
ag272
ag273
ag274
ag275
ag276
ag277
ag278
ag279
ag280
ag281
ag282
ag283
ag284
ag285
ag286
ag287
ag288
ag289
a(lp786
I262
ag782
aag290
ag291
ag292
ag293
ag294
ag295
ag297
ag298
ag299
ag300
ag301
ag302
ag303
ag304
ag305
ag306
ag307
ag308
ag309
ag310
ag311
ag312
ag313
ag315
a(lp787
I287
aS'.'
p788
aag317
ag318
ag319
ag320
a(lp789
I292
ag788
aa(lp790
I293
ag782
aag321
ag322
ag323
ag324
ag325
ag326
ag327
ag328
ag329
ag330
ag331
ag332
ag333
ag334
ag335
ag336
ag337
a(lp791
I311
ag788
aag338
ag339
ag341
ag342
ag343
ag344
a(lp792
I318
ag788
aag345
ag346
ag347
ag348
ag349
ag350
ag351
ag352
ag353
ag354
ag355
ag356
ag357
ag358
ag359
ag360
ag361
ag362
ag363
ag364
ag365
ag366
ag367
ag368
a(lp793
I343
ag782
aag369
ag370
ag371
ag372
ag373
ag374
ag375
ag376
ag377
ag378
ag379
a(lp794
I355
ag782
aag380
ag381
ag382
ag383
ag384
ag385
ag386
ag387
ag388
ag389
ag390
ag391
ag392
ag393
ag394
ag395
ag396
ag397
ag398
ag399
ag400
ag401
ag402
ag403
ag404
ag405
ag406
ag407
ag408
ag409
ag410
ag411
ag412
ag413
ag414
a(lp795
I391
ag788
aag415
ag416
ag417
ag418
ag419
ag420
ag421
ag422
ag423
ag424
ag425
ag426
ag427
ag428
ag429
ag430
ag431
ag432
ag433
a(lp796
I411
aS'-'
p797
aag434
ag436
ag437
ag438
ag439
ag440
ag441
ag442
ag443
ag444
ag445
ag446
ag447
ag448
ag449
a(lp798
I427
ag788
aag450
ag451
ag452
ag453
ag454
ag455
ag456
ag457
ag458
ag459
ag460
ag461
ag462
ag463
ag464
ag465
ag466
ag467
ag468
ag469
ag470
a(lp799
I449
aS':'
p800
aag471
a(lp801
I451
aS'$'
p802
aag472
ag473
a(lp803
I454
ag788
aag474
ag476
ag477
ag478
ag479
ag480
ag481
ag482
ag483
ag484
ag485
ag486
ag487
ag488
ag489
a(lp804
I470
ag800
aag490
ag491
ag492
ag493
ag494
ag495
ag496
ag497
ag498
ag499
ag500
ag501
ag502
ag503
ag504
ag505
ag506
ag507
ag508
ag509
ag510
ag511
ag512
ag513
ag514
ag515
ag516
ag517
ag518
ag519
ag520
ag521
ag522
ag523
ag524
ag525
ag526
ag527
ag528
ag529
ag530
ag531
ag532
ag533
ag534
ag535
ag536
ag537
ag538
ag539
ag540
ag541
ag542
ag543
ag544
ag545
ag546
ag547
ag548
ag549
ag550
ag551
ag552
ag553
ag554
ag555
ag556
ag557
ag558
ag559
ag560
ag561
ag562
ag563
a(lp805
I545
ag788
aag564
ag565
ag566
ag567
ag568
ag569
ag570
ag571
ag572
ag573
ag574
ag575
ag576
ag577
ag578
ag579
ag580
ag581
a(lp806
I564
ag800
aag582
ag583
ag584
ag585
ag586
ag587
ag588
ag589
ag590
ag591
ag592
ag593
ag594
ag595
ag596
ag597
ag598
ag599
ag600
ag601
ag602
ag603
ag604
ag605
ag606
ag607
ag608
ag609
ag610
ag611
ag612
ag613
ag614
ag615
ag616
ag617
ag618
ag619
ag620
ag621
ag622
ag623
ag624
ag625
ag626
ag627
ag628
ag629
ag630
ag631
ag632
ag633
ag634
ag635
ag636
ag637
ag638
ag639
ag640
ag641
ag642
a(lp807
I626
ag788
aag643
ag644
ag645
ag646
ag647
ag648
ag649
ag650
ag651
ag652
ag653
ag654
ag655
ag656
ag657
ag658
ag659
ag660
ag661
ag662
ag663
ag664
ag665
ag666
ag667
ag668
ag669
ag670
ag671
ag672
ag673
ag674
ag675
ag676
ag677
ag678
ag679
ag680
ag681
ag682
ag683
ag684
ag685
ag686
ag687
ag688
ag689
ag690
ag691
ag692
ag693
ag694
ag695
ag696
ag697
ag698
ag699
ag700
ag701
ag702
ag703
ag704
ag705
ag706
ag707
a(lp808
I692
ag797
aag708
ag709
ag710
ag711
ag712
ag713
ag714
ag715
ag716
ag717
ag718
ag719
ag720
ag721
ag722
a(lp809
I708
ag788
aag723
ag724
ag725
ag726
ag727
ag728
ag729
ag730
ag731
ag732
ag733
ag734
ag735
ag736
ag737
ag738
ag739
ag740
ag741
ag742
ag743
ag744
ag745
ag746
ag747
ag748
ag749
a(lp810
I736
ag800
aasS'docName'
p811
S'source-document02308.txt'
p812
sb.