(iModel.Document
Document
p0
(dp1
S'fmap'
p2
(lp3
(lp4
I1
aI8
aS'trombone'
p5
a(lp6
S'*'
p7
ag5
aaa(lp8
I1
aI8
ag5
a(lp9
g7
ag5
aaa(lp10
I1
aI8
ag5
a(lp11
g7
ag5
aaa(lp12
I1
aI8
ag5
a(lp13
g7
ag5
aaa(lp14
I10
aI13
aS'tips'
p15
a(lp16
g5
ag15
aaa(lp17
I10
aI13
ag15
a(lp18
g7
ag15
aaa(lp19
I10
aI13
ag15
a(lp20
g7
ag15
aaa(lp21
I10
aI13
ag15
a(lp22
g7
ag15
aaa(lp23
I17
aI21
aS'learn'
p24
a(lp25
g15
ag24
aaa(lp26
I17
aI21
ag24
a(lp27
g5
ag24
aaa(lp28
I17
aI21
ag24
a(lp29
g7
ag24
aaa(lp30
I17
aI21
ag24
a(lp31
g7
ag24
aaa(lp32
I26
aI33
aS'practice'
p33
a(lp34
g24
ag33
aaa(lp35
I26
aI33
ag33
a(lp36
g15
ag33
aaa(lp37
I26
aI33
ag33
a(lp38
g5
ag33
aaa(lp39
I26
aI33
ag33
a(lp40
g7
ag33
aaa(lp41
I35
aI37
aS'\xe2\x80\x93'
p42
a(lp43
g33
ag42
aaa(lp44
I35
aI37
ag42
a(lp45
g24
ag42
aaa(lp46
I35
aI37
ag42
a(lp47
g15
ag42
aaa(lp48
I35
aI37
ag42
a(lp49
g5
ag42
aaa(lp50
I39
aI42
aS'step'
p51
a(lp52
g42
ag51
aaa(lp53
I39
aI42
ag51
a(lp54
g33
ag51
aaa(lp55
I39
aI42
ag51
a(lp56
g24
ag51
aaa(lp57
I39
aI42
ag51
a(lp58
g15
ag51
aaa(lp59
I44
aI44
aS'1'
p60
a(lp61
g51
ag60
aaa(lp62
I44
aI44
ag60
a(lp63
g42
ag60
aaa(lp64
I44
aI44
ag60
a(lp65
g33
ag60
aaa(lp66
I44
aI44
ag60
a(lp67
g24
ag60
aaa(lp68
I47
aI49
aS'say'
p69
a(lp70
g60
ag69
aaa(lp71
I47
aI49
ag69
a(lp72
g51
ag69
aaa(lp73
I47
aI49
ag69
a(lp74
g42
ag69
aaa(lp75
I47
aI49
ag69
a(lp76
g33
ag69
aaa(lp77
I54
aI59
aS'rhythm'
p78
a(lp79
g69
ag78
aaa(lp80
I54
aI59
ag78
a(lp81
g60
ag78
aaa(lp82
I54
aI59
ag78
a(lp83
g51
ag78
aaa(lp84
I54
aI59
ag78
a(lp85
g42
ag78
aaa(lp86
I62
aI65
aS'stay'
p87
a(lp88
g78
ag87
aaa(lp89
I62
aI65
ag87
a(lp90
g69
ag87
aaa(lp91
I62
aI65
ag87
a(lp92
g60
ag87
aaa(lp93
I62
aI65
ag87
a(lp94
g51
ag87
aaa(lp95
I70
aI75
aS'rhythm'
p96
a(lp97
g87
ag96
aaa(lp98
I70
aI75
ag96
a(lp99
g78
ag96
aaa(lp100
I70
aI75
ag96
a(lp101
g69
ag96
aaa(lp102
I70
aI75
ag96
a(lp103
g60
ag96
aaa(lp104
I87
aI91
aS'first'
p105
a(lp106
g96
ag105
aaa(lp107
I87
aI91
ag105
a(lp108
g87
ag105
aaa(lp109
I87
aI91
ag105
a(lp110
g78
ag105
aaa(lp111
I87
aI91
ag105
a(lp112
g69
ag105
aaa(lp113
I93
aI100
aS'practice'
p114
a(lp115
g105
ag114
aaa(lp116
I93
aI100
ag114
a(lp117
g96
ag114
aaa(lp118
I93
aI100
ag114
a(lp119
g87
ag114
aaa(lp120
I93
aI100
ag114
a(lp121
g78
ag114
aaa(lp122
I107
aI111
aS'music'
p123
a(lp124
g114
ag123
aaa(lp125
I107
aI111
ag123
a(lp126
g105
ag123
aaa(lp127
I107
aI111
ag123
a(lp128
g96
ag123
aaa(lp129
I107
aI111
ag123
a(lp130
g87
ag123
aaa(lp131
I118
aI121
aS'need'
p132
a(lp133
g123
ag132
aaa(lp134
I118
aI121
ag132
a(lp135
g114
ag132
aaa(lp136
I118
aI121
ag132
a(lp137
g105
ag132
aaa(lp138
I118
aI121
ag132
a(lp139
g96
ag132
aaa(lp140
I126
aI129
aS'know'
p141
a(lp142
g132
ag141
aaa(lp143
I126
aI129
ag141
a(lp144
g123
ag141
aaa(lp145
I126
aI129
ag141
a(lp146
g114
ag141
aaa(lp147
I126
aI129
ag141
a(lp148
g105
ag141
aaa(lp149
I139
aI144
aS'rhythm'
p150
a(lp151
g141
ag150
aaa(lp152
I139
aI144
ag150
a(lp153
g132
ag150
aaa(lp154
I139
aI144
ag150
a(lp155
g123
ag150
aaa(lp156
I139
aI144
ag150
a(lp157
g114
ag150
aaa(lp158
I146
aI151
aS'sounds'
p159
a(lp160
g150
ag159
aaa(lp161
I146
aI151
ag159
a(lp162
g141
ag159
aaa(lp163
I146
aI151
ag159
a(lp164
g132
ag159
aaa(lp165
I146
aI151
ag159
a(lp166
g123
ag159
aaa(lp167
I167
aI174
aS'anything'
p168
a(lp169
g159
ag168
aaa(lp170
I167
aI174
ag168
a(lp171
g150
ag168
aaa(lp172
I167
aI174
ag168
a(lp173
g141
ag168
aaa(lp174
I167
aI174
ag168
a(lp175
g132
ag168
aaa(lp176
I176
aI179
aS'else'
p177
a(lp178
g168
ag177
aaa(lp179
I176
aI179
ag177
a(lp180
g159
ag177
aaa(lp181
I176
aI179
ag177
a(lp182
g150
ag177
aaa(lp183
I176
aI179
ag177
a(lp184
g141
ag177
aaa(lp185
I185
aI189
aS'music'
p186
a(lp187
g177
ag186
aaa(lp188
I185
aI189
ag186
a(lp189
g168
ag186
aaa(lp190
I185
aI189
ag186
a(lp191
g159
ag186
aaa(lp192
I185
aI189
ag186
a(lp193
g150
ag186
aaa(lp194
I192
aI201
aS'everything'
p195
a(lp196
g186
ag195
aaa(lp197
I192
aI201
ag195
a(lp198
g177
ag195
aaa(lp199
I192
aI201
ag195
a(lp200
g168
ag195
aaa(lp201
I192
aI201
ag195
a(lp202
g159
ag195
aaa(lp203
I203
aI207
aS'meets'
p204
a(lp205
g195
ag204
aaa(lp206
I203
aI207
ag204
a(lp207
g186
ag204
aaa(lp208
I203
aI207
ag204
a(lp209
g177
ag204
aaa(lp210
I203
aI207
ag204
a(lp211
g168
ag204
aaa(lp212
I216
aI221
aS'rhythm'
p213
a(lp214
g204
ag213
aaa(lp215
I216
aI221
ag213
a(lp216
g195
ag213
aaa(lp217
I216
aI221
ag213
a(lp218
g186
ag213
aaa(lp219
I216
aI221
ag213
a(lp220
g177
ag213
aaa(lp221
I229
aI233
aS'means'
p222
a(lp223
g213
ag222
aaa(lp224
I229
aI233
ag222
a(lp225
g204
ag222
aaa(lp226
I229
aI233
ag222
a(lp227
g195
ag222
aaa(lp228
I229
aI233
ag222
a(lp229
g186
ag222
aaa(lp230
I240
aI249
aS'everything'
p231
a(lp232
g222
ag231
aaa(lp233
I240
aI249
ag231
a(lp234
g213
ag231
aaa(lp235
I240
aI249
ag231
a(lp236
g204
ag231
aaa(lp237
I240
aI249
ag231
a(lp238
g195
ag231
aaa(lp239
I255
aI258
aS'must'
p240
a(lp241
g231
ag240
aaa(lp242
I255
aI258
ag240
a(lp243
g222
ag240
aaa(lp244
I255
aI258
ag240
a(lp245
g213
ag240
aaa(lp246
I255
aI258
ag240
a(lp247
g204
ag240
aaa(lp248
I266
aI269
aS'play'
p249
a(lp250
g240
ag249
aaa(lp251
I266
aI269
ag249
a(lp252
g231
ag249
aaa(lp253
I266
aI269
ag249
a(lp254
g222
ag249
aaa(lp255
I266
aI269
ag249
a(lp256
g213
ag249
aaa(lp257
I271
aI275
aS'music'
p258
a(lp259
g249
ag258
aaa(lp260
I271
aI275
ag258
a(lp261
g240
ag258
aaa(lp262
I271
aI275
ag258
a(lp263
g231
ag258
aaa(lp264
I271
aI275
ag258
a(lp265
g222
ag258
aaa(lp266
I283
aI292
aS'instrument'
p267
a(lp268
g258
ag267
aaa(lp269
I283
aI292
ag267
a(lp270
g249
ag267
aaa(lp271
I283
aI292
ag267
a(lp272
g240
ag267
aaa(lp273
I283
aI292
ag267
a(lp274
g231
ag267
aaa(lp275
I298
aI301
aS'must'
p276
a(lp277
g267
ag276
aaa(lp278
I298
aI301
ag276
a(lp279
g258
ag276
aaa(lp280
I298
aI301
ag276
a(lp281
g249
ag276
aaa(lp282
I298
aI301
ag276
a(lp283
g240
ag276
aaa(lp284
I303
aI307
aS'learn'
p285
a(lp286
g276
ag285
aaa(lp287
I303
aI307
ag285
a(lp288
g267
ag285
aaa(lp289
I303
aI307
ag285
a(lp290
g258
ag285
aaa(lp291
I303
aI307
ag285
a(lp292
g249
ag285
aaa(lp293
I318
aI323
aS'rhythm'
p294
a(lp295
g285
ag294
aaa(lp296
I318
aI323
ag294
a(lp297
g276
ag294
aaa(lp298
I318
aI323
ag294
a(lp299
g267
ag294
aaa(lp300
I318
aI323
ag294
a(lp301
g258
ag294
aaa(lp302
I330
aI335
aS'steady'
p303
a(lp304
g294
ag303
aaa(lp305
I330
aI335
ag303
a(lp306
g285
ag303
aaa(lp307
I330
aI335
ag303
a(lp308
g276
ag303
aaa(lp309
I330
aI335
ag303
a(lp310
g267
ag303
aaa(lp311
I337
aI341
aS'tempo'
p312
a(lp313
g303
ag312
aaa(lp314
I337
aI341
ag312
a(lp315
g294
ag312
aaa(lp316
I337
aI341
ag312
a(lp317
g285
ag312
aaa(lp318
I337
aI341
ag312
a(lp319
g276
ag312
aaa(lp320
I348
aI352
aS'first'
p321
a(lp322
g312
ag321
aaa(lp323
I348
aI352
ag321
a(lp324
g303
ag321
aaa(lp325
I348
aI352
ag321
a(lp326
g294
ag321
aaa(lp327
I348
aI352
ag321
a(lp328
g285
ag321
aaa(lp329
I354
aI357
aS'step'
p330
a(lp331
g321
ag330
aaa(lp332
I354
aI357
ag330
a(lp333
g312
ag330
aaa(lp334
I354
aI357
ag330
a(lp335
g303
ag330
aaa(lp336
I354
aI357
ag330
a(lp337
g294
ag330
aaa(lp338
I365
aI370
aS'figure'
p339
a(lp340
g330
ag339
aaa(lp341
I365
aI370
ag339
a(lp342
g321
ag339
aaa(lp343
I365
aI370
ag339
a(lp344
g312
ag339
aaa(lp345
I365
aI370
ag339
a(lp346
g303
ag339
aaa(lp347
I384
aI389
aS'rhythm'
p348
a(lp349
g339
ag348
aaa(lp350
I384
aI389
ag348
a(lp351
g330
ag348
aaa(lp352
I384
aI389
ag348
a(lp353
g321
ag348
aaa(lp354
I384
aI389
ag348
a(lp355
g312
ag348
aaa(lp356
I391
aI394
aS'goes'
p357
a(lp358
g348
ag357
aaa(lp359
I391
aI394
ag357
a(lp360
g339
ag357
aaa(lp361
I391
aI394
ag357
a(lp362
g330
ag357
aaa(lp363
I391
aI394
ag357
a(lp364
g321
ag357
aaa(lp365
I397
aI399
aS'try'
p366
a(lp367
g357
ag366
aaa(lp368
I397
aI399
ag366
a(lp369
g348
ag366
aaa(lp370
I397
aI399
ag366
a(lp371
g339
ag366
aaa(lp372
I397
aI399
ag366
a(lp373
g330
ag366
aaa(lp374
I401
aI406
aS'saying'
p375
a(lp376
g366
ag375
aaa(lp377
I401
aI406
ag375
a(lp378
g357
ag375
aaa(lp379
I401
aI406
ag375
a(lp380
g348
ag375
aaa(lp381
I401
aI406
ag375
a(lp382
g339
ag375
aaa(lp383
I412
aI417
aS'rhythm'
p384
a(lp385
g375
ag384
aaa(lp386
I412
aI417
ag384
a(lp387
g366
ag384
aaa(lp388
I412
aI417
ag384
a(lp389
g357
ag384
aaa(lp390
I412
aI417
ag384
a(lp391
g348
ag384
aaa(lp392
I423
aI426
aS'loud'
p393
a(lp394
g384
ag393
aaa(lp395
I423
aI426
ag393
a(lp396
g375
ag393
aaa(lp397
I423
aI426
ag393
a(lp398
g366
ag393
aaa(lp399
I423
aI426
ag393
a(lp400
g357
ag393
aaa(lp401
I431
aI433
aS'tah'
p402
a(lp403
g393
ag402
aaa(lp404
I431
aI433
ag402
a(lp405
g384
ag402
aaa(lp406
I431
aI433
ag402
a(lp407
g375
ag402
aaa(lp408
I431
aI433
ag402
a(lp409
g366
ag402
aaa(lp410
I444
aI446
aS'toh'
p411
a(lp412
g402
ag411
aaa(lp413
I444
aI446
ag411
a(lp414
g393
ag411
aaa(lp415
I444
aI446
ag411
a(lp416
g384
ag411
aaa(lp417
I444
aI446
ag411
a(lp418
g375
ag411
aaa(lp419
I449
aI457
aS'whichever'
p420
a(lp421
g411
ag420
aaa(lp422
I449
aI457
ag420
a(lp423
g402
ag420
aaa(lp424
I449
aI457
ag420
a(lp425
g393
ag420
aaa(lp426
I449
aI457
ag420
a(lp427
g384
ag420
aaa(lp428
I463
aI465
aS'use'
p429
a(lp430
g420
ag429
aaa(lp431
I463
aI465
ag429
a(lp432
g411
ag429
aaa(lp433
I463
aI465
ag429
a(lp434
g402
ag429
aaa(lp435
I463
aI465
ag429
a(lp436
g393
ag429
aaa(lp437
I468
aI471
aS'keep'
p438
a(lp439
g429
ag438
aaa(lp440
I468
aI471
ag438
a(lp441
g420
ag438
aaa(lp442
I468
aI471
ag438
a(lp443
g411
ag438
aaa(lp444
I468
aI471
ag438
a(lp445
g402
ag438
aaa(lp446
I477
aI481
aS'tempo'
p447
a(lp448
g438
ag447
aaa(lp449
I477
aI481
ag447
a(lp450
g429
ag447
aaa(lp451
I477
aI481
ag447
a(lp452
g420
ag447
aaa(lp453
I477
aI481
ag447
a(lp454
g411
ag447
aaa(lp455
I483
aI488
aS'steady'
p456
a(lp457
g447
ag456
aaa(lp458
I483
aI488
ag456
a(lp459
g438
ag456
aaa(lp460
I483
aI488
ag456
a(lp461
g429
ag456
aaa(lp462
I483
aI488
ag456
a(lp463
g420
ag456
aaa(lp464
I494
aI496
aS'say'
p465
a(lp466
g456
ag465
aaa(lp467
I494
aI496
ag465
a(lp468
g447
ag465
aaa(lp469
I494
aI496
ag465
a(lp470
g438
ag465
aaa(lp471
I494
aI496
ag465
a(lp472
g429
ag465
aaa(lp473
I502
aI507
aS'rhythm'
p474
a(lp475
g465
ag474
aaa(lp476
I502
aI507
ag474
a(lp477
g456
ag474
aaa(lp478
I502
aI507
ag474
a(lp479
g447
ag474
aaa(lp480
I502
aI507
ag474
a(lp481
g438
ag474
aaa(lp482
I514
aI517
aS'like'
p483
a(lp484
g474
ag483
aaa(lp485
I514
aI517
ag483
a(lp486
g465
ag483
aaa(lp487
I514
aI517
ag483
a(lp488
g456
ag483
aaa(lp489
I514
aI517
ag483
a(lp490
g447
ag483
aaa(lp491
I523
aI527
aS'would'
p492
a(lp493
g483
ag492
aaa(lp494
I523
aI527
ag492
a(lp495
g474
ag492
aaa(lp496
I523
aI527
ag492
a(lp497
g465
ag492
aaa(lp498
I523
aI527
ag492
a(lp499
g456
ag492
aaa(lp500
I529
aI532
aS'play'
p501
a(lp502
g492
ag501
aaa(lp503
I529
aI532
ag501
a(lp504
g483
ag501
aaa(lp505
I529
aI532
ag501
a(lp506
g474
ag501
aaa(lp507
I529
aI532
ag501
a(lp508
g465
ag501
aaa(lp509
I550
aI556
aS'trouble'
p510
a(lp511
g501
ag510
aaa(lp512
I550
aI556
ag510
a(lp513
g492
ag510
aaa(lp514
I550
aI556
ag510
a(lp515
g483
ag510
aaa(lp516
I550
aI556
ag510
a(lp517
g474
ag510
aaa(lp518
I566
aI571
aS'places'
p519
a(lp520
g510
ag519
aaa(lp521
I566
aI571
ag519
a(lp522
g501
ag519
aaa(lp523
I566
aI571
ag519
a(lp524
g492
ag519
aaa(lp525
I566
aI571
ag519
a(lp526
g483
ag519
aaa(lp527
I574
aI576
aS'see'
p528
a(lp529
g519
ag528
aaa(lp530
I574
aI576
ag528
a(lp531
g510
ag528
aaa(lp532
I574
aI576
ag528
a(lp533
g501
ag528
aaa(lp534
I574
aI576
ag528
a(lp535
g492
ag528
aaa(lp536
I586
aI592
aS'rhythms'
p537
a(lp538
g528
ag537
aaa(lp539
I586
aI592
ag537
a(lp540
g519
ag537
aaa(lp541
I586
aI592
ag537
a(lp542
g510
ag537
aaa(lp543
I586
aI592
ag537
a(lp544
g501
ag537
aaa(lp545
I594
aI596
aS'add'
p546
a(lp547
g537
ag546
aaa(lp548
I594
aI596
ag546
a(lp549
g528
ag546
aaa(lp550
I594
aI596
ag546
a(lp551
g519
ag546
aaa(lp552
I594
aI596
ag546
a(lp553
g510
ag546
aaa(lp554
I608
aI612
aS'beats'
p555
a(lp556
g546
ag555
aaa(lp557
I608
aI612
ag555
a(lp558
g537
ag555
aaa(lp559
I608
aI612
ag555
a(lp560
g528
ag555
aaa(lp561
I608
aI612
ag555
a(lp562
g519
ag555
aaa(lp563
I622
aI628
aS'measure'
p564
a(lp565
g555
ag564
aaa(lp566
I622
aI628
ag564
a(lp567
g546
ag564
aaa(lp568
I622
aI628
ag564
a(lp569
g537
ag564
aaa(lp570
I622
aI628
ag564
a(lp571
g528
ag564
aaa(lp572
I636
aI641
aS'rhythm'
p573
a(lp574
g564
ag573
aaa(lp575
I636
aI641
ag573
a(lp576
g555
ag573
aaa(lp577
I636
aI641
ag573
a(lp578
g546
ag573
aaa(lp579
I636
aI641
ag573
a(lp580
g537
ag573
aaa(lp581
I643
aI646
aS'uses'
p582
a(lp583
g573
ag582
aaa(lp584
I643
aI646
ag582
a(lp585
g564
ag582
aaa(lp586
I643
aI646
ag582
a(lp587
g555
ag582
aaa(lp588
I643
aI646
ag582
a(lp589
g546
ag582
aaa(lp590
I651
aI654
aS'beat'
p591
a(lp592
g582
ag591
aaa(lp593
I651
aI654
ag591
a(lp594
g573
ag591
aaa(lp595
I651
aI654
ag591
a(lp596
g564
ag591
aaa(lp597
I651
aI654
ag591
a(lp598
g555
ag591
aaa(lp599
I656
aI656
ag60
a(lp600
g591
ag60
aaa(lp601
I656
aI656
ag60
a(lp602
g582
ag60
aaa(lp603
I656
aI656
ag60
a(lp604
g573
ag60
aaa(lp605
I656
aI656
ag60
a(lp606
g564
ag60
aaa(lp607
I659
aI662
aS'beat'
p608
a(lp609
g60
ag608
aaa(lp610
I659
aI662
ag608
a(lp611
g591
ag608
aaa(lp612
I659
aI662
ag608
a(lp613
g582
ag608
aaa(lp614
I659
aI662
ag608
a(lp615
g573
ag608
aaa(lp616
I664
aI678
aS'2\xe2\x80\xa63\xe2\x80\xa64\xe2\x80\xa6etc'
p617
a(lp618
g608
ag617
aaa(lp619
I664
aI678
ag617
a(lp620
g60
ag617
aaa(lp621
I664
aI678
ag617
a(lp622
g591
ag617
aaa(lp623
I664
aI678
ag617
a(lp624
g582
ag617
aaa(lp625
I681
aI685
aS'learn'
p626
a(lp627
g617
ag626
aaa(lp628
I681
aI685
ag626
a(lp629
g608
ag626
aaa(lp630
I681
aI685
ag626
a(lp631
g60
ag626
aaa(lp632
I681
aI685
ag626
a(lp633
g591
ag626
aaa(lp634
I690
aI692
aS'say'
p635
a(lp636
g626
ag635
aaa(lp637
I690
aI692
ag635
a(lp638
g617
ag635
aaa(lp639
I690
aI692
ag635
a(lp640
g608
ag635
aaa(lp641
I690
aI692
ag635
a(lp642
g60
ag635
aaa(lp643
I698
aI703
aS'rhythm'
p644
a(lp645
g635
ag644
aaa(lp646
I698
aI703
ag644
a(lp647
g626
ag644
aaa(lp648
I698
aI703
ag644
a(lp649
g617
ag644
aaa(lp650
I698
aI703
ag644
a(lp651
g608
ag644
aaa(lp652
I709
aI712
aS'loud'
p653
a(lp654
g644
ag653
aaa(lp655
I709
aI712
ag653
a(lp656
g635
ag653
aaa(lp657
I709
aI712
ag653
a(lp658
g626
ag653
aaa(lp659
I709
aI712
ag653
a(lp660
g617
ag653
aaa(lp661
I719
aI722
aS'well'
p662
a(lp663
g653
ag662
aaa(lp664
I719
aI722
ag662
a(lp665
g644
ag662
aaa(lp666
I719
aI722
ag662
a(lp667
g635
ag662
aaa(lp668
I719
aI722
ag662
a(lp669
g626
ag662
aaa(lp670
I731
aI736
aS'really'
p671
a(lp672
g662
ag671
aaa(lp673
I731
aI736
ag671
a(lp674
g653
ag671
aaa(lp675
I731
aI736
ag671
a(lp676
g644
ag671
aaa(lp677
I731
aI736
ag671
a(lp678
g635
ag671
aaa(lp679
I738
aI741
aS'know'
p680
a(lp681
g671
ag680
aaa(lp682
I738
aI741
ag680
a(lp683
g662
ag680
aaa(lp684
I738
aI741
ag680
a(lp685
g653
ag680
aaa(lp686
I738
aI741
ag680
a(lp687
g644
ag680
aaa(lp688
I750
aI753
aS'goes'
p689
a(lp690
g680
ag689
aaa(lp691
I750
aI753
ag689
a(lp692
g671
ag689
aaa(lp693
I750
aI753
ag689
a(lp694
g662
ag689
aaa(lp695
I750
aI753
ag689
a(lp696
g653
ag689
aaa(lp697
I756
aI758
aS'use'
p698
a(lp699
g689
ag698
aaa(lp700
I756
aI758
ag698
a(lp701
g680
ag698
aaa(lp702
I756
aI758
ag698
a(lp703
g671
ag698
aaa(lp704
I756
aI758
ag698
a(lp705
g662
ag698
aaa(lp706
I770
aI773
aS'game'
p707
a(lp708
g698
ag707
aaa(lp709
I770
aI773
ag707
a(lp710
g689
ag707
aaa(lp711
I770
aI773
ag707
a(lp712
g680
ag707
aaa(lp713
I770
aI773
ag707
a(lp714
g671
ag707
aaa(lp715
I778
aI781
aS'test'
p716
a(lp717
g707
ag716
aaa(lp718
I778
aI781
ag716
a(lp719
g698
ag716
aaa(lp720
I778
aI781
ag716
a(lp721
g689
ag716
aaa(lp722
I778
aI781
ag716
a(lp723
g680
ag716
aaa(lp724
I786
aI788
aS'see'
p725
a(lp726
g716
ag725
aaa(lp727
I786
aI788
ag725
a(lp728
g707
ag725
aaa(lp729
I786
aI788
ag725
a(lp730
g698
ag725
aaa(lp731
I786
aI788
ag725
a(lp732
g689
ag725
aaa(lp733
I794
aI797
aS'well'
p734
a(lp735
g725
ag734
aaa(lp736
I794
aI797
ag734
a(lp737
g716
ag734
aaa(lp738
I794
aI797
ag734
a(lp739
g707
ag734
aaa(lp740
I794
aI797
ag734
a(lp741
g698
ag734
aaa(lp742
I807
aI809
aS'say'
p743
a(lp744
g734
ag743
aaa(lp745
I807
aI809
ag743
a(lp746
g725
ag743
aaa(lp747
I807
aI809
ag743
a(lp748
g716
ag743
aaa(lp749
I807
aI809
ag743
a(lp750
g707
ag743
aaa(lp751
I815
aI820
aS'rhythm'
p752
a(lp753
g743
ag752
aaa(lp754
I815
aI820
ag752
a(lp755
g734
ag752
aaa(lp756
I815
aI820
ag752
a(lp757
g725
ag752
aaa(lp758
I815
aI820
ag752
a(lp759
g716
ag752
aaa(lp760
I836
aI843
aS'anything'
p761
a(lp762
g752
ag761
aaa(lp763
I836
aI843
ag761
a(lp764
g743
ag761
aaa(lp765
I836
aI843
ag761
a(lp766
g734
ag761
aaa(lp767
I836
aI843
ag761
a(lp768
g725
ag761
aaa(lp769
I845
aI848
aS'else'
p770
a(lp771
g761
ag770
aaa(lp772
I845
aI848
ag770
a(lp773
g752
ag770
aaa(lp774
I845
aI848
ag770
a(lp775
g743
ag770
aaa(lp776
I845
aI848
ag770
a(lp777
g734
ag770
aaa(lp778
I859
aI863
aS'music'
p779
a(lp780
g770
ag779
aaa(lp781
I859
aI863
ag779
a(lp782
g761
ag779
aaa(lp783
I859
aI863
ag779
a(lp784
g752
ag779
aaa(lp785
I859
aI863
ag779
a(lp786
g743
ag779
aaa(lp787
I871
aI875
aS'music'
p788
a(lp789
g779
ag788
aaa(lp790
I871
aI875
ag788
a(lp791
g770
ag788
aaa(lp792
I871
aI875
ag788
a(lp793
g761
ag788
aaa(lp794
I871
aI875
ag788
a(lp795
g752
ag788
aaa(lp796
I885
aI888
aS'easy'
p797
a(lp798
g788
ag797
aaa(lp799
I885
aI888
ag797
a(lp800
g779
ag797
aaa(lp801
I885
aI888
ag797
a(lp802
g770
ag797
aaa(lp803
I885
aI888
ag797
a(lp804
g761
ag797
aaa(lp805
I896
aI900
aS'music'
p806
a(lp807
g797
ag806
aaa(lp808
I896
aI900
ag806
a(lp809
g788
ag806
aaa(lp810
I896
aI900
ag806
a(lp811
g779
ag806
aaa(lp812
I896
aI900
ag806
a(lp813
g770
ag806
aaa(lp814
I917
aI920
aS'easy'
p815
a(lp816
g806
ag815
aaa(lp817
I917
aI920
ag815
a(lp818
g797
ag815
aaa(lp819
I917
aI920
ag815
a(lp820
g788
ag815
aaa(lp821
I917
aI920
ag815
a(lp822
g779
ag815
aaa(lp823
I927
aI929
aS'may'
p824
a(lp825
g815
ag824
aaa(lp826
I927
aI929
ag824
a(lp827
g806
ag824
aaa(lp828
I927
aI929
ag824
a(lp829
g797
ag824
aaa(lp830
I927
aI929
ag824
a(lp831
g788
ag824
aaa(lp832
I934
aI942
aS'surprised'
p833
a(lp834
g824
ag833
aaa(lp835
I934
aI942
ag833
a(lp836
g815
ag833
aaa(lp837
I934
aI942
ag833
a(lp838
g806
ag833
aaa(lp839
I934
aI942
ag833
a(lp840
g797
ag833
aaa(lp841
I953
aI956
aS'need'
p842
a(lp843
g833
ag842
aaa(lp844
I953
aI956
ag842
a(lp845
g824
ag842
aaa(lp846
I953
aI956
ag842
a(lp847
g815
ag842
aaa(lp848
I953
aI956
ag842
a(lp849
g806
ag842
aaa(lp850
I961
aI964
aS'work'
p851
a(lp852
g842
ag851
aaa(lp853
I961
aI964
ag851
a(lp854
g833
ag851
aaa(lp855
I961
aI964
ag851
a(lp856
g824
ag851
aaa(lp857
I961
aI964
ag851
a(lp858
g815
ag851
aaa(lp859
I973
aI978
aS'rhythm'
p860
a(lp861
g851
ag860
aaa(lp862
I973
aI978
ag860
a(lp863
g842
ag860
aaa(lp864
I973
aI978
ag860
a(lp865
g833
ag860
aaa(lp866
I973
aI978
ag860
a(lp867
g824
ag860
aaa(lp868
I983
aI986
aS'much'
p869
a(lp870
g860
ag869
aaa(lp871
I983
aI986
ag869
a(lp872
g851
ag869
aaa(lp873
I983
aI986
ag869
a(lp874
g842
ag869
aaa(lp875
I983
aI986
ag869
a(lp876
g833
ag869
aaa(lp877
I992
aI995
aS'find'
p878
a(lp879
g869
ag878
aaa(lp880
I992
aI995
ag878
a(lp881
g860
ag878
aaa(lp882
I992
aI995
ag878
a(lp883
g851
ag878
aaa(lp884
I992
aI995
ag878
a(lp885
g842
ag878
aaa(lp886
I1010
aI1017
aS'remember'
p887
a(lp888
g878
ag887
aaa(lp889
I1010
aI1017
ag887
a(lp890
g869
ag887
aaa(lp891
I1010
aI1017
ag887
a(lp892
g860
ag887
aaa(lp893
I1010
aI1017
ag887
a(lp894
g851
ag887
aaa(lp895
I1020
aI1029
aS'everything'
p896
a(lp897
g887
ag896
aaa(lp898
I1020
aI1029
ag896
a(lp899
g878
ag896
aaa(lp900
I1020
aI1029
ag896
a(lp901
g869
ag896
aaa(lp902
I1020
aI1029
ag896
a(lp903
g860
ag896
aaa(lp904
I1031
aI1034
aS'else'
p905
a(lp906
g896
ag905
aaa(lp907
I1031
aI1034
ag905
a(lp908
g887
ag905
aaa(lp909
I1031
aI1034
ag905
a(lp910
g878
ag905
aaa(lp911
I1031
aI1034
ag905
a(lp912
g869
ag905
aaa(lp913
I1046
aI1049
aS'play'
p914
a(lp915
g905
ag914
aaa(lp916
I1046
aI1049
ag914
a(lp917
g896
ag914
aaa(lp918
I1046
aI1049
ag914
a(lp919
g887
ag914
aaa(lp920
I1046
aI1049
ag914
a(lp921
g878
ag914
aaa(lp922
I1056
aI1060
aS'music'
p923
a(lp924
g914
ag923
aaa(lp925
I1056
aI1060
ag923
a(lp926
g905
ag923
aaa(lp927
I1056
aI1060
ag923
a(lp928
g896
ag923
aaa(lp929
I1056
aI1060
ag923
a(lp930
g887
ag923
aaa(lp931
I1070
aI1079
aS'instrument'
p932
a(lp933
g923
ag932
aaa(lp934
I1070
aI1079
ag932
a(lp935
g914
ag932
aaa(lp936
I1070
aI1079
ag932
a(lp937
g905
ag932
aaa(lp938
I1070
aI1079
ag932
a(lp939
g896
ag932
aaa(lp940
I1081
aI1084
aS'must'
p941
a(lp942
g932
ag941
aaa(lp943
I1081
aI1084
ag941
a(lp944
g923
ag941
aaa(lp945
I1081
aI1084
ag941
a(lp946
g914
ag941
aaa(lp947
I1081
aI1084
ag941
a(lp948
g905
ag941
aaa(lp949
I1092
aI1097
aS'rhythm'
p950
a(lp951
g941
ag950
aaa(lp952
I1092
aI1097
ag950
a(lp953
g932
ag950
aaa(lp954
I1092
aI1097
ag950
a(lp955
g923
ag950
aaa(lp956
I1092
aI1097
ag950
a(lp957
g914
ag950
aaa(lp958
I1106
aI1114
aS'important'
p959
a(lp960
g950
ag959
aaa(lp961
I1106
aI1114
ag959
a(lp962
g941
ag959
aaa(lp963
I1106
aI1114
ag959
a(lp964
g932
ag959
aaa(lp965
I1106
aI1114
ag959
a(lp966
g923
ag959
aaa(lp967
I1129
aI1131
aS'say'
p968
a(lp969
g959
ag968
aaa(lp970
I1129
aI1131
ag968
a(lp971
g950
ag968
aaa(lp972
I1129
aI1131
ag968
a(lp973
g941
ag968
aaa(lp974
I1129
aI1131
ag968
a(lp975
g932
ag968
aaa(lp976
I1137
aI1142
aS'rhythm'
p977
a(lp978
g968
ag977
aaa(lp979
I1137
aI1142
ag977
a(lp980
g959
ag977
aaa(lp981
I1137
aI1142
ag977
a(lp982
g950
ag977
aaa(lp983
I1137
aI1142
ag977
a(lp984
g941
ag977
aaa(lp985
I1148
aI1151
aS'loud'
p986
a(lp987
g977
ag986
aaa(lp988
I1148
aI1151
ag986
a(lp989
g968
ag986
aaa(lp990
I1148
aI1151
ag986
a(lp991
g959
ag986
aaa(lp992
I1148
aI1151
ag986
a(lp993
g950
ag986
aaa(lp994
I1153
aI1161
aS'correctly'
p995
a(lp996
g986
ag995
aaa(lp997
I1153
aI1161
ag995
a(lp998
g977
ag995
aaa(lp999
I1153
aI1161
ag995
a(lp1000
g968
ag995
aaa(lp1001
I1153
aI1161
ag995
a(lp1002
g959
ag995
aaa(lp1003
I1163
aI1167
aS'first'
p1004
a(lp1005
g995
ag1004
aaa(lp1006
I1163
aI1167
ag1004
a(lp1007
g986
ag1004
aaa(lp1008
I1163
aI1167
ag1004
a(lp1009
g977
ag1004
aaa(lp1010
I1163
aI1167
ag1004
a(lp1011
g968
ag1004
aaa(lp1012
I1181
aI1183
aS'say'
p1013
a(lp1014
g1004
ag1013
aaa(lp1015
I1181
aI1183
ag1013
a(lp1016
g995
ag1013
aaa(lp1017
I1181
aI1183
ag1013
a(lp1018
g986
ag1013
aaa(lp1019
I1181
aI1183
ag1013
a(lp1020
g977
ag1013
aaa(lp1021
I1191
aI1196
aS'rhythm'
p1022
a(lp1023
g1013
ag1022
aaa(lp1024
I1191
aI1196
ag1022
a(lp1025
g1004
ag1022
aaa(lp1026
I1191
aI1196
ag1022
a(lp1027
g995
ag1022
aaa(lp1028
I1191
aI1196
ag1022
a(lp1029
g986
ag1022
aaa(lp1030
I1212
aI1215
aS'stay'
p1031
a(lp1032
g1022
ag1031
aaa(lp1033
I1212
aI1215
ag1031
a(lp1034
g1013
ag1031
aaa(lp1035
I1212
aI1215
ag1031
a(lp1036
g1004
ag1031
aaa(lp1037
I1212
aI1215
ag1031
a(lp1038
g995
ag1031
aaa(lp1039
I1220
aI1225
aS'rhythm'
p1040
a(lp1041
g1031
ag1040
aaa(lp1042
I1220
aI1225
ag1040
a(lp1043
g1022
ag1040
aaa(lp1044
I1220
aI1225
ag1040
a(lp1045
g1013
ag1040
aaa(lp1046
I1220
aI1225
ag1040
a(lp1047
g1004
ag1040
aaa(lp1048
I1234
aI1238
aS'learn'
p1049
a(lp1050
g1040
ag1049
aaa(lp1051
I1234
aI1238
ag1049
a(lp1052
g1031
ag1049
aaa(lp1053
I1234
aI1238
ag1049
a(lp1054
g1022
ag1049
aaa(lp1055
I1234
aI1238
ag1049
a(lp1056
g1013
ag1049
aaa(lp1057
I1243
aI1246
aS'play'
p1058
a(lp1059
g1049
ag1058
aaa(lp1060
I1243
aI1246
ag1058
a(lp1061
g1040
ag1058
aaa(lp1062
I1243
aI1246
ag1058
a(lp1063
g1031
ag1058
aaa(lp1064
I1243
aI1246
ag1058
a(lp1065
g1022
ag1058
aaa(lp1066
I1260
aI1266
aS'already'
p1067
a(lp1068
g1058
ag1067
aaa(lp1069
I1260
aI1266
ag1067
a(lp1070
g1049
ag1067
aaa(lp1071
I1260
aI1266
ag1067
a(lp1072
g1040
ag1067
aaa(lp1073
I1260
aI1266
ag1067
a(lp1074
g1031
ag1067
aaa(lp1075
I1268
aI1271
aS'know'
p1076
a(lp1077
g1067
ag1076
aaa(lp1078
I1268
aI1271
ag1076
a(lp1079
g1058
ag1076
aaa(lp1080
I1268
aI1271
ag1076
a(lp1081
g1049
ag1076
aaa(lp1082
I1268
aI1271
ag1076
a(lp1083
g1040
ag1076
aaa(lp1084
I1281
aI1286
aS'rhythm'
p1085
a(lp1086
g1076
ag1085
aaa(lp1087
I1281
aI1286
ag1085
a(lp1088
g1067
ag1085
aaa(lp1089
I1281
aI1286
ag1085
a(lp1090
g1058
ag1085
aaa(lp1091
I1281
aI1286
ag1085
a(lp1092
g1049
ag1085
aaa(lp1093
I1288
aI1291
aS'goes'
p1094
a(lp1095
g1085
ag1094
aaa(lp1096
I1288
aI1291
ag1094
a(lp1097
g1076
ag1094
aaa(lp1098
I1288
aI1291
ag1094
a(lp1099
g1067
ag1094
aaa(lp1100
I1288
aI1291
ag1094
a(lp1101
g1058
ag1094
aaa(lp1102
I1301
aI1304
aS'play'
p1103
a(lp1104
g1094
ag1103
aaa(lp1105
I1301
aI1304
ag1103
a(lp1106
g1085
ag1103
aaa(lp1107
I1301
aI1304
ag1103
a(lp1108
g1076
ag1103
aaa(lp1109
I1301
aI1304
ag1103
a(lp1110
g1067
ag1103
aaa(lp1111
I1313
aI1318
aS'rhythm'
p1112
a(lp1113
g1103
ag1112
aaa(lp1114
I1313
aI1318
ag1112
a(lp1115
g1094
ag1112
aaa(lp1116
I1313
aI1318
ag1112
a(lp1117
g1085
ag1112
aaa(lp1118
I1313
aI1318
ag1112
a(lp1119
g1076
ag1112
aaa(lp1120
I1333
aI1336
aS'able'
p1121
a(lp1122
g1112
ag1121
aaa(lp1123
I1333
aI1336
ag1121
a(lp1124
g1103
ag1121
aaa(lp1125
I1333
aI1336
ag1121
a(lp1126
g1094
ag1121
aaa(lp1127
I1333
aI1336
ag1121
a(lp1128
g1085
ag1121
aaa(lp1129
I1341
aI1344
aS'tell'
p1130
a(lp1131
g1121
ag1130
aaa(lp1132
I1341
aI1344
ag1130
a(lp1133
g1112
ag1130
aaa(lp1134
I1341
aI1344
ag1130
a(lp1135
g1103
ag1130
aaa(lp1136
I1341
aI1344
ag1130
a(lp1137
g1094
ag1130
aaa(lp1138
I1350
aI1359
aS'difference'
p1139
a(lp1140
g1130
ag1139
aaa(lp1141
I1350
aI1359
ag1139
a(lp1142
g1121
ag1139
aaa(lp1143
I1350
aI1359
ag1139
a(lp1144
g1112
ag1139
aaa(lp1145
I1350
aI1359
ag1139
a(lp1146
g1103
ag1139
aaa(lp1147
I1372
aI1378
aS'correct'
p1148
a(lp1149
g1139
ag1148
aaa(lp1150
I1372
aI1378
ag1148
a(lp1151
g1130
ag1148
aaa(lp1152
I1372
aI1378
ag1148
a(lp1153
g1121
ag1148
aaa(lp1154
I1372
aI1378
ag1148
a(lp1155
g1112
ag1148
aaa(lp1156
I1393
aI1396
aS'play'
p1157
a(lp1158
g1148
ag1157
aaa(lp1159
I1393
aI1396
ag1157
a(lp1160
g1139
ag1157
aaa(lp1161
I1393
aI1396
ag1157
a(lp1162
g1130
ag1157
aaa(lp1163
I1393
aI1396
ag1157
a(lp1164
g1121
ag1157
aaa(lp1165
I1401
aI1406
aS'rhythm'
p1166
a(lp1167
g1157
ag1166
aaa(lp1168
I1401
aI1406
ag1166
a(lp1169
g1148
ag1166
aaa(lp1170
I1401
aI1406
ag1166
a(lp1171
g1139
ag1166
aaa(lp1172
I1401
aI1406
ag1166
a(lp1173
g1130
ag1166
aaa(lp1174
I1415
aI1422
aS'practice'
p1175
a(lp1176
g1166
ag1175
aaa(lp1177
I1415
aI1422
ag1175
a(lp1178
g1157
ag1175
aaa(lp1179
I1415
aI1422
ag1175
a(lp1180
g1148
ag1175
aaa(lp1181
I1415
aI1422
ag1175
a(lp1182
g1139
ag1175
aaa(lp1183
I1425
aI1433
aS'copyright'
p1184
a(lp1185
g1175
ag1184
aaa(lp1186
I1425
aI1433
ag1184
a(lp1187
g1166
ag1184
aaa(lp1188
I1425
aI1433
ag1184
a(lp1189
g1157
ag1184
aaa(lp1190
I1425
aI1433
ag1184
a(lp1191
g1148
ag1184
aaa(lp1192
I1435
aI1440
aS'norlan'
p1193
a(lp1194
g1184
ag1193
aaa(lp1195
I1435
aI1440
ag1193
a(lp1196
g1175
ag1193
aaa(lp1197
I1435
aI1440
ag1193
a(lp1198
g1166
ag1193
aaa(lp1199
I1435
aI1440
ag1193
a(lp1200
g1157
ag1193
aaa(lp1201
I1442
aI1447
aS'bewley'
p1202
a(lp1203
g1193
ag1202
aaa(lp1204
I1442
aI1447
ag1202
a(lp1205
g1184
ag1202
aaa(lp1206
I1442
aI1447
ag1202
a(lp1207
g1175
ag1202
aaa(lp1208
I1442
aI1447
ag1202
a(lp1209
g1166
ag1202
aaa(lp1210
I1442
aI1447
aS'1999'
p1211
a(lp1212
g1202
ag1211
aaa(lp1213
I1442
aI1447
ag1211
a(lp1214
g1193
ag1211
aaa(lp1215
I1442
aI1447
ag1211
a(lp1216
g1184
ag1211
aaa(lp1217
I1442
aI1447
ag1211
a(lp1218
g1175
ag1211
aaasS'wordMap'
p1219
(lp1220
(lp1221
I1
aI8
ag5
a(lp1222
(lp1223
I1
aS't'
p1224
aa(lp1225
I2
aS'r'
p1226
aa(lp1227
I3
aS'o'
p1228
aa(lp1229
I4
aS'm'
p1230
aa(lp1231
I5
aS'b'
p1232
aa(lp1233
I6
ag1228
aa(lp1234
I7
aS'n'
p1235
aa(lp1236
I8
aS'e'
p1237
aaaa(lp1238
I10
aI13
ag15
a(lp1239
(lp1240
I10
ag1224
aa(lp1241
I11
aS'i'
p1242
aa(lp1243
I12
aS'p'
p1244
aa(lp1245
I13
aS's'
p1246
aaaa(lp1247
I17
aI21
ag24
a(lp1248
(lp1249
I17
aS'l'
p1250
aa(lp1251
I18
ag1237
aa(lp1252
I19
aS'a'
p1253
aa(lp1254
I20
ag1226
aa(lp1255
I21
ag1235
aaaa(lp1256
I23
aI24
aS'to'
p1257
a(lp1258
(lp1259
I23
ag1224
aa(lp1260
I24
ag1228
aaaa(lp1261
I26
aI33
ag33
a(lp1262
(lp1263
I26
ag1244
aa(lp1264
I27
ag1226
aa(lp1265
I28
ag1253
aa(lp1266
I29
aS'c'
p1267
aa(lp1268
I30
ag1224
aa(lp1269
I31
ag1242
aa(lp1270
I32
ag1267
aa(lp1271
I33
ag1237
aaaa(lp1272
I35
aI37
ag42
a(lp1273
(lp1274
I35
aS'\xe2'
p1275
aa(lp1276
I36
aS'\x80'
p1277
aa(lp1278
I37
aS'\x93'
p1279
aaaa(lp1280
I39
aI42
ag51
a(lp1281
(lp1282
I39
ag1246
aa(lp1283
I40
ag1224
aa(lp1284
I41
ag1237
aa(lp1285
I42
ag1244
aaaa(lp1286
I44
aI44
ag60
a(lp1287
(lp1288
I44
ag60
aaaa(lp1289
I47
aI49
ag69
a(lp1290
(lp1291
I47
ag1246
aa(lp1292
I48
ag1253
aa(lp1293
I49
aS'y'
p1294
aaaa(lp1295
I51
aI52
aS'in'
p1296
a(lp1297
(lp1298
I51
ag1242
aa(lp1299
I52
ag1235
aaaa(lp1300
I54
aI59
ag78
a(lp1301
(lp1302
I54
ag1226
aa(lp1303
I55
aS'h'
p1304
aa(lp1305
I56
ag1294
aa(lp1306
I57
ag1224
aa(lp1307
I58
ag1304
aa(lp1308
I59
ag1230
aaaa(lp1309
I62
aI65
ag87
a(lp1310
(lp1311
I62
ag1246
aa(lp1312
I63
ag1224
aa(lp1313
I64
ag1253
aa(lp1314
I65
ag1294
aaaa(lp1315
I67
aI68
aS'in'
p1316
a(lp1317
(lp1318
I67
ag1242
aa(lp1319
I68
ag1235
aaaa(lp1320
I70
aI75
ag96
a(lp1321
(lp1322
I70
ag1226
aa(lp1323
I71
ag1304
aa(lp1324
I72
ag1294
aa(lp1325
I73
ag1224
aa(lp1326
I74
ag1304
aa(lp1327
I75
ag1230
aaaa(lp1328
I78
aI81
aS'when'
p1329
a(lp1330
(lp1331
I78
aS'w'
p1332
aa(lp1333
I79
ag1304
aa(lp1334
I80
ag1237
aa(lp1335
I81
ag1235
aaaa(lp1336
I83
aI85
aS'you'
p1337
a(lp1338
(lp1339
I83
ag1294
aa(lp1340
I84
ag1228
aa(lp1341
I85
aS'u'
p1342
aaaa(lp1343
I87
aI91
ag105
a(lp1344
(lp1345
I87
aS'f'
p1346
aa(lp1347
I88
ag1242
aa(lp1348
I89
ag1226
aa(lp1349
I90
ag1246
aa(lp1350
I91
ag1224
aaaa(lp1351
I93
aI100
ag114
a(lp1352
(lp1353
I93
ag1244
aa(lp1354
I94
ag1226
aa(lp1355
I95
ag1253
aa(lp1356
I96
ag1267
aa(lp1357
I97
ag1224
aa(lp1358
I98
ag1242
aa(lp1359
I99
ag1267
aa(lp1360
I100
ag1237
aaaa(lp1361
I102
aI105
aS'your'
p1362
a(lp1363
(lp1364
I102
ag1294
aa(lp1365
I103
ag1228
aa(lp1366
I104
ag1342
aa(lp1367
I105
ag1226
aaaa(lp1368
I107
aI111
ag123
a(lp1369
(lp1370
I107
ag1230
aa(lp1371
I108
ag1342
aa(lp1372
I109
ag1246
aa(lp1373
I110
ag1242
aa(lp1374
I111
ag1267
aaaa(lp1375
I114
aI116
aS'you'
p1376
a(lp1377
(lp1378
I114
ag1294
aa(lp1379
I115
ag1228
aa(lp1380
I116
ag1342
aaaa(lp1381
I118
aI121
ag132
a(lp1382
(lp1383
I118
ag1235
aa(lp1384
I119
ag1237
aa(lp1385
I120
ag1237
aa(lp1386
I121
aS'd'
p1387
aaaa(lp1388
I123
aI124
aS'to'
p1389
a(lp1390
(lp1391
I123
ag1224
aa(lp1392
I124
ag1228
aaaa(lp1393
I126
aI129
ag141
a(lp1394
(lp1395
I126
aS'k'
p1396
aa(lp1397
I127
ag1235
aa(lp1398
I128
ag1228
aa(lp1399
I129
ag1332
aaaa(lp1400
I131
aI133
aS'how'
p1401
a(lp1402
(lp1403
I131
ag1304
aa(lp1404
I132
ag1228
aa(lp1405
I133
ag1332
aaaa(lp1406
I135
aI137
aS'the'
p1407
a(lp1408
(lp1409
I135
ag1224
aa(lp1410
I136
ag1304
aa(lp1411
I137
ag1237
aaaa(lp1412
I139
aI144
ag150
a(lp1413
(lp1414
I139
ag1226
aa(lp1415
I140
ag1304
aa(lp1416
I141
ag1294
aa(lp1417
I142
ag1224
aa(lp1418
I143
ag1304
aa(lp1419
I144
ag1230
aaaa(lp1420
I146
aI151
ag159
a(lp1421
(lp1422
I146
ag1246
aa(lp1423
I147
ag1228
aa(lp1424
I148
ag1342
aa(lp1425
I149
ag1235
aa(lp1426
I150
ag1387
aa(lp1427
I151
ag1246
aaaa(lp1428
I153
aI158
aS'before'
p1429
a(lp1430
(lp1431
I153
ag1232
aa(lp1432
I154
ag1237
aa(lp1433
I155
ag1346
aa(lp1434
I156
ag1228
aa(lp1435
I157
ag1226
aa(lp1436
I158
ag1237
aaaa(lp1437
I160
aI162
aS'you'
p1438
a(lp1439
(lp1440
I160
ag1294
aa(lp1441
I161
ag1228
aa(lp1442
I162
ag1342
aaaa(lp1443
I164
aI165
aS'do'
p1444
a(lp1445
(lp1446
I164
ag1387
aa(lp1447
I165
ag1228
aaaa(lp1448
I167
aI174
ag168
a(lp1449
(lp1450
I167
ag1253
aa(lp1451
I168
ag1235
aa(lp1452
I169
ag1294
aa(lp1453
I170
ag1224
aa(lp1454
I171
ag1304
aa(lp1455
I172
ag1242
aa(lp1456
I173
ag1235
aa(lp1457
I174
aS'g'
p1458
aaaa(lp1459
I176
aI179
ag177
a(lp1460
(lp1461
I176
ag1237
aa(lp1462
I177
ag1250
aa(lp1463
I178
ag1246
aa(lp1464
I179
ag1237
aaaa(lp1465
I182
aI183
aS'in'
p1466
a(lp1467
(lp1468
I182
ag1242
aa(lp1469
I183
ag1235
aaaa(lp1470
I185
aI189
ag186
a(lp1471
(lp1472
I185
ag1230
aa(lp1473
I186
ag1342
aa(lp1474
I187
ag1246
aa(lp1475
I188
ag1242
aa(lp1476
I189
ag1267
aaaa(lp1477
I192
aI201
ag195
a(lp1478
(lp1479
I192
ag1237
aa(lp1480
I193
aS'v'
p1481
aa(lp1482
I194
ag1237
aa(lp1483
I195
ag1226
aa(lp1484
I196
ag1294
aa(lp1485
I197
ag1224
aa(lp1486
I198
ag1304
aa(lp1487
I199
ag1242
aa(lp1488
I200
ag1235
aa(lp1489
I201
ag1458
aaaa(lp1490
I203
aI207
ag204
a(lp1491
(lp1492
I203
ag1230
aa(lp1493
I204
ag1237
aa(lp1494
I205
ag1237
aa(lp1495
I206
ag1224
aa(lp1496
I207
ag1246
aaaa(lp1497
I209
aI210
aS'at'
p1498
a(lp1499
(lp1500
I209
ag1253
aa(lp1501
I210
ag1224
aaaa(lp1502
I212
aI214
aS'the'
p1503
a(lp1504
(lp1505
I212
ag1224
aa(lp1506
I213
ag1304
aa(lp1507
I214
ag1237
aaaa(lp1508
I216
aI221
ag213
a(lp1509
(lp1510
I216
ag1226
aa(lp1511
I217
ag1304
aa(lp1512
I218
ag1294
aa(lp1513
I219
ag1224
aa(lp1514
I220
ag1304
aa(lp1515
I221
ag1230
aaaa(lp1516
I224
aI227
aS'this'
p1517
a(lp1518
(lp1519
I224
ag1224
aa(lp1520
I225
ag1304
aa(lp1521
I226
ag1242
aa(lp1522
I227
ag1246
aaaa(lp1523
I229
aI233
ag222
a(lp1524
(lp1525
I229
ag1230
aa(lp1526
I230
ag1237
aa(lp1527
I231
ag1253
aa(lp1528
I232
ag1235
aa(lp1529
I233
ag1246
aaaa(lp1530
I235
aI238
aS'that'
p1531
a(lp1532
(lp1533
I235
ag1224
aa(lp1534
I236
ag1304
aa(lp1535
I237
ag1253
aa(lp1536
I238
ag1224
aaaa(lp1537
I240
aI249
ag231
a(lp1538
(lp1539
I240
ag1237
aa(lp1540
I241
ag1481
aa(lp1541
I242
ag1237
aa(lp1542
I243
ag1226
aa(lp1543
I244
ag1294
aa(lp1544
I245
ag1224
aa(lp1545
I246
ag1304
aa(lp1546
I247
ag1242
aa(lp1547
I248
ag1235
aa(lp1548
I249
ag1458
aaaa(lp1549
I251
aI253
aS'you'
p1550
a(lp1551
(lp1552
I251
ag1294
aa(lp1553
I252
ag1228
aa(lp1554
I253
ag1342
aaaa(lp1555
I255
aI258
ag240
a(lp1556
(lp1557
I255
ag1230
aa(lp1558
I256
ag1342
aa(lp1559
I257
ag1246
aa(lp1560
I258
ag1224
aaaa(lp1561
I260
aI261
aS'do'
p1562
a(lp1563
(lp1564
I260
ag1387
aa(lp1565
I261
ag1228
aaaa(lp1566
I263
aI264
aS'to'
p1567
a(lp1568
(lp1569
I263
ag1224
aa(lp1570
I264
ag1228
aaaa(lp1571
I266
aI269
ag249
a(lp1572
(lp1573
I266
ag1244
aa(lp1574
I267
ag1250
aa(lp1575
I268
ag1253
aa(lp1576
I269
ag1294
aaaa(lp1577
I271
aI275
ag258
a(lp1578
(lp1579
I271
ag1230
aa(lp1580
I272
ag1342
aa(lp1581
I273
ag1246
aa(lp1582
I274
ag1242
aa(lp1583
I275
ag1267
aaaa(lp1584
I277
aI278
aS'on'
p1585
a(lp1586
(lp1587
I277
ag1228
aa(lp1588
I278
ag1235
aaaa(lp1589
I280
aI281
aS'an'
p1590
a(lp1591
(lp1592
I280
ag1253
aa(lp1593
I281
ag1235
aaaa(lp1594
I283
aI292
ag267
a(lp1595
(lp1596
I283
ag1242
aa(lp1597
I284
ag1235
aa(lp1598
I285
ag1246
aa(lp1599
I286
ag1224
aa(lp1600
I287
ag1226
aa(lp1601
I288
ag1342
aa(lp1602
I289
ag1230
aa(lp1603
I290
ag1237
aa(lp1604
I291
ag1235
aa(lp1605
I292
ag1224
aaaa(lp1606
I294
aI296
aS'you'
p1607
a(lp1608
(lp1609
I294
ag1294
aa(lp1610
I295
ag1228
aa(lp1611
I296
ag1342
aaaa(lp1612
I298
aI301
ag276
a(lp1613
(lp1614
I298
ag1230
aa(lp1615
I299
ag1342
aa(lp1616
I300
ag1246
aa(lp1617
I301
ag1224
aaaa(lp1618
I303
aI307
ag285
a(lp1619
(lp1620
I303
ag1250
aa(lp1621
I304
ag1237
aa(lp1622
I305
ag1253
aa(lp1623
I306
ag1226
aa(lp1624
I307
ag1235
aaaa(lp1625
I309
aI310
aS'to'
p1626
a(lp1627
(lp1628
I309
ag1224
aa(lp1629
I310
ag1228
aaaa(lp1630
I312
aI313
aS'do'
p1631
a(lp1632
(lp1633
I312
ag1387
aa(lp1634
I313
ag1228
aaaa(lp1635
I315
aI316
aS'in'
p1636
a(lp1637
(lp1638
I315
ag1242
aa(lp1639
I316
ag1235
aaaa(lp1640
I318
aI323
ag294
a(lp1641
(lp1642
I318
ag1226
aa(lp1643
I319
ag1304
aa(lp1644
I320
ag1294
aa(lp1645
I321
ag1224
aa(lp1646
I322
ag1304
aa(lp1647
I323
ag1230
aaaa(lp1648
I325
aI326
aS'at'
p1649
a(lp1650
(lp1651
I325
ag1253
aa(lp1652
I326
ag1224
aaaa(lp1653
I328
aI328
ag1253
a(lp1654
(lp1655
I328
ag1253
aaaa(lp1656
I330
aI335
ag303
a(lp1657
(lp1658
I330
ag1246
aa(lp1659
I331
ag1224
aa(lp1660
I332
ag1237
aa(lp1661
I333
ag1253
aa(lp1662
I334
ag1387
aa(lp1663
I335
ag1294
aaaa(lp1664
I337
aI341
ag312
a(lp1665
(lp1666
I337
ag1224
aa(lp1667
I338
ag1237
aa(lp1668
I339
ag1230
aa(lp1669
I340
ag1244
aa(lp1670
I341
ag1228
aaaa(lp1671
I344
aI346
aS'the'
p1672
a(lp1673
(lp1674
I344
ag1224
aa(lp1675
I345
ag1304
aa(lp1676
I346
ag1237
aaaa(lp1677
I348
aI352
ag321
a(lp1678
(lp1679
I348
ag1346
aa(lp1680
I349
ag1242
aa(lp1681
I350
ag1226
aa(lp1682
I351
ag1246
aa(lp1683
I352
ag1224
aaaa(lp1684
I354
aI357
ag330
a(lp1685
(lp1686
I354
ag1246
aa(lp1687
I355
ag1224
aa(lp1688
I356
ag1237
aa(lp1689
I357
ag1244
aaaa(lp1690
I359
aI360
aS'is'
p1691
a(lp1692
(lp1693
I359
ag1242
aa(lp1694
I360
ag1246
aaaa(lp1695
I362
aI363
aS'to'
p1696
a(lp1697
(lp1698
I362
ag1224
aa(lp1699
I363
ag1228
aaaa(lp1700
I365
aI370
ag339
a(lp1701
(lp1702
I365
ag1346
aa(lp1703
I366
ag1242
aa(lp1704
I367
ag1458
aa(lp1705
I368
ag1342
aa(lp1706
I369
ag1226
aa(lp1707
I370
ag1237
aaaa(lp1708
I372
aI374
aS'out'
p1709
a(lp1710
(lp1711
I372
ag1228
aa(lp1712
I373
ag1342
aa(lp1713
I374
ag1224
aaaa(lp1714
I376
aI378
aS'how'
p1715
a(lp1716
(lp1717
I376
ag1304
aa(lp1718
I377
ag1228
aa(lp1719
I378
ag1332
aaaa(lp1720
I380
aI382
aS'the'
p1721
a(lp1722
(lp1723
I380
ag1224
aa(lp1724
I381
ag1304
aa(lp1725
I382
ag1237
aaaa(lp1726
I384
aI389
ag348
a(lp1727
(lp1728
I384
ag1226
aa(lp1729
I385
ag1304
aa(lp1730
I386
ag1294
aa(lp1731
I387
ag1224
aa(lp1732
I388
ag1304
aa(lp1733
I389
ag1230
aaaa(lp1734
I391
aI394
ag357
a(lp1735
(lp1736
I391
ag1458
aa(lp1737
I392
ag1228
aa(lp1738
I393
ag1237
aa(lp1739
I394
ag1246
aaaa(lp1740
I397
aI399
ag366
a(lp1741
(lp1742
I397
ag1224
aa(lp1743
I398
ag1226
aa(lp1744
I399
ag1294
aaaa(lp1745
I401
aI406
ag375
a(lp1746
(lp1747
I401
ag1246
aa(lp1748
I402
ag1253
aa(lp1749
I403
ag1294
aa(lp1750
I404
ag1242
aa(lp1751
I405
ag1235
aa(lp1752
I406
ag1458
aaaa(lp1753
I408
aI410
aS'the'
p1754
a(lp1755
(lp1756
I408
ag1224
aa(lp1757
I409
ag1304
aa(lp1758
I410
ag1237
aaaa(lp1759
I412
aI417
ag384
a(lp1760
(lp1761
I412
ag1226
aa(lp1762
I413
ag1304
aa(lp1763
I414
ag1294
aa(lp1764
I415
ag1224
aa(lp1765
I416
ag1304
aa(lp1766
I417
ag1230
aaaa(lp1767
I419
aI421
aS'out'
p1768
a(lp1769
(lp1770
I419
ag1228
aa(lp1771
I420
ag1342
aa(lp1772
I421
ag1224
aaaa(lp1773
I423
aI426
ag393
a(lp1774
(lp1775
I423
ag1250
aa(lp1776
I424
ag1228
aa(lp1777
I425
ag1342
aa(lp1778
I426
ag1387
aaaa(lp1779
I428
aI429
aS'on'
p1780
a(lp1781
(lp1782
I428
ag1228
aa(lp1783
I429
ag1235
aaaa(lp1784
I431
aI433
ag402
a(lp1785
(lp1786
I431
ag1224
aa(lp1787
I432
ag1253
aa(lp1788
I433
ag1304
aaaa(lp1789
I436
aI438
aS'too'
p1790
a(lp1791
(lp1792
I436
ag1224
aa(lp1793
I437
ag1228
aa(lp1794
I438
ag1228
aaaa(lp1795
I441
aI442
aS'or'
p1796
a(lp1797
(lp1798
I441
ag1228
aa(lp1799
I442
ag1226
aaaa(lp1800
I444
aI446
ag411
a(lp1801
(lp1802
I444
ag1224
aa(lp1803
I445
ag1228
aa(lp1804
I446
ag1304
aaaa(lp1805
I449
aI457
ag420
a(lp1806
(lp1807
I449
ag1332
aa(lp1808
I450
ag1304
aa(lp1809
I451
ag1242
aa(lp1810
I452
ag1267
aa(lp1811
I453
ag1304
aa(lp1812
I454
ag1237
aa(lp1813
I455
ag1481
aa(lp1814
I456
ag1237
aa(lp1815
I457
ag1226
aaaa(lp1816
I459
aI461
aS'you'
p1817
a(lp1818
(lp1819
I459
ag1294
aa(lp1820
I460
ag1228
aa(lp1821
I461
ag1342
aaaa(lp1822
I463
aI465
ag429
a(lp1823
(lp1824
I463
ag1342
aa(lp1825
I464
ag1246
aa(lp1826
I465
ag1237
aaaa(lp1827
I468
aI471
ag438
a(lp1828
(lp1829
I468
ag1396
aa(lp1830
I469
ag1237
aa(lp1831
I470
ag1237
aa(lp1832
I471
ag1244
aaaa(lp1833
I473
aI475
aS'the'
p1834
a(lp1835
(lp1836
I473
ag1224
aa(lp1837
I474
ag1304
aa(lp1838
I475
ag1237
aaaa(lp1839
I477
aI481
ag447
a(lp1840
(lp1841
I477
ag1224
aa(lp1842
I478
ag1237
aa(lp1843
I479
ag1230
aa(lp1844
I480
ag1244
aa(lp1845
I481
ag1228
aaaa(lp1846
I483
aI488
ag456
a(lp1847
(lp1848
I483
ag1246
aa(lp1849
I484
ag1224
aa(lp1850
I485
ag1237
aa(lp1851
I486
ag1253
aa(lp1852
I487
ag1387
aa(lp1853
I488
ag1294
aaaa(lp1854
I490
aI492
aS'and'
p1855
a(lp1856
(lp1857
I490
ag1253
aa(lp1858
I491
ag1235
aa(lp1859
I492
ag1387
aaaa(lp1860
I494
aI496
ag465
a(lp1861
(lp1862
I494
ag1246
aa(lp1863
I495
ag1253
aa(lp1864
I496
ag1294
aaaa(lp1865
I498
aI500
aS'the'
p1866
a(lp1867
(lp1868
I498
ag1224
aa(lp1869
I499
ag1304
aa(lp1870
I500
ag1237
aaaa(lp1871
I502
aI507
ag474
a(lp1872
(lp1873
I502
ag1226
aa(lp1874
I503
ag1304
aa(lp1875
I504
ag1294
aa(lp1876
I505
ag1224
aa(lp1877
I506
ag1304
aa(lp1878
I507
ag1230
aaaa(lp1879
I509
aI512
aS'just'
p1880
a(lp1881
(lp1882
I509
aS'j'
p1883
aa(lp1884
I510
ag1342
aa(lp1885
I511
ag1246
aa(lp1886
I512
ag1224
aaaa(lp1887
I514
aI517
ag483
a(lp1888
(lp1889
I514
ag1250
aa(lp1890
I515
ag1242
aa(lp1891
I516
ag1396
aa(lp1892
I517
ag1237
aaaa(lp1893
I519
aI521
aS'you'
p1894
a(lp1895
(lp1896
I519
ag1294
aa(lp1897
I520
ag1228
aa(lp1898
I521
ag1342
aaaa(lp1899
I523
aI527
ag492
a(lp1900
(lp1901
I523
ag1332
aa(lp1902
I524
ag1228
aa(lp1903
I525
ag1342
aa(lp1904
I526
ag1250
aa(lp1905
I527
ag1387
aaaa(lp1906
I529
aI532
ag501
a(lp1907
(lp1908
I529
ag1244
aa(lp1909
I530
ag1250
aa(lp1910
I531
ag1253
aa(lp1911
I532
ag1294
aaaa(lp1912
I534
aI535
aS'it'
p1913
a(lp1914
(lp1915
I534
ag1242
aa(lp1916
I535
ag1224
aaaa(lp1917
I538
aI539
aS'if'
p1918
a(lp1919
(lp1920
I538
ag1242
aa(lp1921
I539
ag1346
aaaa(lp1922
I541
aI543
aS'you'
p1923
a(lp1924
(lp1925
I541
ag1294
aa(lp1926
I542
ag1228
aa(lp1927
I543
ag1342
aaaa(lp1928
I545
aI548
aS'have'
p1929
a(lp1930
(lp1931
I545
ag1304
aa(lp1932
I546
ag1253
aa(lp1933
I547
ag1481
aa(lp1934
I548
ag1237
aaaa(lp1935
I550
aI556
ag510
a(lp1936
(lp1937
I550
ag1224
aa(lp1938
I551
ag1226
aa(lp1939
I552
ag1228
aa(lp1940
I553
ag1342
aa(lp1941
I554
ag1232
aa(lp1942
I555
ag1250
aa(lp1943
I556
ag1237
aaaa(lp1944
I558
aI559
aS'in'
p1945
a(lp1946
(lp1947
I558
ag1242
aa(lp1948
I559
ag1235
aaaa(lp1949
I561
aI564
aS'some'
p1950
a(lp1951
(lp1952
I561
ag1246
aa(lp1953
I562
ag1228
aa(lp1954
I563
ag1230
aa(lp1955
I564
ag1237
aaaa(lp1956
I566
aI571
ag519
a(lp1957
(lp1958
I566
ag1244
aa(lp1959
I567
ag1250
aa(lp1960
I568
ag1253
aa(lp1961
I569
ag1267
aa(lp1962
I570
ag1237
aa(lp1963
I571
ag1246
aaaa(lp1964
I574
aI576
ag528
a(lp1965
(lp1966
I574
ag1246
aa(lp1967
I575
ag1237
aa(lp1968
I576
ag1237
aaaa(lp1969
I578
aI580
aS'how'
p1970
a(lp1971
(lp1972
I578
ag1304
aa(lp1973
I579
ag1228
aa(lp1974
I580
ag1332
aaaa(lp1975
I582
aI584
aS'the'
p1976
a(lp1977
(lp1978
I582
ag1224
aa(lp1979
I583
ag1304
aa(lp1980
I584
ag1237
aaaa(lp1981
I586
aI592
ag537
a(lp1982
(lp1983
I586
ag1226
aa(lp1984
I587
ag1304
aa(lp1985
I588
ag1294
aa(lp1986
I589
ag1224
aa(lp1987
I590
ag1304
aa(lp1988
I591
ag1230
aa(lp1989
I592
ag1246
aaaa(lp1990
I594
aI596
ag546
a(lp1991
(lp1992
I594
ag1253
aa(lp1993
I595
ag1387
aa(lp1994
I596
ag1387
aaaa(lp1995
I598
aI599
aS'up'
p1996
a(lp1997
(lp1998
I598
ag1342
aa(lp1999
I599
ag1244
aaaa(lp2000
I601
aI602
aS'to'
p2001
a(lp2002
(lp2003
I601
ag1224
aa(lp2004
I602
ag1228
aaaa(lp2005
I604
aI606
aS'the'
p2006
a(lp2007
(lp2008
I604
ag1224
aa(lp2009
I605
ag1304
aa(lp2010
I606
ag1237
aaaa(lp2011
I608
aI612
ag555
a(lp2012
(lp2013
I608
ag1232
aa(lp2014
I609
ag1237
aa(lp2015
I610
ag1253
aa(lp2016
I611
ag1224
aa(lp2017
I612
ag1246
aaaa(lp2018
I614
aI615
aS'in'
p2019
a(lp2020
(lp2021
I614
ag1242
aa(lp2022
I615
ag1235
aaaa(lp2023
I617
aI620
aS'each'
p2024
a(lp2025
(lp2026
I617
ag1237
aa(lp2027
I618
ag1253
aa(lp2028
I619
ag1267
aa(lp2029
I620
ag1304
aaaa(lp2030
I622
aI628
ag564
a(lp2031
(lp2032
I622
ag1230
aa(lp2033
I623
ag1237
aa(lp2034
I624
ag1253
aa(lp2035
I625
ag1246
aa(lp2036
I626
ag1342
aa(lp2037
I627
ag1226
aa(lp2038
I628
ag1237
aaaa(lp2039
I631
aI634
aS'what'
p2040
a(lp2041
(lp2042
I631
ag1332
aa(lp2043
I632
ag1304
aa(lp2044
I633
ag1253
aa(lp2045
I634
ag1224
aaaa(lp2046
I636
aI641
ag573
a(lp2047
(lp2048
I636
ag1226
aa(lp2049
I637
ag1304
aa(lp2050
I638
ag1294
aa(lp2051
I639
ag1224
aa(lp2052
I640
ag1304
aa(lp2053
I641
ag1230
aaaa(lp2054
I643
aI646
ag582
a(lp2055
(lp2056
I643
ag1342
aa(lp2057
I644
ag1246
aa(lp2058
I645
ag1237
aa(lp2059
I646
ag1246
aaaa(lp2060
I648
aI649
aS'up'
p2061
a(lp2062
(lp2063
I648
ag1342
aa(lp2064
I649
ag1244
aaaa(lp2065
I651
aI654
ag591
a(lp2066
(lp2067
I651
ag1232
aa(lp2068
I652
ag1237
aa(lp2069
I653
ag1253
aa(lp2070
I654
ag1224
aaaa(lp2071
I656
aI656
ag60
a(lp2072
(lp2073
I656
ag60
aaaa(lp2074
I659
aI662
ag608
a(lp2075
(lp2076
I659
ag1232
aa(lp2077
I660
ag1237
aa(lp2078
I661
ag1253
aa(lp2079
I662
ag1224
aaaa(lp2080
I664
aI678
ag617
a(lp2081
(lp2082
I664
aS'2'
p2083
aa(lp2084
I665
ag1275
aa(lp2085
I666
ag1277
aa(lp2086
I667
aS'\xa6'
p2087
aa(lp2088
I668
aS'3'
p2089
aa(lp2090
I669
ag1275
aa(lp2091
I670
ag1277
aa(lp2092
I671
ag2087
aa(lp2093
I672
aS'4'
p2094
aa(lp2095
I673
ag1275
aa(lp2096
I674
ag1277
aa(lp2097
I675
ag2087
aa(lp2098
I676
ag1237
aa(lp2099
I677
ag1224
aa(lp2100
I678
ag1267
aaaa(lp2101
I681
aI685
ag626
a(lp2102
(lp2103
I681
ag1250
aa(lp2104
I682
ag1237
aa(lp2105
I683
ag1253
aa(lp2106
I684
ag1226
aa(lp2107
I685
ag1235
aaaa(lp2108
I687
aI688
aS'to'
p2109
a(lp2110
(lp2111
I687
ag1224
aa(lp2112
I688
ag1228
aaaa(lp2113
I690
aI692
ag635
a(lp2114
(lp2115
I690
ag1246
aa(lp2116
I691
ag1253
aa(lp2117
I692
ag1294
aaaa(lp2118
I694
aI696
aS'the'
p2119
a(lp2120
(lp2121
I694
ag1224
aa(lp2122
I695
ag1304
aa(lp2123
I696
ag1237
aaaa(lp2124
I698
aI703
ag644
a(lp2125
(lp2126
I698
ag1226
aa(lp2127
I699
ag1304
aa(lp2128
I700
ag1294
aa(lp2129
I701
ag1224
aa(lp2130
I702
ag1304
aa(lp2131
I703
ag1230
aaaa(lp2132
I705
aI707
aS'out'
p2133
a(lp2134
(lp2135
I705
ag1228
aa(lp2136
I706
ag1342
aa(lp2137
I707
ag1224
aaaa(lp2138
I709
aI712
ag653
a(lp2139
(lp2140
I709
ag1250
aa(lp2141
I710
ag1228
aa(lp2142
I711
ag1342
aa(lp2143
I712
ag1387
aaaa(lp2144
I714
aI717
aS'very'
p2145
a(lp2146
(lp2147
I714
ag1481
aa(lp2148
I715
ag1237
aa(lp2149
I716
ag1226
aa(lp2150
I717
ag1294
aaaa(lp2151
I719
aI722
ag662
a(lp2152
(lp2153
I719
ag1332
aa(lp2154
I720
ag1237
aa(lp2155
I721
ag1250
aa(lp2156
I722
ag1250
aaaa(lp2157
I724
aI725
aS'so'
p2158
a(lp2159
(lp2160
I724
ag1246
aa(lp2161
I725
ag1228
aaaa(lp2162
I727
aI729
aS'you'
p2163
a(lp2164
(lp2165
I727
ag1294
aa(lp2166
I728
ag1228
aa(lp2167
I729
ag1342
aaaa(lp2168
I731
aI736
ag671
a(lp2169
(lp2170
I731
ag1226
aa(lp2171
I732
ag1237
aa(lp2172
I733
ag1253
aa(lp2173
I734
ag1250
aa(lp2174
I735
ag1250
aa(lp2175
I736
ag1294
aaaa(lp2176
I738
aI741
ag680
a(lp2177
(lp2178
I738
ag1396
aa(lp2179
I739
ag1235
aa(lp2180
I740
ag1228
aa(lp2181
I741
ag1332
aaaa(lp2182
I743
aI745
aS'how'
p2183
a(lp2184
(lp2185
I743
ag1304
aa(lp2186
I744
ag1228
aa(lp2187
I745
ag1332
aaaa(lp2188
I747
aI748
aS'it'
p2189
a(lp2190
(lp2191
I747
ag1242
aa(lp2192
I748
ag1224
aaaa(lp2193
I750
aI753
ag689
a(lp2194
(lp2195
I750
ag1458
aa(lp2196
I751
ag1228
aa(lp2197
I752
ag1237
aa(lp2198
I753
ag1246
aaaa(lp2199
I756
aI758
ag698
a(lp2200
(lp2201
I756
ag1342
aa(lp2202
I757
ag1246
aa(lp2203
I758
ag1237
aaaa(lp2204
I760
aI763
aS'this'
p2205
a(lp2206
(lp2207
I760
ag1224
aa(lp2208
I761
ag1304
aa(lp2209
I762
ag1242
aa(lp2210
I763
ag1246
aaaa(lp2211
I765
aI766
aS'as'
p2212
a(lp2213
(lp2214
I765
ag1253
aa(lp2215
I766
ag1246
aaaa(lp2216
I768
aI768
ag1253
a(lp2217
(lp2218
I768
ag1253
aaaa(lp2219
I770
aI773
ag707
a(lp2220
(lp2221
I770
ag1458
aa(lp2222
I771
ag1253
aa(lp2223
I772
ag1230
aa(lp2224
I773
ag1237
aaaa(lp2225
I775
aI776
aS'or'
p2226
a(lp2227
(lp2228
I775
ag1228
aa(lp2229
I776
ag1226
aaaa(lp2230
I778
aI781
ag716
a(lp2231
(lp2232
I778
ag1224
aa(lp2233
I779
ag1237
aa(lp2234
I780
ag1246
aa(lp2235
I781
ag1224
aaaa(lp2236
I783
aI784
aS'to'
p2237
a(lp2238
(lp2239
I783
ag1224
aa(lp2240
I784
ag1228
aaaa(lp2241
I786
aI788
ag725
a(lp2242
(lp2243
I786
ag1246
aa(lp2244
I787
ag1237
aa(lp2245
I788
ag1237
aaaa(lp2246
I790
aI792
aS'how'
p2247
a(lp2248
(lp2249
I790
ag1304
aa(lp2250
I791
ag1228
aa(lp2251
I792
ag1332
aaaa(lp2252
I794
aI797
ag734
a(lp2253
(lp2254
I794
ag1332
aa(lp2255
I795
ag1237
aa(lp2256
I796
ag1250
aa(lp2257
I797
ag1250
aaaa(lp2258
I799
aI801
aS'you'
p2259
a(lp2260
(lp2261
I799
ag1294
aa(lp2262
I800
ag1228
aa(lp2263
I801
ag1342
aaaa(lp2264
I803
aI805
aS'can'
p2265
a(lp2266
(lp2267
I803
ag1267
aa(lp2268
I804
ag1253
aa(lp2269
I805
ag1235
aaaa(lp2270
I807
aI809
ag743
a(lp2271
(lp2272
I807
ag1246
aa(lp2273
I808
ag1253
aa(lp2274
I809
ag1294
aaaa(lp2275
I811
aI813
aS'the'
p2276
a(lp2277
(lp2278
I811
ag1224
aa(lp2279
I812
ag1304
aa(lp2280
I813
ag1237
aaaa(lp2281
I815
aI820
ag752
a(lp2282
(lp2283
I815
ag1226
aa(lp2284
I816
ag1304
aa(lp2285
I817
ag1294
aa(lp2286
I818
ag1224
aa(lp2287
I819
ag1304
aa(lp2288
I820
ag1230
aaaa(lp2289
I822
aI827
aS'before'
p2290
a(lp2291
(lp2292
I822
ag1232
aa(lp2293
I823
ag1237
aa(lp2294
I824
ag1346
aa(lp2295
I825
ag1228
aa(lp2296
I826
ag1226
aa(lp2297
I827
ag1237
aaaa(lp2298
I829
aI831
aS'you'
p2299
a(lp2300
(lp2301
I829
ag1294
aa(lp2302
I830
ag1228
aa(lp2303
I831
ag1342
aaaa(lp2304
I833
aI834
aS'do'
p2305
a(lp2306
(lp2307
I833
ag1387
aa(lp2308
I834
ag1228
aaaa(lp2309
I836
aI843
ag761
a(lp2310
(lp2311
I836
ag1253
aa(lp2312
I837
ag1235
aa(lp2313
I838
ag1294
aa(lp2314
I839
ag1224
aa(lp2315
I840
ag1304
aa(lp2316
I841
ag1242
aa(lp2317
I842
ag1235
aa(lp2318
I843
ag1458
aaaa(lp2319
I845
aI848
ag770
a(lp2320
(lp2321
I845
ag1237
aa(lp2322
I846
ag1250
aa(lp2323
I847
ag1246
aa(lp2324
I848
ag1237
aaaa(lp2325
I850
aI853
aS'with'
p2326
a(lp2327
(lp2328
I850
ag1332
aa(lp2329
I851
ag1242
aa(lp2330
I852
ag1224
aa(lp2331
I853
ag1304
aaaa(lp2332
I855
aI857
aS'the'
p2333
a(lp2334
(lp2335
I855
ag1224
aa(lp2336
I856
ag1304
aa(lp2337
I857
ag1237
aaaa(lp2338
I859
aI863
ag779
a(lp2339
(lp2340
I859
ag1230
aa(lp2341
I860
ag1342
aa(lp2342
I861
ag1246
aa(lp2343
I862
ag1242
aa(lp2344
I863
ag1267
aaaa(lp2345
I866
aI869
aS'some'
p2346
a(lp2347
(lp2348
I866
ag1246
aa(lp2349
I867
ag1228
aa(lp2350
I868
ag1230
aa(lp2351
I869
ag1237
aaaa(lp2352
I871
aI875
ag788
a(lp2353
(lp2354
I871
ag1230
aa(lp2355
I872
ag1342
aa(lp2356
I873
ag1246
aa(lp2357
I874
ag1242
aa(lp2358
I875
ag1267
aaaa(lp2359
I877
aI880
aS'will'
p2360
a(lp2361
(lp2362
I877
ag1332
aa(lp2363
I878
ag1242
aa(lp2364
I879
ag1250
aa(lp2365
I880
ag1250
aaaa(lp2366
I882
aI883
aS'be'
p2367
a(lp2368
(lp2369
I882
ag1232
aa(lp2370
I883
ag1237
aaaa(lp2371
I885
aI888
ag797
a(lp2372
(lp2373
I885
ag1237
aa(lp2374
I886
ag1253
aa(lp2375
I887
ag1246
aa(lp2376
I888
ag1294
aaaa(lp2377
I891
aI894
aS'some'
p2378
a(lp2379
(lp2380
I891
ag1246
aa(lp2381
I892
ag1228
aa(lp2382
I893
ag1230
aa(lp2383
I894
ag1237
aaaa(lp2384
I896
aI900
ag806
a(lp2385
(lp2386
I896
ag1230
aa(lp2387
I897
ag1342
aa(lp2388
I898
ag1246
aa(lp2389
I899
ag1242
aa(lp2390
I900
ag1267
aaaa(lp2391
I902
aI905
aS'will'
p2392
a(lp2393
(lp2394
I902
ag1332
aa(lp2395
I903
ag1242
aa(lp2396
I904
ag1250
aa(lp2397
I905
ag1250
aaaa(lp2398
I907
aI909
aS'not'
p2399
a(lp2400
(lp2401
I907
ag1235
aa(lp2402
I908
ag1228
aa(lp2403
I909
ag1224
aaaa(lp2404
I911
aI912
aS'be'
p2405
a(lp2406
(lp2407
I911
ag1232
aa(lp2408
I912
ag1237
aaaa(lp2409
I914
aI915
aS'so'
p2410
a(lp2411
(lp2412
I914
ag1246
aa(lp2413
I915
ag1228
aaaa(lp2414
I917
aI920
ag815
a(lp2415
(lp2416
I917
ag1237
aa(lp2417
I918
ag1253
aa(lp2418
I919
ag1246
aa(lp2419
I920
ag1294
aaaa(lp2420
I923
aI925
aS'you'
p2421
a(lp2422
(lp2423
I923
ag1294
aa(lp2424
I924
ag1228
aa(lp2425
I925
ag1342
aaaa(lp2426
I927
aI929
ag824
a(lp2427
(lp2428
I927
ag1230
aa(lp2429
I928
ag1253
aa(lp2430
I929
ag1294
aaaa(lp2431
I931
aI932
aS'be'
p2432
a(lp2433
(lp2434
I931
ag1232
aa(lp2435
I932
ag1237
aaaa(lp2436
I934
aI942
ag833
a(lp2437
(lp2438
I934
ag1246
aa(lp2439
I935
ag1342
aa(lp2440
I936
ag1226
aa(lp2441
I937
ag1244
aa(lp2442
I938
ag1226
aa(lp2443
I939
ag1242
aa(lp2444
I940
ag1246
aa(lp2445
I941
ag1237
aa(lp2446
I942
ag1387
aaaa(lp2447
I944
aI947
aS'that'
p2448
a(lp2449
(lp2450
I944
ag1224
aa(lp2451
I945
ag1304
aa(lp2452
I946
ag1253
aa(lp2453
I947
ag1224
aaaa(lp2454
I949
aI951
aS'you'
p2455
a(lp2456
(lp2457
I949
ag1294
aa(lp2458
I950
ag1228
aa(lp2459
I951
ag1342
aaaa(lp2460
I953
aI956
ag842
a(lp2461
(lp2462
I953
ag1235
aa(lp2463
I954
ag1237
aa(lp2464
I955
ag1237
aa(lp2465
I956
ag1387
aaaa(lp2466
I958
aI959
aS'to'
p2467
a(lp2468
(lp2469
I958
ag1224
aa(lp2470
I959
ag1228
aaaa(lp2471
I961
aI964
ag851
a(lp2472
(lp2473
I961
ag1332
aa(lp2474
I962
ag1228
aa(lp2475
I963
ag1226
aa(lp2476
I964
ag1396
aaaa(lp2477
I966
aI967
aS'on'
p2478
a(lp2479
(lp2480
I966
ag1228
aa(lp2481
I967
ag1235
aaaa(lp2482
I969
aI971
aS'the'
p2483
a(lp2484
(lp2485
I969
ag1224
aa(lp2486
I970
ag1304
aa(lp2487
I971
ag1237
aaaa(lp2488
I973
aI978
ag860
a(lp2489
(lp2490
I973
ag1226
aa(lp2491
I974
ag1304
aa(lp2492
I975
ag1294
aa(lp2493
I976
ag1224
aa(lp2494
I977
ag1304
aa(lp2495
I978
ag1230
aaaa(lp2496
I980
aI981
aS'as'
p2497
a(lp2498
(lp2499
I980
ag1253
aa(lp2500
I981
ag1246
aaaa(lp2501
I983
aI986
ag869
a(lp2502
(lp2503
I983
ag1230
aa(lp2504
I984
ag1342
aa(lp2505
I985
ag1267
aa(lp2506
I986
ag1304
aaaa(lp2507
I988
aI990
aS'you'
p2508
a(lp2509
(lp2510
I988
ag1294
aa(lp2511
I989
ag1228
aa(lp2512
I990
ag1342
aaaa(lp2513
I992
aI995
ag878
a(lp2514
(lp2515
I992
ag1346
aa(lp2516
I993
ag1242
aa(lp2517
I994
ag1235
aa(lp2518
I995
ag1387
aaaa(lp2519
I997
aI1000
aS'that'
p2520
a(lp2521
(lp2522
I997
ag1224
aa(lp2523
I998
ag1304
aa(lp2524
I999
ag1253
aa(lp2525
I1000
ag1224
aaaa(lp2526
I1002
aI1004
aS'you'
p2527
a(lp2528
(lp2529
I1002
ag1294
aa(lp2530
I1003
ag1228
aa(lp2531
I1004
ag1342
aaaa(lp2532
I1006
aI1007
aS'do'
p2533
a(lp2534
(lp2535
I1006
ag1387
aa(lp2536
I1007
ag1228
aaaa(lp2537
I1010
aI1017
ag887
a(lp2538
(lp2539
I1010
ag1226
aa(lp2540
I1011
ag1237
aa(lp2541
I1012
ag1230
aa(lp2542
I1013
ag1237
aa(lp2543
I1014
ag1230
aa(lp2544
I1015
ag1232
aa(lp2545
I1016
ag1237
aa(lp2546
I1017
ag1226
aaaa(lp2547
I1020
aI1029
ag896
a(lp2548
(lp2549
I1020
ag1237
aa(lp2550
I1021
ag1481
aa(lp2551
I1022
ag1237
aa(lp2552
I1023
ag1226
aa(lp2553
I1024
ag1294
aa(lp2554
I1025
ag1224
aa(lp2555
I1026
ag1304
aa(lp2556
I1027
ag1242
aa(lp2557
I1028
ag1235
aa(lp2558
I1029
ag1458
aaaa(lp2559
I1031
aI1034
ag905
a(lp2560
(lp2561
I1031
ag1237
aa(lp2562
I1032
ag1250
aa(lp2563
I1033
ag1246
aa(lp2564
I1034
ag1237
aaaa(lp2565
I1036
aI1038
aS'you'
p2566
a(lp2567
(lp2568
I1036
ag1294
aa(lp2569
I1037
ag1228
aa(lp2570
I1038
ag1342
aaaa(lp2571
I1040
aI1041
aS'do'
p2572
a(lp2573
(lp2574
I1040
ag1387
aa(lp2575
I1041
ag1228
aaaa(lp2576
I1043
aI1044
aS'to'
p2577
a(lp2578
(lp2579
I1043
ag1224
aa(lp2580
I1044
ag1228
aaaa(lp2581
I1046
aI1049
ag914
a(lp2582
(lp2583
I1046
ag1244
aa(lp2584
I1047
ag1250
aa(lp2585
I1048
ag1253
aa(lp2586
I1049
ag1294
aaaa(lp2587
I1051
aI1054
aS'your'
p2588
a(lp2589
(lp2590
I1051
ag1294
aa(lp2591
I1052
ag1228
aa(lp2592
I1053
ag1342
aa(lp2593
I1054
ag1226
aaaa(lp2594
I1056
aI1060
ag923
a(lp2595
(lp2596
I1056
ag1230
aa(lp2597
I1057
ag1342
aa(lp2598
I1058
ag1246
aa(lp2599
I1059
ag1242
aa(lp2600
I1060
ag1267
aaaa(lp2601
I1062
aI1063
aS'on'
p2602
a(lp2603
(lp2604
I1062
ag1228
aa(lp2605
I1063
ag1235
aaaa(lp2606
I1065
aI1068
aS'your'
p2607
a(lp2608
(lp2609
I1065
ag1294
aa(lp2610
I1066
ag1228
aa(lp2611
I1067
ag1342
aa(lp2612
I1068
ag1226
aaaa(lp2613
I1070
aI1079
ag932
a(lp2614
(lp2615
I1070
ag1242
aa(lp2616
I1071
ag1235
aa(lp2617
I1072
ag1246
aa(lp2618
I1073
ag1224
aa(lp2619
I1074
ag1226
aa(lp2620
I1075
ag1342
aa(lp2621
I1076
ag1230
aa(lp2622
I1077
ag1237
aa(lp2623
I1078
ag1235
aa(lp2624
I1079
ag1224
aaaa(lp2625
I1081
aI1084
ag941
a(lp2626
(lp2627
I1081
ag1230
aa(lp2628
I1082
ag1342
aa(lp2629
I1083
ag1246
aa(lp2630
I1084
ag1224
aaaa(lp2631
I1086
aI1087
aS'be'
p2632
a(lp2633
(lp2634
I1086
ag1232
aa(lp2635
I1087
ag1237
aaaa(lp2636
I1089
aI1090
aS'in'
p2637
a(lp2638
(lp2639
I1089
ag1242
aa(lp2640
I1090
ag1235
aaaa(lp2641
I1092
aI1097
ag950
a(lp2642
(lp2643
I1092
ag1226
aa(lp2644
I1093
ag1304
aa(lp2645
I1094
ag1294
aa(lp2646
I1095
ag1224
aa(lp2647
I1096
ag1304
aa(lp2648
I1097
ag1230
aaaa(lp2649
I1100
aI1101
aS'it'
p2650
a(lp2651
(lp2652
I1100
ag1242
aa(lp2653
I1101
ag1224
aaaa(lp2654
I1103
aI1104
aS'is'
p2655
a(lp2656
(lp2657
I1103
ag1242
aa(lp2658
I1104
ag1246
aaaa(lp2659
I1106
aI1114
ag959
a(lp2660
(lp2661
I1106
ag1242
aa(lp2662
I1107
ag1230
aa(lp2663
I1108
ag1244
aa(lp2664
I1109
ag1228
aa(lp2665
I1110
ag1226
aa(lp2666
I1111
ag1224
aa(lp2667
I1112
ag1253
aa(lp2668
I1113
ag1235
aa(lp2669
I1114
ag1224
aaaa(lp2670
I1116
aI1119
aS'that'
p2671
a(lp2672
(lp2673
I1116
ag1224
aa(lp2674
I1117
ag1304
aa(lp2675
I1118
ag1253
aa(lp2676
I1119
ag1224
aaaa(lp2677
I1121
aI1123
aS'you'
p2678
a(lp2679
(lp2680
I1121
ag1294
aa(lp2681
I1122
ag1228
aa(lp2682
I1123
ag1342
aaaa(lp2683
I1125
aI1127
aS'can'
p2684
a(lp2685
(lp2686
I1125
ag1267
aa(lp2687
I1126
ag1253
aa(lp2688
I1127
ag1235
aaaa(lp2689
I1129
aI1131
ag968
a(lp2690
(lp2691
I1129
ag1246
aa(lp2692
I1130
ag1253
aa(lp2693
I1131
ag1294
aaaa(lp2694
I1133
aI1135
aS'the'
p2695
a(lp2696
(lp2697
I1133
ag1224
aa(lp2698
I1134
ag1304
aa(lp2699
I1135
ag1237
aaaa(lp2700
I1137
aI1142
ag977
a(lp2701
(lp2702
I1137
ag1226
aa(lp2703
I1138
ag1304
aa(lp2704
I1139
ag1294
aa(lp2705
I1140
ag1224
aa(lp2706
I1141
ag1304
aa(lp2707
I1142
ag1230
aaaa(lp2708
I1144
aI1146
aS'out'
p2709
a(lp2710
(lp2711
I1144
ag1228
aa(lp2712
I1145
ag1342
aa(lp2713
I1146
ag1224
aaaa(lp2714
I1148
aI1151
ag986
a(lp2715
(lp2716
I1148
ag1250
aa(lp2717
I1149
ag1228
aa(lp2718
I1150
ag1342
aa(lp2719
I1151
ag1387
aaaa(lp2720
I1153
aI1161
ag995
a(lp2721
(lp2722
I1153
ag1267
aa(lp2723
I1154
ag1228
aa(lp2724
I1155
ag1226
aa(lp2725
I1156
ag1226
aa(lp2726
I1157
ag1237
aa(lp2727
I1158
ag1267
aa(lp2728
I1159
ag1224
aa(lp2729
I1160
ag1250
aa(lp2730
I1161
ag1294
aaaa(lp2731
I1163
aI1167
ag1004
a(lp2732
(lp2733
I1163
ag1346
aa(lp2734
I1164
ag1242
aa(lp2735
I1165
ag1226
aa(lp2736
I1166
ag1246
aa(lp2737
I1167
ag1224
aaaa(lp2738
I1170
aI1171
aS'if'
p2739
a(lp2740
(lp2741
I1170
ag1242
aa(lp2742
I1171
ag1346
aaaa(lp2743
I1173
aI1175
aS'you'
p2744
a(lp2745
(lp2746
I1173
ag1294
aa(lp2747
I1174
ag1228
aa(lp2748
I1175
ag1342
aaaa(lp2749
I1177
aI1179
aS'can'
p2750
a(lp2751
(lp2752
I1177
ag1267
aa(lp2753
I1178
ag1253
aa(lp2754
I1179
ag1235
aaaa(lp2755
I1181
aI1183
ag1013
a(lp2756
(lp2757
I1181
ag1246
aa(lp2758
I1182
ag1253
aa(lp2759
I1183
ag1294
aaaa(lp2760
I1185
aI1186
aS'it'
p2761
a(lp2762
(lp2763
I1185
ag1242
aa(lp2764
I1186
ag1224
aaaa(lp2765
I1188
aI1189
aS'in'
p2766
a(lp2767
(lp2768
I1188
ag1242
aa(lp2769
I1189
ag1235
aaaa(lp2770
I1191
aI1196
ag1022
a(lp2771
(lp2772
I1191
ag1226
aa(lp2773
I1192
ag1304
aa(lp2774
I1193
ag1294
aa(lp2775
I1194
ag1224
aa(lp2776
I1195
ag1304
aa(lp2777
I1196
ag1230
aaaa(lp2778
I1199
aI1202
aS'then'
p2779
a(lp2780
(lp2781
I1199
ag1224
aa(lp2782
I1200
ag1304
aa(lp2783
I1201
ag1237
aa(lp2784
I1202
ag1235
aaaa(lp2785
I1204
aI1206
aS'you'
p2786
a(lp2787
(lp2788
I1204
ag1294
aa(lp2789
I1205
ag1228
aa(lp2790
I1206
ag1342
aaaa(lp2791
I1208
aI1210
aS'can'
p2792
a(lp2793
(lp2794
I1208
ag1267
aa(lp2795
I1209
ag1253
aa(lp2796
I1210
ag1235
aaaa(lp2797
I1212
aI1215
ag1031
a(lp2798
(lp2799
I1212
ag1246
aa(lp2800
I1213
ag1224
aa(lp2801
I1214
ag1253
aa(lp2802
I1215
ag1294
aaaa(lp2803
I1217
aI1218
aS'in'
p2804
a(lp2805
(lp2806
I1217
ag1242
aa(lp2807
I1218
ag1235
aaaa(lp2808
I1220
aI1225
ag1040
a(lp2809
(lp2810
I1220
ag1226
aa(lp2811
I1221
ag1304
aa(lp2812
I1222
ag1294
aa(lp2813
I1223
ag1224
aa(lp2814
I1224
ag1304
aa(lp2815
I1225
ag1230
aaaa(lp2816
I1227
aI1228
aS'as'
p2817
a(lp2818
(lp2819
I1227
ag1253
aa(lp2820
I1228
ag1246
aaaa(lp2821
I1230
aI1232
aS'you'
p2822
a(lp2823
(lp2824
I1230
ag1294
aa(lp2825
I1231
ag1228
aa(lp2826
I1232
ag1342
aaaa(lp2827
I1234
aI1238
ag1049
a(lp2828
(lp2829
I1234
ag1250
aa(lp2830
I1235
ag1237
aa(lp2831
I1236
ag1253
aa(lp2832
I1237
ag1226
aa(lp2833
I1238
ag1235
aaaa(lp2834
I1240
aI1241
aS'to'
p2835
a(lp2836
(lp2837
I1240
ag1224
aa(lp2838
I1241
ag1228
aaaa(lp2839
I1243
aI1246
ag1058
a(lp2840
(lp2841
I1243
ag1244
aa(lp2842
I1244
ag1250
aa(lp2843
I1245
ag1253
aa(lp2844
I1246
ag1294
aaaa(lp2845
I1248
aI1254
aS'because'
p2846
a(lp2847
(lp2848
I1248
ag1232
aa(lp2849
I1249
ag1237
aa(lp2850
I1250
ag1267
aa(lp2851
I1251
ag1253
aa(lp2852
I1252
ag1342
aa(lp2853
I1253
ag1246
aa(lp2854
I1254
ag1237
aaaa(lp2855
I1256
aI1258
aS'you'
p2856
a(lp2857
(lp2858
I1256
ag1294
aa(lp2859
I1257
ag1228
aa(lp2860
I1258
ag1342
aaaa(lp2861
I1260
aI1266
ag1067
a(lp2862
(lp2863
I1260
ag1253
aa(lp2864
I1261
ag1250
aa(lp2865
I1262
ag1226
aa(lp2866
I1263
ag1237
aa(lp2867
I1264
ag1253
aa(lp2868
I1265
ag1387
aa(lp2869
I1266
ag1294
aaaa(lp2870
I1268
aI1271
ag1076
a(lp2871
(lp2872
I1268
ag1396
aa(lp2873
I1269
ag1235
aa(lp2874
I1270
ag1228
aa(lp2875
I1271
ag1332
aaaa(lp2876
I1273
aI1275
aS'how'
p2877
a(lp2878
(lp2879
I1273
ag1304
aa(lp2880
I1274
ag1228
aa(lp2881
I1275
ag1332
aaaa(lp2882
I1277
aI1279
aS'the'
p2883
a(lp2884
(lp2885
I1277
ag1224
aa(lp2886
I1278
ag1304
aa(lp2887
I1279
ag1237
aaaa(lp2888
I1281
aI1286
ag1085
a(lp2889
(lp2890
I1281
ag1226
aa(lp2891
I1282
ag1304
aa(lp2892
I1283
ag1294
aa(lp2893
I1284
ag1224
aa(lp2894
I1285
ag1304
aa(lp2895
I1286
ag1230
aaaa(lp2896
I1288
aI1291
ag1094
a(lp2897
(lp2898
I1288
ag1458
aa(lp2899
I1289
ag1228
aa(lp2900
I1290
ag1237
aa(lp2901
I1291
ag1246
aaaa(lp2902
I1294
aI1295
aS'if'
p2903
a(lp2904
(lp2905
I1294
ag1242
aa(lp2906
I1295
ag1346
aaaa(lp2907
I1297
aI1299
aS'you'
p2908
a(lp2909
(lp2910
I1297
ag1294
aa(lp2911
I1298
ag1228
aa(lp2912
I1299
ag1342
aaaa(lp2913
I1301
aI1304
ag1103
a(lp2914
(lp2915
I1301
ag1244
aa(lp2916
I1302
ag1250
aa(lp2917
I1303
ag1253
aa(lp2918
I1304
ag1294
aaaa(lp2919
I1306
aI1308
aS'out'
p2920
a(lp2921
(lp2922
I1306
ag1228
aa(lp2923
I1307
ag1342
aa(lp2924
I1308
ag1224
aaaa(lp2925
I1310
aI1311
aS'of'
p2926
a(lp2927
(lp2928
I1310
ag1228
aa(lp2929
I1311
ag1346
aaaa(lp2930
I1313
aI1318
ag1112
a(lp2931
(lp2932
I1313
ag1226
aa(lp2933
I1314
ag1304
aa(lp2934
I1315
ag1294
aa(lp2935
I1316
ag1224
aa(lp2936
I1317
ag1304
aa(lp2937
I1318
ag1230
aaaa(lp2938
I1321
aI1323
aS'you'
p2939
a(lp2940
(lp2941
I1321
ag1294
aa(lp2942
I1322
ag1228
aa(lp2943
I1323
ag1342
aaaa(lp2944
I1325
aI1328
aS'will'
p2945
a(lp2946
(lp2947
I1325
ag1332
aa(lp2948
I1326
ag1242
aa(lp2949
I1327
ag1250
aa(lp2950
I1328
ag1250
aaaa(lp2951
I1330
aI1331
aS'be'
p2952
a(lp2953
(lp2954
I1330
ag1232
aa(lp2955
I1331
ag1237
aaaa(lp2956
I1333
aI1336
ag1121
a(lp2957
(lp2958
I1333
ag1253
aa(lp2959
I1334
ag1232
aa(lp2960
I1335
ag1250
aa(lp2961
I1336
ag1237
aaaa(lp2962
I1338
aI1339
aS'to'
p2963
a(lp2964
(lp2965
I1338
ag1224
aa(lp2966
I1339
ag1228
aaaa(lp2967
I1341
aI1344
ag1130
a(lp2968
(lp2969
I1341
ag1224
aa(lp2970
I1342
ag1237
aa(lp2971
I1343
ag1250
aa(lp2972
I1344
ag1250
aaaa(lp2973
I1346
aI1348
aS'the'
p2974
a(lp2975
(lp2976
I1346
ag1224
aa(lp2977
I1347
ag1304
aa(lp2978
I1348
ag1237
aaaa(lp2979
I1350
aI1359
ag1139
a(lp2980
(lp2981
I1350
ag1387
aa(lp2982
I1351
ag1242
aa(lp2983
I1352
ag1346
aa(lp2984
I1353
ag1346
aa(lp2985
I1354
ag1237
aa(lp2986
I1355
ag1226
aa(lp2987
I1356
ag1237
aa(lp2988
I1357
ag1235
aa(lp2989
I1358
ag1267
aa(lp2990
I1359
ag1237
aaaa(lp2991
I1361
aI1362
aS'so'
p2992
a(lp2993
(lp2994
I1361
ag1246
aa(lp2995
I1362
ag1228
aaaa(lp2996
I1364
aI1366
aS'you'
p2997
a(lp2998
(lp2999
I1364
ag1294
aa(lp3000
I1365
ag1228
aa(lp3001
I1366
ag1342
aaaa(lp3002
I1368
aI1370
aS'can'
p3003
a(lp3004
(lp3005
I1368
ag1267
aa(lp3006
I1369
ag1253
aa(lp3007
I1370
ag1235
aaaa(lp3008
I1372
aI1378
ag1148
a(lp3009
(lp3010
I1372
ag1267
aa(lp3011
I1373
ag1228
aa(lp3012
I1374
ag1226
aa(lp3013
I1375
ag1226
aa(lp3014
I1376
ag1237
aa(lp3015
I1377
ag1267
aa(lp3016
I1378
ag1224
aaaa(lp3017
I1380
aI1387
aS'yourself'
p3018
a(lp3019
(lp3020
I1380
ag1294
aa(lp3021
I1381
ag1228
aa(lp3022
I1382
ag1342
aa(lp3023
I1383
ag1226
aa(lp3024
I1384
ag1246
aa(lp3025
I1385
ag1237
aa(lp3026
I1386
ag1250
aa(lp3027
I1387
ag1346
aaaa(lp3028
I1389
aI1391
aS'and'
p3029
a(lp3030
(lp3031
I1389
ag1253
aa(lp3032
I1390
ag1235
aa(lp3033
I1391
ag1387
aaaa(lp3034
I1393
aI1396
ag1157
a(lp3035
(lp3036
I1393
ag1244
aa(lp3037
I1394
ag1250
aa(lp3038
I1395
ag1253
aa(lp3039
I1396
ag1294
aaaa(lp3040
I1398
aI1399
aS'in'
p3041
a(lp3042
(lp3043
I1398
ag1242
aa(lp3044
I1399
ag1235
aaaa(lp3045
I1401
aI1406
ag1166
a(lp3046
(lp3047
I1401
ag1226
aa(lp3048
I1402
ag1304
aa(lp3049
I1403
ag1294
aa(lp3050
I1404
ag1224
aa(lp3051
I1405
ag1304
aa(lp3052
I1406
ag1230
aaaa(lp3053
I1408
aI1409
aS'as'
p3054
a(lp3055
(lp3056
I1408
ag1253
aa(lp3057
I1409
ag1246
aaaa(lp3058
I1411
aI1413
aS'you'
p3059
a(lp3060
(lp3061
I1411
ag1294
aa(lp3062
I1412
ag1228
aa(lp3063
I1413
ag1342
aaaa(lp3064
I1415
aI1422
ag1175
a(lp3065
(lp3066
I1415
ag1244
aa(lp3067
I1416
ag1226
aa(lp3068
I1417
ag1253
aa(lp3069
I1418
ag1267
aa(lp3070
I1419
ag1224
aa(lp3071
I1420
ag1242
aa(lp3072
I1421
ag1267
aa(lp3073
I1422
ag1237
aaaa(lp3074
I1425
aI1433
ag1184
a(lp3075
(lp3076
I1425
ag1267
aa(lp3077
I1426
ag1228
aa(lp3078
I1427
ag1244
aa(lp3079
I1428
ag1294
aa(lp3080
I1429
ag1226
aa(lp3081
I1430
ag1242
aa(lp3082
I1431
ag1458
aa(lp3083
I1432
ag1304
aa(lp3084
I1433
ag1224
aaaa(lp3085
I1435
aI1440
ag1193
a(lp3086
(lp3087
I1435
ag1235
aa(lp3088
I1436
ag1228
aa(lp3089
I1437
ag1226
aa(lp3090
I1438
ag1250
aa(lp3091
I1439
ag1253
aa(lp3092
I1440
ag1235
aaaa(lp3093
I1442
aI1447
ag1202
a(lp3094
(lp3095
I1442
ag1232
aa(lp3096
I1443
ag1237
aa(lp3097
I1444
ag1332
aa(lp3098
I1445
ag1250
aa(lp3099
I1446
ag1237
aa(lp3100
I1447
ag1294
aaaa(lp3101
I1442
aI1447
ag1211
a(lp3102
(lp3103
I1449
ag60
aa(lp3104
I1450
aS'9'
p3105
aa(lp3106
I1451
ag3105
aa(lp3107
I1452
ag3105
aaaasS'cleanCharacterMap'
p3108
(lp3109
g1223
ag1225
ag1227
ag1229
ag1231
ag1233
ag1234
ag1236
a(lp3110
I9
aS' '
p3111
aag1240
ag1241
ag1243
ag1245
a(lp3112
I15
ag3111
aag1249
ag1251
ag1252
ag1254
ag1255
a(lp3113
I22
ag3111
aag1259
ag1260
a(lp3114
I25
ag3111
aag1263
ag1264
ag1265
ag1266
ag1268
ag1269
ag1270
ag1271
a(lp3115
I34
ag3111
aag1274
ag1276
ag1278
a(lp3116
I38
ag3111
aag1282
ag1283
ag1284
ag1285
a(lp3117
I43
ag3111
aag1288
a(lp3118
I46
ag3111
aag1291
ag1292
ag1293
a(lp3119
I50
ag3111
aag1298
ag1299
a(lp3120
I53
ag3111
aag1302
ag1303
ag1305
ag1306
ag1307
ag1308
a(lp3121
I61
ag3111
aag1311
ag1312
ag1313
ag1314
a(lp3122
I66
ag3111
aag1318
ag1319
a(lp3123
I69
ag3111
aag1322
ag1323
ag1324
ag1325
ag1326
ag1327
a(lp3124
I77
ag3111
aag1331
ag1333
ag1334
ag1335
a(lp3125
I82
ag3111
aag1339
ag1340
ag1341
a(lp3126
I86
ag3111
aag1345
ag1347
ag1348
ag1349
ag1350
a(lp3127
I92
ag3111
aag1353
ag1354
ag1355
ag1356
ag1357
ag1358
ag1359
ag1360
a(lp3128
I101
ag3111
aag1364
ag1365
ag1366
ag1367
a(lp3129
I106
ag3111
aag1370
ag1371
ag1372
ag1373
ag1374
a(lp3130
I113
ag3111
aag1378
ag1379
ag1380
a(lp3131
I117
ag3111
aag1383
ag1384
ag1385
ag1386
a(lp3132
I122
ag3111
aag1391
ag1392
a(lp3133
I125
ag3111
aag1395
ag1397
ag1398
ag1399
a(lp3134
I130
ag3111
aag1403
ag1404
ag1405
a(lp3135
I134
ag3111
aag1409
ag1410
ag1411
a(lp3136
I138
ag3111
aag1414
ag1415
ag1416
ag1417
ag1418
ag1419
a(lp3137
I145
ag3111
aag1422
ag1423
ag1424
ag1425
ag1426
ag1427
a(lp3138
I152
ag3111
aag1431
ag1432
ag1433
ag1434
ag1435
ag1436
a(lp3139
I159
ag3111
aag1440
ag1441
ag1442
a(lp3140
I163
ag3111
aag1446
ag1447
a(lp3141
I166
ag3111
aag1450
ag1451
ag1452
ag1453
ag1454
ag1455
ag1456
ag1457
a(lp3142
I175
ag3111
aag1461
ag1462
ag1463
ag1464
a(lp3143
I181
ag3111
aag1468
ag1469
a(lp3144
I184
ag3111
aag1472
ag1473
ag1474
ag1475
ag1476
a(lp3145
I191
ag3111
aag1479
ag1480
ag1482
ag1483
ag1484
ag1485
ag1486
ag1487
ag1488
ag1489
a(lp3146
I202
ag3111
aag1492
ag1493
ag1494
ag1495
ag1496
a(lp3147
I208
ag3111
aag1500
ag1501
a(lp3148
I211
ag3111
aag1505
ag1506
ag1507
a(lp3149
I215
ag3111
aag1510
ag1511
ag1512
ag1513
ag1514
ag1515
a(lp3150
I223
ag3111
aag1519
ag1520
ag1521
ag1522
a(lp3151
I228
ag3111
aag1525
ag1526
ag1527
ag1528
ag1529
a(lp3152
I234
ag3111
aag1533
ag1534
ag1535
ag1536
a(lp3153
I239
ag3111
aag1539
ag1540
ag1541
ag1542
ag1543
ag1544
ag1545
ag1546
ag1547
ag1548
a(lp3154
I250
ag3111
aag1552
ag1553
ag1554
a(lp3155
I254
ag3111
aag1557
ag1558
ag1559
ag1560
a(lp3156
I259
ag3111
aag1564
ag1565
a(lp3157
I262
ag3111
aag1569
ag1570
a(lp3158
I265
ag3111
aag1573
ag1574
ag1575
ag1576
a(lp3159
I270
ag3111
aag1579
ag1580
ag1581
ag1582
ag1583
a(lp3160
I276
ag3111
aag1587
ag1588
a(lp3161
I279
ag3111
aag1592
ag1593
a(lp3162
I282
ag3111
aag1596
ag1597
ag1598
ag1599
ag1600
ag1601
ag1602
ag1603
ag1604
ag1605
a(lp3163
I293
ag3111
aag1609
ag1610
ag1611
a(lp3164
I297
ag3111
aag1614
ag1615
ag1616
ag1617
a(lp3165
I302
ag3111
aag1620
ag1621
ag1622
ag1623
ag1624
a(lp3166
I308
ag3111
aag1628
ag1629
a(lp3167
I311
ag3111
aag1633
ag1634
a(lp3168
I314
ag3111
aag1638
ag1639
a(lp3169
I317
ag3111
aag1642
ag1643
ag1644
ag1645
ag1646
ag1647
a(lp3170
I324
ag3111
aag1651
ag1652
a(lp3171
I327
ag3111
aag1655
a(lp3172
I329
ag3111
aag1658
ag1659
ag1660
ag1661
ag1662
ag1663
a(lp3173
I336
ag3111
aag1666
ag1667
ag1668
ag1669
ag1670
a(lp3174
I343
ag3111
aag1674
ag1675
ag1676
a(lp3175
I347
ag3111
aag1679
ag1680
ag1681
ag1682
ag1683
a(lp3176
I353
ag3111
aag1686
ag1687
ag1688
ag1689
a(lp3177
I358
ag3111
aag1693
ag1694
a(lp3178
I361
ag3111
aag1698
ag1699
a(lp3179
I364
ag3111
aag1702
ag1703
ag1704
ag1705
ag1706
ag1707
a(lp3180
I371
ag3111
aag1711
ag1712
ag1713
a(lp3181
I375
ag3111
aag1717
ag1718
ag1719
a(lp3182
I379
ag3111
aag1723
ag1724
ag1725
a(lp3183
I383
ag3111
aag1728
ag1729
ag1730
ag1731
ag1732
ag1733
a(lp3184
I390
ag3111
aag1736
ag1737
ag1738
ag1739
a(lp3185
I396
ag3111
aag1742
ag1743
ag1744
a(lp3186
I400
ag3111
aag1747
ag1748
ag1749
ag1750
ag1751
ag1752
a(lp3187
I407
ag3111
aag1756
ag1757
ag1758
a(lp3188
I411
ag3111
aag1761
ag1762
ag1763
ag1764
ag1765
ag1766
a(lp3189
I418
ag3111
aag1770
ag1771
ag1772
a(lp3190
I422
ag3111
aag1775
ag1776
ag1777
ag1778
a(lp3191
I427
ag3111
aag1782
ag1783
a(lp3192
I430
ag3111
aag1786
ag1787
ag1788
a(lp3193
I435
ag3111
aag1792
ag1793
ag1794
a(lp3194
I440
ag3111
aag1798
ag1799
a(lp3195
I443
ag3111
aag1802
ag1803
ag1804
a(lp3196
I448
ag3111
aag1807
ag1808
ag1809
ag1810
ag1811
ag1812
ag1813
ag1814
ag1815
a(lp3197
I458
ag3111
aag1819
ag1820
ag1821
a(lp3198
I462
ag3111
aag1824
ag1825
ag1826
a(lp3199
I467
ag3111
aag1829
ag1830
ag1831
ag1832
a(lp3200
I472
ag3111
aag1836
ag1837
ag1838
a(lp3201
I476
ag3111
aag1841
ag1842
ag1843
ag1844
ag1845
a(lp3202
I482
ag3111
aag1848
ag1849
ag1850
ag1851
ag1852
ag1853
a(lp3203
I489
ag3111
aag1857
ag1858
ag1859
a(lp3204
I493
ag3111
aag1862
ag1863
ag1864
a(lp3205
I497
ag3111
aag1868
ag1869
ag1870
a(lp3206
I501
ag3111
aag1873
ag1874
ag1875
ag1876
ag1877
ag1878
a(lp3207
I508
ag3111
aag1882
ag1884
ag1885
ag1886
a(lp3208
I513
ag3111
aag1889
ag1890
ag1891
ag1892
a(lp3209
I518
ag3111
aag1896
ag1897
ag1898
a(lp3210
I522
ag3111
aag1901
ag1902
ag1903
ag1904
ag1905
a(lp3211
I528
ag3111
aag1908
ag1909
ag1910
ag1911
a(lp3212
I533
ag3111
aag1915
ag1916
a(lp3213
I537
ag3111
aag1920
ag1921
a(lp3214
I540
ag3111
aag1925
ag1926
ag1927
a(lp3215
I544
ag3111
aag1931
ag1932
ag1933
ag1934
a(lp3216
I549
ag3111
aag1937
ag1938
ag1939
ag1940
ag1941
ag1942
ag1943
a(lp3217
I557
ag3111
aag1947
ag1948
a(lp3218
I560
ag3111
aag1952
ag1953
ag1954
ag1955
a(lp3219
I565
ag3111
aag1958
ag1959
ag1960
ag1961
ag1962
ag1963
a(lp3220
I573
ag3111
aag1966
ag1967
ag1968
a(lp3221
I577
ag3111
aag1972
ag1973
ag1974
a(lp3222
I581
ag3111
aag1978
ag1979
ag1980
a(lp3223
I585
ag3111
aag1983
ag1984
ag1985
ag1986
ag1987
ag1988
ag1989
a(lp3224
I593
ag3111
aag1992
ag1993
ag1994
a(lp3225
I597
ag3111
aag1998
ag1999
a(lp3226
I600
ag3111
aag2003
ag2004
a(lp3227
I603
ag3111
aag2008
ag2009
ag2010
a(lp3228
I607
ag3111
aag2013
ag2014
ag2015
ag2016
ag2017
a(lp3229
I613
ag3111
aag2021
ag2022
a(lp3230
I616
ag3111
aag2026
ag2027
ag2028
ag2029
a(lp3231
I621
ag3111
aag2032
ag2033
ag2034
ag2035
ag2036
ag2037
ag2038
a(lp3232
I630
ag3111
aag2042
ag2043
ag2044
ag2045
a(lp3233
I635
ag3111
aag2048
ag2049
ag2050
ag2051
ag2052
ag2053
a(lp3234
I642
ag3111
aag2056
ag2057
ag2058
ag2059
a(lp3235
I647
ag3111
aag2063
ag2064
a(lp3236
I650
ag3111
aag2067
ag2068
ag2069
ag2070
a(lp3237
I655
ag3111
aag2073
a(lp3238
I658
ag3111
aag2076
ag2077
ag2078
ag2079
a(lp3239
I663
ag3111
aag2082
ag2084
ag2085
ag2086
ag2088
ag2090
ag2091
ag2092
ag2093
ag2095
ag2096
ag2097
ag2098
ag2099
ag2100
a(lp3240
I680
ag3111
aag2103
ag2104
ag2105
ag2106
ag2107
a(lp3241
I686
ag3111
aag2111
ag2112
a(lp3242
I689
ag3111
aag2115
ag2116
ag2117
a(lp3243
I693
ag3111
aag2121
ag2122
ag2123
a(lp3244
I697
ag3111
aag2126
ag2127
ag2128
ag2129
ag2130
ag2131
a(lp3245
I704
ag3111
aag2135
ag2136
ag2137
a(lp3246
I708
ag3111
aag2140
ag2141
ag2142
ag2143
a(lp3247
I713
ag3111
aag2147
ag2148
ag2149
ag2150
a(lp3248
I718
ag3111
aag2153
ag2154
ag2155
ag2156
a(lp3249
I723
ag3111
aag2160
ag2161
a(lp3250
I726
ag3111
aag2165
ag2166
ag2167
a(lp3251
I730
ag3111
aag2170
ag2171
ag2172
ag2173
ag2174
ag2175
a(lp3252
I737
ag3111
aag2178
ag2179
ag2180
ag2181
a(lp3253
I742
ag3111
aag2185
ag2186
ag2187
a(lp3254
I746
ag3111
aag2191
ag2192
a(lp3255
I749
ag3111
aag2195
ag2196
ag2197
ag2198
a(lp3256
I755
ag3111
aag2201
ag2202
ag2203
a(lp3257
I759
ag3111
aag2207
ag2208
ag2209
ag2210
a(lp3258
I764
ag3111
aag2214
ag2215
a(lp3259
I767
ag3111
aag2218
a(lp3260
I769
ag3111
aag2221
ag2222
ag2223
ag2224
a(lp3261
I774
ag3111
aag2228
ag2229
a(lp3262
I777
ag3111
aag2232
ag2233
ag2234
ag2235
a(lp3263
I782
ag3111
aag2239
ag2240
a(lp3264
I785
ag3111
aag2243
ag2244
ag2245
a(lp3265
I789
ag3111
aag2249
ag2250
ag2251
a(lp3266
I793
ag3111
aag2254
ag2255
ag2256
ag2257
a(lp3267
I798
ag3111
aag2261
ag2262
ag2263
a(lp3268
I802
ag3111
aag2267
ag2268
ag2269
a(lp3269
I806
ag3111
aag2272
ag2273
ag2274
a(lp3270
I810
ag3111
aag2278
ag2279
ag2280
a(lp3271
I814
ag3111
aag2283
ag2284
ag2285
ag2286
ag2287
ag2288
a(lp3272
I821
ag3111
aag2292
ag2293
ag2294
ag2295
ag2296
ag2297
a(lp3273
I828
ag3111
aag2301
ag2302
ag2303
a(lp3274
I832
ag3111
aag2307
ag2308
a(lp3275
I835
ag3111
aag2311
ag2312
ag2313
ag2314
ag2315
ag2316
ag2317
ag2318
a(lp3276
I844
ag3111
aag2321
ag2322
ag2323
ag2324
a(lp3277
I849
ag3111
aag2328
ag2329
ag2330
ag2331
a(lp3278
I854
ag3111
aag2335
ag2336
ag2337
a(lp3279
I858
ag3111
aag2340
ag2341
ag2342
ag2343
ag2344
a(lp3280
I865
ag3111
aag2348
ag2349
ag2350
ag2351
a(lp3281
I870
ag3111
aag2354
ag2355
ag2356
ag2357
ag2358
a(lp3282
I876
ag3111
aag2362
ag2363
ag2364
ag2365
a(lp3283
I881
ag3111
aag2369
ag2370
a(lp3284
I884
ag3111
aag2373
ag2374
ag2375
ag2376
a(lp3285
I890
ag3111
aag2380
ag2381
ag2382
ag2383
a(lp3286
I895
ag3111
aag2386
ag2387
ag2388
ag2389
ag2390
a(lp3287
I901
ag3111
aag2394
ag2395
ag2396
ag2397
a(lp3288
I906
ag3111
aag2401
ag2402
ag2403
a(lp3289
I910
ag3111
aag2407
ag2408
a(lp3290
I913
ag3111
aag2412
ag2413
a(lp3291
I916
ag3111
aag2416
ag2417
ag2418
ag2419
a(lp3292
I922
ag3111
aag2423
ag2424
ag2425
a(lp3293
I926
ag3111
aag2428
ag2429
ag2430
a(lp3294
I930
ag3111
aag2434
ag2435
a(lp3295
I933
ag3111
aag2438
ag2439
ag2440
ag2441
ag2442
ag2443
ag2444
ag2445
ag2446
a(lp3296
I943
ag3111
aag2450
ag2451
ag2452
ag2453
a(lp3297
I948
ag3111
aag2457
ag2458
ag2459
a(lp3298
I952
ag3111
aag2462
ag2463
ag2464
ag2465
a(lp3299
I957
ag3111
aag2469
ag2470
a(lp3300
I960
ag3111
aag2473
ag2474
ag2475
ag2476
a(lp3301
I965
ag3111
aag2480
ag2481
a(lp3302
I968
ag3111
aag2485
ag2486
ag2487
a(lp3303
I972
ag3111
aag2490
ag2491
ag2492
ag2493
ag2494
ag2495
a(lp3304
I979
ag3111
aag2499
ag2500
a(lp3305
I982
ag3111
aag2503
ag2504
ag2505
ag2506
a(lp3306
I987
ag3111
aag2510
ag2511
ag2512
a(lp3307
I991
ag3111
aag2515
ag2516
ag2517
ag2518
a(lp3308
I996
ag3111
aag2522
ag2523
ag2524
ag2525
a(lp3309
I1001
ag3111
aag2529
ag2530
ag2531
a(lp3310
I1005
ag3111
aag2535
ag2536
a(lp3311
I1009
ag3111
aag2539
ag2540
ag2541
ag2542
ag2543
ag2544
ag2545
ag2546
a(lp3312
I1019
ag3111
aag2549
ag2550
ag2551
ag2552
ag2553
ag2554
ag2555
ag2556
ag2557
ag2558
a(lp3313
I1030
ag3111
aag2561
ag2562
ag2563
ag2564
a(lp3314
I1035
ag3111
aag2568
ag2569
ag2570
a(lp3315
I1039
ag3111
aag2574
ag2575
a(lp3316
I1042
ag3111
aag2579
ag2580
a(lp3317
I1045
ag3111
aag2583
ag2584
ag2585
ag2586
a(lp3318
I1050
ag3111
aag2590
ag2591
ag2592
ag2593
a(lp3319
I1055
ag3111
aag2596
ag2597
ag2598
ag2599
ag2600
a(lp3320
I1061
ag3111
aag2604
ag2605
a(lp3321
I1064
ag3111
aag2609
ag2610
ag2611
ag2612
a(lp3322
I1069
ag3111
aag2615
ag2616
ag2617
ag2618
ag2619
ag2620
ag2621
ag2622
ag2623
ag2624
a(lp3323
I1080
ag3111
aag2627
ag2628
ag2629
ag2630
a(lp3324
I1085
ag3111
aag2634
ag2635
a(lp3325
I1088
ag3111
aag2639
ag2640
a(lp3326
I1091
ag3111
aag2643
ag2644
ag2645
ag2646
ag2647
ag2648
a(lp3327
I1099
ag3111
aag2652
ag2653
a(lp3328
I1102
ag3111
aag2657
ag2658
a(lp3329
I1105
ag3111
aag2661
ag2662
ag2663
ag2664
ag2665
ag2666
ag2667
ag2668
ag2669
a(lp3330
I1115
ag3111
aag2673
ag2674
ag2675
ag2676
a(lp3331
I1120
ag3111
aag2680
ag2681
ag2682
a(lp3332
I1124
ag3111
aag2686
ag2687
ag2688
a(lp3333
I1128
ag3111
aag2691
ag2692
ag2693
a(lp3334
I1132
ag3111
aag2697
ag2698
ag2699
a(lp3335
I1136
ag3111
aag2702
ag2703
ag2704
ag2705
ag2706
ag2707
a(lp3336
I1143
ag3111
aag2711
ag2712
ag2713
a(lp3337
I1147
ag3111
aag2716
ag2717
ag2718
ag2719
a(lp3338
I1152
ag3111
aag2722
ag2723
ag2724
ag2725
ag2726
ag2727
ag2728
ag2729
ag2730
a(lp3339
I1162
ag3111
aag2733
ag2734
ag2735
ag2736
ag2737
a(lp3340
I1169
ag3111
aag2741
ag2742
a(lp3341
I1172
ag3111
aag2746
ag2747
ag2748
a(lp3342
I1176
ag3111
aag2752
ag2753
ag2754
a(lp3343
I1180
ag3111
aag2757
ag2758
ag2759
a(lp3344
I1184
ag3111
aag2763
ag2764
a(lp3345
I1187
ag3111
aag2768
ag2769
a(lp3346
I1190
ag3111
aag2772
ag2773
ag2774
ag2775
ag2776
ag2777
a(lp3347
I1198
ag3111
aag2781
ag2782
ag2783
ag2784
a(lp3348
I1203
ag3111
aag2788
ag2789
ag2790
a(lp3349
I1207
ag3111
aag2794
ag2795
ag2796
a(lp3350
I1211
ag3111
aag2799
ag2800
ag2801
ag2802
a(lp3351
I1216
ag3111
aag2806
ag2807
a(lp3352
I1219
ag3111
aag2810
ag2811
ag2812
ag2813
ag2814
ag2815
a(lp3353
I1226
ag3111
aag2819
ag2820
a(lp3354
I1229
ag3111
aag2824
ag2825
ag2826
a(lp3355
I1233
ag3111
aag2829
ag2830
ag2831
ag2832
ag2833
a(lp3356
I1239
ag3111
aag2837
ag2838
a(lp3357
I1242
ag3111
aag2841
ag2842
ag2843
ag2844
a(lp3358
I1247
ag3111
aag2848
ag2849
ag2850
ag2851
ag2852
ag2853
ag2854
a(lp3359
I1255
ag3111
aag2858
ag2859
ag2860
a(lp3360
I1259
ag3111
aag2863
ag2864
ag2865
ag2866
ag2867
ag2868
ag2869
a(lp3361
I1267
ag3111
aag2872
ag2873
ag2874
ag2875
a(lp3362
I1272
ag3111
aag2879
ag2880
ag2881
a(lp3363
I1276
ag3111
aag2885
ag2886
ag2887
a(lp3364
I1280
ag3111
aag2890
ag2891
ag2892
ag2893
ag2894
ag2895
a(lp3365
I1287
ag3111
aag2898
ag2899
ag2900
ag2901
a(lp3366
I1293
ag3111
aag2905
ag2906
a(lp3367
I1296
ag3111
aag2910
ag2911
ag2912
a(lp3368
I1300
ag3111
aag2915
ag2916
ag2917
ag2918
a(lp3369
I1305
ag3111
aag2922
ag2923
ag2924
a(lp3370
I1309
ag3111
aag2928
ag2929
a(lp3371
I1312
ag3111
aag2932
ag2933
ag2934
ag2935
ag2936
ag2937
a(lp3372
I1320
ag3111
aag2941
ag2942
ag2943
a(lp3373
I1324
ag3111
aag2947
ag2948
ag2949
ag2950
a(lp3374
I1329
ag3111
aag2954
ag2955
a(lp3375
I1332
ag3111
aag2958
ag2959
ag2960
ag2961
a(lp3376
I1337
ag3111
aag2965
ag2966
a(lp3377
I1340
ag3111
aag2969
ag2970
ag2971
ag2972
a(lp3378
I1345
ag3111
aag2976
ag2977
ag2978
a(lp3379
I1349
ag3111
aag2981
ag2982
ag2983
ag2984
ag2985
ag2986
ag2987
ag2988
ag2989
ag2990
a(lp3380
I1360
ag3111
aag2994
ag2995
a(lp3381
I1363
ag3111
aag2999
ag3000
ag3001
a(lp3382
I1367
ag3111
aag3005
ag3006
ag3007
a(lp3383
I1371
ag3111
aag3010
ag3011
ag3012
ag3013
ag3014
ag3015
ag3016
a(lp3384
I1379
ag3111
aag3020
ag3021
ag3022
ag3023
ag3024
ag3025
ag3026
ag3027
a(lp3385
I1388
ag3111
aag3031
ag3032
ag3033
a(lp3386
I1392
ag3111
aag3036
ag3037
ag3038
ag3039
a(lp3387
I1397
ag3111
aag3043
ag3044
a(lp3388
I1400
ag3111
aag3047
ag3048
ag3049
ag3050
ag3051
ag3052
a(lp3389
I1407
ag3111
aag3056
ag3057
a(lp3390
I1410
ag3111
aag3061
ag3062
ag3063
a(lp3391
I1414
ag3111
aag3066
ag3067
ag3068
ag3069
ag3070
ag3071
ag3072
ag3073
a(lp3392
I1424
ag3111
aag3076
ag3077
ag3078
ag3079
ag3080
ag3081
ag3082
ag3083
ag3084
a(lp3393
I1434
ag3111
aag3087
ag3088
ag3089
ag3090
ag3091
ag3092
a(lp3394
I1441
ag3111
aag3095
ag3096
ag3097
ag3098
ag3099
ag3100
a(lp3395
I1448
ag3111
aag3103
ag3104
ag3106
ag3107
asS'text'
p3396
S'"trombone tips" "learn to practice \xe2\x80\x93 step 1: say in rhythm, stay in rhythm" when you first practice your music, you need to know how the rhythm sounds before you do anything else. in music, everything meets at the rhythm. this means that everything you must do to play music on an instrument you must learn to do in rhythm at a steady tempo. the first step is to figure out how the rhythm goes. try saying the rhythm out loud on tah, too, or toh; whichever you use. keep the tempo steady and say the rhythm just like you would play it. if you have trouble in some places, see how the rhythms add up to the beats in each measure. what rhythm uses up beat 1? beat 2\xe2\x80\xa63\xe2\x80\xa64\xe2\x80\xa6etc. learn to say the rhythm out loud very well so you really know how it goes. use this as a game or test to see how well you can say the rhythm before you do anything else with the music. some music will be easy, some music will not be so easy. you may be surprised that you need to work on the rhythm as much you find that you do. remember: everything else you do to play your music on your instrument must be in rhythm. it is important that you can say the rhythm out loud correctly first. if you can say it in rhythm, then you can stay in rhythm as you learn to play because you already know how the rhythm goes. if you play out of rhythm, you will be able to tell the difference so you can correct yourself and play in rhythm as you practice. copyright norlan bewley 1999'
p3397
sS'cleanWordMap'
p3398
(lp3399
g1221
ag1238
ag1247
ag1261
ag1272
ag1280
ag1286
ag1289
ag1300
ag1309
ag1320
ag1343
ag1351
ag1368
ag1381
ag1393
ag1412
ag1420
ag1448
ag1459
ag1470
ag1477
ag1490
ag1508
ag1523
ag1537
ag1555
ag1571
ag1577
ag1594
ag1612
ag1618
ag1640
ag1656
ag1664
ag1677
ag1684
ag1700
ag1726
ag1734
ag1740
ag1745
ag1759
ag1773
ag1784
ag1800
ag1805
ag1822
ag1827
ag1839
ag1846
ag1860
ag1871
ag1887
ag1899
ag1906
ag1935
ag1956
ag1964
ag1981
ag1990
ag2011
ag2030
ag2046
ag2054
ag2065
ag2071
ag2074
ag2080
ag2101
ag2113
ag2124
ag2138
ag2151
ag2168
ag2176
ag2193
ag2199
ag2219
ag2230
ag2241
ag2252
ag2270
ag2281
ag2309
ag2319
ag2338
ag2352
ag2371
ag2384
ag2414
ag2426
ag2436
ag2460
ag2471
ag2488
ag2501
ag2513
ag2537
ag2547
ag2559
ag2581
ag2594
ag2613
ag2625
ag2641
ag2659
ag2689
ag2700
ag2714
ag2720
ag2731
ag2755
ag2770
ag2797
ag2808
ag2827
ag2839
ag2861
ag2870
ag2888
ag2896
ag2913
ag2930
ag2956
ag2967
ag2979
ag3008
ag3034
ag3045
ag3064
ag3074
ag3085
ag3093
ag3101
asS'lines'
p3400
(lp3401
V"trombone tips"\u000a
p3402
aV"Learn To Practice \u2013 Step 1: Say In Rhythm, Stay In Rhythm"\u000a
p3403
aVWhen you first practice your music, you need to know how the rhythm sounds before you do anything else. In music, everything meets at the rhythm. This means that everything you must do to play music on an instrument you must learn to do in rhythm at a steady tempo. The first step is to figure out how the rhythm goes.\u000a
p3404
aVTry saying the rhythm out loud on Tah, Too, or Toh; whichever you use. Keep the tempo steady and say the rhythm just like you would play it. If you have trouble in some places, see how the rhythms add up to the beats in each measure. What rhythm uses up beat 1? Beat 2\u20263\u20264\u2026etc.\u000a
p3405
aVLearn to say the rhythm out loud very well so you really know how it goes. Use this as a game or test to see how well you can say the rhythm before you do anything else with the music. Some music will be easy, some music will not be so easy. You may be surprised that you need to work on the rhythm as much you find that you do.\u000a
p3406
aVRemember: Everything else you do to play your music on your instrument must be in rhythm. It is important that you can say the rhythm out loud correctly first. If you can say it in rhythm, then you can stay in rhythm as you learn to play because you already know how the rhythm goes. If you play out of rhythm, you will be able to tell the difference so you can correct yourself and play in rhythm as you practice.\u000a
p3407
aVCopyright Norlan Bewley 1999
p3408
asS'docType'
p3409
S'src'
p3410
sS'newfmap'
p3411
(lp3412
g4
ag8
ag10
ag12
ag14
ag17
ag19
ag21
ag23
ag26
ag28
ag30
ag32
ag35
ag37
ag39
ag41
ag44
ag46
ag48
ag50
ag53
ag55
ag57
ag59
ag62
ag64
ag66
ag68
ag71
ag73
ag75
ag80
ag82
ag84
ag86
ag89
ag91
ag93
ag95
ag102
ag104
ag107
ag109
ag111
ag113
ag116
ag118
ag120
ag122
ag125
ag127
ag129
ag131
ag134
ag136
ag138
ag140
ag143
ag145
ag147
ag149
ag152
ag154
ag156
ag158
ag161
ag163
ag165
ag167
ag170
ag172
ag174
ag176
ag179
ag181
ag183
ag188
ag190
ag192
ag194
ag197
ag199
ag201
ag203
ag206
ag208
ag210
ag212
ag215
ag217
ag219
ag221
ag224
ag226
ag228
ag230
ag233
ag235
ag237
ag239
ag242
ag244
ag246
ag248
ag251
ag253
ag257
ag260
ag262
ag264
ag266
ag269
ag271
ag273
ag275
ag278
ag280
ag282
ag284
ag287
ag289
ag291
ag293
ag296
ag298
ag300
ag302
ag305
ag307
ag309
ag311
ag314
ag316
ag318
ag320
ag323
ag325
ag327
ag329
ag332
ag334
ag336
ag338
ag341
ag343
ag345
ag347
ag350
ag352
ag354
ag356
ag359
ag361
ag363
ag365
ag368
ag370
ag372
ag374
ag377
ag379
ag381
ag383
ag386
ag388
ag392
ag395
ag397
ag399
ag401
ag404
ag406
ag408
ag410
ag413
ag415
ag417
ag419
ag422
ag424
ag426
ag428
ag431
ag433
ag435
ag437
ag440
ag442
ag444
ag446
ag449
ag451
ag453
ag455
ag458
ag460
ag462
ag464
ag467
ag469
ag471
ag476
ag478
ag480
ag482
ag485
ag487
ag489
ag491
ag494
ag496
ag498
ag500
ag503
ag507
ag509
ag512
ag514
ag516
ag518
ag521
ag523
ag525
ag527
ag530
ag532
ag534
ag536
ag539
ag541
ag543
ag545
ag548
ag550
ag552
ag554
ag557
ag559
ag561
ag563
ag566
ag568
ag570
ag572
ag575
ag577
ag579
ag581
ag584
ag586
ag588
ag590
ag593
ag595
ag597
ag599
ag601
ag603
ag605
ag607
ag610
ag612
ag614
ag616
ag619
ag621
ag623
ag625
ag628
ag630
ag632
ag634
ag637
ag639
ag641
ag646
ag648
ag650
ag652
ag655
ag657
ag659
ag661
ag664
ag666
ag668
ag670
ag673
ag675
ag677
ag679
ag682
ag684
ag686
ag688
ag691
ag693
ag695
ag697
ag700
ag702
ag704
ag706
ag709
ag711
ag713
ag715
ag718
ag720
ag722
ag724
ag727
ag729
ag731
ag733
ag736
ag738
ag740
ag742
ag745
ag747
ag749
ag754
ag756
ag758
ag760
ag763
ag765
ag767
ag769
ag772
ag774
ag776
ag781
ag783
ag785
ag787
ag792
ag794
ag801
ag803
ag805
ag808
ag810
ag817
ag823
ag826
ag828
ag830
ag832
ag835
ag837
ag839
ag841
ag844
ag846
ag848
ag850
ag853
ag855
ag857
ag859
ag862
ag864
ag866
ag868
ag871
ag873
ag875
ag877
ag880
ag882
ag884
ag886
ag889
ag891
ag893
ag895
ag898
ag900
ag902
ag904
ag907
ag909
ag911
ag913
ag916
ag918
ag920
ag922
ag927
ag929
ag931
ag934
ag936
ag938
ag940
ag943
ag945
ag947
ag949
ag952
ag954
ag956
ag958
ag961
ag963
ag965
ag967
ag970
ag972
ag974
ag979
ag983
ag985
ag988
ag990
ag992
ag994
ag997
ag999
ag1001
ag1003
ag1006
ag1008
ag1010
ag1012
ag1015
ag1017
ag1019
ag1024
ag1026
ag1028
ag1030
ag1033
ag1035
ag1037
ag1039
ag1046
ag1048
ag1051
ag1053
ag1055
ag1057
ag1062
ag1066
ag1069
ag1071
ag1073
ag1075
ag1078
ag1080
ag1082
ag1084
ag1087
ag1089
ag1091
ag1093
ag1096
ag1098
ag1100
ag1102
ag1107
ag1109
ag1111
ag1114
ag1118
ag1120
ag1123
ag1125
ag1127
ag1129
ag1132
ag1134
ag1136
ag1138
ag1141
ag1143
ag1145
ag1147
ag1150
ag1152
ag1154
ag1156
ag1159
ag1161
ag1163
ag1165
ag1168
ag1170
ag1172
ag1174
ag1177
ag1179
ag1181
ag1183
ag1186
ag1188
ag1190
ag1192
ag1195
ag1197
ag1199
ag1201
ag1204
ag1206
ag1208
ag1210
ag1213
ag1215
ag1217
asS'featureMap'
p3413
(lp3414
(lp3415
I1
aI8
ag5
ag6
ag9
ag11
ag13
aa(lp3416
I10
aI13
ag15
ag16
ag18
ag20
ag22
aa(lp3417
I17
aI21
ag24
ag25
ag27
ag29
ag31
aa(lp3418
I26
aI33
ag33
ag34
ag36
ag38
ag40
aa(lp3419
I35
aI37
ag42
ag43
ag45
ag47
ag49
aa(lp3420
I39
aI42
ag51
ag52
ag54
ag56
ag58
aa(lp3421
I44
aI44
ag60
ag61
ag63
ag65
ag67
aa(lp3422
I47
aI49
ag69
ag70
ag72
ag74
ag76
aa(lp3423
I54
aI59
ag78
ag79
ag81
ag83
ag85
aa(lp3424
I62
aI65
ag87
ag88
ag90
ag92
ag94
aa(lp3425
I70
aI75
ag96
ag97
ag99
ag101
ag103
aa(lp3426
I87
aI91
ag105
ag106
ag108
ag110
ag112
aa(lp3427
I93
aI100
ag114
ag115
ag117
ag119
ag121
aa(lp3428
I107
aI111
ag123
ag124
ag126
ag128
ag130
aa(lp3429
I118
aI121
ag132
ag133
ag135
ag137
ag139
aa(lp3430
I126
aI129
ag141
ag142
ag144
ag146
ag148
aa(lp3431
I139
aI144
ag150
ag151
ag153
ag155
ag157
aa(lp3432
I146
aI151
ag159
ag160
ag162
ag164
ag166
aa(lp3433
I167
aI174
ag168
ag169
ag171
ag173
ag175
aa(lp3434
I176
aI179
ag177
ag178
ag180
ag182
ag184
aa(lp3435
I185
aI189
ag186
ag187
ag189
ag191
ag193
aa(lp3436
I192
aI201
ag195
ag196
ag198
ag200
ag202
aa(lp3437
I203
aI207
ag204
ag205
ag207
ag209
ag211
aa(lp3438
I216
aI221
ag213
ag214
ag216
ag218
ag220
aa(lp3439
I229
aI233
ag222
ag223
ag225
ag227
ag229
aa(lp3440
I240
aI249
ag231
ag232
ag234
ag236
ag238
aa(lp3441
I255
aI258
ag240
ag241
ag243
ag245
ag247
aa(lp3442
I266
aI269
ag249
ag250
ag252
ag254
ag256
aa(lp3443
I271
aI275
ag258
ag259
ag261
ag263
ag265
aa(lp3444
I283
aI292
ag267
ag268
ag270
ag272
ag274
aa(lp3445
I298
aI301
ag276
ag277
ag279
ag281
ag283
aa(lp3446
I303
aI307
ag285
ag286
ag288
ag290
ag292
aa(lp3447
I318
aI323
ag294
ag295
ag297
ag299
ag301
aa(lp3448
I330
aI335
ag303
ag304
ag306
ag308
ag310
aa(lp3449
I337
aI341
ag312
ag313
ag315
ag317
ag319
aa(lp3450
I348
aI352
ag321
ag322
ag324
ag326
ag328
aa(lp3451
I354
aI357
ag330
ag331
ag333
ag335
ag337
aa(lp3452
I365
aI370
ag339
ag340
ag342
ag344
ag346
aa(lp3453
I384
aI389
ag348
ag349
ag351
ag353
ag355
aa(lp3454
I391
aI394
ag357
ag358
ag360
ag362
ag364
aa(lp3455
I397
aI399
ag366
ag367
ag369
ag371
ag373
aa(lp3456
I401
aI406
ag375
ag376
ag378
ag380
ag382
aa(lp3457
I412
aI417
ag384
ag385
ag387
ag389
ag391
aa(lp3458
I423
aI426
ag393
ag394
ag396
ag398
ag400
aa(lp3459
I431
aI433
ag402
ag403
ag405
ag407
ag409
aa(lp3460
I444
aI446
ag411
ag412
ag414
ag416
ag418
aa(lp3461
I449
aI457
ag420
ag421
ag423
ag425
ag427
aa(lp3462
I463
aI465
ag429
ag430
ag432
ag434
ag436
aa(lp3463
I468
aI471
ag438
ag439
ag441
ag443
ag445
aa(lp3464
I477
aI481
ag447
ag448
ag450
ag452
ag454
aa(lp3465
I483
aI488
ag456
ag457
ag459
ag461
ag463
aa(lp3466
I494
aI496
ag465
ag466
ag468
ag470
ag472
aa(lp3467
I502
aI507
ag474
ag475
ag477
ag479
ag481
aa(lp3468
I514
aI517
ag483
ag484
ag486
ag488
ag490
aa(lp3469
I523
aI527
ag492
ag493
ag495
ag497
ag499
aa(lp3470
I529
aI532
ag501
ag502
ag504
ag506
ag508
aa(lp3471
I550
aI556
ag510
ag511
ag513
ag515
ag517
aa(lp3472
I566
aI571
ag519
ag520
ag522
ag524
ag526
aa(lp3473
I574
aI576
ag528
ag529
ag531
ag533
ag535
aa(lp3474
I586
aI592
ag537
ag538
ag540
ag542
ag544
aa(lp3475
I594
aI596
ag546
ag547
ag549
ag551
ag553
aa(lp3476
I608
aI612
ag555
ag556
ag558
ag560
ag562
aa(lp3477
I622
aI628
ag564
ag565
ag567
ag569
ag571
aa(lp3478
I636
aI641
ag573
ag574
ag576
ag578
ag580
aa(lp3479
I643
aI646
ag582
ag583
ag585
ag587
ag589
aa(lp3480
I651
aI654
ag591
ag592
ag594
ag596
ag598
aa(lp3481
I656
aI656
ag60
ag600
ag602
ag604
ag606
aa(lp3482
I659
aI662
ag608
ag609
ag611
ag613
ag615
aa(lp3483
I664
aI678
ag617
ag618
ag620
ag622
ag624
aa(lp3484
I681
aI685
ag626
ag627
ag629
ag631
ag633
aa(lp3485
I690
aI692
ag635
ag636
ag638
ag640
ag642
aa(lp3486
I698
aI703
ag644
ag645
ag647
ag649
ag651
aa(lp3487
I709
aI712
ag653
ag654
ag656
ag658
ag660
aa(lp3488
I719
aI722
ag662
ag663
ag665
ag667
ag669
aa(lp3489
I731
aI736
ag671
ag672
ag674
ag676
ag678
aa(lp3490
I738
aI741
ag680
ag681
ag683
ag685
ag687
aa(lp3491
I750
aI753
ag689
ag690
ag692
ag694
ag696
aa(lp3492
I756
aI758
ag698
ag699
ag701
ag703
ag705
aa(lp3493
I770
aI773
ag707
ag708
ag710
ag712
ag714
aa(lp3494
I778
aI781
ag716
ag717
ag719
ag721
ag723
aa(lp3495
I786
aI788
ag725
ag726
ag728
ag730
ag732
aa(lp3496
I794
aI797
ag734
ag735
ag737
ag739
ag741
aa(lp3497
I807
aI809
ag743
ag744
ag746
ag748
ag750
aa(lp3498
I815
aI820
ag752
ag753
ag755
ag757
ag759
aa(lp3499
I836
aI843
ag761
ag762
ag764
ag766
ag768
aa(lp3500
I845
aI848
ag770
ag771
ag773
ag775
ag777
aa(lp3501
I859
aI863
ag779
ag780
ag782
ag784
ag786
aa(lp3502
I871
aI875
ag788
ag789
ag791
ag793
ag795
aa(lp3503
I885
aI888
ag797
ag798
ag800
ag802
ag804
aa(lp3504
I896
aI900
ag806
ag807
ag809
ag811
ag813
aa(lp3505
I917
aI920
ag815
ag816
ag818
ag820
ag822
aa(lp3506
I927
aI929
ag824
ag825
ag827
ag829
ag831
aa(lp3507
I934
aI942
ag833
ag834
ag836
ag838
ag840
aa(lp3508
I953
aI956
ag842
ag843
ag845
ag847
ag849
aa(lp3509
I961
aI964
ag851
ag852
ag854
ag856
ag858
aa(lp3510
I973
aI978
ag860
ag861
ag863
ag865
ag867
aa(lp3511
I983
aI986
ag869
ag870
ag872
ag874
ag876
aa(lp3512
I992
aI995
ag878
ag879
ag881
ag883
ag885
aa(lp3513
I1010
aI1017
ag887
ag888
ag890
ag892
ag894
aa(lp3514
I1020
aI1029
ag896
ag897
ag899
ag901
ag903
aa(lp3515
I1031
aI1034
ag905
ag906
ag908
ag910
ag912
aa(lp3516
I1046
aI1049
ag914
ag915
ag917
ag919
ag921
aa(lp3517
I1056
aI1060
ag923
ag924
ag926
ag928
ag930
aa(lp3518
I1070
aI1079
ag932
ag933
ag935
ag937
ag939
aa(lp3519
I1081
aI1084
ag941
ag942
ag944
ag946
ag948
aa(lp3520
I1092
aI1097
ag950
ag951
ag953
ag955
ag957
aa(lp3521
I1106
aI1114
ag959
ag960
ag962
ag964
ag966
aa(lp3522
I1129
aI1131
ag968
ag969
ag971
ag973
ag975
aa(lp3523
I1137
aI1142
ag977
ag978
ag980
ag982
ag984
aa(lp3524
I1148
aI1151
ag986
ag987
ag989
ag991
ag993
aa(lp3525
I1153
aI1161
ag995
ag996
ag998
ag1000
ag1002
aa(lp3526
I1163
aI1167
ag1004
ag1005
ag1007
ag1009
ag1011
aa(lp3527
I1181
aI1183
ag1013
ag1014
ag1016
ag1018
ag1020
aa(lp3528
I1191
aI1196
ag1022
ag1023
ag1025
ag1027
ag1029
aa(lp3529
I1212
aI1215
ag1031
ag1032
ag1034
ag1036
ag1038
aa(lp3530
I1220
aI1225
ag1040
ag1041
ag1043
ag1045
ag1047
aa(lp3531
I1234
aI1238
ag1049
ag1050
ag1052
ag1054
ag1056
aa(lp3532
I1243
aI1246
ag1058
ag1059
ag1061
ag1063
ag1065
aa(lp3533
I1260
aI1266
ag1067
ag1068
ag1070
ag1072
ag1074
aa(lp3534
I1268
aI1271
ag1076
ag1077
ag1079
ag1081
ag1083
aa(lp3535
I1281
aI1286
ag1085
ag1086
ag1088
ag1090
ag1092
aa(lp3536
I1288
aI1291
ag1094
ag1095
ag1097
ag1099
ag1101
aa(lp3537
I1301
aI1304
ag1103
ag1104
ag1106
ag1108
ag1110
aa(lp3538
I1313
aI1318
ag1112
ag1113
ag1115
ag1117
ag1119
aa(lp3539
I1333
aI1336
ag1121
ag1122
ag1124
ag1126
ag1128
aa(lp3540
I1341
aI1344
ag1130
ag1131
ag1133
ag1135
ag1137
aa(lp3541
I1350
aI1359
ag1139
ag1140
ag1142
ag1144
ag1146
aa(lp3542
I1372
aI1378
ag1148
ag1149
ag1151
ag1153
ag1155
aa(lp3543
I1393
aI1396
ag1157
ag1158
ag1160
ag1162
ag1164
aa(lp3544
I1401
aI1406
ag1166
ag1167
ag1169
ag1171
ag1173
aa(lp3545
I1415
aI1422
ag1175
ag1176
ag1178
ag1180
ag1182
aa(lp3546
I1425
aI1433
ag1184
ag1185
ag1187
ag1189
ag1191
aa(lp3547
I1435
aI1440
ag1193
ag1194
ag1196
ag1198
ag1200
aa(lp3548
I1442
aI1447
ag1202
ag1203
ag1205
ag1207
ag1209
aa(lp3549
I1442
aI1447
ag1211
ag1212
ag1214
ag1216
ag1218
aasS'characterMap'
p3550
(lp3551
(lp3552
I0
aS'"'
p3553
aag1223
ag1225
ag1227
ag1229
ag1231
ag1233
ag1234
ag1236
ag3110
ag1240
ag1241
ag1243
ag1245
a(lp3554
I14
ag3553
aag3112
a(lp3555
I16
ag3553
aag1249
ag1251
ag1252
ag1254
ag1255
ag3113
ag1259
ag1260
ag3114
ag1263
ag1264
ag1265
ag1266
ag1268
ag1269
ag1270
ag1271
ag3115
ag1274
ag1276
ag1278
ag3116
ag1282
ag1283
ag1284
ag1285
ag3117
ag1288
a(lp3556
I45
aS':'
p3557
aag3118
ag1291
ag1292
ag1293
ag3119
ag1298
ag1299
ag3120
ag1302
ag1303
ag1305
ag1306
ag1307
ag1308
a(lp3558
I60
aS','
p3559
aag3121
ag1311
ag1312
ag1313
ag1314
ag3122
ag1318
ag1319
ag3123
ag1322
ag1323
ag1324
ag1325
ag1326
ag1327
a(lp3560
I76
ag3553
aag3124
ag1331
ag1333
ag1334
ag1335
ag3125
ag1339
ag1340
ag1341
ag3126
ag1345
ag1347
ag1348
ag1349
ag1350
ag3127
ag1353
ag1354
ag1355
ag1356
ag1357
ag1358
ag1359
ag1360
ag3128
ag1364
ag1365
ag1366
ag1367
ag3129
ag1370
ag1371
ag1372
ag1373
ag1374
a(lp3561
I112
ag3559
aag3130
ag1378
ag1379
ag1380
ag3131
ag1383
ag1384
ag1385
ag1386
ag3132
ag1391
ag1392
ag3133
ag1395
ag1397
ag1398
ag1399
ag3134
ag1403
ag1404
ag1405
ag3135
ag1409
ag1410
ag1411
ag3136
ag1414
ag1415
ag1416
ag1417
ag1418
ag1419
ag3137
ag1422
ag1423
ag1424
ag1425
ag1426
ag1427
ag3138
ag1431
ag1432
ag1433
ag1434
ag1435
ag1436
ag3139
ag1440
ag1441
ag1442
ag3140
ag1446
ag1447
ag3141
ag1450
ag1451
ag1452
ag1453
ag1454
ag1455
ag1456
ag1457
ag3142
ag1461
ag1462
ag1463
ag1464
a(lp3562
I180
aS'.'
p3563
aag3143
ag1468
ag1469
ag3144
ag1472
ag1473
ag1474
ag1475
ag1476
a(lp3564
I190
ag3559
aag3145
ag1479
ag1480
ag1482
ag1483
ag1484
ag1485
ag1486
ag1487
ag1488
ag1489
ag3146
ag1492
ag1493
ag1494
ag1495
ag1496
ag3147
ag1500
ag1501
ag3148
ag1505
ag1506
ag1507
ag3149
ag1510
ag1511
ag1512
ag1513
ag1514
ag1515
a(lp3565
I222
ag3563
aag3150
ag1519
ag1520
ag1521
ag1522
ag3151
ag1525
ag1526
ag1527
ag1528
ag1529
ag3152
ag1533
ag1534
ag1535
ag1536
ag3153
ag1539
ag1540
ag1541
ag1542
ag1543
ag1544
ag1545
ag1546
ag1547
ag1548
ag3154
ag1552
ag1553
ag1554
ag3155
ag1557
ag1558
ag1559
ag1560
ag3156
ag1564
ag1565
ag3157
ag1569
ag1570
ag3158
ag1573
ag1574
ag1575
ag1576
ag3159
ag1579
ag1580
ag1581
ag1582
ag1583
ag3160
ag1587
ag1588
ag3161
ag1592
ag1593
ag3162
ag1596
ag1597
ag1598
ag1599
ag1600
ag1601
ag1602
ag1603
ag1604
ag1605
ag3163
ag1609
ag1610
ag1611
ag3164
ag1614
ag1615
ag1616
ag1617
ag3165
ag1620
ag1621
ag1622
ag1623
ag1624
ag3166
ag1628
ag1629
ag3167
ag1633
ag1634
ag3168
ag1638
ag1639
ag3169
ag1642
ag1643
ag1644
ag1645
ag1646
ag1647
ag3170
ag1651
ag1652
ag3171
ag1655
ag3172
ag1658
ag1659
ag1660
ag1661
ag1662
ag1663
ag3173
ag1666
ag1667
ag1668
ag1669
ag1670
a(lp3566
I342
ag3563
aag3174
ag1674
ag1675
ag1676
ag3175
ag1679
ag1680
ag1681
ag1682
ag1683
ag3176
ag1686
ag1687
ag1688
ag1689
ag3177
ag1693
ag1694
ag3178
ag1698
ag1699
ag3179
ag1702
ag1703
ag1704
ag1705
ag1706
ag1707
ag3180
ag1711
ag1712
ag1713
ag3181
ag1717
ag1718
ag1719
ag3182
ag1723
ag1724
ag1725
ag3183
ag1728
ag1729
ag1730
ag1731
ag1732
ag1733
ag3184
ag1736
ag1737
ag1738
ag1739
a(lp3567
I395
ag3563
aag3185
ag1742
ag1743
ag1744
ag3186
ag1747
ag1748
ag1749
ag1750
ag1751
ag1752
ag3187
ag1756
ag1757
ag1758
ag3188
ag1761
ag1762
ag1763
ag1764
ag1765
ag1766
ag3189
ag1770
ag1771
ag1772
ag3190
ag1775
ag1776
ag1777
ag1778
ag3191
ag1782
ag1783
ag3192
ag1786
ag1787
ag1788
a(lp3568
I434
ag3559
aag3193
ag1792
ag1793
ag1794
a(lp3569
I439
ag3559
aag3194
ag1798
ag1799
ag3195
ag1802
ag1803
ag1804
a(lp3570
I447
aS';'
p3571
aag3196
ag1807
ag1808
ag1809
ag1810
ag1811
ag1812
ag1813
ag1814
ag1815
ag3197
ag1819
ag1820
ag1821
ag3198
ag1824
ag1825
ag1826
a(lp3572
I466
ag3563
aag3199
ag1829
ag1830
ag1831
ag1832
ag3200
ag1836
ag1837
ag1838
ag3201
ag1841
ag1842
ag1843
ag1844
ag1845
ag3202
ag1848
ag1849
ag1850
ag1851
ag1852
ag1853
ag3203
ag1857
ag1858
ag1859
ag3204
ag1862
ag1863
ag1864
ag3205
ag1868
ag1869
ag1870
ag3206
ag1873
ag1874
ag1875
ag1876
ag1877
ag1878
ag3207
ag1882
ag1884
ag1885
ag1886
ag3208
ag1889
ag1890
ag1891
ag1892
ag3209
ag1896
ag1897
ag1898
ag3210
ag1901
ag1902
ag1903
ag1904
ag1905
ag3211
ag1908
ag1909
ag1910
ag1911
ag3212
ag1915
ag1916
a(lp3573
I536
ag3563
aag3213
ag1920
ag1921
ag3214
ag1925
ag1926
ag1927
ag3215
ag1931
ag1932
ag1933
ag1934
ag3216
ag1937
ag1938
ag1939
ag1940
ag1941
ag1942
ag1943
ag3217
ag1947
ag1948
ag3218
ag1952
ag1953
ag1954
ag1955
ag3219
ag1958
ag1959
ag1960
ag1961
ag1962
ag1963
a(lp3574
I572
ag3559
aag3220
ag1966
ag1967
ag1968
ag3221
ag1972
ag1973
ag1974
ag3222
ag1978
ag1979
ag1980
ag3223
ag1983
ag1984
ag1985
ag1986
ag1987
ag1988
ag1989
ag3224
ag1992
ag1993
ag1994
ag3225
ag1998
ag1999
ag3226
ag2003
ag2004
ag3227
ag2008
ag2009
ag2010
ag3228
ag2013
ag2014
ag2015
ag2016
ag2017
ag3229
ag2021
ag2022
ag3230
ag2026
ag2027
ag2028
ag2029
ag3231
ag2032
ag2033
ag2034
ag2035
ag2036
ag2037
ag2038
a(lp3575
I629
ag3563
aag3232
ag2042
ag2043
ag2044
ag2045
ag3233
ag2048
ag2049
ag2050
ag2051
ag2052
ag2053
ag3234
ag2056
ag2057
ag2058
ag2059
ag3235
ag2063
ag2064
ag3236
ag2067
ag2068
ag2069
ag2070
ag3237
ag2073
a(lp3576
I657
aS'?'
p3577
aag3238
ag2076
ag2077
ag2078
ag2079
ag3239
ag2082
ag2084
ag2085
ag2086
ag2088
ag2090
ag2091
ag2092
ag2093
ag2095
ag2096
ag2097
ag2098
ag2099
ag2100
a(lp3578
I679
ag3563
aag3240
ag2103
ag2104
ag2105
ag2106
ag2107
ag3241
ag2111
ag2112
ag3242
ag2115
ag2116
ag2117
ag3243
ag2121
ag2122
ag2123
ag3244
ag2126
ag2127
ag2128
ag2129
ag2130
ag2131
ag3245
ag2135
ag2136
ag2137
ag3246
ag2140
ag2141
ag2142
ag2143
ag3247
ag2147
ag2148
ag2149
ag2150
ag3248
ag2153
ag2154
ag2155
ag2156
ag3249
ag2160
ag2161
ag3250
ag2165
ag2166
ag2167
ag3251
ag2170
ag2171
ag2172
ag2173
ag2174
ag2175
ag3252
ag2178
ag2179
ag2180
ag2181
ag3253
ag2185
ag2186
ag2187
ag3254
ag2191
ag2192
ag3255
ag2195
ag2196
ag2197
ag2198
a(lp3579
I754
ag3563
aag3256
ag2201
ag2202
ag2203
ag3257
ag2207
ag2208
ag2209
ag2210
ag3258
ag2214
ag2215
ag3259
ag2218
ag3260
ag2221
ag2222
ag2223
ag2224
ag3261
ag2228
ag2229
ag3262
ag2232
ag2233
ag2234
ag2235
ag3263
ag2239
ag2240
ag3264
ag2243
ag2244
ag2245
ag3265
ag2249
ag2250
ag2251
ag3266
ag2254
ag2255
ag2256
ag2257
ag3267
ag2261
ag2262
ag2263
ag3268
ag2267
ag2268
ag2269
ag3269
ag2272
ag2273
ag2274
ag3270
ag2278
ag2279
ag2280
ag3271
ag2283
ag2284
ag2285
ag2286
ag2287
ag2288
ag3272
ag2292
ag2293
ag2294
ag2295
ag2296
ag2297
ag3273
ag2301
ag2302
ag2303
ag3274
ag2307
ag2308
ag3275
ag2311
ag2312
ag2313
ag2314
ag2315
ag2316
ag2317
ag2318
ag3276
ag2321
ag2322
ag2323
ag2324
ag3277
ag2328
ag2329
ag2330
ag2331
ag3278
ag2335
ag2336
ag2337
ag3279
ag2340
ag2341
ag2342
ag2343
ag2344
a(lp3580
I864
ag3563
aag3280
ag2348
ag2349
ag2350
ag2351
ag3281
ag2354
ag2355
ag2356
ag2357
ag2358
ag3282
ag2362
ag2363
ag2364
ag2365
ag3283
ag2369
ag2370
ag3284
ag2373
ag2374
ag2375
ag2376
a(lp3581
I889
ag3559
aag3285
ag2380
ag2381
ag2382
ag2383
ag3286
ag2386
ag2387
ag2388
ag2389
ag2390
ag3287
ag2394
ag2395
ag2396
ag2397
ag3288
ag2401
ag2402
ag2403
ag3289
ag2407
ag2408
ag3290
ag2412
ag2413
ag3291
ag2416
ag2417
ag2418
ag2419
a(lp3582
I921
ag3563
aag3292
ag2423
ag2424
ag2425
ag3293
ag2428
ag2429
ag2430
ag3294
ag2434
ag2435
ag3295
ag2438
ag2439
ag2440
ag2441
ag2442
ag2443
ag2444
ag2445
ag2446
ag3296
ag2450
ag2451
ag2452
ag2453
ag3297
ag2457
ag2458
ag2459
ag3298
ag2462
ag2463
ag2464
ag2465
ag3299
ag2469
ag2470
ag3300
ag2473
ag2474
ag2475
ag2476
ag3301
ag2480
ag2481
ag3302
ag2485
ag2486
ag2487
ag3303
ag2490
ag2491
ag2492
ag2493
ag2494
ag2495
ag3304
ag2499
ag2500
ag3305
ag2503
ag2504
ag2505
ag2506
ag3306
ag2510
ag2511
ag2512
ag3307
ag2515
ag2516
ag2517
ag2518
ag3308
ag2522
ag2523
ag2524
ag2525
ag3309
ag2529
ag2530
ag2531
ag3310
ag2535
ag2536
a(lp3583
I1008
ag3563
aag3311
ag2539
ag2540
ag2541
ag2542
ag2543
ag2544
ag2545
ag2546
a(lp3584
I1018
ag3557
aag3312
ag2549
ag2550
ag2551
ag2552
ag2553
ag2554
ag2555
ag2556
ag2557
ag2558
ag3313
ag2561
ag2562
ag2563
ag2564
ag3314
ag2568
ag2569
ag2570
ag3315
ag2574
ag2575
ag3316
ag2579
ag2580
ag3317
ag2583
ag2584
ag2585
ag2586
ag3318
ag2590
ag2591
ag2592
ag2593
ag3319
ag2596
ag2597
ag2598
ag2599
ag2600
ag3320
ag2604
ag2605
ag3321
ag2609
ag2610
ag2611
ag2612
ag3322
ag2615
ag2616
ag2617
ag2618
ag2619
ag2620
ag2621
ag2622
ag2623
ag2624
ag3323
ag2627
ag2628
ag2629
ag2630
ag3324
ag2634
ag2635
ag3325
ag2639
ag2640
ag3326
ag2643
ag2644
ag2645
ag2646
ag2647
ag2648
a(lp3585
I1098
ag3563
aag3327
ag2652
ag2653
ag3328
ag2657
ag2658
ag3329
ag2661
ag2662
ag2663
ag2664
ag2665
ag2666
ag2667
ag2668
ag2669
ag3330
ag2673
ag2674
ag2675
ag2676
ag3331
ag2680
ag2681
ag2682
ag3332
ag2686
ag2687
ag2688
ag3333
ag2691
ag2692
ag2693
ag3334
ag2697
ag2698
ag2699
ag3335
ag2702
ag2703
ag2704
ag2705
ag2706
ag2707
ag3336
ag2711
ag2712
ag2713
ag3337
ag2716
ag2717
ag2718
ag2719
ag3338
ag2722
ag2723
ag2724
ag2725
ag2726
ag2727
ag2728
ag2729
ag2730
ag3339
ag2733
ag2734
ag2735
ag2736
ag2737
a(lp3586
I1168
ag3563
aag3340
ag2741
ag2742
ag3341
ag2746
ag2747
ag2748
ag3342
ag2752
ag2753
ag2754
ag3343
ag2757
ag2758
ag2759
ag3344
ag2763
ag2764
ag3345
ag2768
ag2769
ag3346
ag2772
ag2773
ag2774
ag2775
ag2776
ag2777
a(lp3587
I1197
ag3559
aag3347
ag2781
ag2782
ag2783
ag2784
ag3348
ag2788
ag2789
ag2790
ag3349
ag2794
ag2795
ag2796
ag3350
ag2799
ag2800
ag2801
ag2802
ag3351
ag2806
ag2807
ag3352
ag2810
ag2811
ag2812
ag2813
ag2814
ag2815
ag3353
ag2819
ag2820
ag3354
ag2824
ag2825
ag2826
ag3355
ag2829
ag2830
ag2831
ag2832
ag2833
ag3356
ag2837
ag2838
ag3357
ag2841
ag2842
ag2843
ag2844
ag3358
ag2848
ag2849
ag2850
ag2851
ag2852
ag2853
ag2854
ag3359
ag2858
ag2859
ag2860
ag3360
ag2863
ag2864
ag2865
ag2866
ag2867
ag2868
ag2869
ag3361
ag2872
ag2873
ag2874
ag2875
ag3362
ag2879
ag2880
ag2881
ag3363
ag2885
ag2886
ag2887
ag3364
ag2890
ag2891
ag2892
ag2893
ag2894
ag2895
ag3365
ag2898
ag2899
ag2900
ag2901
a(lp3588
I1292
ag3563
aag3366
ag2905
ag2906
ag3367
ag2910
ag2911
ag2912
ag3368
ag2915
ag2916
ag2917
ag2918
ag3369
ag2922
ag2923
ag2924
ag3370
ag2928
ag2929
ag3371
ag2932
ag2933
ag2934
ag2935
ag2936
ag2937
a(lp3589
I1319
ag3559
aag3372
ag2941
ag2942
ag2943
ag3373
ag2947
ag2948
ag2949
ag2950
ag3374
ag2954
ag2955
ag3375
ag2958
ag2959
ag2960
ag2961
ag3376
ag2965
ag2966
ag3377
ag2969
ag2970
ag2971
ag2972
ag3378
ag2976
ag2977
ag2978
ag3379
ag2981
ag2982
ag2983
ag2984
ag2985
ag2986
ag2987
ag2988
ag2989
ag2990
ag3380
ag2994
ag2995
ag3381
ag2999
ag3000
ag3001
ag3382
ag3005
ag3006
ag3007
ag3383
ag3010
ag3011
ag3012
ag3013
ag3014
ag3015
ag3016
ag3384
ag3020
ag3021
ag3022
ag3023
ag3024
ag3025
ag3026
ag3027
ag3385
ag3031
ag3032
ag3033
ag3386
ag3036
ag3037
ag3038
ag3039
ag3387
ag3043
ag3044
ag3388
ag3047
ag3048
ag3049
ag3050
ag3051
ag3052
ag3389
ag3056
ag3057
ag3390
ag3061
ag3062
ag3063
ag3391
ag3066
ag3067
ag3068
ag3069
ag3070
ag3071
ag3072
ag3073
a(lp3590
I1423
ag3563
aag3392
ag3076
ag3077
ag3078
ag3079
ag3080
ag3081
ag3082
ag3083
ag3084
ag3393
ag3087
ag3088
ag3089
ag3090
ag3091
ag3092
ag3394
ag3095
ag3096
ag3097
ag3098
ag3099
ag3100
ag3395
ag3103
ag3104
ag3106
ag3107
asS'docName'
p3591
S'source-document02608.txt'
p3592
sb.