(iModel.Document
Document
p0
(dp1
S'fmap'
p2
(lp3
(lp4
I0
aI9
aS'homemaking'
p5
a(lp6
S'*'
p7
ag5
aaa(lp8
I0
aI9
ag5
a(lp9
g7
ag5
aaa(lp10
I0
aI9
ag5
a(lp11
g7
ag5
aaa(lp12
I0
aI9
ag5
a(lp13
g7
ag5
aaa(lp14
I17
aI20
aS'blog'
p15
a(lp16
g5
ag15
aaa(lp17
I17
aI20
ag15
a(lp18
g7
ag15
aaa(lp19
I17
aI20
ag15
a(lp20
g7
ag15
aaa(lp21
I17
aI20
ag15
a(lp22
g7
ag15
aaa(lp23
I27
aI30
aS'blog'
p24
a(lp25
g15
ag24
aaa(lp26
I27
aI30
ag24
a(lp27
g5
ag24
aaa(lp28
I27
aI30
ag24
a(lp29
g7
ag24
aaa(lp30
I27
aI30
ag24
a(lp31
g7
ag24
aaa(lp32
I39
aI46
aS'everyone'
p33
a(lp34
g24
ag33
aaa(lp35
I39
aI46
ag33
a(lp36
g15
ag33
aaa(lp37
I39
aI46
ag33
a(lp38
g5
ag33
aaa(lp39
I39
aI46
ag33
a(lp40
g7
ag33
aaa(lp41
I56
aI62
aS'created'
p42
a(lp43
g33
ag42
aaa(lp44
I56
aI62
ag42
a(lp45
g24
ag42
aaa(lp46
I56
aI62
ag42
a(lp47
g15
ag42
aaa(lp48
I56
aI62
ag42
a(lp49
g5
ag42
aaa(lp50
I83
aI86
aS'help'
p51
a(lp52
g42
ag51
aaa(lp53
I83
aI86
ag51
a(lp54
g33
ag51
aaa(lp55
I83
aI86
ag51
a(lp56
g24
ag51
aaa(lp57
I83
aI86
ag51
a(lp58
g15
ag51
aaa(lp59
I88
aI89
aS'us'
p60
a(lp61
g51
ag60
aaa(lp62
I88
aI89
ag60
a(lp63
g42
ag60
aaa(lp64
I88
aI89
ag60
a(lp65
g33
ag60
aaa(lp66
I88
aI89
ag60
a(lp67
g24
ag60
aaa(lp68
I91
aI96
aS'become'
p69
a(lp70
g60
ag69
aaa(lp71
I91
aI96
ag69
a(lp72
g51
ag69
aaa(lp73
I91
aI96
ag69
a(lp74
g42
ag69
aaa(lp75
I91
aI96
ag69
a(lp76
g33
ag69
aaa(lp77
I98
aI103
aS'better'
p78
a(lp79
g69
ag78
aaa(lp80
I98
aI103
ag78
a(lp81
g60
ag78
aaa(lp82
I98
aI103
ag78
a(lp83
g51
ag78
aaa(lp84
I98
aI103
ag78
a(lp85
g42
ag78
aaa(lp86
I105
aI114
aS'homemakers'
p87
a(lp88
g78
ag87
aaa(lp89
I105
aI114
ag87
a(lp90
g69
ag87
aaa(lp91
I105
aI114
ag87
a(lp92
g60
ag87
aaa(lp93
I105
aI114
ag87
a(lp94
g51
ag87
aaa(lp95
I117
aI122
aS'heres'
p96
a(lp97
g87
ag96
aaa(lp98
I117
aI122
ag96
a(lp99
g78
ag96
aaa(lp100
I117
aI122
ag96
a(lp101
g69
ag96
aaa(lp102
I117
aI122
ag96
a(lp103
g60
ag96
aaa(lp104
I131
aI141
aS'worksyou'
p105
a(lp106
g96
ag105
aaa(lp107
I131
aI141
ag105
a(lp108
g87
ag105
aaa(lp109
I131
aI141
ag105
a(lp110
g78
ag105
aaa(lp111
I131
aI141
ag105
a(lp112
g69
ag105
aaa(lp113
I143
aI148
aS'create'
p114
a(lp115
g105
ag114
aaa(lp116
I143
aI148
ag114
a(lp117
g96
ag114
aaa(lp118
I143
aI148
ag114
a(lp119
g87
ag114
aaa(lp120
I143
aI148
ag114
a(lp121
g78
ag114
aaa(lp122
I153
aI156
aS'post'
p123
a(lp124
g114
ag123
aaa(lp125
I153
aI156
ag123
a(lp126
g105
ag123
aaa(lp127
I153
aI156
ag123
a(lp128
g96
ag123
aaa(lp129
I153
aI156
ag123
a(lp130
g87
ag123
aaa(lp131
I163
aI170
aS'everyone'
p132
a(lp133
g123
ag132
aaa(lp134
I163
aI170
ag132
a(lp135
g114
ag132
aaa(lp136
I163
aI170
ag132
a(lp137
g105
ag132
aaa(lp138
I163
aI170
ag132
a(lp139
g96
ag132
aaa(lp140
I175
aI177
aS'see'
p141
a(lp142
g132
ag141
aaa(lp143
I175
aI177
ag141
a(lp144
g123
ag141
aaa(lp145
I175
aI177
ag141
a(lp146
g114
ag141
aaa(lp147
I175
aI177
ag141
a(lp148
g105
ag141
aaa(lp149
I181
aI185
aS'posts'
p150
a(lp151
g141
ag150
aaa(lp152
I181
aI185
ag150
a(lp153
g132
ag150
aaa(lp154
I181
aI185
ag150
a(lp155
g123
ag150
aaa(lp156
I181
aI185
ag150
a(lp157
g114
ag150
aaa(lp158
I195
aI201
aS'deleted'
p159
a(lp160
g150
ag159
aaa(lp161
I195
aI201
ag159
a(lp162
g141
ag159
aaa(lp163
I195
aI201
ag159
a(lp164
g132
ag159
aaa(lp165
I195
aI201
ag159
a(lp166
g123
ag159
aaa(lp167
I206
aI218
aS'inappropriate'
p168
a(lp169
g159
ag168
aaa(lp170
I206
aI218
ag168
a(lp171
g150
ag168
aaa(lp172
I206
aI218
ag168
a(lp173
g141
ag168
aaa(lp174
I206
aI218
ag168
a(lp175
g132
ag168
aaa(lp176
I227
aI232
aS'people'
p177
a(lp178
g168
ag177
aaa(lp179
I227
aI232
ag177
a(lp180
g159
ag177
aaa(lp181
I227
aI232
ag177
a(lp182
g150
ag177
aaa(lp183
I227
aI232
ag177
a(lp184
g141
ag177
aaa(lp185
I238
aI241
aS'make'
p186
a(lp187
g177
ag186
aaa(lp188
I238
aI241
ag186
a(lp189
g168
ag186
aaa(lp190
I238
aI241
ag186
a(lp191
g159
ag186
aaa(lp192
I238
aI241
ag186
a(lp193
g150
ag186
aaa(lp194
I243
aI250
aS'comments'
p195
a(lp196
g186
ag195
aaa(lp197
I243
aI250
ag195
a(lp198
g177
ag195
aaa(lp199
I243
aI250
ag195
a(lp200
g168
ag195
aaa(lp201
I243
aI250
ag195
a(lp202
g159
ag195
aaa(lp203
I256
aI259
aS'give'
p204
a(lp205
g195
ag204
aaa(lp206
I256
aI259
ag204
a(lp207
g186
ag204
aaa(lp208
I256
aI259
ag204
a(lp209
g177
ag204
aaa(lp210
I256
aI259
ag204
a(lp211
g168
ag204
aaa(lp212
I261
aI267
aS'answers'
p213
a(lp214
g204
ag213
aaa(lp215
I261
aI267
ag213
a(lp216
g195
ag213
aaa(lp217
I261
aI267
ag213
a(lp218
g186
ag213
aaa(lp219
I261
aI267
ag213
a(lp220
g177
ag213
aaa(lp221
I281
aI284
aS'post'
p222
a(lp223
g213
ag222
aaa(lp224
I281
aI284
ag222
a(lp225
g204
ag222
aaa(lp226
I281
aI284
ag222
a(lp227
g195
ag222
aaa(lp228
I281
aI284
ag222
a(lp229
g186
ag222
aaa(lp230
I291
aI294
aS'idea'
p231
a(lp232
g222
ag231
aaa(lp233
I291
aI294
ag231
a(lp234
g213
ag231
aaa(lp235
I291
aI294
ag231
a(lp236
g204
ag231
aaa(lp237
I291
aI294
ag231
a(lp238
g195
ag231
aaa(lp239
I304
aI307
aS'blog'
p240
a(lp241
g231
ag240
aaa(lp242
I304
aI307
ag240
a(lp243
g222
ag240
aaa(lp244
I304
aI307
ag240
a(lp245
g213
ag240
aaa(lp246
I304
aI307
ag240
a(lp247
g204
ag240
aaa(lp248
I315
aI319
aS'offer'
p249
a(lp250
g240
ag249
aaa(lp251
I315
aI319
ag249
a(lp252
g231
ag249
aaa(lp253
I315
aI319
ag249
a(lp254
g222
ag249
aaa(lp255
I315
aI319
ag249
a(lp256
g213
ag249
aaa(lp257
I321
aI326
aS'advice'
p258
a(lp259
g249
ag258
aaa(lp260
I321
aI326
ag258
a(lp261
g240
ag258
aaa(lp262
I321
aI326
ag258
a(lp263
g231
ag258
aaa(lp264
I321
aI326
ag258
a(lp265
g222
ag258
aaa(lp266
I329
aI333
aS'ideas'
p267
a(lp268
g258
ag267
aaa(lp269
I329
aI333
ag267
a(lp270
g249
ag267
aaa(lp271
I329
aI333
ag267
a(lp272
g240
ag267
aaa(lp273
I329
aI333
ag267
a(lp274
g231
ag267
aaa(lp275
I336
aI338
aS'ask'
p276
a(lp277
g267
ag276
aaa(lp278
I336
aI338
ag276
a(lp279
g258
ag276
aaa(lp280
I336
aI338
ag276
a(lp281
g249
ag276
aaa(lp282
I336
aI338
ag276
a(lp283
g240
ag276
aaa(lp284
I340
aI348
aS'questions'
p285
a(lp286
g276
ag285
aaa(lp287
I340
aI348
ag285
a(lp288
g267
ag285
aaa(lp289
I340
aI348
ag285
a(lp290
g258
ag285
aaa(lp291
I340
aI348
ag285
a(lp292
g249
ag285
aaa(lp293
I351
aI353
aS'etc'
p294
a(lp295
g285
ag294
aaa(lp296
I351
aI353
ag294
a(lp297
g276
ag294
aaa(lp298
I351
aI353
ag294
a(lp299
g267
ag294
aaa(lp300
I351
aI353
ag294
a(lp301
g258
ag294
aaa(lp302
I366
aI369
aS'help'
p303
a(lp304
g294
ag303
aaa(lp305
I366
aI369
ag303
a(lp306
g285
ag303
aaa(lp307
I366
aI369
ag303
a(lp308
g276
ag303
aaa(lp309
I366
aI369
ag303
a(lp310
g267
ag303
aaa(lp311
I379
aI384
aS'others'
p312
a(lp313
g303
ag312
aaa(lp314
I379
aI384
ag312
a(lp315
g294
ag312
aaa(lp316
I379
aI384
ag312
a(lp317
g285
ag312
aaa(lp318
I379
aI384
ag312
a(lp319
g276
ag312
aaa(lp320
I386
aI391
aS'become'
p321
a(lp322
g312
ag321
aaa(lp323
I386
aI391
ag321
a(lp324
g303
ag321
aaa(lp325
I386
aI391
ag321
a(lp326
g294
ag321
aaa(lp327
I386
aI391
ag321
a(lp328
g285
ag321
aaa(lp329
I393
aI398
aS'better'
p330
a(lp331
g321
ag330
aaa(lp332
I393
aI398
ag330
a(lp333
g312
ag330
aaa(lp334
I393
aI398
ag330
a(lp335
g303
ag330
aaa(lp336
I393
aI398
ag330
a(lp337
g294
ag330
aaa(lp338
I400
aI409
aS'homemakers'
p339
a(lp340
g330
ag339
aaa(lp341
I400
aI409
ag339
a(lp342
g321
ag339
aaa(lp343
I400
aI409
ag339
a(lp344
g312
ag339
aaa(lp345
I400
aI409
ag339
a(lp346
g303
ag339
aaa(lp347
I415
aI421
aS'setting'
p348
a(lp349
g339
ag348
aaa(lp350
I415
aI421
ag348
a(lp351
g330
ag348
aaa(lp352
I415
aI421
ag348
a(lp353
g321
ag348
aaa(lp354
I415
aI421
ag348
a(lp355
g312
ag348
aaa(lp356
I434
aI436
aS'way'
p357
a(lp358
g348
ag357
aaa(lp359
I434
aI436
ag357
a(lp360
g339
ag357
aaa(lp361
I434
aI436
ag357
a(lp362
g330
ag357
aaa(lp363
I434
aI436
ag357
a(lp364
g321
ag357
aaa(lp365
I438
aI443
aS'people'
p366
a(lp367
g357
ag366
aaa(lp368
I438
aI443
ag366
a(lp369
g348
ag366
aaa(lp370
I438
aI443
ag366
a(lp371
g339
ag366
aaa(lp372
I438
aI443
ag366
a(lp373
g330
ag366
aaa(lp374
I445
aI449
aS'dont'
p375
a(lp376
g366
ag375
aaa(lp377
I445
aI449
ag375
a(lp378
g357
ag375
aaa(lp379
I445
aI449
ag375
a(lp380
g348
ag375
aaa(lp381
I445
aI449
ag375
a(lp382
g339
ag375
aaa(lp383
I462
aI472
aS'embarrassed'
p384
a(lp385
g375
ag384
aaa(lp386
I462
aI472
ag384
a(lp387
g366
ag384
aaa(lp388
I462
aI472
ag384
a(lp389
g357
ag384
aaa(lp390
I462
aI472
ag384
a(lp391
g348
ag384
aaa(lp392
I477
aI479
aS'ask'
p393
a(lp394
g384
ag393
aaa(lp395
I477
aI479
ag393
a(lp396
g375
ag393
aaa(lp397
I477
aI479
ag393
a(lp398
g366
ag393
aaa(lp399
I477
aI479
ag393
a(lp400
g357
ag393
aaa(lp401
I481
aI486
aS'simple'
p402
a(lp403
g393
ag402
aaa(lp404
I481
aI486
ag402
a(lp405
g384
ag402
aaa(lp406
I481
aI486
ag402
a(lp407
g375
ag402
aaa(lp408
I481
aI486
ag402
a(lp409
g366
ag402
aaa(lp410
I491
aI501
aS'complicated'
p411
a(lp412
g402
ag411
aaa(lp413
I491
aI501
ag411
a(lp414
g393
ag411
aaa(lp415
I491
aI501
ag411
a(lp416
g384
ag411
aaa(lp417
I491
aI501
ag411
a(lp418
g375
ag411
aaa(lp419
I503
aI511
aS'questions'
p420
a(lp421
g411
ag420
aaa(lp422
I503
aI511
ag420
a(lp423
g402
ag420
aaa(lp424
I503
aI511
ag420
a(lp425
g393
ag420
aaa(lp426
I503
aI511
ag420
a(lp427
g384
ag420
aaa(lp428
I521
aI523
aS'ask'
p429
a(lp430
g420
ag429
aaa(lp431
I521
aI523
ag429
a(lp432
g411
ag429
aaa(lp433
I521
aI523
ag429
a(lp434
g402
ag429
aaa(lp435
I521
aI523
ag429
a(lp436
g393
ag429
aaa(lp437
I529
aI534
aS'advice'
p438
a(lp439
g429
ag438
aaa(lp440
I529
aI534
ag438
a(lp441
g420
ag438
aaa(lp442
I529
aI534
ag438
a(lp443
g411
ag438
aaa(lp444
I529
aI534
ag438
a(lp445
g402
ag438
aaa(lp446
I536
aI542
aS'without'
p447
a(lp448
g438
ag447
aaa(lp449
I536
aI542
ag447
a(lp450
g429
ag447
aaa(lp451
I536
aI542
ag447
a(lp452
g420
ag447
aaa(lp453
I536
aI542
ag447
a(lp454
g411
ag447
aaa(lp455
I544
aI550
aS'feeling'
p456
a(lp457
g447
ag456
aaa(lp458
I544
aI550
ag456
a(lp459
g438
ag456
aaa(lp460
I544
aI550
ag456
a(lp461
g429
ag456
aaa(lp462
I544
aI550
ag456
a(lp463
g420
ag456
aaa(lp464
I552
aI555
aS'like'
p465
a(lp466
g456
ag465
aaa(lp467
I552
aI555
ag465
a(lp468
g447
ag465
aaa(lp469
I552
aI555
ag465
a(lp470
g438
ag465
aaa(lp471
I552
aI555
ag465
a(lp472
g429
ag465
aaa(lp473
I574
aI580
aS'already'
p474
a(lp475
g465
ag474
aaa(lp476
I574
aI580
ag474
a(lp477
g456
ag474
aaa(lp478
I574
aI580
ag474
a(lp479
g447
ag474
aaa(lp480
I574
aI580
ag474
a(lp481
g438
ag474
aaa(lp482
I582
aI586
aS'known'
p483
a(lp484
g474
ag483
aaa(lp485
I582
aI586
ag483
a(lp486
g465
ag483
aaa(lp487
I582
aI586
ag483
a(lp488
g456
ag483
aaa(lp489
I582
aI586
ag483
a(lp490
g447
ag483
aaa(lp491
I603
aI607
aS'login'
p492
a(lp493
g483
ag492
aaa(lp494
I603
aI607
ag492
a(lp495
g474
ag492
aaa(lp496
I603
aI607
ag492
a(lp497
g465
ag492
aaa(lp498
I603
aI607
ag492
a(lp499
g456
ag492
aaa(lp500
I614
aI620
aS'account'
p501
a(lp502
g492
ag501
aaa(lp503
I614
aI620
ag501
a(lp504
g483
ag501
aaa(lp505
I614
aI620
ag501
a(lp506
g474
ag501
aaa(lp507
I614
aI620
ag501
a(lp508
g465
ag501
aaa(lp509
I631
aI634
aS'made'
p510
a(lp511
g501
ag510
aaa(lp512
I631
aI634
ag510
a(lp513
g492
ag510
aaa(lp514
I631
aI634
ag510
a(lp515
g483
ag510
aaa(lp516
I631
aI634
ag510
a(lp517
g474
ag510
aaa(lp518
I641
aI645
aS'gmail'
p519
a(lp520
g510
ag519
aaa(lp521
I641
aI645
ag519
a(lp522
g501
ag519
aaa(lp523
I641
aI645
ag519
a(lp524
g492
ag519
aaa(lp525
I641
aI645
ag519
a(lp526
g483
ag519
aaa(lp527
I661
aI664
aS'need'
p528
a(lp529
g519
ag528
aaa(lp530
I661
aI664
ag528
a(lp531
g510
ag528
aaa(lp532
I661
aI664
ag528
a(lp533
g501
ag528
aaa(lp534
I661
aI664
ag528
a(lp535
g492
ag528
aaa(lp536
I669
aI673
aS'enter'
p537
a(lp538
g528
ag537
aaa(lp539
I669
aI673
ag537
a(lp540
g519
ag537
aaa(lp541
I669
aI673
ag537
a(lp542
g510
ag537
aaa(lp543
I669
aI673
ag537
a(lp544
g501
ag537
aaa(lp545
I675
aI679
aS'along'
p546
a(lp547
g537
ag546
aaa(lp548
I675
aI679
ag546
a(lp549
g528
ag546
aaa(lp550
I675
aI679
ag546
a(lp551
g519
ag546
aaa(lp552
I675
aI679
ag546
a(lp553
g510
ag546
aaa(lp554
I690
aI697
aS'password'
p555
a(lp556
g546
ag555
aaa(lp557
I690
aI697
ag555
a(lp558
g537
ag555
aaa(lp559
I690
aI697
ag555
a(lp560
g528
ag555
aaa(lp561
I690
aI697
ag555
a(lp562
g519
ag555
aaa(lp563
I700
aI704
aS'email'
p564
a(lp565
g555
ag564
aaa(lp566
I700
aI704
ag564
a(lp567
g546
ag564
aaa(lp568
I700
aI704
ag564
a(lp569
g537
ag564
aaa(lp570
I700
aI704
ag564
a(lp571
g528
ag564
aaa(lp572
I707
aI714
aS'password'
p573
a(lp574
g564
ag573
aaa(lp575
I707
aI714
ag573
a(lp576
g555
ag573
aaa(lp577
I707
aI714
ag573
a(lp578
g546
ag573
aaa(lp579
I707
aI714
ag573
a(lp580
g537
ag573
aaa(lp581
I717
aI722
aS'please'
p582
a(lp583
g573
ag582
aaa(lp584
I717
aI722
ag582
a(lp585
g564
ag582
aaa(lp586
I717
aI722
ag582
a(lp587
g555
ag582
aaa(lp588
I717
aI722
ag582
a(lp589
g546
ag582
aaa(lp590
I731
aI736
aS'change'
p591
a(lp592
g582
ag591
aaa(lp593
I731
aI736
ag591
a(lp594
g573
ag591
aaa(lp595
I731
aI736
ag591
a(lp596
g564
ag591
aaa(lp597
I731
aI736
ag591
a(lp598
g555
ag591
aaa(lp599
I742
aI749
aS'settings'
p600
a(lp601
g591
ag600
aaa(lp602
I742
aI749
ag600
a(lp603
g582
ag600
aaa(lp604
I742
aI749
ag600
a(lp605
g573
ag600
aaa(lp606
I742
aI749
ag600
a(lp607
g564
ag600
aaa(lp608
I754
aI756
aS'use'
p609
a(lp610
g600
ag609
aaa(lp611
I754
aI756
ag609
a(lp612
g591
ag609
aaa(lp613
I754
aI756
ag609
a(lp614
g582
ag609
aaa(lp615
I754
aI756
ag609
a(lp616
g573
ag609
aaa(lp617
I763
aI767
aS'email'
p618
a(lp619
g609
ag618
aaa(lp620
I763
aI767
ag618
a(lp621
g600
ag618
aaa(lp622
I763
aI767
ag618
a(lp623
g591
ag618
aaa(lp624
I763
aI767
ag618
a(lp625
g582
ag618
aaa(lp626
I769
aI775
aS'account'
p627
a(lp628
g618
ag627
aaa(lp629
I769
aI775
ag627
a(lp630
g609
ag627
aaa(lp631
I769
aI775
ag627
a(lp632
g600
ag627
aaa(lp633
I769
aI775
ag627
a(lp634
g591
ag627
aaa(lp635
I791
aI794
aS'sign'
p636
a(lp637
g627
ag636
aaa(lp638
I791
aI794
ag636
a(lp639
g618
ag636
aaa(lp640
I791
aI794
ag636
a(lp641
g609
ag636
aaa(lp642
I791
aI794
ag636
a(lp643
g600
ag636
aaa(lp644
I806
aI809
aS'blog'
p645
a(lp646
g636
ag645
aaa(lp647
I806
aI809
ag645
a(lp648
g627
ag645
aaa(lp649
I806
aI809
ag645
a(lp650
g618
ag645
aaa(lp651
I806
aI809
ag645
a(lp652
g609
ag645
aaa(lp653
I820
aI826
aS'welcome'
p654
a(lp655
g645
ag654
aaa(lp656
I820
aI826
ag654
a(lp657
g636
ag654
aaa(lp658
I820
aI826
ag654
a(lp659
g627
ag654
aaa(lp660
I820
aI826
ag654
a(lp661
g618
ag654
aaa(lp662
I831
aI833
aS'add'
p663
a(lp664
g654
ag663
aaa(lp665
I831
aI833
ag663
a(lp666
g645
ag663
aaa(lp667
I831
aI833
ag663
a(lp668
g636
ag663
aaa(lp669
I831
aI833
ag663
a(lp670
g627
ag663
aaa(lp671
I844
aI851
aS'personal'
p672
a(lp673
g663
ag672
aaa(lp674
I844
aI851
ag672
a(lp675
g654
ag672
aaa(lp676
I844
aI851
ag672
a(lp677
g645
ag672
aaa(lp678
I844
aI851
ag672
a(lp679
g636
ag672
aaa(lp680
I853
aI856
aS'blog'
p681
a(lp682
g672
ag681
aaa(lp683
I853
aI856
ag681
a(lp684
g663
ag681
aaa(lp685
I853
aI856
ag681
a(lp686
g654
ag681
aaa(lp687
I853
aI856
ag681
a(lp688
g645
ag681
aaa(lp689
I859
aI862
aS'link'
p690
a(lp691
g681
ag690
aaa(lp692
I859
aI862
ag690
a(lp693
g672
ag690
aaa(lp694
I859
aI862
ag690
a(lp695
g663
ag690
aaa(lp696
I859
aI862
ag690
a(lp697
g654
ag690
aaa(lp698
I867
aI872
aS'others'
p699
a(lp700
g690
ag699
aaa(lp701
I867
aI872
ag699
a(lp702
g681
ag699
aaa(lp703
I867
aI872
ag699
a(lp704
g672
ag699
aaa(lp705
I867
aI872
ag699
a(lp706
g663
ag699
aaa(lp707
I878
aI880
aS'get'
p708
a(lp709
g699
ag708
aaa(lp710
I878
aI880
ag708
a(lp711
g690
ag708
aaa(lp712
I878
aI880
ag708
a(lp713
g681
ag708
aaa(lp714
I878
aI880
ag708
a(lp715
g672
ag708
aaa(lp716
I885
aI888
aS'know'
p717
a(lp718
g708
ag717
aaa(lp719
I885
aI888
ag717
a(lp720
g699
ag717
aaa(lp721
I885
aI888
ag717
a(lp722
g690
ag717
aaa(lp723
I885
aI888
ag717
a(lp724
g681
ag717
aaa(lp725
I894
aI899
aS'better'
p726
a(lp727
g717
ag726
aaa(lp728
I894
aI899
ag726
a(lp729
g708
ag726
aaa(lp730
I894
aI899
ag726
a(lp731
g699
ag726
aaa(lp732
I894
aI899
ag726
a(lp733
g690
ag726
aaa(lp734
I906
aI910
aS'lets'
p735
a(lp736
g726
ag735
aaa(lp737
I906
aI910
ag735
a(lp738
g717
ag735
aaa(lp739
I906
aI910
ag735
a(lp740
g708
ag735
aaa(lp741
I906
aI910
ag735
a(lp742
g699
ag735
aaa(lp743
I912
aI914
aS'get'
p744
a(lp745
g735
ag744
aaa(lp746
I912
aI914
ag744
a(lp747
g726
ag744
aaa(lp748
I912
aI914
ag744
a(lp749
g717
ag744
aaa(lp750
I912
aI914
ag744
a(lp751
g708
ag744
aaa(lp752
I916
aI923
aS'blogging'
p753
a(lp754
g744
ag753
aaa(lp755
I916
aI923
ag753
a(lp756
g735
ag753
aaa(lp757
I916
aI923
ag753
a(lp758
g726
ag753
aaa(lp759
I916
aI923
ag753
a(lp760
g717
ag753
aaa(lp761
I929
aI936
aS'remember'
p762
a(lp763
g753
ag762
aaa(lp764
I929
aI936
ag762
a(lp765
g744
ag762
aaa(lp766
I929
aI936
ag762
a(lp767
g735
ag762
aaa(lp768
I929
aI936
ag762
a(lp769
g726
ag762
aaa(lp770
I944
aI947
aS'kind'
p771
a(lp772
g762
ag771
aaa(lp773
I944
aI947
ag771
a(lp774
g753
ag771
aaa(lp775
I944
aI947
ag771
a(lp776
g744
ag771
aaa(lp777
I944
aI947
ag771
a(lp778
g735
ag771
aaa(lp779
I953
aI959
aS'helpful'
p780
a(lp781
g771
ag780
aaa(lp782
I953
aI959
ag780
a(lp783
g762
ag780
aaa(lp784
I953
aI959
ag780
a(lp785
g753
ag780
aaa(lp786
I953
aI959
ag780
a(lp787
g744
ag780
aaa(lp788
I961
aI964
aS'postingcommenting'
p789
a(lp790
g780
ag789
aaa(lp791
I961
aI964
ag789
a(lp792
g771
ag789
aaa(lp793
I961
aI964
ag789
a(lp794
g762
ag789
aaa(lp795
I961
aI964
ag789
a(lp796
g753
ag789
aaasS'wordMap'
p797
(lp798
(lp799
I0
aI9
ag5
a(lp800
(lp801
I0
aS'h'
p802
aa(lp803
I1
aS'o'
p804
aa(lp805
I2
aS'm'
p806
aa(lp807
I3
aS'e'
p808
aa(lp809
I4
ag806
aa(lp810
I5
aS'a'
p811
aa(lp812
I6
aS'k'
p813
aa(lp814
I7
aS'i'
p815
aa(lp816
I8
aS'n'
p817
aa(lp818
I9
aS'g'
p819
aaaa(lp820
I11
aI15
aS'about'
p821
a(lp822
(lp823
I11
ag811
aa(lp824
I12
aS'b'
p825
aa(lp826
I13
ag804
aa(lp827
I14
aS'u'
p828
aa(lp829
I15
aS't'
p830
aaaa(lp831
I17
aI20
ag15
a(lp832
(lp833
I17
ag825
aa(lp834
I18
aS'l'
p835
aa(lp836
I19
ag804
aa(lp837
I20
ag819
aaaa(lp838
I22
aI25
aS'this'
p839
a(lp840
(lp841
I22
ag830
aa(lp842
I23
ag802
aa(lp843
I24
ag815
aa(lp844
I25
aS's'
p845
aaaa(lp846
I27
aI30
ag24
a(lp847
(lp848
I27
ag825
aa(lp849
I28
ag835
aa(lp850
I29
ag804
aa(lp851
I30
ag819
aaaa(lp852
I32
aI33
aS'is'
p853
a(lp854
(lp855
I32
ag815
aa(lp856
I33
ag845
aaaa(lp857
I35
aI37
aS'for'
p858
a(lp859
(lp860
I35
aS'f'
p861
aa(lp862
I36
ag804
aa(lp863
I37
aS'r'
p864
aaaa(lp865
I39
aI46
ag33
a(lp866
(lp867
I39
ag808
aa(lp868
I40
aS'v'
p869
aa(lp870
I41
ag808
aa(lp871
I42
ag864
aa(lp872
I43
aS'y'
p873
aa(lp874
I44
ag804
aa(lp875
I45
ag817
aa(lp876
I46
ag808
aaaa(lp877
I49
aI50
aS'it'
p878
a(lp879
(lp880
I49
ag815
aa(lp881
I50
ag830
aaaa(lp882
I52
aI54
aS'was'
p883
a(lp884
(lp885
I52
aS'w'
p886
aa(lp887
I53
ag811
aa(lp888
I54
ag845
aaaa(lp889
I56
aI62
ag42
a(lp890
(lp891
I56
aS'c'
p892
aa(lp893
I57
ag864
aa(lp894
I58
ag808
aa(lp895
I59
ag811
aa(lp896
I60
ag830
aa(lp897
I61
ag808
aa(lp898
I62
aS'd'
p899
aaaa(lp900
I64
aI66
aS'for'
p901
a(lp902
(lp903
I64
ag861
aa(lp904
I65
ag804
aa(lp905
I66
ag864
aaaa(lp906
I68
aI70
aS'you'
p907
a(lp908
(lp909
I68
ag873
aa(lp910
I69
ag804
aa(lp911
I70
ag828
aaaa(lp912
I72
aI74
aS'and'
p913
a(lp914
(lp915
I72
ag811
aa(lp916
I73
ag817
aa(lp917
I74
ag899
aaaa(lp918
I76
aI77
aS'me'
p919
a(lp920
(lp921
I76
ag806
aa(lp922
I77
ag808
aaaa(lp923
I80
aI81
aS'to'
p924
a(lp925
(lp926
I80
ag830
aa(lp927
I81
ag804
aaaa(lp928
I83
aI86
ag51
a(lp929
(lp930
I83
ag802
aa(lp931
I84
ag808
aa(lp932
I85
ag835
aa(lp933
I86
aS'p'
p934
aaaa(lp935
I88
aI89
ag60
a(lp936
(lp937
I88
ag828
aa(lp938
I89
ag845
aaaa(lp939
I91
aI96
ag69
a(lp940
(lp941
I91
ag825
aa(lp942
I92
ag808
aa(lp943
I93
ag892
aa(lp944
I94
ag804
aa(lp945
I95
ag806
aa(lp946
I96
ag808
aaaa(lp947
I98
aI103
ag78
a(lp948
(lp949
I98
ag825
aa(lp950
I99
ag808
aa(lp951
I100
ag830
aa(lp952
I101
ag830
aa(lp953
I102
ag808
aa(lp954
I103
ag864
aaaa(lp955
I105
aI114
ag87
a(lp956
(lp957
I105
ag802
aa(lp958
I106
ag804
aa(lp959
I107
ag806
aa(lp960
I108
ag808
aa(lp961
I109
ag806
aa(lp962
I110
ag811
aa(lp963
I111
ag813
aa(lp964
I112
ag808
aa(lp965
I113
ag864
aa(lp966
I114
ag845
aaaa(lp967
I117
aI122
ag96
a(lp968
(lp969
I117
ag802
aa(lp970
I118
ag808
aa(lp971
I119
ag864
aa(lp972
I120
ag808
aa(lp973
I122
ag845
aaaa(lp974
I124
aI126
aS'how'
p975
a(lp976
(lp977
I124
ag802
aa(lp978
I125
ag804
aa(lp979
I126
ag886
aaaa(lp980
I128
aI129
aS'it'
p981
a(lp982
(lp983
I128
ag815
aa(lp984
I129
ag830
aaaa(lp985
I131
aI141
ag105
a(lp986
(lp987
I131
ag886
aa(lp988
I132
ag804
aa(lp989
I133
ag864
aa(lp990
I134
ag813
aa(lp991
I135
ag845
aa(lp992
I139
ag873
aa(lp993
I140
ag804
aa(lp994
I141
ag828
aaaa(lp995
I143
aI148
ag114
a(lp996
(lp997
I143
ag892
aa(lp998
I144
ag864
aa(lp999
I145
ag808
aa(lp1000
I146
ag811
aa(lp1001
I147
ag830
aa(lp1002
I148
ag808
aaaa(lp1003
I150
aI150
ag811
a(lp1004
(lp1005
I150
ag811
aaaa(lp1006
I153
aI156
ag123
a(lp1007
(lp1008
I153
ag934
aa(lp1009
I154
ag804
aa(lp1010
I155
ag845
aa(lp1011
I156
ag830
aaaa(lp1012
I159
aI161
aS'for'
p1013
a(lp1014
(lp1015
I159
ag861
aa(lp1016
I160
ag804
aa(lp1017
I161
ag864
aaaa(lp1018
I163
aI170
ag132
a(lp1019
(lp1020
I163
ag808
aa(lp1021
I164
ag869
aa(lp1022
I165
ag808
aa(lp1023
I166
ag864
aa(lp1024
I167
ag873
aa(lp1025
I168
ag804
aa(lp1026
I169
ag817
aa(lp1027
I170
ag808
aaaa(lp1028
I172
aI173
aS'to'
p1029
a(lp1030
(lp1031
I172
ag830
aa(lp1032
I173
ag804
aaaa(lp1033
I175
aI177
ag141
a(lp1034
(lp1035
I175
ag845
aa(lp1036
I176
ag808
aa(lp1037
I177
ag808
aaaa(lp1038
I181
aI185
ag150
a(lp1039
(lp1040
I181
ag934
aa(lp1041
I182
ag804
aa(lp1042
I183
ag845
aa(lp1043
I184
ag830
aa(lp1044
I185
ag845
aaaa(lp1045
I187
aI190
aS'will'
p1046
a(lp1047
(lp1048
I187
ag886
aa(lp1049
I188
ag815
aa(lp1050
I189
ag835
aa(lp1051
I190
ag835
aaaa(lp1052
I192
aI193
aS'be'
p1053
a(lp1054
(lp1055
I192
ag825
aa(lp1056
I193
ag808
aaaa(lp1057
I195
aI201
ag159
a(lp1058
(lp1059
I195
ag899
aa(lp1060
I196
ag808
aa(lp1061
I197
ag835
aa(lp1062
I198
ag808
aa(lp1063
I199
ag830
aa(lp1064
I200
ag808
aa(lp1065
I201
ag899
aaaa(lp1066
I203
aI204
aS'if'
p1067
a(lp1068
(lp1069
I203
ag815
aa(lp1070
I204
ag861
aaaa(lp1071
I206
aI218
ag168
a(lp1072
(lp1073
I206
ag815
aa(lp1074
I207
ag817
aa(lp1075
I208
ag811
aa(lp1076
I209
ag934
aa(lp1077
I210
ag934
aa(lp1078
I211
ag864
aa(lp1079
I212
ag804
aa(lp1080
I213
ag934
aa(lp1081
I214
ag864
aa(lp1082
I215
ag815
aa(lp1083
I216
ag811
aa(lp1084
I217
ag830
aa(lp1085
I218
ag808
aaaa(lp1086
I222
aI225
aS'then'
p1087
a(lp1088
(lp1089
I222
ag830
aa(lp1090
I223
ag802
aa(lp1091
I224
ag808
aa(lp1092
I225
ag817
aaaa(lp1093
I227
aI232
ag177
a(lp1094
(lp1095
I227
ag934
aa(lp1096
I228
ag808
aa(lp1097
I229
ag804
aa(lp1098
I230
ag934
aa(lp1099
I231
ag835
aa(lp1100
I232
ag808
aaaa(lp1101
I234
aI236
aS'can'
p1102
a(lp1103
(lp1104
I234
ag892
aa(lp1105
I235
ag811
aa(lp1106
I236
ag817
aaaa(lp1107
I238
aI241
ag186
a(lp1108
(lp1109
I238
ag806
aa(lp1110
I239
ag811
aa(lp1111
I240
ag813
aa(lp1112
I241
ag808
aaaa(lp1113
I243
aI250
ag195
a(lp1114
(lp1115
I243
ag892
aa(lp1116
I244
ag804
aa(lp1117
I245
ag806
aa(lp1118
I246
ag806
aa(lp1119
I247
ag808
aa(lp1120
I248
ag817
aa(lp1121
I249
ag830
aa(lp1122
I250
ag845
aaaa(lp1123
I253
aI254
aS'or'
p1124
a(lp1125
(lp1126
I253
ag804
aa(lp1127
I254
ag864
aaaa(lp1128
I256
aI259
ag204
a(lp1129
(lp1130
I256
ag819
aa(lp1131
I257
ag815
aa(lp1132
I258
ag869
aa(lp1133
I259
ag808
aaaa(lp1134
I261
aI267
ag213
a(lp1135
(lp1136
I261
ag811
aa(lp1137
I262
ag817
aa(lp1138
I263
ag845
aa(lp1139
I264
ag886
aa(lp1140
I265
ag808
aa(lp1141
I266
ag864
aa(lp1142
I267
ag845
aaaa(lp1143
I270
aI274
aS'about'
p1144
a(lp1145
(lp1146
I270
ag811
aa(lp1147
I271
ag825
aa(lp1148
I272
ag804
aa(lp1149
I273
ag828
aa(lp1150
I274
ag830
aaaa(lp1151
I276
aI279
aS'that'
p1152
a(lp1153
(lp1154
I276
ag830
aa(lp1155
I277
ag802
aa(lp1156
I278
ag811
aa(lp1157
I279
ag830
aaaa(lp1158
I281
aI284
ag222
a(lp1159
(lp1160
I281
ag934
aa(lp1161
I282
ag804
aa(lp1162
I283
ag845
aa(lp1163
I284
ag830
aaaa(lp1164
I287
aI289
aS'the'
p1165
a(lp1166
(lp1167
I287
ag830
aa(lp1168
I288
ag802
aa(lp1169
I289
ag808
aaaa(lp1170
I291
aI294
ag231
a(lp1171
(lp1172
I291
ag815
aa(lp1173
I292
ag899
aa(lp1174
I293
ag808
aa(lp1175
I294
ag811
aaaa(lp1176
I296
aI297
aS'of'
p1177
a(lp1178
(lp1179
I296
ag804
aa(lp1180
I297
ag861
aaaa(lp1181
I299
aI302
aS'this'
p1182
a(lp1183
(lp1184
I299
ag830
aa(lp1185
I300
ag802
aa(lp1186
I301
ag815
aa(lp1187
I302
ag845
aaaa(lp1188
I304
aI307
ag240
a(lp1189
(lp1190
I304
ag825
aa(lp1191
I305
ag835
aa(lp1192
I306
ag804
aa(lp1193
I307
ag819
aaaa(lp1194
I309
aI310
aS'is'
p1195
a(lp1196
(lp1197
I309
ag815
aa(lp1198
I310
ag845
aaaa(lp1199
I312
aI313
aS'to'
p1200
a(lp1201
(lp1202
I312
ag830
aa(lp1203
I313
ag804
aaaa(lp1204
I315
aI319
ag249
a(lp1205
(lp1206
I315
ag804
aa(lp1207
I316
ag861
aa(lp1208
I317
ag861
aa(lp1209
I318
ag808
aa(lp1210
I319
ag864
aaaa(lp1211
I321
aI326
ag258
a(lp1212
(lp1213
I321
ag811
aa(lp1214
I322
ag899
aa(lp1215
I323
ag869
aa(lp1216
I324
ag815
aa(lp1217
I325
ag892
aa(lp1218
I326
ag808
aaaa(lp1219
I329
aI333
ag267
a(lp1220
(lp1221
I329
ag815
aa(lp1222
I330
ag899
aa(lp1223
I331
ag808
aa(lp1224
I332
ag811
aa(lp1225
I333
ag845
aaaa(lp1226
I336
aI338
ag276
a(lp1227
(lp1228
I336
ag811
aa(lp1229
I337
ag845
aa(lp1230
I338
ag813
aaaa(lp1231
I340
aI348
ag285
a(lp1232
(lp1233
I340
aS'q'
p1234
aa(lp1235
I341
ag828
aa(lp1236
I342
ag808
aa(lp1237
I343
ag845
aa(lp1238
I344
ag830
aa(lp1239
I345
ag815
aa(lp1240
I346
ag804
aa(lp1241
I347
ag817
aa(lp1242
I348
ag845
aaaa(lp1243
I351
aI353
ag294
a(lp1244
(lp1245
I351
ag808
aa(lp1246
I352
ag830
aa(lp1247
I353
ag892
aaaa(lp1248
I356
aI359
aS'that'
p1249
a(lp1250
(lp1251
I356
ag830
aa(lp1252
I357
ag802
aa(lp1253
I358
ag811
aa(lp1254
I359
ag830
aaaa(lp1255
I361
aI364
aS'will'
p1256
a(lp1257
(lp1258
I361
ag886
aa(lp1259
I362
ag815
aa(lp1260
I363
ag835
aa(lp1261
I364
ag835
aaaa(lp1262
I366
aI369
ag303
a(lp1263
(lp1264
I366
ag802
aa(lp1265
I367
ag808
aa(lp1266
I368
ag835
aa(lp1267
I369
ag934
aaaa(lp1268
I371
aI373
aS'you'
p1269
a(lp1270
(lp1271
I371
ag873
aa(lp1272
I372
ag804
aa(lp1273
I373
ag828
aaaa(lp1274
I375
aI377
aS'and'
p1275
a(lp1276
(lp1277
I375
ag811
aa(lp1278
I376
ag817
aa(lp1279
I377
ag899
aaaa(lp1280
I379
aI384
ag312
a(lp1281
(lp1282
I379
ag804
aa(lp1283
I380
ag830
aa(lp1284
I381
ag802
aa(lp1285
I382
ag808
aa(lp1286
I383
ag864
aa(lp1287
I384
ag845
aaaa(lp1288
I386
aI391
ag321
a(lp1289
(lp1290
I386
ag825
aa(lp1291
I387
ag808
aa(lp1292
I388
ag892
aa(lp1293
I389
ag804
aa(lp1294
I390
ag806
aa(lp1295
I391
ag808
aaaa(lp1296
I393
aI398
ag330
a(lp1297
(lp1298
I393
ag825
aa(lp1299
I394
ag808
aa(lp1300
I395
ag830
aa(lp1301
I396
ag830
aa(lp1302
I397
ag808
aa(lp1303
I398
ag864
aaaa(lp1304
I400
aI409
ag339
a(lp1305
(lp1306
I400
ag802
aa(lp1307
I401
ag804
aa(lp1308
I402
ag806
aa(lp1309
I403
ag808
aa(lp1310
I404
ag806
aa(lp1311
I405
ag811
aa(lp1312
I406
ag813
aa(lp1313
I407
ag808
aa(lp1314
I408
ag864
aa(lp1315
I409
ag845
aaaa(lp1316
I412
aI413
aS'by'
p1317
a(lp1318
(lp1319
I412
ag825
aa(lp1320
I413
ag873
aaaa(lp1321
I415
aI421
ag348
a(lp1322
(lp1323
I415
ag845
aa(lp1324
I416
ag808
aa(lp1325
I417
ag830
aa(lp1326
I418
ag830
aa(lp1327
I419
ag815
aa(lp1328
I420
ag817
aa(lp1329
I421
ag819
aaaa(lp1330
I423
aI424
aS'it'
p1331
a(lp1332
(lp1333
I423
ag815
aa(lp1334
I424
ag830
aaaa(lp1335
I426
aI427
aS'up'
p1336
a(lp1337
(lp1338
I426
ag828
aa(lp1339
I427
ag934
aaaa(lp1340
I429
aI432
aS'this'
p1341
a(lp1342
(lp1343
I429
ag830
aa(lp1344
I430
ag802
aa(lp1345
I431
ag815
aa(lp1346
I432
ag845
aaaa(lp1347
I434
aI436
ag357
a(lp1348
(lp1349
I434
ag886
aa(lp1350
I435
ag811
aa(lp1351
I436
ag873
aaaa(lp1352
I438
aI443
ag366
a(lp1353
(lp1354
I438
ag934
aa(lp1355
I439
ag808
aa(lp1356
I440
ag804
aa(lp1357
I441
ag934
aa(lp1358
I442
ag835
aa(lp1359
I443
ag808
aaaa(lp1360
I445
aI449
ag375
a(lp1361
(lp1362
I445
ag899
aa(lp1363
I446
ag804
aa(lp1364
I447
ag817
aa(lp1365
I449
ag830
aaaa(lp1366
I451
aI454
aS'have'
p1367
a(lp1368
(lp1369
I451
ag802
aa(lp1370
I452
ag811
aa(lp1371
I453
ag869
aa(lp1372
I454
ag808
aaaa(lp1373
I456
aI457
aS'to'
p1374
a(lp1375
(lp1376
I456
ag830
aa(lp1377
I457
ag804
aaaa(lp1378
I459
aI460
aS'be'
p1379
a(lp1380
(lp1381
I459
ag825
aa(lp1382
I460
ag808
aaaa(lp1383
I462
aI472
ag384
a(lp1384
(lp1385
I462
ag808
aa(lp1386
I463
ag806
aa(lp1387
I464
ag825
aa(lp1388
I465
ag811
aa(lp1389
I466
ag864
aa(lp1390
I467
ag864
aa(lp1391
I468
ag811
aa(lp1392
I469
ag845
aa(lp1393
I470
ag845
aa(lp1394
I471
ag808
aa(lp1395
I472
ag899
aaaa(lp1396
I474
aI475
aS'to'
p1397
a(lp1398
(lp1399
I474
ag830
aa(lp1400
I475
ag804
aaaa(lp1401
I477
aI479
ag393
a(lp1402
(lp1403
I477
ag811
aa(lp1404
I478
ag845
aa(lp1405
I479
ag813
aaaa(lp1406
I481
aI486
ag402
a(lp1407
(lp1408
I481
ag845
aa(lp1409
I482
ag815
aa(lp1410
I483
ag806
aa(lp1411
I484
ag934
aa(lp1412
I485
ag835
aa(lp1413
I486
ag808
aaaa(lp1414
I488
aI489
aS'or'
p1415
a(lp1416
(lp1417
I488
ag804
aa(lp1418
I489
ag864
aaaa(lp1419
I491
aI501
ag411
a(lp1420
(lp1421
I491
ag892
aa(lp1422
I492
ag804
aa(lp1423
I493
ag806
aa(lp1424
I494
ag934
aa(lp1425
I495
ag835
aa(lp1426
I496
ag815
aa(lp1427
I497
ag892
aa(lp1428
I498
ag811
aa(lp1429
I499
ag830
aa(lp1430
I500
ag808
aa(lp1431
I501
ag899
aaaa(lp1432
I503
aI511
ag420
a(lp1433
(lp1434
I503
ag1234
aa(lp1435
I504
ag828
aa(lp1436
I505
ag808
aa(lp1437
I506
ag845
aa(lp1438
I507
ag830
aa(lp1439
I508
ag815
aa(lp1440
I509
ag804
aa(lp1441
I510
ag817
aa(lp1442
I511
ag845
aaaa(lp1443
I513
aI515
aS'and'
p1444
a(lp1445
(lp1446
I513
ag811
aa(lp1447
I514
ag817
aa(lp1448
I515
ag899
aaaa(lp1449
I517
aI519
aS'can'
p1450
a(lp1451
(lp1452
I517
ag892
aa(lp1453
I518
ag811
aa(lp1454
I519
ag817
aaaa(lp1455
I521
aI523
ag429
a(lp1456
(lp1457
I521
ag811
aa(lp1458
I522
ag845
aa(lp1459
I523
ag813
aaaa(lp1460
I525
aI527
aS'for'
p1461
a(lp1462
(lp1463
I525
ag861
aa(lp1464
I526
ag804
aa(lp1465
I527
ag864
aaaa(lp1466
I529
aI534
ag438
a(lp1467
(lp1468
I529
ag811
aa(lp1469
I530
ag899
aa(lp1470
I531
ag869
aa(lp1471
I532
ag815
aa(lp1472
I533
ag892
aa(lp1473
I534
ag808
aaaa(lp1474
I536
aI542
ag447
a(lp1475
(lp1476
I536
ag886
aa(lp1477
I537
ag815
aa(lp1478
I538
ag830
aa(lp1479
I539
ag802
aa(lp1480
I540
ag804
aa(lp1481
I541
ag828
aa(lp1482
I542
ag830
aaaa(lp1483
I544
aI550
ag456
a(lp1484
(lp1485
I544
ag861
aa(lp1486
I545
ag808
aa(lp1487
I546
ag808
aa(lp1488
I547
ag835
aa(lp1489
I548
ag815
aa(lp1490
I549
ag817
aa(lp1491
I550
ag819
aaaa(lp1492
I552
aI555
ag465
a(lp1493
(lp1494
I552
ag835
aa(lp1495
I553
ag815
aa(lp1496
I554
ag813
aa(lp1497
I555
ag808
aaaa(lp1498
I557
aI560
aS'they'
p1499
a(lp1500
(lp1501
I557
ag830
aa(lp1502
I558
ag802
aa(lp1503
I559
ag808
aa(lp1504
I560
ag873
aaaa(lp1505
I562
aI567
aS'should'
p1506
a(lp1507
(lp1508
I562
ag845
aa(lp1509
I563
ag802
aa(lp1510
I564
ag804
aa(lp1511
I565
ag828
aa(lp1512
I566
ag835
aa(lp1513
I567
ag899
aaaa(lp1514
I569
aI572
aS'have'
p1515
a(lp1516
(lp1517
I569
ag802
aa(lp1518
I570
ag811
aa(lp1519
I571
ag869
aa(lp1520
I572
ag808
aaaa(lp1521
I574
aI580
ag474
a(lp1522
(lp1523
I574
ag811
aa(lp1524
I575
ag835
aa(lp1525
I576
ag864
aa(lp1526
I577
ag808
aa(lp1527
I578
ag811
aa(lp1528
I579
ag899
aa(lp1529
I580
ag873
aaaa(lp1530
I582
aI586
ag483
a(lp1531
(lp1532
I582
ag813
aa(lp1533
I583
ag817
aa(lp1534
I584
ag804
aa(lp1535
I585
ag886
aa(lp1536
I586
ag817
aaaa(lp1537
I589
aI592
aS'that'
p1538
a(lp1539
(lp1540
I589
ag830
aa(lp1541
I590
ag802
aa(lp1542
I591
ag811
aa(lp1543
I592
ag830
aaaa(lp1544
I596
aI598
aS'how'
p1545
a(lp1546
(lp1547
I596
ag802
aa(lp1548
I597
ag804
aa(lp1549
I598
ag886
aaaa(lp1550
I600
aI601
aS'to'
p1551
a(lp1552
(lp1553
I600
ag830
aa(lp1554
I601
ag804
aaaa(lp1555
I603
aI607
ag492
a(lp1556
(lp1557
I603
ag835
aa(lp1558
I604
ag804
aa(lp1559
I605
ag819
aa(lp1560
I606
ag815
aa(lp1561
I607
ag817
aaaa(lp1562
I611
aI612
aS'an'
p1563
a(lp1564
(lp1565
I611
ag811
aa(lp1566
I612
ag817
aaaa(lp1567
I614
aI620
ag501
a(lp1568
(lp1569
I614
ag811
aa(lp1570
I615
ag892
aa(lp1571
I616
ag892
aa(lp1572
I617
ag804
aa(lp1573
I618
ag828
aa(lp1574
I619
ag817
aa(lp1575
I620
ag830
aaaa(lp1576
I622
aI624
aS'has'
p1577
a(lp1578
(lp1579
I622
ag802
aa(lp1580
I623
ag811
aa(lp1581
I624
ag845
aaaa(lp1582
I626
aI629
aS'been'
p1583
a(lp1584
(lp1585
I626
ag825
aa(lp1586
I627
ag808
aa(lp1587
I628
ag808
aa(lp1588
I629
ag817
aaaa(lp1589
I631
aI634
ag510
a(lp1590
(lp1591
I631
ag806
aa(lp1592
I632
ag811
aa(lp1593
I633
ag899
aa(lp1594
I634
ag808
aaaa(lp1595
I636
aI639
aS'with'
p1596
a(lp1597
(lp1598
I636
ag886
aa(lp1599
I637
ag815
aa(lp1600
I638
ag830
aa(lp1601
I639
ag802
aaaa(lp1602
I641
aI645
ag519
a(lp1603
(lp1604
I641
ag819
aa(lp1605
I642
ag806
aa(lp1606
I643
ag811
aa(lp1607
I644
ag815
aa(lp1608
I645
ag835
aaaa(lp1609
I647
aI650
aS'that'
p1610
a(lp1611
(lp1612
I647
ag830
aa(lp1613
I648
ag802
aa(lp1614
I649
ag811
aa(lp1615
I650
ag830
aaaa(lp1616
I652
aI654
aS'you'
p1617
a(lp1618
(lp1619
I652
ag873
aa(lp1620
I653
ag804
aa(lp1621
I654
ag828
aaaa(lp1622
I656
aI659
aS'will'
p1623
a(lp1624
(lp1625
I656
ag886
aa(lp1626
I657
ag815
aa(lp1627
I658
ag835
aa(lp1628
I659
ag835
aaaa(lp1629
I661
aI664
ag528
a(lp1630
(lp1631
I661
ag817
aa(lp1632
I662
ag808
aa(lp1633
I663
ag808
aa(lp1634
I664
ag899
aaaa(lp1635
I666
aI667
aS'to'
p1636
a(lp1637
(lp1638
I666
ag830
aa(lp1639
I667
ag804
aaaa(lp1640
I669
aI673
ag537
a(lp1641
(lp1642
I669
ag808
aa(lp1643
I670
ag817
aa(lp1644
I671
ag830
aa(lp1645
I672
ag808
aa(lp1646
I673
ag864
aaaa(lp1647
I675
aI679
ag546
a(lp1648
(lp1649
I675
ag811
aa(lp1650
I676
ag835
aa(lp1651
I677
ag804
aa(lp1652
I678
ag817
aa(lp1653
I679
ag819
aaaa(lp1654
I681
aI684
aS'with'
p1655
a(lp1656
(lp1657
I681
ag886
aa(lp1658
I682
ag815
aa(lp1659
I683
ag830
aa(lp1660
I684
ag802
aaaa(lp1661
I686
aI688
aS'the'
p1662
a(lp1663
(lp1664
I686
ag830
aa(lp1665
I687
ag802
aa(lp1666
I688
ag808
aaaa(lp1667
I690
aI697
ag555
a(lp1668
(lp1669
I690
ag934
aa(lp1670
I691
ag811
aa(lp1671
I692
ag845
aa(lp1672
I693
ag845
aa(lp1673
I694
ag886
aa(lp1674
I695
ag804
aa(lp1675
I696
ag864
aa(lp1676
I697
ag899
aaaa(lp1677
I700
aI704
ag564
a(lp1678
(lp1679
I700
ag808
aa(lp1680
I701
ag806
aa(lp1681
I702
ag811
aa(lp1682
I703
ag815
aa(lp1683
I704
ag835
aaaa(lp1684
I707
aI714
ag573
a(lp1685
(lp1686
I707
ag934
aa(lp1687
I708
ag811
aa(lp1688
I709
ag845
aa(lp1689
I710
ag845
aa(lp1690
I711
ag886
aa(lp1691
I712
ag804
aa(lp1692
I713
ag864
aa(lp1693
I714
ag899
aaaa(lp1694
I717
aI722
ag582
a(lp1695
(lp1696
I717
ag934
aa(lp1697
I718
ag835
aa(lp1698
I719
ag808
aa(lp1699
I720
ag811
aa(lp1700
I721
ag845
aa(lp1701
I722
ag808
aaaa(lp1702
I724
aI725
aS'do'
p1703
a(lp1704
(lp1705
I724
ag899
aa(lp1706
I725
ag804
aaaa(lp1707
I727
aI729
aS'not'
p1708
a(lp1709
(lp1710
I727
ag817
aa(lp1711
I728
ag804
aa(lp1712
I729
ag830
aaaa(lp1713
I731
aI736
ag591
a(lp1714
(lp1715
I731
ag892
aa(lp1716
I732
ag802
aa(lp1717
I733
ag811
aa(lp1718
I734
ag817
aa(lp1719
I735
ag819
aa(lp1720
I736
ag808
aaaa(lp1721
I738
aI740
aS'the'
p1722
a(lp1723
(lp1724
I738
ag830
aa(lp1725
I739
ag802
aa(lp1726
I740
ag808
aaaa(lp1727
I742
aI749
ag600
a(lp1728
(lp1729
I742
ag845
aa(lp1730
I743
ag808
aa(lp1731
I744
ag830
aa(lp1732
I745
ag830
aa(lp1733
I746
ag815
aa(lp1734
I747
ag817
aa(lp1735
I748
ag819
aa(lp1736
I749
ag845
aaaa(lp1737
I751
aI752
aS'or'
p1738
a(lp1739
(lp1740
I751
ag804
aa(lp1741
I752
ag864
aaaa(lp1742
I754
aI756
ag609
a(lp1743
(lp1744
I754
ag828
aa(lp1745
I755
ag845
aa(lp1746
I756
ag808
aaaa(lp1747
I758
aI761
aS'this'
p1748
a(lp1749
(lp1750
I758
ag830
aa(lp1751
I759
ag802
aa(lp1752
I760
ag815
aa(lp1753
I761
ag845
aaaa(lp1754
I763
aI767
ag618
a(lp1755
(lp1756
I763
ag808
aa(lp1757
I764
ag806
aa(lp1758
I765
ag811
aa(lp1759
I766
ag815
aa(lp1760
I767
ag835
aaaa(lp1761
I769
aI775
ag627
a(lp1762
(lp1763
I769
ag811
aa(lp1764
I770
ag892
aa(lp1765
I771
ag892
aa(lp1766
I772
ag804
aa(lp1767
I773
ag828
aa(lp1768
I774
ag817
aa(lp1769
I775
ag830
aaaa(lp1770
I777
aI781
aS'other'
p1771
a(lp1772
(lp1773
I777
ag804
aa(lp1774
I778
ag830
aa(lp1775
I779
ag802
aa(lp1776
I780
ag808
aa(lp1777
I781
ag864
aaaa(lp1778
I783
aI786
aS'than'
p1779
a(lp1780
(lp1781
I783
ag830
aa(lp1782
I784
ag802
aa(lp1783
I785
ag811
aa(lp1784
I786
ag817
aaaa(lp1785
I788
aI789
aS'to'
p1786
a(lp1787
(lp1788
I788
ag830
aa(lp1789
I789
ag804
aaaa(lp1790
I791
aI794
ag636
a(lp1791
(lp1792
I791
ag845
aa(lp1793
I792
ag815
aa(lp1794
I793
ag819
aa(lp1795
I794
ag817
aaaa(lp1796
I796
aI799
aS'into'
p1797
a(lp1798
(lp1799
I796
ag815
aa(lp1800
I797
ag817
aa(lp1801
I798
ag830
aa(lp1802
I799
ag804
aaaa(lp1803
I801
aI804
aS'this'
p1804
a(lp1805
(lp1806
I801
ag830
aa(lp1807
I802
ag802
aa(lp1808
I803
ag815
aa(lp1809
I804
ag845
aaaa(lp1810
I806
aI809
ag645
a(lp1811
(lp1812
I806
ag825
aa(lp1813
I807
ag835
aa(lp1814
I808
ag804
aa(lp1815
I809
ag819
aaaa(lp1816
I812
aI814
aS'you'
p1817
a(lp1818
(lp1819
I812
ag873
aa(lp1820
I813
ag804
aa(lp1821
I814
ag828
aaaa(lp1822
I816
aI818
aS'are'
p1823
a(lp1824
(lp1825
I816
ag811
aa(lp1826
I817
ag864
aa(lp1827
I818
ag808
aaaa(lp1828
I820
aI826
ag654
a(lp1829
(lp1830
I820
ag886
aa(lp1831
I821
ag808
aa(lp1832
I822
ag835
aa(lp1833
I823
ag892
aa(lp1834
I824
ag804
aa(lp1835
I825
ag806
aa(lp1836
I826
ag808
aaaa(lp1837
I828
aI829
aS'to'
p1838
a(lp1839
(lp1840
I828
ag830
aa(lp1841
I829
ag804
aaaa(lp1842
I831
aI833
ag663
a(lp1843
(lp1844
I831
ag811
aa(lp1845
I832
ag899
aa(lp1846
I833
ag899
aaaa(lp1847
I835
aI838
aS'your'
p1848
a(lp1849
(lp1850
I835
ag873
aa(lp1851
I836
ag804
aa(lp1852
I837
ag828
aa(lp1853
I838
ag864
aaaa(lp1854
I840
aI842
aS'own'
p1855
a(lp1856
(lp1857
I840
ag804
aa(lp1858
I841
ag886
aa(lp1859
I842
ag817
aaaa(lp1860
I844
aI851
ag672
a(lp1861
(lp1862
I844
ag934
aa(lp1863
I845
ag808
aa(lp1864
I846
ag864
aa(lp1865
I847
ag845
aa(lp1866
I848
ag804
aa(lp1867
I849
ag817
aa(lp1868
I850
ag811
aa(lp1869
I851
ag835
aaaa(lp1870
I853
aI856
ag681
a(lp1871
(lp1872
I853
ag825
aa(lp1873
I854
ag835
aa(lp1874
I855
ag804
aa(lp1875
I856
ag819
aaaa(lp1876
I859
aI862
ag690
a(lp1877
(lp1878
I859
ag835
aa(lp1879
I860
ag815
aa(lp1880
I861
ag817
aa(lp1881
I862
ag813
aaaa(lp1882
I864
aI865
aS'so'
p1883
a(lp1884
(lp1885
I864
ag845
aa(lp1886
I865
ag804
aaaa(lp1887
I867
aI872
ag699
a(lp1888
(lp1889
I867
ag804
aa(lp1890
I868
ag830
aa(lp1891
I869
ag802
aa(lp1892
I870
ag808
aa(lp1893
I871
ag864
aa(lp1894
I872
ag845
aaaa(lp1895
I874
aI876
aS'can'
p1896
a(lp1897
(lp1898
I874
ag892
aa(lp1899
I875
ag811
aa(lp1900
I876
ag817
aaaa(lp1901
I878
aI880
ag708
a(lp1902
(lp1903
I878
ag819
aa(lp1904
I879
ag808
aa(lp1905
I880
ag830
aaaa(lp1906
I882
aI883
aS'to'
p1907
a(lp1908
(lp1909
I882
ag830
aa(lp1910
I883
ag804
aaaa(lp1911
I885
aI888
ag717
a(lp1912
(lp1913
I885
ag813
aa(lp1914
I886
ag817
aa(lp1915
I887
ag804
aa(lp1916
I888
ag886
aaaa(lp1917
I890
aI892
aS'you'
p1918
a(lp1919
(lp1920
I890
ag873
aa(lp1921
I891
ag804
aa(lp1922
I892
ag828
aaaa(lp1923
I894
aI899
ag726
a(lp1924
(lp1925
I894
ag825
aa(lp1926
I895
ag808
aa(lp1927
I896
ag830
aa(lp1928
I897
ag830
aa(lp1929
I898
ag808
aa(lp1930
I899
ag864
aaaa(lp1931
I901
aI903
aS'too'
p1932
a(lp1933
(lp1934
I901
ag830
aa(lp1935
I902
ag804
aa(lp1936
I903
ag804
aaaa(lp1937
I906
aI910
ag735
a(lp1938
(lp1939
I906
ag835
aa(lp1940
I907
ag808
aa(lp1941
I908
ag830
aa(lp1942
I910
ag845
aaaa(lp1943
I912
aI914
ag744
a(lp1944
(lp1945
I912
ag819
aa(lp1946
I913
ag808
aa(lp1947
I914
ag830
aaaa(lp1948
I916
aI923
ag753
a(lp1949
(lp1950
I916
ag825
aa(lp1951
I917
ag835
aa(lp1952
I918
ag804
aa(lp1953
I919
ag819
aa(lp1954
I920
ag819
aa(lp1955
I921
ag815
aa(lp1956
I922
ag817
aa(lp1957
I923
ag819
aaaa(lp1958
I925
aI927
aS'and'
p1959
a(lp1960
(lp1961
I925
ag811
aa(lp1962
I926
ag817
aa(lp1963
I927
ag899
aaaa(lp1964
I929
aI936
ag762
a(lp1965
(lp1966
I929
ag864
aa(lp1967
I930
ag808
aa(lp1968
I931
ag806
aa(lp1969
I932
ag808
aa(lp1970
I933
ag806
aa(lp1971
I934
ag825
aa(lp1972
I935
ag808
aa(lp1973
I936
ag864
aaaa(lp1974
I938
aI939
aS'to'
p1975
a(lp1976
(lp1977
I938
ag830
aa(lp1978
I939
ag804
aaaa(lp1979
I941
aI942
aS'be'
p1980
a(lp1981
(lp1982
I941
ag825
aa(lp1983
I942
ag808
aaaa(lp1984
I944
aI947
ag771
a(lp1985
(lp1986
I944
ag813
aa(lp1987
I945
ag815
aa(lp1988
I946
ag817
aa(lp1989
I947
ag899
aaaa(lp1990
I949
aI951
aS'and'
p1991
a(lp1992
(lp1993
I949
ag811
aa(lp1994
I950
ag817
aa(lp1995
I951
ag899
aaaa(lp1996
I953
aI959
ag780
a(lp1997
(lp1998
I953
ag802
aa(lp1999
I954
ag808
aa(lp2000
I955
ag835
aa(lp2001
I956
ag934
aa(lp2002
I957
ag861
aa(lp2003
I958
ag828
aa(lp2004
I959
ag835
aaaa(lp2005
I961
aI964
aS'when'
p2006
a(lp2007
(lp2008
I961
ag886
aa(lp2009
I962
ag802
aa(lp2010
I963
ag808
aa(lp2011
I964
ag817
aaaa(lp2012
I961
aI964
ag789
a(lp2013
(lp2014
I966
ag934
aa(lp2015
I967
ag804
aa(lp2016
I968
ag845
aa(lp2017
I969
ag830
aa(lp2018
I970
ag815
aa(lp2019
I971
ag817
aa(lp2020
I972
ag819
aa(lp2021
I974
ag892
aa(lp2022
I975
ag804
aa(lp2023
I976
ag806
aa(lp2024
I977
ag806
aa(lp2025
I978
ag808
aa(lp2026
I979
ag817
aa(lp2027
I980
ag830
aa(lp2028
I981
ag815
aa(lp2029
I982
ag817
aa(lp2030
I983
ag819
aaaasS'cleanCharacterMap'
p2031
(lp2032
g801
ag803
ag805
ag807
ag809
ag810
ag812
ag814
ag816
ag818
a(lp2033
I10
aS' '
p2034
aag823
ag824
ag826
ag827
ag829
a(lp2035
I16
ag2034
aag833
ag834
ag836
ag837
a(lp2036
I21
ag2034
aag841
ag842
ag843
ag844
a(lp2037
I26
ag2034
aag848
ag849
ag850
ag851
a(lp2038
I31
ag2034
aag855
ag856
a(lp2039
I34
ag2034
aag860
ag862
ag863
a(lp2040
I38
ag2034
aag867
ag868
ag870
ag871
ag872
ag874
ag875
ag876
a(lp2041
I48
ag2034
aag880
ag881
a(lp2042
I51
ag2034
aag885
ag887
ag888
a(lp2043
I55
ag2034
aag891
ag893
ag894
ag895
ag896
ag897
ag898
a(lp2044
I63
ag2034
aag903
ag904
ag905
a(lp2045
I67
ag2034
aag909
ag910
ag911
a(lp2046
I71
ag2034
aag915
ag916
ag917
a(lp2047
I75
ag2034
aag921
ag922
a(lp2048
I79
ag2034
aag926
ag927
a(lp2049
I82
ag2034
aag930
ag931
ag932
ag933
a(lp2050
I87
ag2034
aag937
ag938
a(lp2051
I90
ag2034
aag941
ag942
ag943
ag944
ag945
ag946
a(lp2052
I97
ag2034
aag949
ag950
ag951
ag952
ag953
ag954
a(lp2053
I104
ag2034
aag957
ag958
ag959
ag960
ag961
ag962
ag963
ag964
ag965
ag966
a(lp2054
I116
ag2034
aag969
ag970
ag971
ag972
ag973
a(lp2055
I123
ag2034
aag977
ag978
ag979
a(lp2056
I127
ag2034
aag983
ag984
a(lp2057
I130
ag2034
aag987
ag988
ag989
ag990
ag991
ag992
ag993
ag994
a(lp2058
I142
ag2034
aag997
ag998
ag999
ag1000
ag1001
ag1002
a(lp2059
I149
ag2034
aag1005
a(lp2060
I151
ag2034
aag1008
ag1009
ag1010
ag1011
a(lp2061
I158
ag2034
aag1015
ag1016
ag1017
a(lp2062
I162
ag2034
aag1020
ag1021
ag1022
ag1023
ag1024
ag1025
ag1026
ag1027
a(lp2063
I171
ag2034
aag1031
ag1032
a(lp2064
I174
ag2034
aag1035
ag1036
ag1037
a(lp2065
I179
ag2034
aag1040
ag1041
ag1042
ag1043
ag1044
a(lp2066
I186
ag2034
aag1048
ag1049
ag1050
ag1051
a(lp2067
I191
ag2034
aag1055
ag1056
a(lp2068
I194
ag2034
aag1059
ag1060
ag1061
ag1062
ag1063
ag1064
ag1065
a(lp2069
I202
ag2034
aag1069
ag1070
a(lp2070
I205
ag2034
aag1073
ag1074
ag1075
ag1076
ag1077
ag1078
ag1079
ag1080
ag1081
ag1082
ag1083
ag1084
ag1085
a(lp2071
I221
ag2034
aag1089
ag1090
ag1091
ag1092
a(lp2072
I226
ag2034
aag1095
ag1096
ag1097
ag1098
ag1099
ag1100
a(lp2073
I233
ag2034
aag1104
ag1105
ag1106
a(lp2074
I237
ag2034
aag1109
ag1110
ag1111
ag1112
a(lp2075
I242
ag2034
aag1115
ag1116
ag1117
ag1118
ag1119
ag1120
ag1121
ag1122
a(lp2076
I251
ag2034
aag1126
ag1127
a(lp2077
I255
ag2034
aag1130
ag1131
ag1132
ag1133
a(lp2078
I260
ag2034
aag1136
ag1137
ag1138
ag1139
ag1140
ag1141
ag1142
a(lp2079
I269
ag2034
aag1146
ag1147
ag1148
ag1149
ag1150
a(lp2080
I275
ag2034
aag1154
ag1155
ag1156
ag1157
a(lp2081
I280
ag2034
aag1160
ag1161
ag1162
ag1163
a(lp2082
I286
ag2034
aag1167
ag1168
ag1169
a(lp2083
I290
ag2034
aag1172
ag1173
ag1174
ag1175
a(lp2084
I295
ag2034
aag1179
ag1180
a(lp2085
I298
ag2034
aag1184
ag1185
ag1186
ag1187
a(lp2086
I303
ag2034
aag1190
ag1191
ag1192
ag1193
a(lp2087
I308
ag2034
aag1197
ag1198
a(lp2088
I311
ag2034
aag1202
ag1203
a(lp2089
I314
ag2034
aag1206
ag1207
ag1208
ag1209
ag1210
a(lp2090
I320
ag2034
aag1213
ag1214
ag1215
ag1216
ag1217
ag1218
a(lp2091
I328
ag2034
aag1221
ag1222
ag1223
ag1224
ag1225
a(lp2092
I335
ag2034
aag1228
ag1229
ag1230
a(lp2093
I339
ag2034
aag1233
ag1235
ag1236
ag1237
ag1238
ag1239
ag1240
ag1241
ag1242
a(lp2094
I350
ag2034
aag1245
ag1246
ag1247
a(lp2095
I355
ag2034
aag1251
ag1252
ag1253
ag1254
a(lp2096
I360
ag2034
aag1258
ag1259
ag1260
ag1261
a(lp2097
I365
ag2034
aag1264
ag1265
ag1266
ag1267
a(lp2098
I370
ag2034
aag1271
ag1272
ag1273
a(lp2099
I374
ag2034
aag1277
ag1278
ag1279
a(lp2100
I378
ag2034
aag1282
ag1283
ag1284
ag1285
ag1286
ag1287
a(lp2101
I385
ag2034
aag1290
ag1291
ag1292
ag1293
ag1294
ag1295
a(lp2102
I392
ag2034
aag1298
ag1299
ag1300
ag1301
ag1302
ag1303
a(lp2103
I399
ag2034
aag1306
ag1307
ag1308
ag1309
ag1310
ag1311
ag1312
ag1313
ag1314
ag1315
a(lp2104
I411
ag2034
aag1319
ag1320
a(lp2105
I414
ag2034
aag1323
ag1324
ag1325
ag1326
ag1327
ag1328
ag1329
a(lp2106
I422
ag2034
aag1333
ag1334
a(lp2107
I425
ag2034
aag1338
ag1339
a(lp2108
I428
ag2034
aag1343
ag1344
ag1345
ag1346
a(lp2109
I433
ag2034
aag1349
ag1350
ag1351
a(lp2110
I437
ag2034
aag1354
ag1355
ag1356
ag1357
ag1358
ag1359
a(lp2111
I444
ag2034
aag1362
ag1363
ag1364
ag1365
a(lp2112
I450
ag2034
aag1369
ag1370
ag1371
ag1372
a(lp2113
I455
ag2034
aag1376
ag1377
a(lp2114
I458
ag2034
aag1381
ag1382
a(lp2115
I461
ag2034
aag1385
ag1386
ag1387
ag1388
ag1389
ag1390
ag1391
ag1392
ag1393
ag1394
ag1395
a(lp2116
I473
ag2034
aag1399
ag1400
a(lp2117
I476
ag2034
aag1403
ag1404
ag1405
a(lp2118
I480
ag2034
aag1408
ag1409
ag1410
ag1411
ag1412
ag1413
a(lp2119
I487
ag2034
aag1417
ag1418
a(lp2120
I490
ag2034
aag1421
ag1422
ag1423
ag1424
ag1425
ag1426
ag1427
ag1428
ag1429
ag1430
ag1431
a(lp2121
I502
ag2034
aag1434
ag1435
ag1436
ag1437
ag1438
ag1439
ag1440
ag1441
ag1442
a(lp2122
I512
ag2034
aag1446
ag1447
ag1448
a(lp2123
I516
ag2034
aag1452
ag1453
ag1454
a(lp2124
I520
ag2034
aag1457
ag1458
ag1459
a(lp2125
I524
ag2034
aag1463
ag1464
ag1465
a(lp2126
I528
ag2034
aag1468
ag1469
ag1470
ag1471
ag1472
ag1473
a(lp2127
I535
ag2034
aag1476
ag1477
ag1478
ag1479
ag1480
ag1481
ag1482
a(lp2128
I543
ag2034
aag1485
ag1486
ag1487
ag1488
ag1489
ag1490
ag1491
a(lp2129
I551
ag2034
aag1494
ag1495
ag1496
ag1497
a(lp2130
I556
ag2034
aag1501
ag1502
ag1503
ag1504
a(lp2131
I561
ag2034
aag1508
ag1509
ag1510
ag1511
ag1512
ag1513
a(lp2132
I568
ag2034
aag1517
ag1518
ag1519
ag1520
a(lp2133
I573
ag2034
aag1523
ag1524
ag1525
ag1526
ag1527
ag1528
ag1529
a(lp2134
I581
ag2034
aag1532
ag1533
ag1534
ag1535
ag1536
a(lp2135
I587
ag2034
aag1540
ag1541
ag1542
ag1543
a(lp2136
I595
ag2034
aag1547
ag1548
ag1549
a(lp2137
I599
ag2034
aag1553
ag1554
a(lp2138
I602
ag2034
aag1557
ag1558
ag1559
ag1560
ag1561
a(lp2139
I608
ag2034
aa(lp2140
I610
ag2034
aag1565
ag1566
a(lp2141
I613
ag2034
aag1569
ag1570
ag1571
ag1572
ag1573
ag1574
ag1575
a(lp2142
I621
ag2034
aag1579
ag1580
ag1581
a(lp2143
I625
ag2034
aag1585
ag1586
ag1587
ag1588
a(lp2144
I630
ag2034
aag1591
ag1592
ag1593
ag1594
a(lp2145
I635
ag2034
aag1598
ag1599
ag1600
ag1601
a(lp2146
I640
ag2034
aag1604
ag1605
ag1606
ag1607
ag1608
a(lp2147
I646
ag2034
aag1612
ag1613
ag1614
ag1615
a(lp2148
I651
ag2034
aag1619
ag1620
ag1621
a(lp2149
I655
ag2034
aag1625
ag1626
ag1627
ag1628
a(lp2150
I660
ag2034
aag1631
ag1632
ag1633
ag1634
a(lp2151
I665
ag2034
aag1638
ag1639
a(lp2152
I668
ag2034
aag1642
ag1643
ag1644
ag1645
ag1646
a(lp2153
I674
ag2034
aag1649
ag1650
ag1651
ag1652
ag1653
a(lp2154
I680
ag2034
aag1657
ag1658
ag1659
ag1660
a(lp2155
I685
ag2034
aag1664
ag1665
ag1666
a(lp2156
I689
ag2034
aag1669
ag1670
ag1671
ag1672
ag1673
ag1674
ag1675
ag1676
a(lp2157
I699
ag2034
aag1679
ag1680
ag1681
ag1682
ag1683
a(lp2158
I706
ag2034
aag1686
ag1687
ag1688
ag1689
ag1690
ag1691
ag1692
ag1693
a(lp2159
I716
ag2034
aag1696
ag1697
ag1698
ag1699
ag1700
ag1701
a(lp2160
I723
ag2034
aag1705
ag1706
a(lp2161
I726
ag2034
aag1710
ag1711
ag1712
a(lp2162
I730
ag2034
aag1715
ag1716
ag1717
ag1718
ag1719
ag1720
a(lp2163
I737
ag2034
aag1724
ag1725
ag1726
a(lp2164
I741
ag2034
aag1729
ag1730
ag1731
ag1732
ag1733
ag1734
ag1735
ag1736
a(lp2165
I750
ag2034
aag1740
ag1741
a(lp2166
I753
ag2034
aag1744
ag1745
ag1746
a(lp2167
I757
ag2034
aag1750
ag1751
ag1752
ag1753
a(lp2168
I762
ag2034
aag1756
ag1757
ag1758
ag1759
ag1760
a(lp2169
I768
ag2034
aag1763
ag1764
ag1765
ag1766
ag1767
ag1768
ag1769
a(lp2170
I776
ag2034
aag1773
ag1774
ag1775
ag1776
ag1777
a(lp2171
I782
ag2034
aag1781
ag1782
ag1783
ag1784
a(lp2172
I787
ag2034
aag1788
ag1789
a(lp2173
I790
ag2034
aag1792
ag1793
ag1794
ag1795
a(lp2174
I795
ag2034
aag1799
ag1800
ag1801
ag1802
a(lp2175
I800
ag2034
aag1806
ag1807
ag1808
ag1809
a(lp2176
I805
ag2034
aag1812
ag1813
ag1814
ag1815
a(lp2177
I811
ag2034
aag1819
ag1820
ag1821
a(lp2178
I815
ag2034
aag1825
ag1826
ag1827
a(lp2179
I819
ag2034
aag1830
ag1831
ag1832
ag1833
ag1834
ag1835
ag1836
a(lp2180
I827
ag2034
aag1840
ag1841
a(lp2181
I830
ag2034
aag1844
ag1845
ag1846
a(lp2182
I834
ag2034
aag1850
ag1851
ag1852
ag1853
a(lp2183
I839
ag2034
aag1857
ag1858
ag1859
a(lp2184
I843
ag2034
aag1862
ag1863
ag1864
ag1865
ag1866
ag1867
ag1868
ag1869
a(lp2185
I852
ag2034
aag1872
ag1873
ag1874
ag1875
a(lp2186
I857
ag2034
aag1878
ag1879
ag1880
ag1881
a(lp2187
I863
ag2034
aag1885
ag1886
a(lp2188
I866
ag2034
aag1889
ag1890
ag1891
ag1892
ag1893
ag1894
a(lp2189
I873
ag2034
aag1898
ag1899
ag1900
a(lp2190
I877
ag2034
aag1903
ag1904
ag1905
a(lp2191
I881
ag2034
aag1909
ag1910
a(lp2192
I884
ag2034
aag1913
ag1914
ag1915
ag1916
a(lp2193
I889
ag2034
aag1920
ag1921
ag1922
a(lp2194
I893
ag2034
aag1925
ag1926
ag1927
ag1928
ag1929
ag1930
a(lp2195
I900
ag2034
aag1934
ag1935
ag1936
a(lp2196
I905
ag2034
aag1939
ag1940
ag1941
ag1942
a(lp2197
I911
ag2034
aag1945
ag1946
ag1947
a(lp2198
I915
ag2034
aag1950
ag1951
ag1952
ag1953
ag1954
ag1955
ag1956
ag1957
a(lp2199
I924
ag2034
aag1961
ag1962
ag1963
a(lp2200
I928
ag2034
aag1966
ag1967
ag1968
ag1969
ag1970
ag1971
ag1972
ag1973
a(lp2201
I937
ag2034
aag1977
ag1978
a(lp2202
I940
ag2034
aag1982
ag1983
a(lp2203
I943
ag2034
aag1986
ag1987
ag1988
ag1989
a(lp2204
I948
ag2034
aag1993
ag1994
ag1995
a(lp2205
I952
ag2034
aag1998
ag1999
ag2000
ag2001
ag2002
ag2003
ag2004
a(lp2206
I960
ag2034
aag2008
ag2009
ag2010
ag2011
a(lp2207
I965
ag2034
aag2014
ag2015
ag2016
ag2017
ag2018
ag2019
ag2020
ag2021
ag2022
ag2023
ag2024
ag2025
ag2026
ag2027
ag2028
ag2029
ag2030
asS'text'
p2208
S'homemaking about blog this blog is for everyone! it was created for you and me, to help us become better homemakers! here\'s how it works...you create a "post" for everyone to see. (posts will be deleted if inappropriate!) then people can make comments (or give answers) about that post. the idea of this blog is to offer advice, ideas, ask questions, etc. that will help you and others become better homemakers. by setting it up this way people don\'t have to be embarrassed to ask simple or complicated questions and can ask for advice without feeling like they should have already known "that." how to login - an account has been made with gmail that you will need to enter along with the password. email: password: please do not change the settings or use this email account other than to sign into this blog! you are welcome to add your own personal blog /link so others can get to know you better too! let\'s get blogging and remember to be kind and helpful when posting/commenting.'
p2209
sS'cleanWordMap'
p2210
(lp2211
g799
ag831
ag846
ag865
ag889
ag928
ag935
ag939
ag947
ag955
ag967
ag985
ag995
ag1006
ag1018
ag1033
ag1038
ag1057
ag1071
ag1093
ag1107
ag1113
ag1128
ag1134
ag1158
ag1170
ag1188
ag1204
ag1211
ag1219
ag1226
ag1231
ag1243
ag1262
ag1280
ag1288
ag1296
ag1304
ag1321
ag1347
ag1352
ag1360
ag1383
ag1401
ag1406
ag1419
ag1432
ag1455
ag1466
ag1474
ag1483
ag1492
ag1521
ag1530
ag1555
ag1567
ag1589
ag1602
ag1629
ag1640
ag1647
ag1667
ag1677
ag1684
ag1694
ag1713
ag1727
ag1742
ag1754
ag1761
ag1790
ag1810
ag1828
ag1842
ag1860
ag1870
ag1876
ag1887
ag1901
ag1911
ag1923
ag1937
ag1943
ag1948
ag1964
ag1984
ag1996
ag2012
asS'lines'
p2212
(lp2213
VHomemaking\u000a
p2214
aVAbout Blog\u000a
p2215
aVThis Blog is for EVERYONE! It was created for You and Me, to help us become better Homemakers! Here's how it works...you create a "post" for everyone to see. (Posts will be deleted if inappropriate!) Then people can make comments (or give answers) about that post. The idea of this blog is to offer advice, ideas, ask questions, etc. that will help you and others become better homemakers. By setting it up this way people don't have to be embarrassed to ask simple or complicated questions and can ask for advice without feeling like they should have already known "that." How to login - An account has been made with GMail that you will need to enter along with the password. Email: Password: Please do not change the settings or use this email account other than to sign into this blog! You are welcome to add your own personal blog /link so others can get to know you better too! Let's get Blogging and remember to be kind and helpful when Posting/Commenting.
p2216
asS'docType'
p2217
S'src'
p2218
sS'newfmap'
p2219
(lp2220
g4
ag8
ag10
ag12
ag14
ag23
ag26
ag32
ag35
ag37
ag39
ag41
ag44
ag46
ag48
ag50
ag53
ag55
ag57
ag59
ag62
ag64
ag66
ag68
ag71
ag73
ag75
ag77
ag80
ag82
ag84
ag86
ag89
ag91
ag93
ag95
ag98
ag100
ag102
ag104
ag107
ag109
ag111
ag113
ag116
ag118
ag120
ag122
ag125
ag127
ag129
ag131
ag134
ag136
ag138
ag140
ag143
ag145
ag147
ag149
ag152
ag154
ag156
ag158
ag161
ag163
ag165
ag167
ag170
ag172
ag174
ag176
ag179
ag181
ag183
ag185
ag188
ag190
ag192
ag194
ag197
ag199
ag201
ag203
ag206
ag208
ag210
ag212
ag215
ag217
ag219
ag221
ag224
ag226
ag228
ag230
ag233
ag235
ag237
ag239
ag242
ag244
ag246
ag248
ag251
ag253
ag255
ag257
ag260
ag262
ag264
ag266
ag269
ag271
ag273
ag275
ag278
ag280
ag282
ag284
ag287
ag289
ag291
ag293
ag296
ag298
ag300
ag302
ag305
ag307
ag309
ag311
ag314
ag316
ag318
ag320
ag323
ag325
ag327
ag329
ag332
ag334
ag336
ag338
ag341
ag343
ag345
ag347
ag350
ag352
ag354
ag356
ag359
ag361
ag363
ag365
ag368
ag370
ag372
ag374
ag377
ag379
ag381
ag383
ag386
ag388
ag390
ag392
ag395
ag397
ag399
ag401
ag404
ag406
ag408
ag410
ag413
ag415
ag417
ag419
ag422
ag424
ag426
ag428
ag431
ag433
ag435
ag437
ag440
ag442
ag444
ag446
ag449
ag451
ag453
ag455
ag458
ag460
ag462
ag464
ag467
ag469
ag471
ag473
ag476
ag478
ag480
ag482
ag485
ag487
ag489
ag491
ag494
ag496
ag498
ag500
ag503
ag505
ag507
ag509
ag512
ag514
ag516
ag518
ag521
ag523
ag525
ag527
ag530
ag532
ag534
ag536
ag539
ag541
ag543
ag545
ag548
ag550
ag552
ag554
ag557
ag559
ag561
ag563
ag566
ag568
ag570
ag572
ag575
ag577
ag579
ag581
ag584
ag586
ag588
ag590
ag593
ag595
ag597
ag599
ag602
ag604
ag606
ag608
ag611
ag613
ag615
ag617
ag620
ag622
ag624
ag626
ag629
ag631
ag633
ag635
ag638
ag640
ag642
ag644
ag647
ag649
ag651
ag653
ag656
ag658
ag660
ag662
ag665
ag667
ag669
ag671
ag674
ag676
ag678
ag680
ag683
ag685
ag687
ag689
ag692
ag694
ag696
ag698
ag701
ag703
ag705
ag707
ag710
ag712
ag714
ag716
ag719
ag721
ag723
ag725
ag728
ag730
ag732
ag734
ag737
ag739
ag741
ag743
ag746
ag748
ag750
ag752
ag755
ag757
ag759
ag761
ag764
ag766
ag768
ag770
ag773
ag775
ag777
ag779
ag782
ag784
ag786
ag788
ag791
ag793
ag795
asS'featureMap'
p2221
(lp2222
(lp2223
I0
aI9
ag5
ag6
ag9
ag11
ag13
aa(lp2224
I17
aI20
ag15
ag16
ag18
ag20
ag22
aa(lp2225
I27
aI30
ag24
ag25
ag27
ag29
ag31
aa(lp2226
I39
aI46
ag33
ag34
ag36
ag38
ag40
aa(lp2227
I56
aI62
ag42
ag43
ag45
ag47
ag49
aa(lp2228
I83
aI86
ag51
ag52
ag54
ag56
ag58
aa(lp2229
I88
aI89
ag60
ag61
ag63
ag65
ag67
aa(lp2230
I91
aI96
ag69
ag70
ag72
ag74
ag76
aa(lp2231
I98
aI103
ag78
ag79
ag81
ag83
ag85
aa(lp2232
I105
aI114
ag87
ag88
ag90
ag92
ag94
aa(lp2233
I117
aI122
ag96
ag97
ag99
ag101
ag103
aa(lp2234
I131
aI141
ag105
ag106
ag108
ag110
ag112
aa(lp2235
I143
aI148
ag114
ag115
ag117
ag119
ag121
aa(lp2236
I153
aI156
ag123
ag124
ag126
ag128
ag130
aa(lp2237
I163
aI170
ag132
ag133
ag135
ag137
ag139
aa(lp2238
I175
aI177
ag141
ag142
ag144
ag146
ag148
aa(lp2239
I181
aI185
ag150
ag151
ag153
ag155
ag157
aa(lp2240
I195
aI201
ag159
ag160
ag162
ag164
ag166
aa(lp2241
I206
aI218
ag168
ag169
ag171
ag173
ag175
aa(lp2242
I227
aI232
ag177
ag178
ag180
ag182
ag184
aa(lp2243
I238
aI241
ag186
ag187
ag189
ag191
ag193
aa(lp2244
I243
aI250
ag195
ag196
ag198
ag200
ag202
aa(lp2245
I256
aI259
ag204
ag205
ag207
ag209
ag211
aa(lp2246
I261
aI267
ag213
ag214
ag216
ag218
ag220
aa(lp2247
I281
aI284
ag222
ag223
ag225
ag227
ag229
aa(lp2248
I291
aI294
ag231
ag232
ag234
ag236
ag238
aa(lp2249
I304
aI307
ag240
ag241
ag243
ag245
ag247
aa(lp2250
I315
aI319
ag249
ag250
ag252
ag254
ag256
aa(lp2251
I321
aI326
ag258
ag259
ag261
ag263
ag265
aa(lp2252
I329
aI333
ag267
ag268
ag270
ag272
ag274
aa(lp2253
I336
aI338
ag276
ag277
ag279
ag281
ag283
aa(lp2254
I340
aI348
ag285
ag286
ag288
ag290
ag292
aa(lp2255
I351
aI353
ag294
ag295
ag297
ag299
ag301
aa(lp2256
I366
aI369
ag303
ag304
ag306
ag308
ag310
aa(lp2257
I379
aI384
ag312
ag313
ag315
ag317
ag319
aa(lp2258
I386
aI391
ag321
ag322
ag324
ag326
ag328
aa(lp2259
I393
aI398
ag330
ag331
ag333
ag335
ag337
aa(lp2260
I400
aI409
ag339
ag340
ag342
ag344
ag346
aa(lp2261
I415
aI421
ag348
ag349
ag351
ag353
ag355
aa(lp2262
I434
aI436
ag357
ag358
ag360
ag362
ag364
aa(lp2263
I438
aI443
ag366
ag367
ag369
ag371
ag373
aa(lp2264
I445
aI449
ag375
ag376
ag378
ag380
ag382
aa(lp2265
I462
aI472
ag384
ag385
ag387
ag389
ag391
aa(lp2266
I477
aI479
ag393
ag394
ag396
ag398
ag400
aa(lp2267
I481
aI486
ag402
ag403
ag405
ag407
ag409
aa(lp2268
I491
aI501
ag411
ag412
ag414
ag416
ag418
aa(lp2269
I503
aI511
ag420
ag421
ag423
ag425
ag427
aa(lp2270
I521
aI523
ag429
ag430
ag432
ag434
ag436
aa(lp2271
I529
aI534
ag438
ag439
ag441
ag443
ag445
aa(lp2272
I536
aI542
ag447
ag448
ag450
ag452
ag454
aa(lp2273
I544
aI550
ag456
ag457
ag459
ag461
ag463
aa(lp2274
I552
aI555
ag465
ag466
ag468
ag470
ag472
aa(lp2275
I574
aI580
ag474
ag475
ag477
ag479
ag481
aa(lp2276
I582
aI586
ag483
ag484
ag486
ag488
ag490
aa(lp2277
I603
aI607
ag492
ag493
ag495
ag497
ag499
aa(lp2278
I614
aI620
ag501
ag502
ag504
ag506
ag508
aa(lp2279
I631
aI634
ag510
ag511
ag513
ag515
ag517
aa(lp2280
I641
aI645
ag519
ag520
ag522
ag524
ag526
aa(lp2281
I661
aI664
ag528
ag529
ag531
ag533
ag535
aa(lp2282
I669
aI673
ag537
ag538
ag540
ag542
ag544
aa(lp2283
I675
aI679
ag546
ag547
ag549
ag551
ag553
aa(lp2284
I690
aI697
ag555
ag556
ag558
ag560
ag562
aa(lp2285
I700
aI704
ag564
ag565
ag567
ag569
ag571
aa(lp2286
I707
aI714
ag573
ag574
ag576
ag578
ag580
aa(lp2287
I717
aI722
ag582
ag583
ag585
ag587
ag589
aa(lp2288
I731
aI736
ag591
ag592
ag594
ag596
ag598
aa(lp2289
I742
aI749
ag600
ag601
ag603
ag605
ag607
aa(lp2290
I754
aI756
ag609
ag610
ag612
ag614
ag616
aa(lp2291
I763
aI767
ag618
ag619
ag621
ag623
ag625
aa(lp2292
I769
aI775
ag627
ag628
ag630
ag632
ag634
aa(lp2293
I791
aI794
ag636
ag637
ag639
ag641
ag643
aa(lp2294
I806
aI809
ag645
ag646
ag648
ag650
ag652
aa(lp2295
I820
aI826
ag654
ag655
ag657
ag659
ag661
aa(lp2296
I831
aI833
ag663
ag664
ag666
ag668
ag670
aa(lp2297
I844
aI851
ag672
ag673
ag675
ag677
ag679
aa(lp2298
I853
aI856
ag681
ag682
ag684
ag686
ag688
aa(lp2299
I859
aI862
ag690
ag691
ag693
ag695
ag697
aa(lp2300
I867
aI872
ag699
ag700
ag702
ag704
ag706
aa(lp2301
I878
aI880
ag708
ag709
ag711
ag713
ag715
aa(lp2302
I885
aI888
ag717
ag718
ag720
ag722
ag724
aa(lp2303
I894
aI899
ag726
ag727
ag729
ag731
ag733
aa(lp2304
I906
aI910
ag735
ag736
ag738
ag740
ag742
aa(lp2305
I912
aI914
ag744
ag745
ag747
ag749
ag751
aa(lp2306
I916
aI923
ag753
ag754
ag756
ag758
ag760
aa(lp2307
I929
aI936
ag762
ag763
ag765
ag767
ag769
aa(lp2308
I944
aI947
ag771
ag772
ag774
ag776
ag778
aa(lp2309
I953
aI959
ag780
ag781
ag783
ag785
ag787
aa(lp2310
I961
aI964
ag789
ag790
ag792
ag794
ag796
aasS'characterMap'
p2311
(lp2312
g801
ag803
ag805
ag807
ag809
ag810
ag812
ag814
ag816
ag818
ag2033
ag823
ag824
ag826
ag827
ag829
ag2035
ag833
ag834
ag836
ag837
ag2036
ag841
ag842
ag843
ag844
ag2037
ag848
ag849
ag850
ag851
ag2038
ag855
ag856
ag2039
ag860
ag862
ag863
ag2040
ag867
ag868
ag870
ag871
ag872
ag874
ag875
ag876
a(lp2313
I47
aS'!'
p2314
aag2041
ag880
ag881
ag2042
ag885
ag887
ag888
ag2043
ag891
ag893
ag894
ag895
ag896
ag897
ag898
ag2044
ag903
ag904
ag905
ag2045
ag909
ag910
ag911
ag2046
ag915
ag916
ag917
ag2047
ag921
ag922
a(lp2315
I78
aS','
p2316
aag2048
ag926
ag927
ag2049
ag930
ag931
ag932
ag933
ag2050
ag937
ag938
ag2051
ag941
ag942
ag943
ag944
ag945
ag946
ag2052
ag949
ag950
ag951
ag952
ag953
ag954
ag2053
ag957
ag958
ag959
ag960
ag961
ag962
ag963
ag964
ag965
ag966
a(lp2317
I115
ag2314
aag2054
ag969
ag970
ag971
ag972
a(lp2318
I121
aS"'"
p2319
aag973
ag2055
ag977
ag978
ag979
ag2056
ag983
ag984
ag2057
ag987
ag988
ag989
ag990
ag991
a(lp2320
I136
aS'.'
p2321
aa(lp2322
I137
ag2321
aa(lp2323
I138
ag2321
aag992
ag993
ag994
ag2058
ag997
ag998
ag999
ag1000
ag1001
ag1002
ag2059
ag1005
ag2060
a(lp2324
I152
aS'"'
p2325
aag1008
ag1009
ag1010
ag1011
a(lp2326
I157
ag2325
aag2061
ag1015
ag1016
ag1017
ag2062
ag1020
ag1021
ag1022
ag1023
ag1024
ag1025
ag1026
ag1027
ag2063
ag1031
ag1032
ag2064
ag1035
ag1036
ag1037
a(lp2327
I178
ag2321
aag2065
a(lp2328
I180
aS'('
p2329
aag1040
ag1041
ag1042
ag1043
ag1044
ag2066
ag1048
ag1049
ag1050
ag1051
ag2067
ag1055
ag1056
ag2068
ag1059
ag1060
ag1061
ag1062
ag1063
ag1064
ag1065
ag2069
ag1069
ag1070
ag2070
ag1073
ag1074
ag1075
ag1076
ag1077
ag1078
ag1079
ag1080
ag1081
ag1082
ag1083
ag1084
ag1085
a(lp2330
I219
ag2314
aa(lp2331
I220
aS')'
p2332
aag2071
ag1089
ag1090
ag1091
ag1092
ag2072
ag1095
ag1096
ag1097
ag1098
ag1099
ag1100
ag2073
ag1104
ag1105
ag1106
ag2074
ag1109
ag1110
ag1111
ag1112
ag2075
ag1115
ag1116
ag1117
ag1118
ag1119
ag1120
ag1121
ag1122
ag2076
a(lp2333
I252
ag2329
aag1126
ag1127
ag2077
ag1130
ag1131
ag1132
ag1133
ag2078
ag1136
ag1137
ag1138
ag1139
ag1140
ag1141
ag1142
a(lp2334
I268
ag2332
aag2079
ag1146
ag1147
ag1148
ag1149
ag1150
ag2080
ag1154
ag1155
ag1156
ag1157
ag2081
ag1160
ag1161
ag1162
ag1163
a(lp2335
I285
ag2321
aag2082
ag1167
ag1168
ag1169
ag2083
ag1172
ag1173
ag1174
ag1175
ag2084
ag1179
ag1180
ag2085
ag1184
ag1185
ag1186
ag1187
ag2086
ag1190
ag1191
ag1192
ag1193
ag2087
ag1197
ag1198
ag2088
ag1202
ag1203
ag2089
ag1206
ag1207
ag1208
ag1209
ag1210
ag2090
ag1213
ag1214
ag1215
ag1216
ag1217
ag1218
a(lp2336
I327
ag2316
aag2091
ag1221
ag1222
ag1223
ag1224
ag1225
a(lp2337
I334
ag2316
aag2092
ag1228
ag1229
ag1230
ag2093
ag1233
ag1235
ag1236
ag1237
ag1238
ag1239
ag1240
ag1241
ag1242
a(lp2338
I349
ag2316
aag2094
ag1245
ag1246
ag1247
a(lp2339
I354
ag2321
aag2095
ag1251
ag1252
ag1253
ag1254
ag2096
ag1258
ag1259
ag1260
ag1261
ag2097
ag1264
ag1265
ag1266
ag1267
ag2098
ag1271
ag1272
ag1273
ag2099
ag1277
ag1278
ag1279
ag2100
ag1282
ag1283
ag1284
ag1285
ag1286
ag1287
ag2101
ag1290
ag1291
ag1292
ag1293
ag1294
ag1295
ag2102
ag1298
ag1299
ag1300
ag1301
ag1302
ag1303
ag2103
ag1306
ag1307
ag1308
ag1309
ag1310
ag1311
ag1312
ag1313
ag1314
ag1315
a(lp2340
I410
ag2321
aag2104
ag1319
ag1320
ag2105
ag1323
ag1324
ag1325
ag1326
ag1327
ag1328
ag1329
ag2106
ag1333
ag1334
ag2107
ag1338
ag1339
ag2108
ag1343
ag1344
ag1345
ag1346
ag2109
ag1349
ag1350
ag1351
ag2110
ag1354
ag1355
ag1356
ag1357
ag1358
ag1359
ag2111
ag1362
ag1363
ag1364
a(lp2341
I448
ag2319
aag1365
ag2112
ag1369
ag1370
ag1371
ag1372
ag2113
ag1376
ag1377
ag2114
ag1381
ag1382
ag2115
ag1385
ag1386
ag1387
ag1388
ag1389
ag1390
ag1391
ag1392
ag1393
ag1394
ag1395
ag2116
ag1399
ag1400
ag2117
ag1403
ag1404
ag1405
ag2118
ag1408
ag1409
ag1410
ag1411
ag1412
ag1413
ag2119
ag1417
ag1418
ag2120
ag1421
ag1422
ag1423
ag1424
ag1425
ag1426
ag1427
ag1428
ag1429
ag1430
ag1431
ag2121
ag1434
ag1435
ag1436
ag1437
ag1438
ag1439
ag1440
ag1441
ag1442
ag2122
ag1446
ag1447
ag1448
ag2123
ag1452
ag1453
ag1454
ag2124
ag1457
ag1458
ag1459
ag2125
ag1463
ag1464
ag1465
ag2126
ag1468
ag1469
ag1470
ag1471
ag1472
ag1473
ag2127
ag1476
ag1477
ag1478
ag1479
ag1480
ag1481
ag1482
ag2128
ag1485
ag1486
ag1487
ag1488
ag1489
ag1490
ag1491
ag2129
ag1494
ag1495
ag1496
ag1497
ag2130
ag1501
ag1502
ag1503
ag1504
ag2131
ag1508
ag1509
ag1510
ag1511
ag1512
ag1513
ag2132
ag1517
ag1518
ag1519
ag1520
ag2133
ag1523
ag1524
ag1525
ag1526
ag1527
ag1528
ag1529
ag2134
ag1532
ag1533
ag1534
ag1535
ag1536
ag2135
a(lp2342
I588
ag2325
aag1540
ag1541
ag1542
ag1543
a(lp2343
I593
ag2321
aa(lp2344
I594
ag2325
aag2136
ag1547
ag1548
ag1549
ag2137
ag1553
ag1554
ag2138
ag1557
ag1558
ag1559
ag1560
ag1561
ag2139
a(lp2345
I609
aS'-'
p2346
aag2140
ag1565
ag1566
ag2141
ag1569
ag1570
ag1571
ag1572
ag1573
ag1574
ag1575
ag2142
ag1579
ag1580
ag1581
ag2143
ag1585
ag1586
ag1587
ag1588
ag2144
ag1591
ag1592
ag1593
ag1594
ag2145
ag1598
ag1599
ag1600
ag1601
ag2146
ag1604
ag1605
ag1606
ag1607
ag1608
ag2147
ag1612
ag1613
ag1614
ag1615
ag2148
ag1619
ag1620
ag1621
ag2149
ag1625
ag1626
ag1627
ag1628
ag2150
ag1631
ag1632
ag1633
ag1634
ag2151
ag1638
ag1639
ag2152
ag1642
ag1643
ag1644
ag1645
ag1646
ag2153
ag1649
ag1650
ag1651
ag1652
ag1653
ag2154
ag1657
ag1658
ag1659
ag1660
ag2155
ag1664
ag1665
ag1666
ag2156
ag1669
ag1670
ag1671
ag1672
ag1673
ag1674
ag1675
ag1676
a(lp2347
I698
ag2321
aag2157
ag1679
ag1680
ag1681
ag1682
ag1683
a(lp2348
I705
aS':'
p2349
aag2158
ag1686
ag1687
ag1688
ag1689
ag1690
ag1691
ag1692
ag1693
a(lp2350
I715
ag2349
aag2159
ag1696
ag1697
ag1698
ag1699
ag1700
ag1701
ag2160
ag1705
ag1706
ag2161
ag1710
ag1711
ag1712
ag2162
ag1715
ag1716
ag1717
ag1718
ag1719
ag1720
ag2163
ag1724
ag1725
ag1726
ag2164
ag1729
ag1730
ag1731
ag1732
ag1733
ag1734
ag1735
ag1736
ag2165
ag1740
ag1741
ag2166
ag1744
ag1745
ag1746
ag2167
ag1750
ag1751
ag1752
ag1753
ag2168
ag1756
ag1757
ag1758
ag1759
ag1760
ag2169
ag1763
ag1764
ag1765
ag1766
ag1767
ag1768
ag1769
ag2170
ag1773
ag1774
ag1775
ag1776
ag1777
ag2171
ag1781
ag1782
ag1783
ag1784
ag2172
ag1788
ag1789
ag2173
ag1792
ag1793
ag1794
ag1795
ag2174
ag1799
ag1800
ag1801
ag1802
ag2175
ag1806
ag1807
ag1808
ag1809
ag2176
ag1812
ag1813
ag1814
ag1815
a(lp2351
I810
ag2314
aag2177
ag1819
ag1820
ag1821
ag2178
ag1825
ag1826
ag1827
ag2179
ag1830
ag1831
ag1832
ag1833
ag1834
ag1835
ag1836
ag2180
ag1840
ag1841
ag2181
ag1844
ag1845
ag1846
ag2182
ag1850
ag1851
ag1852
ag1853
ag2183
ag1857
ag1858
ag1859
ag2184
ag1862
ag1863
ag1864
ag1865
ag1866
ag1867
ag1868
ag1869
ag2185
ag1872
ag1873
ag1874
ag1875
ag2186
a(lp2352
I858
aS'/'
p2353
aag1878
ag1879
ag1880
ag1881
ag2187
ag1885
ag1886
ag2188
ag1889
ag1890
ag1891
ag1892
ag1893
ag1894
ag2189
ag1898
ag1899
ag1900
ag2190
ag1903
ag1904
ag1905
ag2191
ag1909
ag1910
ag2192
ag1913
ag1914
ag1915
ag1916
ag2193
ag1920
ag1921
ag1922
ag2194
ag1925
ag1926
ag1927
ag1928
ag1929
ag1930
ag2195
ag1934
ag1935
ag1936
a(lp2354
I904
ag2314
aag2196
ag1939
ag1940
ag1941
a(lp2355
I909
ag2319
aag1942
ag2197
ag1945
ag1946
ag1947
ag2198
ag1950
ag1951
ag1952
ag1953
ag1954
ag1955
ag1956
ag1957
ag2199
ag1961
ag1962
ag1963
ag2200
ag1966
ag1967
ag1968
ag1969
ag1970
ag1971
ag1972
ag1973
ag2201
ag1977
ag1978
ag2202
ag1982
ag1983
ag2203
ag1986
ag1987
ag1988
ag1989
ag2204
ag1993
ag1994
ag1995
ag2205
ag1998
ag1999
ag2000
ag2001
ag2002
ag2003
ag2004
ag2206
ag2008
ag2009
ag2010
ag2011
ag2207
ag2014
ag2015
ag2016
ag2017
ag2018
ag2019
ag2020
a(lp2356
I973
ag2353
aag2021
ag2022
ag2023
ag2024
ag2025
ag2026
ag2027
ag2028
ag2029
ag2030
a(lp2357
I984
ag2321
aasS'docName'
p2358
S'source-document01212.txt'
p2359
sb.