(iModel.Document
Document
p0
(dp1
S'fmap'
p2
(lp3
(lp4
I8
aI11
aS'math'
p5
a(lp6
S'*'
p7
ag5
aaa(lp8
I8
aI11
ag5
a(lp9
g7
ag5
aaa(lp10
I8
aI11
ag5
a(lp11
g7
ag5
aaa(lp12
I8
aI11
ag5
a(lp13
g7
ag5
aaa(lp14
I13
aI21
aS'questions'
p15
a(lp16
g5
ag15
aaa(lp17
I13
aI21
ag15
a(lp18
g7
ag15
aaa(lp19
I13
aI21
ag15
a(lp20
g7
ag15
aaa(lp21
I13
aI21
ag15
a(lp22
g7
ag15
aaa(lp23
I30
aI32
aS'sat'
p24
a(lp25
g15
ag24
aaa(lp26
I30
aI32
ag24
a(lp27
g5
ag24
aaa(lp28
I30
aI32
ag24
a(lp29
g7
ag24
aaa(lp30
I30
aI32
ag24
a(lp31
g7
ag24
aaa(lp32
I38
aI52
aS'multiplechoice'
p33
a(lp34
g24
ag33
aaa(lp35
I38
aI52
ag33
a(lp36
g15
ag33
aaa(lp37
I38
aI52
ag33
a(lp38
g5
ag33
aaa(lp39
I38
aI52
ag33
a(lp40
g7
ag33
aaa(lp41
I59
aI61
aS'one'
p42
a(lp43
g33
ag42
aaa(lp44
I59
aI61
ag42
a(lp45
g24
ag42
aaa(lp46
I59
aI61
ag42
a(lp47
g15
ag42
aaa(lp48
I59
aI61
ag42
a(lp49
g5
ag42
aaa(lp50
I63
aI66
aS'type'
p51
a(lp52
g42
ag51
aaa(lp53
I63
aI66
ag51
a(lp54
g33
ag51
aaa(lp55
I63
aI66
ag51
a(lp56
g24
ag51
aaa(lp57
I63
aI66
ag51
a(lp58
g15
ag51
aaa(lp59
I68
aI70
aS'\xe2\x80\x94'
p60
a(lp61
g51
ag60
aaa(lp62
I68
aI70
ag60
a(lp63
g42
ag60
aaa(lp64
I68
aI70
ag60
a(lp65
g33
ag60
aaa(lp66
I68
aI70
ag60
a(lp67
g24
ag60
aaa(lp68
I72
aI77
aS'called'
p69
a(lp70
g60
ag69
aaa(lp71
I72
aI77
ag69
a(lp72
g51
ag69
aaa(lp73
I72
aI77
ag69
a(lp74
g42
ag69
aaa(lp75
I72
aI77
ag69
a(lp76
g33
ag69
aaa(lp77
I81
aI96
aS'studentproduced'
p78
a(lp79
g69
ag78
aaa(lp80
I81
aI96
ag78
a(lp81
g60
ag78
aaa(lp82
I81
aI96
ag78
a(lp83
g51
ag78
aaa(lp84
I81
aI96
ag78
a(lp85
g42
ag78
aaa(lp86
I98
aI105
aS'response'
p87
a(lp88
g78
ag87
aaa(lp89
I98
aI105
ag87
a(lp90
g69
ag87
aaa(lp91
I98
aI105
ag87
a(lp92
g60
ag87
aaa(lp93
I98
aI105
ag87
a(lp94
g51
ag87
aaa(lp95
I111
aI117
aS'gridin'
p96
a(lp97
g87
ag96
aaa(lp98
I111
aI117
ag96
a(lp99
g78
ag96
aaa(lp100
I111
aI117
ag96
a(lp101
g69
ag96
aaa(lp102
I111
aI117
ag96
a(lp103
g60
ag96
aaa(lp104
I135
aI138
aS'find'
p105
a(lp106
g96
ag105
aaa(lp107
I135
aI138
ag105
a(lp108
g87
ag105
aaa(lp109
I135
aI138
ag105
a(lp110
g78
ag105
aaa(lp111
I135
aI138
ag105
a(lp112
g69
ag105
aaa(lp113
I144
aI147
aS'fill'
p114
a(lp115
g105
ag114
aaa(lp116
I144
aI147
ag114
a(lp117
g96
ag114
aaa(lp118
I144
aI147
ag114
a(lp119
g87
ag114
aaa(lp120
I144
aI147
ag114
a(lp121
g78
ag114
aaa(lp122
I161
aI166
aS'answer'
p123
a(lp124
g114
ag123
aaa(lp125
I161
aI166
ag123
a(lp126
g105
ag123
aaa(lp127
I161
aI166
ag123
a(lp128
g96
ag123
aaa(lp129
I161
aI166
ag123
a(lp130
g87
ag123
aaa(lp131
I172
aI178
aS'penalty'
p132
a(lp133
g123
ag132
aaa(lp134
I172
aI178
ag132
a(lp135
g114
ag132
aaa(lp136
I172
aI178
ag132
a(lp137
g105
ag132
aaa(lp138
I172
aI178
ag132
a(lp139
g96
ag132
aaa(lp140
I184
aI188
aS'wrong'
p141
a(lp142
g132
ag141
aaa(lp143
I184
aI188
ag141
a(lp144
g123
ag141
aaa(lp145
I184
aI188
ag141
a(lp146
g114
ag141
aaa(lp147
I184
aI188
ag141
a(lp148
g105
ag141
aaa(lp149
I190
aI196
aS'answers'
p150
a(lp151
g141
ag150
aaa(lp152
I190
aI196
ag150
a(lp153
g132
ag150
aaa(lp154
I190
aI196
ag150
a(lp155
g123
ag150
aaa(lp156
I190
aI196
ag150
a(lp157
g114
ag150
aaa(lp158
I201
aI206
aS'points'
p159
a(lp160
g150
ag159
aaa(lp161
I201
aI206
ag159
a(lp162
g141
ag159
aaa(lp163
I201
aI206
ag159
a(lp164
g132
ag159
aaa(lp165
I201
aI206
ag159
a(lp166
g123
ag159
aaa(lp167
I216
aI225
aS'subtracted'
p168
a(lp169
g159
ag168
aaa(lp170
I216
aI225
ag168
a(lp171
g150
ag168
aaa(lp172
I216
aI225
ag168
a(lp173
g141
ag168
aaa(lp174
I216
aI225
ag168
a(lp175
g132
ag168
aaa(lp176
I233
aI237
aS'wrong'
p177
a(lp178
g168
ag177
aaa(lp179
I233
aI237
ag177
a(lp180
g159
ag177
aaa(lp181
I233
aI237
ag177
a(lp182
g150
ag177
aaa(lp183
I233
aI237
ag177
a(lp184
g141
ag177
aaa(lp185
I239
aI244
aS'answer'
p186
a(lp187
g177
ag186
aaa(lp188
I239
aI244
ag186
a(lp189
g168
ag186
aaa(lp190
I239
aI244
ag186
a(lp191
g159
ag186
aaa(lp192
I239
aI244
ag186
a(lp193
g150
ag186
aaa(lp194
I254
aI266
aS'questiontype'
p195
a(lp196
g186
ag195
aaa(lp197
I254
aI266
ag195
a(lp198
g177
ag195
aaa(lp199
I254
aI266
ag195
a(lp200
g168
ag195
aaa(lp201
I254
aI266
ag195
a(lp202
g159
ag195
aaa(lp203
I269
aI273
aS'since'
p204
a(lp205
g195
ag204
aaa(lp206
I269
aI273
ag204
a(lp207
g186
ag204
aaa(lp208
I269
aI273
ag204
a(lp209
g177
ag204
aaa(lp210
I269
aI273
ag204
a(lp211
g168
ag204
aaa(lp212
I288
aI302
aS'multiplechoice'
p213
a(lp214
g204
ag213
aaa(lp215
I288
aI302
ag213
a(lp216
g195
ag213
aaa(lp217
I288
aI302
ag213
a(lp218
g186
ag213
aaa(lp219
I288
aI302
ag213
a(lp220
g177
ag213
aaa(lp221
I304
aI310
aS'options'
p222
a(lp223
g213
ag222
aaa(lp224
I304
aI310
ag222
a(lp225
g204
ag222
aaa(lp226
I304
aI310
ag222
a(lp227
g195
ag222
aaa(lp228
I304
aI310
ag222
a(lp229
g186
ag222
aaa(lp230
I313
aI320
aS'compared'
p231
a(lp232
g222
ag231
aaa(lp233
I313
aI320
ag231
a(lp234
g213
ag231
aaa(lp235
I313
aI320
ag231
a(lp236
g204
ag231
aaa(lp237
I313
aI320
ag231
a(lp238
g195
ag231
aaa(lp239
I331
aI344
aS'questiontypes'
p240
a(lp241
g231
ag240
aaa(lp242
I331
aI344
ag240
a(lp243
g222
ag240
aaa(lp244
I331
aI344
ag240
a(lp245
g213
ag240
aaa(lp246
I331
aI344
ag240
a(lp247
g204
ag240
aaa(lp248
I346
aI353
aS'gridins'
p249
a(lp250
g240
ag249
aaa(lp251
I346
aI353
ag249
a(lp252
g231
ag249
aaa(lp253
I346
aI353
ag249
a(lp254
g222
ag249
aaa(lp255
I346
aI353
ag249
a(lp256
g213
ag249
aaa(lp257
I359
aI362
aS'like'
p258
a(lp259
g249
ag258
aaa(lp260
I359
aI362
ag258
a(lp261
g240
ag258
aaa(lp262
I359
aI362
ag258
a(lp263
g231
ag258
aaa(lp264
I359
aI362
ag258
a(lp265
g222
ag258
aaa(lp266
I364
aI370
aS'regular'
p267
a(lp268
g258
ag267
aaa(lp269
I364
aI370
ag267
a(lp270
g249
ag267
aaa(lp271
I364
aI370
ag267
a(lp272
g240
ag267
aaa(lp273
I364
aI370
ag267
a(lp274
g231
ag267
aaa(lp275
I372
aI375
aS'math'
p276
a(lp277
g267
ag276
aaa(lp278
I372
aI375
ag276
a(lp279
g258
ag276
aaa(lp280
I372
aI375
ag276
a(lp281
g249
ag276
aaa(lp282
I372
aI375
ag276
a(lp283
g240
ag276
aaa(lp284
I377
aI385
aS'questions'
p285
a(lp286
g276
ag285
aaa(lp287
I377
aI385
ag285
a(lp288
g267
ag285
aaa(lp289
I377
aI385
ag285
a(lp290
g258
ag285
aaa(lp291
I377
aI385
ag285
a(lp292
g249
ag285
aaa(lp293
I393
aI397
aS'cover'
p294
a(lp295
g285
ag294
aaa(lp296
I393
aI397
ag294
a(lp297
g276
ag294
aaa(lp298
I393
aI397
ag294
a(lp299
g267
ag294
aaa(lp300
I393
aI397
ag294
a(lp301
g258
ag294
aaa(lp302
I408
aI414
aS'subject'
p303
a(lp304
g294
ag303
aaa(lp305
I408
aI414
ag303
a(lp306
g285
ag303
aaa(lp307
I408
aI414
ag303
a(lp308
g276
ag303
aaa(lp309
I408
aI414
ag303
a(lp310
g267
ag303
aaa(lp311
I416
aI420
aS'areas'
p312
a(lp313
g303
ag312
aaa(lp314
I416
aI420
ag312
a(lp315
g294
ag312
aaa(lp316
I416
aI420
ag312
a(lp317
g285
ag312
aaa(lp318
I416
aI420
ag312
a(lp319
g276
ag312
aaa(lp320
I432
aI436
aS'range'
p321
a(lp322
g312
ag321
aaa(lp323
I432
aI436
ag321
a(lp324
g303
ag321
aaa(lp325
I432
aI436
ag321
a(lp326
g294
ag321
aaa(lp327
I432
aI436
ag321
a(lp328
g285
ag321
aaa(lp329
I441
aI450
aS'difficulty'
p330
a(lp331
g321
ag330
aaa(lp332
I441
aI450
ag330
a(lp333
g312
ag330
aaa(lp334
I441
aI450
ag330
a(lp335
g303
ag330
aaa(lp336
I441
aI450
ag330
a(lp337
g294
ag330
aaa(lp338
I457
aI460
aS'easy'
p339
a(lp340
g330
ag339
aaa(lp341
I457
aI460
ag339
a(lp342
g321
ag339
aaa(lp343
I457
aI460
ag339
a(lp344
g312
ag339
aaa(lp345
I457
aI460
ag339
a(lp346
g303
ag339
aaa(lp347
I465
aI468
aS'hard'
p348
a(lp349
g339
ag348
aaa(lp350
I465
aI468
ag348
a(lp351
g330
ag348
aaa(lp352
I465
aI468
ag348
a(lp353
g321
ag348
aaa(lp354
I465
aI468
ag348
a(lp355
g312
ag348
aaa(lp356
I478
aI487
aS'calculator'
p357
a(lp358
g348
ag357
aaa(lp359
I478
aI487
ag357
a(lp360
g339
ag357
aaa(lp361
I478
aI487
ag357
a(lp362
g330
ag357
aaa(lp363
I478
aI487
ag357
a(lp364
g321
ag357
aaa(lp365
I492
aI495
aS'hand'
p366
a(lp367
g357
ag366
aaa(lp368
I492
aI495
ag366
a(lp369
g348
ag366
aaa(lp370
I492
aI495
ag366
a(lp371
g339
ag366
aaa(lp372
I492
aI495
ag366
a(lp373
g330
ag366
aaa(lp374
I504
aI506
aS'use'
p375
a(lp376
g366
ag375
aaa(lp377
I504
aI506
ag375
a(lp378
g357
ag375
aaa(lp379
I504
aI506
ag375
a(lp380
g348
ag375
aaa(lp381
I504
aI506
ag375
a(lp382
g339
ag375
aaa(lp383
I510
aI519
aS'calculator'
p384
a(lp385
g375
ag384
aaa(lp386
I510
aI519
ag384
a(lp387
g366
ag384
aaa(lp388
I510
aI519
ag384
a(lp389
g357
ag384
aaa(lp390
I510
aI519
ag384
a(lp391
g348
ag384
aaa(lp392
I524
aI528
aS'solve'
p393
a(lp394
g384
ag393
aaa(lp395
I524
aI528
ag393
a(lp396
g375
ag393
aaa(lp397
I524
aI528
ag393
a(lp398
g366
ag393
aaa(lp399
I524
aI528
ag393
a(lp400
g357
ag393
aaa(lp401
I534
aI539
aS'answer'
p402
a(lp403
g393
ag402
aaa(lp404
I534
aI539
ag402
a(lp405
g384
ag402
aaa(lp406
I534
aI539
ag402
a(lp407
g375
ag402
aaa(lp408
I534
aI539
ag402
a(lp409
g366
ag402
aaa(lp410
I546
aI552
aS'problem'
p411
a(lp412
g402
ag411
aaa(lp413
I546
aI552
ag411
a(lp414
g393
ag411
aaa(lp415
I546
aI552
ag411
a(lp416
g384
ag411
aaa(lp417
I546
aI552
ag411
a(lp418
g375
ag411
aaa(lp419
I555
aI559
aS'check'
p420
a(lp421
g411
ag420
aaa(lp422
I555
aI559
ag420
a(lp423
g402
ag420
aaa(lp424
I555
aI559
ag420
a(lp425
g393
ag420
aaa(lp426
I555
aI559
ag420
a(lp427
g384
ag420
aaa(lp428
I566
aI569
aS'work'
p429
a(lp430
g420
ag429
aaa(lp431
I566
aI569
ag429
a(lp432
g411
ag429
aaa(lp433
I566
aI569
ag429
a(lp434
g402
ag429
aaa(lp435
I566
aI569
ag429
a(lp436
g393
ag429
aaa(lp437
I571
aI579
aS'carefully'
p438
a(lp439
g429
ag438
aaa(lp440
I571
aI579
ag438
a(lp441
g420
ag438
aaa(lp442
I571
aI579
ag438
a(lp443
g411
ag438
aaa(lp444
I571
aI579
ag438
a(lp445
g402
ag438
aaa(lp446
I589
aI591
aS'prepare'
p447
a(lp448
g438
ag447
aaa(lp449
I589
aI591
ag447
a(lp450
g429
ag447
aaa(lp451
I589
aI591
ag447
a(lp452
g420
ag447
aaa(lp453
I589
aI591
ag447
a(lp454
g411
ag447
aaasS'wordMap'
p455
(lp456
(lp457
I0
aI2
aS'not'
p458
a(lp459
(lp460
I0
aS'n'
p461
aa(lp462
I1
aS'o'
p463
aa(lp464
I2
aS't'
p465
aaaa(lp466
I4
aI6
aS'all'
p467
a(lp468
(lp469
I4
aS'a'
p470
aa(lp471
I5
aS'l'
p472
aa(lp473
I6
ag472
aaaa(lp474
I8
aI11
ag5
a(lp475
(lp476
I8
aS'm'
p477
aa(lp478
I9
ag470
aa(lp479
I10
ag465
aa(lp480
I11
aS'h'
p481
aaaa(lp482
I13
aI21
ag15
a(lp483
(lp484
I13
aS'q'
p485
aa(lp486
I14
aS'u'
p487
aa(lp488
I15
aS'e'
p489
aa(lp490
I16
aS's'
p491
aa(lp492
I17
ag465
aa(lp493
I18
aS'i'
p494
aa(lp495
I19
ag463
aa(lp496
I20
ag461
aa(lp497
I21
ag491
aaaa(lp498
I23
aI24
aS'on'
p499
a(lp500
(lp501
I23
ag463
aa(lp502
I24
ag461
aaaa(lp503
I26
aI28
aS'the'
p504
a(lp505
(lp506
I26
ag465
aa(lp507
I27
ag481
aa(lp508
I28
ag489
aaaa(lp509
I30
aI32
ag24
a(lp510
(lp511
I30
ag491
aa(lp512
I31
ag470
aa(lp513
I32
ag465
aaaa(lp514
I34
aI36
aS'are'
p515
a(lp516
(lp517
I34
ag470
aa(lp518
I35
aS'r'
p519
aa(lp520
I36
ag489
aaaa(lp521
I38
aI52
ag33
a(lp522
(lp523
I38
ag477
aa(lp524
I39
ag487
aa(lp525
I40
ag472
aa(lp526
I41
ag465
aa(lp527
I42
ag494
aa(lp528
I43
aS'p'
p529
aa(lp530
I44
ag472
aa(lp531
I45
ag489
aa(lp532
I47
aS'c'
p533
aa(lp534
I48
ag481
aa(lp535
I49
ag463
aa(lp536
I50
ag494
aa(lp537
I51
ag533
aa(lp538
I52
ag489
aaaa(lp539
I55
aI57
aS'for'
p540
a(lp541
(lp542
I55
aS'f'
p543
aa(lp544
I56
ag463
aa(lp545
I57
ag519
aaaa(lp546
I59
aI61
ag42
a(lp547
(lp548
I59
ag463
aa(lp549
I60
ag461
aa(lp550
I61
ag489
aaaa(lp551
I63
aI66
ag51
a(lp552
(lp553
I63
ag465
aa(lp554
I64
aS'y'
p555
aa(lp556
I65
ag529
aa(lp557
I66
ag489
aaaa(lp558
I68
aI70
ag60
a(lp559
(lp560
I68
aS'\xe2'
p561
aa(lp562
I69
aS'\x80'
p563
aa(lp564
I70
aS'\x94'
p565
aaaa(lp566
I72
aI77
ag69
a(lp567
(lp568
I72
ag533
aa(lp569
I73
ag470
aa(lp570
I74
ag472
aa(lp571
I75
ag472
aa(lp572
I76
ag489
aa(lp573
I77
aS'd'
p574
aaaa(lp575
I79
aI79
ag470
a(lp576
(lp577
I79
ag470
aaaa(lp578
I81
aI96
ag78
a(lp579
(lp580
I81
ag491
aa(lp581
I82
ag465
aa(lp582
I83
ag487
aa(lp583
I84
ag574
aa(lp584
I85
ag489
aa(lp585
I86
ag461
aa(lp586
I87
ag465
aa(lp587
I89
ag529
aa(lp588
I90
ag519
aa(lp589
I91
ag463
aa(lp590
I92
ag574
aa(lp591
I93
ag487
aa(lp592
I94
ag533
aa(lp593
I95
ag489
aa(lp594
I96
ag574
aaaa(lp595
I98
aI105
ag87
a(lp596
(lp597
I98
ag519
aa(lp598
I99
ag489
aa(lp599
I100
ag491
aa(lp600
I101
ag529
aa(lp601
I102
ag463
aa(lp602
I103
ag461
aa(lp603
I104
ag491
aa(lp604
I105
ag489
aaaa(lp605
I108
aI109
aS'or'
p606
a(lp607
(lp608
I108
ag463
aa(lp609
I109
ag519
aaaa(lp610
I111
aI117
ag96
a(lp611
(lp612
I111
aS'g'
p613
aa(lp614
I112
ag519
aa(lp615
I113
ag494
aa(lp616
I114
ag574
aa(lp617
I116
ag494
aa(lp618
I117
ag461
aaaa(lp619
I123
aI125
aS'you'
p620
a(lp621
(lp622
I123
ag555
aa(lp623
I124
ag463
aa(lp624
I125
ag487
aaaa(lp625
I127
aI130
aS'have'
p626
a(lp627
(lp628
I127
ag481
aa(lp629
I128
ag470
aa(lp630
I129
aS'v'
p631
aa(lp632
I130
ag489
aaaa(lp633
I132
aI133
aS'to'
p634
a(lp635
(lp636
I132
ag465
aa(lp637
I133
ag463
aaaa(lp638
I135
aI138
ag105
a(lp639
(lp640
I135
ag543
aa(lp641
I136
ag494
aa(lp642
I137
ag461
aa(lp643
I138
ag574
aaaa(lp644
I140
aI142
aS'and'
p645
a(lp646
(lp647
I140
ag470
aa(lp648
I141
ag461
aa(lp649
I142
ag574
aaaa(lp650
I144
aI147
ag114
a(lp651
(lp652
I144
ag543
aa(lp653
I145
ag494
aa(lp654
I146
ag472
aa(lp655
I147
ag472
aaaa(lp656
I149
aI150
aS'in'
p657
a(lp658
(lp659
I149
ag494
aa(lp660
I150
ag461
aaaa(lp661
I152
aI155
aS'your'
p662
a(lp663
(lp664
I152
ag555
aa(lp665
I153
ag463
aa(lp666
I154
ag487
aa(lp667
I155
ag519
aaaa(lp668
I157
aI159
aS'own'
p669
a(lp670
(lp671
I157
ag463
aa(lp672
I158
aS'w'
p673
aa(lp674
I159
ag461
aaaa(lp675
I161
aI166
ag123
a(lp676
(lp677
I161
ag470
aa(lp678
I162
ag461
aa(lp679
I163
ag491
aa(lp680
I164
ag673
aa(lp681
I165
ag489
aa(lp682
I166
ag519
aaaa(lp683
I169
aI170
aS'no'
p684
a(lp685
(lp686
I169
ag461
aa(lp687
I170
ag463
aaaa(lp688
I172
aI178
ag132
a(lp689
(lp690
I172
ag529
aa(lp691
I173
ag489
aa(lp692
I174
ag461
aa(lp693
I175
ag470
aa(lp694
I176
ag472
aa(lp695
I177
ag465
aa(lp696
I178
ag555
aaaa(lp697
I180
aI182
aS'for'
p698
a(lp699
(lp700
I180
ag543
aa(lp701
I181
ag463
aa(lp702
I182
ag519
aaaa(lp703
I184
aI188
ag141
a(lp704
(lp705
I184
ag673
aa(lp706
I185
ag519
aa(lp707
I186
ag463
aa(lp708
I187
ag461
aa(lp709
I188
ag613
aaaa(lp710
I190
aI196
ag150
a(lp711
(lp712
I190
ag470
aa(lp713
I191
ag461
aa(lp714
I192
ag491
aa(lp715
I193
ag673
aa(lp716
I194
ag489
aa(lp717
I195
ag519
aa(lp718
I196
ag491
aaaa(lp719
I198
aI199
aS'no'
p720
a(lp721
(lp722
I198
ag461
aa(lp723
I199
ag463
aaaa(lp724
I201
aI206
ag159
a(lp725
(lp726
I201
ag529
aa(lp727
I202
ag463
aa(lp728
I203
ag494
aa(lp729
I204
ag461
aa(lp730
I205
ag465
aa(lp731
I206
ag491
aaaa(lp732
I208
aI211
aS'will'
p733
a(lp734
(lp735
I208
ag673
aa(lp736
I209
ag494
aa(lp737
I210
ag472
aa(lp738
I211
ag472
aaaa(lp739
I213
aI214
aS'be'
p740
a(lp741
(lp742
I213
aS'b'
p743
aa(lp744
I214
ag489
aaaa(lp745
I216
aI225
ag168
a(lp746
(lp747
I216
ag491
aa(lp748
I217
ag487
aa(lp749
I218
ag743
aa(lp750
I219
ag465
aa(lp751
I220
ag519
aa(lp752
I221
ag470
aa(lp753
I222
ag533
aa(lp754
I223
ag465
aa(lp755
I224
ag489
aa(lp756
I225
ag574
aaaa(lp757
I227
aI229
aS'for'
p758
a(lp759
(lp760
I227
ag543
aa(lp761
I228
ag463
aa(lp762
I229
ag519
aaaa(lp763
I231
aI231
ag470
a(lp764
(lp765
I231
ag470
aaaa(lp766
I233
aI237
ag177
a(lp767
(lp768
I233
ag673
aa(lp769
I234
ag519
aa(lp770
I235
ag463
aa(lp771
I236
ag461
aa(lp772
I237
ag613
aaaa(lp773
I239
aI244
ag186
a(lp774
(lp775
I239
ag470
aa(lp776
I240
ag461
aa(lp777
I241
ag491
aa(lp778
I242
ag673
aa(lp779
I243
ag489
aa(lp780
I244
ag519
aaaa(lp781
I246
aI247
aS'to'
p782
a(lp783
(lp784
I246
ag465
aa(lp785
I247
ag463
aaaa(lp786
I249
aI252
aS'this'
p787
a(lp788
(lp789
I249
ag465
aa(lp790
I250
ag481
aa(lp791
I251
ag494
aa(lp792
I252
ag491
aaaa(lp793
I254
aI266
ag195
a(lp794
(lp795
I254
ag485
aa(lp796
I255
ag487
aa(lp797
I256
ag489
aa(lp798
I257
ag491
aa(lp799
I258
ag465
aa(lp800
I259
ag494
aa(lp801
I260
ag463
aa(lp802
I261
ag461
aa(lp803
I263
ag465
aa(lp804
I264
ag555
aa(lp805
I265
ag529
aa(lp806
I266
ag489
aaaa(lp807
I269
aI273
ag204
a(lp808
(lp809
I269
ag491
aa(lp810
I270
ag494
aa(lp811
I271
ag461
aa(lp812
I272
ag533
aa(lp813
I273
ag489
aaaa(lp814
I275
aI279
aS'there'
p815
a(lp816
(lp817
I275
ag465
aa(lp818
I276
ag481
aa(lp819
I277
ag489
aa(lp820
I278
ag519
aa(lp821
I279
ag489
aaaa(lp822
I281
aI283
aS'are'
p823
a(lp824
(lp825
I281
ag470
aa(lp826
I282
ag519
aa(lp827
I283
ag489
aaaa(lp828
I285
aI286
aS'no'
p829
a(lp830
(lp831
I285
ag461
aa(lp832
I286
ag463
aaaa(lp833
I288
aI302
ag213
a(lp834
(lp835
I288
ag477
aa(lp836
I289
ag487
aa(lp837
I290
ag472
aa(lp838
I291
ag465
aa(lp839
I292
ag494
aa(lp840
I293
ag529
aa(lp841
I294
ag472
aa(lp842
I295
ag489
aa(lp843
I297
ag533
aa(lp844
I298
ag481
aa(lp845
I299
ag463
aa(lp846
I300
ag494
aa(lp847
I301
ag533
aa(lp848
I302
ag489
aaaa(lp849
I304
aI310
ag222
a(lp850
(lp851
I304
ag463
aa(lp852
I305
ag529
aa(lp853
I306
ag465
aa(lp854
I307
ag494
aa(lp855
I308
ag463
aa(lp856
I309
ag461
aa(lp857
I310
ag491
aaaa(lp858
I313
aI320
ag231
a(lp859
(lp860
I313
ag533
aa(lp861
I314
ag463
aa(lp862
I315
ag477
aa(lp863
I316
ag529
aa(lp864
I317
ag470
aa(lp865
I318
ag519
aa(lp866
I319
ag489
aa(lp867
I320
ag574
aaaa(lp868
I322
aI323
aS'to'
p869
a(lp870
(lp871
I322
ag465
aa(lp872
I323
ag463
aaaa(lp873
I325
aI329
aS'other'
p874
a(lp875
(lp876
I325
ag463
aa(lp877
I326
ag465
aa(lp878
I327
ag481
aa(lp879
I328
ag489
aa(lp880
I329
ag519
aaaa(lp881
I331
aI344
ag240
a(lp882
(lp883
I331
ag485
aa(lp884
I332
ag487
aa(lp885
I333
ag489
aa(lp886
I334
ag491
aa(lp887
I335
ag465
aa(lp888
I336
ag494
aa(lp889
I337
ag463
aa(lp890
I338
ag461
aa(lp891
I340
ag465
aa(lp892
I341
ag555
aa(lp893
I342
ag529
aa(lp894
I343
ag489
aa(lp895
I344
ag491
aaaa(lp896
I346
aI353
ag249
a(lp897
(lp898
I346
ag613
aa(lp899
I347
ag519
aa(lp900
I348
ag494
aa(lp901
I349
ag574
aa(lp902
I351
ag494
aa(lp903
I352
ag461
aa(lp904
I353
ag491
aaaa(lp905
I355
aI357
aS'are'
p906
a(lp907
(lp908
I355
ag470
aa(lp909
I356
ag519
aa(lp910
I357
ag489
aaaa(lp911
I359
aI362
ag258
a(lp912
(lp913
I359
ag472
aa(lp914
I360
ag494
aa(lp915
I361
aS'k'
p916
aa(lp917
I362
ag489
aaaa(lp918
I364
aI370
ag267
a(lp919
(lp920
I364
ag519
aa(lp921
I365
ag489
aa(lp922
I366
ag613
aa(lp923
I367
ag487
aa(lp924
I368
ag472
aa(lp925
I369
ag470
aa(lp926
I370
ag519
aaaa(lp927
I372
aI375
ag276
a(lp928
(lp929
I372
ag477
aa(lp930
I373
ag470
aa(lp931
I374
ag465
aa(lp932
I375
ag481
aaaa(lp933
I377
aI385
ag285
a(lp934
(lp935
I377
ag485
aa(lp936
I378
ag487
aa(lp937
I379
ag489
aa(lp938
I380
ag491
aa(lp939
I381
ag465
aa(lp940
I382
ag494
aa(lp941
I383
ag463
aa(lp942
I384
ag461
aa(lp943
I385
ag491
aaaa(lp944
I388
aI391
aS'they'
p945
a(lp946
(lp947
I388
ag465
aa(lp948
I389
ag481
aa(lp949
I390
ag489
aa(lp950
I391
ag555
aaaa(lp951
I393
aI397
ag294
a(lp952
(lp953
I393
ag533
aa(lp954
I394
ag463
aa(lp955
I395
ag631
aa(lp956
I396
ag489
aa(lp957
I397
ag519
aaaa(lp958
I399
aI401
aS'the'
p959
a(lp960
(lp961
I399
ag465
aa(lp962
I400
ag481
aa(lp963
I401
ag489
aaaa(lp964
I403
aI406
aS'same'
p965
a(lp966
(lp967
I403
ag491
aa(lp968
I404
ag470
aa(lp969
I405
ag477
aa(lp970
I406
ag489
aaaa(lp971
I408
aI414
ag303
a(lp972
(lp973
I408
ag491
aa(lp974
I409
ag487
aa(lp975
I410
ag743
aa(lp976
I411
aS'j'
p977
aa(lp978
I412
ag489
aa(lp979
I413
ag533
aa(lp980
I414
ag465
aaaa(lp981
I416
aI420
ag312
a(lp982
(lp983
I416
ag470
aa(lp984
I417
ag519
aa(lp985
I418
ag489
aa(lp986
I419
ag470
aa(lp987
I420
ag491
aaaa(lp988
I423
aI425
aS'and'
p989
a(lp990
(lp991
I423
ag470
aa(lp992
I424
ag461
aa(lp993
I425
ag574
aaaa(lp994
I427
aI430
aS'they'
p995
a(lp996
(lp997
I427
ag465
aa(lp998
I428
ag481
aa(lp999
I429
ag489
aa(lp1000
I430
ag555
aaaa(lp1001
I432
aI436
ag321
a(lp1002
(lp1003
I432
ag519
aa(lp1004
I433
ag470
aa(lp1005
I434
ag461
aa(lp1006
I435
ag613
aa(lp1007
I436
ag489
aaaa(lp1008
I438
aI439
aS'in'
p1009
a(lp1010
(lp1011
I438
ag494
aa(lp1012
I439
ag461
aaaa(lp1013
I441
aI450
ag330
a(lp1014
(lp1015
I441
ag574
aa(lp1016
I442
ag494
aa(lp1017
I443
ag543
aa(lp1018
I444
ag543
aa(lp1019
I445
ag494
aa(lp1020
I446
ag533
aa(lp1021
I447
ag487
aa(lp1022
I448
ag472
aa(lp1023
I449
ag465
aa(lp1024
I450
ag555
aaaa(lp1025
I452
aI455
aS'from'
p1026
a(lp1027
(lp1028
I452
ag543
aa(lp1029
I453
ag519
aa(lp1030
I454
ag463
aa(lp1031
I455
ag477
aaaa(lp1032
I457
aI460
ag339
a(lp1033
(lp1034
I457
ag489
aa(lp1035
I458
ag470
aa(lp1036
I459
ag491
aa(lp1037
I460
ag555
aaaa(lp1038
I462
aI463
aS'to'
p1039
a(lp1040
(lp1041
I462
ag465
aa(lp1042
I463
ag463
aaaa(lp1043
I465
aI468
ag348
a(lp1044
(lp1045
I465
ag481
aa(lp1046
I466
ag470
aa(lp1047
I467
ag519
aa(lp1048
I468
ag574
aaaa(lp1049
I471
aI474
aS'have'
p1050
a(lp1051
(lp1052
I471
ag481
aa(lp1053
I472
ag470
aa(lp1054
I473
ag631
aa(lp1055
I474
ag489
aaaa(lp1056
I476
aI476
ag470
a(lp1057
(lp1058
I476
ag470
aaaa(lp1059
I478
aI487
ag357
a(lp1060
(lp1061
I478
ag533
aa(lp1062
I479
ag470
aa(lp1063
I480
ag472
aa(lp1064
I481
ag533
aa(lp1065
I482
ag487
aa(lp1066
I483
ag472
aa(lp1067
I484
ag470
aa(lp1068
I485
ag465
aa(lp1069
I486
ag463
aa(lp1070
I487
ag519
aaaa(lp1071
I489
aI490
aS'on'
p1072
a(lp1073
(lp1074
I489
ag463
aa(lp1075
I490
ag461
aaaa(lp1076
I492
aI495
ag366
a(lp1077
(lp1078
I492
ag481
aa(lp1079
I493
ag470
aa(lp1080
I494
ag461
aa(lp1081
I495
ag574
aaaa(lp1082
I497
aI498
aS'if'
p1083
a(lp1084
(lp1085
I497
ag494
aa(lp1086
I498
ag543
aaaa(lp1087
I500
aI502
aS'you'
p1088
a(lp1089
(lp1090
I500
ag555
aa(lp1091
I501
ag463
aa(lp1092
I502
ag487
aaaa(lp1093
I504
aI506
ag375
a(lp1094
(lp1095
I504
ag487
aa(lp1096
I505
ag491
aa(lp1097
I506
ag489
aaaa(lp1098
I508
aI508
ag470
a(lp1099
(lp1100
I508
ag470
aaaa(lp1101
I510
aI519
ag384
a(lp1102
(lp1103
I510
ag533
aa(lp1104
I511
ag470
aa(lp1105
I512
ag472
aa(lp1106
I513
ag533
aa(lp1107
I514
ag487
aa(lp1108
I515
ag472
aa(lp1109
I516
ag470
aa(lp1110
I517
ag465
aa(lp1111
I518
ag463
aa(lp1112
I519
ag519
aaaa(lp1113
I521
aI522
aS'to'
p1114
a(lp1115
(lp1116
I521
ag465
aa(lp1117
I522
ag463
aaaa(lp1118
I524
aI528
ag393
a(lp1119
(lp1120
I524
ag491
aa(lp1121
I525
ag463
aa(lp1122
I526
ag472
aa(lp1123
I527
ag631
aa(lp1124
I528
ag489
aaaa(lp1125
I530
aI532
aS'the'
p1126
a(lp1127
(lp1128
I530
ag465
aa(lp1129
I531
ag481
aa(lp1130
I532
ag489
aaaa(lp1131
I534
aI539
ag402
a(lp1132
(lp1133
I534
ag470
aa(lp1134
I535
ag461
aa(lp1135
I536
ag491
aa(lp1136
I537
ag673
aa(lp1137
I538
ag489
aa(lp1138
I539
ag519
aaaa(lp1139
I541
aI542
aS'to'
p1140
a(lp1141
(lp1142
I541
ag465
aa(lp1143
I542
ag463
aaaa(lp1144
I544
aI544
ag470
a(lp1145
(lp1146
I544
ag470
aaaa(lp1147
I546
aI552
ag411
a(lp1148
(lp1149
I546
ag529
aa(lp1150
I547
ag519
aa(lp1151
I548
ag463
aa(lp1152
I549
ag743
aa(lp1153
I550
ag472
aa(lp1154
I551
ag489
aa(lp1155
I552
ag477
aaaa(lp1156
I555
aI559
ag420
a(lp1157
(lp1158
I555
ag533
aa(lp1159
I556
ag481
aa(lp1160
I557
ag489
aa(lp1161
I558
ag533
aa(lp1162
I559
ag916
aaaa(lp1163
I561
aI564
aS'your'
p1164
a(lp1165
(lp1166
I561
ag555
aa(lp1167
I562
ag463
aa(lp1168
I563
ag487
aa(lp1169
I564
ag519
aaaa(lp1170
I566
aI569
ag429
a(lp1171
(lp1172
I566
ag673
aa(lp1173
I567
ag463
aa(lp1174
I568
ag519
aa(lp1175
I569
ag916
aaaa(lp1176
I571
aI579
ag438
a(lp1177
(lp1178
I571
ag533
aa(lp1179
I572
ag470
aa(lp1180
I573
ag519
aa(lp1181
I574
ag489
aa(lp1182
I575
ag543
aa(lp1183
I576
ag487
aa(lp1184
I577
ag472
aa(lp1185
I578
ag472
aa(lp1186
I579
ag555
aaaa(lp1187
I582
aI584
aS'how'
p1188
a(lp1189
(lp1190
I582
ag481
aa(lp1191
I583
ag463
aa(lp1192
I584
ag673
aaaa(lp1193
I586
aI587
aS'do'
p1194
a(lp1195
(lp1196
I586
ag574
aa(lp1197
I587
ag463
aaaa(lp1198
I589
aI591
aS'you'
p1199
a(lp1200
(lp1201
I589
ag555
aa(lp1202
I590
ag463
aa(lp1203
I591
ag487
aaaa(lp1204
I589
aI591
ag447
a(lp1205
(lp1206
I593
ag529
aa(lp1207
I594
ag519
aa(lp1208
I595
ag489
aa(lp1209
I596
ag529
aa(lp1210
I597
ag470
aa(lp1211
I598
ag519
aa(lp1212
I599
ag489
aaaasS'cleanCharacterMap'
p1213
(lp1214
g460
ag462
ag464
a(lp1215
I3
aS' '
p1216
aag469
ag471
ag473
a(lp1217
I7
ag1216
aag476
ag478
ag479
ag480
a(lp1218
I12
ag1216
aag484
ag486
ag488
ag490
ag492
ag493
ag495
ag496
ag497
a(lp1219
I22
ag1216
aag501
ag502
a(lp1220
I25
ag1216
aag506
ag507
ag508
a(lp1221
I29
ag1216
aag511
ag512
ag513
a(lp1222
I33
ag1216
aag517
ag518
ag520
a(lp1223
I37
ag1216
aag523
ag524
ag525
ag526
ag527
ag528
ag530
ag531
ag532
ag534
ag535
ag536
ag537
ag538
a(lp1224
I54
ag1216
aag542
ag544
ag545
a(lp1225
I58
ag1216
aag548
ag549
ag550
a(lp1226
I62
ag1216
aag553
ag554
ag556
ag557
a(lp1227
I67
ag1216
aag560
ag562
ag564
a(lp1228
I71
ag1216
aag568
ag569
ag570
ag571
ag572
ag573
a(lp1229
I78
ag1216
aag577
a(lp1230
I80
ag1216
aag580
ag581
ag582
ag583
ag584
ag585
ag586
ag587
ag588
ag589
ag590
ag591
ag592
ag593
ag594
a(lp1231
I97
ag1216
aag597
ag598
ag599
ag600
ag601
ag602
ag603
ag604
a(lp1232
I106
ag1216
aag608
ag609
a(lp1233
I110
ag1216
aag612
ag614
ag615
ag616
ag617
ag618
a(lp1234
I119
ag1216
aa(lp1235
I122
ag1216
aag622
ag623
ag624
a(lp1236
I126
ag1216
aag628
ag629
ag630
ag632
a(lp1237
I131
ag1216
aag636
ag637
a(lp1238
I134
ag1216
aag640
ag641
ag642
ag643
a(lp1239
I139
ag1216
aag647
ag648
ag649
a(lp1240
I143
ag1216
aag652
ag653
ag654
ag655
a(lp1241
I148
ag1216
aag659
ag660
a(lp1242
I151
ag1216
aag664
ag665
ag666
ag667
a(lp1243
I156
ag1216
aag671
ag672
ag674
a(lp1244
I160
ag1216
aag677
ag678
ag679
ag680
ag681
ag682
a(lp1245
I168
ag1216
aag686
ag687
a(lp1246
I171
ag1216
aag690
ag691
ag692
ag693
ag694
ag695
ag696
a(lp1247
I179
ag1216
aag700
ag701
ag702
a(lp1248
I183
ag1216
aag705
ag706
ag707
ag708
ag709
a(lp1249
I189
ag1216
aag712
ag713
ag714
ag715
ag716
ag717
ag718
a(lp1250
I197
ag1216
aag722
ag723
a(lp1251
I200
ag1216
aag726
ag727
ag728
ag729
ag730
ag731
a(lp1252
I207
ag1216
aag735
ag736
ag737
ag738
a(lp1253
I212
ag1216
aag742
ag744
a(lp1254
I215
ag1216
aag747
ag748
ag749
ag750
ag751
ag752
ag753
ag754
ag755
ag756
a(lp1255
I226
ag1216
aag760
ag761
ag762
a(lp1256
I230
ag1216
aag765
a(lp1257
I232
ag1216
aag768
ag769
ag770
ag771
ag772
a(lp1258
I238
ag1216
aag775
ag776
ag777
ag778
ag779
ag780
a(lp1259
I245
ag1216
aag784
ag785
a(lp1260
I248
ag1216
aag789
ag790
ag791
ag792
a(lp1261
I253
ag1216
aag795
ag796
ag797
ag798
ag799
ag800
ag801
ag802
ag803
ag804
ag805
ag806
a(lp1262
I268
ag1216
aag809
ag810
ag811
ag812
ag813
a(lp1263
I274
ag1216
aag817
ag818
ag819
ag820
ag821
a(lp1264
I280
ag1216
aag825
ag826
ag827
a(lp1265
I284
ag1216
aag831
ag832
a(lp1266
I287
ag1216
aag835
ag836
ag837
ag838
ag839
ag840
ag841
ag842
ag843
ag844
ag845
ag846
ag847
ag848
a(lp1267
I303
ag1216
aag851
ag852
ag853
ag854
ag855
ag856
ag857
a(lp1268
I312
ag1216
aag860
ag861
ag862
ag863
ag864
ag865
ag866
ag867
a(lp1269
I321
ag1216
aag871
ag872
a(lp1270
I324
ag1216
aag876
ag877
ag878
ag879
ag880
a(lp1271
I330
ag1216
aag883
ag884
ag885
ag886
ag887
ag888
ag889
ag890
ag891
ag892
ag893
ag894
ag895
a(lp1272
I345
ag1216
aag898
ag899
ag900
ag901
ag902
ag903
ag904
a(lp1273
I354
ag1216
aag908
ag909
ag910
a(lp1274
I358
ag1216
aag913
ag914
ag915
ag917
a(lp1275
I363
ag1216
aag920
ag921
ag922
ag923
ag924
ag925
ag926
a(lp1276
I371
ag1216
aag929
ag930
ag931
ag932
a(lp1277
I376
ag1216
aag935
ag936
ag937
ag938
ag939
ag940
ag941
ag942
ag943
a(lp1278
I387
ag1216
aag947
ag948
ag949
ag950
a(lp1279
I392
ag1216
aag953
ag954
ag955
ag956
ag957
a(lp1280
I398
ag1216
aag961
ag962
ag963
a(lp1281
I402
ag1216
aag967
ag968
ag969
ag970
a(lp1282
I407
ag1216
aag973
ag974
ag975
ag976
ag978
ag979
ag980
a(lp1283
I415
ag1216
aag983
ag984
ag985
ag986
ag987
a(lp1284
I422
ag1216
aag991
ag992
ag993
a(lp1285
I426
ag1216
aag997
ag998
ag999
ag1000
a(lp1286
I431
ag1216
aag1003
ag1004
ag1005
ag1006
ag1007
a(lp1287
I437
ag1216
aag1011
ag1012
a(lp1288
I440
ag1216
aag1015
ag1016
ag1017
ag1018
ag1019
ag1020
ag1021
ag1022
ag1023
ag1024
a(lp1289
I451
ag1216
aag1028
ag1029
ag1030
ag1031
a(lp1290
I456
ag1216
aag1034
ag1035
ag1036
ag1037
a(lp1291
I461
ag1216
aag1041
ag1042
a(lp1292
I464
ag1216
aag1045
ag1046
ag1047
ag1048
a(lp1293
I470
ag1216
aag1052
ag1053
ag1054
ag1055
a(lp1294
I475
ag1216
aag1058
a(lp1295
I477
ag1216
aag1061
ag1062
ag1063
ag1064
ag1065
ag1066
ag1067
ag1068
ag1069
ag1070
a(lp1296
I488
ag1216
aag1074
ag1075
a(lp1297
I491
ag1216
aag1078
ag1079
ag1080
ag1081
a(lp1298
I496
ag1216
aag1085
ag1086
a(lp1299
I499
ag1216
aag1090
ag1091
ag1092
a(lp1300
I503
ag1216
aag1095
ag1096
ag1097
a(lp1301
I507
ag1216
aag1100
a(lp1302
I509
ag1216
aag1103
ag1104
ag1105
ag1106
ag1107
ag1108
ag1109
ag1110
ag1111
ag1112
a(lp1303
I520
ag1216
aag1116
ag1117
a(lp1304
I523
ag1216
aag1120
ag1121
ag1122
ag1123
ag1124
a(lp1305
I529
ag1216
aag1128
ag1129
ag1130
a(lp1306
I533
ag1216
aag1133
ag1134
ag1135
ag1136
ag1137
ag1138
a(lp1307
I540
ag1216
aag1142
ag1143
a(lp1308
I543
ag1216
aag1146
a(lp1309
I545
ag1216
aag1149
ag1150
ag1151
ag1152
ag1153
ag1154
ag1155
a(lp1310
I554
ag1216
aag1158
ag1159
ag1160
ag1161
ag1162
a(lp1311
I560
ag1216
aag1166
ag1167
ag1168
ag1169
a(lp1312
I565
ag1216
aag1172
ag1173
ag1174
ag1175
a(lp1313
I570
ag1216
aag1178
ag1179
ag1180
ag1181
ag1182
ag1183
ag1184
ag1185
ag1186
a(lp1314
I581
ag1216
aag1190
ag1191
ag1192
a(lp1315
I585
ag1216
aag1196
ag1197
a(lp1316
I588
ag1216
aag1201
ag1202
ag1203
a(lp1317
I592
ag1216
aag1206
ag1207
ag1208
ag1209
ag1210
ag1211
ag1212
asS'text'
p1318
S'not all math questions on the sat are multiple-choice. for one type \xe2\x80\x94 called a student-produced response (or grid-in) -- you have to find and fill in your own answer. no penalty for wrong answers no points will be subtracted for a wrong answer to this question-type, since there are no multiple-choice options. compared to other question-types grid-ins are like regular math questions. they cover the same subject areas, and they range in difficulty from easy to hard. have a calculator on hand if you use a calculator to solve the answer to a problem, check your work carefully. how do you prepare?'
p1319
sS'cleanWordMap'
p1320
(lp1321
g474
ag482
ag509
ag521
ag546
ag551
ag558
ag566
ag578
ag595
ag610
ag638
ag650
ag675
ag688
ag703
ag710
ag724
ag745
ag766
ag773
ag793
ag807
ag833
ag849
ag858
ag881
ag896
ag911
ag918
ag927
ag933
ag951
ag971
ag981
ag1001
ag1013
ag1032
ag1043
ag1059
ag1076
ag1093
ag1101
ag1118
ag1131
ag1147
ag1156
ag1170
ag1176
ag1204
asS'lines'
p1322
(lp1323
VNot all math questions on the SAT are multiple-choice. For one type \u2014 called a student-produced response (or grid-in) -- you have to find and fill in your own answer.\u000a
p1324
aVNo Penalty for Wrong Answers\u000a
p1325
aVNo points will be subtracted for a wrong answer to this question-type, since there are no multiple-choice options.\u000a
p1326
aVCompared to Other Question-Types\u000a
p1327
aVGrid-ins are like regular math questions. They cover the same subject areas, and they range in difficulty from easy to hard.\u000a
p1328
aVHave a Calculator on Hand\u000a
p1329
aVIf you use a calculator to solve the answer to a problem, check your work carefully.\u000a
p1330
aVHow Do You Prepare?
p1331
asS'docType'
p1332
S'src'
p1333
sS'newfmap'
p1334
(lp1335
g4
ag8
ag10
ag12
ag14
ag17
ag19
ag21
ag23
ag26
ag28
ag30
ag32
ag35
ag37
ag39
ag41
ag44
ag46
ag48
ag50
ag53
ag55
ag57
ag59
ag62
ag64
ag66
ag68
ag71
ag73
ag75
ag77
ag80
ag82
ag84
ag86
ag89
ag91
ag93
ag95
ag98
ag100
ag102
ag104
ag107
ag109
ag111
ag113
ag116
ag118
ag120
ag122
ag125
ag127
ag129
ag131
ag134
ag136
ag138
ag140
ag143
ag145
ag147
ag149
ag152
ag154
ag156
ag158
ag161
ag163
ag165
ag167
ag170
ag172
ag174
ag176
ag179
ag181
ag183
ag185
ag188
ag190
ag192
ag194
ag197
ag199
ag201
ag203
ag206
ag208
ag210
ag212
ag215
ag217
ag219
ag221
ag224
ag226
ag228
ag230
ag233
ag235
ag237
ag239
ag242
ag244
ag246
ag248
ag251
ag253
ag255
ag257
ag260
ag262
ag264
ag266
ag269
ag271
ag273
ag275
ag278
ag280
ag282
ag284
ag287
ag289
ag291
ag293
ag296
ag298
ag300
ag302
ag305
ag307
ag309
ag311
ag314
ag316
ag318
ag320
ag323
ag325
ag327
ag329
ag332
ag334
ag336
ag338
ag341
ag343
ag345
ag347
ag350
ag352
ag354
ag356
ag359
ag361
ag363
ag365
ag368
ag370
ag372
ag374
ag377
ag379
ag381
ag383
ag386
ag388
ag390
ag392
ag395
ag397
ag399
ag401
ag404
ag406
ag408
ag410
ag413
ag415
ag417
ag419
ag422
ag424
ag426
ag428
ag431
ag433
ag435
ag437
ag440
ag442
ag444
ag446
ag449
ag451
ag453
asS'featureMap'
p1336
(lp1337
(lp1338
I8
aI11
ag5
ag6
ag9
ag11
ag13
aa(lp1339
I13
aI21
ag15
ag16
ag18
ag20
ag22
aa(lp1340
I30
aI32
ag24
ag25
ag27
ag29
ag31
aa(lp1341
I38
aI52
ag33
ag34
ag36
ag38
ag40
aa(lp1342
I59
aI61
ag42
ag43
ag45
ag47
ag49
aa(lp1343
I63
aI66
ag51
ag52
ag54
ag56
ag58
aa(lp1344
I68
aI70
ag60
ag61
ag63
ag65
ag67
aa(lp1345
I72
aI77
ag69
ag70
ag72
ag74
ag76
aa(lp1346
I81
aI96
ag78
ag79
ag81
ag83
ag85
aa(lp1347
I98
aI105
ag87
ag88
ag90
ag92
ag94
aa(lp1348
I111
aI117
ag96
ag97
ag99
ag101
ag103
aa(lp1349
I135
aI138
ag105
ag106
ag108
ag110
ag112
aa(lp1350
I144
aI147
ag114
ag115
ag117
ag119
ag121
aa(lp1351
I161
aI166
ag123
ag124
ag126
ag128
ag130
aa(lp1352
I172
aI178
ag132
ag133
ag135
ag137
ag139
aa(lp1353
I184
aI188
ag141
ag142
ag144
ag146
ag148
aa(lp1354
I190
aI196
ag150
ag151
ag153
ag155
ag157
aa(lp1355
I201
aI206
ag159
ag160
ag162
ag164
ag166
aa(lp1356
I216
aI225
ag168
ag169
ag171
ag173
ag175
aa(lp1357
I233
aI237
ag177
ag178
ag180
ag182
ag184
aa(lp1358
I239
aI244
ag186
ag187
ag189
ag191
ag193
aa(lp1359
I254
aI266
ag195
ag196
ag198
ag200
ag202
aa(lp1360
I269
aI273
ag204
ag205
ag207
ag209
ag211
aa(lp1361
I288
aI302
ag213
ag214
ag216
ag218
ag220
aa(lp1362
I304
aI310
ag222
ag223
ag225
ag227
ag229
aa(lp1363
I313
aI320
ag231
ag232
ag234
ag236
ag238
aa(lp1364
I331
aI344
ag240
ag241
ag243
ag245
ag247
aa(lp1365
I346
aI353
ag249
ag250
ag252
ag254
ag256
aa(lp1366
I359
aI362
ag258
ag259
ag261
ag263
ag265
aa(lp1367
I364
aI370
ag267
ag268
ag270
ag272
ag274
aa(lp1368
I372
aI375
ag276
ag277
ag279
ag281
ag283
aa(lp1369
I377
aI385
ag285
ag286
ag288
ag290
ag292
aa(lp1370
I393
aI397
ag294
ag295
ag297
ag299
ag301
aa(lp1371
I408
aI414
ag303
ag304
ag306
ag308
ag310
aa(lp1372
I416
aI420
ag312
ag313
ag315
ag317
ag319
aa(lp1373
I432
aI436
ag321
ag322
ag324
ag326
ag328
aa(lp1374
I441
aI450
ag330
ag331
ag333
ag335
ag337
aa(lp1375
I457
aI460
ag339
ag340
ag342
ag344
ag346
aa(lp1376
I465
aI468
ag348
ag349
ag351
ag353
ag355
aa(lp1377
I478
aI487
ag357
ag358
ag360
ag362
ag364
aa(lp1378
I492
aI495
ag366
ag367
ag369
ag371
ag373
aa(lp1379
I504
aI506
ag375
ag376
ag378
ag380
ag382
aa(lp1380
I510
aI519
ag384
ag385
ag387
ag389
ag391
aa(lp1381
I524
aI528
ag393
ag394
ag396
ag398
ag400
aa(lp1382
I534
aI539
ag402
ag403
ag405
ag407
ag409
aa(lp1383
I546
aI552
ag411
ag412
ag414
ag416
ag418
aa(lp1384
I555
aI559
ag420
ag421
ag423
ag425
ag427
aa(lp1385
I566
aI569
ag429
ag430
ag432
ag434
ag436
aa(lp1386
I571
aI579
ag438
ag439
ag441
ag443
ag445
aa(lp1387
I589
aI591
ag447
ag448
ag450
ag452
ag454
aasS'characterMap'
p1388
(lp1389
g460
ag462
ag464
ag1215
ag469
ag471
ag473
ag1217
ag476
ag478
ag479
ag480
ag1218
ag484
ag486
ag488
ag490
ag492
ag493
ag495
ag496
ag497
ag1219
ag501
ag502
ag1220
ag506
ag507
ag508
ag1221
ag511
ag512
ag513
ag1222
ag517
ag518
ag520
ag1223
ag523
ag524
ag525
ag526
ag527
ag528
ag530
ag531
a(lp1390
I46
aS'-'
p1391
aag532
ag534
ag535
ag536
ag537
ag538
a(lp1392
I53
aS'.'
p1393
aag1224
ag542
ag544
ag545
ag1225
ag548
ag549
ag550
ag1226
ag553
ag554
ag556
ag557
ag1227
ag560
ag562
ag564
ag1228
ag568
ag569
ag570
ag571
ag572
ag573
ag1229
ag577
ag1230
ag580
ag581
ag582
ag583
ag584
ag585
ag586
a(lp1394
I88
ag1391
aag587
ag588
ag589
ag590
ag591
ag592
ag593
ag594
ag1231
ag597
ag598
ag599
ag600
ag601
ag602
ag603
ag604
ag1232
a(lp1395
I107
aS'('
p1396
aag608
ag609
ag1233
ag612
ag614
ag615
ag616
a(lp1397
I115
ag1391
aag617
ag618
a(lp1398
I118
aS')'
p1399
aag1234
a(lp1400
I120
ag1391
aa(lp1401
I121
ag1391
aag1235
ag622
ag623
ag624
ag1236
ag628
ag629
ag630
ag632
ag1237
ag636
ag637
ag1238
ag640
ag641
ag642
ag643
ag1239
ag647
ag648
ag649
ag1240
ag652
ag653
ag654
ag655
ag1241
ag659
ag660
ag1242
ag664
ag665
ag666
ag667
ag1243
ag671
ag672
ag674
ag1244
ag677
ag678
ag679
ag680
ag681
ag682
a(lp1402
I167
ag1393
aag1245
ag686
ag687
ag1246
ag690
ag691
ag692
ag693
ag694
ag695
ag696
ag1247
ag700
ag701
ag702
ag1248
ag705
ag706
ag707
ag708
ag709
ag1249
ag712
ag713
ag714
ag715
ag716
ag717
ag718
ag1250
ag722
ag723
ag1251
ag726
ag727
ag728
ag729
ag730
ag731
ag1252
ag735
ag736
ag737
ag738
ag1253
ag742
ag744
ag1254
ag747
ag748
ag749
ag750
ag751
ag752
ag753
ag754
ag755
ag756
ag1255
ag760
ag761
ag762
ag1256
ag765
ag1257
ag768
ag769
ag770
ag771
ag772
ag1258
ag775
ag776
ag777
ag778
ag779
ag780
ag1259
ag784
ag785
ag1260
ag789
ag790
ag791
ag792
ag1261
ag795
ag796
ag797
ag798
ag799
ag800
ag801
ag802
a(lp1403
I262
ag1391
aag803
ag804
ag805
ag806
a(lp1404
I267
aS','
p1405
aag1262
ag809
ag810
ag811
ag812
ag813
ag1263
ag817
ag818
ag819
ag820
ag821
ag1264
ag825
ag826
ag827
ag1265
ag831
ag832
ag1266
ag835
ag836
ag837
ag838
ag839
ag840
ag841
ag842
a(lp1406
I296
ag1391
aag843
ag844
ag845
ag846
ag847
ag848
ag1267
ag851
ag852
ag853
ag854
ag855
ag856
ag857
a(lp1407
I311
ag1393
aag1268
ag860
ag861
ag862
ag863
ag864
ag865
ag866
ag867
ag1269
ag871
ag872
ag1270
ag876
ag877
ag878
ag879
ag880
ag1271
ag883
ag884
ag885
ag886
ag887
ag888
ag889
ag890
a(lp1408
I339
ag1391
aag891
ag892
ag893
ag894
ag895
ag1272
ag898
ag899
ag900
ag901
a(lp1409
I350
ag1391
aag902
ag903
ag904
ag1273
ag908
ag909
ag910
ag1274
ag913
ag914
ag915
ag917
ag1275
ag920
ag921
ag922
ag923
ag924
ag925
ag926
ag1276
ag929
ag930
ag931
ag932
ag1277
ag935
ag936
ag937
ag938
ag939
ag940
ag941
ag942
ag943
a(lp1410
I386
ag1393
aag1278
ag947
ag948
ag949
ag950
ag1279
ag953
ag954
ag955
ag956
ag957
ag1280
ag961
ag962
ag963
ag1281
ag967
ag968
ag969
ag970
ag1282
ag973
ag974
ag975
ag976
ag978
ag979
ag980
ag1283
ag983
ag984
ag985
ag986
ag987
a(lp1411
I421
ag1405
aag1284
ag991
ag992
ag993
ag1285
ag997
ag998
ag999
ag1000
ag1286
ag1003
ag1004
ag1005
ag1006
ag1007
ag1287
ag1011
ag1012
ag1288
ag1015
ag1016
ag1017
ag1018
ag1019
ag1020
ag1021
ag1022
ag1023
ag1024
ag1289
ag1028
ag1029
ag1030
ag1031
ag1290
ag1034
ag1035
ag1036
ag1037
ag1291
ag1041
ag1042
ag1292
ag1045
ag1046
ag1047
ag1048
a(lp1412
I469
ag1393
aag1293
ag1052
ag1053
ag1054
ag1055
ag1294
ag1058
ag1295
ag1061
ag1062
ag1063
ag1064
ag1065
ag1066
ag1067
ag1068
ag1069
ag1070
ag1296
ag1074
ag1075
ag1297
ag1078
ag1079
ag1080
ag1081
ag1298
ag1085
ag1086
ag1299
ag1090
ag1091
ag1092
ag1300
ag1095
ag1096
ag1097
ag1301
ag1100
ag1302
ag1103
ag1104
ag1105
ag1106
ag1107
ag1108
ag1109
ag1110
ag1111
ag1112
ag1303
ag1116
ag1117
ag1304
ag1120
ag1121
ag1122
ag1123
ag1124
ag1305
ag1128
ag1129
ag1130
ag1306
ag1133
ag1134
ag1135
ag1136
ag1137
ag1138
ag1307
ag1142
ag1143
ag1308
ag1146
ag1309
ag1149
ag1150
ag1151
ag1152
ag1153
ag1154
ag1155
a(lp1413
I553
ag1405
aag1310
ag1158
ag1159
ag1160
ag1161
ag1162
ag1311
ag1166
ag1167
ag1168
ag1169
ag1312
ag1172
ag1173
ag1174
ag1175
ag1313
ag1178
ag1179
ag1180
ag1181
ag1182
ag1183
ag1184
ag1185
ag1186
a(lp1414
I580
ag1393
aag1314
ag1190
ag1191
ag1192
ag1315
ag1196
ag1197
ag1316
ag1201
ag1202
ag1203
ag1317
ag1206
ag1207
ag1208
ag1209
ag1210
ag1211
ag1212
a(lp1415
I600
aS'?'
p1416
aasS'docName'
p1417
S'source-document00946.txt'
p1418
sb.