(iModel.Document
Document
p0
(dp1
S'fmap'
p2
(lp3
(lp4
I0
aI7
aS'attitude'
p5
a(lp6
S'*'
p7
ag5
aaa(lp8
I0
aI7
ag5
a(lp9
g7
ag5
aaa(lp10
I0
aI7
ag5
a(lp11
g7
ag5
aaa(lp12
I0
aI7
ag5
a(lp13
g7
ag5
aaa(lp14
I10
aI14
aS'chloe'
p15
a(lp16
g5
ag15
aaa(lp17
I10
aI14
ag15
a(lp18
g7
ag15
aaa(lp19
I10
aI14
ag15
a(lp20
g7
ag15
aaa(lp21
I10
aI14
ag15
a(lp22
g7
ag15
aaa(lp23
I16
aI21
aS'cracks'
p24
a(lp25
g15
ag24
aaa(lp26
I16
aI21
ag24
a(lp27
g5
ag24
aaa(lp28
I16
aI21
ag24
a(lp29
g7
ag24
aaa(lp30
I16
aI21
ag24
a(lp31
g7
ag24
aaa(lp32
I30
aI33
aS'last'
p33
a(lp34
g24
ag33
aaa(lp35
I30
aI33
ag33
a(lp36
g15
ag33
aaa(lp37
I30
aI33
ag33
a(lp38
g5
ag33
aaa(lp39
I30
aI33
ag33
a(lp40
g7
ag33
aaa(lp41
I35
aI39
aS'night'
p42
a(lp43
g33
ag42
aaa(lp44
I35
aI39
ag42
a(lp45
g24
ag42
aaa(lp46
I35
aI39
ag42
a(lp47
g15
ag42
aaa(lp48
I35
aI39
ag42
a(lp49
g5
ag42
aaa(lp50
I45
aI48
aS'like'
p51
a(lp52
g42
ag51
aaa(lp53
I45
aI48
ag51
a(lp54
g33
ag51
aaa(lp55
I45
aI48
ag51
a(lp56
g24
ag51
aaa(lp57
I45
aI48
ag51
a(lp58
g15
ag51
aaa(lp59
I50
aI53
aS'many'
p60
a(lp61
g51
ag60
aaa(lp62
I50
aI53
ag60
a(lp63
g42
ag60
aaa(lp64
I50
aI53
ag60
a(lp65
g33
ag60
aaa(lp66
I50
aI53
ag60
a(lp67
g24
ag60
aaa(lp68
I55
aI60
aS'nights'
p69
a(lp70
g60
ag69
aaa(lp71
I55
aI60
ag69
a(lp72
g51
ag69
aaa(lp73
I55
aI60
ag69
a(lp74
g42
ag69
aaa(lp75
I55
aI60
ag69
a(lp76
g33
ag69
aaa(lp77
I71
aI75
aS'blake'
p78
a(lp79
g69
ag78
aaa(lp80
I71
aI75
ag78
a(lp81
g60
ag78
aaa(lp82
I71
aI75
ag78
a(lp83
g51
ag78
aaa(lp84
I71
aI75
ag78
a(lp85
g42
ag78
aaa(lp86
I77
aI80
aS'goes'
p87
a(lp88
g78
ag87
aaa(lp89
I77
aI80
ag87
a(lp90
g69
ag87
aaa(lp91
I77
aI80
ag87
a(lp92
g60
ag87
aaa(lp93
I77
aI80
ag87
a(lp94
g51
ag87
aaa(lp95
I85
aI87
aS'bed'
p96
a(lp97
g87
ag96
aaa(lp98
I85
aI87
ag96
a(lp99
g78
ag96
aaa(lp100
I85
aI87
ag96
a(lp101
g69
ag96
aaa(lp102
I85
aI87
ag96
a(lp103
g60
ag96
aaa(lp104
I121
aI124
aS'much'
p105
a(lp106
g96
ag105
aaa(lp107
I121
aI124
ag105
a(lp108
g87
ag105
aaa(lp109
I121
aI124
ag105
a(lp110
g78
ag105
aaa(lp111
I121
aI124
ag105
a(lp112
g69
ag105
aaa(lp113
I126
aI132
aS'earlier'
p114
a(lp115
g105
ag114
aaa(lp116
I126
aI132
ag114
a(lp117
g96
ag114
aaa(lp118
I126
aI132
ag114
a(lp119
g87
ag114
aaa(lp120
I126
aI132
ag114
a(lp121
g78
ag114
aaa(lp122
I135
aI143
aS'sometimes'
p123
a(lp124
g114
ag123
aaa(lp125
I135
aI143
ag123
a(lp126
g105
ag123
aaa(lp127
I135
aI143
ag123
a(lp128
g96
ag123
aaa(lp129
I135
aI143
ag123
a(lp130
g87
ag123
aaa(lp131
I145
aI149
aS'chloe'
p132
a(lp133
g123
ag132
aaa(lp134
I145
aI149
ag132
a(lp135
g114
ag132
aaa(lp136
I145
aI149
ag132
a(lp137
g105
ag132
aaa(lp138
I145
aI149
ag132
a(lp139
g96
ag132
aaa(lp140
I156
aI157
aS'go'
p141
a(lp142
g132
ag141
aaa(lp143
I156
aI157
ag141
a(lp144
g123
ag141
aaa(lp145
I156
aI157
ag141
a(lp146
g114
ag141
aaa(lp147
I156
aI157
ag141
a(lp148
g105
ag141
aaa(lp149
I172
aI175
aS'last'
p150
a(lp151
g141
ag150
aaa(lp152
I172
aI175
ag150
a(lp153
g132
ag150
aaa(lp154
I172
aI175
ag150
a(lp155
g123
ag150
aaa(lp156
I172
aI175
ag150
a(lp157
g114
ag150
aaa(lp158
I177
aI181
aS'night'
p159
a(lp160
g150
ag159
aaa(lp161
I177
aI181
ag159
a(lp162
g141
ag159
aaa(lp163
I177
aI181
ag159
a(lp164
g132
ag159
aaa(lp165
I177
aI181
ag159
a(lp166
g123
ag159
aaa(lp167
I187
aI192
aS'stayed'
p168
a(lp169
g159
ag168
aaa(lp170
I187
aI192
ag168
a(lp171
g150
ag168
aaa(lp172
I187
aI192
ag168
a(lp173
g141
ag168
aaa(lp174
I187
aI192
ag168
a(lp175
g132
ag168
aaa(lp176
I207
aI210
aS'made'
p177
a(lp178
g168
ag177
aaa(lp179
I207
aI210
ag177
a(lp180
g159
ag177
aaa(lp181
I207
aI210
ag177
a(lp182
g150
ag177
aaa(lp183
I207
aI210
ag177
a(lp184
g141
ag177
aaa(lp185
I215
aI219
aS'clear'
p186
a(lp187
g177
ag186
aaa(lp188
I215
aI219
ag186
a(lp189
g168
ag186
aaa(lp190
I215
aI219
ag186
a(lp191
g159
ag186
aaa(lp192
I215
aI219
ag186
a(lp193
g150
ag186
aaa(lp194
I230
aI237
aS'didn\xe2\x80\x99t'
p195
a(lp196
g186
ag195
aaa(lp197
I230
aI237
ag195
a(lp198
g177
ag195
aaa(lp199
I230
aI237
ag195
a(lp200
g168
ag195
aaa(lp201
I230
aI237
ag195
a(lp202
g159
ag195
aaa(lp203
I239
aI242
aS'want'
p204
a(lp205
g195
ag204
aaa(lp206
I239
aI242
ag204
a(lp207
g186
ag204
aaa(lp208
I239
aI242
ag204
a(lp209
g177
ag204
aaa(lp210
I239
aI242
ag204
a(lp211
g168
ag204
aaa(lp212
I247
aI250
aS'stay'
p213
a(lp214
g204
ag213
aaa(lp215
I247
aI250
ag213
a(lp216
g195
ag213
aaa(lp217
I247
aI250
ag213
a(lp218
g186
ag213
aaa(lp219
I247
aI250
ag213
a(lp220
g177
ag213
aaa(lp221
I260
aI265
aS'though'
p222
a(lp223
g213
ag222
aaa(lp224
I260
aI265
ag222
a(lp225
g204
ag222
aaa(lp226
I260
aI265
ag222
a(lp227
g195
ag222
aaa(lp228
I260
aI265
ag222
a(lp229
g186
ag222
aaa(lp230
I272
aI275
aS'kept'
p231
a(lp232
g222
ag231
aaa(lp233
I272
aI275
ag231
a(lp234
g213
ag231
aaa(lp235
I272
aI275
ag231
a(lp236
g204
ag231
aaa(lp237
I272
aI275
ag231
a(lp238
g195
ag231
aaa(lp239
I277
aI281
aS'going'
p240
a(lp241
g231
ag240
aaa(lp242
I277
aI281
ag240
a(lp243
g222
ag240
aaa(lp244
I277
aI281
ag240
a(lp245
g213
ag240
aaa(lp246
I277
aI281
ag240
a(lp247
g204
ag240
aaa(lp248
I290
aI296
aS'bedroom'
p249
a(lp250
g240
ag249
aaa(lp251
I290
aI296
ag249
a(lp252
g231
ag249
aaa(lp253
I290
aI296
ag249
a(lp254
g222
ag249
aaa(lp255
I290
aI296
ag249
a(lp256
g213
ag249
aaa(lp257
I298
aI301
aS'door'
p258
a(lp259
g249
ag258
aaa(lp260
I298
aI301
ag258
a(lp261
g240
ag258
aaa(lp262
I298
aI301
ag258
a(lp263
g231
ag258
aaa(lp264
I298
aI301
ag258
a(lp265
g222
ag258
aaa(lp266
I307
aI313
aS'whining'
p267
a(lp268
g258
ag267
aaa(lp269
I307
aI313
ag267
a(lp270
g249
ag267
aaa(lp271
I307
aI313
ag267
a(lp272
g240
ag267
aaa(lp273
I307
aI313
ag267
a(lp274
g231
ag267
aaa(lp275
I320
aI326
aS'running'
p276
a(lp277
g267
ag276
aaa(lp278
I320
aI326
ag276
a(lp279
g258
ag276
aaa(lp280
I320
aI326
ag276
a(lp281
g249
ag276
aaa(lp282
I320
aI326
ag276
a(lp283
g240
ag276
aaa(lp284
I328
aI331
aS'back'
p285
a(lp286
g276
ag285
aaa(lp287
I328
aI331
ag285
a(lp288
g267
ag285
aaa(lp289
I328
aI331
ag285
a(lp290
g258
ag285
aaa(lp291
I328
aI331
ag285
a(lp292
g249
ag285
aaa(lp293
I343
aI348
aS'poking'
p294
a(lp295
g285
ag294
aaa(lp296
I343
aI348
ag294
a(lp297
g276
ag294
aaa(lp298
I343
aI348
ag294
a(lp299
g267
ag294
aaa(lp300
I343
aI348
ag294
a(lp301
g258
ag294
aaa(lp302
I362
aI365
aS'nose'
p303
a(lp304
g294
ag303
aaa(lp305
I362
aI365
ag303
a(lp306
g285
ag303
aaa(lp307
I362
aI365
ag303
a(lp308
g276
ag303
aaa(lp309
I362
aI365
ag303
a(lp310
g267
ag303
aaa(lp311
I371
aI377
aS'finally'
p312
a(lp313
g303
ag312
aaa(lp314
I371
aI377
ag312
a(lp315
g294
ag312
aaa(lp316
I371
aI377
ag312
a(lp317
g285
ag312
aaa(lp318
I371
aI377
ag312
a(lp319
g276
ag312
aaa(lp320
I381
aI383
aS'let'
p321
a(lp322
g312
ag321
aaa(lp323
I381
aI383
ag321
a(lp324
g303
ag321
aaa(lp325
I381
aI383
ag321
a(lp326
g294
ag321
aaa(lp327
I381
aI383
ag321
a(lp328
g285
ag321
aaa(lp329
I396
aI399
aS'room'
p330
a(lp331
g321
ag330
aaa(lp332
I396
aI399
ag330
a(lp333
g312
ag330
aaa(lp334
I396
aI399
ag330
a(lp335
g303
ag330
aaa(lp336
I396
aI399
ag330
a(lp337
g294
ag330
aaa(lp338
I404
aI409
aS'really'
p339
a(lp340
g330
ag339
aaa(lp341
I404
aI409
ag339
a(lp342
g321
ag339
aaa(lp343
I404
aI409
ag339
a(lp344
g312
ag339
aaa(lp345
I404
aI409
ag339
a(lp346
g303
ag339
aaa(lp347
I411
aI418
aS'didn\xe2\x80\x99t'
p348
a(lp349
g339
ag348
aaa(lp350
I411
aI418
ag348
a(lp351
g330
ag348
aaa(lp352
I411
aI418
ag348
a(lp353
g321
ag348
aaa(lp354
I411
aI418
ag348
a(lp355
g312
ag348
aaa(lp356
I420
aI423
aS'want'
p357
a(lp358
g348
ag357
aaa(lp359
I420
aI423
ag357
a(lp360
g339
ag357
aaa(lp361
I420
aI423
ag357
a(lp362
g330
ag357
aaa(lp363
I420
aI423
ag357
a(lp364
g321
ag357
aaa(lp365
I436
aI438
aS'bed'
p366
a(lp367
g357
ag366
aaa(lp368
I436
aI438
ag366
a(lp369
g348
ag366
aaa(lp370
I436
aI438
ag366
a(lp371
g339
ag366
aaa(lp372
I436
aI438
ag366
a(lp373
g330
ag366
aaa(lp374
I446
aI448
aS'let'
p375
a(lp376
g366
ag375
aaa(lp377
I446
aI448
ag375
a(lp378
g357
ag375
aaa(lp379
I446
aI448
ag375
a(lp380
g348
ag375
aaa(lp381
I446
aI448
ag375
a(lp382
g339
ag375
aaa(lp383
I454
aI460
aS'snuggle'
p384
a(lp385
g375
ag384
aaa(lp386
I454
aI460
ag384
a(lp387
g366
ag384
aaa(lp388
I454
aI460
ag384
a(lp389
g357
ag384
aaa(lp390
I454
aI460
ag384
a(lp391
g348
ag384
aaa(lp392
I471
aI476
aS'anyway'
p393
a(lp394
g384
ag393
aaa(lp395
I471
aI476
ag393
a(lp396
g375
ag393
aaa(lp397
I471
aI476
ag393
a(lp398
g366
ag393
aaa(lp399
I471
aI476
ag393
a(lp400
g357
ag393
aaa(lp401
I503
aI510
aS'blankets'
p402
a(lp403
g393
ag402
aaa(lp404
I503
aI510
ag402
a(lp405
g384
ag402
aaa(lp406
I503
aI510
ag402
a(lp407
g375
ag402
aaa(lp408
I503
aI510
ag402
a(lp409
g366
ag402
aaa(lp410
I518
aI522
aS'happy'
p411
a(lp412
g402
ag411
aaa(lp413
I518
aI522
ag411
a(lp414
g393
ag411
aaa(lp415
I518
aI522
ag411
a(lp416
g384
ag411
aaa(lp417
I518
aI522
ag411
a(lp418
g375
ag411
aaa(lp419
I535
aI539
aS'funny'
p420
a(lp421
g411
ag420
aaa(lp422
I535
aI539
ag420
a(lp423
g402
ag420
aaa(lp424
I535
aI539
ag420
a(lp425
g393
ag420
aaa(lp426
I535
aI539
ag420
a(lp427
g384
ag420
aaa(lp428
I553
aI557
aS'ready'
p429
a(lp430
g420
ag429
aaa(lp431
I553
aI557
ag429
a(lp432
g411
ag429
aaa(lp433
I553
aI557
ag429
a(lp434
g402
ag429
aaa(lp435
I553
aI557
ag429
a(lp436
g393
ag429
aaa(lp437
I563
aI565
aS'bed'
p438
a(lp439
g429
ag438
aaa(lp440
I563
aI565
ag438
a(lp441
g420
ag438
aaa(lp442
I563
aI565
ag438
a(lp443
g411
ag438
aaa(lp444
I563
aI565
ag438
a(lp445
g402
ag438
aaa(lp446
I569
aI572
aS'came'
p447
a(lp448
g438
ag447
aaa(lp449
I569
aI572
ag447
a(lp450
g429
ag447
aaa(lp451
I569
aI572
ag447
a(lp452
g420
ag447
aaa(lp453
I569
aI572
ag447
a(lp454
g411
ag447
aaa(lp455
I581
aI584
aS'like'
p456
a(lp457
g447
ag456
aaa(lp458
I581
aI584
ag456
a(lp459
g438
ag456
aaa(lp460
I581
aI584
ag456
a(lp461
g429
ag456
aaa(lp462
I581
aI584
ag456
a(lp463
g420
ag456
aaa(lp464
I588
aI592
aS'meany'
p465
a(lp466
g456
ag465
aaa(lp467
I588
aI592
ag465
a(lp468
g447
ag465
aaa(lp469
I588
aI592
ag465
a(lp470
g438
ag465
aaa(lp471
I588
aI592
ag465
a(lp472
g429
ag465
aaa(lp473
I594
aI599
aS'kicked'
p474
a(lp475
g465
ag474
aaa(lp476
I594
aI599
ag474
a(lp477
g456
ag474
aaa(lp478
I594
aI599
ag474
a(lp479
g447
ag474
aaa(lp480
I594
aI599
ag474
a(lp481
g438
ag474
aaa(lp482
I616
aI618
aS'bed'
p483
a(lp484
g474
ag483
aaa(lp485
I616
aI618
ag483
a(lp486
g465
ag483
aaa(lp487
I616
aI618
ag483
a(lp488
g456
ag483
aaa(lp489
I616
aI618
ag483
a(lp490
g447
ag483
aaa(lp491
I625
aI629
aS'likes'
p492
a(lp493
g483
ag492
aaa(lp494
I625
aI629
ag492
a(lp495
g474
ag492
aaa(lp496
I625
aI629
ag492
a(lp497
g465
ag492
aaa(lp498
I625
aI629
ag492
a(lp499
g456
ag492
aaa(lp500
I634
aI641
aS'snunngle'
p501
a(lp502
g492
ag501
aaa(lp503
I634
aI641
ag501
a(lp504
g483
ag501
aaa(lp505
I634
aI641
ag501
a(lp506
g474
ag501
aaa(lp507
I634
aI641
ag501
a(lp508
g465
ag501
aaa(lp509
I646
aI650
aS'close'
p510
a(lp511
g501
ag510
aaa(lp512
I646
aI650
ag510
a(lp513
g492
ag510
aaa(lp514
I646
aI650
ag510
a(lp515
g483
ag510
aaa(lp516
I646
aI650
ag510
a(lp517
g474
ag510
aaa(lp518
I664
aI670
aS'can\xe2\x80\x99t'
p519
a(lp520
g510
ag519
aaa(lp521
I664
aI670
ag519
a(lp522
g501
ag519
aaa(lp523
I664
aI670
ag519
a(lp524
g492
ag519
aaa(lp525
I664
aI670
ag519
a(lp526
g483
ag519
aaa(lp527
I672
aI677
aS'handle'
p528
a(lp529
g519
ag528
aaa(lp530
I672
aI677
ag528
a(lp531
g510
ag528
aaa(lp532
I672
aI677
ag528
a(lp533
g501
ag528
aaa(lp534
I672
aI677
ag528
a(lp535
g492
ag528
aaa(lp536
I693
aI700
aS'pregnant'
p537
a(lp538
g528
ag537
aaa(lp539
I693
aI700
ag537
a(lp540
g519
ag537
aaa(lp541
I693
aI700
ag537
a(lp542
g510
ag537
aaa(lp543
I693
aI700
ag537
a(lp544
g501
ag537
aaa(lp545
I707
aI710
aS'gets'
p546
a(lp547
g537
ag546
aaa(lp548
I707
aI710
ag546
a(lp549
g528
ag546
aaa(lp550
I707
aI710
ag546
a(lp551
g519
ag546
aaa(lp552
I707
aI710
ag546
a(lp553
g510
ag546
aaa(lp554
I720
aI727
aS'attitude'
p555
a(lp556
g546
ag555
aaa(lp557
I720
aI727
ag555
a(lp558
g537
ag555
aaa(lp559
I720
aI727
ag555
a(lp560
g528
ag555
aaa(lp561
I720
aI727
ag555
a(lp562
g519
ag555
aaa(lp563
I746
aI751
aS'almost'
p564
a(lp565
g555
ag564
aaa(lp566
I746
aI751
ag564
a(lp567
g546
ag564
aaa(lp568
I746
aI751
ag564
a(lp569
g537
ag564
aaa(lp570
I746
aI751
ag564
a(lp571
g528
ag564
aaa(lp572
I753
aI757
aS'laugh'
p573
a(lp574
g564
ag573
aaa(lp575
I753
aI757
ag573
a(lp576
g555
ag573
aaa(lp577
I753
aI757
ag573
a(lp578
g546
ag573
aaa(lp579
I753
aI757
ag573
a(lp580
g537
ag573
aaa(lp581
I763
aI766
aS'load'
p582
a(lp583
g573
ag582
aaa(lp584
I763
aI766
ag582
a(lp585
g564
ag582
aaa(lp586
I763
aI766
ag582
a(lp587
g555
ag582
aaa(lp588
I763
aI766
ag582
a(lp589
g546
ag582
aaa(lp590
I778
aI781
aS'walk'
p591
a(lp592
g582
ag591
aaa(lp593
I778
aI781
ag591
a(lp594
g573
ag591
aaa(lp595
I778
aI781
ag591
a(lp596
g564
ag591
aaa(lp597
I778
aI781
ag591
a(lp598
g555
ag591
aaa(lp599
I791
aI794
aS'side'
p600
a(lp601
g591
ag600
aaa(lp602
I791
aI794
ag600
a(lp603
g582
ag600
aaa(lp604
I791
aI794
ag600
a(lp605
g573
ag600
aaa(lp606
I791
aI794
ag600
a(lp607
g564
ag600
aaa(lp608
I799
aI807
aS'blake\xe2\x80\x99s'
p609
a(lp610
g600
ag609
aaa(lp611
I799
aI807
ag609
a(lp612
g591
ag609
aaa(lp613
I799
aI807
ag609
a(lp614
g582
ag609
aaa(lp615
I799
aI807
ag609
a(lp616
g573
ag609
aaa(lp617
I809
aI812
aS'side'
p618
a(lp619
g609
ag618
aaa(lp620
I809
aI812
ag618
a(lp621
g600
ag618
aaa(lp622
I809
aI812
ag618
a(lp623
g591
ag618
aaa(lp624
I809
aI812
ag618
a(lp625
g582
ag618
aaa(lp626
I814
aI819
aS'trying'
p627
a(lp628
g618
ag627
aaa(lp629
I814
aI819
ag627
a(lp630
g609
ag627
aaa(lp631
I814
aI819
ag627
a(lp632
g600
ag627
aaa(lp633
I814
aI819
ag627
a(lp634
g591
ag627
aaa(lp635
I824
aI826
aS'get'
p636
a(lp637
g627
ag636
aaa(lp638
I824
aI826
ag636
a(lp639
g618
ag636
aaa(lp640
I824
aI826
ag636
a(lp641
g609
ag636
aaa(lp642
I824
aI826
ag636
a(lp643
g600
ag636
aaa(lp644
I828
aI831
aS'back'
p645
a(lp646
g636
ag645
aaa(lp647
I828
aI831
ag645
a(lp648
g627
ag645
aaa(lp649
I828
aI831
ag645
a(lp650
g618
ag645
aaa(lp651
I828
aI831
ag645
a(lp652
g609
ag645
aaa(lp653
I840
aI842
aS'bed'
p654
a(lp655
g645
ag654
aaa(lp656
I840
aI842
ag654
a(lp657
g636
ag654
aaa(lp658
I840
aI842
ag654
a(lp659
g627
ag654
aaa(lp660
I840
aI842
ag654
a(lp661
g618
ag654
aaa(lp662
I847
aI850
aS'tell'
p663
a(lp664
g654
ag663
aaa(lp665
I847
aI850
ag663
a(lp666
g645
ag663
aaa(lp667
I847
aI850
ag663
a(lp668
g636
ag663
aaa(lp669
I847
aI850
ag663
a(lp670
g627
ag663
aaa(lp671
I859
aI860
aS'go'
p672
a(lp673
g663
ag672
aaa(lp674
I859
aI860
ag672
a(lp675
g654
ag672
aaa(lp676
I859
aI860
ag672
a(lp677
g645
ag672
aaa(lp678
I859
aI860
ag672
a(lp679
g636
ag672
aaa(lp680
I862
aI864
aS'lay'
p681
a(lp682
g672
ag681
aaa(lp683
I862
aI864
ag681
a(lp684
g663
ag681
aaa(lp685
I862
aI864
ag681
a(lp686
g654
ag681
aaa(lp687
I862
aI864
ag681
a(lp688
g645
ag681
aaa(lp689
I879
aI885
aS'quickly'
p690
a(lp691
g681
ag690
aaa(lp692
I879
aI885
ag690
a(lp693
g672
ag690
aaa(lp694
I879
aI885
ag690
a(lp695
g663
ag690
aaa(lp696
I879
aI885
ag690
a(lp697
g654
ag690
aaa(lp698
I887
aI890
aS'runs'
p699
a(lp700
g690
ag699
aaa(lp701
I887
aI890
ag699
a(lp702
g681
ag699
aaa(lp703
I887
aI890
ag699
a(lp704
g672
ag699
aaa(lp705
I887
aI890
ag699
a(lp706
g663
ag699
aaa(lp707
I899
aI901
aS'bed'
p708
a(lp709
g699
ag708
aaa(lp710
I899
aI901
ag708
a(lp711
g690
ag708
aaa(lp712
I899
aI901
ag708
a(lp713
g681
ag708
aaa(lp714
I899
aI901
ag708
a(lp715
g672
ag708
aaa(lp716
I907
aI912
aS'starts'
p717
a(lp718
g708
ag717
aaa(lp719
I907
aI912
ag717
a(lp720
g699
ag717
aaa(lp721
I907
aI912
ag717
a(lp722
g690
ag717
aaa(lp723
I907
aI912
ag717
a(lp724
g681
ag717
aaa(lp725
I914
aI920
aS'kicking'
p726
a(lp727
g717
ag726
aaa(lp728
I914
aI920
ag726
a(lp729
g708
ag726
aaa(lp730
I914
aI920
ag726
a(lp731
g699
ag726
aaa(lp732
I914
aI920
ag726
a(lp733
g690
ag726
aaa(lp734
I925
aI930
aS'around'
p735
a(lp736
g726
ag735
aaa(lp737
I925
aI930
ag735
a(lp738
g717
ag735
aaa(lp739
I925
aI930
ag735
a(lp740
g708
ag735
aaa(lp741
I925
aI930
ag735
a(lp742
g699
ag735
aaa(lp743
I942
aI945
aS'huff'
p744
a(lp745
g735
ag744
aaa(lp746
I942
aI945
ag744
a(lp747
g726
ag744
aaa(lp748
I942
aI945
ag744
a(lp749
g717
ag744
aaa(lp750
I942
aI945
ag744
a(lp751
g708
ag744
aaa(lp752
I951
aI954
aS'puff'
p753
a(lp754
g744
ag753
aaa(lp755
I951
aI954
ag753
a(lp756
g735
ag753
aaa(lp757
I951
aI954
ag753
a(lp758
g726
ag753
aaa(lp759
I951
aI954
ag753
a(lp760
g717
ag753
aaa(lp761
I960
aI964
aS'throw'
p762
a(lp763
g753
ag762
aaa(lp764
I960
aI964
ag762
a(lp765
g744
ag762
aaa(lp766
I960
aI964
ag762
a(lp767
g735
ag762
aaa(lp768
I960
aI964
ag762
a(lp769
g726
ag762
aaa(lp770
I979
aI984
aS'really'
p771
a(lp772
g762
ag771
aaa(lp773
I979
aI984
ag771
a(lp774
g753
ag771
aaa(lp775
I979
aI984
ag771
a(lp776
g744
ag771
aaa(lp777
I979
aI984
ag771
a(lp778
g735
ag771
aaa(lp779
I986
aI991
aS'loudly'
p780
a(lp781
g771
ag780
aaa(lp782
I986
aI991
ag780
a(lp783
g762
ag780
aaa(lp784
I986
aI991
ag780
a(lp785
g753
ag780
aaa(lp786
I986
aI991
ag780
a(lp787
g744
ag780
aaa(lp788
I1003
aI1008
aS'starts'
p789
a(lp790
g780
ag789
aaa(lp791
I1003
aI1008
ag789
a(lp792
g771
ag789
aaa(lp793
I1003
aI1008
ag789
a(lp794
g762
ag789
aaa(lp795
I1003
aI1008
ag789
a(lp796
g753
ag789
aaa(lp797
I1010
aI1017
aS'groaning'
p798
a(lp799
g789
ag798
aaa(lp800
I1010
aI1017
ag798
a(lp801
g780
ag798
aaa(lp802
I1010
aI1017
ag798
a(lp803
g771
ag798
aaa(lp804
I1010
aI1017
ag798
a(lp805
g762
ag798
aaa(lp806
I1023
aI1029
aS'moaning'
p807
a(lp808
g798
ag807
aaa(lp809
I1023
aI1029
ag807
a(lp810
g789
ag807
aaa(lp811
I1023
aI1029
ag807
a(lp812
g780
ag807
aaa(lp813
I1023
aI1029
ag807
a(lp814
g771
ag807
aaa(lp815
I1031
aI1034
aS'like'
p816
a(lp817
g807
ag816
aaa(lp818
I1031
aI1034
ag816
a(lp819
g798
ag816
aaa(lp820
I1031
aI1034
ag816
a(lp821
g789
ag816
aaa(lp822
I1031
aI1034
ag816
a(lp823
g780
ag816
aaa(lp824
I1047
aI1052
aS'sooooo'
p825
a(lp826
g816
ag825
aaa(lp827
I1047
aI1052
ag825
a(lp828
g807
ag825
aaa(lp829
I1047
aI1052
ag825
a(lp830
g798
ag825
aaa(lp831
I1047
aI1052
ag825
a(lp832
g789
ag825
aaa(lp833
I1054
aI1061
aS'terrible'
p834
a(lp835
g825
ag834
aaa(lp836
I1054
aI1061
ag834
a(lp837
g816
ag834
aaa(lp838
I1054
aI1061
ag834
a(lp839
g807
ag834
aaa(lp840
I1054
aI1061
ag834
a(lp841
g798
ag834
aaa(lp842
I1074
aI1076
aS'lay'
p843
a(lp844
g834
ag843
aaa(lp845
I1074
aI1076
ag843
a(lp846
g825
ag843
aaa(lp847
I1074
aI1076
ag843
a(lp848
g816
ag843
aaa(lp849
I1074
aI1076
ag843
a(lp850
g807
ag843
aaa(lp851
I1086
aI1088
aS'big'
p852
a(lp853
g843
ag852
aaa(lp854
I1086
aI1088
ag852
a(lp855
g834
ag852
aaa(lp856
I1086
aI1088
ag852
a(lp857
g825
ag852
aaa(lp858
I1086
aI1088
ag852
a(lp859
g816
ag852
aaa(lp860
I1090
aI1093
aS'nice'
p861
a(lp862
g852
ag861
aaa(lp863
I1090
aI1093
ag861
a(lp864
g843
ag861
aaa(lp865
I1090
aI1093
ag861
a(lp866
g834
ag861
aaa(lp867
I1090
aI1093
ag861
a(lp868
g825
ag861
aaa(lp869
I1095
aI1097
aS'bed'
p870
a(lp871
g861
ag870
aaa(lp872
I1095
aI1097
ag870
a(lp873
g852
ag870
aaa(lp874
I1095
aI1097
ag870
a(lp875
g843
ag870
aaa(lp876
I1095
aI1097
ag870
a(lp877
g834
ag870
aaa(lp878
I1117
aI1119
aS'get'
p879
a(lp880
g870
ag879
aaa(lp881
I1117
aI1119
ag879
a(lp882
g861
ag879
aaa(lp883
I1117
aI1119
ag879
a(lp884
g852
ag879
aaa(lp885
I1117
aI1119
ag879
a(lp886
g843
ag879
aaa(lp887
I1128
aI1129
aS'go'
p888
a(lp889
g879
ag888
aaa(lp890
I1128
aI1129
ag888
a(lp891
g870
ag888
aaa(lp892
I1128
aI1129
ag888
a(lp893
g861
ag888
aaa(lp894
I1128
aI1129
ag888
a(lp895
g852
ag888
aaa(lp896
I1144
aI1150
aS'routine'
p897
a(lp898
g888
ag897
aaa(lp899
I1144
aI1150
ag897
a(lp900
g879
ag897
aaa(lp901
I1144
aI1150
ag897
a(lp902
g870
ag897
aaa(lp903
I1144
aI1150
ag897
a(lp904
g861
ag897
aaa(lp905
I1158
aI1162
aS'times'
p906
a(lp907
g897
ag906
aaa(lp908
I1158
aI1162
ag906
a(lp909
g888
ag906
aaa(lp910
I1158
aI1162
ag906
a(lp911
g879
ag906
aaa(lp912
I1158
aI1162
ag906
a(lp913
g870
ag906
aaa(lp914
I1180
aI1186
aS'finally'
p915
a(lp916
g906
ag915
aaa(lp917
I1180
aI1186
ag915
a(lp918
g897
ag915
aaa(lp919
I1180
aI1186
ag915
a(lp920
g888
ag915
aaa(lp921
I1180
aI1186
ag915
a(lp922
g879
ag915
aaa(lp923
I1188
aI1191
aS'give'
p924
a(lp925
g915
ag924
aaa(lp926
I1188
aI1191
ag924
a(lp927
g906
ag924
aaa(lp928
I1188
aI1191
ag924
a(lp929
g897
ag924
aaa(lp930
I1188
aI1191
ag924
a(lp931
g888
ag924
aaa(lp932
I1204
aI1209
aS'wonder'
p933
a(lp934
g924
ag933
aaa(lp935
I1204
aI1209
ag933
a(lp936
g915
ag933
aaa(lp937
I1204
aI1209
ag933
a(lp938
g906
ag933
aaa(lp939
I1204
aI1209
ag933
a(lp940
g897
ag933
aaa(lp941
I1227
aI1234
aS'attitude'
p942
a(lp943
g933
ag942
aaa(lp944
I1227
aI1234
ag942
a(lp945
g924
ag942
aaa(lp946
I1227
aI1234
ag942
a(lp947
g915
ag942
aaa(lp948
I1227
aI1234
ag942
a(lp949
g906
ag942
aaa(lp950
I1246
aI1250
aS'weims'
p951
a(lp952
g942
ag951
aaa(lp953
I1246
aI1250
ag951
a(lp954
g933
ag951
aaa(lp955
I1246
aI1250
ag951
a(lp956
g924
ag951
aaa(lp957
I1246
aI1250
ag951
a(lp958
g915
ag951
aaa(lp959
I1267
aI1275
aS'typically'
p960
a(lp961
g951
ag960
aaa(lp962
I1267
aI1275
ag960
a(lp963
g942
ag960
aaa(lp964
I1267
aI1275
ag960
a(lp965
g933
ag960
aaa(lp966
I1267
aI1275
ag960
a(lp967
g924
ag960
aaa(lp968
I1309
aI1311
aS'way'
p969
a(lp970
g960
ag969
aaa(lp971
I1309
aI1311
ag969
a(lp972
g951
ag969
aaa(lp973
I1309
aI1311
ag969
a(lp974
g942
ag969
aaa(lp975
I1309
aI1311
ag969
a(lp976
g933
ag969
aaa(lp977
I1317
aI1321
aS'gives'
p978
a(lp979
g969
ag978
aaa(lp980
I1317
aI1321
ag978
a(lp981
g960
ag978
aaa(lp982
I1317
aI1321
ag978
a(lp983
g951
ag978
aaa(lp984
I1317
aI1321
ag978
a(lp985
g942
ag978
aaa(lp986
I1323
aI1330
aS'attitude'
p987
a(lp988
g978
ag987
aaa(lp989
I1323
aI1330
ag987
a(lp990
g969
ag987
aaa(lp991
I1323
aI1330
ag987
a(lp992
g960
ag987
aaa(lp993
I1323
aI1330
ag987
a(lp994
g951
ag987
aaa(lp995
I1337
aI1340
aS'also'
p996
a(lp997
g987
ag996
aaa(lp998
I1337
aI1340
ag996
a(lp999
g978
ag996
aaa(lp1000
I1337
aI1340
ag996
a(lp1001
g969
ag996
aaa(lp1002
I1337
aI1340
ag996
a(lp1003
g960
ag996
aaa(lp1004
I1359
aI1363
aS'wants'
p1005
a(lp1006
g996
ag1005
aaa(lp1007
I1359
aI1363
ag1005
a(lp1008
g987
ag1005
aaa(lp1009
I1359
aI1363
ag1005
a(lp1010
g978
ag1005
aaa(lp1011
I1359
aI1363
ag1005
a(lp1012
g969
ag1005
aaa(lp1013
I1365
aI1369
aS'water'
p1014
a(lp1015
g1005
ag1014
aaa(lp1016
I1365
aI1369
ag1014
a(lp1017
g996
ag1014
aaa(lp1018
I1365
aI1369
ag1014
a(lp1019
g987
ag1014
aaa(lp1020
I1365
aI1369
ag1014
a(lp1021
g978
ag1014
aaa(lp1022
I1386
aI1387
aS'go'
p1023
a(lp1024
g1014
ag1023
aaa(lp1025
I1386
aI1387
ag1023
a(lp1026
g1005
ag1023
aaa(lp1027
I1386
aI1387
ag1023
a(lp1028
g996
ag1023
aaa(lp1029
I1386
aI1387
ag1023
a(lp1030
g987
ag1023
aaa(lp1031
I1399
aI1403
aS'empty'
p1032
a(lp1033
g1023
ag1032
aaa(lp1034
I1399
aI1403
ag1032
a(lp1035
g1014
ag1032
aaa(lp1036
I1399
aI1403
ag1032
a(lp1037
g1005
ag1032
aaa(lp1038
I1399
aI1403
ag1032
a(lp1039
g996
ag1032
aaa(lp1040
I1405
aI1408
aS'dish'
p1041
a(lp1042
g1032
ag1041
aaa(lp1043
I1405
aI1408
ag1041
a(lp1044
g1023
ag1041
aaa(lp1045
I1405
aI1408
ag1041
a(lp1046
g1014
ag1041
aaa(lp1047
I1405
aI1408
ag1041
a(lp1048
g1005
ag1041
aaa(lp1049
I1414
aI1418
aS'smack'
p1050
a(lp1051
g1041
ag1050
aaa(lp1052
I1414
aI1418
ag1050
a(lp1053
g1032
ag1050
aaa(lp1054
I1414
aI1418
ag1050
a(lp1055
g1023
ag1050
aaa(lp1056
I1414
aI1418
ag1050
a(lp1057
g1014
ag1050
aaa(lp1058
I1423
aI1428
aS'really'
p1059
a(lp1060
g1050
ag1059
aaa(lp1061
I1423
aI1428
ag1059
a(lp1062
g1041
ag1059
aaa(lp1063
I1423
aI1428
ag1059
a(lp1064
g1032
ag1059
aaa(lp1065
I1423
aI1428
ag1059
a(lp1066
g1023
ag1059
aaa(lp1067
I1430
aI1433
aS'hard'
p1068
a(lp1069
g1059
ag1068
aaa(lp1070
I1430
aI1433
ag1068
a(lp1071
g1050
ag1068
aaa(lp1072
I1430
aI1433
ag1068
a(lp1073
g1041
ag1068
aaa(lp1074
I1430
aI1433
ag1068
a(lp1075
g1032
ag1068
aaa(lp1076
I1445
aI1449
aS'comes'
p1077
a(lp1078
g1068
ag1077
aaa(lp1079
I1445
aI1449
ag1077
a(lp1080
g1059
ag1077
aaa(lp1081
I1445
aI1449
ag1077
a(lp1082
g1050
ag1077
aaa(lp1083
I1445
aI1449
ag1077
a(lp1084
g1041
ag1077
aaa(lp1085
I1455
aI1459
aS'gives'
p1086
a(lp1087
g1077
ag1086
aaa(lp1088
I1455
aI1459
ag1086
a(lp1089
g1068
ag1086
aaa(lp1090
I1455
aI1459
ag1086
a(lp1091
g1059
ag1086
aaa(lp1092
I1455
aI1459
ag1086
a(lp1093
g1050
ag1086
aaa(lp1094
I1461
aI1462
aS'us'
p1095
a(lp1096
g1086
ag1095
aaa(lp1097
I1461
aI1462
ag1095
a(lp1098
g1077
ag1095
aaa(lp1099
I1461
aI1462
ag1095
a(lp1100
g1068
ag1095
aaa(lp1101
I1461
aI1462
ag1095
a(lp1102
g1059
ag1095
aaa(lp1103
I1466
aI1471
aS'really'
p1104
a(lp1105
g1095
ag1104
aaa(lp1106
I1466
aI1471
ag1104
a(lp1107
g1086
ag1104
aaa(lp1108
I1466
aI1471
ag1104
a(lp1109
g1077
ag1104
aaa(lp1110
I1466
aI1471
ag1104
a(lp1111
g1068
ag1104
aaa(lp1112
I1473
aI1477
aS'dirty'
p1113
a(lp1114
g1104
ag1113
aaa(lp1115
I1473
aI1477
ag1113
a(lp1116
g1095
ag1113
aaa(lp1117
I1473
aI1477
ag1113
a(lp1118
g1086
ag1113
aaa(lp1119
I1473
aI1477
ag1113
a(lp1120
g1077
ag1113
aaa(lp1121
I1479
aI1482
aS'look'
p1122
a(lp1123
g1113
ag1122
aaa(lp1124
I1479
aI1482
ag1122
a(lp1125
g1104
ag1122
aaa(lp1126
I1479
aI1482
ag1122
a(lp1127
g1095
ag1122
aaa(lp1128
I1479
aI1482
ag1122
a(lp1129
g1086
ag1122
aaa(lp1130
I1488
aI1493
aS'course'
p1131
a(lp1132
g1122
ag1131
aaa(lp1133
I1488
aI1493
ag1131
a(lp1134
g1113
ag1131
aaa(lp1135
I1488
aI1493
ag1131
a(lp1136
g1104
ag1131
aaa(lp1137
I1488
aI1493
ag1131
a(lp1138
g1095
ag1131
aaa(lp1139
I1497
aI1502
aS'refuse'
p1140
a(lp1141
g1131
ag1140
aaa(lp1142
I1497
aI1502
ag1140
a(lp1143
g1122
ag1140
aaa(lp1144
I1497
aI1502
ag1140
a(lp1145
g1113
ag1140
aaa(lp1146
I1497
aI1502
ag1140
a(lp1147
g1104
ag1140
aaa(lp1148
I1507
aI1510
aS'give'
p1149
a(lp1150
g1140
ag1149
aaa(lp1151
I1507
aI1510
ag1149
a(lp1152
g1131
ag1149
aaa(lp1153
I1507
aI1510
ag1149
a(lp1154
g1122
ag1149
aaa(lp1155
I1507
aI1510
ag1149
a(lp1156
g1113
ag1149
aaa(lp1157
I1525
aI1529
aS'wants'
p1158
a(lp1159
g1149
ag1158
aaa(lp1160
I1525
aI1529
ag1158
a(lp1161
g1140
ag1158
aaa(lp1162
I1525
aI1529
ag1158
a(lp1163
g1131
ag1158
aaa(lp1164
I1525
aI1529
ag1158
a(lp1165
g1122
ag1158
aaa(lp1166
I1546
aI1554
aS'demanding'
p1167
a(lp1168
g1158
ag1167
aaa(lp1169
I1546
aI1554
ag1167
a(lp1170
g1149
ag1167
aaa(lp1171
I1546
aI1554
ag1167
a(lp1172
g1140
ag1167
aaa(lp1173
I1546
aI1554
ag1167
a(lp1174
g1131
ag1167
aaa(lp1175
I1571
aI1573
aS'get'
p1176
a(lp1177
g1167
ag1176
aaa(lp1178
I1571
aI1573
ag1176
a(lp1179
g1158
ag1176
aaa(lp1180
I1571
aI1573
ag1176
a(lp1181
g1149
ag1176
aaa(lp1182
I1571
aI1573
ag1176
a(lp1183
g1140
ag1176
aaa(lp1184
I1575
aI1577
aS'mad'
p1185
a(lp1186
g1176
ag1185
aaa(lp1187
I1575
aI1577
ag1185
a(lp1188
g1167
ag1185
aaa(lp1189
I1575
aI1577
ag1185
a(lp1190
g1158
ag1185
aaa(lp1191
I1575
aI1577
ag1185
a(lp1192
g1149
ag1185
aaa(lp1193
I1583
aI1584
aS'go'
p1194
a(lp1195
g1185
ag1194
aaa(lp1196
I1583
aI1584
ag1194
a(lp1197
g1176
ag1194
aaa(lp1198
I1583
aI1584
ag1194
a(lp1199
g1167
ag1194
aaa(lp1200
I1583
aI1584
ag1194
a(lp1201
g1158
ag1194
aaa(lp1202
I1586
aI1588
aS'lay'
p1203
a(lp1204
g1194
ag1203
aaa(lp1205
I1586
aI1588
ag1203
a(lp1206
g1185
ag1203
aaa(lp1207
I1586
aI1588
ag1203
a(lp1208
g1176
ag1203
aaa(lp1209
I1586
aI1588
ag1203
a(lp1210
g1167
ag1203
aaa(lp1211
I1599
aI1603
aS'groan'
p1212
a(lp1213
g1203
ag1212
aaa(lp1214
I1599
aI1603
ag1212
a(lp1215
g1194
ag1212
aaa(lp1216
I1599
aI1603
ag1212
a(lp1217
g1185
ag1212
aaa(lp1218
I1599
aI1603
ag1212
a(lp1219
g1176
ag1212
aaa(lp1220
I1616
aI1620
aS'vocal'
p1221
a(lp1222
g1212
ag1221
aaa(lp1223
I1616
aI1620
ag1221
a(lp1224
g1203
ag1221
aaa(lp1225
I1616
aI1620
ag1221
a(lp1226
g1194
ag1221
aaa(lp1227
I1616
aI1620
ag1221
a(lp1228
g1185
ag1221
aaa(lp1229
I1637
aI1641
aS'wants'
p1230
a(lp1231
g1221
ag1230
aaa(lp1232
I1637
aI1641
ag1230
a(lp1233
g1212
ag1230
aaa(lp1234
I1637
aI1641
ag1230
a(lp1235
g1203
ag1230
aaa(lp1236
I1637
aI1641
ag1230
a(lp1237
g1194
ag1230
aaa(lp1238
I1648
aI1656
aS'doesn\xe2\x80\x99t'
p1239
a(lp1240
g1230
ag1239
aaa(lp1241
I1648
aI1656
ag1239
a(lp1242
g1221
ag1239
aaa(lp1243
I1648
aI1656
ag1239
a(lp1244
g1212
ag1239
aaa(lp1245
I1648
aI1656
ag1239
a(lp1246
g1203
ag1239
aaa(lp1247
I1658
aI1661
aS'bark'
p1248
a(lp1249
g1239
ag1248
aaa(lp1250
I1658
aI1661
ag1248
a(lp1251
g1230
ag1248
aaa(lp1252
I1658
aI1661
ag1248
a(lp1253
g1221
ag1248
aaa(lp1254
I1658
aI1661
ag1248
a(lp1255
g1212
ag1248
aaa(lp1256
I1667
aI1672
aS'hardly'
p1257
a(lp1258
g1248
ag1257
aaa(lp1259
I1667
aI1672
ag1257
a(lp1260
g1239
ag1257
aaa(lp1261
I1667
aI1672
ag1257
a(lp1262
g1230
ag1257
aaa(lp1263
I1667
aI1672
ag1257
a(lp1264
g1221
ag1257
aaa(lp1265
I1674
aI1681
aS'anything'
p1266
a(lp1267
g1257
ag1266
aaa(lp1268
I1674
aI1681
ag1266
a(lp1269
g1248
ag1266
aaa(lp1270
I1674
aI1681
ag1266
a(lp1271
g1239
ag1266
aaa(lp1272
I1674
aI1681
ag1266
a(lp1273
g1230
ag1266
aaa(lp1274
I1688
aI1693
aS'noises'
p1275
a(lp1276
g1266
ag1275
aaa(lp1277
I1688
aI1693
ag1275
a(lp1278
g1257
ag1275
aaa(lp1279
I1688
aI1693
ag1275
a(lp1280
g1248
ag1275
aaa(lp1281
I1688
aI1693
ag1275
a(lp1282
g1239
ag1275
aaa(lp1283
I1704
aI1707
aS'like'
p1284
a(lp1285
g1275
ag1284
aaa(lp1286
I1704
aI1707
ag1284
a(lp1287
g1266
ag1284
aaa(lp1288
I1704
aI1707
ag1284
a(lp1289
g1257
ag1284
aaa(lp1290
I1704
aI1707
ag1284
a(lp1291
g1248
ag1284
aaa(lp1292
I1711
aI1716
aS'bratty'
p1293
a(lp1294
g1284
ag1293
aaa(lp1295
I1711
aI1716
ag1293
a(lp1296
g1275
ag1293
aaa(lp1297
I1711
aI1716
ag1293
a(lp1298
g1266
ag1293
aaa(lp1299
I1711
aI1716
ag1293
a(lp1300
g1257
ag1293
aaa(lp1301
I1718
aI1724
aS'teenage'
p1302
a(lp1303
g1293
ag1302
aaa(lp1304
I1718
aI1724
ag1302
a(lp1305
g1284
ag1302
aaa(lp1306
I1718
aI1724
ag1302
a(lp1307
g1275
ag1302
aaa(lp1308
I1718
aI1724
ag1302
a(lp1309
g1266
ag1302
aaa(lp1310
I1726
aI1729
aS'girl'
p1311
a(lp1312
g1302
ag1311
aaa(lp1313
I1726
aI1729
ag1311
a(lp1314
g1293
ag1311
aaa(lp1315
I1726
aI1729
ag1311
a(lp1316
g1284
ag1311
aaa(lp1317
I1726
aI1729
ag1311
a(lp1318
g1275
ag1311
aaa(lp1319
I1741
aI1743
aS'get'
p1320
a(lp1321
g1311
ag1320
aaa(lp1322
I1741
aI1743
ag1320
a(lp1323
g1302
ag1320
aaa(lp1324
I1741
aI1743
ag1320
a(lp1325
g1293
ag1320
aaa(lp1326
I1741
aI1743
ag1320
a(lp1327
g1284
ag1320
aaa(lp1328
I1747
aI1751
aS'video'
p1329
a(lp1330
g1320
ag1329
aaa(lp1331
I1747
aI1751
ag1329
a(lp1332
g1311
ag1329
aaa(lp1333
I1747
aI1751
ag1329
a(lp1334
g1302
ag1329
aaa(lp1335
I1747
aI1751
ag1329
a(lp1336
g1293
ag1329
aaa(lp1337
I1753
aI1758
aS'camera'
p1338
a(lp1339
g1329
ag1338
aaa(lp1340
I1753
aI1758
ag1338
a(lp1341
g1320
ag1338
aaa(lp1342
I1753
aI1758
ag1338
a(lp1343
g1311
ag1338
aaa(lp1344
I1753
aI1758
ag1338
a(lp1345
g1302
ag1338
aaa(lp1346
I1762
aI1765
aS'hope'
p1347
a(lp1348
g1338
ag1347
aaa(lp1349
I1762
aI1765
ag1347
a(lp1350
g1329
ag1347
aaa(lp1351
I1762
aI1765
ag1347
a(lp1352
g1320
ag1347
aaa(lp1353
I1762
aI1765
ag1347
a(lp1354
g1311
ag1347
aaa(lp1355
I1770
aI1772
aS'get'
p1356
a(lp1357
g1347
ag1356
aaa(lp1358
I1770
aI1772
ag1356
a(lp1359
g1338
ag1356
aaa(lp1360
I1770
aI1772
ag1356
a(lp1361
g1329
ag1356
aaa(lp1362
I1770
aI1772
ag1356
a(lp1363
g1320
ag1356
aaa(lp1364
I1778
aI1783
aS'acting'
p1365
a(lp1366
g1356
ag1365
aaa(lp1367
I1778
aI1783
ag1365
a(lp1368
g1347
ag1365
aaa(lp1369
I1778
aI1783
ag1365
a(lp1370
g1338
ag1365
aaa(lp1371
I1778
aI1783
ag1365
a(lp1372
g1329
ag1365
aaa(lp1373
I1785
aI1788
aS'like'
p1374
a(lp1375
g1365
ag1374
aaa(lp1376
I1785
aI1788
ag1374
a(lp1377
g1356
ag1374
aaa(lp1378
I1785
aI1788
ag1374
a(lp1379
g1347
ag1374
aaa(lp1380
I1785
aI1788
ag1374
a(lp1381
g1338
ag1374
aaa(lp1382
I1810
aI1814
aS'funny'
p1383
a(lp1384
g1374
ag1383
aaa(lp1385
I1810
aI1814
ag1383
a(lp1386
g1365
ag1383
aaa(lp1387
I1810
aI1814
ag1383
a(lp1388
g1356
ag1383
aaa(lp1389
I1810
aI1814
ag1383
a(lp1390
g1347
ag1383
aaa(lp1391
I1831
aI1834
aS'weim'
p1392
a(lp1393
g1383
ag1392
aaa(lp1394
I1831
aI1834
ag1392
a(lp1395
g1374
ag1392
aaa(lp1396
I1831
aI1834
ag1392
a(lp1397
g1365
ag1392
aaa(lp1398
I1831
aI1834
ag1392
a(lp1399
g1356
ag1392
aaa(lp1400
I1851
aI1854
aS'give'
p1401
a(lp1402
g1392
ag1401
aaa(lp1403
I1851
aI1854
ag1401
a(lp1404
g1383
ag1401
aaa(lp1405
I1851
aI1854
ag1401
a(lp1406
g1374
ag1401
aaa(lp1407
I1851
aI1854
ag1401
a(lp1408
g1365
ag1401
aaa(lp1409
I1856
aI1863
aS'attitude'
p1410
a(lp1411
g1401
ag1410
aaa(lp1412
I1856
aI1863
ag1410
a(lp1413
g1392
ag1410
aaa(lp1414
I1856
aI1863
ag1410
a(lp1415
g1383
ag1410
aaa(lp1416
I1856
aI1863
ag1410
a(lp1417
g1374
ag1410
aaa(lp1418
I1865
aI1868
aS'like'
p1419
a(lp1420
g1410
ag1419
aaa(lp1421
I1865
aI1868
ag1419
a(lp1422
g1401
ag1419
aaa(lp1423
I1865
aI1868
ag1419
a(lp1424
g1392
ag1419
aaa(lp1425
I1865
aI1868
ag1419
a(lp1426
g1383
ag1419
aaasS'wordMap'
p1427
(lp1428
(lp1429
I0
aI7
ag5
a(lp1430
(lp1431
I0
aS'a'
p1432
aa(lp1433
I1
aS't'
p1434
aa(lp1435
I2
ag1434
aa(lp1436
I3
aS'i'
p1437
aa(lp1438
I4
ag1434
aa(lp1439
I5
aS'u'
p1440
aa(lp1441
I6
aS'd'
p1442
aa(lp1443
I7
aS'e'
p1444
aaaa(lp1445
I10
aI14
ag15
a(lp1446
(lp1447
I10
aS'c'
p1448
aa(lp1449
I11
aS'h'
p1450
aa(lp1451
I12
aS'l'
p1452
aa(lp1453
I13
aS'o'
p1454
aa(lp1455
I14
ag1444
aaaa(lp1456
I16
aI21
ag24
a(lp1457
(lp1458
I16
ag1448
aa(lp1459
I17
aS'r'
p1460
aa(lp1461
I18
ag1432
aa(lp1462
I19
ag1448
aa(lp1463
I20
aS'k'
p1464
aa(lp1465
I21
aS's'
p1466
aaaa(lp1467
I23
aI24
aS'me'
p1468
a(lp1469
(lp1470
I23
aS'm'
p1471
aa(lp1472
I24
ag1444
aaaa(lp1473
I26
aI27
aS'up'
p1474
a(lp1475
(lp1476
I26
ag1440
aa(lp1477
I27
aS'p'
p1478
aaaa(lp1479
I30
aI33
ag33
a(lp1480
(lp1481
I30
ag1452
aa(lp1482
I31
ag1432
aa(lp1483
I32
ag1466
aa(lp1484
I33
ag1434
aaaa(lp1485
I35
aI39
ag42
a(lp1486
(lp1487
I35
aS'n'
p1488
aa(lp1489
I36
ag1437
aa(lp1490
I37
aS'g'
p1491
aa(lp1492
I38
ag1450
aa(lp1493
I39
ag1434
aaaa(lp1494
I41
aI43
aS'was'
p1495
a(lp1496
(lp1497
I41
aS'w'
p1498
aa(lp1499
I42
ag1432
aa(lp1500
I43
ag1466
aaaa(lp1501
I45
aI48
ag51
a(lp1502
(lp1503
I45
ag1452
aa(lp1504
I46
ag1437
aa(lp1505
I47
ag1464
aa(lp1506
I48
ag1444
aaaa(lp1507
I50
aI53
ag60
a(lp1508
(lp1509
I50
ag1471
aa(lp1510
I51
ag1432
aa(lp1511
I52
ag1488
aa(lp1512
I53
aS'y'
p1513
aaaa(lp1514
I55
aI60
ag69
a(lp1515
(lp1516
I55
ag1488
aa(lp1517
I56
ag1437
aa(lp1518
I57
ag1491
aa(lp1519
I58
ag1450
aa(lp1520
I59
ag1434
aa(lp1521
I60
ag1466
aaaa(lp1522
I62
aI63
aS'we'
p1523
a(lp1524
(lp1525
I62
ag1498
aa(lp1526
I63
ag1444
aaaa(lp1527
I65
aI68
aS'have'
p1528
a(lp1529
(lp1530
I65
ag1450
aa(lp1531
I66
ag1432
aa(lp1532
I67
aS'v'
p1533
aa(lp1534
I68
ag1444
aaaa(lp1535
I71
aI75
ag78
a(lp1536
(lp1537
I71
aS'b'
p1538
aa(lp1539
I72
ag1452
aa(lp1540
I73
ag1432
aa(lp1541
I74
ag1464
aa(lp1542
I75
ag1444
aaaa(lp1543
I77
aI80
ag87
a(lp1544
(lp1545
I77
ag1491
aa(lp1546
I78
ag1454
aa(lp1547
I79
ag1444
aa(lp1548
I80
ag1466
aaaa(lp1549
I82
aI83
aS'to'
p1550
a(lp1551
(lp1552
I82
ag1434
aa(lp1553
I83
ag1454
aaaa(lp1554
I85
aI87
ag96
a(lp1555
(lp1556
I85
ag1538
aa(lp1557
I86
ag1444
aa(lp1558
I87
ag1442
aaaa(lp1559
I89
aI94
aS'before'
p1560
a(lp1561
(lp1562
I89
ag1538
aa(lp1563
I90
ag1444
aa(lp1564
I91
aS'f'
p1565
aa(lp1566
I92
ag1454
aa(lp1567
I93
ag1460
aa(lp1568
I94
ag1444
aaaa(lp1569
I96
aI96
ag1437
a(lp1570
(lp1571
I96
ag1437
aaaa(lp1572
I98
aI99
aS'do'
p1573
a(lp1574
(lp1575
I98
ag1442
aa(lp1576
I99
ag1454
aaaa(lp1577
I101
aI107
aS'because'
p1578
a(lp1579
(lp1580
I101
ag1538
aa(lp1581
I102
ag1444
aa(lp1582
I103
ag1448
aa(lp1583
I104
ag1432
aa(lp1584
I105
ag1440
aa(lp1585
I106
ag1466
aa(lp1586
I107
ag1444
aaaa(lp1587
I109
aI110
aS'he'
p1588
a(lp1589
(lp1590
I109
ag1450
aa(lp1591
I110
ag1444
aaaa(lp1592
I112
aI113
aS'is'
p1593
a(lp1594
(lp1595
I112
ag1437
aa(lp1596
I113
ag1466
aaaa(lp1597
I115
aI116
aS'up'
p1598
a(lp1599
(lp1600
I115
ag1440
aa(lp1601
I116
ag1478
aaaa(lp1602
I118
aI119
aS'so'
p1603
a(lp1604
(lp1605
I118
ag1466
aa(lp1606
I119
ag1454
aaaa(lp1607
I121
aI124
ag105
a(lp1608
(lp1609
I121
ag1471
aa(lp1610
I122
ag1440
aa(lp1611
I123
ag1448
aa(lp1612
I124
ag1450
aaaa(lp1613
I126
aI132
ag114
a(lp1614
(lp1615
I126
ag1444
aa(lp1616
I127
ag1432
aa(lp1617
I128
ag1460
aa(lp1618
I129
ag1452
aa(lp1619
I130
ag1437
aa(lp1620
I131
ag1444
aa(lp1621
I132
ag1460
aaaa(lp1622
I135
aI143
ag123
a(lp1623
(lp1624
I135
ag1466
aa(lp1625
I136
ag1454
aa(lp1626
I137
ag1471
aa(lp1627
I138
ag1444
aa(lp1628
I139
ag1434
aa(lp1629
I140
ag1437
aa(lp1630
I141
ag1471
aa(lp1631
I142
ag1444
aa(lp1632
I143
ag1466
aaaa(lp1633
I145
aI149
ag132
a(lp1634
(lp1635
I145
ag1448
aa(lp1636
I146
ag1450
aa(lp1637
I147
ag1452
aa(lp1638
I148
ag1454
aa(lp1639
I149
ag1444
aaaa(lp1640
I151
aI154
aS'will'
p1641
a(lp1642
(lp1643
I151
ag1498
aa(lp1644
I152
ag1437
aa(lp1645
I153
ag1452
aa(lp1646
I154
ag1452
aaaa(lp1647
I156
aI157
ag141
a(lp1648
(lp1649
I156
ag1491
aa(lp1650
I157
ag1454
aaaa(lp1651
I159
aI162
aS'with'
p1652
a(lp1653
(lp1654
I159
ag1498
aa(lp1655
I160
ag1437
aa(lp1656
I161
ag1434
aa(lp1657
I162
ag1450
aaaa(lp1658
I164
aI166
aS'him'
p1659
a(lp1660
(lp1661
I164
ag1450
aa(lp1662
I165
ag1437
aa(lp1663
I166
ag1471
aaaa(lp1664
I168
aI170
aS'but'
p1665
a(lp1666
(lp1667
I168
ag1538
aa(lp1668
I169
ag1440
aa(lp1669
I170
ag1434
aaaa(lp1670
I172
aI175
ag150
a(lp1671
(lp1672
I172
ag1452
aa(lp1673
I173
ag1432
aa(lp1674
I174
ag1466
aa(lp1675
I175
ag1434
aaaa(lp1676
I177
aI181
ag159
a(lp1677
(lp1678
I177
ag1488
aa(lp1679
I178
ag1437
aa(lp1680
I179
ag1491
aa(lp1681
I180
ag1450
aa(lp1682
I181
ag1434
aaaa(lp1683
I183
aI185
aS'she'
p1684
a(lp1685
(lp1686
I183
ag1466
aa(lp1687
I184
ag1450
aa(lp1688
I185
ag1444
aaaa(lp1689
I187
aI192
ag168
a(lp1690
(lp1691
I187
ag1466
aa(lp1692
I188
ag1434
aa(lp1693
I189
ag1432
aa(lp1694
I190
ag1513
aa(lp1695
I191
ag1444
aa(lp1696
I192
ag1442
aaaa(lp1697
I194
aI197
aS'with'
p1698
a(lp1699
(lp1700
I194
ag1498
aa(lp1701
I195
ag1437
aa(lp1702
I196
ag1434
aa(lp1703
I197
ag1450
aaaa(lp1704
I199
aI200
aS'me'
p1705
a(lp1706
(lp1707
I199
ag1471
aa(lp1708
I200
ag1444
aaaa(lp1709
I203
aI205
aS'she'
p1710
a(lp1711
(lp1712
I203
ag1466
aa(lp1713
I204
ag1450
aa(lp1714
I205
ag1444
aaaa(lp1715
I207
aI210
ag177
a(lp1716
(lp1717
I207
ag1471
aa(lp1718
I208
ag1432
aa(lp1719
I209
ag1442
aa(lp1720
I210
ag1444
aaaa(lp1721
I212
aI213
aS'it'
p1722
a(lp1723
(lp1724
I212
ag1437
aa(lp1725
I213
ag1434
aaaa(lp1726
I215
aI219
ag186
a(lp1727
(lp1728
I215
ag1448
aa(lp1729
I216
ag1452
aa(lp1730
I217
ag1444
aa(lp1731
I218
ag1432
aa(lp1732
I219
ag1460
aaaa(lp1733
I221
aI224
aS'that'
p1734
a(lp1735
(lp1736
I221
ag1434
aa(lp1737
I222
ag1450
aa(lp1738
I223
ag1432
aa(lp1739
I224
ag1434
aaaa(lp1740
I226
aI228
aS'she'
p1741
a(lp1742
(lp1743
I226
ag1466
aa(lp1744
I227
ag1450
aa(lp1745
I228
ag1444
aaaa(lp1746
I230
aI237
ag195
a(lp1747
(lp1748
I230
ag1442
aa(lp1749
I231
ag1437
aa(lp1750
I232
ag1442
aa(lp1751
I233
ag1488
aa(lp1752
I234
aS'\xe2'
p1753
aa(lp1754
I235
aS'\x80'
p1755
aa(lp1756
I236
aS'\x99'
p1757
aa(lp1758
I237
ag1434
aaaa(lp1759
I239
aI242
ag204
a(lp1760
(lp1761
I239
ag1498
aa(lp1762
I240
ag1432
aa(lp1763
I241
ag1488
aa(lp1764
I242
ag1434
aaaa(lp1765
I244
aI245
aS'to'
p1766
a(lp1767
(lp1768
I244
ag1434
aa(lp1769
I245
ag1454
aaaa(lp1770
I247
aI250
ag213
a(lp1771
(lp1772
I247
ag1466
aa(lp1773
I248
ag1434
aa(lp1774
I249
ag1432
aa(lp1775
I250
ag1513
aaaa(lp1776
I252
aI255
aS'with'
p1777
a(lp1778
(lp1779
I252
ag1498
aa(lp1780
I253
ag1437
aa(lp1781
I254
ag1434
aa(lp1782
I255
ag1450
aaaa(lp1783
I257
aI258
aS'me'
p1784
a(lp1785
(lp1786
I257
ag1471
aa(lp1787
I258
ag1444
aaaa(lp1788
I260
aI265
ag222
a(lp1789
(lp1790
I260
ag1434
aa(lp1791
I261
ag1450
aa(lp1792
I262
ag1454
aa(lp1793
I263
ag1440
aa(lp1794
I264
ag1491
aa(lp1795
I265
ag1450
aaaa(lp1796
I268
aI270
aS'she'
p1797
a(lp1798
(lp1799
I268
ag1466
aa(lp1800
I269
ag1450
aa(lp1801
I270
ag1444
aaaa(lp1802
I272
aI275
ag231
a(lp1803
(lp1804
I272
ag1464
aa(lp1805
I273
ag1444
aa(lp1806
I274
ag1478
aa(lp1807
I275
ag1434
aaaa(lp1808
I277
aI281
ag240
a(lp1809
(lp1810
I277
ag1491
aa(lp1811
I278
ag1454
aa(lp1812
I279
ag1437
aa(lp1813
I280
ag1488
aa(lp1814
I281
ag1491
aaaa(lp1815
I283
aI284
aS'to'
p1816
a(lp1817
(lp1818
I283
ag1434
aa(lp1819
I284
ag1454
aaaa(lp1820
I286
aI288
aS'the'
p1821
a(lp1822
(lp1823
I286
ag1434
aa(lp1824
I287
ag1450
aa(lp1825
I288
ag1444
aaaa(lp1826
I290
aI296
ag249
a(lp1827
(lp1828
I290
ag1538
aa(lp1829
I291
ag1444
aa(lp1830
I292
ag1442
aa(lp1831
I293
ag1460
aa(lp1832
I294
ag1454
aa(lp1833
I295
ag1454
aa(lp1834
I296
ag1471
aaaa(lp1835
I298
aI301
ag258
a(lp1836
(lp1837
I298
ag1442
aa(lp1838
I299
ag1454
aa(lp1839
I300
ag1454
aa(lp1840
I301
ag1460
aaaa(lp1841
I303
aI305
aS'and'
p1842
a(lp1843
(lp1844
I303
ag1432
aa(lp1845
I304
ag1488
aa(lp1846
I305
ag1442
aaaa(lp1847
I307
aI313
ag267
a(lp1848
(lp1849
I307
ag1498
aa(lp1850
I308
ag1450
aa(lp1851
I309
ag1437
aa(lp1852
I310
ag1488
aa(lp1853
I311
ag1437
aa(lp1854
I312
ag1488
aa(lp1855
I313
ag1491
aaaa(lp1856
I315
aI318
aS'then'
p1857
a(lp1858
(lp1859
I315
ag1434
aa(lp1860
I316
ag1450
aa(lp1861
I317
ag1444
aa(lp1862
I318
ag1488
aaaa(lp1863
I320
aI326
ag276
a(lp1864
(lp1865
I320
ag1460
aa(lp1866
I321
ag1440
aa(lp1867
I322
ag1488
aa(lp1868
I323
ag1488
aa(lp1869
I324
ag1437
aa(lp1870
I325
ag1488
aa(lp1871
I326
ag1491
aaaa(lp1872
I328
aI331
ag285
a(lp1873
(lp1874
I328
ag1538
aa(lp1875
I329
ag1432
aa(lp1876
I330
ag1448
aa(lp1877
I331
ag1464
aaaa(lp1878
I333
aI334
aS'to'
p1879
a(lp1880
(lp1881
I333
ag1434
aa(lp1882
I334
ag1454
aaaa(lp1883
I336
aI337
aS'me'
p1884
a(lp1885
(lp1886
I336
ag1471
aa(lp1887
I337
ag1444
aaaa(lp1888
I339
aI341
aS'and'
p1889
a(lp1890
(lp1891
I339
ag1432
aa(lp1892
I340
ag1488
aa(lp1893
I341
ag1442
aaaa(lp1894
I343
aI348
ag294
a(lp1895
(lp1896
I343
ag1478
aa(lp1897
I344
ag1454
aa(lp1898
I345
ag1464
aa(lp1899
I346
ag1437
aa(lp1900
I347
ag1488
aa(lp1901
I348
ag1491
aaaa(lp1902
I350
aI351
aS'me'
p1903
a(lp1904
(lp1905
I350
ag1471
aa(lp1906
I351
ag1444
aaaa(lp1907
I353
aI356
aS'with'
p1908
a(lp1909
(lp1910
I353
ag1498
aa(lp1911
I354
ag1437
aa(lp1912
I355
ag1434
aa(lp1913
I356
ag1450
aaaa(lp1914
I358
aI360
aS'her'
p1915
a(lp1916
(lp1917
I358
ag1450
aa(lp1918
I359
ag1444
aa(lp1919
I360
ag1460
aaaa(lp1920
I362
aI365
ag303
a(lp1921
(lp1922
I362
ag1488
aa(lp1923
I363
ag1454
aa(lp1924
I364
ag1466
aa(lp1925
I365
ag1444
aaaa(lp1926
I368
aI369
aS'so'
p1927
a(lp1928
(lp1929
I368
ag1466
aa(lp1930
I369
ag1454
aaaa(lp1931
I371
aI377
ag312
a(lp1932
(lp1933
I371
ag1565
aa(lp1934
I372
ag1437
aa(lp1935
I373
ag1488
aa(lp1936
I374
ag1432
aa(lp1937
I375
ag1452
aa(lp1938
I376
ag1452
aa(lp1939
I377
ag1513
aaaa(lp1940
I379
aI379
ag1437
a(lp1941
(lp1942
I379
ag1437
aaaa(lp1943
I381
aI383
ag321
a(lp1944
(lp1945
I381
ag1452
aa(lp1946
I382
ag1444
aa(lp1947
I383
ag1434
aaaa(lp1948
I385
aI387
aS'her'
p1949
a(lp1950
(lp1951
I385
ag1450
aa(lp1952
I386
ag1444
aa(lp1953
I387
ag1460
aaaa(lp1954
I389
aI390
aS'in'
p1955
a(lp1956
(lp1957
I389
ag1437
aa(lp1958
I390
ag1488
aaaa(lp1959
I392
aI394
aS'the'
p1960
a(lp1961
(lp1962
I392
ag1434
aa(lp1963
I393
ag1450
aa(lp1964
I394
ag1444
aaaa(lp1965
I396
aI399
ag330
a(lp1966
(lp1967
I396
ag1460
aa(lp1968
I397
ag1454
aa(lp1969
I398
ag1454
aa(lp1970
I399
ag1471
aaaa(lp1971
I402
aI402
ag1437
a(lp1972
(lp1973
I402
ag1437
aaaa(lp1974
I404
aI409
ag339
a(lp1975
(lp1976
I404
ag1460
aa(lp1977
I405
ag1444
aa(lp1978
I406
ag1432
aa(lp1979
I407
ag1452
aa(lp1980
I408
ag1452
aa(lp1981
I409
ag1513
aaaa(lp1982
I411
aI418
ag348
a(lp1983
(lp1984
I411
ag1442
aa(lp1985
I412
ag1437
aa(lp1986
I413
ag1442
aa(lp1987
I414
ag1488
aa(lp1988
I415
ag1753
aa(lp1989
I416
ag1755
aa(lp1990
I417
ag1757
aa(lp1991
I418
ag1434
aaaa(lp1992
I420
aI423
ag357
a(lp1993
(lp1994
I420
ag1498
aa(lp1995
I421
ag1432
aa(lp1996
I422
ag1488
aa(lp1997
I423
ag1434
aaaa(lp1998
I425
aI427
aS'her'
p1999
a(lp2000
(lp2001
I425
ag1450
aa(lp2002
I426
ag1444
aa(lp2003
I427
ag1460
aaaa(lp2004
I429
aI430
aS'on'
p2005
a(lp2006
(lp2007
I429
ag1454
aa(lp2008
I430
ag1488
aaaa(lp2009
I432
aI434
aS'the'
p2010
a(lp2011
(lp2012
I432
ag1434
aa(lp2013
I433
ag1450
aa(lp2014
I434
ag1444
aaaa(lp2015
I436
aI438
ag366
a(lp2016
(lp2017
I436
ag1538
aa(lp2018
I437
ag1444
aa(lp2019
I438
ag1442
aaaa(lp2020
I440
aI442
aS'but'
p2021
a(lp2022
(lp2023
I440
ag1538
aa(lp2024
I441
ag1440
aa(lp2025
I442
ag1434
aaaa(lp2026
I444
aI444
ag1437
a(lp2027
(lp2028
I444
ag1437
aaaa(lp2029
I446
aI448
ag375
a(lp2030
(lp2031
I446
ag1452
aa(lp2032
I447
ag1444
aa(lp2033
I448
ag1434
aaaa(lp2034
I450
aI452
aS'her'
p2035
a(lp2036
(lp2037
I450
ag1450
aa(lp2038
I451
ag1444
aa(lp2039
I452
ag1460
aaaa(lp2040
I454
aI460
ag384
a(lp2041
(lp2042
I454
ag1466
aa(lp2043
I455
ag1488
aa(lp2044
I456
ag1440
aa(lp2045
I457
ag1491
aa(lp2046
I458
ag1491
aa(lp2047
I459
ag1452
aa(lp2048
I460
ag1444
aaaa(lp2049
I462
aI465
aS'with'
p2050
a(lp2051
(lp2052
I462
ag1498
aa(lp2053
I463
ag1437
aa(lp2054
I464
ag1434
aa(lp2055
I465
ag1450
aaaa(lp2056
I467
aI469
aS'him'
p2057
a(lp2058
(lp2059
I467
ag1450
aa(lp2060
I468
ag1437
aa(lp2061
I469
ag1471
aaaa(lp2062
I471
aI476
ag393
a(lp2063
(lp2064
I471
ag1432
aa(lp2065
I472
ag1488
aa(lp2066
I473
ag1513
aa(lp2067
I474
ag1498
aa(lp2068
I475
ag1432
aa(lp2069
I476
ag1513
aaaa(lp2070
I479
aI481
aS'she'
p2071
a(lp2072
(lp2073
I479
ag1466
aa(lp2074
I480
ag1450
aa(lp2075
I481
ag1444
aaaa(lp2076
I483
aI485
aS'has'
p2077
a(lp2078
(lp2079
I483
ag1450
aa(lp2080
I484
ag1432
aa(lp2081
I485
ag1466
aaaa(lp2082
I487
aI488
aS'to'
p2083
a(lp2084
(lp2085
I487
ag1434
aa(lp2086
I488
ag1454
aaaa(lp2087
I490
aI491
aS'be'
p2088
a(lp2089
(lp2090
I490
ag1538
aa(lp2091
I491
ag1444
aaaa(lp2092
I493
aI497
aS'under'
p2093
a(lp2094
(lp2095
I493
ag1440
aa(lp2096
I494
ag1488
aa(lp2097
I495
ag1442
aa(lp2098
I496
ag1444
aa(lp2099
I497
ag1460
aaaa(lp2100
I499
aI501
aS'the'
p2101
a(lp2102
(lp2103
I499
ag1434
aa(lp2104
I500
ag1450
aa(lp2105
I501
ag1444
aaaa(lp2106
I503
aI510
ag402
a(lp2107
(lp2108
I503
ag1538
aa(lp2109
I504
ag1452
aa(lp2110
I505
ag1432
aa(lp2111
I506
ag1488
aa(lp2112
I507
ag1464
aa(lp2113
I508
ag1444
aa(lp2114
I509
ag1434
aa(lp2115
I510
ag1466
aaaa(lp2116
I512
aI513
aS'to'
p2117
a(lp2118
(lp2119
I512
ag1434
aa(lp2120
I513
ag1454
aaaa(lp2121
I515
aI516
aS'be'
p2122
a(lp2123
(lp2124
I515
ag1538
aa(lp2125
I516
ag1444
aaaa(lp2126
I518
aI522
ag411
a(lp2127
(lp2128
I518
ag1450
aa(lp2129
I519
ag1432
aa(lp2130
I520
ag1478
aa(lp2131
I521
ag1478
aa(lp2132
I522
ag1513
aaaa(lp2133
I525
aI527
aS'she'
p2134
a(lp2135
(lp2136
I525
ag1466
aa(lp2137
I526
ag1450
aa(lp2138
I527
ag1444
aaaa(lp2139
I529
aI530
aS'is'
p2140
a(lp2141
(lp2142
I529
ag1437
aa(lp2143
I530
ag1466
aaaa(lp2144
I532
aI533
aS'so'
p2145
a(lp2146
(lp2147
I532
ag1466
aa(lp2148
I533
ag1454
aaaa(lp2149
I535
aI539
ag420
a(lp2150
(lp2151
I535
ag1565
aa(lp2152
I536
ag1440
aa(lp2153
I537
ag1488
aa(lp2154
I538
ag1488
aa(lp2155
I539
ag1513
aaaa(lp2156
I542
aI545
aS'when'
p2157
a(lp2158
(lp2159
I542
ag1498
aa(lp2160
I543
ag1450
aa(lp2161
I544
ag1444
aa(lp2162
I545
ag1488
aaaa(lp2163
I547
aI547
ag1437
a(lp2164
(lp2165
I547
ag1437
aaaa(lp2166
I549
aI551
aS'was'
p2167
a(lp2168
(lp2169
I549
ag1498
aa(lp2170
I550
ag1432
aa(lp2171
I551
ag1466
aaaa(lp2172
I553
aI557
ag429
a(lp2173
(lp2174
I553
ag1460
aa(lp2175
I554
ag1444
aa(lp2176
I555
ag1432
aa(lp2177
I556
ag1442
aa(lp2178
I557
ag1513
aaaa(lp2179
I559
aI561
aS'for'
p2180
a(lp2181
(lp2182
I559
ag1565
aa(lp2183
I560
ag1454
aa(lp2184
I561
ag1460
aaaa(lp2185
I563
aI565
ag438
a(lp2186
(lp2187
I563
ag1538
aa(lp2188
I564
ag1444
aa(lp2189
I565
ag1442
aaaa(lp2190
I567
aI567
ag1437
a(lp2191
(lp2192
I567
ag1437
aaaa(lp2193
I569
aI572
ag447
a(lp2194
(lp2195
I569
ag1448
aa(lp2196
I570
ag1432
aa(lp2197
I571
ag1471
aa(lp2198
I572
ag1444
aaaa(lp2199
I574
aI575
aS'in'
p2200
a(lp2201
(lp2202
I574
ag1437
aa(lp2203
I575
ag1488
aaaa(lp2204
I577
aI579
aS'and'
p2205
a(lp2206
(lp2207
I577
ag1432
aa(lp2208
I578
ag1488
aa(lp2209
I579
ag1442
aaaa(lp2210
I581
aI584
ag456
a(lp2211
(lp2212
I581
ag1452
aa(lp2213
I582
ag1437
aa(lp2214
I583
ag1464
aa(lp2215
I584
ag1444
aaaa(lp2216
I586
aI586
ag1432
a(lp2217
(lp2218
I586
ag1432
aaaa(lp2219
I588
aI592
ag465
a(lp2220
(lp2221
I588
ag1471
aa(lp2222
I589
ag1444
aa(lp2223
I590
ag1432
aa(lp2224
I591
ag1488
aa(lp2225
I592
ag1513
aaaa(lp2226
I594
aI599
ag474
a(lp2227
(lp2228
I594
ag1464
aa(lp2229
I595
ag1437
aa(lp2230
I596
ag1448
aa(lp2231
I597
ag1464
aa(lp2232
I598
ag1444
aa(lp2233
I599
ag1442
aaaa(lp2234
I601
aI603
aS'her'
p2235
a(lp2236
(lp2237
I601
ag1450
aa(lp2238
I602
ag1444
aa(lp2239
I603
ag1460
aaaa(lp2240
I605
aI607
aS'out'
p2241
a(lp2242
(lp2243
I605
ag1454
aa(lp2244
I606
ag1440
aa(lp2245
I607
ag1434
aaaa(lp2246
I609
aI610
aS'of'
p2247
a(lp2248
(lp2249
I609
ag1454
aa(lp2250
I610
ag1565
aaaa(lp2251
I612
aI614
aS'the'
p2252
a(lp2253
(lp2254
I612
ag1434
aa(lp2255
I613
ag1450
aa(lp2256
I614
ag1444
aaaa(lp2257
I616
aI618
ag483
a(lp2258
(lp2259
I616
ag1538
aa(lp2260
I617
ag1444
aa(lp2261
I618
ag1442
aaaa(lp2262
I621
aI623
aS'she'
p2263
a(lp2264
(lp2265
I621
ag1466
aa(lp2266
I622
ag1450
aa(lp2267
I623
ag1444
aaaa(lp2268
I625
aI629
ag492
a(lp2269
(lp2270
I625
ag1452
aa(lp2271
I626
ag1437
aa(lp2272
I627
ag1464
aa(lp2273
I628
ag1444
aa(lp2274
I629
ag1466
aaaa(lp2275
I631
aI632
aS'to'
p2276
a(lp2277
(lp2278
I631
ag1434
aa(lp2279
I632
ag1454
aaaa(lp2280
I634
aI641
ag501
a(lp2281
(lp2282
I634
ag1466
aa(lp2283
I635
ag1488
aa(lp2284
I636
ag1440
aa(lp2285
I637
ag1488
aa(lp2286
I638
ag1488
aa(lp2287
I639
ag1491
aa(lp2288
I640
ag1452
aa(lp2289
I641
ag1444
aaaa(lp2290
I643
aI644
aS'so'
p2291
a(lp2292
(lp2293
I643
ag1466
aa(lp2294
I644
ag1454
aaaa(lp2295
I646
aI650
ag510
a(lp2296
(lp2297
I646
ag1448
aa(lp2298
I647
ag1452
aa(lp2299
I648
ag1454
aa(lp2300
I649
ag1466
aa(lp2301
I650
ag1444
aaaa(lp2302
I652
aI655
aS'that'
p2303
a(lp2304
(lp2305
I652
ag1434
aa(lp2306
I653
ag1450
aa(lp2307
I654
ag1432
aa(lp2308
I655
ag1434
aaaa(lp2309
I657
aI657
ag1437
a(lp2310
(lp2311
I657
ag1437
aaaa(lp2312
I659
aI662
aS'just'
p2313
a(lp2314
(lp2315
I659
aS'j'
p2316
aa(lp2317
I660
ag1440
aa(lp2318
I661
ag1466
aa(lp2319
I662
ag1434
aaaa(lp2320
I664
aI670
ag519
a(lp2321
(lp2322
I664
ag1448
aa(lp2323
I665
ag1432
aa(lp2324
I666
ag1488
aa(lp2325
I667
ag1753
aa(lp2326
I668
ag1755
aa(lp2327
I669
ag1757
aa(lp2328
I670
ag1434
aaaa(lp2329
I672
aI677
ag528
a(lp2330
(lp2331
I672
ag1450
aa(lp2332
I673
ag1432
aa(lp2333
I674
ag1488
aa(lp2334
I675
ag1442
aa(lp2335
I676
ag1452
aa(lp2336
I677
ag1444
aaaa(lp2337
I679
aI680
aS'it'
p2338
a(lp2339
(lp2340
I679
ag1437
aa(lp2341
I680
ag1434
aaaa(lp2342
I682
aI686
aS'while'
p2343
a(lp2344
(lp2345
I682
ag1498
aa(lp2346
I683
ag1450
aa(lp2347
I684
ag1437
aa(lp2348
I685
ag1452
aa(lp2349
I686
ag1444
aaaa(lp2350
I688
aI688
ag1437
a(lp2351
(lp2352
I688
ag1437
aaaa(lp2353
I690
aI691
aS'am'
p2354
a(lp2355
(lp2356
I690
ag1432
aa(lp2357
I691
ag1471
aaaa(lp2358
I693
aI700
ag537
a(lp2359
(lp2360
I693
ag1478
aa(lp2361
I694
ag1460
aa(lp2362
I695
ag1444
aa(lp2363
I696
ag1491
aa(lp2364
I697
ag1488
aa(lp2365
I698
ag1432
aa(lp2366
I699
ag1488
aa(lp2367
I700
ag1434
aaaa(lp2368
I703
aI705
aS'she'
p2369
a(lp2370
(lp2371
I703
ag1466
aa(lp2372
I704
ag1450
aa(lp2373
I705
ag1444
aaaa(lp2374
I707
aI710
ag546
a(lp2375
(lp2376
I707
ag1491
aa(lp2377
I708
ag1444
aa(lp2378
I709
ag1434
aa(lp2379
I710
ag1466
aaaa(lp2380
I712
aI715
aS'such'
p2381
a(lp2382
(lp2383
I712
ag1466
aa(lp2384
I713
ag1440
aa(lp2385
I714
ag1448
aa(lp2386
I715
ag1450
aaaa(lp2387
I717
aI718
aS'an'
p2388
a(lp2389
(lp2390
I717
ag1432
aa(lp2391
I718
ag1488
aaaa(lp2392
I720
aI727
ag555
a(lp2393
(lp2394
I720
ag1432
aa(lp2395
I721
ag1434
aa(lp2396
I722
ag1434
aa(lp2397
I723
ag1437
aa(lp2398
I724
ag1434
aa(lp2399
I725
ag1440
aa(lp2400
I726
ag1442
aa(lp2401
I727
ag1444
aaaa(lp2402
I729
aI732
aS'over'
p2403
a(lp2404
(lp2405
I729
ag1454
aa(lp2406
I730
ag1533
aa(lp2407
I731
ag1444
aa(lp2408
I732
ag1460
aaaa(lp2409
I734
aI737
aS'this'
p2410
a(lp2411
(lp2412
I734
ag1434
aa(lp2413
I735
ag1450
aa(lp2414
I736
ag1437
aa(lp2415
I737
ag1466
aaaa(lp2416
I739
aI742
aS'that'
p2417
a(lp2418
(lp2419
I739
ag1434
aa(lp2420
I740
ag1450
aa(lp2421
I741
ag1432
aa(lp2422
I742
ag1434
aaaa(lp2423
I744
aI744
ag1437
a(lp2424
(lp2425
I744
ag1437
aaaa(lp2426
I746
aI751
ag564
a(lp2427
(lp2428
I746
ag1432
aa(lp2429
I747
ag1452
aa(lp2430
I748
ag1471
aa(lp2431
I749
ag1454
aa(lp2432
I750
ag1466
aa(lp2433
I751
ag1434
aaaa(lp2434
I753
aI757
ag573
a(lp2435
(lp2436
I753
ag1452
aa(lp2437
I754
ag1432
aa(lp2438
I755
ag1440
aa(lp2439
I756
ag1491
aa(lp2440
I757
ag1450
aaaa(lp2441
I759
aI761
aS'out'
p2442
a(lp2443
(lp2444
I759
ag1454
aa(lp2445
I760
ag1440
aa(lp2446
I761
ag1434
aaaa(lp2447
I763
aI766
ag582
a(lp2448
(lp2449
I763
ag1452
aa(lp2450
I764
ag1454
aa(lp2451
I765
ag1432
aa(lp2452
I766
ag1442
aaaa(lp2453
I769
aI771
aS'she'
p2454
a(lp2455
(lp2456
I769
ag1466
aa(lp2457
I770
ag1450
aa(lp2458
I771
ag1444
aaaa(lp2459
I773
aI776
aS'will'
p2460
a(lp2461
(lp2462
I773
ag1498
aa(lp2463
I774
ag1437
aa(lp2464
I775
ag1452
aa(lp2465
I776
ag1452
aaaa(lp2466
I778
aI781
ag591
a(lp2467
(lp2468
I778
ag1498
aa(lp2469
I779
ag1432
aa(lp2470
I780
ag1452
aa(lp2471
I781
ag1464
aaaa(lp2472
I783
aI786
aS'from'
p2473
a(lp2474
(lp2475
I783
ag1565
aa(lp2476
I784
ag1460
aa(lp2477
I785
ag1454
aa(lp2478
I786
ag1471
aaaa(lp2479
I788
aI789
aS'my'
p2480
a(lp2481
(lp2482
I788
ag1471
aa(lp2483
I789
ag1513
aaaa(lp2484
I791
aI794
ag600
a(lp2485
(lp2486
I791
ag1466
aa(lp2487
I792
ag1437
aa(lp2488
I793
ag1442
aa(lp2489
I794
ag1444
aaaa(lp2490
I796
aI797
aS'to'
p2491
a(lp2492
(lp2493
I796
ag1434
aa(lp2494
I797
ag1454
aaaa(lp2495
I799
aI807
ag609
a(lp2496
(lp2497
I799
ag1538
aa(lp2498
I800
ag1452
aa(lp2499
I801
ag1432
aa(lp2500
I802
ag1464
aa(lp2501
I803
ag1444
aa(lp2502
I804
ag1753
aa(lp2503
I805
ag1755
aa(lp2504
I806
ag1757
aa(lp2505
I807
ag1466
aaaa(lp2506
I809
aI812
ag618
a(lp2507
(lp2508
I809
ag1466
aa(lp2509
I810
ag1437
aa(lp2510
I811
ag1442
aa(lp2511
I812
ag1444
aaaa(lp2512
I814
aI819
ag627
a(lp2513
(lp2514
I814
ag1434
aa(lp2515
I815
ag1460
aa(lp2516
I816
ag1513
aa(lp2517
I817
ag1437
aa(lp2518
I818
ag1488
aa(lp2519
I819
ag1491
aaaa(lp2520
I821
aI822
aS'to'
p2521
a(lp2522
(lp2523
I821
ag1434
aa(lp2524
I822
ag1454
aaaa(lp2525
I824
aI826
ag636
a(lp2526
(lp2527
I824
ag1491
aa(lp2528
I825
ag1444
aa(lp2529
I826
ag1434
aaaa(lp2530
I828
aI831
ag645
a(lp2531
(lp2532
I828
ag1538
aa(lp2533
I829
ag1432
aa(lp2534
I830
ag1448
aa(lp2535
I831
ag1464
aaaa(lp2536
I833
aI834
aS'on'
p2537
a(lp2538
(lp2539
I833
ag1454
aa(lp2540
I834
ag1488
aaaa(lp2541
I836
aI838
aS'the'
p2542
a(lp2543
(lp2544
I836
ag1434
aa(lp2545
I837
ag1450
aa(lp2546
I838
ag1444
aaaa(lp2547
I840
aI842
ag654
a(lp2548
(lp2549
I840
ag1538
aa(lp2550
I841
ag1444
aa(lp2551
I842
ag1442
aaaa(lp2552
I845
aI845
ag1437
a(lp2553
(lp2554
I845
ag1437
aaaa(lp2555
I847
aI850
ag663
a(lp2556
(lp2557
I847
ag1434
aa(lp2558
I848
ag1444
aa(lp2559
I849
ag1452
aa(lp2560
I850
ag1452
aaaa(lp2561
I852
aI854
aS'her'
p2562
a(lp2563
(lp2564
I852
ag1450
aa(lp2565
I853
ag1444
aa(lp2566
I854
ag1460
aaaa(lp2567
I856
aI857
aS'to'
p2568
a(lp2569
(lp2570
I856
ag1434
aa(lp2571
I857
ag1454
aaaa(lp2572
I859
aI860
ag672
a(lp2573
(lp2574
I859
ag1491
aa(lp2575
I860
ag1454
aaaa(lp2576
I862
aI864
ag681
a(lp2577
(lp2578
I862
ag1452
aa(lp2579
I863
ag1432
aa(lp2580
I864
ag1513
aaaa(lp2581
I866
aI869
aS'down'
p2582
a(lp2583
(lp2584
I866
ag1442
aa(lp2585
I867
ag1454
aa(lp2586
I868
ag1498
aa(lp2587
I869
ag1488
aaaa(lp2588
I871
aI873
aS'and'
p2589
a(lp2590
(lp2591
I871
ag1432
aa(lp2592
I872
ag1488
aa(lp2593
I873
ag1442
aaaa(lp2594
I875
aI877
aS'she'
p2595
a(lp2596
(lp2597
I875
ag1466
aa(lp2598
I876
ag1450
aa(lp2599
I877
ag1444
aaaa(lp2600
I879
aI885
ag690
a(lp2601
(lp2602
I879
aS'q'
p2603
aa(lp2604
I880
ag1440
aa(lp2605
I881
ag1437
aa(lp2606
I882
ag1448
aa(lp2607
I883
ag1464
aa(lp2608
I884
ag1452
aa(lp2609
I885
ag1513
aaaa(lp2610
I887
aI890
ag699
a(lp2611
(lp2612
I887
ag1460
aa(lp2613
I888
ag1440
aa(lp2614
I889
ag1488
aa(lp2615
I890
ag1466
aaaa(lp2616
I892
aI893
aS'to'
p2617
a(lp2618
(lp2619
I892
ag1434
aa(lp2620
I893
ag1454
aaaa(lp2621
I895
aI897
aS'her'
p2622
a(lp2623
(lp2624
I895
ag1450
aa(lp2625
I896
ag1444
aa(lp2626
I897
ag1460
aaaa(lp2627
I899
aI901
ag708
a(lp2628
(lp2629
I899
ag1538
aa(lp2630
I900
ag1444
aa(lp2631
I901
ag1442
aaaa(lp2632
I903
aI905
aS'and'
p2633
a(lp2634
(lp2635
I903
ag1432
aa(lp2636
I904
ag1488
aa(lp2637
I905
ag1442
aaaa(lp2638
I907
aI912
ag717
a(lp2639
(lp2640
I907
ag1466
aa(lp2641
I908
ag1434
aa(lp2642
I909
ag1432
aa(lp2643
I910
ag1460
aa(lp2644
I911
ag1434
aa(lp2645
I912
ag1466
aaaa(lp2646
I914
aI920
ag726
a(lp2647
(lp2648
I914
ag1464
aa(lp2649
I915
ag1437
aa(lp2650
I916
ag1448
aa(lp2651
I917
ag1464
aa(lp2652
I918
ag1437
aa(lp2653
I919
ag1488
aa(lp2654
I920
ag1491
aaaa(lp2655
I922
aI923
aS'it'
p2656
a(lp2657
(lp2658
I922
ag1437
aa(lp2659
I923
ag1434
aaaa(lp2660
I925
aI930
ag735
a(lp2661
(lp2662
I925
ag1432
aa(lp2663
I926
ag1460
aa(lp2664
I927
ag1454
aa(lp2665
I928
ag1440
aa(lp2666
I929
ag1488
aa(lp2667
I930
ag1442
aaaa(lp2668
I933
aI935
aS'she'
p2669
a(lp2670
(lp2671
I933
ag1466
aa(lp2672
I934
ag1450
aa(lp2673
I935
ag1444
aaaa(lp2674
I937
aI940
aS'will'
p2675
a(lp2676
(lp2677
I937
ag1498
aa(lp2678
I938
ag1437
aa(lp2679
I939
ag1452
aa(lp2680
I940
ag1452
aaaa(lp2681
I942
aI945
ag744
a(lp2682
(lp2683
I942
ag1450
aa(lp2684
I943
ag1440
aa(lp2685
I944
ag1565
aa(lp2686
I945
ag1565
aaaa(lp2687
I947
aI949
aS'and'
p2688
a(lp2689
(lp2690
I947
ag1432
aa(lp2691
I948
ag1488
aa(lp2692
I949
ag1442
aaaa(lp2693
I951
aI954
ag753
a(lp2694
(lp2695
I951
ag1478
aa(lp2696
I952
ag1440
aa(lp2697
I953
ag1565
aa(lp2698
I954
ag1565
aaaa(lp2699
I956
aI958
aS'and'
p2700
a(lp2701
(lp2702
I956
ag1432
aa(lp2703
I957
ag1488
aa(lp2704
I958
ag1442
aaaa(lp2705
I960
aI964
ag762
a(lp2706
(lp2707
I960
ag1434
aa(lp2708
I961
ag1450
aa(lp2709
I962
ag1460
aa(lp2710
I963
ag1454
aa(lp2711
I964
ag1498
aaaa(lp2712
I966
aI972
aS'herself'
p2713
a(lp2714
(lp2715
I966
ag1450
aa(lp2716
I967
ag1444
aa(lp2717
I968
ag1460
aa(lp2718
I969
ag1466
aa(lp2719
I970
ag1444
aa(lp2720
I971
ag1452
aa(lp2721
I972
ag1565
aaaa(lp2722
I974
aI977
aS'down'
p2723
a(lp2724
(lp2725
I974
ag1442
aa(lp2726
I975
ag1454
aa(lp2727
I976
ag1498
aa(lp2728
I977
ag1488
aaaa(lp2729
I979
aI984
ag771
a(lp2730
(lp2731
I979
ag1460
aa(lp2732
I980
ag1444
aa(lp2733
I981
ag1432
aa(lp2734
I982
ag1452
aa(lp2735
I983
ag1452
aa(lp2736
I984
ag1513
aaaa(lp2737
I986
aI991
ag780
a(lp2738
(lp2739
I986
ag1452
aa(lp2740
I987
ag1454
aa(lp2741
I988
ag1440
aa(lp2742
I989
ag1442
aa(lp2743
I990
ag1452
aa(lp2744
I991
ag1513
aaaa(lp2745
I994
aI997
aS'then'
p2746
a(lp2747
(lp2748
I994
ag1434
aa(lp2749
I995
ag1450
aa(lp2750
I996
ag1444
aa(lp2751
I997
ag1488
aaaa(lp2752
I999
aI1001
aS'she'
p2753
a(lp2754
(lp2755
I999
ag1466
aa(lp2756
I1000
ag1450
aa(lp2757
I1001
ag1444
aaaa(lp2758
I1003
aI1008
ag789
a(lp2759
(lp2760
I1003
ag1466
aa(lp2761
I1004
ag1434
aa(lp2762
I1005
ag1432
aa(lp2763
I1006
ag1460
aa(lp2764
I1007
ag1434
aa(lp2765
I1008
ag1466
aaaa(lp2766
I1010
aI1017
ag798
a(lp2767
(lp2768
I1010
ag1491
aa(lp2769
I1011
ag1460
aa(lp2770
I1012
ag1454
aa(lp2771
I1013
ag1432
aa(lp2772
I1014
ag1488
aa(lp2773
I1015
ag1437
aa(lp2774
I1016
ag1488
aa(lp2775
I1017
ag1491
aaaa(lp2776
I1019
aI1021
aS'and'
p2777
a(lp2778
(lp2779
I1019
ag1432
aa(lp2780
I1020
ag1488
aa(lp2781
I1021
ag1442
aaaa(lp2782
I1023
aI1029
ag807
a(lp2783
(lp2784
I1023
ag1471
aa(lp2785
I1024
ag1454
aa(lp2786
I1025
ag1432
aa(lp2787
I1026
ag1488
aa(lp2788
I1027
ag1437
aa(lp2789
I1028
ag1488
aa(lp2790
I1029
ag1491
aaaa(lp2791
I1031
aI1034
ag816
a(lp2792
(lp2793
I1031
ag1452
aa(lp2794
I1032
ag1437
aa(lp2795
I1033
ag1464
aa(lp2796
I1034
ag1444
aaaa(lp2797
I1036
aI1037
aS'it'
p2798
a(lp2799
(lp2800
I1036
ag1437
aa(lp2801
I1037
ag1434
aaaa(lp2802
I1039
aI1040
aS'is'
p2803
a(lp2804
(lp2805
I1039
ag1437
aa(lp2806
I1040
ag1466
aaaa(lp2807
I1042
aI1045
aS'just'
p2808
a(lp2809
(lp2810
I1042
ag2316
aa(lp2811
I1043
ag1440
aa(lp2812
I1044
ag1466
aa(lp2813
I1045
ag1434
aaaa(lp2814
I1047
aI1052
ag825
a(lp2815
(lp2816
I1047
ag1466
aa(lp2817
I1048
ag1454
aa(lp2818
I1049
ag1454
aa(lp2819
I1050
ag1454
aa(lp2820
I1051
ag1454
aa(lp2821
I1052
ag1454
aaaa(lp2822
I1054
aI1061
ag834
a(lp2823
(lp2824
I1054
ag1434
aa(lp2825
I1055
ag1444
aa(lp2826
I1056
ag1460
aa(lp2827
I1057
ag1460
aa(lp2828
I1058
ag1437
aa(lp2829
I1059
ag1538
aa(lp2830
I1060
ag1452
aa(lp2831
I1061
ag1444
aaaa(lp2832
I1063
aI1064
aS'to'
p2833
a(lp2834
(lp2835
I1063
ag1434
aa(lp2836
I1064
ag1454
aaaa(lp2837
I1066
aI1069
aS'have'
p2838
a(lp2839
(lp2840
I1066
ag1450
aa(lp2841
I1067
ag1432
aa(lp2842
I1068
ag1533
aa(lp2843
I1069
ag1444
aaaa(lp2844
I1071
aI1072
aS'to'
p2845
a(lp2846
(lp2847
I1071
ag1434
aa(lp2848
I1072
ag1454
aaaa(lp2849
I1074
aI1076
ag843
a(lp2850
(lp2851
I1074
ag1452
aa(lp2852
I1075
ag1432
aa(lp2853
I1076
ag1513
aaaa(lp2854
I1078
aI1079
aS'on'
p2855
a(lp2856
(lp2857
I1078
ag1454
aa(lp2858
I1079
ag1488
aaaa(lp2859
I1081
aI1084
aS'this'
p2860
a(lp2861
(lp2862
I1081
ag1434
aa(lp2863
I1082
ag1450
aa(lp2864
I1083
ag1437
aa(lp2865
I1084
ag1466
aaaa(lp2866
I1086
aI1088
ag852
a(lp2867
(lp2868
I1086
ag1538
aa(lp2869
I1087
ag1437
aa(lp2870
I1088
ag1491
aaaa(lp2871
I1090
aI1093
ag861
a(lp2872
(lp2873
I1090
ag1488
aa(lp2874
I1091
ag1437
aa(lp2875
I1092
ag1448
aa(lp2876
I1093
ag1444
aaaa(lp2877
I1095
aI1097
ag870
a(lp2878
(lp2879
I1095
ag1538
aa(lp2880
I1096
ag1444
aa(lp2881
I1097
ag1442
aaaa(lp2882
I1099
aI1101
aS'she'
p2883
a(lp2884
(lp2885
I1099
ag1466
aa(lp2886
I1100
ag1450
aa(lp2887
I1101
ag1444
aaaa(lp2888
I1103
aI1105
aS'has'
p2889
a(lp2890
(lp2891
I1103
ag1450
aa(lp2892
I1104
ag1432
aa(lp2893
I1105
ag1466
aaaa(lp2894
I1108
aI1110
aS'she'
p2895
a(lp2896
(lp2897
I1108
ag1466
aa(lp2898
I1109
ag1450
aa(lp2899
I1110
ag1444
aaaa(lp2900
I1112
aI1115
aS'will'
p2901
a(lp2902
(lp2903
I1112
ag1498
aa(lp2904
I1113
ag1437
aa(lp2905
I1114
ag1452
aa(lp2906
I1115
ag1452
aaaa(lp2907
I1117
aI1119
ag879
a(lp2908
(lp2909
I1117
ag1491
aa(lp2910
I1118
ag1444
aa(lp2911
I1119
ag1434
aaaa(lp2912
I1121
aI1122
aS'up'
p2913
a(lp2914
(lp2915
I1121
ag1440
aa(lp2916
I1122
ag1478
aaaa(lp2917
I1124
aI1126
aS'and'
p2918
a(lp2919
(lp2920
I1124
ag1432
aa(lp2921
I1125
ag1488
aa(lp2922
I1126
ag1442
aaaa(lp2923
I1128
aI1129
ag888
a(lp2924
(lp2925
I1128
ag1491
aa(lp2926
I1129
ag1454
aaaa(lp2927
I1131
aI1137
aS'through'
p2928
a(lp2929
(lp2930
I1131
ag1434
aa(lp2931
I1132
ag1450
aa(lp2932
I1133
ag1460
aa(lp2933
I1134
ag1454
aa(lp2934
I1135
ag1440
aa(lp2935
I1136
ag1491
aa(lp2936
I1137
ag1450
aaaa(lp2937
I1139
aI1142
aS'this'
p2938
a(lp2939
(lp2940
I1139
ag1434
aa(lp2941
I1140
ag1450
aa(lp2942
I1141
ag1437
aa(lp2943
I1142
ag1466
aaaa(lp2944
I1144
aI1150
ag897
a(lp2945
(lp2946
I1144
ag1460
aa(lp2947
I1145
ag1454
aa(lp2948
I1146
ag1440
aa(lp2949
I1147
ag1434
aa(lp2950
I1148
ag1437
aa(lp2951
I1149
ag1488
aa(lp2952
I1150
ag1444
aaaa(lp2953
I1152
aI1152
ag1432
a(lp2954
(lp2955
I1152
ag1432
aaaa(lp2956
I1154
aI1156
aS'few'
p2957
a(lp2958
(lp2959
I1154
ag1565
aa(lp2960
I1155
ag1444
aa(lp2961
I1156
ag1498
aaaa(lp2962
I1158
aI1162
ag906
a(lp2963
(lp2964
I1158
ag1434
aa(lp2965
I1159
ag1437
aa(lp2966
I1160
ag1471
aa(lp2967
I1161
ag1444
aa(lp2968
I1162
ag1466
aaaa(lp2969
I1164
aI1169
aS'before'
p2970
a(lp2971
(lp2972
I1164
ag1538
aa(lp2973
I1165
ag1444
aa(lp2974
I1166
ag1565
aa(lp2975
I1167
ag1454
aa(lp2976
I1168
ag1460
aa(lp2977
I1169
ag1444
aaaa(lp2978
I1171
aI1173
aS'she'
p2979
a(lp2980
(lp2981
I1171
ag1466
aa(lp2982
I1172
ag1450
aa(lp2983
I1173
ag1444
aaaa(lp2984
I1175
aI1178
aS'will'
p2985
a(lp2986
(lp2987
I1175
ag1498
aa(lp2988
I1176
ag1437
aa(lp2989
I1177
ag1452
aa(lp2990
I1178
ag1452
aaaa(lp2991
I1180
aI1186
ag915
a(lp2992
(lp2993
I1180
ag1565
aa(lp2994
I1181
ag1437
aa(lp2995
I1182
ag1488
aa(lp2996
I1183
ag1432
aa(lp2997
I1184
ag1452
aa(lp2998
I1185
ag1452
aa(lp2999
I1186
ag1513
aaaa(lp3000
I1188
aI1191
ag924
a(lp3001
(lp3002
I1188
ag1491
aa(lp3003
I1189
ag1437
aa(lp3004
I1190
ag1533
aa(lp3005
I1191
ag1444
aaaa(lp3006
I1193
aI1194
aS'up'
p3007
a(lp3008
(lp3009
I1193
ag1440
aa(lp3010
I1194
ag1478
aaaa(lp3011
I1197
aI1197
ag1437
a(lp3012
(lp3013
I1197
ag1437
aaaa(lp3014
I1199
aI1202
aS'just'
p3015
a(lp3016
(lp3017
I1199
ag2316
aa(lp3018
I1200
ag1440
aa(lp3019
I1201
ag1466
aa(lp3020
I1202
ag1434
aaaa(lp3021
I1204
aI1209
ag933
a(lp3022
(lp3023
I1204
ag1498
aa(lp3024
I1205
ag1454
aa(lp3025
I1206
ag1488
aa(lp3026
I1207
ag1442
aa(lp3027
I1208
ag1444
aa(lp3028
I1209
ag1460
aaaa(lp3029
I1211
aI1212
aS'if'
p3030
a(lp3031
(lp3032
I1211
ag1437
aa(lp3033
I1212
ag1565
aaaa(lp3034
I1214
aI1216
aS'she'
p3035
a(lp3036
(lp3037
I1214
ag1466
aa(lp3038
I1215
ag1450
aa(lp3039
I1216
ag1444
aaaa(lp3040
I1218
aI1220
aS'has'
p3041
a(lp3042
(lp3043
I1218
ag1450
aa(lp3044
I1219
ag1432
aa(lp3045
I1220
ag1466
aaaa(lp3046
I1222
aI1225
aS'more'
p3047
a(lp3048
(lp3049
I1222
ag1471
aa(lp3050
I1223
ag1454
aa(lp3051
I1224
ag1460
aa(lp3052
I1225
ag1444
aaaa(lp3053
I1227
aI1234
ag942
a(lp3054
(lp3055
I1227
ag1432
aa(lp3056
I1228
ag1434
aa(lp3057
I1229
ag1434
aa(lp3058
I1230
ag1437
aa(lp3059
I1231
ag1434
aa(lp3060
I1232
ag1440
aa(lp3061
I1233
ag1442
aa(lp3062
I1234
ag1444
aaaa(lp3063
I1236
aI1239
aS'than'
p3064
a(lp3065
(lp3066
I1236
ag1434
aa(lp3067
I1237
ag1450
aa(lp3068
I1238
ag1432
aa(lp3069
I1239
ag1488
aaaa(lp3070
I1241
aI1244
aS'most'
p3071
a(lp3072
(lp3073
I1241
ag1471
aa(lp3074
I1242
ag1454
aa(lp3075
I1243
ag1466
aa(lp3076
I1244
ag1434
aaaa(lp3077
I1246
aI1250
ag951
a(lp3078
(lp3079
I1246
ag1498
aa(lp3080
I1247
ag1444
aa(lp3081
I1248
ag1437
aa(lp3082
I1249
ag1471
aa(lp3083
I1250
ag1466
aaaa(lp3084
I1252
aI1253
aS'or'
p3085
a(lp3086
(lp3087
I1252
ag1454
aa(lp3088
I1253
ag1460
aaaa(lp3089
I1255
aI1256
aS'if'
p3090
a(lp3091
(lp3092
I1255
ag1437
aa(lp3093
I1256
ag1565
aaaa(lp3094
I1258
aI1261
aS'they'
p3095
a(lp3096
(lp3097
I1258
ag1434
aa(lp3098
I1259
ag1450
aa(lp3099
I1260
ag1444
aa(lp3100
I1261
ag1513
aaaa(lp3101
I1263
aI1265
aS'all'
p3102
a(lp3103
(lp3104
I1263
ag1432
aa(lp3105
I1264
ag1452
aa(lp3106
I1265
ag1452
aaaa(lp3107
I1267
aI1275
ag960
a(lp3108
(lp3109
I1267
ag1434
aa(lp3110
I1268
ag1513
aa(lp3111
I1269
ag1478
aa(lp3112
I1270
ag1437
aa(lp3113
I1271
ag1448
aa(lp3114
I1272
ag1432
aa(lp3115
I1273
ag1452
aa(lp3116
I1274
ag1452
aa(lp3117
I1275
ag1513
aaaa(lp3118
I1277
aI1280
aS'have'
p3119
a(lp3120
(lp3121
I1277
ag1450
aa(lp3122
I1278
ag1432
aa(lp3123
I1279
ag1533
aa(lp3124
I1280
ag1444
aaaa(lp3125
I1282
aI1285
aS'this'
p3126
a(lp3127
(lp3128
I1282
ag1434
aa(lp3129
I1283
ag1450
aa(lp3130
I1284
ag1437
aa(lp3131
I1285
ag1466
aaaa(lp3132
I1288
aI1291
aS'this'
p3133
a(lp3134
(lp3135
I1288
ag1434
aa(lp3136
I1289
ag1450
aa(lp3137
I1290
ag1437
aa(lp3138
I1291
ag1466
aaaa(lp3139
I1293
aI1294
aS'is'
p3140
a(lp3141
(lp3142
I1293
ag1437
aa(lp3143
I1294
ag1466
aaaa(lp3144
I1296
aI1298
aS'not'
p3145
a(lp3146
(lp3147
I1296
ag1488
aa(lp3148
I1297
ag1454
aa(lp3149
I1298
ag1434
aaaa(lp3150
I1300
aI1302
aS'the'
p3151
a(lp3152
(lp3153
I1300
ag1434
aa(lp3154
I1301
ag1450
aa(lp3155
I1302
ag1444
aaaa(lp3156
I1304
aI1307
aS'only'
p3157
a(lp3158
(lp3159
I1304
ag1454
aa(lp3160
I1305
ag1488
aa(lp3161
I1306
ag1452
aa(lp3162
I1307
ag1513
aaaa(lp3163
I1309
aI1311
ag969
a(lp3164
(lp3165
I1309
ag1498
aa(lp3166
I1310
ag1432
aa(lp3167
I1311
ag1513
aaaa(lp3168
I1313
aI1315
aS'she'
p3169
a(lp3170
(lp3171
I1313
ag1466
aa(lp3172
I1314
ag1450
aa(lp3173
I1315
ag1444
aaaa(lp3174
I1317
aI1321
ag978
a(lp3175
(lp3176
I1317
ag1491
aa(lp3177
I1318
ag1437
aa(lp3178
I1319
ag1533
aa(lp3179
I1320
ag1444
aa(lp3180
I1321
ag1466
aaaa(lp3181
I1323
aI1330
ag987
a(lp3182
(lp3183
I1323
ag1432
aa(lp3184
I1324
ag1434
aa(lp3185
I1325
ag1434
aa(lp3186
I1326
ag1437
aa(lp3187
I1327
ag1434
aa(lp3188
I1328
ag1440
aa(lp3189
I1329
ag1442
aa(lp3190
I1330
ag1444
aaaa(lp3191
I1333
aI1335
aS'she'
p3192
a(lp3193
(lp3194
I1333
ag1466
aa(lp3195
I1334
ag1450
aa(lp3196
I1335
ag1444
aaaa(lp3197
I1337
aI1340
ag996
a(lp3198
(lp3199
I1337
ag1432
aa(lp3200
I1338
ag1452
aa(lp3201
I1339
ag1466
aa(lp3202
I1340
ag1454
aaaa(lp3203
I1342
aI1345
aS'does'
p3204
a(lp3205
(lp3206
I1342
ag1442
aa(lp3207
I1343
ag1454
aa(lp3208
I1344
ag1444
aa(lp3209
I1345
ag1466
aaaa(lp3210
I1347
aI1348
aS'it'
p3211
a(lp3212
(lp3213
I1347
ag1437
aa(lp3214
I1348
ag1434
aaaa(lp3215
I1350
aI1353
aS'when'
p3216
a(lp3217
(lp3218
I1350
ag1498
aa(lp3219
I1351
ag1450
aa(lp3220
I1352
ag1444
aa(lp3221
I1353
ag1488
aaaa(lp3222
I1355
aI1357
aS'she'
p3223
a(lp3224
(lp3225
I1355
ag1466
aa(lp3226
I1356
ag1450
aa(lp3227
I1357
ag1444
aaaa(lp3228
I1359
aI1363
ag1005
a(lp3229
(lp3230
I1359
ag1498
aa(lp3231
I1360
ag1432
aa(lp3232
I1361
ag1488
aa(lp3233
I1362
ag1434
aa(lp3234
I1363
ag1466
aaaa(lp3235
I1365
aI1369
ag1014
a(lp3236
(lp3237
I1365
ag1498
aa(lp3238
I1366
ag1432
aa(lp3239
I1367
ag1434
aa(lp3240
I1368
ag1444
aa(lp3241
I1369
ag1460
aaaa(lp3242
I1372
aI1374
aS'she'
p3243
a(lp3244
(lp3245
I1372
ag1466
aa(lp3246
I1373
ag1450
aa(lp3247
I1374
ag1444
aaaa(lp3248
I1376
aI1379
aS'will'
p3249
a(lp3250
(lp3251
I1376
ag1498
aa(lp3252
I1377
ag1437
aa(lp3253
I1378
ag1452
aa(lp3254
I1379
ag1452
aaaa(lp3255
I1381
aI1384
aS'just'
p3256
a(lp3257
(lp3258
I1381
ag2316
aa(lp3259
I1382
ag1440
aa(lp3260
I1383
ag1466
aa(lp3261
I1384
ag1434
aaaa(lp3262
I1386
aI1387
ag1023
a(lp3263
(lp3264
I1386
ag1491
aa(lp3265
I1387
ag1454
aaaa(lp3266
I1389
aI1390
aS'up'
p3267
a(lp3268
(lp3269
I1389
ag1440
aa(lp3270
I1390
ag1478
aaaa(lp3271
I1392
aI1393
aS'to'
p3272
a(lp3273
(lp3274
I1392
ag1434
aa(lp3275
I1393
ag1454
aaaa(lp3276
I1395
aI1397
aS'her'
p3277
a(lp3278
(lp3279
I1395
ag1450
aa(lp3280
I1396
ag1444
aa(lp3281
I1397
ag1460
aaaa(lp3282
I1399
aI1403
ag1032
a(lp3283
(lp3284
I1399
ag1444
aa(lp3285
I1400
ag1471
aa(lp3286
I1401
ag1478
aa(lp3287
I1402
ag1434
aa(lp3288
I1403
ag1513
aaaa(lp3289
I1405
aI1408
ag1041
a(lp3290
(lp3291
I1405
ag1442
aa(lp3292
I1406
ag1437
aa(lp3293
I1407
ag1466
aa(lp3294
I1408
ag1450
aaaa(lp3295
I1410
aI1412
aS'and'
p3296
a(lp3297
(lp3298
I1410
ag1432
aa(lp3299
I1411
ag1488
aa(lp3300
I1412
ag1442
aaaa(lp3301
I1414
aI1418
ag1050
a(lp3302
(lp3303
I1414
ag1466
aa(lp3304
I1415
ag1471
aa(lp3305
I1416
ag1432
aa(lp3306
I1417
ag1448
aa(lp3307
I1418
ag1464
aaaa(lp3308
I1420
aI1421
aS'it'
p3309
a(lp3310
(lp3311
I1420
ag1437
aa(lp3312
I1421
ag1434
aaaa(lp3313
I1423
aI1428
ag1059
a(lp3314
(lp3315
I1423
ag1460
aa(lp3316
I1424
ag1444
aa(lp3317
I1425
ag1432
aa(lp3318
I1426
ag1452
aa(lp3319
I1427
ag1452
aa(lp3320
I1428
ag1513
aaaa(lp3321
I1430
aI1433
ag1068
a(lp3322
(lp3323
I1430
ag1450
aa(lp3324
I1431
ag1432
aa(lp3325
I1432
ag1460
aa(lp3326
I1433
ag1442
aaaa(lp3327
I1436
aI1439
aS'then'
p3328
a(lp3329
(lp3330
I1436
ag1434
aa(lp3331
I1437
ag1450
aa(lp3332
I1438
ag1444
aa(lp3333
I1439
ag1488
aaaa(lp3334
I1441
aI1443
aS'she'
p3335
a(lp3336
(lp3337
I1441
ag1466
aa(lp3338
I1442
ag1450
aa(lp3339
I1443
ag1444
aaaa(lp3340
I1445
aI1449
ag1077
a(lp3341
(lp3342
I1445
ag1448
aa(lp3343
I1446
ag1454
aa(lp3344
I1447
ag1471
aa(lp3345
I1448
ag1444
aa(lp3346
I1449
ag1466
aaaa(lp3347
I1451
aI1453
aS'and'
p3348
a(lp3349
(lp3350
I1451
ag1432
aa(lp3351
I1452
ag1488
aa(lp3352
I1453
ag1442
aaaa(lp3353
I1455
aI1459
ag1086
a(lp3354
(lp3355
I1455
ag1491
aa(lp3356
I1456
ag1437
aa(lp3357
I1457
ag1533
aa(lp3358
I1458
ag1444
aa(lp3359
I1459
ag1466
aaaa(lp3360
I1461
aI1462
ag1095
a(lp3361
(lp3362
I1461
ag1440
aa(lp3363
I1462
ag1466
aaaa(lp3364
I1464
aI1464
ag1432
a(lp3365
(lp3366
I1464
ag1432
aaaa(lp3367
I1466
aI1471
ag1104
a(lp3368
(lp3369
I1466
ag1460
aa(lp3370
I1467
ag1444
aa(lp3371
I1468
ag1432
aa(lp3372
I1469
ag1452
aa(lp3373
I1470
ag1452
aa(lp3374
I1471
ag1513
aaaa(lp3375
I1473
aI1477
ag1113
a(lp3376
(lp3377
I1473
ag1442
aa(lp3378
I1474
ag1437
aa(lp3379
I1475
ag1460
aa(lp3380
I1476
ag1434
aa(lp3381
I1477
ag1513
aaaa(lp3382
I1479
aI1482
ag1122
a(lp3383
(lp3384
I1479
ag1452
aa(lp3385
I1480
ag1454
aa(lp3386
I1481
ag1454
aa(lp3387
I1482
ag1464
aaaa(lp3388
I1485
aI1486
aS'of'
p3389
a(lp3390
(lp3391
I1485
ag1454
aa(lp3392
I1486
ag1565
aaaa(lp3393
I1488
aI1493
ag1131
a(lp3394
(lp3395
I1488
ag1448
aa(lp3396
I1489
ag1454
aa(lp3397
I1490
ag1440
aa(lp3398
I1491
ag1460
aa(lp3399
I1492
ag1466
aa(lp3400
I1493
ag1444
aaaa(lp3401
I1495
aI1495
ag1437
a(lp3402
(lp3403
I1495
ag1437
aaaa(lp3404
I1497
aI1502
ag1140
a(lp3405
(lp3406
I1497
ag1460
aa(lp3407
I1498
ag1444
aa(lp3408
I1499
ag1565
aa(lp3409
I1500
ag1440
aa(lp3410
I1501
ag1466
aa(lp3411
I1502
ag1444
aaaa(lp3412
I1504
aI1505
aS'to'
p3413
a(lp3414
(lp3415
I1504
ag1434
aa(lp3416
I1505
ag1454
aaaa(lp3417
I1507
aI1510
ag1149
a(lp3418
(lp3419
I1507
ag1491
aa(lp3420
I1508
ag1437
aa(lp3421
I1509
ag1533
aa(lp3422
I1510
ag1444
aaaa(lp3423
I1512
aI1514
aS'her'
p3424
a(lp3425
(lp3426
I1512
ag1450
aa(lp3427
I1513
ag1444
aa(lp3428
I1514
ag1460
aaaa(lp3429
I1516
aI1519
aS'what'
p3430
a(lp3431
(lp3432
I1516
ag1498
aa(lp3433
I1517
ag1450
aa(lp3434
I1518
ag1432
aa(lp3435
I1519
ag1434
aaaa(lp3436
I1521
aI1523
aS'she'
p3437
a(lp3438
(lp3439
I1521
ag1466
aa(lp3440
I1522
ag1450
aa(lp3441
I1523
ag1444
aaaa(lp3442
I1525
aI1529
ag1158
a(lp3443
(lp3444
I1525
ag1498
aa(lp3445
I1526
ag1432
aa(lp3446
I1527
ag1488
aa(lp3447
I1528
ag1434
aa(lp3448
I1529
ag1466
aaaa(lp3449
I1531
aI1534
aS'when'
p3450
a(lp3451
(lp3452
I1531
ag1498
aa(lp3453
I1532
ag1450
aa(lp3454
I1533
ag1444
aa(lp3455
I1534
ag1488
aaaa(lp3456
I1536
aI1538
aS'she'
p3457
a(lp3458
(lp3459
I1536
ag1466
aa(lp3460
I1537
ag1450
aa(lp3461
I1538
ag1444
aaaa(lp3462
I1540
aI1541
aS'is'
p3463
a(lp3464
(lp3465
I1540
ag1437
aa(lp3466
I1541
ag1466
aaaa(lp3467
I1543
aI1544
aS'so'
p3468
a(lp3469
(lp3470
I1543
ag1466
aa(lp3471
I1544
ag1454
aaaa(lp3472
I1546
aI1554
ag1167
a(lp3473
(lp3474
I1546
ag1442
aa(lp3475
I1547
ag1444
aa(lp3476
I1548
ag1471
aa(lp3477
I1549
ag1432
aa(lp3478
I1550
ag1488
aa(lp3479
I1551
ag1442
aa(lp3480
I1552
ag1437
aa(lp3481
I1553
ag1488
aa(lp3482
I1554
ag1491
aaaa(lp3483
I1557
aI1560
aS'then'
p3484
a(lp3485
(lp3486
I1557
ag1434
aa(lp3487
I1558
ag1450
aa(lp3488
I1559
ag1444
aa(lp3489
I1560
ag1488
aaaa(lp3490
I1562
aI1564
aS'she'
p3491
a(lp3492
(lp3493
I1562
ag1466
aa(lp3494
I1563
ag1450
aa(lp3495
I1564
ag1444
aaaa(lp3496
I1566
aI1569
aS'will'
p3497
a(lp3498
(lp3499
I1566
ag1498
aa(lp3500
I1567
ag1437
aa(lp3501
I1568
ag1452
aa(lp3502
I1569
ag1452
aaaa(lp3503
I1571
aI1573
ag1176
a(lp3504
(lp3505
I1571
ag1491
aa(lp3506
I1572
ag1444
aa(lp3507
I1573
ag1434
aaaa(lp3508
I1575
aI1577
ag1185
a(lp3509
(lp3510
I1575
ag1471
aa(lp3511
I1576
ag1432
aa(lp3512
I1577
ag1442
aaaa(lp3513
I1579
aI1581
aS'and'
p3514
a(lp3515
(lp3516
I1579
ag1432
aa(lp3517
I1580
ag1488
aa(lp3518
I1581
ag1442
aaaa(lp3519
I1583
aI1584
ag1194
a(lp3520
(lp3521
I1583
ag1491
aa(lp3522
I1584
ag1454
aaaa(lp3523
I1586
aI1588
ag1203
a(lp3524
(lp3525
I1586
ag1452
aa(lp3526
I1587
ag1432
aa(lp3527
I1588
ag1513
aaaa(lp3528
I1590
aI1593
aS'down'
p3529
a(lp3530
(lp3531
I1590
ag1442
aa(lp3532
I1591
ag1454
aa(lp3533
I1592
ag1498
aa(lp3534
I1593
ag1488
aaaa(lp3535
I1595
aI1597
aS'and'
p3536
a(lp3537
(lp3538
I1595
ag1432
aa(lp3539
I1596
ag1488
aa(lp3540
I1597
ag1442
aaaa(lp3541
I1599
aI1603
ag1212
a(lp3542
(lp3543
I1599
ag1491
aa(lp3544
I1600
ag1460
aa(lp3545
I1601
ag1454
aa(lp3546
I1602
ag1432
aa(lp3547
I1603
ag1488
aaaa(lp3548
I1606
aI1608
aS'she'
p3549
a(lp3550
(lp3551
I1606
ag1466
aa(lp3552
I1607
ag1450
aa(lp3553
I1608
ag1444
aaaa(lp3554
I1610
aI1611
aS'is'
p3555
a(lp3556
(lp3557
I1610
ag1437
aa(lp3558
I1611
ag1466
aaaa(lp3559
I1613
aI1614
aS'so'
p3560
a(lp3561
(lp3562
I1613
ag1466
aa(lp3563
I1614
ag1454
aaaa(lp3564
I1616
aI1620
ag1221
a(lp3565
(lp3566
I1616
ag1533
aa(lp3567
I1617
ag1454
aa(lp3568
I1618
ag1448
aa(lp3569
I1619
ag1432
aa(lp3570
I1620
ag1452
aaaa(lp3571
I1622
aI1626
aS'about'
p3572
a(lp3573
(lp3574
I1622
ag1432
aa(lp3575
I1623
ag1538
aa(lp3576
I1624
ag1454
aa(lp3577
I1625
ag1440
aa(lp3578
I1626
ag1434
aaaa(lp3579
I1628
aI1631
aS'what'
p3580
a(lp3581
(lp3582
I1628
ag1498
aa(lp3583
I1629
ag1450
aa(lp3584
I1630
ag1432
aa(lp3585
I1631
ag1434
aaaa(lp3586
I1633
aI1635
aS'she'
p3587
a(lp3588
(lp3589
I1633
ag1466
aa(lp3590
I1634
ag1450
aa(lp3591
I1635
ag1444
aaaa(lp3592
I1637
aI1641
ag1230
a(lp3593
(lp3594
I1637
ag1498
aa(lp3595
I1638
ag1432
aa(lp3596
I1639
ag1488
aa(lp3597
I1640
ag1434
aa(lp3598
I1641
ag1466
aaaa(lp3599
I1644
aI1646
aS'she'
p3600
a(lp3601
(lp3602
I1644
ag1466
aa(lp3603
I1645
ag1450
aa(lp3604
I1646
ag1444
aaaa(lp3605
I1648
aI1656
ag1239
a(lp3606
(lp3607
I1648
ag1442
aa(lp3608
I1649
ag1454
aa(lp3609
I1650
ag1444
aa(lp3610
I1651
ag1466
aa(lp3611
I1652
ag1488
aa(lp3612
I1653
ag1753
aa(lp3613
I1654
ag1755
aa(lp3614
I1655
ag1757
aa(lp3615
I1656
ag1434
aaaa(lp3616
I1658
aI1661
ag1248
a(lp3617
(lp3618
I1658
ag1538
aa(lp3619
I1659
ag1432
aa(lp3620
I1660
ag1460
aa(lp3621
I1661
ag1464
aaaa(lp3622
I1663
aI1665
aS'for'
p3623
a(lp3624
(lp3625
I1663
ag1565
aa(lp3626
I1664
ag1454
aa(lp3627
I1665
ag1460
aaaa(lp3628
I1667
aI1672
ag1257
a(lp3629
(lp3630
I1667
ag1450
aa(lp3631
I1668
ag1432
aa(lp3632
I1669
ag1460
aa(lp3633
I1670
ag1442
aa(lp3634
I1671
ag1452
aa(lp3635
I1672
ag1513
aaaa(lp3636
I1674
aI1681
ag1266
a(lp3637
(lp3638
I1674
ag1432
aa(lp3639
I1675
ag1488
aa(lp3640
I1676
ag1513
aa(lp3641
I1677
ag1434
aa(lp3642
I1678
ag1450
aa(lp3643
I1679
ag1437
aa(lp3644
I1680
ag1488
aa(lp3645
I1681
ag1491
aaaa(lp3646
I1684
aI1686
aS'her'
p3647
a(lp3648
(lp3649
I1684
ag1450
aa(lp3650
I1685
ag1444
aa(lp3651
I1686
ag1460
aaaa(lp3652
I1688
aI1693
ag1275
a(lp3653
(lp3654
I1688
ag1488
aa(lp3655
I1689
ag1454
aa(lp3656
I1690
ag1437
aa(lp3657
I1691
ag1466
aa(lp3658
I1692
ag1444
aa(lp3659
I1693
ag1466
aaaa(lp3660
I1695
aI1697
aS'are'
p3661
a(lp3662
(lp3663
I1695
ag1432
aa(lp3664
I1696
ag1460
aa(lp3665
I1697
ag1444
aaaa(lp3666
I1699
aI1702
aS'more'
p3667
a(lp3668
(lp3669
I1699
ag1471
aa(lp3670
I1700
ag1454
aa(lp3671
I1701
ag1460
aa(lp3672
I1702
ag1444
aaaa(lp3673
I1704
aI1707
ag1284
a(lp3674
(lp3675
I1704
ag1452
aa(lp3676
I1705
ag1437
aa(lp3677
I1706
ag1464
aa(lp3678
I1707
ag1444
aaaa(lp3679
I1709
aI1709
ag1432
a(lp3680
(lp3681
I1709
ag1432
aaaa(lp3682
I1711
aI1716
ag1293
a(lp3683
(lp3684
I1711
ag1538
aa(lp3685
I1712
ag1460
aa(lp3686
I1713
ag1432
aa(lp3687
I1714
ag1434
aa(lp3688
I1715
ag1434
aa(lp3689
I1716
ag1513
aaaa(lp3690
I1718
aI1724
ag1302
a(lp3691
(lp3692
I1718
ag1434
aa(lp3693
I1719
ag1444
aa(lp3694
I1720
ag1444
aa(lp3695
I1721
ag1488
aa(lp3696
I1722
ag1432
aa(lp3697
I1723
ag1491
aa(lp3698
I1724
ag1444
aaaa(lp3699
I1726
aI1729
ag1311
a(lp3700
(lp3701
I1726
ag1491
aa(lp3702
I1727
ag1437
aa(lp3703
I1728
ag1460
aa(lp3704
I1729
ag1452
aaaa(lp3705
I1732
aI1736
aS'after'
p3706
a(lp3707
(lp3708
I1732
ag1432
aa(lp3709
I1733
ag1565
aa(lp3710
I1734
ag1434
aa(lp3711
I1735
ag1444
aa(lp3712
I1736
ag1460
aaaa(lp3713
I1738
aI1739
aS'we'
p3714
a(lp3715
(lp3716
I1738
ag1498
aa(lp3717
I1739
ag1444
aaaa(lp3718
I1741
aI1743
ag1320
a(lp3719
(lp3720
I1741
ag1491
aa(lp3721
I1742
ag1444
aa(lp3722
I1743
ag1434
aaaa(lp3723
I1745
aI1745
ag1432
a(lp3724
(lp3725
I1745
ag1432
aaaa(lp3726
I1747
aI1751
ag1329
a(lp3727
(lp3728
I1747
ag1533
aa(lp3729
I1748
ag1437
aa(lp3730
I1749
ag1442
aa(lp3731
I1750
ag1444
aa(lp3732
I1751
ag1454
aaaa(lp3733
I1753
aI1758
ag1338
a(lp3734
(lp3735
I1753
ag1448
aa(lp3736
I1754
ag1432
aa(lp3737
I1755
ag1471
aa(lp3738
I1756
ag1444
aa(lp3739
I1757
ag1460
aa(lp3740
I1758
ag1432
aaaa(lp3741
I1760
aI1760
ag1437
a(lp3742
(lp3743
I1760
ag1437
aaaa(lp3744
I1762
aI1765
ag1347
a(lp3745
(lp3746
I1762
ag1450
aa(lp3747
I1763
ag1454
aa(lp3748
I1764
ag1478
aa(lp3749
I1765
ag1444
aaaa(lp3750
I1767
aI1768
aS'to'
p3751
a(lp3752
(lp3753
I1767
ag1434
aa(lp3754
I1768
ag1454
aaaa(lp3755
I1770
aI1772
ag1356
a(lp3756
(lp3757
I1770
ag1491
aa(lp3758
I1771
ag1444
aa(lp3759
I1772
ag1434
aaaa(lp3760
I1774
aI1776
aS'her'
p3761
a(lp3762
(lp3763
I1774
ag1450
aa(lp3764
I1775
ag1444
aa(lp3765
I1776
ag1460
aaaa(lp3766
I1778
aI1783
ag1365
a(lp3767
(lp3768
I1778
ag1432
aa(lp3769
I1779
ag1448
aa(lp3770
I1780
ag1434
aa(lp3771
I1781
ag1437
aa(lp3772
I1782
ag1488
aa(lp3773
I1783
ag1491
aaaa(lp3774
I1785
aI1788
ag1374
a(lp3775
(lp3776
I1785
ag1452
aa(lp3777
I1786
ag1437
aa(lp3778
I1787
ag1464
aa(lp3779
I1788
ag1444
aaaa(lp3780
I1790
aI1793
aS'this'
p3781
a(lp3782
(lp3783
I1790
ag1434
aa(lp3784
I1791
ag1450
aa(lp3785
I1792
ag1437
aa(lp3786
I1793
ag1466
aaaa(lp3787
I1796
aI1797
aS'it'
p3788
a(lp3789
(lp3790
I1796
ag1437
aa(lp3791
I1797
ag1434
aaaa(lp3792
I1799
aI1800
aS'is'
p3793
a(lp3794
(lp3795
I1799
ag1437
aa(lp3796
I1800
ag1466
aaaa(lp3797
I1802
aI1805
aS'just'
p3798
a(lp3799
(lp3800
I1802
ag2316
aa(lp3801
I1803
ag1440
aa(lp3802
I1804
ag1466
aa(lp3803
I1805
ag1434
aaaa(lp3804
I1807
aI1808
aS'so'
p3805
a(lp3806
(lp3807
I1807
ag1466
aa(lp3808
I1808
ag1454
aaaa(lp3809
I1810
aI1814
ag1383
a(lp3810
(lp3811
I1810
ag1565
aa(lp3812
I1811
ag1440
aa(lp3813
I1812
ag1488
aa(lp3814
I1813
ag1488
aa(lp3815
I1814
ag1513
aaaa(lp3816
I1817
aI1818
aS'do'
p3817
a(lp3818
(lp3819
I1817
ag1442
aa(lp3820
I1818
ag1454
aaaa(lp3821
I1820
aI1822
aS'you'
p3822
a(lp3823
(lp3824
I1820
ag1513
aa(lp3825
I1821
ag1454
aa(lp3826
I1822
ag1440
aaaa(lp3827
I1824
aI1827
aS'have'
p3828
a(lp3829
(lp3830
I1824
ag1450
aa(lp3831
I1825
ag1432
aa(lp3832
I1826
ag1533
aa(lp3833
I1827
ag1444
aaaa(lp3834
I1829
aI1829
ag1432
a(lp3835
(lp3836
I1829
ag1432
aaaa(lp3837
I1831
aI1834
ag1392
a(lp3838
(lp3839
I1831
ag1498
aa(lp3840
I1832
ag1444
aa(lp3841
I1833
ag1437
aa(lp3842
I1834
ag1471
aaaa(lp3843
I1837
aI1838
aS'if'
p3844
a(lp3845
(lp3846
I1837
ag1437
aa(lp3847
I1838
ag1565
aaaa(lp3848
I1840
aI1841
aS'so'
p3849
a(lp3850
(lp3851
I1840
ag1466
aa(lp3852
I1841
ag1454
aaaa(lp3853
I1843
aI1844
aS'do'
p3854
a(lp3855
(lp3856
I1843
ag1442
aa(lp3857
I1844
ag1454
aaaa(lp3858
I1846
aI1849
aS'they'
p3859
a(lp3860
(lp3861
I1846
ag1434
aa(lp3862
I1847
ag1450
aa(lp3863
I1848
ag1444
aa(lp3864
I1849
ag1513
aaaa(lp3865
I1851
aI1854
ag1401
a(lp3866
(lp3867
I1851
ag1491
aa(lp3868
I1852
ag1437
aa(lp3869
I1853
ag1533
aa(lp3870
I1854
ag1444
aaaa(lp3871
I1856
aI1863
ag1410
a(lp3872
(lp3873
I1856
ag1432
aa(lp3874
I1857
ag1434
aa(lp3875
I1858
ag1434
aa(lp3876
I1859
ag1437
aa(lp3877
I1860
ag1434
aa(lp3878
I1861
ag1440
aa(lp3879
I1862
ag1442
aa(lp3880
I1863
ag1444
aaaa(lp3881
I1865
aI1868
ag1419
a(lp3882
(lp3883
I1865
ag1452
aa(lp3884
I1866
ag1437
aa(lp3885
I1867
ag1464
aa(lp3886
I1868
ag1444
aaaa(lp3887
I1865
aI1868
aS'this'
p3888
a(lp3889
(lp3890
I1870
ag1434
aa(lp3891
I1871
ag1450
aa(lp3892
I1872
ag1437
aa(lp3893
I1873
ag1466
aaaasS'cleanCharacterMap'
p3894
(lp3895
g1431
ag1433
ag1435
ag1436
ag1438
ag1439
ag1441
ag1443
a(lp3896
I9
aS' '
p3897
aag1447
ag1449
ag1451
ag1453
ag1455
a(lp3898
I15
ag3897
aag1458
ag1459
ag1461
ag1462
ag1463
ag1465
a(lp3899
I22
ag3897
aag1470
ag1472
a(lp3900
I25
ag3897
aag1476
ag1477
a(lp3901
I29
ag3897
aag1481
ag1482
ag1483
ag1484
a(lp3902
I34
ag3897
aag1487
ag1489
ag1490
ag1492
ag1493
a(lp3903
I40
ag3897
aag1497
ag1499
ag1500
a(lp3904
I44
ag3897
aag1503
ag1504
ag1505
ag1506
a(lp3905
I49
ag3897
aag1509
ag1510
ag1511
ag1512
a(lp3906
I54
ag3897
aag1516
ag1517
ag1518
ag1519
ag1520
ag1521
a(lp3907
I61
ag3897
aag1525
ag1526
a(lp3908
I64
ag3897
aag1530
ag1531
ag1532
ag1534
a(lp3909
I70
ag3897
aag1537
ag1539
ag1540
ag1541
ag1542
a(lp3910
I76
ag3897
aag1545
ag1546
ag1547
ag1548
a(lp3911
I81
ag3897
aag1552
ag1553
a(lp3912
I84
ag3897
aag1556
ag1557
ag1558
a(lp3913
I88
ag3897
aag1562
ag1563
ag1564
ag1566
ag1567
ag1568
a(lp3914
I95
ag3897
aag1571
a(lp3915
I97
ag3897
aag1575
ag1576
a(lp3916
I100
ag3897
aag1580
ag1581
ag1582
ag1583
ag1584
ag1585
ag1586
a(lp3917
I108
ag3897
aag1590
ag1591
a(lp3918
I111
ag3897
aag1595
ag1596
a(lp3919
I114
ag3897
aag1600
ag1601
a(lp3920
I117
ag3897
aag1605
ag1606
a(lp3921
I120
ag3897
aag1609
ag1610
ag1611
ag1612
a(lp3922
I125
ag3897
aag1615
ag1616
ag1617
ag1618
ag1619
ag1620
ag1621
a(lp3923
I134
ag3897
aag1624
ag1625
ag1626
ag1627
ag1628
ag1629
ag1630
ag1631
ag1632
a(lp3924
I144
ag3897
aag1635
ag1636
ag1637
ag1638
ag1639
a(lp3925
I150
ag3897
aag1643
ag1644
ag1645
ag1646
a(lp3926
I155
ag3897
aag1649
ag1650
a(lp3927
I158
ag3897
aag1654
ag1655
ag1656
ag1657
a(lp3928
I163
ag3897
aag1661
ag1662
ag1663
a(lp3929
I167
ag3897
aag1667
ag1668
ag1669
a(lp3930
I171
ag3897
aag1672
ag1673
ag1674
ag1675
a(lp3931
I176
ag3897
aag1678
ag1679
ag1680
ag1681
ag1682
a(lp3932
I182
ag3897
aag1686
ag1687
ag1688
a(lp3933
I186
ag3897
aag1691
ag1692
ag1693
ag1694
ag1695
ag1696
a(lp3934
I193
ag3897
aag1700
ag1701
ag1702
ag1703
a(lp3935
I198
ag3897
aag1707
ag1708
a(lp3936
I202
ag3897
aag1712
ag1713
ag1714
a(lp3937
I206
ag3897
aag1717
ag1718
ag1719
ag1720
a(lp3938
I211
ag3897
aag1724
ag1725
a(lp3939
I214
ag3897
aag1728
ag1729
ag1730
ag1731
ag1732
a(lp3940
I220
ag3897
aag1736
ag1737
ag1738
ag1739
a(lp3941
I225
ag3897
aag1743
ag1744
ag1745
a(lp3942
I229
ag3897
aag1748
ag1749
ag1750
ag1751
ag1752
ag1754
ag1756
ag1758
a(lp3943
I238
ag3897
aag1761
ag1762
ag1763
ag1764
a(lp3944
I243
ag3897
aag1768
ag1769
a(lp3945
I246
ag3897
aag1772
ag1773
ag1774
ag1775
a(lp3946
I251
ag3897
aag1779
ag1780
ag1781
ag1782
a(lp3947
I256
ag3897
aag1786
ag1787
a(lp3948
I259
ag3897
aag1790
ag1791
ag1792
ag1793
ag1794
ag1795
a(lp3949
I267
ag3897
aag1799
ag1800
ag1801
a(lp3950
I271
ag3897
aag1804
ag1805
ag1806
ag1807
a(lp3951
I276
ag3897
aag1810
ag1811
ag1812
ag1813
ag1814
a(lp3952
I282
ag3897
aag1818
ag1819
a(lp3953
I285
ag3897
aag1823
ag1824
ag1825
a(lp3954
I289
ag3897
aag1828
ag1829
ag1830
ag1831
ag1832
ag1833
ag1834
a(lp3955
I297
ag3897
aag1837
ag1838
ag1839
ag1840
a(lp3956
I302
ag3897
aag1844
ag1845
ag1846
a(lp3957
I306
ag3897
aag1849
ag1850
ag1851
ag1852
ag1853
ag1854
ag1855
a(lp3958
I314
ag3897
aag1859
ag1860
ag1861
ag1862
a(lp3959
I319
ag3897
aag1865
ag1866
ag1867
ag1868
ag1869
ag1870
ag1871
a(lp3960
I327
ag3897
aag1874
ag1875
ag1876
ag1877
a(lp3961
I332
ag3897
aag1881
ag1882
a(lp3962
I335
ag3897
aag1886
ag1887
a(lp3963
I338
ag3897
aag1891
ag1892
ag1893
a(lp3964
I342
ag3897
aag1896
ag1897
ag1898
ag1899
ag1900
ag1901
a(lp3965
I349
ag3897
aag1905
ag1906
a(lp3966
I352
ag3897
aag1910
ag1911
ag1912
ag1913
a(lp3967
I357
ag3897
aag1917
ag1918
ag1919
a(lp3968
I361
ag3897
aag1922
ag1923
ag1924
ag1925
a(lp3969
I367
ag3897
aag1929
ag1930
a(lp3970
I370
ag3897
aag1933
ag1934
ag1935
ag1936
ag1937
ag1938
ag1939
a(lp3971
I378
ag3897
aag1942
a(lp3972
I380
ag3897
aag1945
ag1946
ag1947
a(lp3973
I384
ag3897
aag1951
ag1952
ag1953
a(lp3974
I388
ag3897
aag1957
ag1958
a(lp3975
I391
ag3897
aag1962
ag1963
ag1964
a(lp3976
I395
ag3897
aag1967
ag1968
ag1969
ag1970
a(lp3977
I401
ag3897
aag1973
a(lp3978
I403
ag3897
aag1976
ag1977
ag1978
ag1979
ag1980
ag1981
a(lp3979
I410
ag3897
aag1984
ag1985
ag1986
ag1987
ag1988
ag1989
ag1990
ag1991
a(lp3980
I419
ag3897
aag1994
ag1995
ag1996
ag1997
a(lp3981
I424
ag3897
aag2001
ag2002
ag2003
a(lp3982
I428
ag3897
aag2007
ag2008
a(lp3983
I431
ag3897
aag2012
ag2013
ag2014
a(lp3984
I435
ag3897
aag2017
ag2018
ag2019
a(lp3985
I439
ag3897
aag2023
ag2024
ag2025
a(lp3986
I443
ag3897
aag2028
a(lp3987
I445
ag3897
aag2031
ag2032
ag2033
a(lp3988
I449
ag3897
aag2037
ag2038
ag2039
a(lp3989
I453
ag3897
aag2042
ag2043
ag2044
ag2045
ag2046
ag2047
ag2048
a(lp3990
I461
ag3897
aag2052
ag2053
ag2054
ag2055
a(lp3991
I466
ag3897
aag2059
ag2060
ag2061
a(lp3992
I470
ag3897
aag2064
ag2065
ag2066
ag2067
ag2068
ag2069
a(lp3993
I478
ag3897
aag2073
ag2074
ag2075
a(lp3994
I482
ag3897
aag2079
ag2080
ag2081
a(lp3995
I486
ag3897
aag2085
ag2086
a(lp3996
I489
ag3897
aag2090
ag2091
a(lp3997
I492
ag3897
aag2095
ag2096
ag2097
ag2098
ag2099
a(lp3998
I498
ag3897
aag2103
ag2104
ag2105
a(lp3999
I502
ag3897
aag2108
ag2109
ag2110
ag2111
ag2112
ag2113
ag2114
ag2115
a(lp4000
I511
ag3897
aag2119
ag2120
a(lp4001
I514
ag3897
aag2124
ag2125
a(lp4002
I517
ag3897
aag2128
ag2129
ag2130
ag2131
ag2132
a(lp4003
I524
ag3897
aag2136
ag2137
ag2138
a(lp4004
I528
ag3897
aag2142
ag2143
a(lp4005
I531
ag3897
aag2147
ag2148
a(lp4006
I534
ag3897
aag2151
ag2152
ag2153
ag2154
ag2155
a(lp4007
I541
ag3897
aag2159
ag2160
ag2161
ag2162
a(lp4008
I546
ag3897
aag2165
a(lp4009
I548
ag3897
aag2169
ag2170
ag2171
a(lp4010
I552
ag3897
aag2174
ag2175
ag2176
ag2177
ag2178
a(lp4011
I558
ag3897
aag2182
ag2183
ag2184
a(lp4012
I562
ag3897
aag2187
ag2188
ag2189
a(lp4013
I566
ag3897
aag2192
a(lp4014
I568
ag3897
aag2195
ag2196
ag2197
ag2198
a(lp4015
I573
ag3897
aag2202
ag2203
a(lp4016
I576
ag3897
aag2207
ag2208
ag2209
a(lp4017
I580
ag3897
aag2212
ag2213
ag2214
ag2215
a(lp4018
I585
ag3897
aag2218
a(lp4019
I587
ag3897
aag2221
ag2222
ag2223
ag2224
ag2225
a(lp4020
I593
ag3897
aag2228
ag2229
ag2230
ag2231
ag2232
ag2233
a(lp4021
I600
ag3897
aag2237
ag2238
ag2239
a(lp4022
I604
ag3897
aag2243
ag2244
ag2245
a(lp4023
I608
ag3897
aag2249
ag2250
a(lp4024
I611
ag3897
aag2254
ag2255
ag2256
a(lp4025
I615
ag3897
aag2259
ag2260
ag2261
a(lp4026
I620
ag3897
aag2265
ag2266
ag2267
a(lp4027
I624
ag3897
aag2270
ag2271
ag2272
ag2273
ag2274
a(lp4028
I630
ag3897
aag2278
ag2279
a(lp4029
I633
ag3897
aag2282
ag2283
ag2284
ag2285
ag2286
ag2287
ag2288
ag2289
a(lp4030
I642
ag3897
aag2293
ag2294
a(lp4031
I645
ag3897
aag2297
ag2298
ag2299
ag2300
ag2301
a(lp4032
I651
ag3897
aag2305
ag2306
ag2307
ag2308
a(lp4033
I656
ag3897
aag2311
a(lp4034
I658
ag3897
aag2315
ag2317
ag2318
ag2319
a(lp4035
I663
ag3897
aag2322
ag2323
ag2324
ag2325
ag2326
ag2327
ag2328
a(lp4036
I671
ag3897
aag2331
ag2332
ag2333
ag2334
ag2335
ag2336
a(lp4037
I678
ag3897
aag2340
ag2341
a(lp4038
I681
ag3897
aag2345
ag2346
ag2347
ag2348
ag2349
a(lp4039
I687
ag3897
aag2352
a(lp4040
I689
ag3897
aag2356
ag2357
a(lp4041
I692
ag3897
aag2360
ag2361
ag2362
ag2363
ag2364
ag2365
ag2366
ag2367
a(lp4042
I702
ag3897
aag2371
ag2372
ag2373
a(lp4043
I706
ag3897
aag2376
ag2377
ag2378
ag2379
a(lp4044
I711
ag3897
aag2383
ag2384
ag2385
ag2386
a(lp4045
I716
ag3897
aag2390
ag2391
a(lp4046
I719
ag3897
aag2394
ag2395
ag2396
ag2397
ag2398
ag2399
ag2400
ag2401
a(lp4047
I728
ag3897
aag2405
ag2406
ag2407
ag2408
a(lp4048
I733
ag3897
aag2412
ag2413
ag2414
ag2415
a(lp4049
I738
ag3897
aag2419
ag2420
ag2421
ag2422
a(lp4050
I743
ag3897
aag2425
a(lp4051
I745
ag3897
aag2428
ag2429
ag2430
ag2431
ag2432
ag2433
a(lp4052
I752
ag3897
aag2436
ag2437
ag2438
ag2439
ag2440
a(lp4053
I758
ag3897
aag2444
ag2445
ag2446
a(lp4054
I762
ag3897
aag2449
ag2450
ag2451
ag2452
a(lp4055
I768
ag3897
aag2456
ag2457
ag2458
a(lp4056
I772
ag3897
aag2462
ag2463
ag2464
ag2465
a(lp4057
I777
ag3897
aag2468
ag2469
ag2470
ag2471
a(lp4058
I782
ag3897
aag2475
ag2476
ag2477
ag2478
a(lp4059
I787
ag3897
aag2482
ag2483
a(lp4060
I790
ag3897
aag2486
ag2487
ag2488
ag2489
a(lp4061
I795
ag3897
aag2493
ag2494
a(lp4062
I798
ag3897
aag2497
ag2498
ag2499
ag2500
ag2501
ag2502
ag2503
ag2504
ag2505
a(lp4063
I808
ag3897
aag2508
ag2509
ag2510
ag2511
a(lp4064
I813
ag3897
aag2514
ag2515
ag2516
ag2517
ag2518
ag2519
a(lp4065
I820
ag3897
aag2523
ag2524
a(lp4066
I823
ag3897
aag2527
ag2528
ag2529
a(lp4067
I827
ag3897
aag2532
ag2533
ag2534
ag2535
a(lp4068
I832
ag3897
aag2539
ag2540
a(lp4069
I835
ag3897
aag2544
ag2545
ag2546
a(lp4070
I839
ag3897
aag2549
ag2550
ag2551
a(lp4071
I844
ag3897
aag2554
a(lp4072
I846
ag3897
aag2557
ag2558
ag2559
ag2560
a(lp4073
I851
ag3897
aag2564
ag2565
ag2566
a(lp4074
I855
ag3897
aag2570
ag2571
a(lp4075
I858
ag3897
aag2574
ag2575
a(lp4076
I861
ag3897
aag2578
ag2579
ag2580
a(lp4077
I865
ag3897
aag2584
ag2585
ag2586
ag2587
a(lp4078
I870
ag3897
aag2591
ag2592
ag2593
a(lp4079
I874
ag3897
aag2597
ag2598
ag2599
a(lp4080
I878
ag3897
aag2602
ag2604
ag2605
ag2606
ag2607
ag2608
ag2609
a(lp4081
I886
ag3897
aag2612
ag2613
ag2614
ag2615
a(lp4082
I891
ag3897
aag2619
ag2620
a(lp4083
I894
ag3897
aag2624
ag2625
ag2626
a(lp4084
I898
ag3897
aag2629
ag2630
ag2631
a(lp4085
I902
ag3897
aag2635
ag2636
ag2637
a(lp4086
I906
ag3897
aag2640
ag2641
ag2642
ag2643
ag2644
ag2645
a(lp4087
I913
ag3897
aag2648
ag2649
ag2650
ag2651
ag2652
ag2653
ag2654
a(lp4088
I921
ag3897
aag2658
ag2659
a(lp4089
I924
ag3897
aag2662
ag2663
ag2664
ag2665
ag2666
ag2667
a(lp4090
I932
ag3897
aag2671
ag2672
ag2673
a(lp4091
I936
ag3897
aag2677
ag2678
ag2679
ag2680
a(lp4092
I941
ag3897
aag2683
ag2684
ag2685
ag2686
a(lp4093
I946
ag3897
aag2690
ag2691
ag2692
a(lp4094
I950
ag3897
aag2695
ag2696
ag2697
ag2698
a(lp4095
I955
ag3897
aag2702
ag2703
ag2704
a(lp4096
I959
ag3897
aag2707
ag2708
ag2709
ag2710
ag2711
a(lp4097
I965
ag3897
aag2715
ag2716
ag2717
ag2718
ag2719
ag2720
ag2721
a(lp4098
I973
ag3897
aag2725
ag2726
ag2727
ag2728
a(lp4099
I978
ag3897
aag2731
ag2732
ag2733
ag2734
ag2735
ag2736
a(lp4100
I985
ag3897
aag2739
ag2740
ag2741
ag2742
ag2743
ag2744
a(lp4101
I993
ag3897
aag2748
ag2749
ag2750
ag2751
a(lp4102
I998
ag3897
aag2755
ag2756
ag2757
a(lp4103
I1002
ag3897
aag2760
ag2761
ag2762
ag2763
ag2764
ag2765
a(lp4104
I1009
ag3897
aag2768
ag2769
ag2770
ag2771
ag2772
ag2773
ag2774
ag2775
a(lp4105
I1018
ag3897
aag2779
ag2780
ag2781
a(lp4106
I1022
ag3897
aag2784
ag2785
ag2786
ag2787
ag2788
ag2789
ag2790
a(lp4107
I1030
ag3897
aag2793
ag2794
ag2795
ag2796
a(lp4108
I1035
ag3897
aag2800
ag2801
a(lp4109
I1038
ag3897
aag2805
ag2806
a(lp4110
I1041
ag3897
aag2810
ag2811
ag2812
ag2813
a(lp4111
I1046
ag3897
aag2816
ag2817
ag2818
ag2819
ag2820
ag2821
a(lp4112
I1053
ag3897
aag2824
ag2825
ag2826
ag2827
ag2828
ag2829
ag2830
ag2831
a(lp4113
I1062
ag3897
aag2835
ag2836
a(lp4114
I1065
ag3897
aag2840
ag2841
ag2842
ag2843
a(lp4115
I1070
ag3897
aag2847
ag2848
a(lp4116
I1073
ag3897
aag2851
ag2852
ag2853
a(lp4117
I1077
ag3897
aag2857
ag2858
a(lp4118
I1080
ag3897
aag2862
ag2863
ag2864
ag2865
a(lp4119
I1085
ag3897
aag2868
ag2869
ag2870
a(lp4120
I1089
ag3897
aag2873
ag2874
ag2875
ag2876
a(lp4121
I1094
ag3897
aag2879
ag2880
ag2881
a(lp4122
I1098
ag3897
aag2885
ag2886
ag2887
a(lp4123
I1102
ag3897
aag2891
ag2892
ag2893
a(lp4124
I1107
ag3897
aag2897
ag2898
ag2899
a(lp4125
I1111
ag3897
aag2903
ag2904
ag2905
ag2906
a(lp4126
I1116
ag3897
aag2909
ag2910
ag2911
a(lp4127
I1120
ag3897
aag2915
ag2916
a(lp4128
I1123
ag3897
aag2920
ag2921
ag2922
a(lp4129
I1127
ag3897
aag2925
ag2926
a(lp4130
I1130
ag3897
aag2930
ag2931
ag2932
ag2933
ag2934
ag2935
ag2936
a(lp4131
I1138
ag3897
aag2940
ag2941
ag2942
ag2943
a(lp4132
I1143
ag3897
aag2946
ag2947
ag2948
ag2949
ag2950
ag2951
ag2952
a(lp4133
I1151
ag3897
aag2955
a(lp4134
I1153
ag3897
aag2959
ag2960
ag2961
a(lp4135
I1157
ag3897
aag2964
ag2965
ag2966
ag2967
ag2968
a(lp4136
I1163
ag3897
aag2972
ag2973
ag2974
ag2975
ag2976
ag2977
a(lp4137
I1170
ag3897
aag2981
ag2982
ag2983
a(lp4138
I1174
ag3897
aag2987
ag2988
ag2989
ag2990
a(lp4139
I1179
ag3897
aag2993
ag2994
ag2995
ag2996
ag2997
ag2998
ag2999
a(lp4140
I1187
ag3897
aag3002
ag3003
ag3004
ag3005
a(lp4141
I1192
ag3897
aag3009
ag3010
a(lp4142
I1196
ag3897
aag3013
a(lp4143
I1198
ag3897
aag3017
ag3018
ag3019
ag3020
a(lp4144
I1203
ag3897
aag3023
ag3024
ag3025
ag3026
ag3027
ag3028
a(lp4145
I1210
ag3897
aag3032
ag3033
a(lp4146
I1213
ag3897
aag3037
ag3038
ag3039
a(lp4147
I1217
ag3897
aag3043
ag3044
ag3045
a(lp4148
I1221
ag3897
aag3049
ag3050
ag3051
ag3052
a(lp4149
I1226
ag3897
aag3055
ag3056
ag3057
ag3058
ag3059
ag3060
ag3061
ag3062
a(lp4150
I1235
ag3897
aag3066
ag3067
ag3068
ag3069
a(lp4151
I1240
ag3897
aag3073
ag3074
ag3075
ag3076
a(lp4152
I1245
ag3897
aag3079
ag3080
ag3081
ag3082
ag3083
a(lp4153
I1251
ag3897
aag3087
ag3088
a(lp4154
I1254
ag3897
aag3092
ag3093
a(lp4155
I1257
ag3897
aag3097
ag3098
ag3099
ag3100
a(lp4156
I1262
ag3897
aag3104
ag3105
ag3106
a(lp4157
I1266
ag3897
aag3109
ag3110
ag3111
ag3112
ag3113
ag3114
ag3115
ag3116
ag3117
a(lp4158
I1276
ag3897
aag3121
ag3122
ag3123
ag3124
a(lp4159
I1281
ag3897
aag3128
ag3129
ag3130
ag3131
a(lp4160
I1287
ag3897
aag3135
ag3136
ag3137
ag3138
a(lp4161
I1292
ag3897
aag3142
ag3143
a(lp4162
I1295
ag3897
aag3147
ag3148
ag3149
a(lp4163
I1299
ag3897
aag3153
ag3154
ag3155
a(lp4164
I1303
ag3897
aag3159
ag3160
ag3161
ag3162
a(lp4165
I1308
ag3897
aag3165
ag3166
ag3167
a(lp4166
I1312
ag3897
aag3171
ag3172
ag3173
a(lp4167
I1316
ag3897
aag3176
ag3177
ag3178
ag3179
ag3180
a(lp4168
I1322
ag3897
aag3183
ag3184
ag3185
ag3186
ag3187
ag3188
ag3189
ag3190
a(lp4169
I1332
ag3897
aag3194
ag3195
ag3196
a(lp4170
I1336
ag3897
aag3199
ag3200
ag3201
ag3202
a(lp4171
I1341
ag3897
aag3206
ag3207
ag3208
ag3209
a(lp4172
I1346
ag3897
aag3213
ag3214
a(lp4173
I1349
ag3897
aag3218
ag3219
ag3220
ag3221
a(lp4174
I1354
ag3897
aag3225
ag3226
ag3227
a(lp4175
I1358
ag3897
aag3230
ag3231
ag3232
ag3233
ag3234
a(lp4176
I1364
ag3897
aag3237
ag3238
ag3239
ag3240
ag3241
a(lp4177
I1371
ag3897
aag3245
ag3246
ag3247
a(lp4178
I1375
ag3897
aag3251
ag3252
ag3253
ag3254
a(lp4179
I1380
ag3897
aag3258
ag3259
ag3260
ag3261
a(lp4180
I1385
ag3897
aag3264
ag3265
a(lp4181
I1388
ag3897
aag3269
ag3270
a(lp4182
I1391
ag3897
aag3274
ag3275
a(lp4183
I1394
ag3897
aag3279
ag3280
ag3281
a(lp4184
I1398
ag3897
aag3284
ag3285
ag3286
ag3287
ag3288
a(lp4185
I1404
ag3897
aag3291
ag3292
ag3293
ag3294
a(lp4186
I1409
ag3897
aag3298
ag3299
ag3300
a(lp4187
I1413
ag3897
aag3303
ag3304
ag3305
ag3306
ag3307
a(lp4188
I1419
ag3897
aag3311
ag3312
a(lp4189
I1422
ag3897
aag3315
ag3316
ag3317
ag3318
ag3319
ag3320
a(lp4190
I1429
ag3897
aag3323
ag3324
ag3325
ag3326
a(lp4191
I1435
ag3897
aag3330
ag3331
ag3332
ag3333
a(lp4192
I1440
ag3897
aag3337
ag3338
ag3339
a(lp4193
I1444
ag3897
aag3342
ag3343
ag3344
ag3345
ag3346
a(lp4194
I1450
ag3897
aag3350
ag3351
ag3352
a(lp4195
I1454
ag3897
aag3355
ag3356
ag3357
ag3358
ag3359
a(lp4196
I1460
ag3897
aag3362
ag3363
a(lp4197
I1463
ag3897
aag3366
a(lp4198
I1465
ag3897
aag3369
ag3370
ag3371
ag3372
ag3373
ag3374
a(lp4199
I1472
ag3897
aag3377
ag3378
ag3379
ag3380
ag3381
a(lp4200
I1478
ag3897
aag3384
ag3385
ag3386
ag3387
a(lp4201
I1484
ag3897
aag3391
ag3392
a(lp4202
I1487
ag3897
aag3395
ag3396
ag3397
ag3398
ag3399
ag3400
a(lp4203
I1494
ag3897
aag3403
a(lp4204
I1496
ag3897
aag3406
ag3407
ag3408
ag3409
ag3410
ag3411
a(lp4205
I1503
ag3897
aag3415
ag3416
a(lp4206
I1506
ag3897
aag3419
ag3420
ag3421
ag3422
a(lp4207
I1511
ag3897
aag3426
ag3427
ag3428
a(lp4208
I1515
ag3897
aag3432
ag3433
ag3434
ag3435
a(lp4209
I1520
ag3897
aag3439
ag3440
ag3441
a(lp4210
I1524
ag3897
aag3444
ag3445
ag3446
ag3447
ag3448
a(lp4211
I1530
ag3897
aag3452
ag3453
ag3454
ag3455
a(lp4212
I1535
ag3897
aag3459
ag3460
ag3461
a(lp4213
I1539
ag3897
aag3465
ag3466
a(lp4214
I1542
ag3897
aag3470
ag3471
a(lp4215
I1545
ag3897
aag3474
ag3475
ag3476
ag3477
ag3478
ag3479
ag3480
ag3481
ag3482
a(lp4216
I1556
ag3897
aag3486
ag3487
ag3488
ag3489
a(lp4217
I1561
ag3897
aag3493
ag3494
ag3495
a(lp4218
I1565
ag3897
aag3499
ag3500
ag3501
ag3502
a(lp4219
I1570
ag3897
aag3505
ag3506
ag3507
a(lp4220
I1574
ag3897
aag3510
ag3511
ag3512
a(lp4221
I1578
ag3897
aag3516
ag3517
ag3518
a(lp4222
I1582
ag3897
aag3521
ag3522
a(lp4223
I1585
ag3897
aag3525
ag3526
ag3527
a(lp4224
I1589
ag3897
aag3531
ag3532
ag3533
ag3534
a(lp4225
I1594
ag3897
aag3538
ag3539
ag3540
a(lp4226
I1598
ag3897
aag3543
ag3544
ag3545
ag3546
ag3547
a(lp4227
I1605
ag3897
aag3551
ag3552
ag3553
a(lp4228
I1609
ag3897
aag3557
ag3558
a(lp4229
I1612
ag3897
aag3562
ag3563
a(lp4230
I1615
ag3897
aag3566
ag3567
ag3568
ag3569
ag3570
a(lp4231
I1621
ag3897
aag3574
ag3575
ag3576
ag3577
ag3578
a(lp4232
I1627
ag3897
aag3582
ag3583
ag3584
ag3585
a(lp4233
I1632
ag3897
aag3589
ag3590
ag3591
a(lp4234
I1636
ag3897
aag3594
ag3595
ag3596
ag3597
ag3598
a(lp4235
I1643
ag3897
aag3602
ag3603
ag3604
a(lp4236
I1647
ag3897
aag3607
ag3608
ag3609
ag3610
ag3611
ag3612
ag3613
ag3614
ag3615
a(lp4237
I1657
ag3897
aag3618
ag3619
ag3620
ag3621
a(lp4238
I1662
ag3897
aag3625
ag3626
ag3627
a(lp4239
I1666
ag3897
aag3630
ag3631
ag3632
ag3633
ag3634
ag3635
a(lp4240
I1673
ag3897
aag3638
ag3639
ag3640
ag3641
ag3642
ag3643
ag3644
ag3645
a(lp4241
I1683
ag3897
aag3649
ag3650
ag3651
a(lp4242
I1687
ag3897
aag3654
ag3655
ag3656
ag3657
ag3658
ag3659
a(lp4243
I1694
ag3897
aag3663
ag3664
ag3665
a(lp4244
I1698
ag3897
aag3669
ag3670
ag3671
ag3672
a(lp4245
I1703
ag3897
aag3675
ag3676
ag3677
ag3678
a(lp4246
I1708
ag3897
aag3681
a(lp4247
I1710
ag3897
aag3684
ag3685
ag3686
ag3687
ag3688
ag3689
a(lp4248
I1717
ag3897
aag3692
ag3693
ag3694
ag3695
ag3696
ag3697
ag3698
a(lp4249
I1725
ag3897
aag3701
ag3702
ag3703
ag3704
a(lp4250
I1731
ag3897
aag3708
ag3709
ag3710
ag3711
ag3712
a(lp4251
I1737
ag3897
aag3716
ag3717
a(lp4252
I1740
ag3897
aag3720
ag3721
ag3722
a(lp4253
I1744
ag3897
aag3725
a(lp4254
I1746
ag3897
aag3728
ag3729
ag3730
ag3731
ag3732
a(lp4255
I1752
ag3897
aag3735
ag3736
ag3737
ag3738
ag3739
ag3740
a(lp4256
I1759
ag3897
aag3743
a(lp4257
I1761
ag3897
aag3746
ag3747
ag3748
ag3749
a(lp4258
I1766
ag3897
aag3753
ag3754
a(lp4259
I1769
ag3897
aag3757
ag3758
ag3759
a(lp4260
I1773
ag3897
aag3763
ag3764
ag3765
a(lp4261
I1777
ag3897
aag3768
ag3769
ag3770
ag3771
ag3772
ag3773
a(lp4262
I1784
ag3897
aag3776
ag3777
ag3778
ag3779
a(lp4263
I1789
ag3897
aag3783
ag3784
ag3785
ag3786
a(lp4264
I1795
ag3897
aag3790
ag3791
a(lp4265
I1798
ag3897
aag3795
ag3796
a(lp4266
I1801
ag3897
aag3800
ag3801
ag3802
ag3803
a(lp4267
I1806
ag3897
aag3807
ag3808
a(lp4268
I1809
ag3897
aag3811
ag3812
ag3813
ag3814
ag3815
a(lp4269
I1816
ag3897
aag3819
ag3820
a(lp4270
I1819
ag3897
aag3824
ag3825
ag3826
a(lp4271
I1823
ag3897
aag3830
ag3831
ag3832
ag3833
a(lp4272
I1828
ag3897
aag3836
a(lp4273
I1830
ag3897
aag3839
ag3840
ag3841
ag3842
a(lp4274
I1836
ag3897
aag3846
ag3847
a(lp4275
I1839
ag3897
aag3851
ag3852
a(lp4276
I1842
ag3897
aag3856
ag3857
a(lp4277
I1845
ag3897
aag3861
ag3862
ag3863
ag3864
a(lp4278
I1850
ag3897
aag3867
ag3868
ag3869
ag3870
a(lp4279
I1855
ag3897
aag3873
ag3874
ag3875
ag3876
ag3877
ag3878
ag3879
ag3880
a(lp4280
I1864
ag3897
aag3883
ag3884
ag3885
ag3886
a(lp4281
I1869
ag3897
aag3890
ag3891
ag3892
ag3893
asS'text'
p4282
S'attitude! chloe cracks me up! last night was like many nights we have. blake goes to bed before i do because he is up so much earlier. sometimes chloe will go with him but last night she stayed with me. she made it clear that she didn\xe2\x80\x99t want to stay with me though. she kept going to the bedroom door and whining then running back to me and poking me with her nose. so finally i let her in the room. i really didn\xe2\x80\x99t want her on the bed but i let her snuggle with him anyway! she has to be under the blankets to be happy, she is so funny. when i was ready for bed i came in and like a meany kicked her out of the bed. she likes to snunngle so close that i just can\xe2\x80\x99t handle it while i am pregnant. she gets such an attitude over this that i almost laugh out load! she will walk from my side to blake\xe2\x80\x99s side trying to get back on the bed. i tell her to go lay down and she quickly runs to her bed and starts kicking it around. she will huff and puff and throw herself down really loudly. then she starts groaning and moaning like it is just sooooo terrible to have to lay on this big nice bed she has. she will get up and go through this routine a few times before she will finally give up. i just wonder if she has more attitude than most weims or if they all typically have this? this is not the only way she gives attitude. she also does it when she wants water. she will just go up to her empty dish and smack it really hard. then she comes and gives us a really dirty look. of course i refuse to give her what she wants when she is so demanding. then she will get mad and go lay down and groan. she is so vocal about what she wants. she doesn\xe2\x80\x99t bark for hardly anything. her noises are more like a bratty teenage girl! after we get a video camera i hope to get her acting like this! it is just so funny. do you have a weim? if so do they give attitude like this?'
p4283
sS'cleanWordMap'
p4284
(lp4285
g1429
ag1445
ag1456
ag1479
ag1485
ag1501
ag1507
ag1514
ag1535
ag1543
ag1554
ag1607
ag1613
ag1622
ag1633
ag1647
ag1670
ag1676
ag1689
ag1715
ag1726
ag1746
ag1759
ag1770
ag1788
ag1802
ag1808
ag1826
ag1835
ag1847
ag1863
ag1872
ag1894
ag1920
ag1931
ag1943
ag1965
ag1974
ag1982
ag1992
ag2015
ag2029
ag2040
ag2062
ag2106
ag2126
ag2149
ag2172
ag2185
ag2193
ag2210
ag2219
ag2226
ag2257
ag2268
ag2280
ag2295
ag2320
ag2329
ag2358
ag2374
ag2392
ag2426
ag2434
ag2447
ag2466
ag2484
ag2495
ag2506
ag2512
ag2525
ag2530
ag2547
ag2555
ag2572
ag2576
ag2600
ag2610
ag2627
ag2638
ag2646
ag2660
ag2681
ag2693
ag2705
ag2729
ag2737
ag2758
ag2766
ag2782
ag2791
ag2814
ag2822
ag2849
ag2866
ag2871
ag2877
ag2907
ag2923
ag2944
ag2962
ag2991
ag3000
ag3021
ag3053
ag3077
ag3107
ag3163
ag3174
ag3181
ag3197
ag3228
ag3235
ag3262
ag3282
ag3289
ag3301
ag3313
ag3321
ag3340
ag3353
ag3360
ag3367
ag3375
ag3382
ag3393
ag3404
ag3417
ag3442
ag3472
ag3503
ag3508
ag3519
ag3523
ag3541
ag3564
ag3592
ag3605
ag3616
ag3628
ag3636
ag3652
ag3673
ag3682
ag3690
ag3699
ag3718
ag3726
ag3733
ag3744
ag3755
ag3766
ag3774
ag3809
ag3837
ag3865
ag3871
ag3881
asS'lines'
p4286
(lp4287
VAttitude!\u000a
p4288
aVChloe cracks me up! Last night was like many nights we have. Blake goes to bed before I do because he is up so much earlier. Sometimes Chloe will go with him but last night she stayed with me. She made it clear that she didn\u2019t want to stay with me though. She kept going to the bedroom door and whining then running back to me and poking me with her nose. So finally I let her in the room. I really didn\u2019t want her on the bed but I let her snuggle with him anyway! She has to be under the blankets to be happy, she is so funny.\u000a
p4289
aVWhen I was ready for bed I came in and like a meany kicked her out of the bed. She likes to snunngle so close that I just can\u2019t handle it while I am pregnant. She gets such an attitude over this that I almost laugh out load! She will walk from my side to Blake\u2019s side trying to get back on the bed. I tell her to go lay down and she quickly runs to her bed and starts kicking it around. She will huff and puff and throw herself down really loudly. Then she starts groaning and moaning like it is just sooooo terrible to have to lay on this big nice bed she has.\u000a
p4290
aVShe will get up and go through this routine a few times before she will finally give up. I just wonder if she has more attitude than most Weims or if they all typically have this?\u000a
p4291
aVThis is not the only way she gives attitude. She also does it when she wants water. She will just go up to her empty dish and smack it really hard. Then she comes and gives us a really dirty look. Of course I refuse to give her what she wants when she is so demanding. Then she will get mad and go lay down and groan. She is so vocal about what she wants. She doesn\u2019t bark for hardly anything. Her noises are more like a bratty teenage girl!\u000a
p4292
aVAfter we get a video camera I hope to get her acting like this! It is just so funny.\u000a
p4293
aVDo you have a Weim? If so do they give attitude like this?
p4294
asS'docType'
p4295
S'src'
p4296
sS'newfmap'
p4297
(lp4298
g4
ag8
ag10
ag12
ag14
ag17
ag19
ag21
ag23
ag26
ag28
ag30
ag32
ag35
ag37
ag39
ag41
ag44
ag46
ag48
ag50
ag53
ag55
ag57
ag59
ag62
ag64
ag66
ag68
ag71
ag73
ag75
ag77
ag80
ag82
ag84
ag86
ag89
ag91
ag93
ag95
ag98
ag100
ag102
ag104
ag107
ag109
ag111
ag113
ag116
ag118
ag120
ag122
ag125
ag127
ag129
ag131
ag134
ag136
ag138
ag140
ag143
ag145
ag147
ag149
ag152
ag154
ag156
ag158
ag161
ag163
ag165
ag167
ag170
ag172
ag174
ag176
ag179
ag181
ag183
ag185
ag188
ag190
ag192
ag194
ag197
ag199
ag201
ag203
ag206
ag208
ag210
ag212
ag215
ag217
ag219
ag221
ag224
ag226
ag228
ag230
ag233
ag235
ag237
ag239
ag242
ag244
ag246
ag248
ag251
ag253
ag255
ag257
ag260
ag262
ag264
ag266
ag269
ag271
ag273
ag275
ag278
ag280
ag282
ag284
ag287
ag289
ag291
ag293
ag296
ag298
ag300
ag302
ag305
ag307
ag309
ag311
ag314
ag316
ag318
ag320
ag323
ag325
ag327
ag329
ag332
ag334
ag336
ag338
ag341
ag343
ag345
ag347
ag350
ag352
ag354
ag356
ag359
ag361
ag363
ag365
ag368
ag370
ag372
ag374
ag377
ag379
ag381
ag383
ag386
ag388
ag390
ag392
ag395
ag397
ag399
ag401
ag404
ag406
ag408
ag410
ag413
ag415
ag417
ag419
ag422
ag424
ag426
ag428
ag431
ag433
ag435
ag437
ag440
ag442
ag444
ag446
ag449
ag451
ag453
ag455
ag458
ag460
ag462
ag464
ag467
ag469
ag471
ag473
ag476
ag478
ag480
ag482
ag485
ag487
ag489
ag491
ag494
ag496
ag498
ag500
ag503
ag505
ag507
ag509
ag512
ag514
ag516
ag518
ag521
ag523
ag525
ag527
ag530
ag532
ag534
ag536
ag539
ag541
ag543
ag545
ag548
ag550
ag552
ag554
ag557
ag559
ag561
ag563
ag566
ag568
ag570
ag572
ag575
ag577
ag579
ag581
ag584
ag586
ag588
ag590
ag593
ag595
ag597
ag599
ag602
ag604
ag606
ag608
ag611
ag613
ag615
ag617
ag620
ag622
ag624
ag626
ag629
ag631
ag633
ag635
ag638
ag640
ag642
ag644
ag647
ag649
ag651
ag653
ag656
ag658
ag660
ag662
ag665
ag667
ag669
ag671
ag674
ag676
ag678
ag680
ag683
ag685
ag687
ag689
ag692
ag694
ag696
ag698
ag701
ag703
ag705
ag707
ag710
ag712
ag714
ag716
ag719
ag721
ag723
ag725
ag728
ag730
ag732
ag734
ag737
ag739
ag741
ag743
ag746
ag748
ag750
ag752
ag755
ag757
ag759
ag761
ag764
ag766
ag768
ag770
ag773
ag775
ag777
ag779
ag782
ag784
ag786
ag788
ag791
ag793
ag795
ag797
ag800
ag802
ag804
ag806
ag809
ag811
ag813
ag815
ag818
ag820
ag822
ag824
ag827
ag829
ag831
ag833
ag836
ag838
ag840
ag842
ag845
ag847
ag849
ag851
ag854
ag856
ag858
ag860
ag863
ag865
ag867
ag869
ag872
ag874
ag876
ag878
ag881
ag883
ag885
ag887
ag890
ag892
ag894
ag896
ag899
ag901
ag903
ag905
ag908
ag910
ag912
ag914
ag917
ag919
ag921
ag923
ag926
ag928
ag930
ag932
ag935
ag937
ag939
ag941
ag944
ag946
ag948
ag950
ag953
ag955
ag957
ag959
ag962
ag964
ag966
ag968
ag971
ag973
ag975
ag977
ag980
ag982
ag984
ag986
ag989
ag991
ag993
ag995
ag998
ag1000
ag1002
ag1004
ag1007
ag1009
ag1011
ag1013
ag1016
ag1018
ag1020
ag1022
ag1025
ag1027
ag1029
ag1031
ag1034
ag1036
ag1038
ag1040
ag1043
ag1045
ag1047
ag1049
ag1052
ag1054
ag1056
ag1058
ag1061
ag1063
ag1065
ag1067
ag1070
ag1072
ag1074
ag1076
ag1079
ag1081
ag1083
ag1085
ag1088
ag1090
ag1092
ag1094
ag1097
ag1099
ag1101
ag1103
ag1106
ag1108
ag1110
ag1112
ag1115
ag1117
ag1119
ag1121
ag1124
ag1126
ag1128
ag1130
ag1133
ag1135
ag1137
ag1139
ag1142
ag1144
ag1146
ag1148
ag1151
ag1153
ag1155
ag1157
ag1160
ag1162
ag1164
ag1166
ag1169
ag1171
ag1173
ag1175
ag1178
ag1180
ag1182
ag1184
ag1187
ag1189
ag1191
ag1193
ag1196
ag1198
ag1200
ag1202
ag1205
ag1207
ag1209
ag1211
ag1214
ag1216
ag1218
ag1220
ag1223
ag1225
ag1227
ag1229
ag1232
ag1234
ag1236
ag1238
ag1241
ag1243
ag1245
ag1247
ag1250
ag1252
ag1254
ag1256
ag1259
ag1261
ag1263
ag1265
ag1268
ag1270
ag1272
ag1274
ag1277
ag1279
ag1281
ag1283
ag1286
ag1288
ag1290
ag1292
ag1295
ag1297
ag1299
ag1301
ag1304
ag1306
ag1308
ag1310
ag1313
ag1315
ag1317
ag1319
ag1322
ag1324
ag1326
ag1328
ag1331
ag1333
ag1335
ag1337
ag1340
ag1342
ag1344
ag1346
ag1349
ag1351
ag1353
ag1355
ag1358
ag1360
ag1362
ag1364
ag1367
ag1369
ag1371
ag1373
ag1376
ag1378
ag1380
ag1382
ag1385
ag1387
ag1389
ag1391
ag1394
ag1396
ag1398
ag1400
ag1403
ag1405
ag1407
ag1409
ag1412
ag1414
ag1416
ag1418
ag1421
ag1423
ag1425
asS'featureMap'
p4299
(lp4300
(lp4301
I0
aI7
ag5
ag6
ag9
ag11
ag13
aa(lp4302
I10
aI14
ag15
ag16
ag18
ag20
ag22
aa(lp4303
I16
aI21
ag24
ag25
ag27
ag29
ag31
aa(lp4304
I30
aI33
ag33
ag34
ag36
ag38
ag40
aa(lp4305
I35
aI39
ag42
ag43
ag45
ag47
ag49
aa(lp4306
I45
aI48
ag51
ag52
ag54
ag56
ag58
aa(lp4307
I50
aI53
ag60
ag61
ag63
ag65
ag67
aa(lp4308
I55
aI60
ag69
ag70
ag72
ag74
ag76
aa(lp4309
I71
aI75
ag78
ag79
ag81
ag83
ag85
aa(lp4310
I77
aI80
ag87
ag88
ag90
ag92
ag94
aa(lp4311
I85
aI87
ag96
ag97
ag99
ag101
ag103
aa(lp4312
I121
aI124
ag105
ag106
ag108
ag110
ag112
aa(lp4313
I126
aI132
ag114
ag115
ag117
ag119
ag121
aa(lp4314
I135
aI143
ag123
ag124
ag126
ag128
ag130
aa(lp4315
I145
aI149
ag132
ag133
ag135
ag137
ag139
aa(lp4316
I156
aI157
ag141
ag142
ag144
ag146
ag148
aa(lp4317
I172
aI175
ag150
ag151
ag153
ag155
ag157
aa(lp4318
I177
aI181
ag159
ag160
ag162
ag164
ag166
aa(lp4319
I187
aI192
ag168
ag169
ag171
ag173
ag175
aa(lp4320
I207
aI210
ag177
ag178
ag180
ag182
ag184
aa(lp4321
I215
aI219
ag186
ag187
ag189
ag191
ag193
aa(lp4322
I230
aI237
ag195
ag196
ag198
ag200
ag202
aa(lp4323
I239
aI242
ag204
ag205
ag207
ag209
ag211
aa(lp4324
I247
aI250
ag213
ag214
ag216
ag218
ag220
aa(lp4325
I260
aI265
ag222
ag223
ag225
ag227
ag229
aa(lp4326
I272
aI275
ag231
ag232
ag234
ag236
ag238
aa(lp4327
I277
aI281
ag240
ag241
ag243
ag245
ag247
aa(lp4328
I290
aI296
ag249
ag250
ag252
ag254
ag256
aa(lp4329
I298
aI301
ag258
ag259
ag261
ag263
ag265
aa(lp4330
I307
aI313
ag267
ag268
ag270
ag272
ag274
aa(lp4331
I320
aI326
ag276
ag277
ag279
ag281
ag283
aa(lp4332
I328
aI331
ag285
ag286
ag288
ag290
ag292
aa(lp4333
I343
aI348
ag294
ag295
ag297
ag299
ag301
aa(lp4334
I362
aI365
ag303
ag304
ag306
ag308
ag310
aa(lp4335
I371
aI377
ag312
ag313
ag315
ag317
ag319
aa(lp4336
I381
aI383
ag321
ag322
ag324
ag326
ag328
aa(lp4337
I396
aI399
ag330
ag331
ag333
ag335
ag337
aa(lp4338
I404
aI409
ag339
ag340
ag342
ag344
ag346
aa(lp4339
I411
aI418
ag348
ag349
ag351
ag353
ag355
aa(lp4340
I420
aI423
ag357
ag358
ag360
ag362
ag364
aa(lp4341
I436
aI438
ag366
ag367
ag369
ag371
ag373
aa(lp4342
I446
aI448
ag375
ag376
ag378
ag380
ag382
aa(lp4343
I454
aI460
ag384
ag385
ag387
ag389
ag391
aa(lp4344
I471
aI476
ag393
ag394
ag396
ag398
ag400
aa(lp4345
I503
aI510
ag402
ag403
ag405
ag407
ag409
aa(lp4346
I518
aI522
ag411
ag412
ag414
ag416
ag418
aa(lp4347
I535
aI539
ag420
ag421
ag423
ag425
ag427
aa(lp4348
I553
aI557
ag429
ag430
ag432
ag434
ag436
aa(lp4349
I563
aI565
ag438
ag439
ag441
ag443
ag445
aa(lp4350
I569
aI572
ag447
ag448
ag450
ag452
ag454
aa(lp4351
I581
aI584
ag456
ag457
ag459
ag461
ag463
aa(lp4352
I588
aI592
ag465
ag466
ag468
ag470
ag472
aa(lp4353
I594
aI599
ag474
ag475
ag477
ag479
ag481
aa(lp4354
I616
aI618
ag483
ag484
ag486
ag488
ag490
aa(lp4355
I625
aI629
ag492
ag493
ag495
ag497
ag499
aa(lp4356
I634
aI641
ag501
ag502
ag504
ag506
ag508
aa(lp4357
I646
aI650
ag510
ag511
ag513
ag515
ag517
aa(lp4358
I664
aI670
ag519
ag520
ag522
ag524
ag526
aa(lp4359
I672
aI677
ag528
ag529
ag531
ag533
ag535
aa(lp4360
I693
aI700
ag537
ag538
ag540
ag542
ag544
aa(lp4361
I707
aI710
ag546
ag547
ag549
ag551
ag553
aa(lp4362
I720
aI727
ag555
ag556
ag558
ag560
ag562
aa(lp4363
I746
aI751
ag564
ag565
ag567
ag569
ag571
aa(lp4364
I753
aI757
ag573
ag574
ag576
ag578
ag580
aa(lp4365
I763
aI766
ag582
ag583
ag585
ag587
ag589
aa(lp4366
I778
aI781
ag591
ag592
ag594
ag596
ag598
aa(lp4367
I791
aI794
ag600
ag601
ag603
ag605
ag607
aa(lp4368
I799
aI807
ag609
ag610
ag612
ag614
ag616
aa(lp4369
I809
aI812
ag618
ag619
ag621
ag623
ag625
aa(lp4370
I814
aI819
ag627
ag628
ag630
ag632
ag634
aa(lp4371
I824
aI826
ag636
ag637
ag639
ag641
ag643
aa(lp4372
I828
aI831
ag645
ag646
ag648
ag650
ag652
aa(lp4373
I840
aI842
ag654
ag655
ag657
ag659
ag661
aa(lp4374
I847
aI850
ag663
ag664
ag666
ag668
ag670
aa(lp4375
I859
aI860
ag672
ag673
ag675
ag677
ag679
aa(lp4376
I862
aI864
ag681
ag682
ag684
ag686
ag688
aa(lp4377
I879
aI885
ag690
ag691
ag693
ag695
ag697
aa(lp4378
I887
aI890
ag699
ag700
ag702
ag704
ag706
aa(lp4379
I899
aI901
ag708
ag709
ag711
ag713
ag715
aa(lp4380
I907
aI912
ag717
ag718
ag720
ag722
ag724
aa(lp4381
I914
aI920
ag726
ag727
ag729
ag731
ag733
aa(lp4382
I925
aI930
ag735
ag736
ag738
ag740
ag742
aa(lp4383
I942
aI945
ag744
ag745
ag747
ag749
ag751
aa(lp4384
I951
aI954
ag753
ag754
ag756
ag758
ag760
aa(lp4385
I960
aI964
ag762
ag763
ag765
ag767
ag769
aa(lp4386
I979
aI984
ag771
ag772
ag774
ag776
ag778
aa(lp4387
I986
aI991
ag780
ag781
ag783
ag785
ag787
aa(lp4388
I1003
aI1008
ag789
ag790
ag792
ag794
ag796
aa(lp4389
I1010
aI1017
ag798
ag799
ag801
ag803
ag805
aa(lp4390
I1023
aI1029
ag807
ag808
ag810
ag812
ag814
aa(lp4391
I1031
aI1034
ag816
ag817
ag819
ag821
ag823
aa(lp4392
I1047
aI1052
ag825
ag826
ag828
ag830
ag832
aa(lp4393
I1054
aI1061
ag834
ag835
ag837
ag839
ag841
aa(lp4394
I1074
aI1076
ag843
ag844
ag846
ag848
ag850
aa(lp4395
I1086
aI1088
ag852
ag853
ag855
ag857
ag859
aa(lp4396
I1090
aI1093
ag861
ag862
ag864
ag866
ag868
aa(lp4397
I1095
aI1097
ag870
ag871
ag873
ag875
ag877
aa(lp4398
I1117
aI1119
ag879
ag880
ag882
ag884
ag886
aa(lp4399
I1128
aI1129
ag888
ag889
ag891
ag893
ag895
aa(lp4400
I1144
aI1150
ag897
ag898
ag900
ag902
ag904
aa(lp4401
I1158
aI1162
ag906
ag907
ag909
ag911
ag913
aa(lp4402
I1180
aI1186
ag915
ag916
ag918
ag920
ag922
aa(lp4403
I1188
aI1191
ag924
ag925
ag927
ag929
ag931
aa(lp4404
I1204
aI1209
ag933
ag934
ag936
ag938
ag940
aa(lp4405
I1227
aI1234
ag942
ag943
ag945
ag947
ag949
aa(lp4406
I1246
aI1250
ag951
ag952
ag954
ag956
ag958
aa(lp4407
I1267
aI1275
ag960
ag961
ag963
ag965
ag967
aa(lp4408
I1309
aI1311
ag969
ag970
ag972
ag974
ag976
aa(lp4409
I1317
aI1321
ag978
ag979
ag981
ag983
ag985
aa(lp4410
I1323
aI1330
ag987
ag988
ag990
ag992
ag994
aa(lp4411
I1337
aI1340
ag996
ag997
ag999
ag1001
ag1003
aa(lp4412
I1359
aI1363
ag1005
ag1006
ag1008
ag1010
ag1012
aa(lp4413
I1365
aI1369
ag1014
ag1015
ag1017
ag1019
ag1021
aa(lp4414
I1386
aI1387
ag1023
ag1024
ag1026
ag1028
ag1030
aa(lp4415
I1399
aI1403
ag1032
ag1033
ag1035
ag1037
ag1039
aa(lp4416
I1405
aI1408
ag1041
ag1042
ag1044
ag1046
ag1048
aa(lp4417
I1414
aI1418
ag1050
ag1051
ag1053
ag1055
ag1057
aa(lp4418
I1423
aI1428
ag1059
ag1060
ag1062
ag1064
ag1066
aa(lp4419
I1430
aI1433
ag1068
ag1069
ag1071
ag1073
ag1075
aa(lp4420
I1445
aI1449
ag1077
ag1078
ag1080
ag1082
ag1084
aa(lp4421
I1455
aI1459
ag1086
ag1087
ag1089
ag1091
ag1093
aa(lp4422
I1461
aI1462
ag1095
ag1096
ag1098
ag1100
ag1102
aa(lp4423
I1466
aI1471
ag1104
ag1105
ag1107
ag1109
ag1111
aa(lp4424
I1473
aI1477
ag1113
ag1114
ag1116
ag1118
ag1120
aa(lp4425
I1479
aI1482
ag1122
ag1123
ag1125
ag1127
ag1129
aa(lp4426
I1488
aI1493
ag1131
ag1132
ag1134
ag1136
ag1138
aa(lp4427
I1497
aI1502
ag1140
ag1141
ag1143
ag1145
ag1147
aa(lp4428
I1507
aI1510
ag1149
ag1150
ag1152
ag1154
ag1156
aa(lp4429
I1525
aI1529
ag1158
ag1159
ag1161
ag1163
ag1165
aa(lp4430
I1546
aI1554
ag1167
ag1168
ag1170
ag1172
ag1174
aa(lp4431
I1571
aI1573
ag1176
ag1177
ag1179
ag1181
ag1183
aa(lp4432
I1575
aI1577
ag1185
ag1186
ag1188
ag1190
ag1192
aa(lp4433
I1583
aI1584
ag1194
ag1195
ag1197
ag1199
ag1201
aa(lp4434
I1586
aI1588
ag1203
ag1204
ag1206
ag1208
ag1210
aa(lp4435
I1599
aI1603
ag1212
ag1213
ag1215
ag1217
ag1219
aa(lp4436
I1616
aI1620
ag1221
ag1222
ag1224
ag1226
ag1228
aa(lp4437
I1637
aI1641
ag1230
ag1231
ag1233
ag1235
ag1237
aa(lp4438
I1648
aI1656
ag1239
ag1240
ag1242
ag1244
ag1246
aa(lp4439
I1658
aI1661
ag1248
ag1249
ag1251
ag1253
ag1255
aa(lp4440
I1667
aI1672
ag1257
ag1258
ag1260
ag1262
ag1264
aa(lp4441
I1674
aI1681
ag1266
ag1267
ag1269
ag1271
ag1273
aa(lp4442
I1688
aI1693
ag1275
ag1276
ag1278
ag1280
ag1282
aa(lp4443
I1704
aI1707
ag1284
ag1285
ag1287
ag1289
ag1291
aa(lp4444
I1711
aI1716
ag1293
ag1294
ag1296
ag1298
ag1300
aa(lp4445
I1718
aI1724
ag1302
ag1303
ag1305
ag1307
ag1309
aa(lp4446
I1726
aI1729
ag1311
ag1312
ag1314
ag1316
ag1318
aa(lp4447
I1741
aI1743
ag1320
ag1321
ag1323
ag1325
ag1327
aa(lp4448
I1747
aI1751
ag1329
ag1330
ag1332
ag1334
ag1336
aa(lp4449
I1753
aI1758
ag1338
ag1339
ag1341
ag1343
ag1345
aa(lp4450
I1762
aI1765
ag1347
ag1348
ag1350
ag1352
ag1354
aa(lp4451
I1770
aI1772
ag1356
ag1357
ag1359
ag1361
ag1363
aa(lp4452
I1778
aI1783
ag1365
ag1366
ag1368
ag1370
ag1372
aa(lp4453
I1785
aI1788
ag1374
ag1375
ag1377
ag1379
ag1381
aa(lp4454
I1810
aI1814
ag1383
ag1384
ag1386
ag1388
ag1390
aa(lp4455
I1831
aI1834
ag1392
ag1393
ag1395
ag1397
ag1399
aa(lp4456
I1851
aI1854
ag1401
ag1402
ag1404
ag1406
ag1408
aa(lp4457
I1856
aI1863
ag1410
ag1411
ag1413
ag1415
ag1417
aa(lp4458
I1865
aI1868
ag1419
ag1420
ag1422
ag1424
ag1426
aasS'characterMap'
p4459
(lp4460
g1431
ag1433
ag1435
ag1436
ag1438
ag1439
ag1441
ag1443
a(lp4461
I8
aS'!'
p4462
aag3896
ag1447
ag1449
ag1451
ag1453
ag1455
ag3898
ag1458
ag1459
ag1461
ag1462
ag1463
ag1465
ag3899
ag1470
ag1472
ag3900
ag1476
ag1477
a(lp4463
I28
ag4462
aag3901
ag1481
ag1482
ag1483
ag1484
ag3902
ag1487
ag1489
ag1490
ag1492
ag1493
ag3903
ag1497
ag1499
ag1500
ag3904
ag1503
ag1504
ag1505
ag1506
ag3905
ag1509
ag1510
ag1511
ag1512
ag3906
ag1516
ag1517
ag1518
ag1519
ag1520
ag1521
ag3907
ag1525
ag1526
ag3908
ag1530
ag1531
ag1532
ag1534
a(lp4464
I69
aS'.'
p4465
aag3909
ag1537
ag1539
ag1540
ag1541
ag1542
ag3910
ag1545
ag1546
ag1547
ag1548
ag3911
ag1552
ag1553
ag3912
ag1556
ag1557
ag1558
ag3913
ag1562
ag1563
ag1564
ag1566
ag1567
ag1568
ag3914
ag1571
ag3915
ag1575
ag1576
ag3916
ag1580
ag1581
ag1582
ag1583
ag1584
ag1585
ag1586
ag3917
ag1590
ag1591
ag3918
ag1595
ag1596
ag3919
ag1600
ag1601
ag3920
ag1605
ag1606
ag3921
ag1609
ag1610
ag1611
ag1612
ag3922
ag1615
ag1616
ag1617
ag1618
ag1619
ag1620
ag1621
a(lp4466
I133
ag4465
aag3923
ag1624
ag1625
ag1626
ag1627
ag1628
ag1629
ag1630
ag1631
ag1632
ag3924
ag1635
ag1636
ag1637
ag1638
ag1639
ag3925
ag1643
ag1644
ag1645
ag1646
ag3926
ag1649
ag1650
ag3927
ag1654
ag1655
ag1656
ag1657
ag3928
ag1661
ag1662
ag1663
ag3929
ag1667
ag1668
ag1669
ag3930
ag1672
ag1673
ag1674
ag1675
ag3931
ag1678
ag1679
ag1680
ag1681
ag1682
ag3932
ag1686
ag1687
ag1688
ag3933
ag1691
ag1692
ag1693
ag1694
ag1695
ag1696
ag3934
ag1700
ag1701
ag1702
ag1703
ag3935
ag1707
ag1708
a(lp4467
I201
ag4465
aag3936
ag1712
ag1713
ag1714
ag3937
ag1717
ag1718
ag1719
ag1720
ag3938
ag1724
ag1725
ag3939
ag1728
ag1729
ag1730
ag1731
ag1732
ag3940
ag1736
ag1737
ag1738
ag1739
ag3941
ag1743
ag1744
ag1745
ag3942
ag1748
ag1749
ag1750
ag1751
ag1752
ag1754
ag1756
ag1758
ag3943
ag1761
ag1762
ag1763
ag1764
ag3944
ag1768
ag1769
ag3945
ag1772
ag1773
ag1774
ag1775
ag3946
ag1779
ag1780
ag1781
ag1782
ag3947
ag1786
ag1787
ag3948
ag1790
ag1791
ag1792
ag1793
ag1794
ag1795
a(lp4468
I266
ag4465
aag3949
ag1799
ag1800
ag1801
ag3950
ag1804
ag1805
ag1806
ag1807
ag3951
ag1810
ag1811
ag1812
ag1813
ag1814
ag3952
ag1818
ag1819
ag3953
ag1823
ag1824
ag1825
ag3954
ag1828
ag1829
ag1830
ag1831
ag1832
ag1833
ag1834
ag3955
ag1837
ag1838
ag1839
ag1840
ag3956
ag1844
ag1845
ag1846
ag3957
ag1849
ag1850
ag1851
ag1852
ag1853
ag1854
ag1855
ag3958
ag1859
ag1860
ag1861
ag1862
ag3959
ag1865
ag1866
ag1867
ag1868
ag1869
ag1870
ag1871
ag3960
ag1874
ag1875
ag1876
ag1877
ag3961
ag1881
ag1882
ag3962
ag1886
ag1887
ag3963
ag1891
ag1892
ag1893
ag3964
ag1896
ag1897
ag1898
ag1899
ag1900
ag1901
ag3965
ag1905
ag1906
ag3966
ag1910
ag1911
ag1912
ag1913
ag3967
ag1917
ag1918
ag1919
ag3968
ag1922
ag1923
ag1924
ag1925
a(lp4469
I366
ag4465
aag3969
ag1929
ag1930
ag3970
ag1933
ag1934
ag1935
ag1936
ag1937
ag1938
ag1939
ag3971
ag1942
ag3972
ag1945
ag1946
ag1947
ag3973
ag1951
ag1952
ag1953
ag3974
ag1957
ag1958
ag3975
ag1962
ag1963
ag1964
ag3976
ag1967
ag1968
ag1969
ag1970
a(lp4470
I400
ag4465
aag3977
ag1973
ag3978
ag1976
ag1977
ag1978
ag1979
ag1980
ag1981
ag3979
ag1984
ag1985
ag1986
ag1987
ag1988
ag1989
ag1990
ag1991
ag3980
ag1994
ag1995
ag1996
ag1997
ag3981
ag2001
ag2002
ag2003
ag3982
ag2007
ag2008
ag3983
ag2012
ag2013
ag2014
ag3984
ag2017
ag2018
ag2019
ag3985
ag2023
ag2024
ag2025
ag3986
ag2028
ag3987
ag2031
ag2032
ag2033
ag3988
ag2037
ag2038
ag2039
ag3989
ag2042
ag2043
ag2044
ag2045
ag2046
ag2047
ag2048
ag3990
ag2052
ag2053
ag2054
ag2055
ag3991
ag2059
ag2060
ag2061
ag3992
ag2064
ag2065
ag2066
ag2067
ag2068
ag2069
a(lp4471
I477
ag4462
aag3993
ag2073
ag2074
ag2075
ag3994
ag2079
ag2080
ag2081
ag3995
ag2085
ag2086
ag3996
ag2090
ag2091
ag3997
ag2095
ag2096
ag2097
ag2098
ag2099
ag3998
ag2103
ag2104
ag2105
ag3999
ag2108
ag2109
ag2110
ag2111
ag2112
ag2113
ag2114
ag2115
ag4000
ag2119
ag2120
ag4001
ag2124
ag2125
ag4002
ag2128
ag2129
ag2130
ag2131
ag2132
a(lp4472
I523
aS','
p4473
aag4003
ag2136
ag2137
ag2138
ag4004
ag2142
ag2143
ag4005
ag2147
ag2148
ag4006
ag2151
ag2152
ag2153
ag2154
ag2155
a(lp4474
I540
ag4465
aag4007
ag2159
ag2160
ag2161
ag2162
ag4008
ag2165
ag4009
ag2169
ag2170
ag2171
ag4010
ag2174
ag2175
ag2176
ag2177
ag2178
ag4011
ag2182
ag2183
ag2184
ag4012
ag2187
ag2188
ag2189
ag4013
ag2192
ag4014
ag2195
ag2196
ag2197
ag2198
ag4015
ag2202
ag2203
ag4016
ag2207
ag2208
ag2209
ag4017
ag2212
ag2213
ag2214
ag2215
ag4018
ag2218
ag4019
ag2221
ag2222
ag2223
ag2224
ag2225
ag4020
ag2228
ag2229
ag2230
ag2231
ag2232
ag2233
ag4021
ag2237
ag2238
ag2239
ag4022
ag2243
ag2244
ag2245
ag4023
ag2249
ag2250
ag4024
ag2254
ag2255
ag2256
ag4025
ag2259
ag2260
ag2261
a(lp4475
I619
ag4465
aag4026
ag2265
ag2266
ag2267
ag4027
ag2270
ag2271
ag2272
ag2273
ag2274
ag4028
ag2278
ag2279
ag4029
ag2282
ag2283
ag2284
ag2285
ag2286
ag2287
ag2288
ag2289
ag4030
ag2293
ag2294
ag4031
ag2297
ag2298
ag2299
ag2300
ag2301
ag4032
ag2305
ag2306
ag2307
ag2308
ag4033
ag2311
ag4034
ag2315
ag2317
ag2318
ag2319
ag4035
ag2322
ag2323
ag2324
ag2325
ag2326
ag2327
ag2328
ag4036
ag2331
ag2332
ag2333
ag2334
ag2335
ag2336
ag4037
ag2340
ag2341
ag4038
ag2345
ag2346
ag2347
ag2348
ag2349
ag4039
ag2352
ag4040
ag2356
ag2357
ag4041
ag2360
ag2361
ag2362
ag2363
ag2364
ag2365
ag2366
ag2367
a(lp4476
I701
ag4465
aag4042
ag2371
ag2372
ag2373
ag4043
ag2376
ag2377
ag2378
ag2379
ag4044
ag2383
ag2384
ag2385
ag2386
ag4045
ag2390
ag2391
ag4046
ag2394
ag2395
ag2396
ag2397
ag2398
ag2399
ag2400
ag2401
ag4047
ag2405
ag2406
ag2407
ag2408
ag4048
ag2412
ag2413
ag2414
ag2415
ag4049
ag2419
ag2420
ag2421
ag2422
ag4050
ag2425
ag4051
ag2428
ag2429
ag2430
ag2431
ag2432
ag2433
ag4052
ag2436
ag2437
ag2438
ag2439
ag2440
ag4053
ag2444
ag2445
ag2446
ag4054
ag2449
ag2450
ag2451
ag2452
a(lp4477
I767
ag4462
aag4055
ag2456
ag2457
ag2458
ag4056
ag2462
ag2463
ag2464
ag2465
ag4057
ag2468
ag2469
ag2470
ag2471
ag4058
ag2475
ag2476
ag2477
ag2478
ag4059
ag2482
ag2483
ag4060
ag2486
ag2487
ag2488
ag2489
ag4061
ag2493
ag2494
ag4062
ag2497
ag2498
ag2499
ag2500
ag2501
ag2502
ag2503
ag2504
ag2505
ag4063
ag2508
ag2509
ag2510
ag2511
ag4064
ag2514
ag2515
ag2516
ag2517
ag2518
ag2519
ag4065
ag2523
ag2524
ag4066
ag2527
ag2528
ag2529
ag4067
ag2532
ag2533
ag2534
ag2535
ag4068
ag2539
ag2540
ag4069
ag2544
ag2545
ag2546
ag4070
ag2549
ag2550
ag2551
a(lp4478
I843
ag4465
aag4071
ag2554
ag4072
ag2557
ag2558
ag2559
ag2560
ag4073
ag2564
ag2565
ag2566
ag4074
ag2570
ag2571
ag4075
ag2574
ag2575
ag4076
ag2578
ag2579
ag2580
ag4077
ag2584
ag2585
ag2586
ag2587
ag4078
ag2591
ag2592
ag2593
ag4079
ag2597
ag2598
ag2599
ag4080
ag2602
ag2604
ag2605
ag2606
ag2607
ag2608
ag2609
ag4081
ag2612
ag2613
ag2614
ag2615
ag4082
ag2619
ag2620
ag4083
ag2624
ag2625
ag2626
ag4084
ag2629
ag2630
ag2631
ag4085
ag2635
ag2636
ag2637
ag4086
ag2640
ag2641
ag2642
ag2643
ag2644
ag2645
ag4087
ag2648
ag2649
ag2650
ag2651
ag2652
ag2653
ag2654
ag4088
ag2658
ag2659
ag4089
ag2662
ag2663
ag2664
ag2665
ag2666
ag2667
a(lp4479
I931
ag4465
aag4090
ag2671
ag2672
ag2673
ag4091
ag2677
ag2678
ag2679
ag2680
ag4092
ag2683
ag2684
ag2685
ag2686
ag4093
ag2690
ag2691
ag2692
ag4094
ag2695
ag2696
ag2697
ag2698
ag4095
ag2702
ag2703
ag2704
ag4096
ag2707
ag2708
ag2709
ag2710
ag2711
ag4097
ag2715
ag2716
ag2717
ag2718
ag2719
ag2720
ag2721
ag4098
ag2725
ag2726
ag2727
ag2728
ag4099
ag2731
ag2732
ag2733
ag2734
ag2735
ag2736
ag4100
ag2739
ag2740
ag2741
ag2742
ag2743
ag2744
a(lp4480
I992
ag4465
aag4101
ag2748
ag2749
ag2750
ag2751
ag4102
ag2755
ag2756
ag2757
ag4103
ag2760
ag2761
ag2762
ag2763
ag2764
ag2765
ag4104
ag2768
ag2769
ag2770
ag2771
ag2772
ag2773
ag2774
ag2775
ag4105
ag2779
ag2780
ag2781
ag4106
ag2784
ag2785
ag2786
ag2787
ag2788
ag2789
ag2790
ag4107
ag2793
ag2794
ag2795
ag2796
ag4108
ag2800
ag2801
ag4109
ag2805
ag2806
ag4110
ag2810
ag2811
ag2812
ag2813
ag4111
ag2816
ag2817
ag2818
ag2819
ag2820
ag2821
ag4112
ag2824
ag2825
ag2826
ag2827
ag2828
ag2829
ag2830
ag2831
ag4113
ag2835
ag2836
ag4114
ag2840
ag2841
ag2842
ag2843
ag4115
ag2847
ag2848
ag4116
ag2851
ag2852
ag2853
ag4117
ag2857
ag2858
ag4118
ag2862
ag2863
ag2864
ag2865
ag4119
ag2868
ag2869
ag2870
ag4120
ag2873
ag2874
ag2875
ag2876
ag4121
ag2879
ag2880
ag2881
ag4122
ag2885
ag2886
ag2887
ag4123
ag2891
ag2892
ag2893
a(lp4481
I1106
ag4465
aag4124
ag2897
ag2898
ag2899
ag4125
ag2903
ag2904
ag2905
ag2906
ag4126
ag2909
ag2910
ag2911
ag4127
ag2915
ag2916
ag4128
ag2920
ag2921
ag2922
ag4129
ag2925
ag2926
ag4130
ag2930
ag2931
ag2932
ag2933
ag2934
ag2935
ag2936
ag4131
ag2940
ag2941
ag2942
ag2943
ag4132
ag2946
ag2947
ag2948
ag2949
ag2950
ag2951
ag2952
ag4133
ag2955
ag4134
ag2959
ag2960
ag2961
ag4135
ag2964
ag2965
ag2966
ag2967
ag2968
ag4136
ag2972
ag2973
ag2974
ag2975
ag2976
ag2977
ag4137
ag2981
ag2982
ag2983
ag4138
ag2987
ag2988
ag2989
ag2990
ag4139
ag2993
ag2994
ag2995
ag2996
ag2997
ag2998
ag2999
ag4140
ag3002
ag3003
ag3004
ag3005
ag4141
ag3009
ag3010
a(lp4482
I1195
ag4465
aag4142
ag3013
ag4143
ag3017
ag3018
ag3019
ag3020
ag4144
ag3023
ag3024
ag3025
ag3026
ag3027
ag3028
ag4145
ag3032
ag3033
ag4146
ag3037
ag3038
ag3039
ag4147
ag3043
ag3044
ag3045
ag4148
ag3049
ag3050
ag3051
ag3052
ag4149
ag3055
ag3056
ag3057
ag3058
ag3059
ag3060
ag3061
ag3062
ag4150
ag3066
ag3067
ag3068
ag3069
ag4151
ag3073
ag3074
ag3075
ag3076
ag4152
ag3079
ag3080
ag3081
ag3082
ag3083
ag4153
ag3087
ag3088
ag4154
ag3092
ag3093
ag4155
ag3097
ag3098
ag3099
ag3100
ag4156
ag3104
ag3105
ag3106
ag4157
ag3109
ag3110
ag3111
ag3112
ag3113
ag3114
ag3115
ag3116
ag3117
ag4158
ag3121
ag3122
ag3123
ag3124
ag4159
ag3128
ag3129
ag3130
ag3131
a(lp4483
I1286
aS'?'
p4484
aag4160
ag3135
ag3136
ag3137
ag3138
ag4161
ag3142
ag3143
ag4162
ag3147
ag3148
ag3149
ag4163
ag3153
ag3154
ag3155
ag4164
ag3159
ag3160
ag3161
ag3162
ag4165
ag3165
ag3166
ag3167
ag4166
ag3171
ag3172
ag3173
ag4167
ag3176
ag3177
ag3178
ag3179
ag3180
ag4168
ag3183
ag3184
ag3185
ag3186
ag3187
ag3188
ag3189
ag3190
a(lp4485
I1331
ag4465
aag4169
ag3194
ag3195
ag3196
ag4170
ag3199
ag3200
ag3201
ag3202
ag4171
ag3206
ag3207
ag3208
ag3209
ag4172
ag3213
ag3214
ag4173
ag3218
ag3219
ag3220
ag3221
ag4174
ag3225
ag3226
ag3227
ag4175
ag3230
ag3231
ag3232
ag3233
ag3234
ag4176
ag3237
ag3238
ag3239
ag3240
ag3241
a(lp4486
I1370
ag4465
aag4177
ag3245
ag3246
ag3247
ag4178
ag3251
ag3252
ag3253
ag3254
ag4179
ag3258
ag3259
ag3260
ag3261
ag4180
ag3264
ag3265
ag4181
ag3269
ag3270
ag4182
ag3274
ag3275
ag4183
ag3279
ag3280
ag3281
ag4184
ag3284
ag3285
ag3286
ag3287
ag3288
ag4185
ag3291
ag3292
ag3293
ag3294
ag4186
ag3298
ag3299
ag3300
ag4187
ag3303
ag3304
ag3305
ag3306
ag3307
ag4188
ag3311
ag3312
ag4189
ag3315
ag3316
ag3317
ag3318
ag3319
ag3320
ag4190
ag3323
ag3324
ag3325
ag3326
a(lp4487
I1434
ag4465
aag4191
ag3330
ag3331
ag3332
ag3333
ag4192
ag3337
ag3338
ag3339
ag4193
ag3342
ag3343
ag3344
ag3345
ag3346
ag4194
ag3350
ag3351
ag3352
ag4195
ag3355
ag3356
ag3357
ag3358
ag3359
ag4196
ag3362
ag3363
ag4197
ag3366
ag4198
ag3369
ag3370
ag3371
ag3372
ag3373
ag3374
ag4199
ag3377
ag3378
ag3379
ag3380
ag3381
ag4200
ag3384
ag3385
ag3386
ag3387
a(lp4488
I1483
ag4465
aag4201
ag3391
ag3392
ag4202
ag3395
ag3396
ag3397
ag3398
ag3399
ag3400
ag4203
ag3403
ag4204
ag3406
ag3407
ag3408
ag3409
ag3410
ag3411
ag4205
ag3415
ag3416
ag4206
ag3419
ag3420
ag3421
ag3422
ag4207
ag3426
ag3427
ag3428
ag4208
ag3432
ag3433
ag3434
ag3435
ag4209
ag3439
ag3440
ag3441
ag4210
ag3444
ag3445
ag3446
ag3447
ag3448
ag4211
ag3452
ag3453
ag3454
ag3455
ag4212
ag3459
ag3460
ag3461
ag4213
ag3465
ag3466
ag4214
ag3470
ag3471
ag4215
ag3474
ag3475
ag3476
ag3477
ag3478
ag3479
ag3480
ag3481
ag3482
a(lp4489
I1555
ag4465
aag4216
ag3486
ag3487
ag3488
ag3489
ag4217
ag3493
ag3494
ag3495
ag4218
ag3499
ag3500
ag3501
ag3502
ag4219
ag3505
ag3506
ag3507
ag4220
ag3510
ag3511
ag3512
ag4221
ag3516
ag3517
ag3518
ag4222
ag3521
ag3522
ag4223
ag3525
ag3526
ag3527
ag4224
ag3531
ag3532
ag3533
ag3534
ag4225
ag3538
ag3539
ag3540
ag4226
ag3543
ag3544
ag3545
ag3546
ag3547
a(lp4490
I1604
ag4465
aag4227
ag3551
ag3552
ag3553
ag4228
ag3557
ag3558
ag4229
ag3562
ag3563
ag4230
ag3566
ag3567
ag3568
ag3569
ag3570
ag4231
ag3574
ag3575
ag3576
ag3577
ag3578
ag4232
ag3582
ag3583
ag3584
ag3585
ag4233
ag3589
ag3590
ag3591
ag4234
ag3594
ag3595
ag3596
ag3597
ag3598
a(lp4491
I1642
ag4465
aag4235
ag3602
ag3603
ag3604
ag4236
ag3607
ag3608
ag3609
ag3610
ag3611
ag3612
ag3613
ag3614
ag3615
ag4237
ag3618
ag3619
ag3620
ag3621
ag4238
ag3625
ag3626
ag3627
ag4239
ag3630
ag3631
ag3632
ag3633
ag3634
ag3635
ag4240
ag3638
ag3639
ag3640
ag3641
ag3642
ag3643
ag3644
ag3645
a(lp4492
I1682
ag4465
aag4241
ag3649
ag3650
ag3651
ag4242
ag3654
ag3655
ag3656
ag3657
ag3658
ag3659
ag4243
ag3663
ag3664
ag3665
ag4244
ag3669
ag3670
ag3671
ag3672
ag4245
ag3675
ag3676
ag3677
ag3678
ag4246
ag3681
ag4247
ag3684
ag3685
ag3686
ag3687
ag3688
ag3689
ag4248
ag3692
ag3693
ag3694
ag3695
ag3696
ag3697
ag3698
ag4249
ag3701
ag3702
ag3703
ag3704
a(lp4493
I1730
ag4462
aag4250
ag3708
ag3709
ag3710
ag3711
ag3712
ag4251
ag3716
ag3717
ag4252
ag3720
ag3721
ag3722
ag4253
ag3725
ag4254
ag3728
ag3729
ag3730
ag3731
ag3732
ag4255
ag3735
ag3736
ag3737
ag3738
ag3739
ag3740
ag4256
ag3743
ag4257
ag3746
ag3747
ag3748
ag3749
ag4258
ag3753
ag3754
ag4259
ag3757
ag3758
ag3759
ag4260
ag3763
ag3764
ag3765
ag4261
ag3768
ag3769
ag3770
ag3771
ag3772
ag3773
ag4262
ag3776
ag3777
ag3778
ag3779
ag4263
ag3783
ag3784
ag3785
ag3786
a(lp4494
I1794
ag4462
aag4264
ag3790
ag3791
ag4265
ag3795
ag3796
ag4266
ag3800
ag3801
ag3802
ag3803
ag4267
ag3807
ag3808
ag4268
ag3811
ag3812
ag3813
ag3814
ag3815
a(lp4495
I1815
ag4465
aag4269
ag3819
ag3820
ag4270
ag3824
ag3825
ag3826
ag4271
ag3830
ag3831
ag3832
ag3833
ag4272
ag3836
ag4273
ag3839
ag3840
ag3841
ag3842
a(lp4496
I1835
ag4484
aag4274
ag3846
ag3847
ag4275
ag3851
ag3852
ag4276
ag3856
ag3857
ag4277
ag3861
ag3862
ag3863
ag3864
ag4278
ag3867
ag3868
ag3869
ag3870
ag4279
ag3873
ag3874
ag3875
ag3876
ag3877
ag3878
ag3879
ag3880
ag4280
ag3883
ag3884
ag3885
ag3886
ag4281
ag3890
ag3891
ag3892
ag3893
a(lp4497
I1874
ag4484
aasS'docName'
p4498
S'source-document01873.txt'
p4499
sb.