(iModel.Document
Document
p0
(dp1
S'fmap'
p2
(lp3
(lp4
I0
aI8
aS'excellent'
p5
a(lp6
S'*'
p7
ag5
aaa(lp8
I0
aI8
ag5
a(lp9
g7
ag5
aaa(lp10
I0
aI8
ag5
a(lp11
g7
ag5
aaa(lp12
I0
aI8
ag5
a(lp13
g7
ag5
aaa(lp14
I10
aI11
aS'48'
p15
a(lp16
g5
ag15
aaa(lp17
I10
aI11
ag15
a(lp18
g7
ag15
aaa(lp19
I10
aI11
ag15
a(lp20
g7
ag15
aaa(lp21
I10
aI11
ag15
a(lp22
g7
ag15
aaa(lp23
I13
aI16
aS'year'
p24
a(lp25
g15
ag24
aaa(lp26
I13
aI16
ag24
a(lp27
g5
ag24
aaa(lp28
I13
aI16
ag24
a(lp29
g7
ag24
aaa(lp30
I13
aI16
ag24
a(lp31
g7
ag24
aaa(lp32
I18
aI20
aS'old'
p33
a(lp34
g24
ag33
aaa(lp35
I18
aI20
ag33
a(lp36
g15
ag33
aaa(lp37
I18
aI20
ag33
a(lp38
g5
ag33
aaa(lp39
I18
aI20
ag33
a(lp40
g7
ag33
aaa(lp41
I29
aI36
aS'moderate'
p42
a(lp43
g33
ag42
aaa(lp44
I29
aI36
ag42
a(lp45
g24
ag42
aaa(lp46
I29
aI36
ag42
a(lp47
g15
ag42
aaa(lp48
I29
aI36
ag42
a(lp49
g5
ag42
aaa(lp50
I38
aI43
aS'budget'
p51
a(lp52
g42
ag51
aaa(lp53
I38
aI43
ag51
a(lp54
g33
ag51
aaa(lp55
I38
aI43
ag51
a(lp56
g24
ag51
aaa(lp57
I38
aI43
ag51
a(lp58
g15
ag51
aaa(lp59
I46
aI54
aS'traveling'
p60
a(lp61
g51
ag60
aaa(lp62
I46
aI54
ag60
a(lp63
g42
ag60
aaa(lp64
I46
aI54
ag60
a(lp65
g33
ag60
aaa(lp66
I46
aI54
ag60
a(lp67
g24
ag60
aaa(lp68
I60
aI78
aS'leisure1\xa0reviews\xa0'
p69
a(lp70
g60
ag69
aaa(lp71
I60
aI78
ag69
a(lp72
g51
ag69
aaa(lp73
I60
aI78
ag69
a(lp74
g42
ag69
aaa(lp75
I60
aI78
ag69
a(lp76
g33
ag69
aaa(lp77
I83
aI89
aS'husband'
p78
a(lp79
g69
ag78
aaa(lp80
I83
aI89
ag78
a(lp81
g60
ag78
aaa(lp82
I83
aI89
ag78
a(lp83
g51
ag78
aaa(lp84
I83
aI89
ag78
a(lp85
g42
ag78
aaa(lp86
I113
aI113
aS'3'
p87
a(lp88
g78
ag87
aaa(lp89
I113
aI113
ag87
a(lp90
g69
ag87
aaa(lp91
I113
aI113
ag87
a(lp92
g60
ag87
aaa(lp93
I113
aI113
ag87
a(lp94
g51
ag87
aaa(lp95
I115
aI119
aS'times'
p96
a(lp97
g87
ag96
aaa(lp98
I115
aI119
ag96
a(lp99
g78
ag96
aaa(lp100
I115
aI119
ag96
a(lp101
g69
ag96
aaa(lp102
I115
aI119
ag96
a(lp103
g60
ag96
aaa(lp104
I128
aI131
aS'last'
p105
a(lp106
g96
ag105
aaa(lp107
I128
aI131
ag105
a(lp108
g87
ag105
aaa(lp109
I128
aI131
ag105
a(lp110
g78
ag105
aaa(lp111
I128
aI131
ag105
a(lp112
g69
ag105
aaa(lp113
I133
aI136
aS'year'
p114
a(lp115
g105
ag114
aaa(lp116
I133
aI136
ag114
a(lp117
g96
ag114
aaa(lp118
I133
aI136
ag114
a(lp119
g87
ag114
aaa(lp120
I133
aI136
ag114
a(lp121
g78
ag114
aaa(lp122
I144
aI147
aS'time'
p123
a(lp124
g114
ag123
aaa(lp125
I144
aI147
ag123
a(lp126
g105
ag123
aaa(lp127
I144
aI147
ag123
a(lp128
g96
ag123
aaa(lp129
I144
aI147
ag123
a(lp130
g87
ag123
aaa(lp131
I180
aI188
aS'wonderful'
p132
a(lp133
g123
ag132
aaa(lp134
I180
aI188
ag132
a(lp135
g114
ag132
aaa(lp136
I180
aI188
ag132
a(lp137
g105
ag132
aaa(lp138
I180
aI188
ag132
a(lp139
g96
ag132
aaa(lp140
I195
aI201
aS'service'
p141
a(lp142
g132
ag141
aaa(lp143
I195
aI201
ag141
a(lp144
g123
ag141
aaa(lp145
I195
aI201
ag141
a(lp146
g114
ag141
aaa(lp147
I195
aI201
ag141
a(lp148
g105
ag141
aaa(lp149
I212
aI216
aS'great'
p150
a(lp151
g141
ag150
aaa(lp152
I212
aI216
ag150
a(lp153
g132
ag150
aaa(lp154
I212
aI216
ag150
a(lp155
g123
ag150
aaa(lp156
I212
aI216
ag150
a(lp157
g114
ag150
aaa(lp158
I219
aI223
aS'might'
p159
a(lp160
g150
ag159
aaa(lp161
I219
aI223
ag159
a(lp162
g141
ag159
aaa(lp163
I219
aI223
ag159
a(lp164
g132
ag159
aaa(lp165
I219
aI223
ag159
a(lp166
g123
ag159
aaa(lp167
I239
aI240
aS'go'
p168
a(lp169
g159
ag168
aaa(lp170
I239
aI240
ag168
a(lp171
g150
ag168
aaa(lp172
I239
aI240
ag168
a(lp173
g141
ag168
aaa(lp174
I239
aI240
ag168
a(lp175
g132
ag168
aaa(lp176
I253
aI256
aS'week'
p177
a(lp178
g168
ag177
aaa(lp179
I253
aI256
ag177
a(lp180
g159
ag177
aaa(lp181
I253
aI256
ag177
a(lp182
g150
ag177
aaa(lp183
I253
aI256
ag177
a(lp184
g141
ag177
aaa(lp185
I272
aI275
aS'less'
p186
a(lp187
g177
ag186
aaa(lp188
I272
aI275
ag186
a(lp189
g168
ag186
aaa(lp190
I272
aI275
ag186
a(lp191
g159
ag186
aaa(lp192
I272
aI275
ag186
a(lp193
g150
ag186
aaa(lp194
I277
aI280
aS'busy'
p195
a(lp196
g186
ag195
aaa(lp197
I277
aI280
ag195
a(lp198
g177
ag195
aaa(lp199
I277
aI280
ag195
a(lp200
g168
ag195
aaa(lp201
I277
aI280
ag195
a(lp202
g159
ag195
aaa(lp203
I287
aI291
aS'rooms'
p204
a(lp205
g195
ag204
aaa(lp206
I287
aI291
ag204
a(lp207
g186
ag204
aaa(lp208
I287
aI291
ag204
a(lp209
g177
ag204
aaa(lp210
I287
aI291
ag204
a(lp211
g168
ag204
aaa(lp212
I298
aI303
aS'always'
p213
a(lp214
g204
ag213
aaa(lp215
I298
aI303
ag213
a(lp216
g195
ag213
aaa(lp217
I298
aI303
ag213
a(lp218
g186
ag213
aaa(lp219
I298
aI303
ag213
a(lp220
g177
ag213
aaa(lp221
I310
aI314
aS'ready'
p222
a(lp223
g213
ag222
aaa(lp224
I310
aI314
ag222
a(lp225
g204
ag222
aaa(lp226
I310
aI314
ag222
a(lp227
g195
ag222
aaa(lp228
I310
aI314
ag222
a(lp229
g186
ag222
aaa(lp230
I319
aI322
aS'time'
p231
a(lp232
g222
ag231
aaa(lp233
I319
aI322
ag231
a(lp234
g213
ag231
aaa(lp235
I319
aI322
ag231
a(lp236
g204
ag231
aaa(lp237
I319
aI322
ag231
a(lp238
g195
ag231
aaa(lp239
I332
aI336
aS'early'
p240
a(lp241
g231
ag240
aaa(lp242
I332
aI336
ag240
a(lp243
g222
ag240
aaa(lp244
I332
aI336
ag240
a(lp245
g213
ag240
aaa(lp246
I332
aI336
ag240
a(lp247
g204
ag240
aaa(lp248
I349
aI354
aS'always'
p249
a(lp250
g240
ag249
aaa(lp251
I349
aI354
ag249
a(lp252
g231
ag249
aaa(lp253
I349
aI354
ag249
a(lp254
g222
ag249
aaa(lp255
I349
aI354
ag249
a(lp256
g213
ag249
aaa(lp257
I356
aI363
aS'upgraded'
p258
a(lp259
g249
ag258
aaa(lp260
I356
aI363
ag258
a(lp261
g240
ag258
aaa(lp262
I356
aI363
ag258
a(lp263
g231
ag258
aaa(lp264
I356
aI363
ag258
a(lp265
g222
ag258
aaa(lp266
I365
aI366
aS'us'
p267
a(lp268
g258
ag267
aaa(lp269
I365
aI366
ag267
a(lp270
g249
ag267
aaa(lp271
I365
aI366
ag267
a(lp272
g240
ag267
aaa(lp273
I365
aI366
ag267
a(lp274
g231
ag267
aaa(lp275
I373
aI377
aS'suite'
p276
a(lp277
g267
ag276
aaa(lp278
I373
aI377
ag276
a(lp279
g258
ag276
aaa(lp280
I373
aI377
ag276
a(lp281
g249
ag276
aaa(lp282
I373
aI377
ag276
a(lp283
g240
ag276
aaa(lp284
I392
aI400
aS'extremely'
p285
a(lp286
g276
ag285
aaa(lp287
I392
aI400
ag285
a(lp288
g267
ag285
aaa(lp289
I392
aI400
ag285
a(lp290
g258
ag285
aaa(lp291
I392
aI400
ag285
a(lp292
g249
ag285
aaa(lp293
I402
aI405
aS'nice'
p294
a(lp295
g285
ag294
aaa(lp296
I402
aI405
ag294
a(lp297
g276
ag294
aaa(lp298
I402
aI405
ag294
a(lp299
g267
ag294
aaa(lp300
I402
aI405
ag294
a(lp301
g258
ag294
aaa(lp302
I416
aI420
aS'never'
p303
a(lp304
g294
ag303
aaa(lp305
I416
aI420
ag303
a(lp306
g285
ag303
aaa(lp307
I416
aI420
ag303
a(lp308
g276
ag303
aaa(lp309
I416
aI420
ag303
a(lp310
g267
ag303
aaa(lp311
I422
aI426
aS'eaten'
p312
a(lp313
g303
ag312
aaa(lp314
I422
aI426
ag312
a(lp315
g294
ag312
aaa(lp316
I422
aI426
ag312
a(lp317
g285
ag312
aaa(lp318
I422
aI426
ag312
a(lp319
g276
ag312
aaa(lp320
I428
aI433
aS'dinner'
p321
a(lp322
g312
ag321
aaa(lp323
I428
aI433
ag321
a(lp324
g303
ag321
aaa(lp325
I428
aI433
ag321
a(lp326
g294
ag321
aaa(lp327
I428
aI433
ag321
a(lp328
g285
ag321
aaa(lp329
I442
aI447
aS'buffet'
p330
a(lp331
g321
ag330
aaa(lp332
I442
aI447
ag330
a(lp333
g312
ag330
aaa(lp334
I442
aI447
ag330
a(lp335
g303
ag330
aaa(lp336
I442
aI447
ag330
a(lp337
g294
ag330
aaa(lp338
I458
aI466
aS'breakfast'
p339
a(lp340
g330
ag339
aaa(lp341
I458
aI466
ag339
a(lp342
g321
ag339
aaa(lp343
I458
aI466
ag339
a(lp344
g312
ag339
aaa(lp345
I458
aI466
ag339
a(lp346
g303
ag339
aaa(lp347
I477
aI480
aS'good'
p348
a(lp349
g339
ag348
aaa(lp350
I477
aI480
ag348
a(lp351
g330
ag348
aaa(lp352
I477
aI480
ag348
a(lp353
g321
ag348
aaa(lp354
I477
aI480
ag348
a(lp355
g312
ag348
aaa(lp356
I487
aI490
aS'1875'
p357
a(lp358
g348
ag357
aaa(lp359
I487
aI490
ag357
a(lp360
g339
ag357
aaa(lp361
I487
aI490
ag357
a(lp362
g330
ag357
aaa(lp363
I487
aI490
ag357
a(lp364
g321
ag357
aaa(lp365
I492
aI501
aS'steakhouse'
p366
a(lp367
g357
ag366
aaa(lp368
I492
aI501
ag366
a(lp369
g348
ag366
aaa(lp370
I492
aI501
ag366
a(lp371
g339
ag366
aaa(lp372
I492
aI501
ag366
a(lp373
g330
ag366
aaa(lp374
I507
aI510
aS'good'
p375
a(lp376
g366
ag375
aaa(lp377
I507
aI510
ag375
a(lp378
g357
ag375
aaa(lp379
I507
aI510
ag375
a(lp380
g348
ag375
aaa(lp381
I507
aI510
ag375
a(lp382
g339
ag375
aaa(lp383
I513
aI518
aS'little'
p384
a(lp385
g375
ag384
aaa(lp386
I513
aI518
ag384
a(lp387
g366
ag384
aaa(lp388
I513
aI518
ag384
a(lp389
g357
ag384
aaa(lp390
I513
aI518
ag384
a(lp391
g348
ag384
aaa(lp392
I520
aI525
aS'pricey'
p393
a(lp394
g384
ag393
aaa(lp395
I520
aI525
ag393
a(lp396
g375
ag393
aaa(lp397
I520
aI525
ag393
a(lp398
g366
ag393
aaa(lp399
I520
aI525
ag393
a(lp400
g357
ag393
aaa(lp401
I532
aI538
aS'hagens'
p402
a(lp403
g393
ag402
aaa(lp404
I532
aI538
ag402
a(lp405
g384
ag402
aaa(lp406
I532
aI538
ag402
a(lp407
g375
ag402
aaa(lp408
I532
aI538
ag402
a(lp409
g366
ag402
aaa(lp410
I543
aI546
aS'also'
p411
a(lp412
g402
ag411
aaa(lp413
I543
aI546
ag411
a(lp414
g393
ag411
aaa(lp415
I543
aI546
ag411
a(lp416
g384
ag411
aaa(lp417
I543
aI546
ag411
a(lp418
g375
ag411
aaa(lp419
I548
aI551
aS'good'
p420
a(lp421
g411
ag420
aaa(lp422
I548
aI551
ag420
a(lp423
g402
ag420
aaa(lp424
I548
aI551
ag420
a(lp425
g393
ag420
aaa(lp426
I548
aI551
ag420
a(lp427
g384
ag420
aaa(lp428
I558
aI562
aS'pizza'
p429
a(lp430
g420
ag429
aaa(lp431
I558
aI562
ag429
a(lp432
g411
ag429
aaa(lp433
I558
aI562
ag429
a(lp434
g402
ag429
aaa(lp435
I558
aI562
ag429
a(lp436
g393
ag429
aaa(lp437
I567
aI573
aS'plutos'
p438
a(lp439
g429
ag438
aaa(lp440
I567
aI573
ag438
a(lp441
g420
ag438
aaa(lp442
I567
aI573
ag438
a(lp443
g411
ag438
aaa(lp444
I567
aI573
ag438
a(lp445
g402
ag438
aaa(lp446
I578
aI588
aS'outstanding'
p447
a(lp448
g438
ag447
aaa(lp449
I578
aI588
ag447
a(lp450
g429
ag447
aaa(lp451
I578
aI588
ag447
a(lp452
g420
ag447
aaa(lp453
I578
aI588
ag447
a(lp454
g411
ag447
aaa(lp455
I596
aI599
aS'time'
p456
a(lp457
g447
ag456
aaa(lp458
I596
aI599
ag456
a(lp459
g438
ag456
aaa(lp460
I596
aI599
ag456
a(lp461
g429
ag456
aaa(lp462
I596
aI599
ag456
a(lp463
g420
ag456
aaa(lp464
I641
aI649
aS'different'
p465
a(lp466
g456
ag465
aaa(lp467
I641
aI649
ag465
a(lp468
g447
ag465
aaa(lp469
I641
aI649
ag465
a(lp470
g438
ag465
aaa(lp471
I641
aI649
ag465
a(lp472
g429
ag465
aaa(lp473
I651
aI656
aS'season'
p474
a(lp475
g465
ag474
aaa(lp476
I651
aI656
ag474
a(lp477
g456
ag474
aaa(lp478
I651
aI656
ag474
a(lp479
g447
ag474
aaa(lp480
I651
aI656
ag474
a(lp481
g438
ag474
aaa(lp482
I675
aI680
aS'chance'
p483
a(lp484
g474
ag483
aaa(lp485
I675
aI680
ag483
a(lp486
g465
ag483
aaa(lp487
I675
aI680
ag483
a(lp488
g456
ag483
aaa(lp489
I675
aI680
ag483
a(lp490
g447
ag483
aaa(lp491
I685
aI686
aS'go'
p492
a(lp493
g483
ag492
aaa(lp494
I685
aI686
ag492
a(lp495
g474
ag492
aaa(lp496
I685
aI686
ag492
a(lp497
g465
ag492
aaa(lp498
I685
aI686
ag492
a(lp499
g456
ag492
aaa(lp500
I691
aI699
aS'christmas'
p501
a(lp502
g492
ag501
aaa(lp503
I691
aI699
ag501
a(lp504
g483
ag501
aaa(lp505
I691
aI699
ag501
a(lp506
g474
ag501
aaa(lp507
I691
aI699
ag501
a(lp508
g465
ag501
aaa(lp509
I705
aI715
aS'decorations'
p510
a(lp511
g501
ag510
aaa(lp512
I705
aI715
ag510
a(lp513
g492
ag510
aaa(lp514
I705
aI715
ag510
a(lp515
g483
ag510
aaa(lp516
I705
aI715
ag510
a(lp517
g474
ag510
aaa(lp518
I721
aI729
aS'beautiful'
p519
a(lp520
g510
ag519
aaa(lp521
I721
aI729
ag519
a(lp522
g501
ag519
aaa(lp523
I721
aI729
ag519
a(lp524
g492
ag519
aaa(lp525
I721
aI729
ag519
a(lp526
g483
ag519
aaa(lp527
I737
aI740
aS'fall'
p528
a(lp529
g519
ag528
aaa(lp530
I737
aI740
ag528
a(lp531
g510
ag528
aaa(lp532
I737
aI740
ag528
a(lp533
g501
ag528
aaa(lp534
I737
aI740
ag528
a(lp535
g492
ag528
aaa(lp536
I754
aI759
aS'fourth'
p537
a(lp538
g528
ag537
aaa(lp539
I754
aI759
ag537
a(lp540
g519
ag537
aaa(lp541
I754
aI759
ag537
a(lp542
g510
ag537
aaa(lp543
I754
aI759
ag537
a(lp544
g501
ag537
aaa(lp545
I761
aI764
aS'trip'
p546
a(lp547
g537
ag546
aaa(lp548
I761
aI764
ag546
a(lp549
g528
ag546
aaa(lp550
I761
aI764
ag546
a(lp551
g519
ag546
aaa(lp552
I761
aI764
ag546
a(lp553
g510
ag546
aaa(lp554
I771
aI774
aS'year'
p555
a(lp556
g546
ag555
aaa(lp557
I771
aI774
ag555
a(lp558
g537
ag555
aaa(lp559
I771
aI774
ag555
a(lp560
g528
ag555
aaa(lp561
I771
aI774
ag555
a(lp562
g519
ag555
aaa(lp563
I784
aI787
aS'last'
p564
a(lp565
g555
ag564
aaa(lp566
I784
aI787
ag564
a(lp567
g546
ag564
aaa(lp568
I784
aI787
ag564
a(lp569
g537
ag564
aaa(lp570
I784
aI787
ag564
a(lp571
g528
ag564
aaa(lp572
I796
aI802
aS'seasons'
p573
a(lp574
g564
ag573
aaa(lp575
I796
aI802
ag573
a(lp576
g555
ag573
aaa(lp577
I796
aI802
ag573
a(lp578
g546
ag573
aaa(lp579
I796
aI802
ag573
a(lp580
g537
ag573
aaa(lp581
I808
aI809
aS'us'
p582
a(lp583
g573
ag582
aaa(lp584
I808
aI809
ag582
a(lp585
g564
ag582
aaa(lp586
I808
aI809
ag582
a(lp587
g555
ag582
aaa(lp588
I808
aI809
ag582
a(lp589
g546
ag582
aaa(lp590
I825
aI828
aS'seen'
p591
a(lp592
g582
ag591
aaa(lp593
I825
aI828
ag591
a(lp594
g573
ag591
aaa(lp595
I825
aI828
ag591
a(lp596
g564
ag591
aaa(lp597
I825
aI828
ag591
a(lp598
g555
ag591
aaa(lp599
I836
aI840
aS'every'
p600
a(lp601
g591
ag600
aaa(lp602
I836
aI840
ag600
a(lp603
g582
ag600
aaa(lp604
I836
aI840
ag600
a(lp605
g573
ag600
aaa(lp606
I836
aI840
ag600
a(lp607
g564
ag600
aaa(lp608
I842
aI845
aS'time'
p609
a(lp610
g600
ag609
aaa(lp611
I842
aI845
ag609
a(lp612
g591
ag609
aaa(lp613
I842
aI845
ag609
a(lp614
g582
ag609
aaa(lp615
I842
aI845
ag609
a(lp616
g573
ag609
aaa(lp617
I854
aI857
aS'year'
p618
a(lp619
g609
ag618
aaa(lp620
I854
aI857
ag618
a(lp621
g600
ag618
aaa(lp622
I854
aI857
ag618
a(lp623
g591
ag618
aaa(lp624
I854
aI857
ag618
a(lp625
g582
ag618
aaa(lp626
I871
aI875
aS'going'
p627
a(lp628
g618
ag627
aaa(lp629
I871
aI875
ag627
a(lp630
g609
ag627
aaa(lp631
I871
aI875
ag627
a(lp632
g600
ag627
aaa(lp633
I871
aI875
ag627
a(lp634
g591
ag627
aaa(lp635
I880
aI885
aS'gamble'
p636
a(lp637
g627
ag636
aaa(lp638
I880
aI885
ag636
a(lp639
g618
ag636
aaa(lp640
I880
aI885
ag636
a(lp641
g609
ag636
aaa(lp642
I880
aI885
ag636
a(lp643
g600
ag636
aaa(lp644
I887
aI893
aS'request'
p645
a(lp646
g636
ag645
aaa(lp647
I887
aI893
ag645
a(lp648
g627
ag645
aaa(lp649
I887
aI893
ag645
a(lp650
g618
ag645
aaa(lp651
I887
aI893
ag645
a(lp652
g609
ag645
aaa(lp653
I899
aI904
aS'garden'
p654
a(lp655
g645
ag654
aaa(lp656
I899
aI904
ag654
a(lp657
g636
ag654
aaa(lp658
I899
aI904
ag654
a(lp659
g627
ag654
aaa(lp660
I899
aI904
ag654
a(lp661
g618
ag654
aaa(lp662
I906
aI909
aS'wing'
p663
a(lp664
g654
ag663
aaa(lp665
I906
aI909
ag663
a(lp666
g645
ag663
aaa(lp667
I906
aI909
ag663
a(lp668
g636
ag663
aaa(lp669
I906
aI909
ag663
a(lp670
g627
ag663
aaa(lp671
I922
aI928
aS'closest'
p672
a(lp673
g663
ag672
aaa(lp674
I922
aI928
ag672
a(lp675
g654
ag672
aaa(lp676
I922
aI928
ag672
a(lp677
g645
ag672
aaa(lp678
I922
aI928
ag672
a(lp679
g636
ag672
aaa(lp680
I937
aI942
aS'casino'
p681
a(lp682
g672
ag681
aaa(lp683
I937
aI942
ag681
a(lp684
g663
ag681
aaa(lp685
I937
aI942
ag681
a(lp686
g654
ag681
aaa(lp687
I937
aI942
ag681
a(lp688
g645
ag681
aaa(lp689
I957
aI963
aS'service'
p690
a(lp691
g681
ag690
aaa(lp692
I957
aI963
ag690
a(lp693
g672
ag690
aaa(lp694
I957
aI963
ag690
a(lp695
g663
ag690
aaa(lp696
I957
aI963
ag690
a(lp697
g654
ag690
aaa(lp698
I965
aI973
aS'elevators'
p699
a(lp700
g690
ag699
aaa(lp701
I965
aI973
ag699
a(lp702
g681
ag699
aaa(lp703
I965
aI973
ag699
a(lp704
g672
ag699
aaa(lp705
I965
aI973
ag699
a(lp706
g663
ag699
aaa(lp707
I976
aI978
aS'ask'
p708
a(lp709
g699
ag708
aaa(lp710
I976
aI978
ag708
a(lp711
g690
ag708
aaa(lp712
I976
aI978
ag708
a(lp713
g681
ag708
aaa(lp714
I976
aI978
ag708
a(lp715
g672
ag708
aaa(lp716
I1013
aI1015
aS'far'
p717
a(lp718
g708
ag717
aaa(lp719
I1013
aI1015
ag717
a(lp720
g699
ag717
aaa(lp721
I1013
aI1015
ag717
a(lp722
g690
ag717
aaa(lp723
I1013
aI1015
ag717
a(lp724
g681
ag717
aaa(lp725
I1017
aI1020
aS'walk'
p726
a(lp727
g717
ag726
aaa(lp728
I1017
aI1020
ag726
a(lp729
g708
ag726
aaa(lp730
I1017
aI1020
ag726
a(lp731
g699
ag726
aaa(lp732
I1017
aI1020
ag726
a(lp733
g690
ag726
aaa(lp734
I1038
aI1042
aS'found'
p735
a(lp736
g726
ag735
aaa(lp737
I1038
aI1042
ag735
a(lp738
g717
ag735
aaa(lp739
I1038
aI1042
ag735
a(lp740
g708
ag735
aaa(lp741
I1038
aI1042
ag735
a(lp742
g699
ag735
aaa(lp743
I1048
aI1052
aS'staff'
p744
a(lp745
g735
ag744
aaa(lp746
I1048
aI1052
ag744
a(lp747
g726
ag744
aaa(lp748
I1048
aI1052
ag744
a(lp749
g717
ag744
aaa(lp750
I1048
aI1052
ag744
a(lp751
g708
ag744
aaa(lp752
I1059
aI1066
aS'friendly'
p753
a(lp754
g744
ag753
aaa(lp755
I1059
aI1066
ag753
a(lp756
g735
ag753
aaa(lp757
I1059
aI1066
ag753
a(lp758
g726
ag753
aaa(lp759
I1059
aI1066
ag753
a(lp760
g717
ag753
aaa(lp761
I1082
aI1088
aS'willing'
p762
a(lp763
g753
ag762
aaa(lp764
I1082
aI1088
ag762
a(lp765
g744
ag762
aaa(lp766
I1082
aI1088
ag762
a(lp767
g735
ag762
aaa(lp768
I1082
aI1088
ag762
a(lp769
g726
ag762
aaa(lp770
I1093
aI1098
aS'answer'
p771
a(lp772
g762
ag771
aaa(lp773
I1093
aI1098
ag771
a(lp774
g753
ag771
aaa(lp775
I1093
aI1098
ag771
a(lp776
g744
ag771
aaa(lp777
I1093
aI1098
ag771
a(lp778
g735
ag771
aaa(lp779
I1100
aI1108
aS'questions'
p780
a(lp781
g771
ag780
aaa(lp782
I1100
aI1108
ag780
a(lp783
g762
ag780
aaa(lp784
I1100
aI1108
ag780
a(lp785
g753
ag780
aaa(lp786
I1100
aI1108
ag780
a(lp787
g744
ag780
aaa(lp788
I1114
aI1117
aS'talk'
p789
a(lp790
g780
ag789
aaa(lp791
I1114
aI1117
ag789
a(lp792
g771
ag789
aaa(lp793
I1114
aI1117
ag789
a(lp794
g762
ag789
aaa(lp795
I1114
aI1117
ag789
a(lp796
g753
ag789
aaa(lp797
I1124
aI1125
aS'us'
p798
a(lp799
g789
ag798
aaa(lp800
I1124
aI1125
ag798
a(lp801
g780
ag798
aaa(lp802
I1124
aI1125
ag798
a(lp803
g771
ag798
aaa(lp804
I1124
aI1125
ag798
a(lp805
g762
ag798
aaa(lp806
I1137
aI1143
aS'history'
p807
a(lp808
g798
ag807
aaa(lp809
I1137
aI1143
ag807
a(lp810
g789
ag807
aaa(lp811
I1137
aI1143
ag807
a(lp812
g780
ag807
aaa(lp813
I1137
aI1143
ag807
a(lp814
g771
ag807
aaa(lp815
I1152
aI1157
aS'hotels'
p816
a(lp817
g807
ag816
aaa(lp818
I1152
aI1157
ag816
a(lp819
g798
ag816
aaa(lp820
I1152
aI1157
ag816
a(lp821
g789
ag816
aaa(lp822
I1152
aI1157
ag816
a(lp823
g780
ag816
aaa(lp824
I1160
aI1164
aS'since'
p825
a(lp826
g816
ag825
aaa(lp827
I1160
aI1164
ag825
a(lp828
g807
ag825
aaa(lp829
I1160
aI1164
ag825
a(lp830
g798
ag825
aaa(lp831
I1160
aI1164
ag825
a(lp832
g789
ag825
aaa(lp833
I1169
aI1172
aS'like'
p834
a(lp835
g825
ag834
aaa(lp836
I1169
aI1172
ag834
a(lp837
g816
ag834
aaa(lp838
I1169
aI1172
ag834
a(lp839
g807
ag834
aaa(lp840
I1169
aI1172
ag834
a(lp841
g798
ag834
aaa(lp842
I1177
aI1181
aS'sleep'
p843
a(lp844
g834
ag843
aaa(lp845
I1177
aI1181
ag843
a(lp846
g825
ag843
aaa(lp847
I1177
aI1181
ag843
a(lp848
g816
ag843
aaa(lp849
I1177
aI1181
ag843
a(lp850
g807
ag843
aaa(lp851
I1199
aI1202
aS'away'
p852
a(lp853
g843
ag852
aaa(lp854
I1199
aI1202
ag852
a(lp855
g834
ag852
aaa(lp856
I1199
aI1202
ag852
a(lp857
g825
ag852
aaa(lp858
I1199
aI1202
ag852
a(lp859
g816
ag852
aaa(lp860
I1207
aI1213
aS'usually'
p861
a(lp862
g852
ag861
aaa(lp863
I1207
aI1213
ag861
a(lp864
g843
ag861
aaa(lp865
I1207
aI1213
ag861
a(lp866
g834
ag861
aaa(lp867
I1207
aI1213
ag861
a(lp868
g825
ag861
aaa(lp869
I1231
aI1234
aS'room'
p870
a(lp871
g861
ag870
aaa(lp872
I1231
aI1234
ag870
a(lp873
g852
ag870
aaa(lp874
I1231
aI1234
ag870
a(lp875
g843
ag870
aaa(lp876
I1231
aI1234
ag870
a(lp877
g834
ag870
aaa(lp878
I1236
aI1242
aS'cleaned'
p879
a(lp880
g870
ag879
aaa(lp881
I1236
aI1242
ag879
a(lp882
g861
ag879
aaa(lp883
I1236
aI1242
ag879
a(lp884
g852
ag879
aaa(lp885
I1236
aI1242
ag879
a(lp886
g843
ag879
aaa(lp887
I1244
aI1248
aS'every'
p888
a(lp889
g879
ag888
aaa(lp890
I1244
aI1248
ag888
a(lp891
g870
ag888
aaa(lp892
I1244
aI1248
ag888
a(lp893
g861
ag888
aaa(lp894
I1244
aI1248
ag888
a(lp895
g852
ag888
aaa(lp896
I1250
aI1252
aS'day'
p897
a(lp898
g888
ag897
aaa(lp899
I1250
aI1252
ag897
a(lp900
g879
ag897
aaa(lp901
I1250
aI1252
ag897
a(lp902
g870
ag897
aaa(lp903
I1250
aI1252
ag897
a(lp904
g861
ag897
aaa(lp905
I1282
aI1287
aS'enough'
p906
a(lp907
g897
ag906
aaa(lp908
I1282
aI1287
ag906
a(lp909
g888
ag906
aaa(lp910
I1282
aI1287
ag906
a(lp911
g879
ag906
aaa(lp912
I1282
aI1287
ag906
a(lp913
g870
ag906
aaa(lp914
I1297
aI1299
aS'ask'
p915
a(lp916
g906
ag915
aaa(lp917
I1297
aI1299
ag915
a(lp918
g897
ag915
aaa(lp919
I1297
aI1299
ag915
a(lp920
g888
ag915
aaa(lp921
I1297
aI1299
ag915
a(lp922
g879
ag915
aaa(lp923
I1305
aI1309
aS'extra'
p924
a(lp925
g915
ag924
aaa(lp926
I1305
aI1309
ag924
a(lp927
g906
ag924
aaa(lp928
I1305
aI1309
ag924
a(lp929
g897
ag924
aaa(lp930
I1305
aI1309
ag924
a(lp931
g888
ag924
aaa(lp932
I1311
aI1316
aS'towels'
p933
a(lp934
g924
ag933
aaa(lp935
I1311
aI1316
ag933
a(lp936
g915
ag933
aaa(lp937
I1311
aI1316
ag933
a(lp938
g906
ag933
aaa(lp939
I1311
aI1316
ag933
a(lp940
g897
ag933
aaa(lp941
I1322
aI1327
aS'coffee'
p942
a(lp943
g933
ag942
aaa(lp944
I1322
aI1327
ag942
a(lp945
g924
ag942
aaa(lp946
I1322
aI1327
ag942
a(lp947
g915
ag942
aaa(lp948
I1322
aI1327
ag942
a(lp949
g906
ag942
aaa(lp950
I1334
aI1338
aS'floor'
p951
a(lp952
g942
ag951
aaa(lp953
I1334
aI1338
ag951
a(lp954
g933
ag951
aaa(lp955
I1334
aI1338
ag951
a(lp956
g924
ag951
aaa(lp957
I1334
aI1338
ag951
a(lp958
g915
ag951
aaa(lp959
I1340
aI1343
aS'maid'
p960
a(lp961
g951
ag960
aaa(lp962
I1340
aI1343
ag960
a(lp963
g942
ag960
aaa(lp964
I1340
aI1343
ag960
a(lp965
g933
ag960
aaa(lp966
I1340
aI1343
ag960
a(lp967
g924
ag960
aaa(lp968
I1348
aI1354
aS'usually'
p969
a(lp970
g960
ag969
aaa(lp971
I1348
aI1354
ag969
a(lp972
g951
ag969
aaa(lp973
I1348
aI1354
ag969
a(lp974
g942
ag969
aaa(lp975
I1348
aI1354
ag969
a(lp976
g933
ag969
aaa(lp977
I1356
aI1362
aS'waiting'
p978
a(lp979
g969
ag978
aaa(lp980
I1356
aI1362
ag978
a(lp981
g960
ag978
aaa(lp982
I1356
aI1362
ag978
a(lp983
g951
ag978
aaa(lp984
I1356
aI1362
ag978
a(lp985
g942
ag978
aaa(lp986
I1371
aI1374
aS'hall'
p987
a(lp988
g978
ag987
aaa(lp989
I1371
aI1374
ag987
a(lp990
g969
ag987
aaa(lp991
I1371
aI1374
ag987
a(lp992
g960
ag987
aaa(lp993
I1371
aI1374
ag987
a(lp994
g951
ag987
aaa(lp995
I1382
aI1386
aS'close'
p996
a(lp997
g987
ag996
aaa(lp998
I1382
aI1386
ag996
a(lp999
g978
ag996
aaa(lp1000
I1382
aI1386
ag996
a(lp1001
g969
ag996
aaa(lp1002
I1382
aI1386
ag996
a(lp1003
g960
ag996
aaa(lp1004
I1399
aI1403
aS'leave'
p1005
a(lp1006
g996
ag1005
aaa(lp1007
I1399
aI1403
ag1005
a(lp1008
g987
ag1005
aaa(lp1009
I1399
aI1403
ag1005
a(lp1010
g978
ag1005
aaa(lp1011
I1399
aI1403
ag1005
a(lp1012
g969
ag1005
aaa(lp1013
I1409
aI1412
aS'room'
p1014
a(lp1015
g1005
ag1014
aaa(lp1016
I1409
aI1412
ag1014
a(lp1017
g996
ag1014
aaa(lp1018
I1409
aI1412
ag1014
a(lp1019
g987
ag1014
aaa(lp1020
I1409
aI1412
ag1014
a(lp1021
g978
ag1014
aaa(lp1022
I1420
aI1424
aS'lunch'
p1023
a(lp1024
g1014
ag1023
aaa(lp1025
I1420
aI1424
ag1023
a(lp1026
g1005
ag1023
aaa(lp1027
I1420
aI1424
ag1023
a(lp1028
g996
ag1023
aaa(lp1029
I1420
aI1424
ag1023
a(lp1030
g987
ag1023
aaa(lp1031
I1430
aI1435
aS'always'
p1032
a(lp1033
g1023
ag1032
aaa(lp1034
I1430
aI1435
ag1032
a(lp1035
g1014
ag1032
aaa(lp1036
I1430
aI1435
ag1032
a(lp1037
g1005
ag1032
aaa(lp1038
I1430
aI1435
ag1032
a(lp1039
g996
ag1032
aaa(lp1040
I1437
aI1440
aS'asks'
p1041
a(lp1042
g1032
ag1041
aaa(lp1043
I1437
aI1440
ag1041
a(lp1044
g1023
ag1041
aaa(lp1045
I1437
aI1440
ag1041
a(lp1046
g1014
ag1041
aaa(lp1047
I1437
aI1440
ag1041
a(lp1048
g1005
ag1041
aaa(lp1049
I1448
aI1451
aS'need'
p1050
a(lp1051
g1041
ag1050
aaa(lp1052
I1448
aI1451
ag1050
a(lp1053
g1032
ag1050
aaa(lp1054
I1448
aI1451
ag1050
a(lp1055
g1023
ag1050
aaa(lp1056
I1448
aI1451
ag1050
a(lp1057
g1014
ag1050
aaa(lp1058
I1453
aI1460
aS'anything'
p1059
a(lp1060
g1050
ag1059
aaa(lp1061
I1453
aI1460
ag1059
a(lp1062
g1041
ag1059
aaa(lp1063
I1453
aI1460
ag1059
a(lp1064
g1032
ag1059
aaa(lp1065
I1453
aI1460
ag1059
a(lp1066
g1023
ag1059
aaa(lp1067
I1473
aI1483
aS'destination'
p1068
a(lp1069
g1059
ag1068
aaa(lp1070
I1473
aI1483
ag1068
a(lp1071
g1050
ag1068
aaa(lp1072
I1473
aI1483
ag1068
a(lp1073
g1041
ag1068
aaa(lp1074
I1473
aI1483
ag1068
a(lp1075
g1032
ag1068
aaa(lp1076
I1485
aI1489
aS'hotel'
p1077
a(lp1078
g1068
ag1077
aaa(lp1079
I1485
aI1489
ag1077
a(lp1080
g1059
ag1077
aaa(lp1081
I1485
aI1489
ag1077
a(lp1082
g1050
ag1077
aaa(lp1083
I1485
aI1489
ag1077
a(lp1084
g1041
ag1077
aaa(lp1085
I1499
aI1502
aS'need'
p1086
a(lp1087
g1077
ag1086
aaa(lp1088
I1499
aI1502
ag1086
a(lp1089
g1068
ag1086
aaa(lp1090
I1499
aI1502
ag1086
a(lp1091
g1059
ag1086
aaa(lp1092
I1499
aI1502
ag1086
a(lp1093
g1050
ag1086
aaa(lp1094
I1507
aI1510
aS'take'
p1095
a(lp1096
g1086
ag1095
aaa(lp1097
I1507
aI1510
ag1095
a(lp1098
g1077
ag1095
aaa(lp1099
I1507
aI1510
ag1095
a(lp1100
g1068
ag1095
aaa(lp1101
I1507
aI1510
ag1095
a(lp1102
g1059
ag1095
aaa(lp1103
I1512
aI1515
aS'time'
p1104
a(lp1105
g1095
ag1104
aaa(lp1106
I1512
aI1515
ag1104
a(lp1107
g1086
ag1104
aaa(lp1108
I1512
aI1515
ag1104
a(lp1109
g1077
ag1104
aaa(lp1110
I1512
aI1515
ag1104
a(lp1111
g1068
ag1104
aaa(lp1112
I1521
aI1527
aS'explore'
p1113
a(lp1114
g1104
ag1113
aaa(lp1115
I1521
aI1527
ag1113
a(lp1116
g1095
ag1113
aaa(lp1117
I1521
aI1527
ag1113
a(lp1118
g1086
ag1113
aaa(lp1119
I1521
aI1527
ag1113
a(lp1120
g1077
ag1113
aaa(lp1121
I1533
aI1537
aS'hotel'
p1122
a(lp1123
g1113
ag1122
aaa(lp1124
I1533
aI1537
ag1122
a(lp1125
g1104
ag1122
aaa(lp1126
I1533
aI1537
ag1122
a(lp1127
g1095
ag1122
aaa(lp1128
I1533
aI1537
ag1122
a(lp1129
g1086
ag1122
aaa(lp1130
I1540
aI1546
aS'grounds'
p1131
a(lp1132
g1122
ag1131
aaa(lp1133
I1540
aI1546
ag1131
a(lp1134
g1113
ag1131
aaa(lp1135
I1540
aI1546
ag1131
a(lp1136
g1104
ag1131
aaa(lp1137
I1540
aI1546
ag1131
a(lp1138
g1095
ag1131
aaa(lp1139
I1553
aI1556
aS'town'
p1140
a(lp1141
g1131
ag1140
aaa(lp1142
I1553
aI1556
ag1140
a(lp1143
g1122
ag1140
aaa(lp1144
I1553
aI1556
ag1140
a(lp1145
g1113
ag1140
aaa(lp1146
I1553
aI1556
ag1140
a(lp1147
g1104
ag1140
aaa(lp1148
I1562
aI1566
aS'never'
p1149
a(lp1150
g1140
ag1149
aaa(lp1151
I1562
aI1566
ag1149
a(lp1152
g1131
ag1149
aaa(lp1153
I1562
aI1566
ag1149
a(lp1154
g1122
ag1149
aaa(lp1155
I1562
aI1566
ag1149
a(lp1156
g1113
ag1149
aaa(lp1157
I1568
aI1571
aS'stay'
p1158
a(lp1159
g1149
ag1158
aaa(lp1160
I1568
aI1571
ag1158
a(lp1161
g1140
ag1158
aaa(lp1162
I1568
aI1571
ag1158
a(lp1163
g1131
ag1158
aaa(lp1164
I1568
aI1571
ag1158
a(lp1165
g1122
ag1158
aaa(lp1166
I1573
aI1576
aS'less'
p1167
a(lp1168
g1158
ag1167
aaa(lp1169
I1573
aI1576
ag1167
a(lp1170
g1149
ag1167
aaa(lp1171
I1573
aI1576
ag1167
a(lp1172
g1140
ag1167
aaa(lp1173
I1573
aI1576
ag1167
a(lp1174
g1131
ag1167
aaa(lp1175
I1583
aI1583
ag87
a(lp1176
g1167
ag87
aaa(lp1177
I1583
aI1583
ag87
a(lp1178
g1158
ag87
aaa(lp1179
I1583
aI1583
ag87
a(lp1180
g1149
ag87
aaa(lp1181
I1583
aI1583
ag87
a(lp1182
g1140
ag87
aaa(lp1183
I1585
aI1588
aS'days'
p1184
a(lp1185
g87
ag1184
aaa(lp1186
I1585
aI1588
ag1184
a(lp1187
g1167
ag1184
aaa(lp1188
I1585
aI1588
ag1184
a(lp1189
g1158
ag1184
aaa(lp1190
I1585
aI1588
ag1184
a(lp1191
g1149
ag1184
aaa(lp1192
I1599
aI1601
aS'day'
p1193
a(lp1194
g1184
ag1193
aaa(lp1195
I1599
aI1601
ag1193
a(lp1196
g87
ag1193
aaa(lp1197
I1599
aI1601
ag1193
a(lp1198
g1167
ag1193
aaa(lp1199
I1599
aI1601
ag1193
a(lp1200
g1158
ag1193
aaa(lp1201
I1607
aI1609
aS'age'
p1202
a(lp1203
g1193
ag1202
aaa(lp1204
I1607
aI1609
ag1202
a(lp1205
g1184
ag1202
aaa(lp1206
I1607
aI1609
ag1202
a(lp1207
g87
ag1202
aaa(lp1208
I1607
aI1609
ag1202
a(lp1209
g1167
ag1202
aaa(lp1210
I1611
aI1616
aS'people'
p1211
a(lp1212
g1202
ag1211
aaa(lp1213
I1611
aI1616
ag1211
a(lp1214
g1193
ag1211
aaa(lp1215
I1611
aI1616
ag1211
a(lp1216
g1184
ag1211
aaa(lp1217
I1611
aI1616
ag1211
a(lp1218
g87
ag1211
aaa(lp1219
I1618
aI1622
aS'dont'
p1220
a(lp1221
g1211
ag1220
aaa(lp1222
I1618
aI1622
ag1220
a(lp1223
g1202
ag1220
aaa(lp1224
I1618
aI1622
ag1220
a(lp1225
g1193
ag1220
aaa(lp1226
I1618
aI1622
ag1220
a(lp1227
g1184
ag1220
aaa(lp1228
I1624
aI1627
aS'know'
p1229
a(lp1230
g1220
ag1229
aaa(lp1231
I1624
aI1627
ag1229
a(lp1232
g1211
ag1229
aaa(lp1233
I1624
aI1627
ag1229
a(lp1234
g1202
ag1229
aaa(lp1235
I1624
aI1627
ag1229
a(lp1236
g1193
ag1229
aaa(lp1237
I1636
aI1639
aS'slow'
p1238
a(lp1239
g1229
ag1238
aaa(lp1240
I1636
aI1639
ag1238
a(lp1241
g1220
ag1238
aaa(lp1242
I1636
aI1639
ag1238
a(lp1243
g1211
ag1238
aaa(lp1244
I1636
aI1639
ag1238
a(lp1245
g1202
ag1238
aaa(lp1246
I1650
aI1653
aS'take'
p1247
a(lp1248
g1238
ag1247
aaa(lp1249
I1650
aI1653
ag1247
a(lp1250
g1229
ag1247
aaa(lp1251
I1650
aI1653
ag1247
a(lp1252
g1220
ag1247
aaa(lp1253
I1650
aI1653
ag1247
a(lp1254
g1211
ag1247
aaa(lp1255
I1662
aI1671
aS'atmosphere'
p1256
a(lp1257
g1247
ag1256
aaa(lp1258
I1662
aI1671
ag1256
a(lp1259
g1238
ag1256
aaa(lp1260
I1662
aI1671
ag1256
a(lp1261
g1229
ag1256
aaa(lp1262
I1662
aI1671
ag1256
a(lp1263
g1220
ag1256
aaa(lp1264
I1677
aI1683
aS'history'
p1265
a(lp1266
g1256
ag1265
aaa(lp1267
I1677
aI1683
ag1265
a(lp1268
g1247
ag1265
aaa(lp1269
I1677
aI1683
ag1265
a(lp1270
g1238
ag1265
aaa(lp1271
I1677
aI1683
ag1265
a(lp1272
g1229
ag1265
aaa(lp1273
I1690
aI1694
aS'grand'
p1274
a(lp1275
g1265
ag1274
aaa(lp1276
I1690
aI1694
ag1274
a(lp1277
g1256
ag1274
aaa(lp1278
I1690
aI1694
ag1274
a(lp1279
g1247
ag1274
aaa(lp1280
I1690
aI1694
ag1274
a(lp1281
g1238
ag1274
aaa(lp1282
I1696
aI1700
aS'hotel'
p1283
a(lp1284
g1274
ag1283
aaa(lp1285
I1696
aI1700
ag1283
a(lp1286
g1265
ag1283
aaa(lp1287
I1696
aI1700
ag1283
a(lp1288
g1256
ag1283
aaa(lp1289
I1696
aI1700
ag1283
a(lp1290
g1247
ag1283
aaa(lp1291
I1711
aI1714
aS'past'
p1292
a(lp1293
g1283
ag1292
aaa(lp1294
I1711
aI1714
ag1292
a(lp1295
g1274
ag1292
aaa(lp1296
I1711
aI1714
ag1292
a(lp1297
g1265
ag1292
aaa(lp1298
I1711
aI1714
ag1292
a(lp1299
g1256
ag1292
aaa(lp1300
I1720
aI1726
aS'husband'
p1301
a(lp1302
g1292
ag1301
aaa(lp1303
I1720
aI1726
ag1301
a(lp1304
g1283
ag1301
aaa(lp1305
I1720
aI1726
ag1301
a(lp1306
g1274
ag1301
aaa(lp1307
I1720
aI1726
ag1301
a(lp1308
g1265
ag1301
aaa(lp1309
I1745
aI1748
aS'40s'
p1310
a(lp1311
g1301
ag1310
aaa(lp1312
I1745
aI1748
ag1310
a(lp1313
g1292
ag1310
aaa(lp1314
I1745
aI1748
ag1310
a(lp1315
g1283
ag1310
aaa(lp1316
I1745
aI1748
ag1310
a(lp1317
g1274
ag1310
aaa(lp1318
I1759
aI1762
aS'work'
p1319
a(lp1320
g1310
ag1319
aaa(lp1321
I1759
aI1762
ag1319
a(lp1322
g1301
ag1319
aaa(lp1323
I1759
aI1762
ag1319
a(lp1324
g1292
ag1319
aaa(lp1325
I1759
aI1762
ag1319
a(lp1326
g1283
ag1319
aaa(lp1327
I1768
aI1771
aS'like'
p1328
a(lp1329
g1319
ag1328
aaa(lp1330
I1768
aI1771
ag1328
a(lp1331
g1310
ag1328
aaa(lp1332
I1768
aI1771
ag1328
a(lp1333
g1301
ag1328
aaa(lp1334
I1768
aI1771
ag1328
a(lp1335
g1292
ag1328
aaa(lp1336
I1776
aI1780
aS'relax'
p1337
a(lp1338
g1328
ag1337
aaa(lp1339
I1776
aI1780
ag1337
a(lp1340
g1319
ag1337
aaa(lp1341
I1776
aI1780
ag1337
a(lp1342
g1310
ag1337
aaa(lp1343
I1776
aI1780
ag1337
a(lp1344
g1301
ag1337
aaa(lp1345
I1790
aI1791
aS'go'
p1346
a(lp1347
g1337
ag1346
aaa(lp1348
I1790
aI1791
ag1346
a(lp1349
g1328
ag1346
aaa(lp1350
I1790
aI1791
ag1346
a(lp1351
g1319
ag1346
aaa(lp1352
I1790
aI1791
ag1346
a(lp1353
g1310
ag1346
aaa(lp1354
I1793
aI1796
aS'away'
p1355
a(lp1356
g1346
ag1355
aaa(lp1357
I1793
aI1796
ag1355
a(lp1358
g1337
ag1355
aaa(lp1359
I1793
aI1796
ag1355
a(lp1360
g1328
ag1355
aaa(lp1361
I1793
aI1796
ag1355
a(lp1362
g1319
ag1355
aaa(lp1363
I1799
aI1802
aS'take'
p1364
a(lp1365
g1355
ag1364
aaa(lp1366
I1799
aI1802
ag1364
a(lp1367
g1346
ag1364
aaa(lp1368
I1799
aI1802
ag1364
a(lp1369
g1337
ag1364
aaa(lp1370
I1799
aI1802
ag1364
a(lp1371
g1328
ag1364
aaa(lp1372
I1804
aI1807
aS'time'
p1373
a(lp1374
g1364
ag1373
aaa(lp1375
I1804
aI1807
ag1373
a(lp1376
g1355
ag1373
aaa(lp1377
I1804
aI1807
ag1373
a(lp1378
g1346
ag1373
aaa(lp1379
I1804
aI1807
ag1373
a(lp1380
g1337
ag1373
aaa(lp1381
I1812
aI1814
aS'sit'
p1382
a(lp1383
g1373
ag1382
aaa(lp1384
I1812
aI1814
ag1382
a(lp1385
g1364
ag1382
aaa(lp1386
I1812
aI1814
ag1382
a(lp1387
g1355
ag1382
aaa(lp1388
I1812
aI1814
ag1382
a(lp1389
g1346
ag1382
aaa(lp1390
I1823
aI1829
aS'veranda'
p1391
a(lp1392
g1382
ag1391
aaa(lp1393
I1823
aI1829
ag1391
a(lp1394
g1373
ag1391
aaa(lp1395
I1823
aI1829
ag1391
a(lp1396
g1364
ag1391
aaa(lp1397
I1823
aI1829
ag1391
a(lp1398
g1355
ag1391
aaa(lp1399
I1834
aI1836
aS'one'
p1400
a(lp1401
g1391
ag1400
aaa(lp1402
I1834
aI1836
ag1400
a(lp1403
g1382
ag1400
aaa(lp1404
I1834
aI1836
ag1400
a(lp1405
g1373
ag1400
aaa(lp1406
I1834
aI1836
ag1400
a(lp1407
g1364
ag1400
aaa(lp1408
I1845
aI1848
aS'many'
p1409
a(lp1410
g1400
ag1409
aaa(lp1411
I1845
aI1848
ag1409
a(lp1412
g1391
ag1409
aaa(lp1413
I1845
aI1848
ag1409
a(lp1414
g1382
ag1409
aaa(lp1415
I1845
aI1848
ag1409
a(lp1416
g1373
ag1409
aaa(lp1417
I1850
aI1856
aS'rocking'
p1418
a(lp1419
g1409
ag1418
aaa(lp1420
I1850
aI1856
ag1418
a(lp1421
g1400
ag1418
aaa(lp1422
I1850
aI1856
ag1418
a(lp1423
g1391
ag1418
aaa(lp1424
I1850
aI1856
ag1418
a(lp1425
g1382
ag1418
aaa(lp1426
I1858
aI1863
aS'chairs'
p1427
a(lp1428
g1418
ag1427
aaa(lp1429
I1858
aI1863
ag1427
a(lp1430
g1409
ag1427
aaa(lp1431
I1858
aI1863
ag1427
a(lp1432
g1400
ag1427
aaa(lp1433
I1858
aI1863
ag1427
a(lp1434
g1391
ag1427
aaa(lp1435
I1866
aI1869
aS'walk'
p1436
a(lp1437
g1427
ag1436
aaa(lp1438
I1866
aI1869
ag1436
a(lp1439
g1418
ag1436
aaa(lp1440
I1866
aI1869
ag1436
a(lp1441
g1409
ag1436
aaa(lp1442
I1866
aI1869
ag1436
a(lp1443
g1400
ag1436
aaa(lp1444
I1880
aI1888
aS'promenade'
p1445
a(lp1446
g1436
ag1445
aaa(lp1447
I1880
aI1888
ag1445
a(lp1448
g1427
ag1445
aaa(lp1449
I1880
aI1888
ag1445
a(lp1450
g1418
ag1445
aaa(lp1451
I1880
aI1888
ag1445
a(lp1452
g1409
ag1445
aaa(lp1453
I1894
aI1900
aS'explore'
p1454
a(lp1455
g1445
ag1454
aaa(lp1456
I1894
aI1900
ag1454
a(lp1457
g1436
ag1454
aaa(lp1458
I1894
aI1900
ag1454
a(lp1459
g1427
ag1454
aaa(lp1460
I1894
aI1900
ag1454
a(lp1461
g1418
ag1454
aaa(lp1462
I1906
aI1910
aS'shops'
p1463
a(lp1464
g1454
ag1463
aaa(lp1465
I1906
aI1910
ag1463
a(lp1466
g1445
ag1463
aaa(lp1467
I1906
aI1910
ag1463
a(lp1468
g1436
ag1463
aaa(lp1469
I1906
aI1910
ag1463
a(lp1470
g1427
ag1463
aaa(lp1471
I1913
aI1914
aS'go'
p1472
a(lp1473
g1463
ag1472
aaa(lp1474
I1913
aI1914
ag1472
a(lp1475
g1454
ag1472
aaa(lp1476
I1913
aI1914
ag1472
a(lp1477
g1445
ag1472
aaa(lp1478
I1913
aI1914
ag1472
a(lp1479
g1436
ag1472
aaa(lp1480
I1923
aI1927
aS'lobby'
p1481
a(lp1482
g1472
ag1481
aaa(lp1483
I1923
aI1927
ag1481
a(lp1484
g1463
ag1481
aaa(lp1485
I1923
aI1927
ag1481
a(lp1486
g1454
ag1481
aaa(lp1487
I1923
aI1927
ag1481
a(lp1488
g1445
ag1481
aaa(lp1489
I1933
aI1938
aS'drinks'
p1490
a(lp1491
g1481
ag1490
aaa(lp1492
I1933
aI1938
ag1490
a(lp1493
g1472
ag1490
aaa(lp1494
I1933
aI1938
ag1490
a(lp1495
g1463
ag1490
aaa(lp1496
I1933
aI1938
ag1490
a(lp1497
g1454
ag1490
aaa(lp1498
I1947
aI1950
aS'late'
p1499
a(lp1500
g1490
ag1499
aaa(lp1501
I1947
aI1950
ag1499
a(lp1502
g1481
ag1499
aaa(lp1503
I1947
aI1950
ag1499
a(lp1504
g1472
ag1499
aaa(lp1505
I1947
aI1950
ag1499
a(lp1506
g1463
ag1499
aaa(lp1507
I1952
aI1960
aS'afternoon'
p1508
a(lp1509
g1499
ag1508
aaa(lp1510
I1952
aI1960
ag1508
a(lp1511
g1490
ag1508
aaa(lp1512
I1952
aI1960
ag1508
a(lp1513
g1481
ag1508
aaa(lp1514
I1952
aI1960
ag1508
a(lp1515
g1472
ag1508
aaa(lp1516
I1974
aI1978
aS'means'
p1517
a(lp1518
g1508
ag1517
aaa(lp1519
I1974
aI1978
ag1517
a(lp1520
g1499
ag1517
aaa(lp1521
I1974
aI1978
ag1517
a(lp1522
g1490
ag1517
aaa(lp1523
I1974
aI1978
ag1517
a(lp1524
g1481
ag1517
aaa(lp1525
I1981
aI1983
aS'ask'
p1526
a(lp1527
g1517
ag1526
aaa(lp1528
I1981
aI1983
ag1526
a(lp1529
g1508
ag1526
aaa(lp1530
I1981
aI1983
ag1526
a(lp1531
g1499
ag1526
aaa(lp1532
I1981
aI1983
ag1526
a(lp1533
g1490
ag1526
aaa(lp1534
I1985
aI1993
aS'questions'
p1535
a(lp1536
g1526
ag1535
aaa(lp1537
I1985
aI1993
ag1535
a(lp1538
g1517
ag1535
aaa(lp1539
I1985
aI1993
ag1535
a(lp1540
g1508
ag1535
aaa(lp1541
I1985
aI1993
ag1535
a(lp1542
g1499
ag1535
aaa(lp1543
I2000
aI2004
aS'might'
p1544
a(lp1545
g1535
ag1544
aaa(lp1546
I2000
aI2004
ag1544
a(lp1547
g1526
ag1544
aaa(lp1548
I2000
aI2004
ag1544
a(lp1549
g1517
ag1544
aaa(lp1550
I2000
aI2004
ag1544
a(lp1551
g1508
ag1544
aaa(lp1552
I2009
aI2016
aS'suprized'
p1553
a(lp1554
g1544
ag1553
aaa(lp1555
I2009
aI2016
ag1553
a(lp1556
g1535
ag1553
aaa(lp1557
I2009
aI2016
ag1553
a(lp1558
g1526
ag1553
aaa(lp1559
I2009
aI2016
ag1553
a(lp1560
g1517
ag1553
aaa(lp1561
I2025
aI2031
aS'history'
p1562
a(lp1563
g1553
ag1562
aaa(lp1564
I2025
aI2031
ag1562
a(lp1565
g1544
ag1562
aaa(lp1566
I2025
aI2031
ag1562
a(lp1567
g1535
ag1562
aaa(lp1568
I2025
aI2031
ag1562
a(lp1569
g1526
ag1562
aaa(lp1570
I2033
aI2038
aS'lesson'
p1571
a(lp1572
g1562
ag1571
aaa(lp1573
I2033
aI2038
ag1571
a(lp1574
g1553
ag1571
aaa(lp1575
I2033
aI2038
ag1571
a(lp1576
g1544
ag1571
aaa(lp1577
I2033
aI2038
ag1571
a(lp1578
g1535
ag1571
aaa(lp1579
I2044
aI2046
aS'get'
p1580
a(lp1581
g1571
ag1580
aaa(lp1582
I2044
aI2046
ag1580
a(lp1583
g1562
ag1580
aaa(lp1584
I2044
aI2046
ag1580
a(lp1585
g1553
ag1580
aaa(lp1586
I2044
aI2046
ag1580
a(lp1587
g1544
ag1580
aaa(lp1588
I2049
aI2055
aS'another'
p1589
a(lp1590
g1580
ag1589
aaa(lp1591
I2049
aI2055
ag1589
a(lp1592
g1571
ag1589
aaa(lp1593
I2049
aI2055
ag1589
a(lp1594
g1562
ag1589
aaa(lp1595
I2049
aI2055
ag1589
a(lp1596
g1553
ag1589
aaa(lp1597
I2057
aI2060
aS'plus'
p1598
a(lp1599
g1589
ag1598
aaa(lp1600
I2057
aI2060
ag1598
a(lp1601
g1580
ag1598
aaa(lp1602
I2057
aI2060
ag1598
a(lp1603
g1571
ag1598
aaa(lp1604
I2057
aI2060
ag1598
a(lp1605
g1562
ag1598
aaa(lp1606
I2065
aI2069
aS'going'
p1607
a(lp1608
g1598
ag1607
aaa(lp1609
I2065
aI2069
ag1607
a(lp1610
g1589
ag1607
aaa(lp1611
I2065
aI2069
ag1607
a(lp1612
g1580
ag1607
aaa(lp1613
I2065
aI2069
ag1607
a(lp1614
g1571
ag1607
aaa(lp1615
I2084
aI2091
aS'shuttles'
p1616
a(lp1617
g1607
ag1616
aaa(lp1618
I2084
aI2091
ag1616
a(lp1619
g1598
ag1616
aaa(lp1620
I2084
aI2091
ag1616
a(lp1621
g1589
ag1616
aaa(lp1622
I2084
aI2091
ag1616
a(lp1623
g1580
ag1616
aaa(lp1624
I2108
aI2110
aS'run'
p1625
a(lp1626
g1616
ag1625
aaa(lp1627
I2108
aI2110
ag1625
a(lp1628
g1607
ag1625
aaa(lp1629
I2108
aI2110
ag1625
a(lp1630
g1598
ag1625
aaa(lp1631
I2108
aI2110
ag1625
a(lp1632
g1589
ag1625
aaa(lp1633
I2121
aI2126
aS'resort'
p1634
a(lp1635
g1625
ag1634
aaa(lp1636
I2121
aI2126
ag1634
a(lp1637
g1616
ag1634
aaa(lp1638
I2121
aI2126
ag1634
a(lp1639
g1607
ag1634
aaa(lp1640
I2121
aI2126
ag1634
a(lp1641
g1598
ag1634
aaa(lp1642
I2140
aI2143
aS'west'
p1643
a(lp1644
g1634
ag1643
aaa(lp1645
I2140
aI2143
ag1643
a(lp1646
g1625
ag1643
aaa(lp1647
I2140
aI2143
ag1643
a(lp1648
g1616
ag1643
aaa(lp1649
I2140
aI2143
ag1643
a(lp1650
g1607
ag1643
aaa(lp1651
I2145
aI2149
aS'baden'
p1652
a(lp1653
g1643
ag1652
aaa(lp1654
I2145
aI2149
ag1652
a(lp1655
g1634
ag1652
aaa(lp1656
I2145
aI2149
ag1652
a(lp1657
g1625
ag1652
aaa(lp1658
I2145
aI2149
ag1652
a(lp1659
g1616
ag1652
aaa(lp1660
I2152
aI2155
aS'golf'
p1661
a(lp1662
g1652
ag1661
aaa(lp1663
I2152
aI2155
ag1661
a(lp1664
g1643
ag1661
aaa(lp1665
I2152
aI2155
ag1661
a(lp1666
g1634
ag1661
aaa(lp1667
I2152
aI2155
ag1661
a(lp1668
g1625
ag1661
aaa(lp1669
I2157
aI2162
aS'course'
p1670
a(lp1671
g1661
ag1670
aaa(lp1672
I2157
aI2162
ag1670
a(lp1673
g1652
ag1670
aaa(lp1674
I2157
aI2162
ag1670
a(lp1675
g1643
ag1670
aaa(lp1676
I2157
aI2162
ag1670
a(lp1677
g1634
ag1670
aaa(lp1678
I2169
aI2174
aS'winery'
p1679
a(lp1680
g1670
ag1679
aaa(lp1681
I2169
aI2174
ag1679
a(lp1682
g1661
ag1679
aaa(lp1683
I2169
aI2174
ag1679
a(lp1684
g1652
ag1679
aaa(lp1685
I2169
aI2174
ag1679
a(lp1686
g1643
ag1679
aaa(lp1687
I2189
aI2192
aS'park'
p1688
a(lp1689
g1679
ag1688
aaa(lp1690
I2189
aI2192
ag1688
a(lp1691
g1670
ag1688
aaa(lp1692
I2189
aI2192
ag1688
a(lp1693
g1661
ag1688
aaa(lp1694
I2189
aI2192
ag1688
a(lp1695
g1652
ag1688
aaa(lp1696
I2199
aI2201
aS'car'
p1697
a(lp1698
g1688
ag1697
aaa(lp1699
I2199
aI2201
ag1697
a(lp1700
g1679
ag1697
aaa(lp1701
I2199
aI2201
ag1697
a(lp1702
g1670
ag1697
aaa(lp1703
I2199
aI2201
ag1697
a(lp1704
g1661
ag1697
aaa(lp1705
I2211
aI2216
aS'either'
p1706
a(lp1707
g1697
ag1706
aaa(lp1708
I2211
aI2216
ag1706
a(lp1709
g1688
ag1706
aaa(lp1710
I2211
aI2216
ag1706
a(lp1711
g1679
ag1706
aaa(lp1712
I2211
aI2216
ag1706
a(lp1713
g1670
ag1706
aaa(lp1714
I2218
aI2221
aS'take'
p1715
a(lp1716
g1706
ag1715
aaa(lp1717
I2218
aI2221
ag1715
a(lp1718
g1697
ag1715
aaa(lp1719
I2218
aI2221
ag1715
a(lp1720
g1688
ag1715
aaa(lp1721
I2218
aI2221
ag1715
a(lp1722
g1679
ag1715
aaa(lp1723
I2227
aI2234
aS'shuttles'
p1724
a(lp1725
g1715
ag1724
aaa(lp1726
I2227
aI2234
ag1724
a(lp1727
g1706
ag1724
aaa(lp1728
I2227
aI2234
ag1724
a(lp1729
g1697
ag1724
aaa(lp1730
I2227
aI2234
ag1724
a(lp1731
g1688
ag1724
aaa(lp1732
I2239
aI2242
aS'walk'
p1733
a(lp1734
g1724
ag1733
aaa(lp1735
I2239
aI2242
ag1733
a(lp1736
g1715
ag1733
aaa(lp1737
I2239
aI2242
ag1733
a(lp1738
g1706
ag1733
aaa(lp1739
I2239
aI2242
ag1733
a(lp1740
g1697
ag1733
aaa(lp1741
I2255
aI2262
aS'anywhere'
p1742
a(lp1743
g1733
ag1742
aaa(lp1744
I2255
aI2262
ag1742
a(lp1745
g1724
ag1742
aaa(lp1746
I2255
aI2262
ag1742
a(lp1747
g1715
ag1742
aaa(lp1748
I2255
aI2262
ag1742
a(lp1749
g1706
ag1742
aaa(lp1750
I2271
aI2274
aS'town'
p1751
a(lp1752
g1742
ag1751
aaa(lp1753
I2271
aI2274
ag1751
a(lp1754
g1733
ag1751
aaa(lp1755
I2271
aI2274
ag1751
a(lp1756
g1724
ag1751
aaa(lp1757
I2271
aI2274
ag1751
a(lp1758
g1715
ag1751
aaa(lp1759
I2299
aI2302
aS'call'
p1760
a(lp1761
g1751
ag1760
aaa(lp1762
I2299
aI2302
ag1760
a(lp1763
g1742
ag1760
aaa(lp1764
I2299
aI2302
ag1760
a(lp1765
g1733
ag1760
aaa(lp1766
I2299
aI2302
ag1760
a(lp1767
g1724
ag1760
aaa(lp1768
I2316
aI2320
aS'lobby'
p1769
a(lp1770
g1760
ag1769
aaa(lp1771
I2316
aI2320
ag1769
a(lp1772
g1751
ag1769
aaa(lp1773
I2316
aI2320
ag1769
a(lp1774
g1742
ag1769
aaa(lp1775
I2316
aI2320
ag1769
a(lp1776
g1733
ag1769
aaa(lp1777
I2326
aI2329
aS'make'
p1778
a(lp1779
g1769
ag1778
aaa(lp1780
I2326
aI2329
ag1778
a(lp1781
g1760
ag1778
aaa(lp1782
I2326
aI2329
ag1778
a(lp1783
g1751
ag1778
aaa(lp1784
I2326
aI2329
ag1778
a(lp1785
g1742
ag1778
aaa(lp1786
I2331
aI2342
aS'arrangements'
p1787
a(lp1788
g1778
ag1787
aaa(lp1789
I2331
aI2342
ag1787
a(lp1790
g1769
ag1787
aaa(lp1791
I2331
aI2342
ag1787
a(lp1792
g1760
ag1787
aaa(lp1793
I2331
aI2342
ag1787
a(lp1794
g1751
ag1787
aaa(lp1795
I2352
aI2355
aS'time'
p1796
a(lp1797
g1787
ag1796
aaa(lp1798
I2352
aI2355
ag1796
a(lp1799
g1778
ag1796
aaa(lp1800
I2352
aI2355
ag1796
a(lp1801
g1769
ag1796
aaa(lp1802
I2352
aI2355
ag1796
a(lp1803
g1760
ag1796
aaa(lp1804
I2361
aI2364
aS'want'
p1805
a(lp1806
g1796
ag1805
aaa(lp1807
I2361
aI2364
ag1805
a(lp1808
g1787
ag1805
aaa(lp1809
I2361
aI2364
ag1805
a(lp1810
g1778
ag1805
aaa(lp1811
I2361
aI2364
ag1805
a(lp1812
g1769
ag1805
aaa(lp1813
I2369
aI2373
aS'leave'
p1814
a(lp1815
g1805
ag1814
aaa(lp1816
I2369
aI2373
ag1814
a(lp1817
g1796
ag1814
aaa(lp1818
I2369
aI2373
ag1814
a(lp1819
g1787
ag1814
aaa(lp1820
I2369
aI2373
ag1814
a(lp1821
g1778
ag1814
aaa(lp1822
I2389
aI2392
aS'want'
p1823
a(lp1824
g1814
ag1823
aaa(lp1825
I2389
aI2392
ag1823
a(lp1826
g1805
ag1823
aaa(lp1827
I2389
aI2392
ag1823
a(lp1828
g1796
ag1823
aaa(lp1829
I2389
aI2392
ag1823
a(lp1830
g1787
ag1823
aaa(lp1831
I2397
aI2398
aS'go'
p1832
a(lp1833
g1823
ag1832
aaa(lp1834
I2397
aI2398
ag1832
a(lp1835
g1814
ag1832
aaa(lp1836
I2397
aI2398
ag1832
a(lp1837
g1805
ag1832
aaa(lp1838
I2397
aI2398
ag1832
a(lp1839
g1796
ag1832
aaa(lp1840
I2404
aI2407
aS'show'
p1841
a(lp1842
g1832
ag1841
aaa(lp1843
I2404
aI2407
ag1841
a(lp1844
g1823
ag1841
aaa(lp1845
I2404
aI2407
ag1841
a(lp1846
g1814
ag1841
aaa(lp1847
I2404
aI2407
ag1841
a(lp1848
g1805
ag1841
aaa(lp1849
I2426
aI2432
aS'waiting'
p1850
a(lp1851
g1841
ag1850
aaa(lp1852
I2426
aI2432
ag1850
a(lp1853
g1832
ag1850
aaa(lp1854
I2426
aI2432
ag1850
a(lp1855
g1823
ag1850
aaa(lp1856
I2426
aI2432
ag1850
a(lp1857
g1814
ag1850
aaa(lp1858
I2435
aI2439
aS'hotel'
p1859
a(lp1860
g1850
ag1859
aaa(lp1861
I2435
aI2439
ag1859
a(lp1862
g1841
ag1859
aaa(lp1863
I2435
aI2439
ag1859
a(lp1864
g1832
ag1859
aaa(lp1865
I2435
aI2439
ag1859
a(lp1866
g1823
ag1859
aaa(lp1867
I2435
aI2439
aS'deals'
p1868
a(lp1869
g1859
ag1868
aaa(lp1870
I2435
aI2439
ag1868
a(lp1871
g1850
ag1868
aaa(lp1872
I2435
aI2439
ag1868
a(lp1873
g1841
ag1868
aaa(lp1874
I2435
aI2439
ag1868
a(lp1875
g1832
ag1868
aaasS'wordMap'
p1876
(lp1877
(lp1878
I0
aI8
ag5
a(lp1879
(lp1880
I0
aS'e'
p1881
aa(lp1882
I1
aS'x'
p1883
aa(lp1884
I2
aS'c'
p1885
aa(lp1886
I3
ag1881
aa(lp1887
I4
aS'l'
p1888
aa(lp1889
I5
ag1888
aa(lp1890
I6
ag1881
aa(lp1891
I7
aS'n'
p1892
aa(lp1893
I8
aS't'
p1894
aaaa(lp1895
I10
aI11
ag15
a(lp1896
(lp1897
I10
aS'4'
p1898
aa(lp1899
I11
aS'8'
p1900
aaaa(lp1901
I13
aI16
ag24
a(lp1902
(lp1903
I13
aS'y'
p1904
aa(lp1905
I14
ag1881
aa(lp1906
I15
aS'a'
p1907
aa(lp1908
I16
aS'r'
p1909
aaaa(lp1910
I18
aI20
ag33
a(lp1911
(lp1912
I18
aS'o'
p1913
aa(lp1914
I19
ag1888
aa(lp1915
I20
aS'd'
p1916
aaaa(lp1917
I22
aI25
aS'with'
p1918
a(lp1919
(lp1920
I22
aS'w'
p1921
aa(lp1922
I23
aS'i'
p1923
aa(lp1924
I24
ag1894
aa(lp1925
I25
aS'h'
p1926
aaaa(lp1927
I27
aI27
ag1907
a(lp1928
(lp1929
I27
ag1907
aaaa(lp1930
I29
aI36
ag42
a(lp1931
(lp1932
I29
aS'm'
p1933
aa(lp1934
I30
ag1913
aa(lp1935
I31
ag1916
aa(lp1936
I32
ag1881
aa(lp1937
I33
ag1909
aa(lp1938
I34
ag1907
aa(lp1939
I35
ag1894
aa(lp1940
I36
ag1881
aaaa(lp1941
I38
aI43
ag51
a(lp1942
(lp1943
I38
aS'b'
p1944
aa(lp1945
I39
aS'u'
p1946
aa(lp1947
I40
ag1916
aa(lp1948
I41
aS'g'
p1949
aa(lp1950
I42
ag1881
aa(lp1951
I43
ag1894
aaaa(lp1952
I46
aI54
ag60
a(lp1953
(lp1954
I46
ag1894
aa(lp1955
I47
ag1909
aa(lp1956
I48
ag1907
aa(lp1957
I49
aS'v'
p1958
aa(lp1959
I50
ag1881
aa(lp1960
I51
ag1888
aa(lp1961
I52
ag1923
aa(lp1962
I53
ag1892
aa(lp1963
I54
ag1949
aaaa(lp1964
I56
aI58
aS'for'
p1965
a(lp1966
(lp1967
I56
aS'f'
p1968
aa(lp1969
I57
ag1913
aa(lp1970
I58
ag1909
aaaa(lp1971
I60
aI78
ag69
a(lp1972
(lp1973
I60
ag1888
aa(lp1974
I61
ag1881
aa(lp1975
I62
ag1923
aa(lp1976
I63
aS's'
p1977
aa(lp1978
I64
ag1946
aa(lp1979
I65
ag1909
aa(lp1980
I66
ag1881
aa(lp1981
I67
aS'1'
p1982
aa(lp1983
I69
aS'\xa0'
p1984
aa(lp1985
I70
ag1909
aa(lp1986
I71
ag1881
aa(lp1987
I72
ag1958
aa(lp1988
I73
ag1923
aa(lp1989
I74
ag1881
aa(lp1990
I75
ag1921
aa(lp1991
I76
ag1977
aa(lp1992
I78
ag1984
aaaa(lp1993
I80
aI81
aS'my'
p1994
a(lp1995
(lp1996
I80
ag1933
aa(lp1997
I81
ag1904
aaaa(lp1998
I83
aI89
ag78
a(lp1999
(lp2000
I83
ag1926
aa(lp2001
I84
ag1946
aa(lp2002
I85
ag1977
aa(lp2003
I86
ag1944
aa(lp2004
I87
ag1907
aa(lp2005
I88
ag1892
aa(lp2006
I89
ag1916
aaaa(lp2007
I91
aI93
aS'and'
p2008
a(lp2009
(lp2010
I91
ag1907
aa(lp2011
I92
ag1892
aa(lp2012
I93
ag1916
aaaa(lp2013
I95
aI95
ag1923
a(lp2014
(lp2015
I95
ag1923
aaaa(lp2016
I97
aI100
aS'have'
p2017
a(lp2018
(lp2019
I97
ag1926
aa(lp2020
I98
ag1907
aa(lp2021
I99
ag1958
aa(lp2022
I100
ag1881
aaaa(lp2023
I102
aI105
aS'been'
p2024
a(lp2025
(lp2026
I102
ag1944
aa(lp2027
I103
ag1881
aa(lp2028
I104
ag1881
aa(lp2029
I105
ag1892
aaaa(lp2030
I107
aI111
aS'there'
p2031
a(lp2032
(lp2033
I107
ag1894
aa(lp2034
I108
ag1926
aa(lp2035
I109
ag1881
aa(lp2036
I110
ag1909
aa(lp2037
I111
ag1881
aaaa(lp2038
I113
aI113
ag87
a(lp2039
(lp2040
I113
ag87
aaaa(lp2041
I115
aI119
ag96
a(lp2042
(lp2043
I115
ag1894
aa(lp2044
I116
ag1923
aa(lp2045
I117
ag1933
aa(lp2046
I118
ag1881
aa(lp2047
I119
ag1977
aaaa(lp2048
I121
aI122
aS'in'
p2049
a(lp2050
(lp2051
I121
ag1923
aa(lp2052
I122
ag1892
aaaa(lp2053
I124
aI126
aS'the'
p2054
a(lp2055
(lp2056
I124
ag1894
aa(lp2057
I125
ag1926
aa(lp2058
I126
ag1881
aaaa(lp2059
I128
aI131
ag105
a(lp2060
(lp2061
I128
ag1888
aa(lp2062
I129
ag1907
aa(lp2063
I130
ag1977
aa(lp2064
I131
ag1894
aaaa(lp2065
I133
aI136
ag114
a(lp2066
(lp2067
I133
ag1904
aa(lp2068
I134
ag1881
aa(lp2069
I135
ag1907
aa(lp2070
I136
ag1909
aaaa(lp2071
I139
aI142
aS'each'
p2072
a(lp2073
(lp2074
I139
ag1881
aa(lp2075
I140
ag1907
aa(lp2076
I141
ag1885
aa(lp2077
I142
ag1926
aaaa(lp2078
I144
aI147
ag123
a(lp2079
(lp2080
I144
ag1894
aa(lp2081
I145
ag1923
aa(lp2082
I146
ag1933
aa(lp2083
I147
ag1881
aaaa(lp2084
I149
aI150
aS'we'
p2085
a(lp2086
(lp2087
I149
ag1921
aa(lp2088
I150
ag1881
aaaa(lp2089
I152
aI155
aS'have'
p2090
a(lp2091
(lp2092
I152
ag1926
aa(lp2093
I153
ag1907
aa(lp2094
I154
ag1958
aa(lp2095
I155
ag1881
aaaa(lp2096
I157
aI160
aS'been'
p2097
a(lp2098
(lp2099
I157
ag1944
aa(lp2100
I158
ag1881
aa(lp2101
I159
ag1881
aa(lp2102
I160
ag1892
aaaa(lp2103
I162
aI166
aS'there'
p2104
a(lp2105
(lp2106
I162
ag1894
aa(lp2107
I163
ag1926
aa(lp2108
I164
ag1881
aa(lp2109
I165
ag1909
aa(lp2110
I166
ag1881
aaaa(lp2111
I168
aI169
aS'it'
p2112
a(lp2113
(lp2114
I168
ag1923
aa(lp2115
I169
ag1894
aaaa(lp2116
I171
aI173
aS'has'
p2117
a(lp2118
(lp2119
I171
ag1926
aa(lp2120
I172
ag1907
aa(lp2121
I173
ag1977
aaaa(lp2122
I175
aI178
aS'been'
p2123
a(lp2124
(lp2125
I175
ag1944
aa(lp2126
I176
ag1881
aa(lp2127
I177
ag1881
aa(lp2128
I178
ag1892
aaaa(lp2129
I180
aI188
ag132
a(lp2130
(lp2131
I180
ag1921
aa(lp2132
I181
ag1913
aa(lp2133
I182
ag1892
aa(lp2134
I183
ag1916
aa(lp2135
I184
ag1881
aa(lp2136
I185
ag1909
aa(lp2137
I186
ag1968
aa(lp2138
I187
ag1946
aa(lp2139
I188
ag1888
aaaa(lp2140
I191
aI193
aS'the'
p2141
a(lp2142
(lp2143
I191
ag1894
aa(lp2144
I192
ag1926
aa(lp2145
I193
ag1881
aaaa(lp2146
I195
aI201
ag141
a(lp2147
(lp2148
I195
ag1977
aa(lp2149
I196
ag1881
aa(lp2150
I197
ag1909
aa(lp2151
I198
ag1958
aa(lp2152
I199
ag1923
aa(lp2153
I200
ag1885
aa(lp2154
I201
ag1881
aaaa(lp2155
I203
aI205
aS'has'
p2156
a(lp2157
(lp2158
I203
ag1926
aa(lp2159
I204
ag1907
aa(lp2160
I205
ag1977
aaaa(lp2161
I207
aI210
aS'been'
p2162
a(lp2163
(lp2164
I207
ag1944
aa(lp2165
I208
ag1881
aa(lp2166
I209
ag1881
aa(lp2167
I210
ag1892
aaaa(lp2168
I212
aI216
ag150
a(lp2169
(lp2170
I212
ag1949
aa(lp2171
I213
ag1909
aa(lp2172
I214
ag1881
aa(lp2173
I215
ag1907
aa(lp2174
I216
ag1894
aaaa(lp2175
I219
aI223
ag159
a(lp2176
(lp2177
I219
ag1933
aa(lp2178
I220
ag1923
aa(lp2179
I221
ag1949
aa(lp2180
I222
ag1926
aa(lp2181
I223
ag1894
aaaa(lp2182
I225
aI226
aS'be'
p2183
a(lp2184
(lp2185
I225
ag1944
aa(lp2186
I226
ag1881
aaaa(lp2187
I228
aI234
aS'because'
p2188
a(lp2189
(lp2190
I228
ag1944
aa(lp2191
I229
ag1881
aa(lp2192
I230
ag1885
aa(lp2193
I231
ag1907
aa(lp2194
I232
ag1946
aa(lp2195
I233
ag1977
aa(lp2196
I234
ag1881
aaaa(lp2197
I236
aI237
aS'we'
p2198
a(lp2199
(lp2200
I236
ag1921
aa(lp2201
I237
ag1881
aaaa(lp2202
I239
aI240
ag168
a(lp2203
(lp2204
I239
ag1949
aa(lp2205
I240
ag1913
aaaa(lp2206
I242
aI247
aS'during'
p2207
a(lp2208
(lp2209
I242
ag1916
aa(lp2210
I243
ag1946
aa(lp2211
I244
ag1909
aa(lp2212
I245
ag1923
aa(lp2213
I246
ag1892
aa(lp2214
I247
ag1949
aaaa(lp2215
I249
aI251
aS'the'
p2216
a(lp2217
(lp2218
I249
ag1894
aa(lp2219
I250
ag1926
aa(lp2220
I251
ag1881
aaaa(lp2221
I253
aI256
ag177
a(lp2222
(lp2223
I253
ag1921
aa(lp2224
I254
ag1881
aa(lp2225
I255
ag1881
aa(lp2226
I256
aS'k'
p2227
aaaa(lp2228
I258
aI261
aS'when'
p2229
a(lp2230
(lp2231
I258
ag1921
aa(lp2232
I259
ag1926
aa(lp2233
I260
ag1881
aa(lp2234
I261
ag1892
aaaa(lp2235
I263
aI266
aS'they'
p2236
a(lp2237
(lp2238
I263
ag1894
aa(lp2239
I264
ag1926
aa(lp2240
I265
ag1881
aa(lp2241
I266
ag1904
aaaa(lp2242
I268
aI270
aS'are'
p2243
a(lp2244
(lp2245
I268
ag1907
aa(lp2246
I269
ag1909
aa(lp2247
I270
ag1881
aaaa(lp2248
I272
aI275
ag186
a(lp2249
(lp2250
I272
ag1888
aa(lp2251
I273
ag1881
aa(lp2252
I274
ag1977
aa(lp2253
I275
ag1977
aaaa(lp2254
I277
aI280
ag195
a(lp2255
(lp2256
I277
ag1944
aa(lp2257
I278
ag1946
aa(lp2258
I279
ag1977
aa(lp2259
I280
ag1904
aaaa(lp2260
I283
aI285
aS'our'
p2261
a(lp2262
(lp2263
I283
ag1913
aa(lp2264
I284
ag1946
aa(lp2265
I285
ag1909
aaaa(lp2266
I287
aI291
ag204
a(lp2267
(lp2268
I287
ag1909
aa(lp2269
I288
ag1913
aa(lp2270
I289
ag1913
aa(lp2271
I290
ag1933
aa(lp2272
I291
ag1977
aaaa(lp2273
I293
aI296
aS'have'
p2274
a(lp2275
(lp2276
I293
ag1926
aa(lp2277
I294
ag1907
aa(lp2278
I295
ag1958
aa(lp2279
I296
ag1881
aaaa(lp2280
I298
aI303
ag213
a(lp2281
(lp2282
I298
ag1907
aa(lp2283
I299
ag1888
aa(lp2284
I300
ag1921
aa(lp2285
I301
ag1907
aa(lp2286
I302
ag1904
aa(lp2287
I303
ag1977
aaaa(lp2288
I305
aI308
aS'been'
p2289
a(lp2290
(lp2291
I305
ag1944
aa(lp2292
I306
ag1881
aa(lp2293
I307
ag1881
aa(lp2294
I308
ag1892
aaaa(lp2295
I310
aI314
ag222
a(lp2296
(lp2297
I310
ag1909
aa(lp2298
I311
ag1881
aa(lp2299
I312
ag1907
aa(lp2300
I313
ag1916
aa(lp2301
I314
ag1904
aaaa(lp2302
I316
aI317
aS'on'
p2303
a(lp2304
(lp2305
I316
ag1913
aa(lp2306
I317
ag1892
aaaa(lp2307
I319
aI322
ag231
a(lp2308
(lp2309
I319
ag1894
aa(lp2310
I320
ag1923
aa(lp2311
I321
ag1933
aa(lp2312
I322
ag1881
aaaa(lp2313
I325
aI326
aS'if'
p2314
a(lp2315
(lp2316
I325
ag1923
aa(lp2317
I326
ag1968
aaaa(lp2318
I328
aI330
aS'not'
p2319
a(lp2320
(lp2321
I328
ag1892
aa(lp2322
I329
ag1913
aa(lp2323
I330
ag1894
aaaa(lp2324
I332
aI336
ag240
a(lp2325
(lp2326
I332
ag1881
aa(lp2327
I333
ag1907
aa(lp2328
I334
ag1909
aa(lp2329
I335
ag1888
aa(lp2330
I336
ag1904
aaaa(lp2331
I339
aI342
aS'they'
p2332
a(lp2333
(lp2334
I339
ag1894
aa(lp2335
I340
ag1926
aa(lp2336
I341
ag1881
aa(lp2337
I342
ag1904
aaaa(lp2338
I344
aI347
aS'have'
p2339
a(lp2340
(lp2341
I344
ag1926
aa(lp2342
I345
ag1907
aa(lp2343
I346
ag1958
aa(lp2344
I347
ag1881
aaaa(lp2345
I349
aI354
ag249
a(lp2346
(lp2347
I349
ag1907
aa(lp2348
I350
ag1888
aa(lp2349
I351
ag1921
aa(lp2350
I352
ag1907
aa(lp2351
I353
ag1904
aa(lp2352
I354
ag1977
aaaa(lp2353
I356
aI363
ag258
a(lp2354
(lp2355
I356
ag1946
aa(lp2356
I357
aS'p'
p2357
aa(lp2358
I358
ag1949
aa(lp2359
I359
ag1909
aa(lp2360
I360
ag1907
aa(lp2361
I361
ag1916
aa(lp2362
I362
ag1881
aa(lp2363
I363
ag1916
aaaa(lp2364
I365
aI366
ag267
a(lp2365
(lp2366
I365
ag1946
aa(lp2367
I366
ag1977
aaaa(lp2368
I368
aI369
aS'to'
p2369
a(lp2370
(lp2371
I368
ag1894
aa(lp2372
I369
ag1913
aaaa(lp2373
I371
aI371
ag1907
a(lp2374
(lp2375
I371
ag1907
aaaa(lp2376
I373
aI377
ag276
a(lp2377
(lp2378
I373
ag1977
aa(lp2379
I374
ag1946
aa(lp2380
I375
ag1923
aa(lp2381
I376
ag1894
aa(lp2382
I377
ag1881
aaaa(lp2383
I379
aI381
aS'and'
p2384
a(lp2385
(lp2386
I379
ag1907
aa(lp2387
I380
ag1892
aa(lp2388
I381
ag1916
aaaa(lp2389
I383
aI386
aS'they'
p2390
a(lp2391
(lp2392
I383
ag1894
aa(lp2393
I384
ag1926
aa(lp2394
I385
ag1881
aa(lp2395
I386
ag1904
aaaa(lp2396
I388
aI390
aS'are'
p2397
a(lp2398
(lp2399
I388
ag1907
aa(lp2400
I389
ag1909
aa(lp2401
I390
ag1881
aaaa(lp2402
I392
aI400
ag285
a(lp2403
(lp2404
I392
ag1881
aa(lp2405
I393
ag1883
aa(lp2406
I394
ag1894
aa(lp2407
I395
ag1909
aa(lp2408
I396
ag1881
aa(lp2409
I397
ag1933
aa(lp2410
I398
ag1881
aa(lp2411
I399
ag1888
aa(lp2412
I400
ag1904
aaaa(lp2413
I402
aI405
ag294
a(lp2414
(lp2415
I402
ag1892
aa(lp2416
I403
ag1923
aa(lp2417
I404
ag1885
aa(lp2418
I405
ag1881
aaaa(lp2419
I408
aI409
aS'we'
p2420
a(lp2421
(lp2422
I408
ag1921
aa(lp2423
I409
ag1881
aaaa(lp2424
I411
aI414
aS'have'
p2425
a(lp2426
(lp2427
I411
ag1926
aa(lp2428
I412
ag1907
aa(lp2429
I413
ag1958
aa(lp2430
I414
ag1881
aaaa(lp2431
I416
aI420
ag303
a(lp2432
(lp2433
I416
ag1892
aa(lp2434
I417
ag1881
aa(lp2435
I418
ag1958
aa(lp2436
I419
ag1881
aa(lp2437
I420
ag1909
aaaa(lp2438
I422
aI426
ag312
a(lp2439
(lp2440
I422
ag1881
aa(lp2441
I423
ag1907
aa(lp2442
I424
ag1894
aa(lp2443
I425
ag1881
aa(lp2444
I426
ag1892
aaaa(lp2445
I428
aI433
ag321
a(lp2446
(lp2447
I428
ag1916
aa(lp2448
I429
ag1923
aa(lp2449
I430
ag1892
aa(lp2450
I431
ag1892
aa(lp2451
I432
ag1881
aa(lp2452
I433
ag1909
aaaa(lp2453
I435
aI436
aS'at'
p2454
a(lp2455
(lp2456
I435
ag1907
aa(lp2457
I436
ag1894
aaaa(lp2458
I438
aI440
aS'the'
p2459
a(lp2460
(lp2461
I438
ag1894
aa(lp2462
I439
ag1926
aa(lp2463
I440
ag1881
aaaa(lp2464
I442
aI447
ag330
a(lp2465
(lp2466
I442
ag1944
aa(lp2467
I443
ag1946
aa(lp2468
I444
ag1968
aa(lp2469
I445
ag1968
aa(lp2470
I446
ag1881
aa(lp2471
I447
ag1894
aaaa(lp2472
I450
aI452
aS'but'
p2473
a(lp2474
(lp2475
I450
ag1944
aa(lp2476
I451
ag1946
aa(lp2477
I452
ag1894
aaaa(lp2478
I454
aI456
aS'the'
p2479
a(lp2480
(lp2481
I454
ag1894
aa(lp2482
I455
ag1926
aa(lp2483
I456
ag1881
aaaa(lp2484
I458
aI466
ag339
a(lp2485
(lp2486
I458
ag1944
aa(lp2487
I459
ag1909
aa(lp2488
I460
ag1881
aa(lp2489
I461
ag1907
aa(lp2490
I462
ag2227
aa(lp2491
I463
ag1968
aa(lp2492
I464
ag1907
aa(lp2493
I465
ag1977
aa(lp2494
I466
ag1894
aaaa(lp2495
I468
aI470
aS'has'
p2496
a(lp2497
(lp2498
I468
ag1926
aa(lp2499
I469
ag1907
aa(lp2500
I470
ag1977
aaaa(lp2501
I472
aI475
aS'been'
p2502
a(lp2503
(lp2504
I472
ag1944
aa(lp2505
I473
ag1881
aa(lp2506
I474
ag1881
aa(lp2507
I475
ag1892
aaaa(lp2508
I477
aI480
ag348
a(lp2509
(lp2510
I477
ag1949
aa(lp2511
I478
ag1913
aa(lp2512
I479
ag1913
aa(lp2513
I480
ag1916
aaaa(lp2514
I483
aI485
aS'the'
p2515
a(lp2516
(lp2517
I483
ag1894
aa(lp2518
I484
ag1926
aa(lp2519
I485
ag1881
aaaa(lp2520
I487
aI490
ag357
a(lp2521
(lp2522
I487
ag1982
aa(lp2523
I488
ag1900
aa(lp2524
I489
aS'7'
p2525
aa(lp2526
I490
aS'5'
p2527
aaaa(lp2528
I492
aI501
ag366
a(lp2529
(lp2530
I492
ag1977
aa(lp2531
I493
ag1894
aa(lp2532
I494
ag1881
aa(lp2533
I495
ag1907
aa(lp2534
I496
ag2227
aa(lp2535
I497
ag1926
aa(lp2536
I498
ag1913
aa(lp2537
I499
ag1946
aa(lp2538
I500
ag1977
aa(lp2539
I501
ag1881
aaaa(lp2540
I504
aI505
aS'is'
p2541
a(lp2542
(lp2543
I504
ag1923
aa(lp2544
I505
ag1977
aaaa(lp2545
I507
aI510
ag375
a(lp2546
(lp2547
I507
ag1949
aa(lp2548
I508
ag1913
aa(lp2549
I509
ag1913
aa(lp2550
I510
ag1916
aaaa(lp2551
I513
aI518
ag384
a(lp2552
(lp2553
I513
ag1888
aa(lp2554
I514
ag1923
aa(lp2555
I515
ag1894
aa(lp2556
I516
ag1894
aa(lp2557
I517
ag1888
aa(lp2558
I518
ag1881
aaaa(lp2559
I520
aI525
ag393
a(lp2560
(lp2561
I520
ag2357
aa(lp2562
I521
ag1909
aa(lp2563
I522
ag1923
aa(lp2564
I523
ag1885
aa(lp2565
I524
ag1881
aa(lp2566
I525
ag1904
aaaa(lp2567
I528
aI530
aS'and'
p2568
a(lp2569
(lp2570
I528
ag1907
aa(lp2571
I529
ag1892
aa(lp2572
I530
ag1916
aaaa(lp2573
I532
aI538
ag402
a(lp2574
(lp2575
I532
ag1926
aa(lp2576
I533
ag1907
aa(lp2577
I534
ag1949
aa(lp2578
I535
ag1881
aa(lp2579
I536
ag1892
aa(lp2580
I538
ag1977
aaaa(lp2581
I540
aI541
aS'is'
p2582
a(lp2583
(lp2584
I540
ag1923
aa(lp2585
I541
ag1977
aaaa(lp2586
I543
aI546
ag411
a(lp2587
(lp2588
I543
ag1907
aa(lp2589
I544
ag1888
aa(lp2590
I545
ag1977
aa(lp2591
I546
ag1913
aaaa(lp2592
I548
aI551
ag420
a(lp2593
(lp2594
I548
ag1949
aa(lp2595
I549
ag1913
aa(lp2596
I550
ag1913
aa(lp2597
I551
ag1916
aaaa(lp2598
I554
aI556
aS'the'
p2599
a(lp2600
(lp2601
I554
ag1894
aa(lp2602
I555
ag1926
aa(lp2603
I556
ag1881
aaaa(lp2604
I558
aI562
ag429
a(lp2605
(lp2606
I558
ag2357
aa(lp2607
I559
ag1923
aa(lp2608
I560
aS'z'
p2609
aa(lp2610
I561
ag2609
aa(lp2611
I562
ag1907
aaaa(lp2612
I564
aI565
aS'at'
p2613
a(lp2614
(lp2615
I564
ag1907
aa(lp2616
I565
ag1894
aaaa(lp2617
I567
aI573
ag438
a(lp2618
(lp2619
I567
ag2357
aa(lp2620
I568
ag1888
aa(lp2621
I569
ag1946
aa(lp2622
I570
ag1894
aa(lp2623
I571
ag1913
aa(lp2624
I573
ag1977
aaaa(lp2625
I575
aI576
aS'is'
p2626
a(lp2627
(lp2628
I575
ag1923
aa(lp2629
I576
ag1977
aaaa(lp2630
I578
aI588
ag447
a(lp2631
(lp2632
I578
ag1913
aa(lp2633
I579
ag1946
aa(lp2634
I580
ag1894
aa(lp2635
I581
ag1977
aa(lp2636
I582
ag1894
aa(lp2637
I583
ag1907
aa(lp2638
I584
ag1892
aa(lp2639
I585
ag1916
aa(lp2640
I586
ag1923
aa(lp2641
I587
ag1892
aa(lp2642
I588
ag1949
aaaa(lp2643
I591
aI594
aS'each'
p2644
a(lp2645
(lp2646
I591
ag1881
aa(lp2647
I592
ag1907
aa(lp2648
I593
ag1885
aa(lp2649
I594
ag1926
aaaa(lp2650
I596
aI599
ag456
a(lp2651
(lp2652
I596
ag1894
aa(lp2653
I597
ag1923
aa(lp2654
I598
ag1933
aa(lp2655
I599
ag1881
aaaa(lp2656
I601
aI602
aS'we'
p2657
a(lp2658
(lp2659
I601
ag1921
aa(lp2660
I602
ag1881
aaaa(lp2661
I604
aI607
aS'have'
p2662
a(lp2663
(lp2664
I604
ag1926
aa(lp2665
I605
ag1907
aa(lp2666
I606
ag1958
aa(lp2667
I607
ag1881
aaaa(lp2668
I609
aI612
aS'been'
p2669
a(lp2670
(lp2671
I609
ag1944
aa(lp2672
I610
ag1881
aa(lp2673
I611
ag1881
aa(lp2674
I612
ag1892
aaaa(lp2675
I614
aI618
aS'there'
p2676
a(lp2677
(lp2678
I614
ag1894
aa(lp2679
I615
ag1926
aa(lp2680
I616
ag1881
aa(lp2681
I617
ag1909
aa(lp2682
I618
ag1881
aaaa(lp2683
I620
aI621
aS'it'
p2684
a(lp2685
(lp2686
I620
ag1923
aa(lp2687
I621
ag1894
aaaa(lp2688
I623
aI625
aS'has'
p2689
a(lp2690
(lp2691
I623
ag1926
aa(lp2692
I624
ag1907
aa(lp2693
I625
ag1977
aaaa(lp2694
I627
aI630
aS'been'
p2695
a(lp2696
(lp2697
I627
ag1944
aa(lp2698
I628
ag1881
aa(lp2699
I629
ag1881
aa(lp2700
I630
ag1892
aaaa(lp2701
I632
aI637
aS'during'
p2702
a(lp2703
(lp2704
I632
ag1916
aa(lp2705
I633
ag1946
aa(lp2706
I634
ag1909
aa(lp2707
I635
ag1923
aa(lp2708
I636
ag1892
aa(lp2709
I637
ag1949
aaaa(lp2710
I639
aI639
ag1907
a(lp2711
(lp2712
I639
ag1907
aaaa(lp2713
I641
aI649
ag465
a(lp2714
(lp2715
I641
ag1916
aa(lp2716
I642
ag1923
aa(lp2717
I643
ag1968
aa(lp2718
I644
ag1968
aa(lp2719
I645
ag1881
aa(lp2720
I646
ag1909
aa(lp2721
I647
ag1881
aa(lp2722
I648
ag1892
aa(lp2723
I649
ag1894
aaaa(lp2724
I651
aI656
ag474
a(lp2725
(lp2726
I651
ag1977
aa(lp2727
I652
ag1881
aa(lp2728
I653
ag1907
aa(lp2729
I654
ag1977
aa(lp2730
I655
ag1913
aa(lp2731
I656
ag1892
aaaa(lp2732
I659
aI660
aS'if'
p2733
a(lp2734
(lp2735
I659
ag1923
aa(lp2736
I660
ag1968
aaaa(lp2737
I662
aI664
aS'you'
p2738
a(lp2739
(lp2740
I662
ag1904
aa(lp2741
I663
ag1913
aa(lp2742
I664
ag1946
aaaa(lp2743
I666
aI669
aS'have'
p2744
a(lp2745
(lp2746
I666
ag1926
aa(lp2747
I667
ag1907
aa(lp2748
I668
ag1958
aa(lp2749
I669
ag1881
aaaa(lp2750
I671
aI673
aS'the'
p2751
a(lp2752
(lp2753
I671
ag1894
aa(lp2754
I672
ag1926
aa(lp2755
I673
ag1881
aaaa(lp2756
I675
aI680
ag483
a(lp2757
(lp2758
I675
ag1885
aa(lp2759
I676
ag1926
aa(lp2760
I677
ag1907
aa(lp2761
I678
ag1892
aa(lp2762
I679
ag1885
aa(lp2763
I680
ag1881
aaaa(lp2764
I682
aI683
aS'to'
p2765
a(lp2766
(lp2767
I682
ag1894
aa(lp2768
I683
ag1913
aaaa(lp2769
I685
aI686
ag492
a(lp2770
(lp2771
I685
ag1949
aa(lp2772
I686
ag1913
aaaa(lp2773
I688
aI689
aS'at'
p2774
a(lp2775
(lp2776
I688
ag1907
aa(lp2777
I689
ag1894
aaaa(lp2778
I691
aI699
ag501
a(lp2779
(lp2780
I691
ag1885
aa(lp2781
I692
ag1926
aa(lp2782
I693
ag1909
aa(lp2783
I694
ag1923
aa(lp2784
I695
ag1977
aa(lp2785
I696
ag1894
aa(lp2786
I697
ag1933
aa(lp2787
I698
ag1907
aa(lp2788
I699
ag1977
aaaa(lp2789
I701
aI703
aS'the'
p2790
a(lp2791
(lp2792
I701
ag1894
aa(lp2793
I702
ag1926
aa(lp2794
I703
ag1881
aaaa(lp2795
I705
aI715
ag510
a(lp2796
(lp2797
I705
ag1916
aa(lp2798
I706
ag1881
aa(lp2799
I707
ag1885
aa(lp2800
I708
ag1913
aa(lp2801
I709
ag1909
aa(lp2802
I710
ag1907
aa(lp2803
I711
ag1894
aa(lp2804
I712
ag1923
aa(lp2805
I713
ag1913
aa(lp2806
I714
ag1892
aa(lp2807
I715
ag1977
aaaa(lp2808
I717
aI719
aS'are'
p2809
a(lp2810
(lp2811
I717
ag1907
aa(lp2812
I718
ag1909
aa(lp2813
I719
ag1881
aaaa(lp2814
I721
aI729
ag519
a(lp2815
(lp2816
I721
ag1944
aa(lp2817
I722
ag1881
aa(lp2818
I723
ag1907
aa(lp2819
I724
ag1946
aa(lp2820
I725
ag1894
aa(lp2821
I726
ag1923
aa(lp2822
I727
ag1968
aa(lp2823
I728
ag1946
aa(lp2824
I729
ag1888
aaaa(lp2825
I732
aI735
aS'this'
p2826
a(lp2827
(lp2828
I732
ag1894
aa(lp2829
I733
ag1926
aa(lp2830
I734
ag1923
aa(lp2831
I735
ag1977
aaaa(lp2832
I737
aI740
ag528
a(lp2833
(lp2834
I737
ag1968
aa(lp2835
I738
ag1907
aa(lp2836
I739
ag1888
aa(lp2837
I740
ag1888
aaaa(lp2838
I742
aI745
aS'will'
p2839
a(lp2840
(lp2841
I742
ag1921
aa(lp2842
I743
ag1923
aa(lp2843
I744
ag1888
aa(lp2844
I745
ag1888
aaaa(lp2845
I747
aI748
aS'be'
p2846
a(lp2847
(lp2848
I747
ag1944
aa(lp2849
I748
ag1881
aaaa(lp2850
I750
aI752
aS'our'
p2851
a(lp2852
(lp2853
I750
ag1913
aa(lp2854
I751
ag1946
aa(lp2855
I752
ag1909
aaaa(lp2856
I754
aI759
ag537
a(lp2857
(lp2858
I754
ag1968
aa(lp2859
I755
ag1913
aa(lp2860
I756
ag1946
aa(lp2861
I757
ag1909
aa(lp2862
I758
ag1894
aa(lp2863
I759
ag1926
aaaa(lp2864
I761
aI764
ag546
a(lp2865
(lp2866
I761
ag1894
aa(lp2867
I762
ag1909
aa(lp2868
I763
ag1923
aa(lp2869
I764
ag2357
aaaa(lp2870
I766
aI769
aS'this'
p2871
a(lp2872
(lp2873
I766
ag1894
aa(lp2874
I767
ag1926
aa(lp2875
I768
ag1923
aa(lp2876
I769
ag1977
aaaa(lp2877
I771
aI774
ag555
a(lp2878
(lp2879
I771
ag1904
aa(lp2880
I772
ag1881
aa(lp2881
I773
ag1907
aa(lp2882
I774
ag1909
aaaa(lp2883
I776
aI778
aS'and'
p2884
a(lp2885
(lp2886
I776
ag1907
aa(lp2887
I777
ag1892
aa(lp2888
I778
ag1916
aaaa(lp2889
I780
aI782
aS'the'
p2890
a(lp2891
(lp2892
I780
ag1894
aa(lp2893
I781
ag1926
aa(lp2894
I782
ag1881
aaaa(lp2895
I784
aI787
ag564
a(lp2896
(lp2897
I784
ag1888
aa(lp2898
I785
ag1907
aa(lp2899
I786
ag1977
aa(lp2900
I787
ag1894
aaaa(lp2901
I789
aI790
aS'of'
p2902
a(lp2903
(lp2904
I789
ag1913
aa(lp2905
I790
ag1968
aaaa(lp2906
I792
aI794
aS'the'
p2907
a(lp2908
(lp2909
I792
ag1894
aa(lp2910
I793
ag1926
aa(lp2911
I794
ag1881
aaaa(lp2912
I796
aI802
ag573
a(lp2913
(lp2914
I796
ag1977
aa(lp2915
I797
ag1881
aa(lp2916
I798
ag1907
aa(lp2917
I799
ag1977
aa(lp2918
I800
ag1913
aa(lp2919
I801
ag1892
aa(lp2920
I802
ag1977
aaaa(lp2921
I804
aI806
aS'for'
p2922
a(lp2923
(lp2924
I804
ag1968
aa(lp2925
I805
ag1913
aa(lp2926
I806
ag1909
aaaa(lp2927
I808
aI809
ag582
a(lp2928
(lp2929
I808
ag1946
aa(lp2930
I809
ag1977
aaaa(lp2931
I812
aI813
aS'we'
p2932
a(lp2933
(lp2934
I812
ag1921
aa(lp2935
I813
ag1881
aaaa(lp2936
I815
aI818
aS'will'
p2937
a(lp2938
(lp2939
I815
ag1921
aa(lp2940
I816
ag1923
aa(lp2941
I817
ag1888
aa(lp2942
I818
ag1888
aaaa(lp2943
I820
aI823
aS'have'
p2944
a(lp2945
(lp2946
I820
ag1926
aa(lp2947
I821
ag1907
aa(lp2948
I822
ag1958
aa(lp2949
I823
ag1881
aaaa(lp2950
I825
aI828
ag591
a(lp2951
(lp2952
I825
ag1977
aa(lp2953
I826
ag1881
aa(lp2954
I827
ag1881
aa(lp2955
I828
ag1892
aaaa(lp2956
I830
aI831
aS'it'
p2957
a(lp2958
(lp2959
I830
ag1923
aa(lp2960
I831
ag1894
aaaa(lp2961
I833
aI834
aS'at'
p2962
a(lp2963
(lp2964
I833
ag1907
aa(lp2965
I834
ag1894
aaaa(lp2966
I836
aI840
ag600
a(lp2967
(lp2968
I836
ag1881
aa(lp2969
I837
ag1958
aa(lp2970
I838
ag1881
aa(lp2971
I839
ag1909
aa(lp2972
I840
ag1904
aaaa(lp2973
I842
aI845
ag609
a(lp2974
(lp2975
I842
ag1894
aa(lp2976
I843
ag1923
aa(lp2977
I844
ag1933
aa(lp2978
I845
ag1881
aaaa(lp2979
I847
aI848
aS'of'
p2980
a(lp2981
(lp2982
I847
ag1913
aa(lp2983
I848
ag1968
aaaa(lp2984
I850
aI852
aS'the'
p2985
a(lp2986
(lp2987
I850
ag1894
aa(lp2988
I851
ag1926
aa(lp2989
I852
ag1881
aaaa(lp2990
I854
aI857
ag618
a(lp2991
(lp2992
I854
ag1904
aa(lp2993
I855
ag1881
aa(lp2994
I856
ag1907
aa(lp2995
I857
ag1909
aaaa(lp2996
I860
aI861
aS'if'
p2997
a(lp2998
(lp2999
I860
ag1923
aa(lp3000
I861
ag1968
aaaa(lp3001
I863
aI865
aS'you'
p3002
a(lp3003
(lp3004
I863
ag1904
aa(lp3005
I864
ag1913
aa(lp3006
I865
ag1946
aaaa(lp3007
I867
aI869
aS'are'
p3008
a(lp3009
(lp3010
I867
ag1907
aa(lp3011
I868
ag1909
aa(lp3012
I869
ag1881
aaaa(lp3013
I871
aI875
ag627
a(lp3014
(lp3015
I871
ag1949
aa(lp3016
I872
ag1913
aa(lp3017
I873
ag1923
aa(lp3018
I874
ag1892
aa(lp3019
I875
ag1949
aaaa(lp3020
I877
aI878
aS'to'
p3021
a(lp3022
(lp3023
I877
ag1894
aa(lp3024
I878
ag1913
aaaa(lp3025
I880
aI885
ag636
a(lp3026
(lp3027
I880
ag1949
aa(lp3028
I881
ag1907
aa(lp3029
I882
ag1933
aa(lp3030
I883
ag1944
aa(lp3031
I884
ag1888
aa(lp3032
I885
ag1881
aaaa(lp3033
I887
aI893
ag645
a(lp3034
(lp3035
I887
ag1909
aa(lp3036
I888
ag1881
aa(lp3037
I889
aS'q'
p3038
aa(lp3039
I890
ag1946
aa(lp3040
I891
ag1881
aa(lp3041
I892
ag1977
aa(lp3042
I893
ag1894
aaaa(lp3043
I895
aI897
aS'the'
p3044
a(lp3045
(lp3046
I895
ag1894
aa(lp3047
I896
ag1926
aa(lp3048
I897
ag1881
aaaa(lp3049
I899
aI904
ag654
a(lp3050
(lp3051
I899
ag1949
aa(lp3052
I900
ag1907
aa(lp3053
I901
ag1909
aa(lp3054
I902
ag1916
aa(lp3055
I903
ag1881
aa(lp3056
I904
ag1892
aaaa(lp3057
I906
aI909
ag663
a(lp3058
(lp3059
I906
ag1921
aa(lp3060
I907
ag1923
aa(lp3061
I908
ag1892
aa(lp3062
I909
ag1949
aaaa(lp3063
I912
aI913
aS'it'
p3064
a(lp3065
(lp3066
I912
ag1923
aa(lp3067
I913
ag1894
aaaa(lp3068
I915
aI916
aS'is'
p3069
a(lp3070
(lp3071
I915
ag1923
aa(lp3072
I916
ag1977
aaaa(lp3073
I918
aI920
aS'the'
p3074
a(lp3075
(lp3076
I918
ag1894
aa(lp3077
I919
ag1926
aa(lp3078
I920
ag1881
aaaa(lp3079
I922
aI928
ag672
a(lp3080
(lp3081
I922
ag1885
aa(lp3082
I923
ag1888
aa(lp3083
I924
ag1913
aa(lp3084
I925
ag1977
aa(lp3085
I926
ag1881
aa(lp3086
I927
ag1977
aa(lp3087
I928
ag1894
aaaa(lp3088
I930
aI931
aS'to'
p3089
a(lp3090
(lp3091
I930
ag1894
aa(lp3092
I931
ag1913
aaaa(lp3093
I933
aI935
aS'the'
p3094
a(lp3095
(lp3096
I933
ag1894
aa(lp3097
I934
ag1926
aa(lp3098
I935
ag1881
aaaa(lp3099
I937
aI942
ag681
a(lp3100
(lp3101
I937
ag1885
aa(lp3102
I938
ag1907
aa(lp3103
I939
ag1977
aa(lp3104
I940
ag1923
aa(lp3105
I941
ag1892
aa(lp3106
I942
ag1913
aaaa(lp3107
I944
aI946
aS'and'
p3108
a(lp3109
(lp3110
I944
ag1907
aa(lp3111
I945
ag1892
aa(lp3112
I946
ag1916
aaaa(lp3113
I948
aI951
aS'with'
p3114
a(lp3115
(lp3116
I948
ag1921
aa(lp3117
I949
ag1923
aa(lp3118
I950
ag1894
aa(lp3119
I951
ag1926
aaaa(lp3120
I953
aI955
aS'the'
p3121
a(lp3122
(lp3123
I953
ag1894
aa(lp3124
I954
ag1926
aa(lp3125
I955
ag1881
aaaa(lp3126
I957
aI963
ag690
a(lp3127
(lp3128
I957
ag1977
aa(lp3129
I958
ag1881
aa(lp3130
I959
ag1909
aa(lp3131
I960
ag1958
aa(lp3132
I961
ag1923
aa(lp3133
I962
ag1885
aa(lp3134
I963
ag1881
aaaa(lp3135
I965
aI973
ag699
a(lp3136
(lp3137
I965
ag1881
aa(lp3138
I966
ag1888
aa(lp3139
I967
ag1881
aa(lp3140
I968
ag1958
aa(lp3141
I969
ag1907
aa(lp3142
I970
ag1894
aa(lp3143
I971
ag1913
aa(lp3144
I972
ag1909
aa(lp3145
I973
ag1977
aaaa(lp3146
I976
aI978
ag708
a(lp3147
(lp3148
I976
ag1907
aa(lp3149
I977
ag1977
aa(lp3150
I978
ag2227
aaaa(lp3151
I980
aI984
aS'where'
p3152
a(lp3153
(lp3154
I980
ag1921
aa(lp3155
I981
ag1926
aa(lp3156
I982
ag1881
aa(lp3157
I983
ag1909
aa(lp3158
I984
ag1881
aaaa(lp3159
I986
aI989
aS'they'
p3160
a(lp3161
(lp3162
I986
ag1894
aa(lp3163
I987
ag1926
aa(lp3164
I988
ag1881
aa(lp3165
I989
ag1904
aaaa(lp3166
I991
aI993
aS'are'
p3167
a(lp3168
(lp3169
I991
ag1907
aa(lp3170
I992
ag1909
aa(lp3171
I993
ag1881
aaaa(lp3172
I996
aI997
aS'it'
p3173
a(lp3174
(lp3175
I996
ag1923
aa(lp3176
I997
ag1894
aaaa(lp3177
I999
aI1000
aS'is'
p3178
a(lp3179
(lp3180
I999
ag1923
aa(lp3181
I1000
ag1977
aaaa(lp3182
I1002
aI1004
aS'not'
p3183
a(lp3184
(lp3185
I1002
ag1892
aa(lp3186
I1003
ag1913
aa(lp3187
I1004
ag1894
aaaa(lp3188
I1006
aI1006
ag1907
a(lp3189
(lp3190
I1006
ag1907
aaaa(lp3191
I1008
aI1011
aS'very'
p3192
a(lp3193
(lp3194
I1008
ag1958
aa(lp3195
I1009
ag1881
aa(lp3196
I1010
ag1909
aa(lp3197
I1011
ag1904
aaaa(lp3198
I1013
aI1015
ag717
a(lp3199
(lp3200
I1013
ag1968
aa(lp3201
I1014
ag1907
aa(lp3202
I1015
ag1909
aaaa(lp3203
I1017
aI1020
ag726
a(lp3204
(lp3205
I1017
ag1921
aa(lp3206
I1018
ag1907
aa(lp3207
I1019
ag1888
aa(lp3208
I1020
ag2227
aaaa(lp3209
I1022
aI1023
aS'at'
p3210
a(lp3211
(lp3212
I1022
ag1907
aa(lp3213
I1023
ag1894
aaaa(lp3214
I1025
aI1027
aS'all'
p3215
a(lp3216
(lp3217
I1025
ag1907
aa(lp3218
I1026
ag1888
aa(lp3219
I1027
ag1888
aaaa(lp3220
I1030
aI1031
aS'we'
p3221
a(lp3222
(lp3223
I1030
ag1921
aa(lp3224
I1031
ag1881
aaaa(lp3225
I1033
aI1036
aS'have'
p3226
a(lp3227
(lp3228
I1033
ag1926
aa(lp3229
I1034
ag1907
aa(lp3230
I1035
ag1958
aa(lp3231
I1036
ag1881
aaaa(lp3232
I1038
aI1042
ag735
a(lp3233
(lp3234
I1038
ag1968
aa(lp3235
I1039
ag1913
aa(lp3236
I1040
ag1946
aa(lp3237
I1041
ag1892
aa(lp3238
I1042
ag1916
aaaa(lp3239
I1044
aI1046
aS'the'
p3240
a(lp3241
(lp3242
I1044
ag1894
aa(lp3243
I1045
ag1926
aa(lp3244
I1046
ag1881
aaaa(lp3245
I1048
aI1052
ag744
a(lp3246
(lp3247
I1048
ag1977
aa(lp3248
I1049
ag1894
aa(lp3249
I1050
ag1907
aa(lp3250
I1051
ag1968
aa(lp3251
I1052
ag1968
aaaa(lp3252
I1054
aI1057
aS'very'
p3253
a(lp3254
(lp3255
I1054
ag1958
aa(lp3256
I1055
ag1881
aa(lp3257
I1056
ag1909
aa(lp3258
I1057
ag1904
aaaa(lp3259
I1059
aI1066
ag753
a(lp3260
(lp3261
I1059
ag1968
aa(lp3262
I1060
ag1909
aa(lp3263
I1061
ag1923
aa(lp3264
I1062
ag1881
aa(lp3265
I1063
ag1892
aa(lp3266
I1064
ag1916
aa(lp3267
I1065
ag1888
aa(lp3268
I1066
ag1904
aaaa(lp3269
I1068
aI1070
aS'and'
p3270
a(lp3271
(lp3272
I1068
ag1907
aa(lp3273
I1069
ag1892
aa(lp3274
I1070
ag1916
aaaa(lp3275
I1072
aI1075
aS'more'
p3276
a(lp3277
(lp3278
I1072
ag1933
aa(lp3279
I1073
ag1913
aa(lp3280
I1074
ag1909
aa(lp3281
I1075
ag1881
aaaa(lp3282
I1077
aI1080
aS'than'
p3283
a(lp3284
(lp3285
I1077
ag1894
aa(lp3286
I1078
ag1926
aa(lp3287
I1079
ag1907
aa(lp3288
I1080
ag1892
aaaa(lp3289
I1082
aI1088
ag762
a(lp3290
(lp3291
I1082
ag1921
aa(lp3292
I1083
ag1923
aa(lp3293
I1084
ag1888
aa(lp3294
I1085
ag1888
aa(lp3295
I1086
ag1923
aa(lp3296
I1087
ag1892
aa(lp3297
I1088
ag1949
aaaa(lp3298
I1090
aI1091
aS'to'
p3299
a(lp3300
(lp3301
I1090
ag1894
aa(lp3302
I1091
ag1913
aaaa(lp3303
I1093
aI1098
ag771
a(lp3304
(lp3305
I1093
ag1907
aa(lp3306
I1094
ag1892
aa(lp3307
I1095
ag1977
aa(lp3308
I1096
ag1921
aa(lp3309
I1097
ag1881
aa(lp3310
I1098
ag1909
aaaa(lp3311
I1100
aI1108
ag780
a(lp3312
(lp3313
I1100
ag3038
aa(lp3314
I1101
ag1946
aa(lp3315
I1102
ag1881
aa(lp3316
I1103
ag1977
aa(lp3317
I1104
ag1894
aa(lp3318
I1105
ag1923
aa(lp3319
I1106
ag1913
aa(lp3320
I1107
ag1892
aa(lp3321
I1108
ag1977
aaaa(lp3322
I1110
aI1112
aS'and'
p3323
a(lp3324
(lp3325
I1110
ag1907
aa(lp3326
I1111
ag1892
aa(lp3327
I1112
ag1916
aaaa(lp3328
I1114
aI1117
ag789
a(lp3329
(lp3330
I1114
ag1894
aa(lp3331
I1115
ag1907
aa(lp3332
I1116
ag1888
aa(lp3333
I1117
ag2227
aaaa(lp3334
I1119
aI1122
aS'with'
p3335
a(lp3336
(lp3337
I1119
ag1921
aa(lp3338
I1120
ag1923
aa(lp3339
I1121
ag1894
aa(lp3340
I1122
ag1926
aaaa(lp3341
I1124
aI1125
ag798
a(lp3342
(lp3343
I1124
ag1946
aa(lp3344
I1125
ag1977
aaaa(lp3345
I1127
aI1131
aS'about'
p3346
a(lp3347
(lp3348
I1127
ag1907
aa(lp3349
I1128
ag1944
aa(lp3350
I1129
ag1913
aa(lp3351
I1130
ag1946
aa(lp3352
I1131
ag1894
aaaa(lp3353
I1133
aI1135
aS'the'
p3354
a(lp3355
(lp3356
I1133
ag1894
aa(lp3357
I1134
ag1926
aa(lp3358
I1135
ag1881
aaaa(lp3359
I1137
aI1143
ag807
a(lp3360
(lp3361
I1137
ag1926
aa(lp3362
I1138
ag1923
aa(lp3363
I1139
ag1977
aa(lp3364
I1140
ag1894
aa(lp3365
I1141
ag1913
aa(lp3366
I1142
ag1909
aa(lp3367
I1143
ag1904
aaaa(lp3368
I1145
aI1146
aS'of'
p3369
a(lp3370
(lp3371
I1145
ag1913
aa(lp3372
I1146
ag1968
aaaa(lp3373
I1148
aI1150
aS'the'
p3374
a(lp3375
(lp3376
I1148
ag1894
aa(lp3377
I1149
ag1926
aa(lp3378
I1150
ag1881
aaaa(lp3379
I1152
aI1157
ag816
a(lp3380
(lp3381
I1152
ag1926
aa(lp3382
I1153
ag1913
aa(lp3383
I1154
ag1894
aa(lp3384
I1155
ag1881
aa(lp3385
I1156
ag1888
aa(lp3386
I1157
ag1977
aaaa(lp3387
I1160
aI1164
ag825
a(lp3388
(lp3389
I1160
ag1977
aa(lp3390
I1161
ag1923
aa(lp3391
I1162
ag1892
aa(lp3392
I1163
ag1885
aa(lp3393
I1164
ag1881
aaaa(lp3394
I1166
aI1167
aS'we'
p3395
a(lp3396
(lp3397
I1166
ag1921
aa(lp3398
I1167
ag1881
aaaa(lp3399
I1169
aI1172
ag834
a(lp3400
(lp3401
I1169
ag1888
aa(lp3402
I1170
ag1923
aa(lp3403
I1171
ag2227
aa(lp3404
I1172
ag1881
aaaa(lp3405
I1174
aI1175
aS'to'
p3406
a(lp3407
(lp3408
I1174
ag1894
aa(lp3409
I1175
ag1913
aaaa(lp3410
I1177
aI1181
ag843
a(lp3411
(lp3412
I1177
ag1977
aa(lp3413
I1178
ag1888
aa(lp3414
I1179
ag1881
aa(lp3415
I1180
ag1881
aa(lp3416
I1181
ag2357
aaaa(lp3417
I1183
aI1184
aS'in'
p3418
a(lp3419
(lp3420
I1183
ag1923
aa(lp3421
I1184
ag1892
aaaa(lp3422
I1186
aI1190
aS'while'
p3423
a(lp3424
(lp3425
I1186
ag1921
aa(lp3426
I1187
ag1926
aa(lp3427
I1188
ag1923
aa(lp3428
I1189
ag1888
aa(lp3429
I1190
ag1881
aaaa(lp3430
I1192
aI1193
aS'we'
p3431
a(lp3432
(lp3433
I1192
ag1921
aa(lp3434
I1193
ag1881
aaaa(lp3435
I1195
aI1197
aS'are'
p3436
a(lp3437
(lp3438
I1195
ag1907
aa(lp3439
I1196
ag1909
aa(lp3440
I1197
ag1881
aaaa(lp3441
I1199
aI1202
ag852
a(lp3442
(lp3443
I1199
ag1907
aa(lp3444
I1200
ag1921
aa(lp3445
I1201
ag1907
aa(lp3446
I1202
ag1904
aaaa(lp3447
I1204
aI1205
aS'we'
p3448
a(lp3449
(lp3450
I1204
ag1921
aa(lp3451
I1205
ag1881
aaaa(lp3452
I1207
aI1213
ag861
a(lp3453
(lp3454
I1207
ag1946
aa(lp3455
I1208
ag1977
aa(lp3456
I1209
ag1946
aa(lp3457
I1210
ag1907
aa(lp3458
I1211
ag1888
aa(lp3459
I1212
ag1888
aa(lp3460
I1213
ag1904
aaaa(lp3461
I1215
aI1216
aS'do'
p3462
a(lp3463
(lp3464
I1215
ag1916
aa(lp3465
I1216
ag1913
aaaa(lp3466
I1218
aI1220
aS'not'
p3467
a(lp3468
(lp3469
I1218
ag1892
aa(lp3470
I1219
ag1913
aa(lp3471
I1220
ag1894
aaaa(lp3472
I1222
aI1225
aS'have'
p3473
a(lp3474
(lp3475
I1222
ag1926
aa(lp3476
I1223
ag1907
aa(lp3477
I1224
ag1958
aa(lp3478
I1225
ag1881
aaaa(lp3479
I1227
aI1229
aS'our'
p3480
a(lp3481
(lp3482
I1227
ag1913
aa(lp3483
I1228
ag1946
aa(lp3484
I1229
ag1909
aaaa(lp3485
I1231
aI1234
ag870
a(lp3486
(lp3487
I1231
ag1909
aa(lp3488
I1232
ag1913
aa(lp3489
I1233
ag1913
aa(lp3490
I1234
ag1933
aaaa(lp3491
I1236
aI1242
ag879
a(lp3492
(lp3493
I1236
ag1885
aa(lp3494
I1237
ag1888
aa(lp3495
I1238
ag1881
aa(lp3496
I1239
ag1907
aa(lp3497
I1240
ag1892
aa(lp3498
I1241
ag1881
aa(lp3499
I1242
ag1916
aaaa(lp3500
I1244
aI1248
ag888
a(lp3501
(lp3502
I1244
ag1881
aa(lp3503
I1245
ag1958
aa(lp3504
I1246
ag1881
aa(lp3505
I1247
ag1909
aa(lp3506
I1248
ag1904
aaaa(lp3507
I1250
aI1252
ag897
a(lp3508
(lp3509
I1250
ag1916
aa(lp3510
I1251
ag1907
aa(lp3511
I1252
ag1904
aaaa(lp3512
I1255
aI1258
aS'once'
p3513
a(lp3514
(lp3515
I1255
ag1913
aa(lp3516
I1256
ag1892
aa(lp3517
I1257
ag1885
aa(lp3518
I1258
ag1881
aaaa(lp3519
I1260
aI1264
aS'while'
p3520
a(lp3521
(lp3522
I1260
ag1921
aa(lp3523
I1261
ag1926
aa(lp3524
I1262
ag1923
aa(lp3525
I1263
ag1888
aa(lp3526
I1264
ag1881
aaaa(lp3527
I1266
aI1267
aS'we'
p3528
a(lp3529
(lp3530
I1266
ag1921
aa(lp3531
I1267
ag1881
aaaa(lp3532
I1269
aI1271
aS'are'
p3533
a(lp3534
(lp3535
I1269
ag1907
aa(lp3536
I1270
ag1909
aa(lp3537
I1271
ag1881
aaaa(lp3538
I1273
aI1277
aS'there'
p3539
a(lp3540
(lp3541
I1273
ag1894
aa(lp3542
I1274
ag1926
aa(lp3543
I1275
ag1881
aa(lp3544
I1276
ag1909
aa(lp3545
I1277
ag1881
aaaa(lp3546
I1279
aI1280
aS'is'
p3547
a(lp3548
(lp3549
I1279
ag1923
aa(lp3550
I1280
ag1977
aaaa(lp3551
I1282
aI1287
ag906
a(lp3552
(lp3553
I1282
ag1881
aa(lp3554
I1283
ag1892
aa(lp3555
I1284
ag1913
aa(lp3556
I1285
ag1946
aa(lp3557
I1286
ag1949
aa(lp3558
I1287
ag1926
aaaa(lp3559
I1290
aI1290
ag1923
a(lp3560
(lp3561
I1290
ag1923
aaaa(lp3562
I1292
aI1295
aS'just'
p3563
a(lp3564
(lp3565
I1292
aS'j'
p3566
aa(lp3567
I1293
ag1946
aa(lp3568
I1294
ag1977
aa(lp3569
I1295
ag1894
aaaa(lp3570
I1297
aI1299
ag915
a(lp3571
(lp3572
I1297
ag1907
aa(lp3573
I1298
ag1977
aa(lp3574
I1299
ag2227
aaaa(lp3575
I1301
aI1303
aS'for'
p3576
a(lp3577
(lp3578
I1301
ag1968
aa(lp3579
I1302
ag1913
aa(lp3580
I1303
ag1909
aaaa(lp3581
I1305
aI1309
ag924
a(lp3582
(lp3583
I1305
ag1881
aa(lp3584
I1306
ag1883
aa(lp3585
I1307
ag1894
aa(lp3586
I1308
ag1909
aa(lp3587
I1309
ag1907
aaaa(lp3588
I1311
aI1316
ag933
a(lp3589
(lp3590
I1311
ag1894
aa(lp3591
I1312
ag1913
aa(lp3592
I1313
ag1921
aa(lp3593
I1314
ag1881
aa(lp3594
I1315
ag1888
aa(lp3595
I1316
ag1977
aaaa(lp3596
I1318
aI1320
aS'and'
p3597
a(lp3598
(lp3599
I1318
ag1907
aa(lp3600
I1319
ag1892
aa(lp3601
I1320
ag1916
aaaa(lp3602
I1322
aI1327
ag942
a(lp3603
(lp3604
I1322
ag1885
aa(lp3605
I1323
ag1913
aa(lp3606
I1324
ag1968
aa(lp3607
I1325
ag1968
aa(lp3608
I1326
ag1881
aa(lp3609
I1327
ag1881
aaaa(lp3610
I1330
aI1332
aS'the'
p3611
a(lp3612
(lp3613
I1330
ag1894
aa(lp3614
I1331
ag1926
aa(lp3615
I1332
ag1881
aaaa(lp3616
I1334
aI1338
ag951
a(lp3617
(lp3618
I1334
ag1968
aa(lp3619
I1335
ag1888
aa(lp3620
I1336
ag1913
aa(lp3621
I1337
ag1913
aa(lp3622
I1338
ag1909
aaaa(lp3623
I1340
aI1343
ag960
a(lp3624
(lp3625
I1340
ag1933
aa(lp3626
I1341
ag1907
aa(lp3627
I1342
ag1923
aa(lp3628
I1343
ag1916
aaaa(lp3629
I1345
aI1346
aS'is'
p3630
a(lp3631
(lp3632
I1345
ag1923
aa(lp3633
I1346
ag1977
aaaa(lp3634
I1348
aI1354
ag969
a(lp3635
(lp3636
I1348
ag1946
aa(lp3637
I1349
ag1977
aa(lp3638
I1350
ag1946
aa(lp3639
I1351
ag1907
aa(lp3640
I1352
ag1888
aa(lp3641
I1353
ag1888
aa(lp3642
I1354
ag1904
aaaa(lp3643
I1356
aI1362
ag978
a(lp3644
(lp3645
I1356
ag1921
aa(lp3646
I1357
ag1907
aa(lp3647
I1358
ag1923
aa(lp3648
I1359
ag1894
aa(lp3649
I1360
ag1923
aa(lp3650
I1361
ag1892
aa(lp3651
I1362
ag1949
aaaa(lp3652
I1364
aI1365
aS'in'
p3653
a(lp3654
(lp3655
I1364
ag1923
aa(lp3656
I1365
ag1892
aaaa(lp3657
I1367
aI1369
aS'the'
p3658
a(lp3659
(lp3660
I1367
ag1894
aa(lp3661
I1368
ag1926
aa(lp3662
I1369
ag1881
aaaa(lp3663
I1371
aI1374
ag987
a(lp3664
(lp3665
I1371
ag1926
aa(lp3666
I1372
ag1907
aa(lp3667
I1373
ag1888
aa(lp3668
I1374
ag1888
aaaa(lp3669
I1376
aI1377
aS'or'
p3670
a(lp3671
(lp3672
I1376
ag1913
aa(lp3673
I1377
ag1909
aaaa(lp3674
I1379
aI1380
aS'is'
p3675
a(lp3676
(lp3677
I1379
ag1923
aa(lp3678
I1380
ag1977
aaaa(lp3679
I1382
aI1386
ag996
a(lp3680
(lp3681
I1382
ag1885
aa(lp3682
I1383
ag1888
aa(lp3683
I1384
ag1913
aa(lp3684
I1385
ag1977
aa(lp3685
I1386
ag1881
aaaa(lp3686
I1388
aI1389
aS'by'
p3687
a(lp3688
(lp3689
I1388
ag1944
aa(lp3690
I1389
ag1904
aaaa(lp3691
I1391
aI1394
aS'when'
p3692
a(lp3693
(lp3694
I1391
ag1921
aa(lp3695
I1392
ag1926
aa(lp3696
I1393
ag1881
aa(lp3697
I1394
ag1892
aaaa(lp3698
I1396
aI1397
aS'we'
p3699
a(lp3700
(lp3701
I1396
ag1921
aa(lp3702
I1397
ag1881
aaaa(lp3703
I1399
aI1403
ag1005
a(lp3704
(lp3705
I1399
ag1888
aa(lp3706
I1400
ag1881
aa(lp3707
I1401
ag1907
aa(lp3708
I1402
ag1958
aa(lp3709
I1403
ag1881
aaaa(lp3710
I1405
aI1407
aS'our'
p3711
a(lp3712
(lp3713
I1405
ag1913
aa(lp3714
I1406
ag1946
aa(lp3715
I1407
ag1909
aaaa(lp3716
I1409
aI1412
ag1014
a(lp3717
(lp3718
I1409
ag1909
aa(lp3719
I1410
ag1913
aa(lp3720
I1411
ag1913
aa(lp3721
I1412
ag1933
aaaa(lp3722
I1414
aI1418
aS'after'
p3723
a(lp3724
(lp3725
I1414
ag1907
aa(lp3726
I1415
ag1968
aa(lp3727
I1416
ag1894
aa(lp3728
I1417
ag1881
aa(lp3729
I1418
ag1909
aaaa(lp3730
I1420
aI1424
ag1023
a(lp3731
(lp3732
I1420
ag1888
aa(lp3733
I1421
ag1946
aa(lp3734
I1422
ag1892
aa(lp3735
I1423
ag1885
aa(lp3736
I1424
ag1926
aaaa(lp3737
I1426
aI1428
aS'and'
p3738
a(lp3739
(lp3740
I1426
ag1907
aa(lp3741
I1427
ag1892
aa(lp3742
I1428
ag1916
aaaa(lp3743
I1430
aI1435
ag1032
a(lp3744
(lp3745
I1430
ag1907
aa(lp3746
I1431
ag1888
aa(lp3747
I1432
ag1921
aa(lp3748
I1433
ag1907
aa(lp3749
I1434
ag1904
aa(lp3750
I1435
ag1977
aaaa(lp3751
I1437
aI1440
ag1041
a(lp3752
(lp3753
I1437
ag1907
aa(lp3754
I1438
ag1977
aa(lp3755
I1439
ag2227
aa(lp3756
I1440
ag1977
aaaa(lp3757
I1442
aI1443
aS'if'
p3758
a(lp3759
(lp3760
I1442
ag1923
aa(lp3761
I1443
ag1968
aaaa(lp3762
I1445
aI1446
aS'we'
p3763
a(lp3764
(lp3765
I1445
ag1921
aa(lp3766
I1446
ag1881
aaaa(lp3767
I1448
aI1451
ag1050
a(lp3768
(lp3769
I1448
ag1892
aa(lp3770
I1449
ag1881
aa(lp3771
I1450
ag1881
aa(lp3772
I1451
ag1916
aaaa(lp3773
I1453
aI1460
ag1059
a(lp3774
(lp3775
I1453
ag1907
aa(lp3776
I1454
ag1892
aa(lp3777
I1455
ag1904
aa(lp3778
I1456
ag1894
aa(lp3779
I1457
ag1926
aa(lp3780
I1458
ag1923
aa(lp3781
I1459
ag1892
aa(lp3782
I1460
ag1949
aaaa(lp3783
I1463
aI1466
aS'this'
p3784
a(lp3785
(lp3786
I1463
ag1894
aa(lp3787
I1464
ag1926
aa(lp3788
I1465
ag1923
aa(lp3789
I1466
ag1977
aaaa(lp3790
I1468
aI1469
aS'is'
p3791
a(lp3792
(lp3793
I1468
ag1923
aa(lp3794
I1469
ag1977
aaaa(lp3795
I1471
aI1471
ag1907
a(lp3796
(lp3797
I1471
ag1907
aaaa(lp3798
I1473
aI1483
ag1068
a(lp3799
(lp3800
I1473
ag1916
aa(lp3801
I1474
ag1881
aa(lp3802
I1475
ag1977
aa(lp3803
I1476
ag1894
aa(lp3804
I1477
ag1923
aa(lp3805
I1478
ag1892
aa(lp3806
I1479
ag1907
aa(lp3807
I1480
ag1894
aa(lp3808
I1481
ag1923
aa(lp3809
I1482
ag1913
aa(lp3810
I1483
ag1892
aaaa(lp3811
I1485
aI1489
ag1077
a(lp3812
(lp3813
I1485
ag1926
aa(lp3814
I1486
ag1913
aa(lp3815
I1487
ag1894
aa(lp3816
I1488
ag1881
aa(lp3817
I1489
ag1888
aaaa(lp3818
I1491
aI1493
aS'and'
p3819
a(lp3820
(lp3821
I1491
ag1907
aa(lp3822
I1492
ag1892
aa(lp3823
I1493
ag1916
aaaa(lp3824
I1495
aI1497
aS'you'
p3825
a(lp3826
(lp3827
I1495
ag1904
aa(lp3828
I1496
ag1913
aa(lp3829
I1497
ag1946
aaaa(lp3830
I1499
aI1502
ag1086
a(lp3831
(lp3832
I1499
ag1892
aa(lp3833
I1500
ag1881
aa(lp3834
I1501
ag1881
aa(lp3835
I1502
ag1916
aaaa(lp3836
I1504
aI1505
aS'to'
p3837
a(lp3838
(lp3839
I1504
ag1894
aa(lp3840
I1505
ag1913
aaaa(lp3841
I1507
aI1510
ag1095
a(lp3842
(lp3843
I1507
ag1894
aa(lp3844
I1508
ag1907
aa(lp3845
I1509
ag2227
aa(lp3846
I1510
ag1881
aaaa(lp3847
I1512
aI1515
ag1104
a(lp3848
(lp3849
I1512
ag1894
aa(lp3850
I1513
ag1923
aa(lp3851
I1514
ag1933
aa(lp3852
I1515
ag1881
aaaa(lp3853
I1517
aI1519
aS'and'
p3854
a(lp3855
(lp3856
I1517
ag1907
aa(lp3857
I1518
ag1892
aa(lp3858
I1519
ag1916
aaaa(lp3859
I1521
aI1527
ag1113
a(lp3860
(lp3861
I1521
ag1881
aa(lp3862
I1522
ag1883
aa(lp3863
I1523
ag2357
aa(lp3864
I1524
ag1888
aa(lp3865
I1525
ag1913
aa(lp3866
I1526
ag1909
aa(lp3867
I1527
ag1881
aaaa(lp3868
I1529
aI1531
aS'the'
p3869
a(lp3870
(lp3871
I1529
ag1894
aa(lp3872
I1530
ag1926
aa(lp3873
I1531
ag1881
aaaa(lp3874
I1533
aI1537
ag1122
a(lp3875
(lp3876
I1533
ag1926
aa(lp3877
I1534
ag1913
aa(lp3878
I1535
ag1894
aa(lp3879
I1536
ag1881
aa(lp3880
I1537
ag1888
aaaa(lp3881
I1540
aI1546
ag1131
a(lp3882
(lp3883
I1540
ag1949
aa(lp3884
I1541
ag1909
aa(lp3885
I1542
ag1913
aa(lp3886
I1543
ag1946
aa(lp3887
I1544
ag1892
aa(lp3888
I1545
ag1916
aa(lp3889
I1546
ag1977
aaaa(lp3890
I1549
aI1551
aS'and'
p3891
a(lp3892
(lp3893
I1549
ag1907
aa(lp3894
I1550
ag1892
aa(lp3895
I1551
ag1916
aaaa(lp3896
I1553
aI1556
ag1140
a(lp3897
(lp3898
I1553
ag1894
aa(lp3899
I1554
ag1913
aa(lp3900
I1555
ag1921
aa(lp3901
I1556
ag1892
aaaa(lp3902
I1559
aI1560
aS'we'
p3903
a(lp3904
(lp3905
I1559
ag1921
aa(lp3906
I1560
ag1881
aaaa(lp3907
I1562
aI1566
ag1149
a(lp3908
(lp3909
I1562
ag1892
aa(lp3910
I1563
ag1881
aa(lp3911
I1564
ag1958
aa(lp3912
I1565
ag1881
aa(lp3913
I1566
ag1909
aaaa(lp3914
I1568
aI1571
ag1158
a(lp3915
(lp3916
I1568
ag1977
aa(lp3917
I1569
ag1894
aa(lp3918
I1570
ag1907
aa(lp3919
I1571
ag1904
aaaa(lp3920
I1573
aI1576
ag1167
a(lp3921
(lp3922
I1573
ag1888
aa(lp3923
I1574
ag1881
aa(lp3924
I1575
ag1977
aa(lp3925
I1576
ag1977
aaaa(lp3926
I1578
aI1581
aS'than'
p3927
a(lp3928
(lp3929
I1578
ag1894
aa(lp3930
I1579
ag1926
aa(lp3931
I1580
ag1907
aa(lp3932
I1581
ag1892
aaaa(lp3933
I1583
aI1583
ag87
a(lp3934
(lp3935
I1583
ag87
aaaa(lp3936
I1585
aI1588
ag1184
a(lp3937
(lp3938
I1585
ag1916
aa(lp3939
I1586
ag1907
aa(lp3940
I1587
ag1904
aa(lp3941
I1588
ag1977
aaaa(lp3942
I1591
aI1592
aS'in'
p3943
a(lp3944
(lp3945
I1591
ag1923
aa(lp3946
I1592
ag1892
aaaa(lp3947
I1594
aI1597
aS'this'
p3948
a(lp3949
(lp3950
I1594
ag1894
aa(lp3951
I1595
ag1926
aa(lp3952
I1596
ag1923
aa(lp3953
I1597
ag1977
aaaa(lp3954
I1599
aI1601
ag1193
a(lp3955
(lp3956
I1599
ag1916
aa(lp3957
I1600
ag1907
aa(lp3958
I1601
ag1904
aaaa(lp3959
I1603
aI1605
aS'and'
p3960
a(lp3961
(lp3962
I1603
ag1907
aa(lp3963
I1604
ag1892
aa(lp3964
I1605
ag1916
aaaa(lp3965
I1607
aI1609
ag1202
a(lp3966
(lp3967
I1607
ag1907
aa(lp3968
I1608
ag1949
aa(lp3969
I1609
ag1881
aaaa(lp3970
I1611
aI1616
ag1211
a(lp3971
(lp3972
I1611
ag2357
aa(lp3973
I1612
ag1881
aa(lp3974
I1613
ag1913
aa(lp3975
I1614
ag2357
aa(lp3976
I1615
ag1888
aa(lp3977
I1616
ag1881
aaaa(lp3978
I1618
aI1622
ag1220
a(lp3979
(lp3980
I1618
ag1916
aa(lp3981
I1619
ag1913
aa(lp3982
I1620
ag1892
aa(lp3983
I1622
ag1894
aaaa(lp3984
I1624
aI1627
ag1229
a(lp3985
(lp3986
I1624
ag2227
aa(lp3987
I1625
ag1892
aa(lp3988
I1626
ag1913
aa(lp3989
I1627
ag1921
aaaa(lp3990
I1629
aI1631
aS'how'
p3991
a(lp3992
(lp3993
I1629
ag1926
aa(lp3994
I1630
ag1913
aa(lp3995
I1631
ag1921
aaaa(lp3996
I1633
aI1634
aS'to'
p3997
a(lp3998
(lp3999
I1633
ag1894
aa(lp4000
I1634
ag1913
aaaa(lp4001
I1636
aI1639
ag1238
a(lp4002
(lp4003
I1636
ag1977
aa(lp4004
I1637
ag1888
aa(lp4005
I1638
ag1913
aa(lp4006
I1639
ag1921
aaaa(lp4007
I1641
aI1644
aS'down'
p4008
a(lp4009
(lp4010
I1641
ag1916
aa(lp4011
I1642
ag1913
aa(lp4012
I1643
ag1921
aa(lp4013
I1644
ag1892
aaaa(lp4014
I1646
aI1648
aS'and'
p4015
a(lp4016
(lp4017
I1646
ag1907
aa(lp4018
I1647
ag1892
aa(lp4019
I1648
ag1916
aaaa(lp4020
I1650
aI1653
ag1247
a(lp4021
(lp4022
I1650
ag1894
aa(lp4023
I1651
ag1907
aa(lp4024
I1652
ag2227
aa(lp4025
I1653
ag1881
aaaa(lp4026
I1655
aI1656
aS'in'
p4027
a(lp4028
(lp4029
I1655
ag1923
aa(lp4030
I1656
ag1892
aaaa(lp4031
I1658
aI1660
aS'the'
p4032
a(lp4033
(lp4034
I1658
ag1894
aa(lp4035
I1659
ag1926
aa(lp4036
I1660
ag1881
aaaa(lp4037
I1662
aI1671
ag1256
a(lp4038
(lp4039
I1662
ag1907
aa(lp4040
I1663
ag1894
aa(lp4041
I1664
ag1933
aa(lp4042
I1665
ag1913
aa(lp4043
I1666
ag1977
aa(lp4044
I1667
ag2357
aa(lp4045
I1668
ag1926
aa(lp4046
I1669
ag1881
aa(lp4047
I1670
ag1909
aa(lp4048
I1671
ag1881
aaaa(lp4049
I1673
aI1675
aS'and'
p4050
a(lp4051
(lp4052
I1673
ag1907
aa(lp4053
I1674
ag1892
aa(lp4054
I1675
ag1916
aaaa(lp4055
I1677
aI1683
ag1265
a(lp4056
(lp4057
I1677
ag1926
aa(lp4058
I1678
ag1923
aa(lp4059
I1679
ag1977
aa(lp4060
I1680
ag1894
aa(lp4061
I1681
ag1913
aa(lp4062
I1682
ag1909
aa(lp4063
I1683
ag1904
aaaa(lp4064
I1685
aI1686
aS'of'
p4065
a(lp4066
(lp4067
I1685
ag1913
aa(lp4068
I1686
ag1968
aaaa(lp4069
I1688
aI1688
ag1907
a(lp4070
(lp4071
I1688
ag1907
aaaa(lp4072
I1690
aI1694
ag1274
a(lp4073
(lp4074
I1690
ag1949
aa(lp4075
I1691
ag1909
aa(lp4076
I1692
ag1907
aa(lp4077
I1693
ag1892
aa(lp4078
I1694
ag1916
aaaa(lp4079
I1696
aI1700
ag1283
a(lp4080
(lp4081
I1696
ag1926
aa(lp4082
I1697
ag1913
aa(lp4083
I1698
ag1894
aa(lp4084
I1699
ag1881
aa(lp4085
I1700
ag1888
aaaa(lp4086
I1702
aI1705
aS'from'
p4087
a(lp4088
(lp4089
I1702
ag1968
aa(lp4090
I1703
ag1909
aa(lp4091
I1704
ag1913
aa(lp4092
I1705
ag1933
aaaa(lp4093
I1707
aI1709
aS'the'
p4094
a(lp4095
(lp4096
I1707
ag1894
aa(lp4097
I1708
ag1926
aa(lp4098
I1709
ag1881
aaaa(lp4099
I1711
aI1714
ag1292
a(lp4100
(lp4101
I1711
ag2357
aa(lp4102
I1712
ag1907
aa(lp4103
I1713
ag1977
aa(lp4104
I1714
ag1894
aaaa(lp4105
I1717
aI1718
aS'my'
p4106
a(lp4107
(lp4108
I1717
ag1933
aa(lp4109
I1718
ag1904
aaaa(lp4110
I1720
aI1726
ag1301
a(lp4111
(lp4112
I1720
ag1926
aa(lp4113
I1721
ag1946
aa(lp4114
I1722
ag1977
aa(lp4115
I1723
ag1944
aa(lp4116
I1724
ag1907
aa(lp4117
I1725
ag1892
aa(lp4118
I1726
ag1916
aaaa(lp4119
I1728
aI1730
aS'and'
p4120
a(lp4121
(lp4122
I1728
ag1907
aa(lp4123
I1729
ag1892
aa(lp4124
I1730
ag1916
aaaa(lp4125
I1732
aI1732
ag1923
a(lp4126
(lp4127
I1732
ag1923
aaaa(lp4128
I1734
aI1736
aS'are'
p4129
a(lp4130
(lp4131
I1734
ag1907
aa(lp4132
I1735
ag1909
aa(lp4133
I1736
ag1881
aaaa(lp4134
I1738
aI1739
aS'in'
p4135
a(lp4136
(lp4137
I1738
ag1923
aa(lp4138
I1739
ag1892
aaaa(lp4139
I1741
aI1743
aS'our'
p4140
a(lp4141
(lp4142
I1741
ag1913
aa(lp4143
I1742
ag1946
aa(lp4144
I1743
ag1909
aaaa(lp4145
I1745
aI1748
ag1310
a(lp4146
(lp4147
I1745
ag1898
aa(lp4148
I1746
aS'0'
p4149
aa(lp4150
I1748
ag1977
aaaa(lp4151
I1750
aI1752
aS'and'
p4152
a(lp4153
(lp4154
I1750
ag1907
aa(lp4155
I1751
ag1892
aa(lp4156
I1752
ag1916
aaaa(lp4157
I1754
aI1757
aS'both'
p4158
a(lp4159
(lp4160
I1754
ag1944
aa(lp4161
I1755
ag1913
aa(lp4162
I1756
ag1894
aa(lp4163
I1757
ag1926
aaaa(lp4164
I1759
aI1762
ag1319
a(lp4165
(lp4166
I1759
ag1921
aa(lp4167
I1760
ag1913
aa(lp4168
I1761
ag1909
aa(lp4169
I1762
ag2227
aaaa(lp4170
I1765
aI1766
aS'we'
p4171
a(lp4172
(lp4173
I1765
ag1921
aa(lp4174
I1766
ag1881
aaaa(lp4175
I1768
aI1771
ag1328
a(lp4176
(lp4177
I1768
ag1888
aa(lp4178
I1769
ag1923
aa(lp4179
I1770
ag2227
aa(lp4180
I1771
ag1881
aaaa(lp4181
I1773
aI1774
aS'to'
p4182
a(lp4183
(lp4184
I1773
ag1894
aa(lp4185
I1774
ag1913
aaaa(lp4186
I1776
aI1780
ag1337
a(lp4187
(lp4188
I1776
ag1909
aa(lp4189
I1777
ag1881
aa(lp4190
I1778
ag1888
aa(lp4191
I1779
ag1907
aa(lp4192
I1780
ag1883
aaaa(lp4193
I1782
aI1785
aS'when'
p4194
a(lp4195
(lp4196
I1782
ag1921
aa(lp4197
I1783
ag1926
aa(lp4198
I1784
ag1881
aa(lp4199
I1785
ag1892
aaaa(lp4200
I1787
aI1788
aS'we'
p4201
a(lp4202
(lp4203
I1787
ag1921
aa(lp4204
I1788
ag1881
aaaa(lp4205
I1790
aI1791
ag1346
a(lp4206
(lp4207
I1790
ag1949
aa(lp4208
I1791
ag1913
aaaa(lp4209
I1793
aI1796
ag1355
a(lp4210
(lp4211
I1793
ag1907
aa(lp4212
I1794
ag1921
aa(lp4213
I1795
ag1907
aa(lp4214
I1796
ag1904
aaaa(lp4215
I1799
aI1802
ag1364
a(lp4216
(lp4217
I1799
ag1894
aa(lp4218
I1800
ag1907
aa(lp4219
I1801
ag2227
aa(lp4220
I1802
ag1881
aaaa(lp4221
I1804
aI1807
ag1373
a(lp4222
(lp4223
I1804
ag1894
aa(lp4224
I1805
ag1923
aa(lp4225
I1806
ag1933
aa(lp4226
I1807
ag1881
aaaa(lp4227
I1809
aI1810
aS'to'
p4228
a(lp4229
(lp4230
I1809
ag1894
aa(lp4231
I1810
ag1913
aaaa(lp4232
I1812
aI1814
ag1382
a(lp4233
(lp4234
I1812
ag1977
aa(lp4235
I1813
ag1923
aa(lp4236
I1814
ag1894
aaaa(lp4237
I1816
aI1817
aS'on'
p4238
a(lp4239
(lp4240
I1816
ag1913
aa(lp4241
I1817
ag1892
aaaa(lp4242
I1819
aI1821
aS'the'
p4243
a(lp4244
(lp4245
I1819
ag1894
aa(lp4246
I1820
ag1926
aa(lp4247
I1821
ag1881
aaaa(lp4248
I1823
aI1829
ag1391
a(lp4249
(lp4250
I1823
ag1958
aa(lp4251
I1824
ag1881
aa(lp4252
I1825
ag1909
aa(lp4253
I1826
ag1907
aa(lp4254
I1827
ag1892
aa(lp4255
I1828
ag1916
aa(lp4256
I1829
ag1907
aaaa(lp4257
I1831
aI1832
aS'in'
p4258
a(lp4259
(lp4260
I1831
ag1923
aa(lp4261
I1832
ag1892
aaaa(lp4262
I1834
aI1836
ag1400
a(lp4263
(lp4264
I1834
ag1913
aa(lp4265
I1835
ag1892
aa(lp4266
I1836
ag1881
aaaa(lp4267
I1838
aI1839
aS'of'
p4268
a(lp4269
(lp4270
I1838
ag1913
aa(lp4271
I1839
ag1968
aaaa(lp4272
I1841
aI1843
aS'the'
p4273
a(lp4274
(lp4275
I1841
ag1894
aa(lp4276
I1842
ag1926
aa(lp4277
I1843
ag1881
aaaa(lp4278
I1845
aI1848
ag1409
a(lp4279
(lp4280
I1845
ag1933
aa(lp4281
I1846
ag1907
aa(lp4282
I1847
ag1892
aa(lp4283
I1848
ag1904
aaaa(lp4284
I1850
aI1856
ag1418
a(lp4285
(lp4286
I1850
ag1909
aa(lp4287
I1851
ag1913
aa(lp4288
I1852
ag1885
aa(lp4289
I1853
ag2227
aa(lp4290
I1854
ag1923
aa(lp4291
I1855
ag1892
aa(lp4292
I1856
ag1949
aaaa(lp4293
I1858
aI1863
ag1427
a(lp4294
(lp4295
I1858
ag1885
aa(lp4296
I1859
ag1926
aa(lp4297
I1860
ag1907
aa(lp4298
I1861
ag1923
aa(lp4299
I1862
ag1909
aa(lp4300
I1863
ag1977
aaaa(lp4301
I1866
aI1869
ag1436
a(lp4302
(lp4303
I1866
ag1921
aa(lp4304
I1867
ag1907
aa(lp4305
I1868
ag1888
aa(lp4306
I1869
ag2227
aaaa(lp4307
I1871
aI1874
aS'down'
p4308
a(lp4309
(lp4310
I1871
ag1916
aa(lp4311
I1872
ag1913
aa(lp4312
I1873
ag1921
aa(lp4313
I1874
ag1892
aaaa(lp4314
I1876
aI1878
aS'the'
p4315
a(lp4316
(lp4317
I1876
ag1894
aa(lp4318
I1877
ag1926
aa(lp4319
I1878
ag1881
aaaa(lp4320
I1880
aI1888
ag1445
a(lp4321
(lp4322
I1880
ag2357
aa(lp4323
I1881
ag1909
aa(lp4324
I1882
ag1913
aa(lp4325
I1883
ag1933
aa(lp4326
I1884
ag1881
aa(lp4327
I1885
ag1892
aa(lp4328
I1886
ag1907
aa(lp4329
I1887
ag1916
aa(lp4330
I1888
ag1881
aaaa(lp4331
I1890
aI1892
aS'and'
p4332
a(lp4333
(lp4334
I1890
ag1907
aa(lp4335
I1891
ag1892
aa(lp4336
I1892
ag1916
aaaa(lp4337
I1894
aI1900
ag1454
a(lp4338
(lp4339
I1894
ag1881
aa(lp4340
I1895
ag1883
aa(lp4341
I1896
ag2357
aa(lp4342
I1897
ag1888
aa(lp4343
I1898
ag1913
aa(lp4344
I1899
ag1909
aa(lp4345
I1900
ag1881
aaaa(lp4346
I1902
aI1904
aS'the'
p4347
a(lp4348
(lp4349
I1902
ag1894
aa(lp4350
I1903
ag1926
aa(lp4351
I1904
ag1881
aaaa(lp4352
I1906
aI1910
ag1463
a(lp4353
(lp4354
I1906
ag1977
aa(lp4355
I1907
ag1926
aa(lp4356
I1908
ag1913
aa(lp4357
I1909
ag2357
aa(lp4358
I1910
ag1977
aaaa(lp4359
I1913
aI1914
ag1472
a(lp4360
(lp4361
I1913
ag1949
aa(lp4362
I1914
ag1913
aaaa(lp4363
I1916
aI1917
aS'to'
p4364
a(lp4365
(lp4366
I1916
ag1894
aa(lp4367
I1917
ag1913
aaaa(lp4368
I1919
aI1921
aS'the'
p4369
a(lp4370
(lp4371
I1919
ag1894
aa(lp4372
I1920
ag1926
aa(lp4373
I1921
ag1881
aaaa(lp4374
I1923
aI1927
ag1481
a(lp4375
(lp4376
I1923
ag1888
aa(lp4377
I1924
ag1913
aa(lp4378
I1925
ag1944
aa(lp4379
I1926
ag1944
aa(lp4380
I1927
ag1904
aaaa(lp4381
I1929
aI1931
aS'for'
p4382
a(lp4383
(lp4384
I1929
ag1968
aa(lp4385
I1930
ag1913
aa(lp4386
I1931
ag1909
aaaa(lp4387
I1933
aI1938
ag1490
a(lp4388
(lp4389
I1933
ag1916
aa(lp4390
I1934
ag1909
aa(lp4391
I1935
ag1923
aa(lp4392
I1936
ag1892
aa(lp4393
I1937
ag2227
aa(lp4394
I1938
ag1977
aaaa(lp4395
I1940
aI1941
aS'in'
p4396
a(lp4397
(lp4398
I1940
ag1923
aa(lp4399
I1941
ag1892
aaaa(lp4400
I1943
aI1945
aS'the'
p4401
a(lp4402
(lp4403
I1943
ag1894
aa(lp4404
I1944
ag1926
aa(lp4405
I1945
ag1881
aaaa(lp4406
I1947
aI1950
ag1499
a(lp4407
(lp4408
I1947
ag1888
aa(lp4409
I1948
ag1907
aa(lp4410
I1949
ag1894
aa(lp4411
I1950
ag1881
aaaa(lp4412
I1952
aI1960
ag1508
a(lp4413
(lp4414
I1952
ag1907
aa(lp4415
I1953
ag1968
aa(lp4416
I1954
ag1894
aa(lp4417
I1955
ag1881
aa(lp4418
I1956
ag1909
aa(lp4419
I1957
ag1892
aa(lp4420
I1958
ag1913
aa(lp4421
I1959
ag1913
aa(lp4422
I1960
ag1892
aaaa(lp4423
I1963
aI1965
aS'and'
p4424
a(lp4425
(lp4426
I1963
ag1907
aa(lp4427
I1964
ag1892
aa(lp4428
I1965
ag1916
aaaa(lp4429
I1967
aI1968
aS'by'
p4430
a(lp4431
(lp4432
I1967
ag1944
aa(lp4433
I1968
ag1904
aaaa(lp4434
I1970
aI1972
aS'all'
p4435
a(lp4436
(lp4437
I1970
ag1907
aa(lp4438
I1971
ag1888
aa(lp4439
I1972
ag1888
aaaa(lp4440
I1974
aI1978
ag1517
a(lp4441
(lp4442
I1974
ag1933
aa(lp4443
I1975
ag1881
aa(lp4444
I1976
ag1907
aa(lp4445
I1977
ag1892
aa(lp4446
I1978
ag1977
aaaa(lp4447
I1981
aI1983
ag1526
a(lp4448
(lp4449
I1981
ag1907
aa(lp4450
I1982
ag1977
aa(lp4451
I1983
ag2227
aaaa(lp4452
I1985
aI1993
ag1535
a(lp4453
(lp4454
I1985
ag3038
aa(lp4455
I1986
ag1946
aa(lp4456
I1987
ag1881
aa(lp4457
I1988
ag1977
aa(lp4458
I1989
ag1894
aa(lp4459
I1990
ag1923
aa(lp4460
I1991
ag1913
aa(lp4461
I1992
ag1892
aa(lp4462
I1993
ag1977
aaaa(lp4463
I1996
aI1998
aS'you'
p4464
a(lp4465
(lp4466
I1996
ag1904
aa(lp4467
I1997
ag1913
aa(lp4468
I1998
ag1946
aaaa(lp4469
I2000
aI2004
ag1544
a(lp4470
(lp4471
I2000
ag1933
aa(lp4472
I2001
ag1923
aa(lp4473
I2002
ag1949
aa(lp4474
I2003
ag1926
aa(lp4475
I2004
ag1894
aaaa(lp4476
I2006
aI2007
aS'be'
p4477
a(lp4478
(lp4479
I2006
ag1944
aa(lp4480
I2007
ag1881
aaaa(lp4481
I2009
aI2016
ag1553
a(lp4482
(lp4483
I2009
ag1977
aa(lp4484
I2010
ag1946
aa(lp4485
I2011
ag2357
aa(lp4486
I2012
ag1909
aa(lp4487
I2013
ag1923
aa(lp4488
I2014
ag2609
aa(lp4489
I2015
ag1881
aa(lp4490
I2016
ag1916
aaaa(lp4491
I2018
aI2019
aS'at'
p4492
a(lp4493
(lp4494
I2018
ag1907
aa(lp4495
I2019
ag1894
aaaa(lp4496
I2021
aI2023
aS'the'
p4497
a(lp4498
(lp4499
I2021
ag1894
aa(lp4500
I2022
ag1926
aa(lp4501
I2023
ag1881
aaaa(lp4502
I2025
aI2031
ag1562
a(lp4503
(lp4504
I2025
ag1926
aa(lp4505
I2026
ag1923
aa(lp4506
I2027
ag1977
aa(lp4507
I2028
ag1894
aa(lp4508
I2029
ag1913
aa(lp4509
I2030
ag1909
aa(lp4510
I2031
ag1904
aaaa(lp4511
I2033
aI2038
ag1571
a(lp4512
(lp4513
I2033
ag1888
aa(lp4514
I2034
ag1881
aa(lp4515
I2035
ag1977
aa(lp4516
I2036
ag1977
aa(lp4517
I2037
ag1913
aa(lp4518
I2038
ag1892
aaaa(lp4519
I2040
aI2042
aS'you'
p4520
a(lp4521
(lp4522
I2040
ag1904
aa(lp4523
I2041
ag1913
aa(lp4524
I2042
ag1946
aaaa(lp4525
I2044
aI2046
ag1580
a(lp4526
(lp4527
I2044
ag1949
aa(lp4528
I2045
ag1881
aa(lp4529
I2046
ag1894
aaaa(lp4530
I2049
aI2055
ag1589
a(lp4531
(lp4532
I2049
ag1907
aa(lp4533
I2050
ag1892
aa(lp4534
I2051
ag1913
aa(lp4535
I2052
ag1894
aa(lp4536
I2053
ag1926
aa(lp4537
I2054
ag1881
aa(lp4538
I2055
ag1909
aaaa(lp4539
I2057
aI2060
ag1598
a(lp4540
(lp4541
I2057
ag2357
aa(lp4542
I2058
ag1888
aa(lp4543
I2059
ag1946
aa(lp4544
I2060
ag1977
aaaa(lp4545
I2062
aI2063
aS'to'
p4546
a(lp4547
(lp4548
I2062
ag1894
aa(lp4549
I2063
ag1913
aaaa(lp4550
I2065
aI2069
ag1607
a(lp4551
(lp4552
I2065
ag1949
aa(lp4553
I2066
ag1913
aa(lp4554
I2067
ag1923
aa(lp4555
I2068
ag1892
aa(lp4556
I2069
ag1949
aaaa(lp4557
I2071
aI2075
aS'there'
p4558
a(lp4559
(lp4560
I2071
ag1894
aa(lp4561
I2072
ag1926
aa(lp4562
I2073
ag1881
aa(lp4563
I2074
ag1909
aa(lp4564
I2075
ag1881
aaaa(lp4565
I2077
aI2078
aS'is'
p4566
a(lp4567
(lp4568
I2077
ag1923
aa(lp4569
I2078
ag1977
aaaa(lp4570
I2080
aI2082
aS'the'
p4571
a(lp4572
(lp4573
I2080
ag1894
aa(lp4574
I2081
ag1926
aa(lp4575
I2082
ag1881
aaaa(lp4576
I2084
aI2091
ag1616
a(lp4577
(lp4578
I2084
ag1977
aa(lp4579
I2085
ag1926
aa(lp4580
I2086
ag1946
aa(lp4581
I2087
ag1894
aa(lp4582
I2088
ag1894
aa(lp4583
I2089
ag1888
aa(lp4584
I2090
ag1881
aa(lp4585
I2091
ag1977
aaaa(lp4586
I2093
aI2096
aS'they'
p4587
a(lp4588
(lp4589
I2093
ag1894
aa(lp4590
I2094
ag1926
aa(lp4591
I2095
ag1881
aa(lp4592
I2096
ag1904
aaaa(lp4593
I2098
aI2101
aS'have'
p4594
a(lp4595
(lp4596
I2098
ag1926
aa(lp4597
I2099
ag1907
aa(lp4598
I2100
ag1958
aa(lp4599
I2101
ag1881
aaaa(lp4600
I2103
aI2106
aS'that'
p4601
a(lp4602
(lp4603
I2103
ag1894
aa(lp4604
I2104
ag1926
aa(lp4605
I2105
ag1907
aa(lp4606
I2106
ag1894
aaaa(lp4607
I2108
aI2110
ag1625
a(lp4608
(lp4609
I2108
ag1909
aa(lp4610
I2109
ag1946
aa(lp4611
I2110
ag1892
aaaa(lp4612
I2112
aI2115
aS'from'
p4613
a(lp4614
(lp4615
I2112
ag1968
aa(lp4616
I2113
ag1909
aa(lp4617
I2114
ag1913
aa(lp4618
I2115
ag1933
aaaa(lp4619
I2117
aI2119
aS'the'
p4620
a(lp4621
(lp4622
I2117
ag1894
aa(lp4623
I2118
ag1926
aa(lp4624
I2119
ag1881
aaaa(lp4625
I2121
aI2126
ag1634
a(lp4626
(lp4627
I2121
ag1909
aa(lp4628
I2122
ag1881
aa(lp4629
I2123
ag1977
aa(lp4630
I2124
ag1913
aa(lp4631
I2125
ag1909
aa(lp4632
I2126
ag1894
aaaa(lp4633
I2128
aI2131
aS'over'
p4634
a(lp4635
(lp4636
I2128
ag1913
aa(lp4637
I2129
ag1958
aa(lp4638
I2130
ag1881
aa(lp4639
I2131
ag1909
aaaa(lp4640
I2133
aI2134
aS'to'
p4641
a(lp4642
(lp4643
I2133
ag1894
aa(lp4644
I2134
ag1913
aaaa(lp4645
I2136
aI2138
aS'the'
p4646
a(lp4647
(lp4648
I2136
ag1894
aa(lp4649
I2137
ag1926
aa(lp4650
I2138
ag1881
aaaa(lp4651
I2140
aI2143
ag1643
a(lp4652
(lp4653
I2140
ag1921
aa(lp4654
I2141
ag1881
aa(lp4655
I2142
ag1977
aa(lp4656
I2143
ag1894
aaaa(lp4657
I2145
aI2149
ag1652
a(lp4658
(lp4659
I2145
ag1944
aa(lp4660
I2146
ag1907
aa(lp4661
I2147
ag1916
aa(lp4662
I2148
ag1881
aa(lp4663
I2149
ag1892
aaaa(lp4664
I2152
aI2155
ag1661
a(lp4665
(lp4666
I2152
ag1949
aa(lp4667
I2153
ag1913
aa(lp4668
I2154
ag1888
aa(lp4669
I2155
ag1968
aaaa(lp4670
I2157
aI2162
ag1670
a(lp4671
(lp4672
I2157
ag1885
aa(lp4673
I2158
ag1913
aa(lp4674
I2159
ag1946
aa(lp4675
I2160
ag1909
aa(lp4676
I2161
ag1977
aa(lp4677
I2162
ag1881
aaaa(lp4678
I2165
aI2167
aS'and'
p4679
a(lp4680
(lp4681
I2165
ag1907
aa(lp4682
I2166
ag1892
aa(lp4683
I2167
ag1916
aaaa(lp4684
I2169
aI2174
ag1679
a(lp4685
(lp4686
I2169
ag1921
aa(lp4687
I2170
ag1923
aa(lp4688
I2171
ag1892
aa(lp4689
I2172
ag1881
aa(lp4690
I2173
ag1909
aa(lp4691
I2174
ag1904
aaaa(lp4692
I2177
aI2178
aS'so'
p4693
a(lp4694
(lp4695
I2177
ag1977
aa(lp4696
I2178
ag1913
aaaa(lp4697
I2180
aI2183
aS'once'
p4698
a(lp4699
(lp4700
I2180
ag1913
aa(lp4701
I2181
ag1892
aa(lp4702
I2182
ag1885
aa(lp4703
I2183
ag1881
aaaa(lp4704
I2185
aI2187
aS'you'
p4705
a(lp4706
(lp4707
I2185
ag1904
aa(lp4708
I2186
ag1913
aa(lp4709
I2187
ag1946
aaaa(lp4710
I2189
aI2192
ag1688
a(lp4711
(lp4712
I2189
ag2357
aa(lp4713
I2190
ag1907
aa(lp4714
I2191
ag1909
aa(lp4715
I2192
ag2227
aaaa(lp4716
I2194
aI2197
aS'your'
p4717
a(lp4718
(lp4719
I2194
ag1904
aa(lp4720
I2195
ag1913
aa(lp4721
I2196
ag1946
aa(lp4722
I2197
ag1909
aaaa(lp4723
I2199
aI2201
ag1697
a(lp4724
(lp4725
I2199
ag1885
aa(lp4726
I2200
ag1907
aa(lp4727
I2201
ag1909
aaaa(lp4728
I2203
aI2205
aS'you'
p4729
a(lp4730
(lp4731
I2203
ag1904
aa(lp4732
I2204
ag1913
aa(lp4733
I2205
ag1946
aaaa(lp4734
I2207
aI2209
aS'can'
p4735
a(lp4736
(lp4737
I2207
ag1885
aa(lp4738
I2208
ag1907
aa(lp4739
I2209
ag1892
aaaa(lp4740
I2211
aI2216
ag1706
a(lp4741
(lp4742
I2211
ag1881
aa(lp4743
I2212
ag1923
aa(lp4744
I2213
ag1894
aa(lp4745
I2214
ag1926
aa(lp4746
I2215
ag1881
aa(lp4747
I2216
ag1909
aaaa(lp4748
I2218
aI2221
ag1715
a(lp4749
(lp4750
I2218
ag1894
aa(lp4751
I2219
ag1907
aa(lp4752
I2220
ag2227
aa(lp4753
I2221
ag1881
aaaa(lp4754
I2223
aI2225
aS'the'
p4755
a(lp4756
(lp4757
I2223
ag1894
aa(lp4758
I2224
ag1926
aa(lp4759
I2225
ag1881
aaaa(lp4760
I2227
aI2234
ag1724
a(lp4761
(lp4762
I2227
ag1977
aa(lp4763
I2228
ag1926
aa(lp4764
I2229
ag1946
aa(lp4765
I2230
ag1894
aa(lp4766
I2231
ag1894
aa(lp4767
I2232
ag1888
aa(lp4768
I2233
ag1881
aa(lp4769
I2234
ag1977
aaaa(lp4770
I2236
aI2237
aS'or'
p4771
a(lp4772
(lp4773
I2236
ag1913
aa(lp4774
I2237
ag1909
aaaa(lp4775
I2239
aI2242
ag1733
a(lp4776
(lp4777
I2239
ag1921
aa(lp4778
I2240
ag1907
aa(lp4779
I2241
ag1888
aa(lp4780
I2242
ag2227
aaaa(lp4781
I2244
aI2247
aS'just'
p4782
a(lp4783
(lp4784
I2244
ag3566
aa(lp4785
I2245
ag1946
aa(lp4786
I2246
ag1977
aa(lp4787
I2247
ag1894
aaaa(lp4788
I2249
aI2253
aS'about'
p4789
a(lp4790
(lp4791
I2249
ag1907
aa(lp4792
I2250
ag1944
aa(lp4793
I2251
ag1913
aa(lp4794
I2252
ag1946
aa(lp4795
I2253
ag1894
aaaa(lp4796
I2255
aI2262
ag1742
a(lp4797
(lp4798
I2255
ag1907
aa(lp4799
I2256
ag1892
aa(lp4800
I2257
ag1904
aa(lp4801
I2258
ag1921
aa(lp4802
I2259
ag1926
aa(lp4803
I2260
ag1881
aa(lp4804
I2261
ag1909
aa(lp4805
I2262
ag1881
aaaa(lp4806
I2264
aI2265
aS'in'
p4807
a(lp4808
(lp4809
I2264
ag1923
aa(lp4810
I2265
ag1892
aaaa(lp4811
I2267
aI2269
aS'the'
p4812
a(lp4813
(lp4814
I2267
ag1894
aa(lp4815
I2268
ag1926
aa(lp4816
I2269
ag1881
aaaa(lp4817
I2271
aI2274
ag1751
a(lp4818
(lp4819
I2271
ag1894
aa(lp4820
I2272
ag1913
aa(lp4821
I2273
ag1921
aa(lp4822
I2274
ag1892
aaaa(lp4823
I2277
aI2279
aS'all'
p4824
a(lp4825
(lp4826
I2277
ag1907
aa(lp4827
I2278
ag1888
aa(lp4828
I2279
ag1888
aaaa(lp4829
I2281
aI2283
aS'you'
p4830
a(lp4831
(lp4832
I2281
ag1904
aa(lp4833
I2282
ag1913
aa(lp4834
I2283
ag1946
aaaa(lp4835
I2285
aI2288
aS'have'
p4836
a(lp4837
(lp4838
I2285
ag1926
aa(lp4839
I2286
ag1907
aa(lp4840
I2287
ag1958
aa(lp4841
I2288
ag1881
aaaa(lp4842
I2290
aI2291
aS'to'
p4843
a(lp4844
(lp4845
I2290
ag1894
aa(lp4846
I2291
ag1913
aaaa(lp4847
I2293
aI2294
aS'do'
p4848
a(lp4849
(lp4850
I2293
ag1916
aa(lp4851
I2294
ag1913
aaaa(lp4852
I2296
aI2297
aS'is'
p4853
a(lp4854
(lp4855
I2296
ag1923
aa(lp4856
I2297
ag1977
aaaa(lp4857
I2299
aI2302
ag1760
a(lp4858
(lp4859
I2299
ag1885
aa(lp4860
I2300
ag1907
aa(lp4861
I2301
ag1888
aa(lp4862
I2302
ag1888
aaaa(lp4863
I2304
aI2307
aS'down'
p4864
a(lp4865
(lp4866
I2304
ag1916
aa(lp4867
I2305
ag1913
aa(lp4868
I2306
ag1921
aa(lp4869
I2307
ag1892
aaaa(lp4870
I2309
aI2310
aS'to'
p4871
a(lp4872
(lp4873
I2309
ag1894
aa(lp4874
I2310
ag1913
aaaa(lp4875
I2312
aI2314
aS'the'
p4876
a(lp4877
(lp4878
I2312
ag1894
aa(lp4879
I2313
ag1926
aa(lp4880
I2314
ag1881
aaaa(lp4881
I2316
aI2320
ag1769
a(lp4882
(lp4883
I2316
ag1888
aa(lp4884
I2317
ag1913
aa(lp4885
I2318
ag1944
aa(lp4886
I2319
ag1944
aa(lp4887
I2320
ag1904
aaaa(lp4888
I2322
aI2324
aS'and'
p4889
a(lp4890
(lp4891
I2322
ag1907
aa(lp4892
I2323
ag1892
aa(lp4893
I2324
ag1916
aaaa(lp4894
I2326
aI2329
ag1778
a(lp4895
(lp4896
I2326
ag1933
aa(lp4897
I2327
ag1907
aa(lp4898
I2328
ag2227
aa(lp4899
I2329
ag1881
aaaa(lp4900
I2331
aI2342
ag1787
a(lp4901
(lp4902
I2331
ag1907
aa(lp4903
I2332
ag1909
aa(lp4904
I2333
ag1909
aa(lp4905
I2334
ag1907
aa(lp4906
I2335
ag1892
aa(lp4907
I2336
ag1949
aa(lp4908
I2337
ag1881
aa(lp4909
I2338
ag1933
aa(lp4910
I2339
ag1881
aa(lp4911
I2340
ag1892
aa(lp4912
I2341
ag1894
aa(lp4913
I2342
ag1977
aaaa(lp4914
I2344
aI2346
aS'for'
p4915
a(lp4916
(lp4917
I2344
ag1968
aa(lp4918
I2345
ag1913
aa(lp4919
I2346
ag1909
aaaa(lp4920
I2348
aI2350
aS'the'
p4921
a(lp4922
(lp4923
I2348
ag1894
aa(lp4924
I2349
ag1926
aa(lp4925
I2350
ag1881
aaaa(lp4926
I2352
aI2355
ag1796
a(lp4927
(lp4928
I2352
ag1894
aa(lp4929
I2353
ag1923
aa(lp4930
I2354
ag1933
aa(lp4931
I2355
ag1881
aaaa(lp4932
I2357
aI2359
aS'you'
p4933
a(lp4934
(lp4935
I2357
ag1904
aa(lp4936
I2358
ag1913
aa(lp4937
I2359
ag1946
aaaa(lp4938
I2361
aI2364
ag1805
a(lp4939
(lp4940
I2361
ag1921
aa(lp4941
I2362
ag1907
aa(lp4942
I2363
ag1892
aa(lp4943
I2364
ag1894
aaaa(lp4944
I2366
aI2367
aS'to'
p4945
a(lp4946
(lp4947
I2366
ag1894
aa(lp4948
I2367
ag1913
aaaa(lp4949
I2369
aI2373
ag1814
a(lp4950
(lp4951
I2369
ag1888
aa(lp4952
I2370
ag1881
aa(lp4953
I2371
ag1907
aa(lp4954
I2372
ag1958
aa(lp4955
I2373
ag1881
aaaa(lp4956
I2375
aI2377
aS'and'
p4957
a(lp4958
(lp4959
I2375
ag1907
aa(lp4960
I2376
ag1892
aa(lp4961
I2377
ag1916
aaaa(lp4962
I2379
aI2383
aS'where'
p4963
a(lp4964
(lp4965
I2379
ag1921
aa(lp4966
I2380
ag1926
aa(lp4967
I2381
ag1881
aa(lp4968
I2382
ag1909
aa(lp4969
I2383
ag1881
aaaa(lp4970
I2385
aI2387
aS'you'
p4971
a(lp4972
(lp4973
I2385
ag1904
aa(lp4974
I2386
ag1913
aa(lp4975
I2387
ag1946
aaaa(lp4976
I2389
aI2392
ag1823
a(lp4977
(lp4978
I2389
ag1921
aa(lp4979
I2390
ag1907
aa(lp4980
I2391
ag1892
aa(lp4981
I2392
ag1894
aaaa(lp4982
I2394
aI2395
aS'to'
p4983
a(lp4984
(lp4985
I2394
ag1894
aa(lp4986
I2395
ag1913
aaaa(lp4987
I2397
aI2398
ag1832
a(lp4988
(lp4989
I2397
ag1949
aa(lp4990
I2398
ag1913
aaaa(lp4991
I2400
aI2402
aS'and'
p4992
a(lp4993
(lp4994
I2400
ag1907
aa(lp4995
I2401
ag1892
aa(lp4996
I2402
ag1916
aaaa(lp4997
I2404
aI2407
ag1841
a(lp4998
(lp4999
I2404
ag1977
aa(lp5000
I2405
ag1926
aa(lp5001
I2406
ag1913
aa(lp5002
I2407
ag1921
aaaa(lp5003
I2409
aI2410
aS'up'
p5004
a(lp5005
(lp5006
I2409
ag1946
aa(lp5007
I2410
ag2357
aaaa(lp5008
I2413
aI2416
aS'they'
p5009
a(lp5010
(lp5011
I2413
ag1894
aa(lp5012
I2414
ag1926
aa(lp5013
I2415
ag1881
aa(lp5014
I2416
ag1904
aaaa(lp5015
I2418
aI2421
aS'will'
p5016
a(lp5017
(lp5018
I2418
ag1921
aa(lp5019
I2419
ag1923
aa(lp5020
I2420
ag1888
aa(lp5021
I2421
ag1888
aaaa(lp5022
I2423
aI2424
aS'be'
p5023
a(lp5024
(lp5025
I2423
ag1944
aa(lp5026
I2424
ag1881
aaaa(lp5027
I2426
aI2432
ag1850
a(lp5028
(lp5029
I2426
ag1921
aa(lp5030
I2427
ag1907
aa(lp5031
I2428
ag1923
aa(lp5032
I2429
ag1894
aa(lp5033
I2430
ag1923
aa(lp5034
I2431
ag1892
aa(lp5035
I2432
ag1949
aaaa(lp5036
I2435
aI2439
ag1859
a(lp5037
(lp5038
I2435
ag1926
aa(lp5039
I2436
ag1913
aa(lp5040
I2437
ag1894
aa(lp5041
I2438
ag1881
aa(lp5042
I2439
ag1888
aaaa(lp5043
I2435
aI2439
ag1868
a(lp5044
(lp5045
I2441
ag1916
aa(lp5046
I2442
ag1881
aa(lp5047
I2443
ag1907
aa(lp5048
I2444
ag1888
aa(lp5049
I2445
ag1977
aaaasS'cleanCharacterMap'
p5050
(lp5051
g1880
ag1882
ag1884
ag1886
ag1887
ag1889
ag1890
ag1891
ag1893
a(lp5052
I9
aS' '
p5053
aag1897
ag1899
a(lp5054
I12
ag5053
aag1903
ag1905
ag1906
ag1908
a(lp5055
I17
ag5053
aag1912
ag1914
ag1915
a(lp5056
I21
ag5053
aag1920
ag1922
ag1924
ag1925
a(lp5057
I26
ag5053
aag1929
a(lp5058
I28
ag5053
aag1932
ag1934
ag1935
ag1936
ag1937
ag1938
ag1939
ag1940
a(lp5059
I37
ag5053
aag1943
ag1945
ag1947
ag1948
ag1950
ag1951
a(lp5060
I45
ag5053
aag1954
ag1955
ag1956
ag1957
ag1959
ag1960
ag1961
ag1962
ag1963
a(lp5061
I55
ag5053
aag1967
ag1969
ag1970
a(lp5062
I59
ag5053
aag1973
ag1974
ag1975
ag1976
ag1978
ag1979
ag1980
ag1981
ag1983
ag1985
ag1986
ag1987
ag1988
ag1989
ag1990
ag1991
ag1992
a(lp5063
I79
ag5053
aag1996
ag1997
a(lp5064
I82
ag5053
aag2000
ag2001
ag2002
ag2003
ag2004
ag2005
ag2006
a(lp5065
I90
ag5053
aag2010
ag2011
ag2012
a(lp5066
I94
ag5053
aag2015
a(lp5067
I96
ag5053
aag2019
ag2020
ag2021
ag2022
a(lp5068
I101
ag5053
aag2026
ag2027
ag2028
ag2029
a(lp5069
I106
ag5053
aag2033
ag2034
ag2035
ag2036
ag2037
a(lp5070
I112
ag5053
aag2040
a(lp5071
I114
ag5053
aag2043
ag2044
ag2045
ag2046
ag2047
a(lp5072
I120
ag5053
aag2051
ag2052
a(lp5073
I123
ag5053
aag2056
ag2057
ag2058
a(lp5074
I127
ag5053
aag2061
ag2062
ag2063
ag2064
a(lp5075
I132
ag5053
aag2067
ag2068
ag2069
ag2070
a(lp5076
I138
ag5053
aag2074
ag2075
ag2076
ag2077
a(lp5077
I143
ag5053
aag2080
ag2081
ag2082
ag2083
a(lp5078
I148
ag5053
aag2087
ag2088
a(lp5079
I151
ag5053
aag2092
ag2093
ag2094
ag2095
a(lp5080
I156
ag5053
aag2099
ag2100
ag2101
ag2102
a(lp5081
I161
ag5053
aag2106
ag2107
ag2108
ag2109
ag2110
a(lp5082
I167
ag5053
aag2114
ag2115
a(lp5083
I170
ag5053
aag2119
ag2120
ag2121
a(lp5084
I174
ag5053
aag2125
ag2126
ag2127
ag2128
a(lp5085
I179
ag5053
aag2131
ag2132
ag2133
ag2134
ag2135
ag2136
ag2137
ag2138
ag2139
a(lp5086
I190
ag5053
aag2143
ag2144
ag2145
a(lp5087
I194
ag5053
aag2148
ag2149
ag2150
ag2151
ag2152
ag2153
ag2154
a(lp5088
I202
ag5053
aag2158
ag2159
ag2160
a(lp5089
I206
ag5053
aag2164
ag2165
ag2166
ag2167
a(lp5090
I211
ag5053
aag2170
ag2171
ag2172
ag2173
ag2174
a(lp5091
I218
ag5053
aag2177
ag2178
ag2179
ag2180
ag2181
a(lp5092
I224
ag5053
aag2185
ag2186
a(lp5093
I227
ag5053
aag2190
ag2191
ag2192
ag2193
ag2194
ag2195
ag2196
a(lp5094
I235
ag5053
aag2200
ag2201
a(lp5095
I238
ag5053
aag2204
ag2205
a(lp5096
I241
ag5053
aag2209
ag2210
ag2211
ag2212
ag2213
ag2214
a(lp5097
I248
ag5053
aag2218
ag2219
ag2220
a(lp5098
I252
ag5053
aag2223
ag2224
ag2225
ag2226
a(lp5099
I257
ag5053
aag2231
ag2232
ag2233
ag2234
a(lp5100
I262
ag5053
aag2238
ag2239
ag2240
ag2241
a(lp5101
I267
ag5053
aag2245
ag2246
ag2247
a(lp5102
I271
ag5053
aag2250
ag2251
ag2252
ag2253
a(lp5103
I276
ag5053
aag2256
ag2257
ag2258
ag2259
a(lp5104
I282
ag5053
aag2263
ag2264
ag2265
a(lp5105
I286
ag5053
aag2268
ag2269
ag2270
ag2271
ag2272
a(lp5106
I292
ag5053
aag2276
ag2277
ag2278
ag2279
a(lp5107
I297
ag5053
aag2282
ag2283
ag2284
ag2285
ag2286
ag2287
a(lp5108
I304
ag5053
aag2291
ag2292
ag2293
ag2294
a(lp5109
I309
ag5053
aag2297
ag2298
ag2299
ag2300
ag2301
a(lp5110
I315
ag5053
aag2305
ag2306
a(lp5111
I318
ag5053
aag2309
ag2310
ag2311
ag2312
a(lp5112
I324
ag5053
aag2316
ag2317
a(lp5113
I327
ag5053
aag2321
ag2322
ag2323
a(lp5114
I331
ag5053
aag2326
ag2327
ag2328
ag2329
ag2330
a(lp5115
I338
ag5053
aag2334
ag2335
ag2336
ag2337
a(lp5116
I343
ag5053
aag2341
ag2342
ag2343
ag2344
a(lp5117
I348
ag5053
aag2347
ag2348
ag2349
ag2350
ag2351
ag2352
a(lp5118
I355
ag5053
aag2355
ag2356
ag2358
ag2359
ag2360
ag2361
ag2362
ag2363
a(lp5119
I364
ag5053
aag2366
ag2367
a(lp5120
I367
ag5053
aag2371
ag2372
a(lp5121
I370
ag5053
aag2375
a(lp5122
I372
ag5053
aag2378
ag2379
ag2380
ag2381
ag2382
a(lp5123
I378
ag5053
aag2386
ag2387
ag2388
a(lp5124
I382
ag5053
aag2392
ag2393
ag2394
ag2395
a(lp5125
I387
ag5053
aag2399
ag2400
ag2401
a(lp5126
I391
ag5053
aag2404
ag2405
ag2406
ag2407
ag2408
ag2409
ag2410
ag2411
ag2412
a(lp5127
I401
ag5053
aag2415
ag2416
ag2417
ag2418
a(lp5128
I407
ag5053
aag2422
ag2423
a(lp5129
I410
ag5053
aag2427
ag2428
ag2429
ag2430
a(lp5130
I415
ag5053
aag2433
ag2434
ag2435
ag2436
ag2437
a(lp5131
I421
ag5053
aag2440
ag2441
ag2442
ag2443
ag2444
a(lp5132
I427
ag5053
aag2447
ag2448
ag2449
ag2450
ag2451
ag2452
a(lp5133
I434
ag5053
aag2456
ag2457
a(lp5134
I437
ag5053
aag2461
ag2462
ag2463
a(lp5135
I441
ag5053
aag2466
ag2467
ag2468
ag2469
ag2470
ag2471
a(lp5136
I449
ag5053
aag2475
ag2476
ag2477
a(lp5137
I453
ag5053
aag2481
ag2482
ag2483
a(lp5138
I457
ag5053
aag2486
ag2487
ag2488
ag2489
ag2490
ag2491
ag2492
ag2493
ag2494
a(lp5139
I467
ag5053
aag2498
ag2499
ag2500
a(lp5140
I471
ag5053
aag2504
ag2505
ag2506
ag2507
a(lp5141
I476
ag5053
aag2510
ag2511
ag2512
ag2513
a(lp5142
I482
ag5053
aag2517
ag2518
ag2519
a(lp5143
I486
ag5053
aag2522
ag2523
ag2524
ag2526
a(lp5144
I491
ag5053
aag2530
ag2531
ag2532
ag2533
ag2534
ag2535
ag2536
ag2537
ag2538
ag2539
a(lp5145
I503
ag5053
aag2543
ag2544
a(lp5146
I506
ag5053
aag2547
ag2548
ag2549
ag2550
a(lp5147
I511
ag5053
aag2553
ag2554
ag2555
ag2556
ag2557
ag2558
a(lp5148
I519
ag5053
aag2561
ag2562
ag2563
ag2564
ag2565
ag2566
a(lp5149
I527
ag5053
aag2570
ag2571
ag2572
a(lp5150
I531
ag5053
aag2575
ag2576
ag2577
ag2578
ag2579
ag2580
a(lp5151
I539
ag5053
aag2584
ag2585
a(lp5152
I542
ag5053
aag2588
ag2589
ag2590
ag2591
a(lp5153
I547
ag5053
aag2594
ag2595
ag2596
ag2597
a(lp5154
I553
ag5053
aag2601
ag2602
ag2603
a(lp5155
I557
ag5053
aag2606
ag2607
ag2608
ag2610
ag2611
a(lp5156
I563
ag5053
aag2615
ag2616
a(lp5157
I566
ag5053
aag2619
ag2620
ag2621
ag2622
ag2623
ag2624
a(lp5158
I574
ag5053
aag2628
ag2629
a(lp5159
I577
ag5053
aag2632
ag2633
ag2634
ag2635
ag2636
ag2637
ag2638
ag2639
ag2640
ag2641
ag2642
a(lp5160
I590
ag5053
aag2646
ag2647
ag2648
ag2649
a(lp5161
I595
ag5053
aag2652
ag2653
ag2654
ag2655
a(lp5162
I600
ag5053
aag2659
ag2660
a(lp5163
I603
ag5053
aag2664
ag2665
ag2666
ag2667
a(lp5164
I608
ag5053
aag2671
ag2672
ag2673
ag2674
a(lp5165
I613
ag5053
aag2678
ag2679
ag2680
ag2681
ag2682
a(lp5166
I619
ag5053
aag2686
ag2687
a(lp5167
I622
ag5053
aag2691
ag2692
ag2693
a(lp5168
I626
ag5053
aag2697
ag2698
ag2699
ag2700
a(lp5169
I631
ag5053
aag2704
ag2705
ag2706
ag2707
ag2708
ag2709
a(lp5170
I638
ag5053
aag2712
a(lp5171
I640
ag5053
aag2715
ag2716
ag2717
ag2718
ag2719
ag2720
ag2721
ag2722
ag2723
a(lp5172
I650
ag5053
aag2726
ag2727
ag2728
ag2729
ag2730
ag2731
a(lp5173
I658
ag5053
aag2735
ag2736
a(lp5174
I661
ag5053
aag2740
ag2741
ag2742
a(lp5175
I665
ag5053
aag2746
ag2747
ag2748
ag2749
a(lp5176
I670
ag5053
aag2753
ag2754
ag2755
a(lp5177
I674
ag5053
aag2758
ag2759
ag2760
ag2761
ag2762
ag2763
a(lp5178
I681
ag5053
aag2767
ag2768
a(lp5179
I684
ag5053
aag2771
ag2772
a(lp5180
I687
ag5053
aag2776
ag2777
a(lp5181
I690
ag5053
aag2780
ag2781
ag2782
ag2783
ag2784
ag2785
ag2786
ag2787
ag2788
a(lp5182
I700
ag5053
aag2792
ag2793
ag2794
a(lp5183
I704
ag5053
aag2797
ag2798
ag2799
ag2800
ag2801
ag2802
ag2803
ag2804
ag2805
ag2806
ag2807
a(lp5184
I716
ag5053
aag2811
ag2812
ag2813
a(lp5185
I720
ag5053
aag2816
ag2817
ag2818
ag2819
ag2820
ag2821
ag2822
ag2823
ag2824
a(lp5186
I731
ag5053
aag2828
ag2829
ag2830
ag2831
a(lp5187
I736
ag5053
aag2834
ag2835
ag2836
ag2837
a(lp5188
I741
ag5053
aag2841
ag2842
ag2843
ag2844
a(lp5189
I746
ag5053
aag2848
ag2849
a(lp5190
I749
ag5053
aag2853
ag2854
ag2855
a(lp5191
I753
ag5053
aag2858
ag2859
ag2860
ag2861
ag2862
ag2863
a(lp5192
I760
ag5053
aag2866
ag2867
ag2868
ag2869
a(lp5193
I765
ag5053
aag2873
ag2874
ag2875
ag2876
a(lp5194
I770
ag5053
aag2879
ag2880
ag2881
ag2882
a(lp5195
I775
ag5053
aag2886
ag2887
ag2888
a(lp5196
I779
ag5053
aag2892
ag2893
ag2894
a(lp5197
I783
ag5053
aag2897
ag2898
ag2899
ag2900
a(lp5198
I788
ag5053
aag2904
ag2905
a(lp5199
I791
ag5053
aag2909
ag2910
ag2911
a(lp5200
I795
ag5053
aag2914
ag2915
ag2916
ag2917
ag2918
ag2919
ag2920
a(lp5201
I803
ag5053
aag2924
ag2925
ag2926
a(lp5202
I807
ag5053
aag2929
ag2930
a(lp5203
I811
ag5053
aag2934
ag2935
a(lp5204
I814
ag5053
aag2939
ag2940
ag2941
ag2942
a(lp5205
I819
ag5053
aag2946
ag2947
ag2948
ag2949
a(lp5206
I824
ag5053
aag2952
ag2953
ag2954
ag2955
a(lp5207
I829
ag5053
aag2959
ag2960
a(lp5208
I832
ag5053
aag2964
ag2965
a(lp5209
I835
ag5053
aag2968
ag2969
ag2970
ag2971
ag2972
a(lp5210
I841
ag5053
aag2975
ag2976
ag2977
ag2978
a(lp5211
I846
ag5053
aag2982
ag2983
a(lp5212
I849
ag5053
aag2987
ag2988
ag2989
a(lp5213
I853
ag5053
aag2992
ag2993
ag2994
ag2995
a(lp5214
I859
ag5053
aag2999
ag3000
a(lp5215
I862
ag5053
aag3004
ag3005
ag3006
a(lp5216
I866
ag5053
aag3010
ag3011
ag3012
a(lp5217
I870
ag5053
aag3015
ag3016
ag3017
ag3018
ag3019
a(lp5218
I876
ag5053
aag3023
ag3024
a(lp5219
I879
ag5053
aag3027
ag3028
ag3029
ag3030
ag3031
ag3032
a(lp5220
I886
ag5053
aag3035
ag3036
ag3037
ag3039
ag3040
ag3041
ag3042
a(lp5221
I894
ag5053
aag3046
ag3047
ag3048
a(lp5222
I898
ag5053
aag3051
ag3052
ag3053
ag3054
ag3055
ag3056
a(lp5223
I905
ag5053
aag3059
ag3060
ag3061
ag3062
a(lp5224
I911
ag5053
aag3066
ag3067
a(lp5225
I914
ag5053
aag3071
ag3072
a(lp5226
I917
ag5053
aag3076
ag3077
ag3078
a(lp5227
I921
ag5053
aag3081
ag3082
ag3083
ag3084
ag3085
ag3086
ag3087
a(lp5228
I929
ag5053
aag3091
ag3092
a(lp5229
I932
ag5053
aag3096
ag3097
ag3098
a(lp5230
I936
ag5053
aag3101
ag3102
ag3103
ag3104
ag3105
ag3106
a(lp5231
I943
ag5053
aag3110
ag3111
ag3112
a(lp5232
I947
ag5053
aag3116
ag3117
ag3118
ag3119
a(lp5233
I952
ag5053
aag3123
ag3124
ag3125
a(lp5234
I956
ag5053
aag3128
ag3129
ag3130
ag3131
ag3132
ag3133
ag3134
a(lp5235
I964
ag5053
aag3137
ag3138
ag3139
ag3140
ag3141
ag3142
ag3143
ag3144
ag3145
a(lp5236
I974
ag5053
aag3148
ag3149
ag3150
a(lp5237
I979
ag5053
aag3154
ag3155
ag3156
ag3157
ag3158
a(lp5238
I985
ag5053
aag3162
ag3163
ag3164
ag3165
a(lp5239
I990
ag5053
aag3169
ag3170
ag3171
a(lp5240
I995
ag5053
aag3175
ag3176
a(lp5241
I998
ag5053
aag3180
ag3181
a(lp5242
I1001
ag5053
aag3185
ag3186
ag3187
a(lp5243
I1005
ag5053
aag3190
a(lp5244
I1007
ag5053
aag3194
ag3195
ag3196
ag3197
a(lp5245
I1012
ag5053
aag3200
ag3201
ag3202
a(lp5246
I1016
ag5053
aag3205
ag3206
ag3207
ag3208
a(lp5247
I1021
ag5053
aag3212
ag3213
a(lp5248
I1024
ag5053
aag3217
ag3218
ag3219
a(lp5249
I1029
ag5053
aag3223
ag3224
a(lp5250
I1032
ag5053
aag3228
ag3229
ag3230
ag3231
a(lp5251
I1037
ag5053
aag3234
ag3235
ag3236
ag3237
ag3238
a(lp5252
I1043
ag5053
aag3242
ag3243
ag3244
a(lp5253
I1047
ag5053
aag3247
ag3248
ag3249
ag3250
ag3251
a(lp5254
I1053
ag5053
aag3255
ag3256
ag3257
ag3258
a(lp5255
I1058
ag5053
aag3261
ag3262
ag3263
ag3264
ag3265
ag3266
ag3267
ag3268
a(lp5256
I1067
ag5053
aag3272
ag3273
ag3274
a(lp5257
I1071
ag5053
aag3278
ag3279
ag3280
ag3281
a(lp5258
I1076
ag5053
aag3285
ag3286
ag3287
ag3288
a(lp5259
I1081
ag5053
aag3291
ag3292
ag3293
ag3294
ag3295
ag3296
ag3297
a(lp5260
I1089
ag5053
aag3301
ag3302
a(lp5261
I1092
ag5053
aag3305
ag3306
ag3307
ag3308
ag3309
ag3310
a(lp5262
I1099
ag5053
aag3313
ag3314
ag3315
ag3316
ag3317
ag3318
ag3319
ag3320
ag3321
a(lp5263
I1109
ag5053
aag3325
ag3326
ag3327
a(lp5264
I1113
ag5053
aag3330
ag3331
ag3332
ag3333
a(lp5265
I1118
ag5053
aag3337
ag3338
ag3339
ag3340
a(lp5266
I1123
ag5053
aag3343
ag3344
a(lp5267
I1126
ag5053
aag3348
ag3349
ag3350
ag3351
ag3352
a(lp5268
I1132
ag5053
aag3356
ag3357
ag3358
a(lp5269
I1136
ag5053
aag3361
ag3362
ag3363
ag3364
ag3365
ag3366
ag3367
a(lp5270
I1144
ag5053
aag3371
ag3372
a(lp5271
I1147
ag5053
aag3376
ag3377
ag3378
a(lp5272
I1151
ag5053
aag3381
ag3382
ag3383
ag3384
ag3385
ag3386
a(lp5273
I1159
ag5053
aag3389
ag3390
ag3391
ag3392
ag3393
a(lp5274
I1165
ag5053
aag3397
ag3398
a(lp5275
I1168
ag5053
aag3401
ag3402
ag3403
ag3404
a(lp5276
I1173
ag5053
aag3408
ag3409
a(lp5277
I1176
ag5053
aag3412
ag3413
ag3414
ag3415
ag3416
a(lp5278
I1182
ag5053
aag3420
ag3421
a(lp5279
I1185
ag5053
aag3425
ag3426
ag3427
ag3428
ag3429
a(lp5280
I1191
ag5053
aag3433
ag3434
a(lp5281
I1194
ag5053
aag3438
ag3439
ag3440
a(lp5282
I1198
ag5053
aag3443
ag3444
ag3445
ag3446
a(lp5283
I1203
ag5053
aag3450
ag3451
a(lp5284
I1206
ag5053
aag3454
ag3455
ag3456
ag3457
ag3458
ag3459
ag3460
a(lp5285
I1214
ag5053
aag3464
ag3465
a(lp5286
I1217
ag5053
aag3469
ag3470
ag3471
a(lp5287
I1221
ag5053
aag3475
ag3476
ag3477
ag3478
a(lp5288
I1226
ag5053
aag3482
ag3483
ag3484
a(lp5289
I1230
ag5053
aag3487
ag3488
ag3489
ag3490
a(lp5290
I1235
ag5053
aag3493
ag3494
ag3495
ag3496
ag3497
ag3498
ag3499
a(lp5291
I1243
ag5053
aag3502
ag3503
ag3504
ag3505
ag3506
a(lp5292
I1249
ag5053
aag3509
ag3510
ag3511
a(lp5293
I1254
ag5053
aag3515
ag3516
ag3517
ag3518
a(lp5294
I1259
ag5053
aag3522
ag3523
ag3524
ag3525
ag3526
a(lp5295
I1265
ag5053
aag3530
ag3531
a(lp5296
I1268
ag5053
aag3535
ag3536
ag3537
a(lp5297
I1272
ag5053
aag3541
ag3542
ag3543
ag3544
ag3545
a(lp5298
I1278
ag5053
aag3549
ag3550
a(lp5299
I1281
ag5053
aag3553
ag3554
ag3555
ag3556
ag3557
ag3558
a(lp5300
I1289
ag5053
aag3561
a(lp5301
I1291
ag5053
aag3565
ag3567
ag3568
ag3569
a(lp5302
I1296
ag5053
aag3572
ag3573
ag3574
a(lp5303
I1300
ag5053
aag3578
ag3579
ag3580
a(lp5304
I1304
ag5053
aag3583
ag3584
ag3585
ag3586
ag3587
a(lp5305
I1310
ag5053
aag3590
ag3591
ag3592
ag3593
ag3594
ag3595
a(lp5306
I1317
ag5053
aag3599
ag3600
ag3601
a(lp5307
I1321
ag5053
aag3604
ag3605
ag3606
ag3607
ag3608
ag3609
a(lp5308
I1329
ag5053
aag3613
ag3614
ag3615
a(lp5309
I1333
ag5053
aag3618
ag3619
ag3620
ag3621
ag3622
a(lp5310
I1339
ag5053
aag3625
ag3626
ag3627
ag3628
a(lp5311
I1344
ag5053
aag3632
ag3633
a(lp5312
I1347
ag5053
aag3636
ag3637
ag3638
ag3639
ag3640
ag3641
ag3642
a(lp5313
I1355
ag5053
aag3645
ag3646
ag3647
ag3648
ag3649
ag3650
ag3651
a(lp5314
I1363
ag5053
aag3655
ag3656
a(lp5315
I1366
ag5053
aag3660
ag3661
ag3662
a(lp5316
I1370
ag5053
aag3665
ag3666
ag3667
ag3668
a(lp5317
I1375
ag5053
aag3672
ag3673
a(lp5318
I1378
ag5053
aag3677
ag3678
a(lp5319
I1381
ag5053
aag3681
ag3682
ag3683
ag3684
ag3685
a(lp5320
I1387
ag5053
aag3689
ag3690
a(lp5321
I1390
ag5053
aag3694
ag3695
ag3696
ag3697
a(lp5322
I1395
ag5053
aag3701
ag3702
a(lp5323
I1398
ag5053
aag3705
ag3706
ag3707
ag3708
ag3709
a(lp5324
I1404
ag5053
aag3713
ag3714
ag3715
a(lp5325
I1408
ag5053
aag3718
ag3719
ag3720
ag3721
a(lp5326
I1413
ag5053
aag3725
ag3726
ag3727
ag3728
ag3729
a(lp5327
I1419
ag5053
aag3732
ag3733
ag3734
ag3735
ag3736
a(lp5328
I1425
ag5053
aag3740
ag3741
ag3742
a(lp5329
I1429
ag5053
aag3745
ag3746
ag3747
ag3748
ag3749
ag3750
a(lp5330
I1436
ag5053
aag3753
ag3754
ag3755
ag3756
a(lp5331
I1441
ag5053
aag3760
ag3761
a(lp5332
I1444
ag5053
aag3765
ag3766
a(lp5333
I1447
ag5053
aag3769
ag3770
ag3771
ag3772
a(lp5334
I1452
ag5053
aag3775
ag3776
ag3777
ag3778
ag3779
ag3780
ag3781
ag3782
a(lp5335
I1462
ag5053
aag3786
ag3787
ag3788
ag3789
a(lp5336
I1467
ag5053
aag3793
ag3794
a(lp5337
I1470
ag5053
aag3797
a(lp5338
I1472
ag5053
aag3800
ag3801
ag3802
ag3803
ag3804
ag3805
ag3806
ag3807
ag3808
ag3809
ag3810
a(lp5339
I1484
ag5053
aag3813
ag3814
ag3815
ag3816
ag3817
a(lp5340
I1490
ag5053
aag3821
ag3822
ag3823
a(lp5341
I1494
ag5053
aag3827
ag3828
ag3829
a(lp5342
I1498
ag5053
aag3832
ag3833
ag3834
ag3835
a(lp5343
I1503
ag5053
aag3839
ag3840
a(lp5344
I1506
ag5053
aag3843
ag3844
ag3845
ag3846
a(lp5345
I1511
ag5053
aag3849
ag3850
ag3851
ag3852
a(lp5346
I1516
ag5053
aag3856
ag3857
ag3858
a(lp5347
I1520
ag5053
aag3861
ag3862
ag3863
ag3864
ag3865
ag3866
ag3867
a(lp5348
I1528
ag5053
aag3871
ag3872
ag3873
a(lp5349
I1532
ag5053
aag3876
ag3877
ag3878
ag3879
ag3880
a(lp5350
I1539
ag5053
aag3883
ag3884
ag3885
ag3886
ag3887
ag3888
ag3889
a(lp5351
I1548
ag5053
aag3893
ag3894
ag3895
a(lp5352
I1552
ag5053
aag3898
ag3899
ag3900
ag3901
a(lp5353
I1558
ag5053
aag3905
ag3906
a(lp5354
I1561
ag5053
aag3909
ag3910
ag3911
ag3912
ag3913
a(lp5355
I1567
ag5053
aag3916
ag3917
ag3918
ag3919
a(lp5356
I1572
ag5053
aag3922
ag3923
ag3924
ag3925
a(lp5357
I1577
ag5053
aag3929
ag3930
ag3931
ag3932
a(lp5358
I1582
ag5053
aag3935
a(lp5359
I1584
ag5053
aag3938
ag3939
ag3940
ag3941
a(lp5360
I1590
ag5053
aag3945
ag3946
a(lp5361
I1593
ag5053
aag3950
ag3951
ag3952
ag3953
a(lp5362
I1598
ag5053
aag3956
ag3957
ag3958
a(lp5363
I1602
ag5053
aag3962
ag3963
ag3964
a(lp5364
I1606
ag5053
aag3967
ag3968
ag3969
a(lp5365
I1610
ag5053
aag3972
ag3973
ag3974
ag3975
ag3976
ag3977
a(lp5366
I1617
ag5053
aag3980
ag3981
ag3982
ag3983
a(lp5367
I1623
ag5053
aag3986
ag3987
ag3988
ag3989
a(lp5368
I1628
ag5053
aag3993
ag3994
ag3995
a(lp5369
I1632
ag5053
aag3999
ag4000
a(lp5370
I1635
ag5053
aag4003
ag4004
ag4005
ag4006
a(lp5371
I1640
ag5053
aag4010
ag4011
ag4012
ag4013
a(lp5372
I1645
ag5053
aag4017
ag4018
ag4019
a(lp5373
I1649
ag5053
aag4022
ag4023
ag4024
ag4025
a(lp5374
I1654
ag5053
aag4029
ag4030
a(lp5375
I1657
ag5053
aag4034
ag4035
ag4036
a(lp5376
I1661
ag5053
aag4039
ag4040
ag4041
ag4042
ag4043
ag4044
ag4045
ag4046
ag4047
ag4048
a(lp5377
I1672
ag5053
aag4052
ag4053
ag4054
a(lp5378
I1676
ag5053
aag4057
ag4058
ag4059
ag4060
ag4061
ag4062
ag4063
a(lp5379
I1684
ag5053
aag4067
ag4068
a(lp5380
I1687
ag5053
aag4071
a(lp5381
I1689
ag5053
aag4074
ag4075
ag4076
ag4077
ag4078
a(lp5382
I1695
ag5053
aag4081
ag4082
ag4083
ag4084
ag4085
a(lp5383
I1701
ag5053
aag4089
ag4090
ag4091
ag4092
a(lp5384
I1706
ag5053
aag4096
ag4097
ag4098
a(lp5385
I1710
ag5053
aag4101
ag4102
ag4103
ag4104
a(lp5386
I1716
ag5053
aag4108
ag4109
a(lp5387
I1719
ag5053
aag4112
ag4113
ag4114
ag4115
ag4116
ag4117
ag4118
a(lp5388
I1727
ag5053
aag4122
ag4123
ag4124
a(lp5389
I1731
ag5053
aag4127
a(lp5390
I1733
ag5053
aag4131
ag4132
ag4133
a(lp5391
I1737
ag5053
aag4137
ag4138
a(lp5392
I1740
ag5053
aag4142
ag4143
ag4144
a(lp5393
I1744
ag5053
aag4147
ag4148
ag4150
a(lp5394
I1749
ag5053
aag4154
ag4155
ag4156
a(lp5395
I1753
ag5053
aag4160
ag4161
ag4162
ag4163
a(lp5396
I1758
ag5053
aag4166
ag4167
ag4168
ag4169
a(lp5397
I1764
ag5053
aag4173
ag4174
a(lp5398
I1767
ag5053
aag4177
ag4178
ag4179
ag4180
a(lp5399
I1772
ag5053
aag4184
ag4185
a(lp5400
I1775
ag5053
aag4188
ag4189
ag4190
ag4191
ag4192
a(lp5401
I1781
ag5053
aag4196
ag4197
ag4198
ag4199
a(lp5402
I1786
ag5053
aag4203
ag4204
a(lp5403
I1789
ag5053
aag4207
ag4208
a(lp5404
I1792
ag5053
aag4211
ag4212
ag4213
ag4214
a(lp5405
I1798
ag5053
aag4217
ag4218
ag4219
ag4220
a(lp5406
I1803
ag5053
aag4223
ag4224
ag4225
ag4226
a(lp5407
I1808
ag5053
aag4230
ag4231
a(lp5408
I1811
ag5053
aag4234
ag4235
ag4236
a(lp5409
I1815
ag5053
aag4240
ag4241
a(lp5410
I1818
ag5053
aag4245
ag4246
ag4247
a(lp5411
I1822
ag5053
aag4250
ag4251
ag4252
ag4253
ag4254
ag4255
ag4256
a(lp5412
I1830
ag5053
aag4260
ag4261
a(lp5413
I1833
ag5053
aag4264
ag4265
ag4266
a(lp5414
I1837
ag5053
aag4270
ag4271
a(lp5415
I1840
ag5053
aag4275
ag4276
ag4277
a(lp5416
I1844
ag5053
aag4280
ag4281
ag4282
ag4283
a(lp5417
I1849
ag5053
aag4286
ag4287
ag4288
ag4289
ag4290
ag4291
ag4292
a(lp5418
I1857
ag5053
aag4295
ag4296
ag4297
ag4298
ag4299
ag4300
a(lp5419
I1865
ag5053
aag4303
ag4304
ag4305
ag4306
a(lp5420
I1870
ag5053
aag4310
ag4311
ag4312
ag4313
a(lp5421
I1875
ag5053
aag4317
ag4318
ag4319
a(lp5422
I1879
ag5053
aag4322
ag4323
ag4324
ag4325
ag4326
ag4327
ag4328
ag4329
ag4330
a(lp5423
I1889
ag5053
aag4334
ag4335
ag4336
a(lp5424
I1893
ag5053
aag4339
ag4340
ag4341
ag4342
ag4343
ag4344
ag4345
a(lp5425
I1901
ag5053
aag4349
ag4350
ag4351
a(lp5426
I1905
ag5053
aag4354
ag4355
ag4356
ag4357
ag4358
a(lp5427
I1912
ag5053
aag4361
ag4362
a(lp5428
I1915
ag5053
aag4366
ag4367
a(lp5429
I1918
ag5053
aag4371
ag4372
ag4373
a(lp5430
I1922
ag5053
aag4376
ag4377
ag4378
ag4379
ag4380
a(lp5431
I1928
ag5053
aag4384
ag4385
ag4386
a(lp5432
I1932
ag5053
aag4389
ag4390
ag4391
ag4392
ag4393
ag4394
a(lp5433
I1939
ag5053
aag4398
ag4399
a(lp5434
I1942
ag5053
aag4403
ag4404
ag4405
a(lp5435
I1946
ag5053
aag4408
ag4409
ag4410
ag4411
a(lp5436
I1951
ag5053
aag4414
ag4415
ag4416
ag4417
ag4418
ag4419
ag4420
ag4421
ag4422
a(lp5437
I1962
ag5053
aag4426
ag4427
ag4428
a(lp5438
I1966
ag5053
aag4432
ag4433
a(lp5439
I1969
ag5053
aag4437
ag4438
ag4439
a(lp5440
I1973
ag5053
aag4442
ag4443
ag4444
ag4445
ag4446
a(lp5441
I1980
ag5053
aag4449
ag4450
ag4451
a(lp5442
I1984
ag5053
aag4454
ag4455
ag4456
ag4457
ag4458
ag4459
ag4460
ag4461
ag4462
a(lp5443
I1995
ag5053
aag4466
ag4467
ag4468
a(lp5444
I1999
ag5053
aag4471
ag4472
ag4473
ag4474
ag4475
a(lp5445
I2005
ag5053
aag4479
ag4480
a(lp5446
I2008
ag5053
aag4483
ag4484
ag4485
ag4486
ag4487
ag4488
ag4489
ag4490
a(lp5447
I2017
ag5053
aag4494
ag4495
a(lp5448
I2020
ag5053
aag4499
ag4500
ag4501
a(lp5449
I2024
ag5053
aag4504
ag4505
ag4506
ag4507
ag4508
ag4509
ag4510
a(lp5450
I2032
ag5053
aag4513
ag4514
ag4515
ag4516
ag4517
ag4518
a(lp5451
I2039
ag5053
aag4522
ag4523
ag4524
a(lp5452
I2043
ag5053
aag4527
ag4528
ag4529
a(lp5453
I2048
ag5053
aag4532
ag4533
ag4534
ag4535
ag4536
ag4537
ag4538
a(lp5454
I2056
ag5053
aag4541
ag4542
ag4543
ag4544
a(lp5455
I2061
ag5053
aag4548
ag4549
a(lp5456
I2064
ag5053
aag4552
ag4553
ag4554
ag4555
ag4556
a(lp5457
I2070
ag5053
aag4560
ag4561
ag4562
ag4563
ag4564
a(lp5458
I2076
ag5053
aag4568
ag4569
a(lp5459
I2079
ag5053
aag4573
ag4574
ag4575
a(lp5460
I2083
ag5053
aag4578
ag4579
ag4580
ag4581
ag4582
ag4583
ag4584
ag4585
a(lp5461
I2092
ag5053
aag4589
ag4590
ag4591
ag4592
a(lp5462
I2097
ag5053
aag4596
ag4597
ag4598
ag4599
a(lp5463
I2102
ag5053
aag4603
ag4604
ag4605
ag4606
a(lp5464
I2107
ag5053
aag4609
ag4610
ag4611
a(lp5465
I2111
ag5053
aag4615
ag4616
ag4617
ag4618
a(lp5466
I2116
ag5053
aag4622
ag4623
ag4624
a(lp5467
I2120
ag5053
aag4627
ag4628
ag4629
ag4630
ag4631
ag4632
a(lp5468
I2127
ag5053
aag4636
ag4637
ag4638
ag4639
a(lp5469
I2132
ag5053
aag4643
ag4644
a(lp5470
I2135
ag5053
aag4648
ag4649
ag4650
a(lp5471
I2139
ag5053
aag4653
ag4654
ag4655
ag4656
a(lp5472
I2144
ag5053
aag4659
ag4660
ag4661
ag4662
ag4663
a(lp5473
I2151
ag5053
aag4666
ag4667
ag4668
ag4669
a(lp5474
I2156
ag5053
aag4672
ag4673
ag4674
ag4675
ag4676
ag4677
a(lp5475
I2164
ag5053
aag4681
ag4682
ag4683
a(lp5476
I2168
ag5053
aag4686
ag4687
ag4688
ag4689
ag4690
ag4691
a(lp5477
I2176
ag5053
aag4695
ag4696
a(lp5478
I2179
ag5053
aag4700
ag4701
ag4702
ag4703
a(lp5479
I2184
ag5053
aag4707
ag4708
ag4709
a(lp5480
I2188
ag5053
aag4712
ag4713
ag4714
ag4715
a(lp5481
I2193
ag5053
aag4719
ag4720
ag4721
ag4722
a(lp5482
I2198
ag5053
aag4725
ag4726
ag4727
a(lp5483
I2202
ag5053
aag4731
ag4732
ag4733
a(lp5484
I2206
ag5053
aag4737
ag4738
ag4739
a(lp5485
I2210
ag5053
aag4742
ag4743
ag4744
ag4745
ag4746
ag4747
a(lp5486
I2217
ag5053
aag4750
ag4751
ag4752
ag4753
a(lp5487
I2222
ag5053
aag4757
ag4758
ag4759
a(lp5488
I2226
ag5053
aag4762
ag4763
ag4764
ag4765
ag4766
ag4767
ag4768
ag4769
a(lp5489
I2235
ag5053
aag4773
ag4774
a(lp5490
I2238
ag5053
aag4777
ag4778
ag4779
ag4780
a(lp5491
I2243
ag5053
aag4784
ag4785
ag4786
ag4787
a(lp5492
I2248
ag5053
aag4791
ag4792
ag4793
ag4794
ag4795
a(lp5493
I2254
ag5053
aag4798
ag4799
ag4800
ag4801
ag4802
ag4803
ag4804
ag4805
a(lp5494
I2263
ag5053
aag4809
ag4810
a(lp5495
I2266
ag5053
aag4814
ag4815
ag4816
a(lp5496
I2270
ag5053
aag4819
ag4820
ag4821
ag4822
a(lp5497
I2276
ag5053
aag4826
ag4827
ag4828
a(lp5498
I2280
ag5053
aag4832
ag4833
ag4834
a(lp5499
I2284
ag5053
aag4838
ag4839
ag4840
ag4841
a(lp5500
I2289
ag5053
aag4845
ag4846
a(lp5501
I2292
ag5053
aag4850
ag4851
a(lp5502
I2295
ag5053
aag4855
ag4856
a(lp5503
I2298
ag5053
aag4859
ag4860
ag4861
ag4862
a(lp5504
I2303
ag5053
aag4866
ag4867
ag4868
ag4869
a(lp5505
I2308
ag5053
aag4873
ag4874
a(lp5506
I2311
ag5053
aag4878
ag4879
ag4880
a(lp5507
I2315
ag5053
aag4883
ag4884
ag4885
ag4886
ag4887
a(lp5508
I2321
ag5053
aag4891
ag4892
ag4893
a(lp5509
I2325
ag5053
aag4896
ag4897
ag4898
ag4899
a(lp5510
I2330
ag5053
aag4902
ag4903
ag4904
ag4905
ag4906
ag4907
ag4908
ag4909
ag4910
ag4911
ag4912
ag4913
a(lp5511
I2343
ag5053
aag4917
ag4918
ag4919
a(lp5512
I2347
ag5053
aag4923
ag4924
ag4925
a(lp5513
I2351
ag5053
aag4928
ag4929
ag4930
ag4931
a(lp5514
I2356
ag5053
aag4935
ag4936
ag4937
a(lp5515
I2360
ag5053
aag4940
ag4941
ag4942
ag4943
a(lp5516
I2365
ag5053
aag4947
ag4948
a(lp5517
I2368
ag5053
aag4951
ag4952
ag4953
ag4954
ag4955
a(lp5518
I2374
ag5053
aag4959
ag4960
ag4961
a(lp5519
I2378
ag5053
aag4965
ag4966
ag4967
ag4968
ag4969
a(lp5520
I2384
ag5053
aag4973
ag4974
ag4975
a(lp5521
I2388
ag5053
aag4978
ag4979
ag4980
ag4981
a(lp5522
I2393
ag5053
aag4985
ag4986
a(lp5523
I2396
ag5053
aag4989
ag4990
a(lp5524
I2399
ag5053
aag4994
ag4995
ag4996
a(lp5525
I2403
ag5053
aag4999
ag5000
ag5001
ag5002
a(lp5526
I2408
ag5053
aag5006
ag5007
a(lp5527
I2412
ag5053
aag5011
ag5012
ag5013
ag5014
a(lp5528
I2417
ag5053
aag5018
ag5019
ag5020
ag5021
a(lp5529
I2422
ag5053
aag5025
ag5026
a(lp5530
I2425
ag5053
aag5029
ag5030
ag5031
ag5032
ag5033
ag5034
ag5035
a(lp5531
I2434
ag5053
aag5038
ag5039
ag5040
ag5041
ag5042
a(lp5532
I2440
ag5053
aag5045
ag5046
ag5047
ag5048
ag5049
asS'text'
p5533
S"excellent 48 year old with a moderate budget, traveling for leisure1\xc2\xa0reviews\xc2\xa0 my husband and i have been there 3 times in the last year. each time we have been there it has been wonderful. the service has been great. might be because we go during the week when they are less busy. our rooms have always been ready on time. if not early. they have always upgraded us to a suite and they are extremely nice. we have never eaten dinner at the buffet. but the breakfast has been good. the 1875 steakhouse, is good (little pricey) and hagen's is also good. the pizza at pluto's is outstanding. each time we have been there it has been during a different season. if you have the chance to go at christmas the decorations are beautiful. this fall will be our fourth trip this year and the last of the seasons for us. we will have seen it at every time of the year. if you are going to gamble request the garden wing. it is the closest to the casino and with the service elevators (ask where they are) it is not a very far walk at all. we have found the staff very friendly and more than willing to answer questions and talk with us about the history of the hotels. since we like to sleep in while we are away we usually do not have our room cleaned every day. once while we are there is enough. i just ask for extra towels and coffee. the floor maid is usually waiting in the hall or is close by when we leave our room after lunch and always asks if we need anything. this is a destination hotel and you need to take time and explore the hotel, grounds, and town. we never stay less than 3 days. in this day and age people don't know how to slow down and take in the atmosphere and history of a grand hotel from the past. my husband and i are in our 40's and both work. we like to relax when we go away. take time to sit on the veranda in one of the many rocking chairs, walk down the promenade and explore the shops, go to the lobby for drinks in the late afternoon, and by all means. ask questions. you might be suprized at the history lesson you get. another plus to going there is the shuttles they have that run from the resort over to the west baden, golf course, and winery. so once you park your car you can either take the shuttles or walk just about anywhere in the town. all you have to do is call down to the lobby and make arrangements for the time you want to leave and where you want to go and show up. they will be waiting. hotel deals"
p5534
sS'cleanWordMap'
p5535
(lp5536
g1878
ag1895
ag1901
ag1910
ag1930
ag1941
ag1952
ag1971
ag1998
ag2038
ag2041
ag2059
ag2065
ag2078
ag2129
ag2146
ag2168
ag2175
ag2202
ag2221
ag2248
ag2254
ag2266
ag2280
ag2295
ag2307
ag2324
ag2345
ag2353
ag2364
ag2376
ag2402
ag2413
ag2431
ag2438
ag2445
ag2464
ag2484
ag2508
ag2520
ag2528
ag2545
ag2551
ag2559
ag2573
ag2586
ag2592
ag2604
ag2617
ag2630
ag2650
ag2713
ag2724
ag2756
ag2769
ag2778
ag2795
ag2814
ag2832
ag2856
ag2864
ag2877
ag2895
ag2912
ag2927
ag2950
ag2966
ag2973
ag2990
ag3013
ag3025
ag3033
ag3049
ag3057
ag3079
ag3099
ag3126
ag3135
ag3146
ag3198
ag3203
ag3232
ag3245
ag3259
ag3289
ag3303
ag3311
ag3328
ag3341
ag3359
ag3379
ag3387
ag3399
ag3410
ag3441
ag3452
ag3485
ag3491
ag3500
ag3507
ag3551
ag3570
ag3581
ag3588
ag3602
ag3616
ag3623
ag3634
ag3643
ag3663
ag3679
ag3703
ag3716
ag3730
ag3743
ag3751
ag3767
ag3773
ag3798
ag3811
ag3830
ag3841
ag3847
ag3859
ag3874
ag3881
ag3896
ag3907
ag3914
ag3920
ag3933
ag3936
ag3954
ag3965
ag3970
ag3978
ag3984
ag4001
ag4020
ag4037
ag4055
ag4072
ag4079
ag4099
ag4110
ag4145
ag4164
ag4175
ag4186
ag4205
ag4209
ag4215
ag4221
ag4232
ag4248
ag4262
ag4278
ag4284
ag4293
ag4301
ag4320
ag4337
ag4352
ag4359
ag4374
ag4387
ag4406
ag4412
ag4440
ag4447
ag4452
ag4469
ag4481
ag4502
ag4511
ag4525
ag4530
ag4539
ag4550
ag4576
ag4607
ag4625
ag4651
ag4657
ag4664
ag4670
ag4684
ag4710
ag4723
ag4740
ag4748
ag4760
ag4775
ag4796
ag4817
ag4857
ag4881
ag4894
ag4900
ag4926
ag4938
ag4949
ag4976
ag4987
ag4997
ag5027
ag5036
ag5043
asS'lines'
p5537
(lp5538
VExcellent\u000a
p5539
aV48 year old with a moderate budget, traveling for leisure1reviews\u000a
p5540
aVMy husband and I have been there 3 times in the last year. Each time we have been there it has been wonderful. The service has been great. Might be because we go during the week when they are less busy. Our rooms have always been ready on time. If not early. They have always upgraded us to a suite and they are extremely nice. We have never eaten dinner at the buffet. but the breakfast has been good. The 1875 Steakhouse, is good (little pricey) and Hagen's is also good. The pizza at Pluto's is outstanding.\u000a
p5541
aVEach time we have been there it has been during a different season. If you have the chance to go at Christmas the decorations are beautiful. This fall will be our fourth trip this year and the last of the seasons for us. We will have seen it at every time of the year.\u000a
p5542
aVIf you are going to gamble request the garden wing. It is the closest to the casino and with the service elevators (ask where they are) it is not a very far walk at all.\u000a
p5543
aVWe have found the staff very friendly and more than willing to answer questions and talk with us about the history of the hotels. Since we like to sleep in while we are away we usually do not have our room cleaned every day. Once while we are there is enough. I just ask for extra towels and coffee. The floor maid is usually waiting in the hall or is close by when we leave our room after lunch and always asks if we need anything.\u000a
p5544
aVThis is a destination hotel and you need to take time and explore the hotel, grounds, and town. We never stay less than 3 days. In this day and age people don't know how to slow down and take in the atmosphere and history of a grand hotel from the past. My husband and I are in our 40's and both work. We like to relax when we go away. Take time to sit on the veranda in one of the many rocking chairs, walk down the promenade and explore the shops, go to the lobby for drinks in the late afternoon, and by all means. Ask questions. You might be suprized at the history lesson you get.\u000a
p5545
aVAnother plus to going there is the shuttles they have that run from the resort over to the West Baden, golf course, and winery. So once you park your car you can either take the shuttles or walk just about anywhere in the town. All you have to do is call down to the lobby and make arrangements for the time you want to leave and where you want to go and show up. They will be waiting.\u000a
p5546
aVHotel Deals
p5547
asS'docType'
p5548
S'src'
p5549
sS'newfmap'
p5550
(lp5551
g4
ag8
ag10
ag12
ag14
ag17
ag19
ag21
ag23
ag26
ag28
ag30
ag32
ag35
ag37
ag39
ag41
ag44
ag46
ag48
ag50
ag53
ag55
ag57
ag59
ag62
ag64
ag66
ag68
ag71
ag73
ag75
ag77
ag80
ag82
ag84
ag86
ag89
ag91
ag93
ag95
ag98
ag100
ag102
ag104
ag107
ag109
ag111
ag113
ag116
ag118
ag120
ag122
ag125
ag127
ag129
ag131
ag134
ag136
ag138
ag140
ag143
ag145
ag147
ag149
ag152
ag154
ag156
ag158
ag161
ag163
ag165
ag167
ag170
ag172
ag174
ag176
ag179
ag181
ag183
ag185
ag188
ag190
ag192
ag194
ag197
ag199
ag201
ag203
ag206
ag208
ag210
ag212
ag215
ag217
ag219
ag221
ag224
ag226
ag228
ag230
ag233
ag235
ag237
ag239
ag242
ag244
ag246
ag248
ag251
ag253
ag255
ag257
ag260
ag262
ag264
ag266
ag269
ag271
ag273
ag275
ag278
ag280
ag282
ag284
ag287
ag289
ag291
ag293
ag296
ag298
ag300
ag302
ag305
ag307
ag309
ag311
ag314
ag316
ag318
ag320
ag323
ag325
ag327
ag329
ag332
ag334
ag336
ag338
ag341
ag343
ag345
ag347
ag350
ag352
ag354
ag356
ag359
ag361
ag363
ag365
ag368
ag370
ag372
ag374
ag377
ag379
ag381
ag383
ag386
ag388
ag390
ag392
ag395
ag397
ag399
ag401
ag404
ag406
ag408
ag410
ag413
ag415
ag417
ag419
ag422
ag424
ag426
ag428
ag431
ag433
ag435
ag437
ag440
ag442
ag444
ag446
ag449
ag451
ag453
ag455
ag458
ag460
ag462
ag464
ag467
ag469
ag471
ag473
ag476
ag478
ag480
ag482
ag485
ag487
ag489
ag491
ag494
ag496
ag498
ag500
ag503
ag505
ag507
ag509
ag512
ag514
ag516
ag518
ag521
ag523
ag525
ag527
ag530
ag532
ag534
ag536
ag539
ag541
ag543
ag545
ag548
ag550
ag552
ag554
ag557
ag559
ag561
ag563
ag566
ag568
ag570
ag572
ag575
ag577
ag579
ag581
ag584
ag586
ag588
ag590
ag593
ag595
ag597
ag599
ag602
ag604
ag606
ag608
ag611
ag613
ag615
ag617
ag620
ag622
ag624
ag626
ag629
ag631
ag633
ag635
ag638
ag640
ag642
ag644
ag647
ag649
ag651
ag653
ag656
ag658
ag660
ag662
ag665
ag667
ag669
ag671
ag674
ag676
ag678
ag680
ag683
ag685
ag687
ag689
ag692
ag694
ag696
ag698
ag701
ag703
ag705
ag707
ag710
ag712
ag714
ag716
ag719
ag721
ag723
ag725
ag728
ag730
ag732
ag734
ag737
ag739
ag741
ag743
ag746
ag748
ag750
ag752
ag755
ag757
ag759
ag761
ag764
ag766
ag768
ag770
ag773
ag775
ag777
ag779
ag782
ag784
ag786
ag788
ag791
ag793
ag795
ag797
ag800
ag802
ag804
ag806
ag809
ag811
ag813
ag815
ag818
ag820
ag822
ag824
ag827
ag829
ag831
ag833
ag836
ag838
ag840
ag842
ag845
ag847
ag849
ag851
ag854
ag856
ag858
ag860
ag863
ag865
ag867
ag869
ag872
ag874
ag876
ag878
ag881
ag883
ag885
ag887
ag890
ag892
ag894
ag896
ag899
ag901
ag903
ag905
ag908
ag910
ag912
ag914
ag917
ag919
ag921
ag923
ag926
ag928
ag930
ag932
ag935
ag937
ag939
ag941
ag944
ag946
ag948
ag950
ag953
ag955
ag957
ag959
ag962
ag964
ag966
ag968
ag971
ag973
ag975
ag977
ag980
ag982
ag984
ag986
ag989
ag991
ag993
ag995
ag998
ag1000
ag1002
ag1004
ag1007
ag1009
ag1011
ag1013
ag1016
ag1018
ag1020
ag1022
ag1025
ag1027
ag1029
ag1031
ag1034
ag1036
ag1038
ag1040
ag1043
ag1045
ag1047
ag1049
ag1052
ag1054
ag1056
ag1058
ag1061
ag1063
ag1065
ag1067
ag1070
ag1072
ag1074
ag1076
ag1079
ag1081
ag1083
ag1085
ag1088
ag1090
ag1092
ag1094
ag1097
ag1099
ag1101
ag1103
ag1106
ag1108
ag1110
ag1112
ag1115
ag1117
ag1119
ag1121
ag1124
ag1126
ag1128
ag1130
ag1133
ag1135
ag1137
ag1139
ag1142
ag1144
ag1146
ag1148
ag1151
ag1153
ag1155
ag1157
ag1160
ag1162
ag1164
ag1166
ag1169
ag1171
ag1173
ag1175
ag1177
ag1179
ag1181
ag1183
ag1186
ag1188
ag1190
ag1192
ag1195
ag1197
ag1199
ag1201
ag1204
ag1206
ag1208
ag1210
ag1213
ag1215
ag1217
ag1219
ag1222
ag1224
ag1226
ag1228
ag1231
ag1233
ag1235
ag1237
ag1240
ag1242
ag1244
ag1246
ag1249
ag1251
ag1253
ag1255
ag1258
ag1260
ag1262
ag1264
ag1267
ag1269
ag1271
ag1273
ag1276
ag1278
ag1280
ag1282
ag1285
ag1287
ag1289
ag1291
ag1294
ag1296
ag1298
ag1300
ag1303
ag1305
ag1307
ag1309
ag1312
ag1314
ag1316
ag1318
ag1321
ag1323
ag1325
ag1327
ag1330
ag1332
ag1334
ag1336
ag1339
ag1341
ag1343
ag1345
ag1348
ag1350
ag1352
ag1354
ag1357
ag1359
ag1361
ag1363
ag1366
ag1368
ag1370
ag1372
ag1375
ag1377
ag1379
ag1381
ag1384
ag1386
ag1388
ag1390
ag1393
ag1395
ag1397
ag1399
ag1402
ag1404
ag1406
ag1408
ag1411
ag1413
ag1415
ag1417
ag1420
ag1422
ag1424
ag1426
ag1429
ag1431
ag1433
ag1435
ag1438
ag1440
ag1442
ag1444
ag1447
ag1449
ag1451
ag1453
ag1456
ag1458
ag1460
ag1462
ag1465
ag1467
ag1469
ag1471
ag1474
ag1476
ag1478
ag1480
ag1483
ag1485
ag1487
ag1489
ag1492
ag1494
ag1496
ag1498
ag1501
ag1503
ag1505
ag1507
ag1510
ag1512
ag1514
ag1516
ag1519
ag1521
ag1523
ag1525
ag1528
ag1530
ag1532
ag1534
ag1537
ag1539
ag1541
ag1543
ag1546
ag1548
ag1550
ag1552
ag1555
ag1557
ag1559
ag1561
ag1564
ag1566
ag1568
ag1570
ag1573
ag1575
ag1577
ag1579
ag1582
ag1584
ag1586
ag1588
ag1591
ag1593
ag1595
ag1597
ag1600
ag1602
ag1604
ag1606
ag1609
ag1611
ag1613
ag1615
ag1618
ag1620
ag1622
ag1624
ag1627
ag1629
ag1631
ag1633
ag1636
ag1638
ag1640
ag1642
ag1645
ag1647
ag1649
ag1651
ag1654
ag1656
ag1658
ag1660
ag1663
ag1665
ag1667
ag1669
ag1672
ag1674
ag1676
ag1678
ag1681
ag1683
ag1685
ag1687
ag1690
ag1692
ag1694
ag1696
ag1699
ag1701
ag1703
ag1705
ag1708
ag1710
ag1712
ag1714
ag1717
ag1719
ag1721
ag1723
ag1726
ag1728
ag1730
ag1732
ag1735
ag1737
ag1739
ag1741
ag1744
ag1746
ag1748
ag1750
ag1753
ag1755
ag1757
ag1759
ag1762
ag1764
ag1766
ag1768
ag1771
ag1773
ag1775
ag1777
ag1780
ag1782
ag1784
ag1786
ag1789
ag1791
ag1793
ag1795
ag1798
ag1800
ag1802
ag1804
ag1807
ag1809
ag1811
ag1813
ag1816
ag1818
ag1820
ag1822
ag1825
ag1827
ag1829
ag1831
ag1834
ag1836
ag1838
ag1840
ag1843
ag1845
ag1847
ag1849
ag1852
ag1854
ag1856
ag1858
ag1861
ag1863
ag1865
ag1867
ag1870
ag1872
ag1874
asS'featureMap'
p5552
(lp5553
(lp5554
I0
aI8
ag5
ag6
ag9
ag11
ag13
aa(lp5555
I10
aI11
ag15
ag16
ag18
ag20
ag22
aa(lp5556
I13
aI16
ag24
ag25
ag27
ag29
ag31
aa(lp5557
I18
aI20
ag33
ag34
ag36
ag38
ag40
aa(lp5558
I29
aI36
ag42
ag43
ag45
ag47
ag49
aa(lp5559
I38
aI43
ag51
ag52
ag54
ag56
ag58
aa(lp5560
I46
aI54
ag60
ag61
ag63
ag65
ag67
aa(lp5561
I60
aI78
ag69
ag70
ag72
ag74
ag76
aa(lp5562
I83
aI89
ag78
ag79
ag81
ag83
ag85
aa(lp5563
I113
aI113
ag87
ag88
ag90
ag92
ag94
aa(lp5564
I115
aI119
ag96
ag97
ag99
ag101
ag103
aa(lp5565
I128
aI131
ag105
ag106
ag108
ag110
ag112
aa(lp5566
I133
aI136
ag114
ag115
ag117
ag119
ag121
aa(lp5567
I144
aI147
ag123
ag124
ag126
ag128
ag130
aa(lp5568
I180
aI188
ag132
ag133
ag135
ag137
ag139
aa(lp5569
I195
aI201
ag141
ag142
ag144
ag146
ag148
aa(lp5570
I212
aI216
ag150
ag151
ag153
ag155
ag157
aa(lp5571
I219
aI223
ag159
ag160
ag162
ag164
ag166
aa(lp5572
I239
aI240
ag168
ag169
ag171
ag173
ag175
aa(lp5573
I253
aI256
ag177
ag178
ag180
ag182
ag184
aa(lp5574
I272
aI275
ag186
ag187
ag189
ag191
ag193
aa(lp5575
I277
aI280
ag195
ag196
ag198
ag200
ag202
aa(lp5576
I287
aI291
ag204
ag205
ag207
ag209
ag211
aa(lp5577
I298
aI303
ag213
ag214
ag216
ag218
ag220
aa(lp5578
I310
aI314
ag222
ag223
ag225
ag227
ag229
aa(lp5579
I319
aI322
ag231
ag232
ag234
ag236
ag238
aa(lp5580
I332
aI336
ag240
ag241
ag243
ag245
ag247
aa(lp5581
I349
aI354
ag249
ag250
ag252
ag254
ag256
aa(lp5582
I356
aI363
ag258
ag259
ag261
ag263
ag265
aa(lp5583
I365
aI366
ag267
ag268
ag270
ag272
ag274
aa(lp5584
I373
aI377
ag276
ag277
ag279
ag281
ag283
aa(lp5585
I392
aI400
ag285
ag286
ag288
ag290
ag292
aa(lp5586
I402
aI405
ag294
ag295
ag297
ag299
ag301
aa(lp5587
I416
aI420
ag303
ag304
ag306
ag308
ag310
aa(lp5588
I422
aI426
ag312
ag313
ag315
ag317
ag319
aa(lp5589
I428
aI433
ag321
ag322
ag324
ag326
ag328
aa(lp5590
I442
aI447
ag330
ag331
ag333
ag335
ag337
aa(lp5591
I458
aI466
ag339
ag340
ag342
ag344
ag346
aa(lp5592
I477
aI480
ag348
ag349
ag351
ag353
ag355
aa(lp5593
I487
aI490
ag357
ag358
ag360
ag362
ag364
aa(lp5594
I492
aI501
ag366
ag367
ag369
ag371
ag373
aa(lp5595
I507
aI510
ag375
ag376
ag378
ag380
ag382
aa(lp5596
I513
aI518
ag384
ag385
ag387
ag389
ag391
aa(lp5597
I520
aI525
ag393
ag394
ag396
ag398
ag400
aa(lp5598
I532
aI538
ag402
ag403
ag405
ag407
ag409
aa(lp5599
I543
aI546
ag411
ag412
ag414
ag416
ag418
aa(lp5600
I548
aI551
ag420
ag421
ag423
ag425
ag427
aa(lp5601
I558
aI562
ag429
ag430
ag432
ag434
ag436
aa(lp5602
I567
aI573
ag438
ag439
ag441
ag443
ag445
aa(lp5603
I578
aI588
ag447
ag448
ag450
ag452
ag454
aa(lp5604
I596
aI599
ag456
ag457
ag459
ag461
ag463
aa(lp5605
I641
aI649
ag465
ag466
ag468
ag470
ag472
aa(lp5606
I651
aI656
ag474
ag475
ag477
ag479
ag481
aa(lp5607
I675
aI680
ag483
ag484
ag486
ag488
ag490
aa(lp5608
I685
aI686
ag492
ag493
ag495
ag497
ag499
aa(lp5609
I691
aI699
ag501
ag502
ag504
ag506
ag508
aa(lp5610
I705
aI715
ag510
ag511
ag513
ag515
ag517
aa(lp5611
I721
aI729
ag519
ag520
ag522
ag524
ag526
aa(lp5612
I737
aI740
ag528
ag529
ag531
ag533
ag535
aa(lp5613
I754
aI759
ag537
ag538
ag540
ag542
ag544
aa(lp5614
I761
aI764
ag546
ag547
ag549
ag551
ag553
aa(lp5615
I771
aI774
ag555
ag556
ag558
ag560
ag562
aa(lp5616
I784
aI787
ag564
ag565
ag567
ag569
ag571
aa(lp5617
I796
aI802
ag573
ag574
ag576
ag578
ag580
aa(lp5618
I808
aI809
ag582
ag583
ag585
ag587
ag589
aa(lp5619
I825
aI828
ag591
ag592
ag594
ag596
ag598
aa(lp5620
I836
aI840
ag600
ag601
ag603
ag605
ag607
aa(lp5621
I842
aI845
ag609
ag610
ag612
ag614
ag616
aa(lp5622
I854
aI857
ag618
ag619
ag621
ag623
ag625
aa(lp5623
I871
aI875
ag627
ag628
ag630
ag632
ag634
aa(lp5624
I880
aI885
ag636
ag637
ag639
ag641
ag643
aa(lp5625
I887
aI893
ag645
ag646
ag648
ag650
ag652
aa(lp5626
I899
aI904
ag654
ag655
ag657
ag659
ag661
aa(lp5627
I906
aI909
ag663
ag664
ag666
ag668
ag670
aa(lp5628
I922
aI928
ag672
ag673
ag675
ag677
ag679
aa(lp5629
I937
aI942
ag681
ag682
ag684
ag686
ag688
aa(lp5630
I957
aI963
ag690
ag691
ag693
ag695
ag697
aa(lp5631
I965
aI973
ag699
ag700
ag702
ag704
ag706
aa(lp5632
I976
aI978
ag708
ag709
ag711
ag713
ag715
aa(lp5633
I1013
aI1015
ag717
ag718
ag720
ag722
ag724
aa(lp5634
I1017
aI1020
ag726
ag727
ag729
ag731
ag733
aa(lp5635
I1038
aI1042
ag735
ag736
ag738
ag740
ag742
aa(lp5636
I1048
aI1052
ag744
ag745
ag747
ag749
ag751
aa(lp5637
I1059
aI1066
ag753
ag754
ag756
ag758
ag760
aa(lp5638
I1082
aI1088
ag762
ag763
ag765
ag767
ag769
aa(lp5639
I1093
aI1098
ag771
ag772
ag774
ag776
ag778
aa(lp5640
I1100
aI1108
ag780
ag781
ag783
ag785
ag787
aa(lp5641
I1114
aI1117
ag789
ag790
ag792
ag794
ag796
aa(lp5642
I1124
aI1125
ag798
ag799
ag801
ag803
ag805
aa(lp5643
I1137
aI1143
ag807
ag808
ag810
ag812
ag814
aa(lp5644
I1152
aI1157
ag816
ag817
ag819
ag821
ag823
aa(lp5645
I1160
aI1164
ag825
ag826
ag828
ag830
ag832
aa(lp5646
I1169
aI1172
ag834
ag835
ag837
ag839
ag841
aa(lp5647
I1177
aI1181
ag843
ag844
ag846
ag848
ag850
aa(lp5648
I1199
aI1202
ag852
ag853
ag855
ag857
ag859
aa(lp5649
I1207
aI1213
ag861
ag862
ag864
ag866
ag868
aa(lp5650
I1231
aI1234
ag870
ag871
ag873
ag875
ag877
aa(lp5651
I1236
aI1242
ag879
ag880
ag882
ag884
ag886
aa(lp5652
I1244
aI1248
ag888
ag889
ag891
ag893
ag895
aa(lp5653
I1250
aI1252
ag897
ag898
ag900
ag902
ag904
aa(lp5654
I1282
aI1287
ag906
ag907
ag909
ag911
ag913
aa(lp5655
I1297
aI1299
ag915
ag916
ag918
ag920
ag922
aa(lp5656
I1305
aI1309
ag924
ag925
ag927
ag929
ag931
aa(lp5657
I1311
aI1316
ag933
ag934
ag936
ag938
ag940
aa(lp5658
I1322
aI1327
ag942
ag943
ag945
ag947
ag949
aa(lp5659
I1334
aI1338
ag951
ag952
ag954
ag956
ag958
aa(lp5660
I1340
aI1343
ag960
ag961
ag963
ag965
ag967
aa(lp5661
I1348
aI1354
ag969
ag970
ag972
ag974
ag976
aa(lp5662
I1356
aI1362
ag978
ag979
ag981
ag983
ag985
aa(lp5663
I1371
aI1374
ag987
ag988
ag990
ag992
ag994
aa(lp5664
I1382
aI1386
ag996
ag997
ag999
ag1001
ag1003
aa(lp5665
I1399
aI1403
ag1005
ag1006
ag1008
ag1010
ag1012
aa(lp5666
I1409
aI1412
ag1014
ag1015
ag1017
ag1019
ag1021
aa(lp5667
I1420
aI1424
ag1023
ag1024
ag1026
ag1028
ag1030
aa(lp5668
I1430
aI1435
ag1032
ag1033
ag1035
ag1037
ag1039
aa(lp5669
I1437
aI1440
ag1041
ag1042
ag1044
ag1046
ag1048
aa(lp5670
I1448
aI1451
ag1050
ag1051
ag1053
ag1055
ag1057
aa(lp5671
I1453
aI1460
ag1059
ag1060
ag1062
ag1064
ag1066
aa(lp5672
I1473
aI1483
ag1068
ag1069
ag1071
ag1073
ag1075
aa(lp5673
I1485
aI1489
ag1077
ag1078
ag1080
ag1082
ag1084
aa(lp5674
I1499
aI1502
ag1086
ag1087
ag1089
ag1091
ag1093
aa(lp5675
I1507
aI1510
ag1095
ag1096
ag1098
ag1100
ag1102
aa(lp5676
I1512
aI1515
ag1104
ag1105
ag1107
ag1109
ag1111
aa(lp5677
I1521
aI1527
ag1113
ag1114
ag1116
ag1118
ag1120
aa(lp5678
I1533
aI1537
ag1122
ag1123
ag1125
ag1127
ag1129
aa(lp5679
I1540
aI1546
ag1131
ag1132
ag1134
ag1136
ag1138
aa(lp5680
I1553
aI1556
ag1140
ag1141
ag1143
ag1145
ag1147
aa(lp5681
I1562
aI1566
ag1149
ag1150
ag1152
ag1154
ag1156
aa(lp5682
I1568
aI1571
ag1158
ag1159
ag1161
ag1163
ag1165
aa(lp5683
I1573
aI1576
ag1167
ag1168
ag1170
ag1172
ag1174
aa(lp5684
I1583
aI1583
ag87
ag1176
ag1178
ag1180
ag1182
aa(lp5685
I1585
aI1588
ag1184
ag1185
ag1187
ag1189
ag1191
aa(lp5686
I1599
aI1601
ag1193
ag1194
ag1196
ag1198
ag1200
aa(lp5687
I1607
aI1609
ag1202
ag1203
ag1205
ag1207
ag1209
aa(lp5688
I1611
aI1616
ag1211
ag1212
ag1214
ag1216
ag1218
aa(lp5689
I1618
aI1622
ag1220
ag1221
ag1223
ag1225
ag1227
aa(lp5690
I1624
aI1627
ag1229
ag1230
ag1232
ag1234
ag1236
aa(lp5691
I1636
aI1639
ag1238
ag1239
ag1241
ag1243
ag1245
aa(lp5692
I1650
aI1653
ag1247
ag1248
ag1250
ag1252
ag1254
aa(lp5693
I1662
aI1671
ag1256
ag1257
ag1259
ag1261
ag1263
aa(lp5694
I1677
aI1683
ag1265
ag1266
ag1268
ag1270
ag1272
aa(lp5695
I1690
aI1694
ag1274
ag1275
ag1277
ag1279
ag1281
aa(lp5696
I1696
aI1700
ag1283
ag1284
ag1286
ag1288
ag1290
aa(lp5697
I1711
aI1714
ag1292
ag1293
ag1295
ag1297
ag1299
aa(lp5698
I1720
aI1726
ag1301
ag1302
ag1304
ag1306
ag1308
aa(lp5699
I1745
aI1748
ag1310
ag1311
ag1313
ag1315
ag1317
aa(lp5700
I1759
aI1762
ag1319
ag1320
ag1322
ag1324
ag1326
aa(lp5701
I1768
aI1771
ag1328
ag1329
ag1331
ag1333
ag1335
aa(lp5702
I1776
aI1780
ag1337
ag1338
ag1340
ag1342
ag1344
aa(lp5703
I1790
aI1791
ag1346
ag1347
ag1349
ag1351
ag1353
aa(lp5704
I1793
aI1796
ag1355
ag1356
ag1358
ag1360
ag1362
aa(lp5705
I1799
aI1802
ag1364
ag1365
ag1367
ag1369
ag1371
aa(lp5706
I1804
aI1807
ag1373
ag1374
ag1376
ag1378
ag1380
aa(lp5707
I1812
aI1814
ag1382
ag1383
ag1385
ag1387
ag1389
aa(lp5708
I1823
aI1829
ag1391
ag1392
ag1394
ag1396
ag1398
aa(lp5709
I1834
aI1836
ag1400
ag1401
ag1403
ag1405
ag1407
aa(lp5710
I1845
aI1848
ag1409
ag1410
ag1412
ag1414
ag1416
aa(lp5711
I1850
aI1856
ag1418
ag1419
ag1421
ag1423
ag1425
aa(lp5712
I1858
aI1863
ag1427
ag1428
ag1430
ag1432
ag1434
aa(lp5713
I1866
aI1869
ag1436
ag1437
ag1439
ag1441
ag1443
aa(lp5714
I1880
aI1888
ag1445
ag1446
ag1448
ag1450
ag1452
aa(lp5715
I1894
aI1900
ag1454
ag1455
ag1457
ag1459
ag1461
aa(lp5716
I1906
aI1910
ag1463
ag1464
ag1466
ag1468
ag1470
aa(lp5717
I1913
aI1914
ag1472
ag1473
ag1475
ag1477
ag1479
aa(lp5718
I1923
aI1927
ag1481
ag1482
ag1484
ag1486
ag1488
aa(lp5719
I1933
aI1938
ag1490
ag1491
ag1493
ag1495
ag1497
aa(lp5720
I1947
aI1950
ag1499
ag1500
ag1502
ag1504
ag1506
aa(lp5721
I1952
aI1960
ag1508
ag1509
ag1511
ag1513
ag1515
aa(lp5722
I1974
aI1978
ag1517
ag1518
ag1520
ag1522
ag1524
aa(lp5723
I1981
aI1983
ag1526
ag1527
ag1529
ag1531
ag1533
aa(lp5724
I1985
aI1993
ag1535
ag1536
ag1538
ag1540
ag1542
aa(lp5725
I2000
aI2004
ag1544
ag1545
ag1547
ag1549
ag1551
aa(lp5726
I2009
aI2016
ag1553
ag1554
ag1556
ag1558
ag1560
aa(lp5727
I2025
aI2031
ag1562
ag1563
ag1565
ag1567
ag1569
aa(lp5728
I2033
aI2038
ag1571
ag1572
ag1574
ag1576
ag1578
aa(lp5729
I2044
aI2046
ag1580
ag1581
ag1583
ag1585
ag1587
aa(lp5730
I2049
aI2055
ag1589
ag1590
ag1592
ag1594
ag1596
aa(lp5731
I2057
aI2060
ag1598
ag1599
ag1601
ag1603
ag1605
aa(lp5732
I2065
aI2069
ag1607
ag1608
ag1610
ag1612
ag1614
aa(lp5733
I2084
aI2091
ag1616
ag1617
ag1619
ag1621
ag1623
aa(lp5734
I2108
aI2110
ag1625
ag1626
ag1628
ag1630
ag1632
aa(lp5735
I2121
aI2126
ag1634
ag1635
ag1637
ag1639
ag1641
aa(lp5736
I2140
aI2143
ag1643
ag1644
ag1646
ag1648
ag1650
aa(lp5737
I2145
aI2149
ag1652
ag1653
ag1655
ag1657
ag1659
aa(lp5738
I2152
aI2155
ag1661
ag1662
ag1664
ag1666
ag1668
aa(lp5739
I2157
aI2162
ag1670
ag1671
ag1673
ag1675
ag1677
aa(lp5740
I2169
aI2174
ag1679
ag1680
ag1682
ag1684
ag1686
aa(lp5741
I2189
aI2192
ag1688
ag1689
ag1691
ag1693
ag1695
aa(lp5742
I2199
aI2201
ag1697
ag1698
ag1700
ag1702
ag1704
aa(lp5743
I2211
aI2216
ag1706
ag1707
ag1709
ag1711
ag1713
aa(lp5744
I2218
aI2221
ag1715
ag1716
ag1718
ag1720
ag1722
aa(lp5745
I2227
aI2234
ag1724
ag1725
ag1727
ag1729
ag1731
aa(lp5746
I2239
aI2242
ag1733
ag1734
ag1736
ag1738
ag1740
aa(lp5747
I2255
aI2262
ag1742
ag1743
ag1745
ag1747
ag1749
aa(lp5748
I2271
aI2274
ag1751
ag1752
ag1754
ag1756
ag1758
aa(lp5749
I2299
aI2302
ag1760
ag1761
ag1763
ag1765
ag1767
aa(lp5750
I2316
aI2320
ag1769
ag1770
ag1772
ag1774
ag1776
aa(lp5751
I2326
aI2329
ag1778
ag1779
ag1781
ag1783
ag1785
aa(lp5752
I2331
aI2342
ag1787
ag1788
ag1790
ag1792
ag1794
aa(lp5753
I2352
aI2355
ag1796
ag1797
ag1799
ag1801
ag1803
aa(lp5754
I2361
aI2364
ag1805
ag1806
ag1808
ag1810
ag1812
aa(lp5755
I2369
aI2373
ag1814
ag1815
ag1817
ag1819
ag1821
aa(lp5756
I2389
aI2392
ag1823
ag1824
ag1826
ag1828
ag1830
aa(lp5757
I2397
aI2398
ag1832
ag1833
ag1835
ag1837
ag1839
aa(lp5758
I2404
aI2407
ag1841
ag1842
ag1844
ag1846
ag1848
aa(lp5759
I2426
aI2432
ag1850
ag1851
ag1853
ag1855
ag1857
aa(lp5760
I2435
aI2439
ag1859
ag1860
ag1862
ag1864
ag1866
aa(lp5761
I2435
aI2439
ag1868
ag1869
ag1871
ag1873
ag1875
aasS'characterMap'
p5762
(lp5763
g1880
ag1882
ag1884
ag1886
ag1887
ag1889
ag1890
ag1891
ag1893
ag5052
ag1897
ag1899
ag5054
ag1903
ag1905
ag1906
ag1908
ag5055
ag1912
ag1914
ag1915
ag5056
ag1920
ag1922
ag1924
ag1925
ag5057
ag1929
ag5058
ag1932
ag1934
ag1935
ag1936
ag1937
ag1938
ag1939
ag1940
ag5059
ag1943
ag1945
ag1947
ag1948
ag1950
ag1951
a(lp5764
I44
aS','
p5765
aag5060
ag1954
ag1955
ag1956
ag1957
ag1959
ag1960
ag1961
ag1962
ag1963
ag5061
ag1967
ag1969
ag1970
ag5062
ag1973
ag1974
ag1975
ag1976
ag1978
ag1979
ag1980
ag1981
a(lp5766
I68
aS'\xc2'
p5767
aag1983
ag1985
ag1986
ag1987
ag1988
ag1989
ag1990
ag1991
a(lp5768
I77
ag5767
aag1992
ag5063
ag1996
ag1997
ag5064
ag2000
ag2001
ag2002
ag2003
ag2004
ag2005
ag2006
ag5065
ag2010
ag2011
ag2012
ag5066
ag2015
ag5067
ag2019
ag2020
ag2021
ag2022
ag5068
ag2026
ag2027
ag2028
ag2029
ag5069
ag2033
ag2034
ag2035
ag2036
ag2037
ag5070
ag2040
ag5071
ag2043
ag2044
ag2045
ag2046
ag2047
ag5072
ag2051
ag2052
ag5073
ag2056
ag2057
ag2058
ag5074
ag2061
ag2062
ag2063
ag2064
ag5075
ag2067
ag2068
ag2069
ag2070
a(lp5769
I137
aS'.'
p5770
aag5076
ag2074
ag2075
ag2076
ag2077
ag5077
ag2080
ag2081
ag2082
ag2083
ag5078
ag2087
ag2088
ag5079
ag2092
ag2093
ag2094
ag2095
ag5080
ag2099
ag2100
ag2101
ag2102
ag5081
ag2106
ag2107
ag2108
ag2109
ag2110
ag5082
ag2114
ag2115
ag5083
ag2119
ag2120
ag2121
ag5084
ag2125
ag2126
ag2127
ag2128
ag5085
ag2131
ag2132
ag2133
ag2134
ag2135
ag2136
ag2137
ag2138
ag2139
a(lp5771
I189
ag5770
aag5086
ag2143
ag2144
ag2145
ag5087
ag2148
ag2149
ag2150
ag2151
ag2152
ag2153
ag2154
ag5088
ag2158
ag2159
ag2160
ag5089
ag2164
ag2165
ag2166
ag2167
ag5090
ag2170
ag2171
ag2172
ag2173
ag2174
a(lp5772
I217
ag5770
aag5091
ag2177
ag2178
ag2179
ag2180
ag2181
ag5092
ag2185
ag2186
ag5093
ag2190
ag2191
ag2192
ag2193
ag2194
ag2195
ag2196
ag5094
ag2200
ag2201
ag5095
ag2204
ag2205
ag5096
ag2209
ag2210
ag2211
ag2212
ag2213
ag2214
ag5097
ag2218
ag2219
ag2220
ag5098
ag2223
ag2224
ag2225
ag2226
ag5099
ag2231
ag2232
ag2233
ag2234
ag5100
ag2238
ag2239
ag2240
ag2241
ag5101
ag2245
ag2246
ag2247
ag5102
ag2250
ag2251
ag2252
ag2253
ag5103
ag2256
ag2257
ag2258
ag2259
a(lp5773
I281
ag5770
aag5104
ag2263
ag2264
ag2265
ag5105
ag2268
ag2269
ag2270
ag2271
ag2272
ag5106
ag2276
ag2277
ag2278
ag2279
ag5107
ag2282
ag2283
ag2284
ag2285
ag2286
ag2287
ag5108
ag2291
ag2292
ag2293
ag2294
ag5109
ag2297
ag2298
ag2299
ag2300
ag2301
ag5110
ag2305
ag2306
ag5111
ag2309
ag2310
ag2311
ag2312
a(lp5774
I323
ag5770
aag5112
ag2316
ag2317
ag5113
ag2321
ag2322
ag2323
ag5114
ag2326
ag2327
ag2328
ag2329
ag2330
a(lp5775
I337
ag5770
aag5115
ag2334
ag2335
ag2336
ag2337
ag5116
ag2341
ag2342
ag2343
ag2344
ag5117
ag2347
ag2348
ag2349
ag2350
ag2351
ag2352
ag5118
ag2355
ag2356
ag2358
ag2359
ag2360
ag2361
ag2362
ag2363
ag5119
ag2366
ag2367
ag5120
ag2371
ag2372
ag5121
ag2375
ag5122
ag2378
ag2379
ag2380
ag2381
ag2382
ag5123
ag2386
ag2387
ag2388
ag5124
ag2392
ag2393
ag2394
ag2395
ag5125
ag2399
ag2400
ag2401
ag5126
ag2404
ag2405
ag2406
ag2407
ag2408
ag2409
ag2410
ag2411
ag2412
ag5127
ag2415
ag2416
ag2417
ag2418
a(lp5776
I406
ag5770
aag5128
ag2422
ag2423
ag5129
ag2427
ag2428
ag2429
ag2430
ag5130
ag2433
ag2434
ag2435
ag2436
ag2437
ag5131
ag2440
ag2441
ag2442
ag2443
ag2444
ag5132
ag2447
ag2448
ag2449
ag2450
ag2451
ag2452
ag5133
ag2456
ag2457
ag5134
ag2461
ag2462
ag2463
ag5135
ag2466
ag2467
ag2468
ag2469
ag2470
ag2471
a(lp5777
I448
ag5770
aag5136
ag2475
ag2476
ag2477
ag5137
ag2481
ag2482
ag2483
ag5138
ag2486
ag2487
ag2488
ag2489
ag2490
ag2491
ag2492
ag2493
ag2494
ag5139
ag2498
ag2499
ag2500
ag5140
ag2504
ag2505
ag2506
ag2507
ag5141
ag2510
ag2511
ag2512
ag2513
a(lp5778
I481
ag5770
aag5142
ag2517
ag2518
ag2519
ag5143
ag2522
ag2523
ag2524
ag2526
ag5144
ag2530
ag2531
ag2532
ag2533
ag2534
ag2535
ag2536
ag2537
ag2538
ag2539
a(lp5779
I502
ag5765
aag5145
ag2543
ag2544
ag5146
ag2547
ag2548
ag2549
ag2550
ag5147
a(lp5780
I512
aS'('
p5781
aag2553
ag2554
ag2555
ag2556
ag2557
ag2558
ag5148
ag2561
ag2562
ag2563
ag2564
ag2565
ag2566
a(lp5782
I526
aS')'
p5783
aag5149
ag2570
ag2571
ag2572
ag5150
ag2575
ag2576
ag2577
ag2578
ag2579
a(lp5784
I537
aS"'"
p5785
aag2580
ag5151
ag2584
ag2585
ag5152
ag2588
ag2589
ag2590
ag2591
ag5153
ag2594
ag2595
ag2596
ag2597
a(lp5786
I552
ag5770
aag5154
ag2601
ag2602
ag2603
ag5155
ag2606
ag2607
ag2608
ag2610
ag2611
ag5156
ag2615
ag2616
ag5157
ag2619
ag2620
ag2621
ag2622
ag2623
a(lp5787
I572
ag5785
aag2624
ag5158
ag2628
ag2629
ag5159
ag2632
ag2633
ag2634
ag2635
ag2636
ag2637
ag2638
ag2639
ag2640
ag2641
ag2642
a(lp5788
I589
ag5770
aag5160
ag2646
ag2647
ag2648
ag2649
ag5161
ag2652
ag2653
ag2654
ag2655
ag5162
ag2659
ag2660
ag5163
ag2664
ag2665
ag2666
ag2667
ag5164
ag2671
ag2672
ag2673
ag2674
ag5165
ag2678
ag2679
ag2680
ag2681
ag2682
ag5166
ag2686
ag2687
ag5167
ag2691
ag2692
ag2693
ag5168
ag2697
ag2698
ag2699
ag2700
ag5169
ag2704
ag2705
ag2706
ag2707
ag2708
ag2709
ag5170
ag2712
ag5171
ag2715
ag2716
ag2717
ag2718
ag2719
ag2720
ag2721
ag2722
ag2723
ag5172
ag2726
ag2727
ag2728
ag2729
ag2730
ag2731
a(lp5789
I657
ag5770
aag5173
ag2735
ag2736
ag5174
ag2740
ag2741
ag2742
ag5175
ag2746
ag2747
ag2748
ag2749
ag5176
ag2753
ag2754
ag2755
ag5177
ag2758
ag2759
ag2760
ag2761
ag2762
ag2763
ag5178
ag2767
ag2768
ag5179
ag2771
ag2772
ag5180
ag2776
ag2777
ag5181
ag2780
ag2781
ag2782
ag2783
ag2784
ag2785
ag2786
ag2787
ag2788
ag5182
ag2792
ag2793
ag2794
ag5183
ag2797
ag2798
ag2799
ag2800
ag2801
ag2802
ag2803
ag2804
ag2805
ag2806
ag2807
ag5184
ag2811
ag2812
ag2813
ag5185
ag2816
ag2817
ag2818
ag2819
ag2820
ag2821
ag2822
ag2823
ag2824
a(lp5790
I730
ag5770
aag5186
ag2828
ag2829
ag2830
ag2831
ag5187
ag2834
ag2835
ag2836
ag2837
ag5188
ag2841
ag2842
ag2843
ag2844
ag5189
ag2848
ag2849
ag5190
ag2853
ag2854
ag2855
ag5191
ag2858
ag2859
ag2860
ag2861
ag2862
ag2863
ag5192
ag2866
ag2867
ag2868
ag2869
ag5193
ag2873
ag2874
ag2875
ag2876
ag5194
ag2879
ag2880
ag2881
ag2882
ag5195
ag2886
ag2887
ag2888
ag5196
ag2892
ag2893
ag2894
ag5197
ag2897
ag2898
ag2899
ag2900
ag5198
ag2904
ag2905
ag5199
ag2909
ag2910
ag2911
ag5200
ag2914
ag2915
ag2916
ag2917
ag2918
ag2919
ag2920
ag5201
ag2924
ag2925
ag2926
ag5202
ag2929
ag2930
a(lp5791
I810
ag5770
aag5203
ag2934
ag2935
ag5204
ag2939
ag2940
ag2941
ag2942
ag5205
ag2946
ag2947
ag2948
ag2949
ag5206
ag2952
ag2953
ag2954
ag2955
ag5207
ag2959
ag2960
ag5208
ag2964
ag2965
ag5209
ag2968
ag2969
ag2970
ag2971
ag2972
ag5210
ag2975
ag2976
ag2977
ag2978
ag5211
ag2982
ag2983
ag5212
ag2987
ag2988
ag2989
ag5213
ag2992
ag2993
ag2994
ag2995
a(lp5792
I858
ag5770
aag5214
ag2999
ag3000
ag5215
ag3004
ag3005
ag3006
ag5216
ag3010
ag3011
ag3012
ag5217
ag3015
ag3016
ag3017
ag3018
ag3019
ag5218
ag3023
ag3024
ag5219
ag3027
ag3028
ag3029
ag3030
ag3031
ag3032
ag5220
ag3035
ag3036
ag3037
ag3039
ag3040
ag3041
ag3042
ag5221
ag3046
ag3047
ag3048
ag5222
ag3051
ag3052
ag3053
ag3054
ag3055
ag3056
ag5223
ag3059
ag3060
ag3061
ag3062
a(lp5793
I910
ag5770
aag5224
ag3066
ag3067
ag5225
ag3071
ag3072
ag5226
ag3076
ag3077
ag3078
ag5227
ag3081
ag3082
ag3083
ag3084
ag3085
ag3086
ag3087
ag5228
ag3091
ag3092
ag5229
ag3096
ag3097
ag3098
ag5230
ag3101
ag3102
ag3103
ag3104
ag3105
ag3106
ag5231
ag3110
ag3111
ag3112
ag5232
ag3116
ag3117
ag3118
ag3119
ag5233
ag3123
ag3124
ag3125
ag5234
ag3128
ag3129
ag3130
ag3131
ag3132
ag3133
ag3134
ag5235
ag3137
ag3138
ag3139
ag3140
ag3141
ag3142
ag3143
ag3144
ag3145
ag5236
a(lp5794
I975
ag5781
aag3148
ag3149
ag3150
ag5237
ag3154
ag3155
ag3156
ag3157
ag3158
ag5238
ag3162
ag3163
ag3164
ag3165
ag5239
ag3169
ag3170
ag3171
a(lp5795
I994
ag5783
aag5240
ag3175
ag3176
ag5241
ag3180
ag3181
ag5242
ag3185
ag3186
ag3187
ag5243
ag3190
ag5244
ag3194
ag3195
ag3196
ag3197
ag5245
ag3200
ag3201
ag3202
ag5246
ag3205
ag3206
ag3207
ag3208
ag5247
ag3212
ag3213
ag5248
ag3217
ag3218
ag3219
a(lp5796
I1028
ag5770
aag5249
ag3223
ag3224
ag5250
ag3228
ag3229
ag3230
ag3231
ag5251
ag3234
ag3235
ag3236
ag3237
ag3238
ag5252
ag3242
ag3243
ag3244
ag5253
ag3247
ag3248
ag3249
ag3250
ag3251
ag5254
ag3255
ag3256
ag3257
ag3258
ag5255
ag3261
ag3262
ag3263
ag3264
ag3265
ag3266
ag3267
ag3268
ag5256
ag3272
ag3273
ag3274
ag5257
ag3278
ag3279
ag3280
ag3281
ag5258
ag3285
ag3286
ag3287
ag3288
ag5259
ag3291
ag3292
ag3293
ag3294
ag3295
ag3296
ag3297
ag5260
ag3301
ag3302
ag5261
ag3305
ag3306
ag3307
ag3308
ag3309
ag3310
ag5262
ag3313
ag3314
ag3315
ag3316
ag3317
ag3318
ag3319
ag3320
ag3321
ag5263
ag3325
ag3326
ag3327
ag5264
ag3330
ag3331
ag3332
ag3333
ag5265
ag3337
ag3338
ag3339
ag3340
ag5266
ag3343
ag3344
ag5267
ag3348
ag3349
ag3350
ag3351
ag3352
ag5268
ag3356
ag3357
ag3358
ag5269
ag3361
ag3362
ag3363
ag3364
ag3365
ag3366
ag3367
ag5270
ag3371
ag3372
ag5271
ag3376
ag3377
ag3378
ag5272
ag3381
ag3382
ag3383
ag3384
ag3385
ag3386
a(lp5797
I1158
ag5770
aag5273
ag3389
ag3390
ag3391
ag3392
ag3393
ag5274
ag3397
ag3398
ag5275
ag3401
ag3402
ag3403
ag3404
ag5276
ag3408
ag3409
ag5277
ag3412
ag3413
ag3414
ag3415
ag3416
ag5278
ag3420
ag3421
ag5279
ag3425
ag3426
ag3427
ag3428
ag3429
ag5280
ag3433
ag3434
ag5281
ag3438
ag3439
ag3440
ag5282
ag3443
ag3444
ag3445
ag3446
ag5283
ag3450
ag3451
ag5284
ag3454
ag3455
ag3456
ag3457
ag3458
ag3459
ag3460
ag5285
ag3464
ag3465
ag5286
ag3469
ag3470
ag3471
ag5287
ag3475
ag3476
ag3477
ag3478
ag5288
ag3482
ag3483
ag3484
ag5289
ag3487
ag3488
ag3489
ag3490
ag5290
ag3493
ag3494
ag3495
ag3496
ag3497
ag3498
ag3499
ag5291
ag3502
ag3503
ag3504
ag3505
ag3506
ag5292
ag3509
ag3510
ag3511
a(lp5798
I1253
ag5770
aag5293
ag3515
ag3516
ag3517
ag3518
ag5294
ag3522
ag3523
ag3524
ag3525
ag3526
ag5295
ag3530
ag3531
ag5296
ag3535
ag3536
ag3537
ag5297
ag3541
ag3542
ag3543
ag3544
ag3545
ag5298
ag3549
ag3550
ag5299
ag3553
ag3554
ag3555
ag3556
ag3557
ag3558
a(lp5799
I1288
ag5770
aag5300
ag3561
ag5301
ag3565
ag3567
ag3568
ag3569
ag5302
ag3572
ag3573
ag3574
ag5303
ag3578
ag3579
ag3580
ag5304
ag3583
ag3584
ag3585
ag3586
ag3587
ag5305
ag3590
ag3591
ag3592
ag3593
ag3594
ag3595
ag5306
ag3599
ag3600
ag3601
ag5307
ag3604
ag3605
ag3606
ag3607
ag3608
ag3609
a(lp5800
I1328
ag5770
aag5308
ag3613
ag3614
ag3615
ag5309
ag3618
ag3619
ag3620
ag3621
ag3622
ag5310
ag3625
ag3626
ag3627
ag3628
ag5311
ag3632
ag3633
ag5312
ag3636
ag3637
ag3638
ag3639
ag3640
ag3641
ag3642
ag5313
ag3645
ag3646
ag3647
ag3648
ag3649
ag3650
ag3651
ag5314
ag3655
ag3656
ag5315
ag3660
ag3661
ag3662
ag5316
ag3665
ag3666
ag3667
ag3668
ag5317
ag3672
ag3673
ag5318
ag3677
ag3678
ag5319
ag3681
ag3682
ag3683
ag3684
ag3685
ag5320
ag3689
ag3690
ag5321
ag3694
ag3695
ag3696
ag3697
ag5322
ag3701
ag3702
ag5323
ag3705
ag3706
ag3707
ag3708
ag3709
ag5324
ag3713
ag3714
ag3715
ag5325
ag3718
ag3719
ag3720
ag3721
ag5326
ag3725
ag3726
ag3727
ag3728
ag3729
ag5327
ag3732
ag3733
ag3734
ag3735
ag3736
ag5328
ag3740
ag3741
ag3742
ag5329
ag3745
ag3746
ag3747
ag3748
ag3749
ag3750
ag5330
ag3753
ag3754
ag3755
ag3756
ag5331
ag3760
ag3761
ag5332
ag3765
ag3766
ag5333
ag3769
ag3770
ag3771
ag3772
ag5334
ag3775
ag3776
ag3777
ag3778
ag3779
ag3780
ag3781
ag3782
a(lp5801
I1461
ag5770
aag5335
ag3786
ag3787
ag3788
ag3789
ag5336
ag3793
ag3794
ag5337
ag3797
ag5338
ag3800
ag3801
ag3802
ag3803
ag3804
ag3805
ag3806
ag3807
ag3808
ag3809
ag3810
ag5339
ag3813
ag3814
ag3815
ag3816
ag3817
ag5340
ag3821
ag3822
ag3823
ag5341
ag3827
ag3828
ag3829
ag5342
ag3832
ag3833
ag3834
ag3835
ag5343
ag3839
ag3840
ag5344
ag3843
ag3844
ag3845
ag3846
ag5345
ag3849
ag3850
ag3851
ag3852
ag5346
ag3856
ag3857
ag3858
ag5347
ag3861
ag3862
ag3863
ag3864
ag3865
ag3866
ag3867
ag5348
ag3871
ag3872
ag3873
ag5349
ag3876
ag3877
ag3878
ag3879
ag3880
a(lp5802
I1538
ag5765
aag5350
ag3883
ag3884
ag3885
ag3886
ag3887
ag3888
ag3889
a(lp5803
I1547
ag5765
aag5351
ag3893
ag3894
ag3895
ag5352
ag3898
ag3899
ag3900
ag3901
a(lp5804
I1557
ag5770
aag5353
ag3905
ag3906
ag5354
ag3909
ag3910
ag3911
ag3912
ag3913
ag5355
ag3916
ag3917
ag3918
ag3919
ag5356
ag3922
ag3923
ag3924
ag3925
ag5357
ag3929
ag3930
ag3931
ag3932
ag5358
ag3935
ag5359
ag3938
ag3939
ag3940
ag3941
a(lp5805
I1589
ag5770
aag5360
ag3945
ag3946
ag5361
ag3950
ag3951
ag3952
ag3953
ag5362
ag3956
ag3957
ag3958
ag5363
ag3962
ag3963
ag3964
ag5364
ag3967
ag3968
ag3969
ag5365
ag3972
ag3973
ag3974
ag3975
ag3976
ag3977
ag5366
ag3980
ag3981
ag3982
a(lp5806
I1621
ag5785
aag3983
ag5367
ag3986
ag3987
ag3988
ag3989
ag5368
ag3993
ag3994
ag3995
ag5369
ag3999
ag4000
ag5370
ag4003
ag4004
ag4005
ag4006
ag5371
ag4010
ag4011
ag4012
ag4013
ag5372
ag4017
ag4018
ag4019
ag5373
ag4022
ag4023
ag4024
ag4025
ag5374
ag4029
ag4030
ag5375
ag4034
ag4035
ag4036
ag5376
ag4039
ag4040
ag4041
ag4042
ag4043
ag4044
ag4045
ag4046
ag4047
ag4048
ag5377
ag4052
ag4053
ag4054
ag5378
ag4057
ag4058
ag4059
ag4060
ag4061
ag4062
ag4063
ag5379
ag4067
ag4068
ag5380
ag4071
ag5381
ag4074
ag4075
ag4076
ag4077
ag4078
ag5382
ag4081
ag4082
ag4083
ag4084
ag4085
ag5383
ag4089
ag4090
ag4091
ag4092
ag5384
ag4096
ag4097
ag4098
ag5385
ag4101
ag4102
ag4103
ag4104
a(lp5807
I1715
ag5770
aag5386
ag4108
ag4109
ag5387
ag4112
ag4113
ag4114
ag4115
ag4116
ag4117
ag4118
ag5388
ag4122
ag4123
ag4124
ag5389
ag4127
ag5390
ag4131
ag4132
ag4133
ag5391
ag4137
ag4138
ag5392
ag4142
ag4143
ag4144
ag5393
ag4147
ag4148
a(lp5808
I1747
ag5785
aag4150
ag5394
ag4154
ag4155
ag4156
ag5395
ag4160
ag4161
ag4162
ag4163
ag5396
ag4166
ag4167
ag4168
ag4169
a(lp5809
I1763
ag5770
aag5397
ag4173
ag4174
ag5398
ag4177
ag4178
ag4179
ag4180
ag5399
ag4184
ag4185
ag5400
ag4188
ag4189
ag4190
ag4191
ag4192
ag5401
ag4196
ag4197
ag4198
ag4199
ag5402
ag4203
ag4204
ag5403
ag4207
ag4208
ag5404
ag4211
ag4212
ag4213
ag4214
a(lp5810
I1797
ag5770
aag5405
ag4217
ag4218
ag4219
ag4220
ag5406
ag4223
ag4224
ag4225
ag4226
ag5407
ag4230
ag4231
ag5408
ag4234
ag4235
ag4236
ag5409
ag4240
ag4241
ag5410
ag4245
ag4246
ag4247
ag5411
ag4250
ag4251
ag4252
ag4253
ag4254
ag4255
ag4256
ag5412
ag4260
ag4261
ag5413
ag4264
ag4265
ag4266
ag5414
ag4270
ag4271
ag5415
ag4275
ag4276
ag4277
ag5416
ag4280
ag4281
ag4282
ag4283
ag5417
ag4286
ag4287
ag4288
ag4289
ag4290
ag4291
ag4292
ag5418
ag4295
ag4296
ag4297
ag4298
ag4299
ag4300
a(lp5811
I1864
ag5765
aag5419
ag4303
ag4304
ag4305
ag4306
ag5420
ag4310
ag4311
ag4312
ag4313
ag5421
ag4317
ag4318
ag4319
ag5422
ag4322
ag4323
ag4324
ag4325
ag4326
ag4327
ag4328
ag4329
ag4330
ag5423
ag4334
ag4335
ag4336
ag5424
ag4339
ag4340
ag4341
ag4342
ag4343
ag4344
ag4345
ag5425
ag4349
ag4350
ag4351
ag5426
ag4354
ag4355
ag4356
ag4357
ag4358
a(lp5812
I1911
ag5765
aag5427
ag4361
ag4362
ag5428
ag4366
ag4367
ag5429
ag4371
ag4372
ag4373
ag5430
ag4376
ag4377
ag4378
ag4379
ag4380
ag5431
ag4384
ag4385
ag4386
ag5432
ag4389
ag4390
ag4391
ag4392
ag4393
ag4394
ag5433
ag4398
ag4399
ag5434
ag4403
ag4404
ag4405
ag5435
ag4408
ag4409
ag4410
ag4411
ag5436
ag4414
ag4415
ag4416
ag4417
ag4418
ag4419
ag4420
ag4421
ag4422
a(lp5813
I1961
ag5765
aag5437
ag4426
ag4427
ag4428
ag5438
ag4432
ag4433
ag5439
ag4437
ag4438
ag4439
ag5440
ag4442
ag4443
ag4444
ag4445
ag4446
a(lp5814
I1979
ag5770
aag5441
ag4449
ag4450
ag4451
ag5442
ag4454
ag4455
ag4456
ag4457
ag4458
ag4459
ag4460
ag4461
ag4462
a(lp5815
I1994
ag5770
aag5443
ag4466
ag4467
ag4468
ag5444
ag4471
ag4472
ag4473
ag4474
ag4475
ag5445
ag4479
ag4480
ag5446
ag4483
ag4484
ag4485
ag4486
ag4487
ag4488
ag4489
ag4490
ag5447
ag4494
ag4495
ag5448
ag4499
ag4500
ag4501
ag5449
ag4504
ag4505
ag4506
ag4507
ag4508
ag4509
ag4510
ag5450
ag4513
ag4514
ag4515
ag4516
ag4517
ag4518
ag5451
ag4522
ag4523
ag4524
ag5452
ag4527
ag4528
ag4529
a(lp5816
I2047
ag5770
aag5453
ag4532
ag4533
ag4534
ag4535
ag4536
ag4537
ag4538
ag5454
ag4541
ag4542
ag4543
ag4544
ag5455
ag4548
ag4549
ag5456
ag4552
ag4553
ag4554
ag4555
ag4556
ag5457
ag4560
ag4561
ag4562
ag4563
ag4564
ag5458
ag4568
ag4569
ag5459
ag4573
ag4574
ag4575
ag5460
ag4578
ag4579
ag4580
ag4581
ag4582
ag4583
ag4584
ag4585
ag5461
ag4589
ag4590
ag4591
ag4592
ag5462
ag4596
ag4597
ag4598
ag4599
ag5463
ag4603
ag4604
ag4605
ag4606
ag5464
ag4609
ag4610
ag4611
ag5465
ag4615
ag4616
ag4617
ag4618
ag5466
ag4622
ag4623
ag4624
ag5467
ag4627
ag4628
ag4629
ag4630
ag4631
ag4632
ag5468
ag4636
ag4637
ag4638
ag4639
ag5469
ag4643
ag4644
ag5470
ag4648
ag4649
ag4650
ag5471
ag4653
ag4654
ag4655
ag4656
ag5472
ag4659
ag4660
ag4661
ag4662
ag4663
a(lp5817
I2150
ag5765
aag5473
ag4666
ag4667
ag4668
ag4669
ag5474
ag4672
ag4673
ag4674
ag4675
ag4676
ag4677
a(lp5818
I2163
ag5765
aag5475
ag4681
ag4682
ag4683
ag5476
ag4686
ag4687
ag4688
ag4689
ag4690
ag4691
a(lp5819
I2175
ag5770
aag5477
ag4695
ag4696
ag5478
ag4700
ag4701
ag4702
ag4703
ag5479
ag4707
ag4708
ag4709
ag5480
ag4712
ag4713
ag4714
ag4715
ag5481
ag4719
ag4720
ag4721
ag4722
ag5482
ag4725
ag4726
ag4727
ag5483
ag4731
ag4732
ag4733
ag5484
ag4737
ag4738
ag4739
ag5485
ag4742
ag4743
ag4744
ag4745
ag4746
ag4747
ag5486
ag4750
ag4751
ag4752
ag4753
ag5487
ag4757
ag4758
ag4759
ag5488
ag4762
ag4763
ag4764
ag4765
ag4766
ag4767
ag4768
ag4769
ag5489
ag4773
ag4774
ag5490
ag4777
ag4778
ag4779
ag4780
ag5491
ag4784
ag4785
ag4786
ag4787
ag5492
ag4791
ag4792
ag4793
ag4794
ag4795
ag5493
ag4798
ag4799
ag4800
ag4801
ag4802
ag4803
ag4804
ag4805
ag5494
ag4809
ag4810
ag5495
ag4814
ag4815
ag4816
ag5496
ag4819
ag4820
ag4821
ag4822
a(lp5820
I2275
ag5770
aag5497
ag4826
ag4827
ag4828
ag5498
ag4832
ag4833
ag4834
ag5499
ag4838
ag4839
ag4840
ag4841
ag5500
ag4845
ag4846
ag5501
ag4850
ag4851
ag5502
ag4855
ag4856
ag5503
ag4859
ag4860
ag4861
ag4862
ag5504
ag4866
ag4867
ag4868
ag4869
ag5505
ag4873
ag4874
ag5506
ag4878
ag4879
ag4880
ag5507
ag4883
ag4884
ag4885
ag4886
ag4887
ag5508
ag4891
ag4892
ag4893
ag5509
ag4896
ag4897
ag4898
ag4899
ag5510
ag4902
ag4903
ag4904
ag4905
ag4906
ag4907
ag4908
ag4909
ag4910
ag4911
ag4912
ag4913
ag5511
ag4917
ag4918
ag4919
ag5512
ag4923
ag4924
ag4925
ag5513
ag4928
ag4929
ag4930
ag4931
ag5514
ag4935
ag4936
ag4937
ag5515
ag4940
ag4941
ag4942
ag4943
ag5516
ag4947
ag4948
ag5517
ag4951
ag4952
ag4953
ag4954
ag4955
ag5518
ag4959
ag4960
ag4961
ag5519
ag4965
ag4966
ag4967
ag4968
ag4969
ag5520
ag4973
ag4974
ag4975
ag5521
ag4978
ag4979
ag4980
ag4981
ag5522
ag4985
ag4986
ag5523
ag4989
ag4990
ag5524
ag4994
ag4995
ag4996
ag5525
ag4999
ag5000
ag5001
ag5002
ag5526
ag5006
ag5007
a(lp5821
I2411
ag5770
aag5527
ag5011
ag5012
ag5013
ag5014
ag5528
ag5018
ag5019
ag5020
ag5021
ag5529
ag5025
ag5026
ag5530
ag5029
ag5030
ag5031
ag5032
ag5033
ag5034
ag5035
a(lp5822
I2433
ag5770
aag5531
ag5038
ag5039
ag5040
ag5041
ag5042
ag5532
ag5045
ag5046
ag5047
ag5048
ag5049
asS'docName'
p5823
S'source-document02507.txt'
p5824
sb.