(iModel.Document
Document
p0
(dp1
S'fmap'
p2
(lp3
(lp4
I9
aI15
aS'reasons'
p5
a(lp6
S'*'
p7
ag5
aaa(lp8
I9
aI15
ag5
a(lp9
g7
ag5
aaa(lp10
I9
aI15
ag5
a(lp11
g7
ag5
aaa(lp12
I9
aI15
ag5
a(lp13
g7
ag5
aaa(lp14
I17
aI22
aS'behind'
p15
a(lp16
g5
ag15
aaa(lp17
I17
aI22
ag15
a(lp18
g7
ag15
aaa(lp19
I17
aI22
ag15
a(lp20
g7
ag15
aaa(lp21
I17
aI22
ag15
a(lp22
g7
ag15
aaa(lp23
I24
aI26
aS'tsa'
p24
a(lp25
g15
ag24
aaa(lp26
I24
aI26
ag24
a(lp27
g5
ag24
aaa(lp28
I24
aI26
ag24
a(lp29
g7
ag24
aaa(lp30
I24
aI26
ag24
a(lp31
g7
ag24
aaa(lp32
I28
aI35
aS'security'
p33
a(lp34
g24
ag33
aaa(lp35
I28
aI35
ag33
a(lp36
g15
ag33
aaa(lp37
I28
aI35
ag33
a(lp38
g5
ag33
aaa(lp39
I28
aI35
ag33
a(lp40
g7
ag33
aaa(lp41
I41
aI49
aS'travelers'
p42
a(lp43
g33
ag42
aaa(lp44
I41
aI49
ag42
a(lp45
g24
ag42
aaa(lp46
I41
aI49
ag42
a(lp47
g15
ag42
aaa(lp48
I41
aI49
ag42
a(lp49
g5
ag42
aaa(lp50
I60
aI66
aS'reasons'
p51
a(lp52
g42
ag51
aaa(lp53
I60
aI66
ag51
a(lp54
g33
ag51
aaa(lp55
I60
aI66
ag51
a(lp56
g24
ag51
aaa(lp57
I60
aI66
ag51
a(lp58
g15
ag51
aaa(lp59
I68
aI73
aS'behind'
p60
a(lp61
g51
ag60
aaa(lp62
I68
aI73
ag60
a(lp63
g42
ag60
aaa(lp64
I68
aI73
ag60
a(lp65
g33
ag60
aaa(lp66
I68
aI73
ag60
a(lp67
g24
ag60
aaa(lp68
I75
aI77
aS'tsa'
p69
a(lp70
g60
ag69
aaa(lp71
I75
aI77
ag69
a(lp72
g51
ag69
aaa(lp73
I75
aI77
ag69
a(lp74
g42
ag69
aaa(lp75
I75
aI77
ag69
a(lp76
g33
ag69
aaa(lp77
I79
aI86
aS'security'
p78
a(lp79
g69
ag78
aaa(lp80
I79
aI86
ag78
a(lp81
g60
ag78
aaa(lp82
I79
aI86
ag78
a(lp83
g51
ag78
aaa(lp84
I79
aI86
ag78
a(lp85
g42
ag78
aaa(lp86
I88
aI92
aS'three'
p87
a(lp88
g78
ag87
aaa(lp89
I88
aI92
ag87
a(lp90
g69
ag87
aaa(lp91
I88
aI92
ag87
a(lp92
g60
ag87
aaa(lp93
I88
aI92
ag87
a(lp94
g51
ag87
aaa(lp95
I94
aI101
aS'security'
p96
a(lp97
g87
ag96
aaa(lp98
I94
aI101
ag96
a(lp99
g78
ag96
aaa(lp100
I94
aI101
ag96
a(lp101
g69
ag96
aaa(lp102
I94
aI101
ag96
a(lp103
g60
ag96
aaa(lp104
I103
aI112
aS'procedures'
p105
a(lp106
g96
ag105
aaa(lp107
I103
aI112
ag105
a(lp108
g87
ag105
aaa(lp109
I103
aI112
ag105
a(lp110
g78
ag105
aaa(lp111
I103
aI112
ag105
a(lp112
g69
ag105
aaa(lp113
I119
aI123
aS'raise'
p114
a(lp115
g105
ag114
aaa(lp116
I119
aI123
ag114
a(lp117
g96
ag114
aaa(lp118
I119
aI123
ag114
a(lp119
g87
ag114
aaa(lp120
I119
aI123
ag114
a(lp121
g78
ag114
aaa(lp122
I125
aI133
aS'questions'
p123
a(lp124
g114
ag123
aaa(lp125
I125
aI133
ag123
a(lp126
g105
ag123
aaa(lp127
I125
aI133
ag123
a(lp128
g96
ag123
aaa(lp129
I125
aI133
ag123
a(lp130
g87
ag123
aaa(lp131
I139
aI142
aS'many'
p132
a(lp133
g123
ag132
aaa(lp134
I139
aI142
ag132
a(lp135
g114
ag132
aaa(lp136
I139
aI142
ag132
a(lp137
g105
ag132
aaa(lp138
I139
aI142
ag132
a(lp139
g96
ag132
aaa(lp140
I144
aI153
aS'passengers'
p141
a(lp142
g132
ag141
aaa(lp143
I144
aI153
ag141
a(lp144
g123
ag141
aaa(lp145
I144
aI153
ag141
a(lp146
g114
ag141
aaa(lp147
I144
aI153
ag141
a(lp148
g105
ag141
aaa(lp149
I177
aI180
aS'take'
p150
a(lp151
g141
ag150
aaa(lp152
I177
aI180
ag150
a(lp153
g132
ag150
aaa(lp154
I177
aI180
ag150
a(lp155
g123
ag150
aaa(lp156
I177
aI180
ag150
a(lp157
g114
ag150
aaa(lp158
I189
aI193
aS'shoes'
p159
a(lp160
g150
ag159
aaa(lp161
I189
aI193
ag159
a(lp162
g141
ag159
aaa(lp163
I189
aI193
ag159
a(lp164
g132
ag159
aaa(lp165
I189
aI193
ag159
a(lp166
g123
ag159
aaa(lp167
I213
aI215
aS'put'
p168
a(lp169
g159
ag168
aaa(lp170
I213
aI215
ag168
a(lp171
g150
ag168
aaa(lp172
I213
aI215
ag168
a(lp173
g141
ag168
aaa(lp174
I213
aI215
ag168
a(lp175
g132
ag168
aaa(lp176
I220
aI224
aS'three'
p177
a(lp178
g168
ag177
aaa(lp179
I220
aI224
ag177
a(lp180
g159
ag177
aaa(lp181
I220
aI224
ag177
a(lp182
g150
ag177
aaa(lp183
I220
aI224
ag177
a(lp184
g141
ag177
aaa(lp185
I226
aI230
aS'ounce'
p186
a(lp187
g177
ag186
aaa(lp188
I226
aI230
ag186
a(lp189
g168
ag186
aaa(lp190
I226
aI230
ag186
a(lp191
g159
ag186
aaa(lp192
I226
aI230
ag186
a(lp193
g150
ag186
aaa(lp194
I232
aI238
aS'liquids'
p195
a(lp196
g186
ag195
aaa(lp197
I232
aI238
ag195
a(lp198
g177
ag195
aaa(lp199
I232
aI238
ag195
a(lp200
g168
ag195
aaa(lp201
I232
aI238
ag195
a(lp202
g159
ag195
aaa(lp203
I245
aI251
aS'ziptop'
p204
a(lp205
g195
ag204
aaa(lp206
I245
aI251
ag204
a(lp207
g186
ag204
aaa(lp208
I245
aI251
ag204
a(lp209
g177
ag204
aaa(lp210
I245
aI251
ag204
a(lp211
g168
ag204
aaa(lp212
I253
aI259
aS'plastic'
p213
a(lp214
g204
ag213
aaa(lp215
I253
aI259
ag213
a(lp216
g195
ag213
aaa(lp217
I253
aI259
ag213
a(lp218
g186
ag213
aaa(lp219
I253
aI259
ag213
a(lp220
g177
ag213
aaa(lp221
I261
aI263
aS'bag'
p222
a(lp223
g213
ag222
aaa(lp224
I261
aI263
ag222
a(lp225
g204
ag222
aaa(lp226
I261
aI263
ag222
a(lp227
g195
ag222
aaa(lp228
I261
aI263
ag222
a(lp229
g186
ag222
aaa(lp230
I283
aI286
aS'show'
p231
a(lp232
g222
ag231
aaa(lp233
I283
aI286
ag231
a(lp234
g213
ag231
aaa(lp235
I283
aI286
ag231
a(lp236
g204
ag231
aaa(lp237
I283
aI286
ag231
a(lp238
g195
ag231
aaa(lp239
I288
aI289
aS'id'
p240
a(lp241
g231
ag240
aaa(lp242
I288
aI289
ag240
a(lp243
g222
ag240
aaa(lp244
I288
aI289
ag240
a(lp245
g213
ag240
aaa(lp246
I288
aI289
ag240
a(lp247
g204
ag240
aaa(lp248
I292
aI296
aS'click'
p249
a(lp250
g240
ag249
aaa(lp251
I292
aI296
ag249
a(lp252
g231
ag249
aaa(lp253
I292
aI296
ag249
a(lp254
g222
ag249
aaa(lp255
I292
aI296
ag249
a(lp256
g213
ag249
aaa(lp257
I305
aI310
aS'videos'
p258
a(lp259
g249
ag258
aaa(lp260
I305
aI310
ag258
a(lp261
g240
ag258
aaa(lp262
I305
aI310
ag258
a(lp263
g231
ag258
aaa(lp264
I305
aI310
ag258
a(lp265
g222
ag258
aaa(lp266
I321
aI323
aS'get'
p267
a(lp268
g258
ag267
aaa(lp269
I321
aI323
ag267
a(lp270
g249
ag267
aaa(lp271
I321
aI323
ag267
a(lp272
g240
ag267
aaa(lp273
I321
aI323
ag267
a(lp274
g231
ag267
aaa(lp275
I325
aI331
aS'answers'
p276
a(lp277
g267
ag276
aaa(lp278
I325
aI331
ag276
a(lp279
g258
ag276
aaa(lp280
I325
aI331
ag276
a(lp281
g249
ag276
aaa(lp282
I325
aI331
ag276
a(lp283
g240
ag276
aaa(lp284
I342
aI350
aS'questions'
p285
a(lp286
g276
ag285
aaa(lp287
I342
aI350
ag285
a(lp288
g267
ag285
aaa(lp289
I342
aI350
ag285
a(lp290
g258
ag285
aaa(lp291
I342
aI350
ag285
a(lp292
g249
ag285
aaa(lp293
I362
aI371
aS'understand'
p294
a(lp295
g285
ag294
aaa(lp296
I362
aI371
ag294
a(lp297
g276
ag294
aaa(lp298
I362
aI371
ag294
a(lp299
g267
ag294
aaa(lp300
I362
aI371
ag294
a(lp301
g258
ag294
aaa(lp302
I386
aI393
aS'security'
p303
a(lp304
g294
ag303
aaa(lp305
I386
aI393
ag303
a(lp306
g285
ag303
aaa(lp307
I386
aI393
ag303
a(lp308
g276
ag303
aaa(lp309
I386
aI393
ag303
a(lp310
g267
ag303
aaa(lp311
I396
aI401
aS'youll'
p312
a(lp313
g303
ag312
aaa(lp314
I396
aI401
ag312
a(lp315
g294
ag312
aaa(lp316
I396
aI401
ag312
a(lp317
g285
ag312
aaa(lp318
I396
aI401
ag312
a(lp319
g276
ag312
aaa(lp320
I411
aI416
aS'easier'
p321
a(lp322
g312
ag321
aaa(lp323
I411
aI416
ag321
a(lp324
g303
ag321
aaa(lp325
I411
aI416
ag321
a(lp326
g294
ag321
aaa(lp327
I411
aI416
ag321
a(lp328
g285
ag321
aaa(lp329
I418
aI421
aS'time'
p330
a(lp331
g321
ag330
aaa(lp332
I418
aI421
ag330
a(lp333
g312
ag330
aaa(lp334
I418
aI421
ag330
a(lp335
g303
ag330
aaa(lp336
I418
aI421
ag330
a(lp337
g294
ag330
aaa(lp338
I423
aI429
aS'getting'
p339
a(lp340
g330
ag339
aaa(lp341
I423
aI429
ag339
a(lp342
g321
ag339
aaa(lp343
I423
aI429
ag339
a(lp344
g312
ag339
aaa(lp345
I423
aI429
ag339
a(lp346
g303
ag339
aaa(lp347
I443
aI452
aS'checkpoint'
p348
a(lp349
g339
ag348
aaa(lp350
I443
aI452
ag348
a(lp351
g330
ag348
aaa(lp352
I443
aI452
ag348
a(lp353
g321
ag348
aaa(lp354
I443
aI452
ag348
a(lp355
g312
ag348
aaa(lp356
I464
aI474
aS'information'
p357
a(lp358
g348
ag357
aaa(lp359
I464
aI474
ag357
a(lp360
g339
ag357
aaa(lp361
I464
aI474
ag357
a(lp362
g330
ag357
aaa(lp363
I464
aI474
ag357
a(lp364
g321
ag357
aaa(lp365
I479
aI486
aS'security'
p366
a(lp367
g357
ag366
aaa(lp368
I479
aI486
ag366
a(lp369
g348
ag366
aaa(lp370
I479
aI486
ag366
a(lp371
g339
ag366
aaa(lp372
I479
aI486
ag366
a(lp373
g330
ag366
aaa(lp374
I488
aI497
aS'procedures'
p375
a(lp376
g366
ag375
aaa(lp377
I488
aI497
ag375
a(lp378
g357
ag375
aaa(lp379
I488
aI497
ag375
a(lp380
g348
ag375
aaa(lp381
I488
aI497
ag375
a(lp382
g339
ag375
aaa(lp383
I500
aI505
aS'travel'
p384
a(lp385
g375
ag384
aaa(lp386
I500
aI505
ag384
a(lp387
g366
ag384
aaa(lp388
I500
aI505
ag384
a(lp389
g357
ag384
aaa(lp390
I500
aI505
ag384
a(lp391
g348
ag384
aaa(lp392
I507
aI510
aS'tips'
p393
a(lp394
g384
ag393
aaa(lp395
I507
aI510
ag393
a(lp396
g375
ag393
aaa(lp397
I507
aI510
ag393
a(lp398
g366
ag393
aaa(lp399
I507
aI510
ag393
a(lp400
g357
ag393
aaa(lp401
I517
aI523
aS'helpful'
p402
a(lp403
g393
ag402
aaa(lp404
I517
aI523
ag402
a(lp405
g384
ag402
aaa(lp406
I517
aI523
ag402
a(lp407
g375
ag402
aaa(lp408
I517
aI523
ag402
a(lp409
g366
ag402
aaa(lp410
I525
aI530
aS'videos'
p411
a(lp412
g402
ag411
aaa(lp413
I525
aI530
ag411
a(lp414
g393
ag411
aaa(lp415
I525
aI530
ag411
a(lp416
g384
ag411
aaa(lp417
I525
aI530
ag411
a(lp418
g375
ag411
aaa(lp419
I533
aI538
aS'please'
p420
a(lp421
g411
ag420
aaa(lp422
I533
aI538
ag420
a(lp423
g402
ag420
aaa(lp424
I533
aI538
ag420
a(lp425
g393
ag420
aaa(lp426
I533
aI538
ag420
a(lp427
g384
ag420
aaa(lp428
I540
aI541
aS'go'
p429
a(lp430
g420
ag429
aaa(lp431
I540
aI541
ag429
a(lp432
g411
ag429
aaa(lp433
I540
aI541
ag429
a(lp434
g402
ag429
aaa(lp435
I540
aI541
ag429
a(lp436
g393
ag429
aaa(lp437
I552
aI560
aS'travelers'
p438
a(lp439
g429
ag438
aaa(lp440
I552
aI560
ag438
a(lp441
g420
ag438
aaa(lp442
I552
aI560
ag438
a(lp443
g411
ag438
aaa(lp444
I552
aI560
ag438
a(lp445
g402
ag438
aaa(lp446
I562
aI565
aS'page'
p447
a(lp448
g438
ag447
aaa(lp449
I562
aI565
ag447
a(lp450
g429
ag447
aaa(lp451
I562
aI565
ag447
a(lp452
g420
ag447
aaa(lp453
I562
aI565
ag447
a(lp454
g411
ag447
aaa(lp455
I568
aI570
aS'wmv'
p456
a(lp457
g447
ag456
aaa(lp458
I568
aI570
ag456
a(lp459
g438
ag456
aaa(lp460
I568
aI570
ag456
a(lp461
g429
ag456
aaa(lp462
I568
aI570
ag456
a(lp463
g420
ag456
aaa(lp464
I573
aI577
aS'55mb'
p465
a(lp466
g456
ag465
aaa(lp467
I573
aI577
ag465
a(lp468
g447
ag465
aaa(lp469
I573
aI577
ag465
a(lp470
g438
ag465
aaa(lp471
I573
aI577
ag465
a(lp472
g429
ag465
aaa(lp473
I583
aI590
aS'download'
p474
a(lp475
g465
ag474
aaa(lp476
I583
aI590
ag474
a(lp477
g456
ag474
aaa(lp478
I583
aI590
ag474
a(lp479
g447
ag474
aaa(lp480
I583
aI590
ag474
a(lp481
g438
ag474
aaa(lp482
I600
aI604
aS'shoes'
p483
a(lp484
g474
ag483
aaa(lp485
I600
aI604
ag483
a(lp486
g465
ag483
aaa(lp487
I600
aI604
ag483
a(lp488
g456
ag483
aaa(lp489
I600
aI604
ag483
a(lp490
g447
ag483
aaa(lp491
I606
aI615
aS'transcript'
p492
a(lp493
g483
ag492
aaa(lp494
I606
aI615
ag492
a(lp495
g474
ag492
aaa(lp496
I606
aI615
ag492
a(lp497
g465
ag492
aaa(lp498
I606
aI615
ag492
a(lp499
g456
ag492
aaa(lp500
I619
aI621
aS'txt'
p501
a(lp502
g492
ag501
aaa(lp503
I619
aI621
ag501
a(lp504
g483
ag501
aaa(lp505
I619
aI621
ag501
a(lp506
g474
ag501
aaa(lp507
I619
aI621
ag501
a(lp508
g465
ag501
aaa(lp509
I619
aI621
aS'16kb'
p510
a(lp511
g501
ag510
aaa(lp512
I619
aI621
ag510
a(lp513
g492
ag510
aaa(lp514
I619
aI621
ag510
a(lp515
g483
ag510
aaa(lp516
I619
aI621
ag510
a(lp517
g474
ag510
aaasS'wordMap'
p518
(lp519
(lp520
I0
aI2
aS'why'
p521
a(lp522
(lp523
I0
aS'w'
p524
aa(lp525
I1
aS'h'
p526
aa(lp527
I2
aS'y'
p528
aaaa(lp529
I5
aI7
aS'the'
p530
a(lp531
(lp532
I5
aS't'
p533
aa(lp534
I6
ag526
aa(lp535
I7
aS'e'
p536
aaaa(lp537
I9
aI15
ag5
a(lp538
(lp539
I9
aS'r'
p540
aa(lp541
I10
ag536
aa(lp542
I11
aS'a'
p543
aa(lp544
I12
aS's'
p545
aa(lp546
I13
aS'o'
p547
aa(lp548
I14
aS'n'
p549
aa(lp550
I15
ag545
aaaa(lp551
I17
aI22
ag15
a(lp552
(lp553
I17
aS'b'
p554
aa(lp555
I18
ag536
aa(lp556
I19
ag526
aa(lp557
I20
aS'i'
p558
aa(lp559
I21
ag549
aa(lp560
I22
aS'd'
p561
aaaa(lp562
I24
aI26
ag24
a(lp563
(lp564
I24
ag533
aa(lp565
I25
ag545
aa(lp566
I26
ag543
aaaa(lp567
I28
aI35
ag33
a(lp568
(lp569
I28
ag545
aa(lp570
I29
ag536
aa(lp571
I30
aS'c'
p572
aa(lp573
I31
aS'u'
p574
aa(lp575
I32
ag540
aa(lp576
I33
ag558
aa(lp577
I34
ag533
aa(lp578
I35
ag528
aaaa(lp579
I37
aI39
aS'for'
p580
a(lp581
(lp582
I37
aS'f'
p583
aa(lp584
I38
ag547
aa(lp585
I39
ag540
aaaa(lp586
I41
aI49
ag42
a(lp587
(lp588
I41
ag533
aa(lp589
I42
ag540
aa(lp590
I43
ag543
aa(lp591
I44
aS'v'
p592
aa(lp593
I45
ag536
aa(lp594
I46
aS'l'
p595
aa(lp596
I47
ag536
aa(lp597
I48
ag540
aa(lp598
I49
ag545
aaaa(lp599
I51
aI53
aS'why'
p600
a(lp601
(lp602
I51
ag524
aa(lp603
I52
ag526
aa(lp604
I53
ag528
aaaa(lp605
I56
aI58
aS'the'
p606
a(lp607
(lp608
I56
ag533
aa(lp609
I57
ag526
aa(lp610
I58
ag536
aaaa(lp611
I60
aI66
ag51
a(lp612
(lp613
I60
ag540
aa(lp614
I61
ag536
aa(lp615
I62
ag543
aa(lp616
I63
ag545
aa(lp617
I64
ag547
aa(lp618
I65
ag549
aa(lp619
I66
ag545
aaaa(lp620
I68
aI73
ag60
a(lp621
(lp622
I68
ag554
aa(lp623
I69
ag536
aa(lp624
I70
ag526
aa(lp625
I71
ag558
aa(lp626
I72
ag549
aa(lp627
I73
ag561
aaaa(lp628
I75
aI77
ag69
a(lp629
(lp630
I75
ag533
aa(lp631
I76
ag545
aa(lp632
I77
ag543
aaaa(lp633
I79
aI86
ag78
a(lp634
(lp635
I79
ag545
aa(lp636
I80
ag536
aa(lp637
I81
ag572
aa(lp638
I82
ag574
aa(lp639
I83
ag540
aa(lp640
I84
ag558
aa(lp641
I85
ag533
aa(lp642
I86
ag528
aaaa(lp643
I88
aI92
ag87
a(lp644
(lp645
I88
ag533
aa(lp646
I89
ag526
aa(lp647
I90
ag540
aa(lp648
I91
ag536
aa(lp649
I92
ag536
aaaa(lp650
I94
aI101
ag96
a(lp651
(lp652
I94
ag545
aa(lp653
I95
ag536
aa(lp654
I96
ag572
aa(lp655
I97
ag574
aa(lp656
I98
ag540
aa(lp657
I99
ag558
aa(lp658
I100
ag533
aa(lp659
I101
ag528
aaaa(lp660
I103
aI112
ag105
a(lp661
(lp662
I103
aS'p'
p663
aa(lp664
I104
ag540
aa(lp665
I105
ag547
aa(lp666
I106
ag572
aa(lp667
I107
ag536
aa(lp668
I108
ag561
aa(lp669
I109
ag574
aa(lp670
I110
ag540
aa(lp671
I111
ag536
aa(lp672
I112
ag545
aaaa(lp673
I114
aI117
aS'that'
p674
a(lp675
(lp676
I114
ag533
aa(lp677
I115
ag526
aa(lp678
I116
ag543
aa(lp679
I117
ag533
aaaa(lp680
I119
aI123
ag114
a(lp681
(lp682
I119
ag540
aa(lp683
I120
ag543
aa(lp684
I121
ag558
aa(lp685
I122
ag545
aa(lp686
I123
ag536
aaaa(lp687
I125
aI133
ag123
a(lp688
(lp689
I125
aS'q'
p690
aa(lp691
I126
ag574
aa(lp692
I127
ag536
aa(lp693
I128
ag545
aa(lp694
I129
ag533
aa(lp695
I130
ag558
aa(lp696
I131
ag547
aa(lp697
I132
ag549
aa(lp698
I133
ag545
aaaa(lp699
I135
aI137
aS'for'
p700
a(lp701
(lp702
I135
ag583
aa(lp703
I136
ag547
aa(lp704
I137
ag540
aaaa(lp705
I139
aI142
ag132
a(lp706
(lp707
I139
aS'm'
p708
aa(lp709
I140
ag543
aa(lp710
I141
ag549
aa(lp711
I142
ag528
aaaa(lp712
I144
aI153
ag141
a(lp713
(lp714
I144
ag663
aa(lp715
I145
ag543
aa(lp716
I146
ag545
aa(lp717
I147
ag545
aa(lp718
I148
ag536
aa(lp719
I149
ag549
aa(lp720
I150
aS'g'
p721
aa(lp722
I151
ag536
aa(lp723
I152
ag540
aa(lp724
I153
ag545
aaaa(lp725
I155
aI157
aS'are'
p726
a(lp727
(lp728
I155
ag543
aa(lp729
I156
ag540
aa(lp730
I157
ag536
aaaa(lp731
I160
aI162
aS'why'
p732
a(lp733
(lp734
I160
ag524
aa(lp735
I161
ag526
aa(lp736
I162
ag528
aaaa(lp737
I164
aI165
aS'do'
p738
a(lp739
(lp740
I164
ag561
aa(lp741
I165
ag547
aaaa(lp742
I167
aI167
ag558
a(lp743
(lp744
I167
ag558
aaaa(lp745
I169
aI172
aS'have'
p746
a(lp747
(lp748
I169
ag526
aa(lp749
I170
ag543
aa(lp750
I171
ag592
aa(lp751
I172
ag536
aaaa(lp752
I174
aI175
aS'to'
p753
a(lp754
(lp755
I174
ag533
aa(lp756
I175
ag547
aaaa(lp757
I177
aI180
ag150
a(lp758
(lp759
I177
ag533
aa(lp760
I178
ag543
aa(lp761
I179
aS'k'
p762
aa(lp763
I180
ag536
aaaa(lp764
I182
aI184
aS'off'
p765
a(lp766
(lp767
I182
ag547
aa(lp768
I183
ag583
aa(lp769
I184
ag583
aaaa(lp770
I186
aI187
aS'my'
p771
a(lp772
(lp773
I186
ag708
aa(lp774
I187
ag528
aaaa(lp775
I189
aI193
ag159
a(lp776
(lp777
I189
ag545
aa(lp778
I190
ag526
aa(lp779
I191
ag547
aa(lp780
I192
ag536
aa(lp781
I193
ag545
aaaa(lp782
I196
aI198
aS'why'
p783
a(lp784
(lp785
I196
ag524
aa(lp786
I197
ag526
aa(lp787
I198
ag528
aaaa(lp788
I200
aI201
aS'do'
p789
a(lp790
(lp791
I200
ag561
aa(lp792
I201
ag547
aaaa(lp793
I203
aI203
ag558
a(lp794
(lp795
I203
ag558
aaaa(lp796
I205
aI208
aS'have'
p797
a(lp798
(lp799
I205
ag526
aa(lp800
I206
ag543
aa(lp801
I207
ag592
aa(lp802
I208
ag536
aaaa(lp803
I210
aI211
aS'to'
p804
a(lp805
(lp806
I210
ag533
aa(lp807
I211
ag547
aaaa(lp808
I213
aI215
ag168
a(lp809
(lp810
I213
ag663
aa(lp811
I214
ag574
aa(lp812
I215
ag533
aaaa(lp813
I217
aI218
aS'my'
p814
a(lp815
(lp816
I217
ag708
aa(lp817
I218
ag528
aaaa(lp818
I220
aI224
ag177
a(lp819
(lp820
I220
ag533
aa(lp821
I221
ag526
aa(lp822
I222
ag540
aa(lp823
I223
ag536
aa(lp824
I224
ag536
aaaa(lp825
I226
aI230
ag186
a(lp826
(lp827
I226
ag547
aa(lp828
I227
ag574
aa(lp829
I228
ag549
aa(lp830
I229
ag572
aa(lp831
I230
ag536
aaaa(lp832
I232
aI238
ag195
a(lp833
(lp834
I232
ag595
aa(lp835
I233
ag558
aa(lp836
I234
ag690
aa(lp837
I235
ag574
aa(lp838
I236
ag558
aa(lp839
I237
ag561
aa(lp840
I238
ag545
aaaa(lp841
I240
aI241
aS'in'
p842
a(lp843
(lp844
I240
ag558
aa(lp845
I241
ag549
aaaa(lp846
I243
aI243
ag543
a(lp847
(lp848
I243
ag543
aaaa(lp849
I245
aI251
ag204
a(lp850
(lp851
I245
aS'z'
p852
aa(lp853
I246
ag558
aa(lp854
I247
ag663
aa(lp855
I249
ag533
aa(lp856
I250
ag547
aa(lp857
I251
ag663
aaaa(lp858
I253
aI259
ag213
a(lp859
(lp860
I253
ag663
aa(lp861
I254
ag595
aa(lp862
I255
ag543
aa(lp863
I256
ag545
aa(lp864
I257
ag533
aa(lp865
I258
ag558
aa(lp866
I259
ag572
aaaa(lp867
I261
aI263
ag222
a(lp868
(lp869
I261
ag554
aa(lp870
I262
ag543
aa(lp871
I263
ag721
aaaa(lp872
I266
aI268
aS'why'
p873
a(lp874
(lp875
I266
ag524
aa(lp876
I267
ag526
aa(lp877
I268
ag528
aaaa(lp878
I270
aI271
aS'do'
p879
a(lp880
(lp881
I270
ag561
aa(lp882
I271
ag547
aaaa(lp883
I273
aI273
ag558
a(lp884
(lp885
I273
ag558
aaaa(lp886
I275
aI278
aS'have'
p887
a(lp888
(lp889
I275
ag526
aa(lp890
I276
ag543
aa(lp891
I277
ag592
aa(lp892
I278
ag536
aaaa(lp893
I280
aI281
aS'to'
p894
a(lp895
(lp896
I280
ag533
aa(lp897
I281
ag547
aaaa(lp898
I283
aI286
ag231
a(lp899
(lp900
I283
ag545
aa(lp901
I284
ag526
aa(lp902
I285
ag547
aa(lp903
I286
ag524
aaaa(lp904
I288
aI289
ag240
a(lp905
(lp906
I288
ag558
aa(lp907
I289
ag561
aaaa(lp908
I292
aI296
ag249
a(lp909
(lp910
I292
ag572
aa(lp911
I293
ag595
aa(lp912
I294
ag558
aa(lp913
I295
ag572
aa(lp914
I296
ag762
aaaa(lp915
I298
aI299
aS'on'
p916
a(lp917
(lp918
I298
ag547
aa(lp919
I299
ag549
aaaa(lp920
I301
aI303
aS'the'
p921
a(lp922
(lp923
I301
ag533
aa(lp924
I302
ag526
aa(lp925
I303
ag536
aaaa(lp926
I305
aI310
ag258
a(lp927
(lp928
I305
ag592
aa(lp929
I306
ag558
aa(lp930
I307
ag561
aa(lp931
I308
ag536
aa(lp932
I309
ag547
aa(lp933
I310
ag545
aaaa(lp934
I312
aI316
aS'below'
p935
a(lp936
(lp937
I312
ag554
aa(lp938
I313
ag536
aa(lp939
I314
ag595
aa(lp940
I315
ag547
aa(lp941
I316
ag524
aaaa(lp942
I318
aI319
aS'to'
p943
a(lp944
(lp945
I318
ag533
aa(lp946
I319
ag547
aaaa(lp947
I321
aI323
ag267
a(lp948
(lp949
I321
ag721
aa(lp950
I322
ag536
aa(lp951
I323
ag533
aaaa(lp952
I325
aI331
ag276
a(lp953
(lp954
I325
ag543
aa(lp955
I326
ag549
aa(lp956
I327
ag545
aa(lp957
I328
ag524
aa(lp958
I329
ag536
aa(lp959
I330
ag540
aa(lp960
I331
ag545
aaaa(lp961
I333
aI334
aS'to'
p962
a(lp963
(lp964
I333
ag533
aa(lp965
I334
ag547
aaaa(lp966
I336
aI340
aS'these'
p967
a(lp968
(lp969
I336
ag533
aa(lp970
I337
ag526
aa(lp971
I338
ag536
aa(lp972
I339
ag545
aa(lp973
I340
ag536
aaaa(lp974
I342
aI350
ag285
a(lp975
(lp976
I342
ag690
aa(lp977
I343
ag574
aa(lp978
I344
ag536
aa(lp979
I345
ag545
aa(lp980
I346
ag533
aa(lp981
I347
ag558
aa(lp982
I348
ag547
aa(lp983
I349
ag549
aa(lp984
I350
ag545
aaaa(lp985
I353
aI356
aS'when'
p986
a(lp987
(lp988
I353
ag524
aa(lp989
I354
ag526
aa(lp990
I355
ag536
aa(lp991
I356
ag549
aaaa(lp992
I358
aI360
aS'you'
p993
a(lp994
(lp995
I358
ag528
aa(lp996
I359
ag547
aa(lp997
I360
ag574
aaaa(lp998
I362
aI371
ag294
a(lp999
(lp1000
I362
ag574
aa(lp1001
I363
ag549
aa(lp1002
I364
ag561
aa(lp1003
I365
ag536
aa(lp1004
I366
ag540
aa(lp1005
I367
ag545
aa(lp1006
I368
ag533
aa(lp1007
I369
ag543
aa(lp1008
I370
ag549
aa(lp1009
I371
ag561
aaaa(lp1010
I373
aI375
aS'the'
p1011
a(lp1012
(lp1013
I373
ag533
aa(lp1014
I374
ag526
aa(lp1015
I375
ag536
aaaa(lp1016
I378
aI380
aS'why'
p1017
a(lp1018
(lp1019
I378
ag524
aa(lp1020
I379
ag526
aa(lp1021
I380
ag528
aaaa(lp1022
I383
aI384
aS'of'
p1023
a(lp1024
(lp1025
I383
ag547
aa(lp1026
I384
ag583
aaaa(lp1027
I386
aI393
ag303
a(lp1028
(lp1029
I386
ag545
aa(lp1030
I387
ag536
aa(lp1031
I388
ag572
aa(lp1032
I389
ag574
aa(lp1033
I390
ag540
aa(lp1034
I391
ag558
aa(lp1035
I392
ag533
aa(lp1036
I393
ag528
aaaa(lp1037
I396
aI401
ag312
a(lp1038
(lp1039
I396
ag528
aa(lp1040
I397
ag547
aa(lp1041
I398
ag574
aa(lp1042
I400
ag595
aa(lp1043
I401
ag595
aaaa(lp1044
I403
aI406
aS'have'
p1045
a(lp1046
(lp1047
I403
ag526
aa(lp1048
I404
ag543
aa(lp1049
I405
ag592
aa(lp1050
I406
ag536
aaaa(lp1051
I408
aI409
aS'an'
p1052
a(lp1053
(lp1054
I408
ag543
aa(lp1055
I409
ag549
aaaa(lp1056
I411
aI416
ag321
a(lp1057
(lp1058
I411
ag536
aa(lp1059
I412
ag543
aa(lp1060
I413
ag545
aa(lp1061
I414
ag558
aa(lp1062
I415
ag536
aa(lp1063
I416
ag540
aaaa(lp1064
I418
aI421
ag330
a(lp1065
(lp1066
I418
ag533
aa(lp1067
I419
ag558
aa(lp1068
I420
ag708
aa(lp1069
I421
ag536
aaaa(lp1070
I423
aI429
ag339
a(lp1071
(lp1072
I423
ag721
aa(lp1073
I424
ag536
aa(lp1074
I425
ag533
aa(lp1075
I426
ag533
aa(lp1076
I427
ag558
aa(lp1077
I428
ag549
aa(lp1078
I429
ag721
aaaa(lp1079
I431
aI437
aS'through'
p1080
a(lp1081
(lp1082
I431
ag533
aa(lp1083
I432
ag526
aa(lp1084
I433
ag540
aa(lp1085
I434
ag547
aa(lp1086
I435
ag574
aa(lp1087
I436
ag721
aa(lp1088
I437
ag526
aaaa(lp1089
I439
aI441
aS'the'
p1090
a(lp1091
(lp1092
I439
ag533
aa(lp1093
I440
ag526
aa(lp1094
I441
ag536
aaaa(lp1095
I443
aI452
ag348
a(lp1096
(lp1097
I443
ag572
aa(lp1098
I444
ag526
aa(lp1099
I445
ag536
aa(lp1100
I446
ag572
aa(lp1101
I447
ag762
aa(lp1102
I448
ag663
aa(lp1103
I449
ag547
aa(lp1104
I450
ag558
aa(lp1105
I451
ag549
aa(lp1106
I452
ag533
aaaa(lp1107
I455
aI457
aS'for'
p1108
a(lp1109
(lp1110
I455
ag583
aa(lp1111
I456
ag547
aa(lp1112
I457
ag540
aaaa(lp1113
I459
aI462
aS'more'
p1114
a(lp1115
(lp1116
I459
ag708
aa(lp1117
I460
ag547
aa(lp1118
I461
ag540
aa(lp1119
I462
ag536
aaaa(lp1120
I464
aI474
ag357
a(lp1121
(lp1122
I464
ag558
aa(lp1123
I465
ag549
aa(lp1124
I466
ag583
aa(lp1125
I467
ag547
aa(lp1126
I468
ag540
aa(lp1127
I469
ag708
aa(lp1128
I470
ag543
aa(lp1129
I471
ag533
aa(lp1130
I472
ag558
aa(lp1131
I473
ag547
aa(lp1132
I474
ag549
aaaa(lp1133
I476
aI477
aS'on'
p1134
a(lp1135
(lp1136
I476
ag547
aa(lp1137
I477
ag549
aaaa(lp1138
I479
aI486
ag366
a(lp1139
(lp1140
I479
ag545
aa(lp1141
I480
ag536
aa(lp1142
I481
ag572
aa(lp1143
I482
ag574
aa(lp1144
I483
ag540
aa(lp1145
I484
ag558
aa(lp1146
I485
ag533
aa(lp1147
I486
ag528
aaaa(lp1148
I488
aI497
ag375
a(lp1149
(lp1150
I488
ag663
aa(lp1151
I489
ag540
aa(lp1152
I490
ag547
aa(lp1153
I491
ag572
aa(lp1154
I492
ag536
aa(lp1155
I493
ag561
aa(lp1156
I494
ag574
aa(lp1157
I495
ag540
aa(lp1158
I496
ag536
aa(lp1159
I497
ag545
aaaa(lp1160
I500
aI505
ag384
a(lp1161
(lp1162
I500
ag533
aa(lp1163
I501
ag540
aa(lp1164
I502
ag543
aa(lp1165
I503
ag592
aa(lp1166
I504
ag536
aa(lp1167
I505
ag595
aaaa(lp1168
I507
aI510
ag393
a(lp1169
(lp1170
I507
ag533
aa(lp1171
I508
ag558
aa(lp1172
I509
ag663
aa(lp1173
I510
ag545
aaaa(lp1174
I513
aI515
aS'and'
p1175
a(lp1176
(lp1177
I513
ag543
aa(lp1178
I514
ag549
aa(lp1179
I515
ag561
aaaa(lp1180
I517
aI523
ag402
a(lp1181
(lp1182
I517
ag526
aa(lp1183
I518
ag536
aa(lp1184
I519
ag595
aa(lp1185
I520
ag663
aa(lp1186
I521
ag583
aa(lp1187
I522
ag574
aa(lp1188
I523
ag595
aaaa(lp1189
I525
aI530
ag411
a(lp1190
(lp1191
I525
ag592
aa(lp1192
I526
ag558
aa(lp1193
I527
ag561
aa(lp1194
I528
ag536
aa(lp1195
I529
ag547
aa(lp1196
I530
ag545
aaaa(lp1197
I533
aI538
ag420
a(lp1198
(lp1199
I533
ag663
aa(lp1200
I534
ag595
aa(lp1201
I535
ag536
aa(lp1202
I536
ag543
aa(lp1203
I537
ag545
aa(lp1204
I538
ag536
aaaa(lp1205
I540
aI541
ag429
a(lp1206
(lp1207
I540
ag721
aa(lp1208
I541
ag547
aaaa(lp1209
I543
aI544
aS'to'
p1210
a(lp1211
(lp1212
I543
ag533
aa(lp1213
I544
ag547
aaaa(lp1214
I546
aI548
aS'the'
p1215
a(lp1216
(lp1217
I546
ag533
aa(lp1218
I547
ag526
aa(lp1219
I548
ag536
aaaa(lp1220
I552
aI560
ag438
a(lp1221
(lp1222
I552
ag533
aa(lp1223
I553
ag540
aa(lp1224
I554
ag543
aa(lp1225
I555
ag592
aa(lp1226
I556
ag536
aa(lp1227
I557
ag595
aa(lp1228
I558
ag536
aa(lp1229
I559
ag540
aa(lp1230
I560
ag545
aaaa(lp1231
I562
aI565
ag447
a(lp1232
(lp1233
I562
ag663
aa(lp1234
I563
ag543
aa(lp1235
I564
ag721
aa(lp1236
I565
ag536
aaaa(lp1237
I568
aI570
ag456
a(lp1238
(lp1239
I568
ag524
aa(lp1240
I569
ag708
aa(lp1241
I570
ag592
aaaa(lp1242
I573
aI577
ag465
a(lp1243
(lp1244
I573
aS'5'
p1245
aa(lp1246
I575
ag1245
aa(lp1247
I576
ag708
aa(lp1248
I577
ag554
aaaa(lp1249
I580
aI581
aS'to'
p1250
a(lp1251
(lp1252
I580
ag533
aa(lp1253
I581
ag547
aaaa(lp1254
I583
aI590
ag474
a(lp1255
(lp1256
I583
ag561
aa(lp1257
I584
ag547
aa(lp1258
I585
ag524
aa(lp1259
I586
ag549
aa(lp1260
I587
ag595
aa(lp1261
I588
ag547
aa(lp1262
I589
ag543
aa(lp1263
I590
ag561
aaaa(lp1264
I592
aI594
aS'the'
p1265
a(lp1266
(lp1267
I592
ag533
aa(lp1268
I593
ag526
aa(lp1269
I594
ag536
aaaa(lp1270
I596
aI598
aS'why'
p1271
a(lp1272
(lp1273
I596
ag524
aa(lp1274
I597
ag526
aa(lp1275
I598
ag528
aaaa(lp1276
I600
aI604
ag483
a(lp1277
(lp1278
I600
ag545
aa(lp1279
I601
ag526
aa(lp1280
I602
ag547
aa(lp1281
I603
ag536
aa(lp1282
I604
ag545
aaaa(lp1283
I606
aI615
ag492
a(lp1284
(lp1285
I606
ag533
aa(lp1286
I607
ag540
aa(lp1287
I608
ag543
aa(lp1288
I609
ag549
aa(lp1289
I610
ag545
aa(lp1290
I611
ag572
aa(lp1291
I612
ag540
aa(lp1292
I613
ag558
aa(lp1293
I614
ag663
aa(lp1294
I615
ag533
aaaa(lp1295
I619
aI621
ag501
a(lp1296
(lp1297
I619
ag533
aa(lp1298
I620
aS'x'
p1299
aa(lp1300
I621
ag533
aaaa(lp1301
I619
aI621
ag510
a(lp1302
(lp1303
I624
aS'1'
p1304
aa(lp1305
I626
aS'6'
p1306
aa(lp1307
I627
ag762
aa(lp1308
I628
ag554
aaaasS'cleanCharacterMap'
p1309
(lp1310
g523
ag525
ag527
a(lp1311
I4
aS' '
p1312
aag532
ag534
ag535
a(lp1313
I8
ag1312
aag539
ag541
ag542
ag544
ag546
ag548
ag550
a(lp1314
I16
ag1312
aag553
ag555
ag556
ag557
ag559
ag560
a(lp1315
I23
ag1312
aag564
ag565
ag566
a(lp1316
I27
ag1312
aag569
ag570
ag571
ag573
ag575
ag576
ag577
ag578
a(lp1317
I36
ag1312
aag582
ag584
ag585
a(lp1318
I40
ag1312
aag588
ag589
ag590
ag591
ag593
ag594
ag596
ag597
ag598
a(lp1319
I50
ag1312
aag602
ag603
ag604
a(lp1320
I55
ag1312
aag608
ag609
ag610
a(lp1321
I59
ag1312
aag613
ag614
ag615
ag616
ag617
ag618
ag619
a(lp1322
I67
ag1312
aag622
ag623
ag624
ag625
ag626
ag627
a(lp1323
I74
ag1312
aag630
ag631
ag632
a(lp1324
I78
ag1312
aag635
ag636
ag637
ag638
ag639
ag640
ag641
ag642
a(lp1325
I87
ag1312
aag645
ag646
ag647
ag648
ag649
a(lp1326
I93
ag1312
aag652
ag653
ag654
ag655
ag656
ag657
ag658
ag659
a(lp1327
I102
ag1312
aag662
ag664
ag665
ag666
ag667
ag668
ag669
ag670
ag671
ag672
a(lp1328
I113
ag1312
aag676
ag677
ag678
ag679
a(lp1329
I118
ag1312
aag682
ag683
ag684
ag685
ag686
a(lp1330
I124
ag1312
aag689
ag691
ag692
ag693
ag694
ag695
ag696
ag697
ag698
a(lp1331
I134
ag1312
aag702
ag703
ag704
a(lp1332
I138
ag1312
aag707
ag709
ag710
ag711
a(lp1333
I143
ag1312
aag714
ag715
ag716
ag717
ag718
ag719
ag720
ag722
ag723
ag724
a(lp1334
I154
ag1312
aag728
ag729
ag730
a(lp1335
I159
ag1312
aag734
ag735
ag736
a(lp1336
I163
ag1312
aag740
ag741
a(lp1337
I166
ag1312
aag744
a(lp1338
I168
ag1312
aag748
ag749
ag750
ag751
a(lp1339
I173
ag1312
aag755
ag756
a(lp1340
I176
ag1312
aag759
ag760
ag761
ag763
a(lp1341
I181
ag1312
aag767
ag768
ag769
a(lp1342
I185
ag1312
aag773
ag774
a(lp1343
I188
ag1312
aag777
ag778
ag779
ag780
ag781
a(lp1344
I195
ag1312
aag785
ag786
ag787
a(lp1345
I199
ag1312
aag791
ag792
a(lp1346
I202
ag1312
aag795
a(lp1347
I204
ag1312
aag799
ag800
ag801
ag802
a(lp1348
I209
ag1312
aag806
ag807
a(lp1349
I212
ag1312
aag810
ag811
ag812
a(lp1350
I216
ag1312
aag816
ag817
a(lp1351
I219
ag1312
aag820
ag821
ag822
ag823
ag824
a(lp1352
I225
ag1312
aag827
ag828
ag829
ag830
ag831
a(lp1353
I231
ag1312
aag834
ag835
ag836
ag837
ag838
ag839
ag840
a(lp1354
I239
ag1312
aag844
ag845
a(lp1355
I242
ag1312
aag848
a(lp1356
I244
ag1312
aag851
ag853
ag854
ag855
ag856
ag857
a(lp1357
I252
ag1312
aag860
ag861
ag862
ag863
ag864
ag865
ag866
a(lp1358
I260
ag1312
aag869
ag870
ag871
a(lp1359
I265
ag1312
aag875
ag876
ag877
a(lp1360
I269
ag1312
aag881
ag882
a(lp1361
I272
ag1312
aag885
a(lp1362
I274
ag1312
aag889
ag890
ag891
ag892
a(lp1363
I279
ag1312
aag896
ag897
a(lp1364
I282
ag1312
aag900
ag901
ag902
ag903
a(lp1365
I287
ag1312
aag906
ag907
a(lp1366
I291
ag1312
aag910
ag911
ag912
ag913
ag914
a(lp1367
I297
ag1312
aag918
ag919
a(lp1368
I300
ag1312
aag923
ag924
ag925
a(lp1369
I304
ag1312
aag928
ag929
ag930
ag931
ag932
ag933
a(lp1370
I311
ag1312
aag937
ag938
ag939
ag940
ag941
a(lp1371
I317
ag1312
aag945
ag946
a(lp1372
I320
ag1312
aag949
ag950
ag951
a(lp1373
I324
ag1312
aag954
ag955
ag956
ag957
ag958
ag959
ag960
a(lp1374
I332
ag1312
aag964
ag965
a(lp1375
I335
ag1312
aag969
ag970
ag971
ag972
ag973
a(lp1376
I341
ag1312
aag976
ag977
ag978
ag979
ag980
ag981
ag982
ag983
ag984
a(lp1377
I352
ag1312
aag988
ag989
ag990
ag991
a(lp1378
I357
ag1312
aag995
ag996
ag997
a(lp1379
I361
ag1312
aag1000
ag1001
ag1002
ag1003
ag1004
ag1005
ag1006
ag1007
ag1008
ag1009
a(lp1380
I372
ag1312
aag1013
ag1014
ag1015
a(lp1381
I376
ag1312
aag1019
ag1020
ag1021
a(lp1382
I382
ag1312
aag1025
ag1026
a(lp1383
I385
ag1312
aag1029
ag1030
ag1031
ag1032
ag1033
ag1034
ag1035
ag1036
a(lp1384
I395
ag1312
aag1039
ag1040
ag1041
ag1042
ag1043
a(lp1385
I402
ag1312
aag1047
ag1048
ag1049
ag1050
a(lp1386
I407
ag1312
aag1054
ag1055
a(lp1387
I410
ag1312
aag1058
ag1059
ag1060
ag1061
ag1062
ag1063
a(lp1388
I417
ag1312
aag1066
ag1067
ag1068
ag1069
a(lp1389
I422
ag1312
aag1072
ag1073
ag1074
ag1075
ag1076
ag1077
ag1078
a(lp1390
I430
ag1312
aag1082
ag1083
ag1084
ag1085
ag1086
ag1087
ag1088
a(lp1391
I438
ag1312
aag1092
ag1093
ag1094
a(lp1392
I442
ag1312
aag1097
ag1098
ag1099
ag1100
ag1101
ag1102
ag1103
ag1104
ag1105
ag1106
a(lp1393
I454
ag1312
aag1110
ag1111
ag1112
a(lp1394
I458
ag1312
aag1116
ag1117
ag1118
ag1119
a(lp1395
I463
ag1312
aag1122
ag1123
ag1124
ag1125
ag1126
ag1127
ag1128
ag1129
ag1130
ag1131
ag1132
a(lp1396
I475
ag1312
aag1136
ag1137
a(lp1397
I478
ag1312
aag1140
ag1141
ag1142
ag1143
ag1144
ag1145
ag1146
ag1147
a(lp1398
I487
ag1312
aag1150
ag1151
ag1152
ag1153
ag1154
ag1155
ag1156
ag1157
ag1158
ag1159
a(lp1399
I499
ag1312
aag1162
ag1163
ag1164
ag1165
ag1166
ag1167
a(lp1400
I506
ag1312
aag1170
ag1171
ag1172
ag1173
a(lp1401
I512
ag1312
aag1177
ag1178
ag1179
a(lp1402
I516
ag1312
aag1182
ag1183
ag1184
ag1185
ag1186
ag1187
ag1188
a(lp1403
I524
ag1312
aag1191
ag1192
ag1193
ag1194
ag1195
ag1196
a(lp1404
I532
ag1312
aag1199
ag1200
ag1201
ag1202
ag1203
ag1204
a(lp1405
I539
ag1312
aag1207
ag1208
a(lp1406
I542
ag1312
aag1212
ag1213
a(lp1407
I545
ag1312
aag1217
ag1218
ag1219
a(lp1408
I549
ag1312
aa(lp1409
I551
ag1312
aag1222
ag1223
ag1224
ag1225
ag1226
ag1227
ag1228
ag1229
ag1230
a(lp1410
I561
ag1312
aag1233
ag1234
ag1235
ag1236
a(lp1411
I566
ag1312
aag1239
ag1240
ag1241
a(lp1412
I572
ag1312
aag1244
ag1246
ag1247
ag1248
a(lp1413
I579
ag1312
aag1252
ag1253
a(lp1414
I582
ag1312
aag1256
ag1257
ag1258
ag1259
ag1260
ag1261
ag1262
ag1263
a(lp1415
I591
ag1312
aag1267
ag1268
ag1269
a(lp1416
I595
ag1312
aag1273
ag1274
ag1275
a(lp1417
I599
ag1312
aag1278
ag1279
ag1280
ag1281
ag1282
a(lp1418
I605
ag1312
aag1285
ag1286
ag1287
ag1288
ag1289
ag1290
ag1291
ag1292
ag1293
ag1294
a(lp1419
I617
ag1312
aag1297
ag1298
ag1300
a(lp1420
I623
ag1312
aag1303
ag1305
ag1307
ag1308
asS'text'
p1421
S'why? the reasons behind tsa security for travelers why? the reasons behind tsa security three security procedures that raise questions for many passengers are: why do i have to take off my shoes? why do i have to put my three ounce liquids in a zip-top plastic bag? why do i have to show id? click on the videos below to get answers to these questions. when you understand the "why" of security, you\'ll have an easier time getting through the checkpoint. for more information on security procedures, travel tips, and helpful videos, please go to the . travelers page (wmv, 5.5mb) to download the why shoes transcript. (txt, 1.6kb)'
p1422
sS'cleanWordMap'
p1423
(lp1424
g537
ag551
ag562
ag567
ag586
ag611
ag620
ag628
ag633
ag643
ag650
ag660
ag680
ag687
ag705
ag712
ag757
ag775
ag808
ag818
ag825
ag832
ag849
ag858
ag867
ag898
ag904
ag908
ag926
ag947
ag952
ag974
ag998
ag1027
ag1037
ag1056
ag1064
ag1070
ag1095
ag1120
ag1138
ag1148
ag1160
ag1168
ag1180
ag1189
ag1197
ag1205
ag1220
ag1231
ag1237
ag1242
ag1254
ag1276
ag1283
ag1295
ag1301
asS'lines'
p1425
(lp1426
VWhy? The Reasons Behind TSA Security\u000a
p1427
aVFor Travelers\u000a
p1428
aVWhy? The Reasons Behind TSA Security\u000a
p1429
aVThree security procedures that raise questions for many passengers are:\u000a
p1430
aVWhy do I have to take off my shoes?\u000a
p1431
aVWhy do I have to put my three ounce liquids in a zip-top plastic bag?\u000a
p1432
aVWhy do I have to show ID?\u000a
p1433
aVClick on the videos below to get answers to these questions. When you understand the "why" of security, you'll have an easier time getting through the checkpoint.\u000a
p1434
aVFor more information on security procedures, travel tips, and helpful videos, please go to the . Travelers Page\u000a
p1435
aV(wmv, 5.5Mb) to download the Why Shoes transcript. (txt, 1.6Kb)
p1436
asS'docType'
p1437
S'src'
p1438
sS'newfmap'
p1439
(lp1440
g4
ag8
ag10
ag12
ag14
ag17
ag19
ag21
ag23
ag26
ag28
ag30
ag32
ag35
ag37
ag39
ag41
ag44
ag46
ag48
ag50
ag53
ag55
ag57
ag59
ag62
ag64
ag66
ag68
ag71
ag73
ag75
ag77
ag80
ag82
ag84
ag86
ag89
ag91
ag93
ag95
ag98
ag100
ag102
ag104
ag107
ag109
ag111
ag113
ag116
ag118
ag120
ag122
ag125
ag127
ag129
ag131
ag134
ag136
ag138
ag140
ag143
ag145
ag147
ag149
ag152
ag154
ag156
ag158
ag161
ag163
ag165
ag167
ag170
ag172
ag174
ag176
ag179
ag181
ag183
ag185
ag188
ag190
ag192
ag194
ag197
ag199
ag201
ag203
ag206
ag208
ag210
ag212
ag215
ag217
ag219
ag221
ag224
ag226
ag228
ag230
ag233
ag235
ag237
ag239
ag242
ag244
ag246
ag248
ag251
ag253
ag255
ag257
ag260
ag262
ag264
ag266
ag269
ag271
ag273
ag275
ag278
ag280
ag282
ag284
ag287
ag289
ag291
ag293
ag296
ag298
ag300
ag302
ag305
ag307
ag309
ag311
ag314
ag316
ag318
ag320
ag323
ag325
ag327
ag329
ag332
ag334
ag336
ag338
ag341
ag343
ag345
ag347
ag350
ag352
ag354
ag356
ag359
ag361
ag363
ag365
ag368
ag370
ag372
ag374
ag377
ag379
ag381
ag383
ag386
ag388
ag390
ag392
ag395
ag397
ag399
ag401
ag404
ag406
ag408
ag410
ag413
ag415
ag417
ag419
ag422
ag424
ag426
ag428
ag431
ag433
ag435
ag437
ag440
ag442
ag444
ag446
ag449
ag451
ag453
ag455
ag458
ag460
ag462
ag464
ag467
ag469
ag471
ag473
ag476
ag478
ag480
ag482
ag485
ag487
ag489
ag491
ag494
ag496
ag498
ag500
ag503
ag505
ag507
ag509
ag512
ag514
ag516
asS'featureMap'
p1441
(lp1442
(lp1443
I9
aI15
ag5
ag6
ag9
ag11
ag13
aa(lp1444
I17
aI22
ag15
ag16
ag18
ag20
ag22
aa(lp1445
I24
aI26
ag24
ag25
ag27
ag29
ag31
aa(lp1446
I28
aI35
ag33
ag34
ag36
ag38
ag40
aa(lp1447
I41
aI49
ag42
ag43
ag45
ag47
ag49
aa(lp1448
I60
aI66
ag51
ag52
ag54
ag56
ag58
aa(lp1449
I68
aI73
ag60
ag61
ag63
ag65
ag67
aa(lp1450
I75
aI77
ag69
ag70
ag72
ag74
ag76
aa(lp1451
I79
aI86
ag78
ag79
ag81
ag83
ag85
aa(lp1452
I88
aI92
ag87
ag88
ag90
ag92
ag94
aa(lp1453
I94
aI101
ag96
ag97
ag99
ag101
ag103
aa(lp1454
I103
aI112
ag105
ag106
ag108
ag110
ag112
aa(lp1455
I119
aI123
ag114
ag115
ag117
ag119
ag121
aa(lp1456
I125
aI133
ag123
ag124
ag126
ag128
ag130
aa(lp1457
I139
aI142
ag132
ag133
ag135
ag137
ag139
aa(lp1458
I144
aI153
ag141
ag142
ag144
ag146
ag148
aa(lp1459
I177
aI180
ag150
ag151
ag153
ag155
ag157
aa(lp1460
I189
aI193
ag159
ag160
ag162
ag164
ag166
aa(lp1461
I213
aI215
ag168
ag169
ag171
ag173
ag175
aa(lp1462
I220
aI224
ag177
ag178
ag180
ag182
ag184
aa(lp1463
I226
aI230
ag186
ag187
ag189
ag191
ag193
aa(lp1464
I232
aI238
ag195
ag196
ag198
ag200
ag202
aa(lp1465
I245
aI251
ag204
ag205
ag207
ag209
ag211
aa(lp1466
I253
aI259
ag213
ag214
ag216
ag218
ag220
aa(lp1467
I261
aI263
ag222
ag223
ag225
ag227
ag229
aa(lp1468
I283
aI286
ag231
ag232
ag234
ag236
ag238
aa(lp1469
I288
aI289
ag240
ag241
ag243
ag245
ag247
aa(lp1470
I292
aI296
ag249
ag250
ag252
ag254
ag256
aa(lp1471
I305
aI310
ag258
ag259
ag261
ag263
ag265
aa(lp1472
I321
aI323
ag267
ag268
ag270
ag272
ag274
aa(lp1473
I325
aI331
ag276
ag277
ag279
ag281
ag283
aa(lp1474
I342
aI350
ag285
ag286
ag288
ag290
ag292
aa(lp1475
I362
aI371
ag294
ag295
ag297
ag299
ag301
aa(lp1476
I386
aI393
ag303
ag304
ag306
ag308
ag310
aa(lp1477
I396
aI401
ag312
ag313
ag315
ag317
ag319
aa(lp1478
I411
aI416
ag321
ag322
ag324
ag326
ag328
aa(lp1479
I418
aI421
ag330
ag331
ag333
ag335
ag337
aa(lp1480
I423
aI429
ag339
ag340
ag342
ag344
ag346
aa(lp1481
I443
aI452
ag348
ag349
ag351
ag353
ag355
aa(lp1482
I464
aI474
ag357
ag358
ag360
ag362
ag364
aa(lp1483
I479
aI486
ag366
ag367
ag369
ag371
ag373
aa(lp1484
I488
aI497
ag375
ag376
ag378
ag380
ag382
aa(lp1485
I500
aI505
ag384
ag385
ag387
ag389
ag391
aa(lp1486
I507
aI510
ag393
ag394
ag396
ag398
ag400
aa(lp1487
I517
aI523
ag402
ag403
ag405
ag407
ag409
aa(lp1488
I525
aI530
ag411
ag412
ag414
ag416
ag418
aa(lp1489
I533
aI538
ag420
ag421
ag423
ag425
ag427
aa(lp1490
I540
aI541
ag429
ag430
ag432
ag434
ag436
aa(lp1491
I552
aI560
ag438
ag439
ag441
ag443
ag445
aa(lp1492
I562
aI565
ag447
ag448
ag450
ag452
ag454
aa(lp1493
I568
aI570
ag456
ag457
ag459
ag461
ag463
aa(lp1494
I573
aI577
ag465
ag466
ag468
ag470
ag472
aa(lp1495
I583
aI590
ag474
ag475
ag477
ag479
ag481
aa(lp1496
I600
aI604
ag483
ag484
ag486
ag488
ag490
aa(lp1497
I606
aI615
ag492
ag493
ag495
ag497
ag499
aa(lp1498
I619
aI621
ag501
ag502
ag504
ag506
ag508
aa(lp1499
I619
aI621
ag510
ag511
ag513
ag515
ag517
aasS'characterMap'
p1500
(lp1501
g523
ag525
ag527
a(lp1502
I3
aS'?'
p1503
aag1311
ag532
ag534
ag535
ag1313
ag539
ag541
ag542
ag544
ag546
ag548
ag550
ag1314
ag553
ag555
ag556
ag557
ag559
ag560
ag1315
ag564
ag565
ag566
ag1316
ag569
ag570
ag571
ag573
ag575
ag576
ag577
ag578
ag1317
ag582
ag584
ag585
ag1318
ag588
ag589
ag590
ag591
ag593
ag594
ag596
ag597
ag598
ag1319
ag602
ag603
ag604
a(lp1504
I54
ag1503
aag1320
ag608
ag609
ag610
ag1321
ag613
ag614
ag615
ag616
ag617
ag618
ag619
ag1322
ag622
ag623
ag624
ag625
ag626
ag627
ag1323
ag630
ag631
ag632
ag1324
ag635
ag636
ag637
ag638
ag639
ag640
ag641
ag642
ag1325
ag645
ag646
ag647
ag648
ag649
ag1326
ag652
ag653
ag654
ag655
ag656
ag657
ag658
ag659
ag1327
ag662
ag664
ag665
ag666
ag667
ag668
ag669
ag670
ag671
ag672
ag1328
ag676
ag677
ag678
ag679
ag1329
ag682
ag683
ag684
ag685
ag686
ag1330
ag689
ag691
ag692
ag693
ag694
ag695
ag696
ag697
ag698
ag1331
ag702
ag703
ag704
ag1332
ag707
ag709
ag710
ag711
ag1333
ag714
ag715
ag716
ag717
ag718
ag719
ag720
ag722
ag723
ag724
ag1334
ag728
ag729
ag730
a(lp1505
I158
aS':'
p1506
aag1335
ag734
ag735
ag736
ag1336
ag740
ag741
ag1337
ag744
ag1338
ag748
ag749
ag750
ag751
ag1339
ag755
ag756
ag1340
ag759
ag760
ag761
ag763
ag1341
ag767
ag768
ag769
ag1342
ag773
ag774
ag1343
ag777
ag778
ag779
ag780
ag781
a(lp1507
I194
ag1503
aag1344
ag785
ag786
ag787
ag1345
ag791
ag792
ag1346
ag795
ag1347
ag799
ag800
ag801
ag802
ag1348
ag806
ag807
ag1349
ag810
ag811
ag812
ag1350
ag816
ag817
ag1351
ag820
ag821
ag822
ag823
ag824
ag1352
ag827
ag828
ag829
ag830
ag831
ag1353
ag834
ag835
ag836
ag837
ag838
ag839
ag840
ag1354
ag844
ag845
ag1355
ag848
ag1356
ag851
ag853
ag854
a(lp1508
I248
aS'-'
p1509
aag855
ag856
ag857
ag1357
ag860
ag861
ag862
ag863
ag864
ag865
ag866
ag1358
ag869
ag870
ag871
a(lp1510
I264
ag1503
aag1359
ag875
ag876
ag877
ag1360
ag881
ag882
ag1361
ag885
ag1362
ag889
ag890
ag891
ag892
ag1363
ag896
ag897
ag1364
ag900
ag901
ag902
ag903
ag1365
ag906
ag907
a(lp1511
I290
ag1503
aag1366
ag910
ag911
ag912
ag913
ag914
ag1367
ag918
ag919
ag1368
ag923
ag924
ag925
ag1369
ag928
ag929
ag930
ag931
ag932
ag933
ag1370
ag937
ag938
ag939
ag940
ag941
ag1371
ag945
ag946
ag1372
ag949
ag950
ag951
ag1373
ag954
ag955
ag956
ag957
ag958
ag959
ag960
ag1374
ag964
ag965
ag1375
ag969
ag970
ag971
ag972
ag973
ag1376
ag976
ag977
ag978
ag979
ag980
ag981
ag982
ag983
ag984
a(lp1512
I351
aS'.'
p1513
aag1377
ag988
ag989
ag990
ag991
ag1378
ag995
ag996
ag997
ag1379
ag1000
ag1001
ag1002
ag1003
ag1004
ag1005
ag1006
ag1007
ag1008
ag1009
ag1380
ag1013
ag1014
ag1015
ag1381
a(lp1514
I377
aS'"'
p1515
aag1019
ag1020
ag1021
a(lp1516
I381
ag1515
aag1382
ag1025
ag1026
ag1383
ag1029
ag1030
ag1031
ag1032
ag1033
ag1034
ag1035
ag1036
a(lp1517
I394
aS','
p1518
aag1384
ag1039
ag1040
ag1041
a(lp1519
I399
aS"'"
p1520
aag1042
ag1043
ag1385
ag1047
ag1048
ag1049
ag1050
ag1386
ag1054
ag1055
ag1387
ag1058
ag1059
ag1060
ag1061
ag1062
ag1063
ag1388
ag1066
ag1067
ag1068
ag1069
ag1389
ag1072
ag1073
ag1074
ag1075
ag1076
ag1077
ag1078
ag1390
ag1082
ag1083
ag1084
ag1085
ag1086
ag1087
ag1088
ag1391
ag1092
ag1093
ag1094
ag1392
ag1097
ag1098
ag1099
ag1100
ag1101
ag1102
ag1103
ag1104
ag1105
ag1106
a(lp1521
I453
ag1513
aag1393
ag1110
ag1111
ag1112
ag1394
ag1116
ag1117
ag1118
ag1119
ag1395
ag1122
ag1123
ag1124
ag1125
ag1126
ag1127
ag1128
ag1129
ag1130
ag1131
ag1132
ag1396
ag1136
ag1137
ag1397
ag1140
ag1141
ag1142
ag1143
ag1144
ag1145
ag1146
ag1147
ag1398
ag1150
ag1151
ag1152
ag1153
ag1154
ag1155
ag1156
ag1157
ag1158
ag1159
a(lp1522
I498
ag1518
aag1399
ag1162
ag1163
ag1164
ag1165
ag1166
ag1167
ag1400
ag1170
ag1171
ag1172
ag1173
a(lp1523
I511
ag1518
aag1401
ag1177
ag1178
ag1179
ag1402
ag1182
ag1183
ag1184
ag1185
ag1186
ag1187
ag1188
ag1403
ag1191
ag1192
ag1193
ag1194
ag1195
ag1196
a(lp1524
I531
ag1518
aag1404
ag1199
ag1200
ag1201
ag1202
ag1203
ag1204
ag1405
ag1207
ag1208
ag1406
ag1212
ag1213
ag1407
ag1217
ag1218
ag1219
ag1408
a(lp1525
I550
ag1513
aag1409
ag1222
ag1223
ag1224
ag1225
ag1226
ag1227
ag1228
ag1229
ag1230
ag1410
ag1233
ag1234
ag1235
ag1236
ag1411
a(lp1526
I567
aS'('
p1527
aag1239
ag1240
ag1241
a(lp1528
I571
ag1518
aag1412
ag1244
a(lp1529
I574
ag1513
aag1246
ag1247
ag1248
a(lp1530
I578
aS')'
p1531
aag1413
ag1252
ag1253
ag1414
ag1256
ag1257
ag1258
ag1259
ag1260
ag1261
ag1262
ag1263
ag1415
ag1267
ag1268
ag1269
ag1416
ag1273
ag1274
ag1275
ag1417
ag1278
ag1279
ag1280
ag1281
ag1282
ag1418
ag1285
ag1286
ag1287
ag1288
ag1289
ag1290
ag1291
ag1292
ag1293
ag1294
a(lp1532
I616
ag1513
aag1419
a(lp1533
I618
ag1527
aag1297
ag1298
ag1300
a(lp1534
I622
ag1518
aag1420
ag1303
a(lp1535
I625
ag1513
aag1305
ag1307
ag1308
a(lp1536
I629
ag1531
aasS'docName'
p1537
S'source-document01316.txt'
p1538
sb.