(iModel.Document
Document
p0
(dp1
S'fmap'
p2
(lp3
(lp4
I0
aI5
aS'carpal'
p5
a(lp6
S'*'
p7
ag5
aaa(lp8
I0
aI5
ag5
a(lp9
g7
ag5
aaa(lp10
I0
aI5
ag5
a(lp11
g7
ag5
aaa(lp12
I0
aI5
ag5
a(lp13
g7
ag5
aaa(lp14
I7
aI12
aS'tunnel'
p15
a(lp16
g5
ag15
aaa(lp17
I7
aI12
ag15
a(lp18
g7
ag15
aaa(lp19
I7
aI12
ag15
a(lp20
g7
ag15
aaa(lp21
I7
aI12
ag15
a(lp22
g7
ag15
aaa(lp23
I30
aI34
aS'cause'
p24
a(lp25
g15
ag24
aaa(lp26
I30
aI34
ag24
a(lp27
g5
ag24
aaa(lp28
I30
aI34
ag24
a(lp29
g7
ag24
aaa(lp30
I30
aI34
ag24
a(lp31
g7
ag24
aaa(lp32
I39
aI45
aS'forearm'
p33
a(lp34
g24
ag33
aaa(lp35
I39
aI45
ag33
a(lp36
g15
ag33
aaa(lp37
I39
aI45
ag33
a(lp38
g5
ag33
aaa(lp39
I39
aI45
ag33
a(lp40
g7
ag33
aaa(lp41
I47
aI50
aS'pain'
p42
a(lp43
g33
ag42
aaa(lp44
I47
aI50
ag42
a(lp45
g24
ag42
aaa(lp46
I47
aI50
ag42
a(lp47
g15
ag42
aaa(lp48
I47
aI50
ag42
a(lp49
g5
ag42
aaa(lp50
I52
aI60
aS'wednesday'
p51
a(lp52
g42
ag51
aaa(lp53
I52
aI60
ag51
a(lp54
g33
ag51
aaa(lp55
I52
aI60
ag51
a(lp56
g24
ag51
aaa(lp57
I52
aI60
ag51
a(lp58
g15
ag51
aaa(lp59
I63
aI70
aS'november'
p60
a(lp61
g51
ag60
aaa(lp62
I63
aI70
ag60
a(lp63
g42
ag60
aaa(lp64
I63
aI70
ag60
a(lp65
g33
ag60
aaa(lp66
I63
aI70
ag60
a(lp67
g24
ag60
aaa(lp68
I72
aI73
aS'26'
p69
a(lp70
g60
ag69
aaa(lp71
I72
aI73
ag69
a(lp72
g51
ag69
aaa(lp73
I72
aI73
ag69
a(lp74
g42
ag69
aaa(lp75
I72
aI73
ag69
a(lp76
g33
ag69
aaa(lp77
I76
aI79
aS'2008'
p78
a(lp79
g69
ag78
aaa(lp80
I76
aI79
ag78
a(lp81
g60
ag78
aaa(lp82
I76
aI79
ag78
a(lp83
g51
ag78
aaa(lp84
I76
aI79
ag78
a(lp85
g42
ag78
aaa(lp86
I81
aI87
aS'dealing'
p87
a(lp88
g78
ag87
aaa(lp89
I81
aI87
ag87
a(lp90
g69
ag87
aaa(lp91
I81
aI87
ag87
a(lp92
g60
ag87
aaa(lp93
I81
aI87
ag87
a(lp94
g51
ag87
aaa(lp95
I94
aI100
aS'forearm'
p96
a(lp97
g87
ag96
aaa(lp98
I94
aI100
ag96
a(lp99
g78
ag96
aaa(lp100
I94
aI100
ag96
a(lp101
g69
ag96
aaa(lp102
I94
aI100
ag96
a(lp103
g60
ag96
aaa(lp104
I102
aI105
aS'pain'
p105
a(lp106
g96
ag105
aaa(lp107
I102
aI105
ag105
a(lp108
g87
ag105
aaa(lp109
I102
aI105
ag105
a(lp110
g78
ag105
aaa(lp111
I102
aI105
ag105
a(lp112
g69
ag105
aaa(lp113
I118
aI121
aS'pain'
p114
a(lp115
g105
ag114
aaa(lp116
I118
aI121
ag114
a(lp117
g96
ag114
aaa(lp118
I118
aI121
ag114
a(lp119
g87
ag114
aaa(lp120
I118
aI121
ag114
a(lp121
g78
ag114
aaa(lp122
I128
aI133
aS'occurs'
p123
a(lp124
g114
ag123
aaa(lp125
I128
aI133
ag123
a(lp126
g105
ag123
aaa(lp127
I128
aI133
ag123
a(lp128
g96
ag123
aaa(lp129
I128
aI133
ag123
a(lp130
g87
ag123
aaa(lp131
I142
aI148
aS'forearm'
p132
a(lp133
g123
ag132
aaa(lp134
I142
aI148
ag132
a(lp135
g114
ag132
aaa(lp136
I142
aI148
ag132
a(lp137
g105
ag132
aaa(lp138
I142
aI148
ag132
a(lp139
g96
ag132
aaa(lp140
I150
aI153
aS'area'
p141
a(lp142
g132
ag141
aaa(lp143
I150
aI153
ag141
a(lp144
g123
ag141
aaa(lp145
I150
aI153
ag141
a(lp146
g114
ag141
aaa(lp147
I150
aI153
ag141
a(lp148
g105
ag141
aaa(lp149
I169
aI174
aS'caused'
p150
a(lp151
g141
ag150
aaa(lp152
I169
aI174
ag150
a(lp153
g132
ag150
aaa(lp154
I169
aI174
ag150
a(lp155
g123
ag150
aaa(lp156
I169
aI174
ag150
a(lp157
g114
ag150
aaa(lp158
I181
aI187
aS'variety'
p159
a(lp160
g150
ag159
aaa(lp161
I181
aI187
ag159
a(lp162
g141
ag159
aaa(lp163
I181
aI187
ag159
a(lp164
g132
ag159
aaa(lp165
I181
aI187
ag159
a(lp166
g123
ag159
aaa(lp167
I192
aI200
aS'different'
p168
a(lp169
g159
ag168
aaa(lp170
I192
aI200
ag168
a(lp171
g150
ag168
aaa(lp172
I192
aI200
ag168
a(lp173
g141
ag168
aaa(lp174
I192
aI200
ag168
a(lp175
g132
ag168
aaa(lp176
I202
aI209
aS'problems'
p177
a(lp178
g168
ag177
aaa(lp179
I202
aI209
ag177
a(lp180
g159
ag177
aaa(lp181
I202
aI209
ag177
a(lp182
g150
ag177
aaa(lp183
I202
aI209
ag177
a(lp184
g141
ag177
aaa(lp185
I212
aI215
aS'many'
p186
a(lp187
g177
ag186
aaa(lp188
I212
aI215
ag186
a(lp189
g168
ag186
aaa(lp190
I212
aI215
ag186
a(lp191
g159
ag186
aaa(lp192
I212
aI215
ag186
a(lp193
g150
ag186
aaa(lp194
I217
aI221
aS'times'
p195
a(lp196
g186
ag195
aaa(lp197
I217
aI221
ag195
a(lp198
g177
ag195
aaa(lp199
I217
aI221
ag195
a(lp200
g168
ag195
aaa(lp201
I217
aI221
ag195
a(lp202
g159
ag195
aaa(lp203
I229
aI234
aS'caused'
p204
a(lp205
g195
ag204
aaa(lp206
I229
aI234
ag204
a(lp207
g186
ag204
aaa(lp208
I229
aI234
ag204
a(lp209
g177
ag204
aaa(lp210
I229
aI234
ag204
a(lp211
g168
ag204
aaa(lp212
I239
aI244
aS'carpal'
p213
a(lp214
g204
ag213
aaa(lp215
I239
aI244
ag213
a(lp216
g195
ag213
aaa(lp217
I239
aI244
ag213
a(lp218
g186
ag213
aaa(lp219
I239
aI244
ag213
a(lp220
g177
ag213
aaa(lp221
I246
aI251
aS'tunnel'
p222
a(lp223
g213
ag222
aaa(lp224
I246
aI251
ag222
a(lp225
g204
ag222
aaa(lp226
I246
aI251
ag222
a(lp227
g195
ag222
aaa(lp228
I246
aI251
ag222
a(lp229
g186
ag222
aaa(lp230
I253
aI260
aS'syndrome'
p231
a(lp232
g222
ag231
aaa(lp233
I253
aI260
ag231
a(lp234
g213
ag231
aaa(lp235
I253
aI260
ag231
a(lp236
g204
ag231
aaa(lp237
I253
aI260
ag231
a(lp238
g195
ag231
aaa(lp239
I263
aI269
aS'however'
p240
a(lp241
g231
ag240
aaa(lp242
I263
aI269
ag240
a(lp243
g222
ag240
aaa(lp244
I263
aI269
ag240
a(lp245
g213
ag240
aaa(lp246
I263
aI269
ag240
a(lp247
g204
ag240
aaa(lp248
I283
aI289
aS'dealing'
p249
a(lp250
g240
ag249
aaa(lp251
I283
aI289
ag249
a(lp252
g231
ag249
aaa(lp253
I283
aI289
ag249
a(lp254
g222
ag249
aaa(lp255
I283
aI289
ag249
a(lp256
g213
ag249
aaa(lp257
I296
aI299
aS'pain'
p258
a(lp259
g249
ag258
aaa(lp260
I296
aI299
ag258
a(lp261
g240
ag258
aaa(lp262
I296
aI299
ag258
a(lp263
g231
ag258
aaa(lp264
I296
aI299
ag258
a(lp265
g222
ag258
aaa(lp266
I309
aI315
aS'forearm'
p267
a(lp268
g258
ag267
aaa(lp269
I309
aI315
ag267
a(lp270
g249
ag267
aaa(lp271
I309
aI315
ag267
a(lp272
g240
ag267
aaa(lp273
I309
aI315
ag267
a(lp274
g231
ag267
aaa(lp275
I322
aI325
aS'need'
p276
a(lp277
g267
ag276
aaa(lp278
I322
aI325
ag276
a(lp279
g258
ag276
aaa(lp280
I322
aI325
ag276
a(lp281
g249
ag276
aaa(lp282
I322
aI325
ag276
a(lp283
g240
ag276
aaa(lp284
I330
aI339
aS'understand'
p285
a(lp286
g276
ag285
aaa(lp287
I330
aI339
ag285
a(lp288
g267
ag285
aaa(lp289
I330
aI339
ag285
a(lp290
g258
ag285
aaa(lp291
I330
aI339
ag285
a(lp292
g249
ag285
aaa(lp293
I346
aI351
aS'carpal'
p294
a(lp295
g285
ag294
aaa(lp296
I346
aI351
ag294
a(lp297
g276
ag294
aaa(lp298
I346
aI351
ag294
a(lp299
g267
ag294
aaa(lp300
I346
aI351
ag294
a(lp301
g258
ag294
aaa(lp302
I353
aI358
aS'tunnel'
p303
a(lp304
g294
ag303
aaa(lp305
I353
aI358
ag303
a(lp306
g285
ag303
aaa(lp307
I353
aI358
ag303
a(lp308
g276
ag303
aaa(lp309
I353
aI358
ag303
a(lp310
g267
ag303
aaa(lp311
I360
aI367
aS'syndrome'
p312
a(lp313
g303
ag312
aaa(lp314
I360
aI367
ag312
a(lp315
g294
ag312
aaa(lp316
I360
aI367
ag312
a(lp317
g285
ag312
aaa(lp318
I360
aI367
ag312
a(lp319
g276
ag312
aaa(lp320
I376
aI381
aS'always'
p321
a(lp322
g312
ag321
aaa(lp323
I376
aI381
ag321
a(lp324
g303
ag321
aaa(lp325
I376
aI381
ag321
a(lp326
g294
ag321
aaa(lp327
I376
aI381
ag321
a(lp328
g285
ag321
aaa(lp329
I387
aI393
aS'problem'
p330
a(lp331
g321
ag330
aaa(lp332
I387
aI393
ag330
a(lp333
g312
ag330
aaa(lp334
I387
aI393
ag330
a(lp335
g303
ag330
aaa(lp336
I387
aI393
ag330
a(lp337
g294
ag330
aaa(lp338
I406
aI409
aS'many'
p339
a(lp340
g330
ag339
aaa(lp341
I406
aI409
ag339
a(lp342
g321
ag339
aaa(lp343
I406
aI409
ag339
a(lp344
g312
ag339
aaa(lp345
I406
aI409
ag339
a(lp346
g303
ag339
aaa(lp347
I417
aI422
aS'causes'
p348
a(lp349
g339
ag348
aaa(lp350
I417
aI422
ag348
a(lp351
g330
ag348
aaa(lp352
I417
aI422
ag348
a(lp353
g321
ag348
aaa(lp354
I417
aI422
ag348
a(lp355
g312
ag348
aaa(lp356
I427
aI433
aS'forearm'
p357
a(lp358
g348
ag357
aaa(lp359
I427
aI433
ag357
a(lp360
g339
ag357
aaa(lp361
I427
aI433
ag357
a(lp362
g330
ag357
aaa(lp363
I427
aI433
ag357
a(lp364
g321
ag357
aaa(lp365
I435
aI438
aS'pain'
p366
a(lp367
g357
ag366
aaa(lp368
I435
aI438
ag366
a(lp369
g348
ag366
aaa(lp370
I435
aI438
ag366
a(lp371
g339
ag366
aaa(lp372
I435
aI438
ag366
a(lp373
g330
ag366
aaa(lp374
I459
aI463
aS'aware'
p375
a(lp376
g366
ag375
aaa(lp377
I459
aI463
ag375
a(lp378
g357
ag375
aaa(lp379
I459
aI463
ag375
a(lp380
g348
ag375
aaa(lp381
I459
aI463
ag375
a(lp382
g339
ag375
aaa(lp383
I479
aI482
aS'look'
p384
a(lp385
g375
ag384
aaa(lp386
I479
aI482
ag384
a(lp387
g366
ag384
aaa(lp388
I479
aI482
ag384
a(lp389
g357
ag384
aaa(lp390
I479
aI482
ag384
a(lp391
g348
ag384
aaa(lp392
I499
aI506
aS'problems'
p393
a(lp394
g384
ag393
aaa(lp395
I499
aI506
ag393
a(lp396
g375
ag393
aaa(lp397
I499
aI506
ag393
a(lp398
g366
ag393
aaa(lp399
I499
aI506
ag393
a(lp400
g357
ag393
aaa(lp401
I520
aI525
aS'carpal'
p402
a(lp403
g393
ag402
aaa(lp404
I520
aI525
ag402
a(lp405
g384
ag402
aaa(lp406
I520
aI525
ag402
a(lp407
g375
ag402
aaa(lp408
I520
aI525
ag402
a(lp409
g366
ag402
aaa(lp410
I527
aI532
aS'tunnel'
p411
a(lp412
g402
ag411
aaa(lp413
I527
aI532
ag411
a(lp414
g393
ag411
aaa(lp415
I527
aI532
ag411
a(lp416
g384
ag411
aaa(lp417
I527
aI532
ag411
a(lp418
g375
ag411
aaa(lp419
I534
aI541
aS'syndrome'
p420
a(lp421
g411
ag420
aaa(lp422
I534
aI541
ag420
a(lp423
g402
ag420
aaa(lp424
I534
aI541
ag420
a(lp425
g393
ag420
aaa(lp426
I534
aI541
ag420
a(lp427
g384
ag420
aaa(lp428
I556
aI562
aS'causing'
p429
a(lp430
g420
ag429
aaa(lp431
I556
aI562
ag429
a(lp432
g411
ag429
aaa(lp433
I556
aI562
ag429
a(lp434
g402
ag429
aaa(lp435
I556
aI562
ag429
a(lp436
g393
ag429
aaa(lp437
I568
aI571
aS'pain'
p438
a(lp439
g429
ag438
aaa(lp440
I568
aI571
ag438
a(lp441
g420
ag438
aaa(lp442
I568
aI571
ag438
a(lp443
g411
ag438
aaa(lp444
I568
aI571
ag438
a(lp445
g402
ag438
aaa(lp446
I590
aI596
aS'forearm'
p447
a(lp448
g438
ag447
aaa(lp449
I590
aI596
ag447
a(lp450
g429
ag447
aaa(lp451
I590
aI596
ag447
a(lp452
g420
ag447
aaa(lp453
I590
aI596
ag447
a(lp454
g411
ag447
aaa(lp455
I599
aI604
aS'injury'
p456
a(lp457
g447
ag456
aaa(lp458
I599
aI604
ag456
a(lp459
g438
ag456
aaa(lp460
I599
aI604
ag456
a(lp461
g429
ag456
aaa(lp462
I599
aI604
ag456
a(lp463
g420
ag456
aaa(lp464
I613
aI619
aS'forearm'
p465
a(lp466
g456
ag465
aaa(lp467
I613
aI619
ag465
a(lp468
g447
ag465
aaa(lp469
I613
aI619
ag465
a(lp470
g438
ag465
aaa(lp471
I613
aI619
ag465
a(lp472
g429
ag465
aaa(lp473
I621
aI623
aS'one'
p474
a(lp475
g465
ag474
aaa(lp476
I621
aI623
ag474
a(lp477
g456
ag474
aaa(lp478
I621
aI623
ag474
a(lp479
g447
ag474
aaa(lp480
I621
aI623
ag474
a(lp481
g438
ag474
aaa(lp482
I625
aI629
aS'cause'
p483
a(lp484
g474
ag483
aaa(lp485
I625
aI629
ag483
a(lp486
g465
ag483
aaa(lp487
I625
aI629
ag483
a(lp488
g456
ag483
aaa(lp489
I625
aI629
ag483
a(lp490
g447
ag483
aaa(lp491
I634
aI637
aS'pain'
p492
a(lp493
g483
ag492
aaa(lp494
I634
aI637
ag492
a(lp495
g474
ag492
aaa(lp496
I634
aI637
ag492
a(lp497
g465
ag492
aaa(lp498
I634
aI637
ag492
a(lp499
g456
ag492
aaa(lp500
I646
aI652
aS'forearm'
p501
a(lp502
g492
ag501
aaa(lp503
I646
aI652
ag501
a(lp504
g483
ag501
aaa(lp505
I646
aI652
ag501
a(lp506
g474
ag501
aaa(lp507
I646
aI652
ag501
a(lp508
g465
ag501
aaa(lp509
I654
aI657
aS'area'
p510
a(lp511
g501
ag510
aaa(lp512
I654
aI657
ag510
a(lp513
g492
ag510
aaa(lp514
I654
aI657
ag510
a(lp515
g483
ag510
aaa(lp516
I654
aI657
ag510
a(lp517
g474
ag510
aaa(lp518
I669
aI674
aS'injury'
p519
a(lp520
g510
ag519
aaa(lp521
I669
aI674
ag519
a(lp522
g501
ag519
aaa(lp523
I669
aI674
ag519
a(lp524
g492
ag519
aaa(lp525
I669
aI674
ag519
a(lp526
g483
ag519
aaa(lp527
I683
aI689
aS'forearm'
p528
a(lp529
g519
ag528
aaa(lp530
I683
aI689
ag528
a(lp531
g510
ag528
aaa(lp532
I683
aI689
ag528
a(lp533
g501
ag528
aaa(lp534
I683
aI689
ag528
a(lp535
g492
ag528
aaa(lp536
I703
aI708
aS'decide'
p537
a(lp538
g528
ag537
aaa(lp539
I703
aI708
ag537
a(lp540
g519
ag537
aaa(lp541
I703
aI708
ag537
a(lp542
g510
ag537
aaa(lp543
I703
aI708
ag537
a(lp544
g501
ag537
aaa(lp545
I723
aI729
aS'dealing'
p546
a(lp547
g537
ag546
aaa(lp548
I723
aI729
ag546
a(lp549
g528
ag546
aaa(lp550
I723
aI729
ag546
a(lp551
g519
ag546
aaa(lp552
I723
aI729
ag546
a(lp553
g510
ag546
aaa(lp554
I741
aI746
aS'carpal'
p555
a(lp556
g546
ag555
aaa(lp557
I741
aI746
ag555
a(lp558
g537
ag555
aaa(lp559
I741
aI746
ag555
a(lp560
g528
ag555
aaa(lp561
I741
aI746
ag555
a(lp562
g519
ag555
aaa(lp563
I748
aI753
aS'tunnel'
p564
a(lp565
g555
ag564
aaa(lp566
I748
aI753
ag564
a(lp567
g546
ag564
aaa(lp568
I748
aI753
ag564
a(lp569
g537
ag564
aaa(lp570
I748
aI753
ag564
a(lp571
g528
ag564
aaa(lp572
I755
aI758
aS'pain'
p573
a(lp574
g564
ag573
aaa(lp575
I755
aI758
ag573
a(lp576
g555
ag573
aaa(lp577
I755
aI758
ag573
a(lp578
g546
ag573
aaa(lp579
I755
aI758
ag573
a(lp580
g537
ag573
aaa(lp581
I770
aI773
aS'want'
p582
a(lp583
g573
ag582
aaa(lp584
I770
aI773
ag582
a(lp585
g564
ag582
aaa(lp586
I770
aI773
ag582
a(lp587
g555
ag582
aaa(lp588
I770
aI773
ag582
a(lp589
g546
ag582
aaa(lp590
I778
aI781
aS'take'
p591
a(lp592
g582
ag591
aaa(lp593
I778
aI781
ag591
a(lp594
g573
ag591
aaa(lp595
I778
aI781
ag591
a(lp596
g564
ag591
aaa(lp597
I778
aI781
ag591
a(lp598
g555
ag591
aaa(lp599
I789
aI795
aS'minutes'
p600
a(lp601
g591
ag600
aaa(lp602
I789
aI795
ag600
a(lp603
g582
ag600
aaa(lp604
I789
aI795
ag600
a(lp605
g573
ag600
aaa(lp606
I789
aI795
ag600
a(lp607
g564
ag600
aaa(lp608
I800
aI804
aS'think'
p609
a(lp610
g600
ag609
aaa(lp611
I800
aI804
ag609
a(lp612
g591
ag609
aaa(lp613
I800
aI804
ag609
a(lp614
g582
ag609
aaa(lp615
I800
aI804
ag609
a(lp616
g573
ag609
aaa(lp617
I816
aI822
aS'injured'
p618
a(lp619
g609
ag618
aaa(lp620
I816
aI822
ag618
a(lp621
g600
ag618
aaa(lp622
I816
aI822
ag618
a(lp623
g591
ag618
aaa(lp624
I816
aI822
ag618
a(lp625
g582
ag618
aaa(lp626
I828
aI834
aS'forearm'
p627
a(lp628
g618
ag627
aaa(lp629
I828
aI834
ag627
a(lp630
g609
ag627
aaa(lp631
I828
aI834
ag627
a(lp632
g600
ag627
aaa(lp633
I828
aI834
ag627
a(lp634
g591
ag627
aaa(lp635
I843
aI845
aS'way'
p636
a(lp637
g627
ag636
aaa(lp638
I843
aI845
ag636
a(lp639
g618
ag636
aaa(lp640
I843
aI845
ag636
a(lp641
g609
ag636
aaa(lp642
I843
aI845
ag636
a(lp643
g600
ag636
aaa(lp644
I856
aI859
aS'take'
p645
a(lp646
g636
ag645
aaa(lp647
I856
aI859
ag645
a(lp648
g627
ag645
aaa(lp649
I856
aI859
ag645
a(lp650
g618
ag645
aaa(lp651
I856
aI859
ag645
a(lp652
g609
ag645
aaa(lp653
I863
aI866
aS'fall'
p654
a(lp655
g645
ag654
aaa(lp656
I863
aI866
ag654
a(lp657
g636
ag654
aaa(lp658
I863
aI866
ag654
a(lp659
g627
ag654
aaa(lp660
I863
aI866
ag654
a(lp661
g618
ag654
aaa(lp662
I871
aI877
aS'perhaps'
p663
a(lp664
g654
ag663
aaa(lp665
I871
aI877
ag663
a(lp666
g645
ag663
aaa(lp667
I871
aI877
ag663
a(lp668
g636
ag663
aaa(lp669
I871
aI877
ag663
a(lp670
g627
ag663
aaa(lp671
I887
aI898
aS'accidentally'
p672
a(lp673
g663
ag672
aaa(lp674
I887
aI898
ag672
a(lp675
g654
ag672
aaa(lp676
I887
aI898
ag672
a(lp677
g645
ag672
aaa(lp678
I887
aI898
ag672
a(lp679
g636
ag672
aaa(lp680
I900
aI902
aS'hit'
p681
a(lp682
g672
ag681
aaa(lp683
I900
aI902
ag681
a(lp684
g663
ag681
aaa(lp685
I900
aI902
ag681
a(lp686
g654
ag681
aaa(lp687
I900
aI902
ag681
a(lp688
g645
ag681
aaa(lp689
I908
aI914
aS'forearm'
p690
a(lp691
g681
ag690
aaa(lp692
I908
aI914
ag690
a(lp693
g672
ag690
aaa(lp694
I908
aI914
ag690
a(lp695
g663
ag690
aaa(lp696
I908
aI914
ag690
a(lp697
g654
ag690
aaa(lp698
I919
aI927
aS'something'
p699
a(lp700
g690
ag699
aaa(lp701
I919
aI927
ag699
a(lp702
g681
ag699
aaa(lp703
I919
aI927
ag699
a(lp704
g672
ag699
aaa(lp705
I919
aI927
ag699
a(lp706
g663
ag699
aaa(lp707
I930
aI936
aS'perhaps'
p708
a(lp709
g699
ag708
aaa(lp710
I930
aI936
ag708
a(lp711
g690
ag708
aaa(lp712
I930
aI936
ag708
a(lp713
g681
ag708
aaa(lp714
I930
aI936
ag708
a(lp715
g672
ag708
aaa(lp716
I942
aI945
aS'even'
p717
a(lp718
g708
ag717
aaa(lp719
I942
aI945
ag717
a(lp720
g699
ag717
aaa(lp721
I942
aI945
ag717
a(lp722
g690
ag717
aaa(lp723
I942
aI945
ag717
a(lp724
g681
ag717
aaa(lp725
I947
aI952
aS'pulled'
p726
a(lp727
g717
ag726
aaa(lp728
I947
aI952
ag726
a(lp729
g708
ag726
aaa(lp730
I947
aI952
ag726
a(lp731
g699
ag726
aaa(lp732
I947
aI952
ag726
a(lp733
g690
ag726
aaa(lp734
I956
aI961
aS'muscle'
p735
a(lp736
g726
ag735
aaa(lp737
I956
aI961
ag735
a(lp738
g717
ag735
aaa(lp739
I956
aI961
ag735
a(lp740
g708
ag735
aaa(lp741
I956
aI961
ag735
a(lp742
g699
ag735
aaa(lp743
I966
aI971
aS'tendon'
p744
a(lp745
g735
ag744
aaa(lp746
I966
aI971
ag744
a(lp747
g726
ag744
aaa(lp748
I966
aI971
ag744
a(lp749
g717
ag744
aaa(lp750
I966
aI971
ag744
a(lp751
g708
ag744
aaa(lp752
I984
aI989
aS'common'
p753
a(lp754
g744
ag753
aaa(lp755
I984
aI989
ag753
a(lp756
g735
ag753
aaa(lp757
I984
aI989
ag753
a(lp758
g726
ag753
aaa(lp759
I984
aI989
ag753
a(lp760
g717
ag753
aaa(lp761
I991
aI998
aS'problems'
p762
a(lp763
g753
ag762
aaa(lp764
I991
aI998
ag762
a(lp765
g744
ag762
aaa(lp766
I991
aI998
ag762
a(lp767
g735
ag762
aaa(lp768
I991
aI998
ag762
a(lp769
g726
ag762
aaa(lp770
I1009
aI1013
aS'occur'
p771
a(lp772
g762
ag771
aaa(lp773
I1009
aI1013
ag771
a(lp774
g753
ag771
aaa(lp775
I1009
aI1013
ag771
a(lp776
g744
ag771
aaa(lp777
I1009
aI1013
ag771
a(lp778
g735
ag771
aaa(lp779
I1020
aI1024
aS'cause'
p780
a(lp781
g771
ag780
aaa(lp782
I1020
aI1024
ag780
a(lp783
g762
ag780
aaa(lp784
I1020
aI1024
ag780
a(lp785
g753
ag780
aaa(lp786
I1020
aI1024
ag780
a(lp787
g744
ag780
aaa(lp788
I1031
aI1034
aS'type'
p789
a(lp790
g780
ag789
aaa(lp791
I1031
aI1034
ag789
a(lp792
g771
ag789
aaa(lp793
I1031
aI1034
ag789
a(lp794
g762
ag789
aaa(lp795
I1031
aI1034
ag789
a(lp796
g753
ag789
aaa(lp797
I1039
aI1042
aS'pain'
p798
a(lp799
g789
ag798
aaa(lp800
I1039
aI1042
ag798
a(lp801
g780
ag798
aaa(lp802
I1039
aI1042
ag798
a(lp803
g771
ag798
aaa(lp804
I1039
aI1042
ag798
a(lp805
g762
ag798
aaa(lp806
I1045
aI1054
aS'peripheral'
p807
a(lp808
g798
ag807
aaa(lp809
I1045
aI1054
ag807
a(lp810
g789
ag807
aaa(lp811
I1045
aI1054
ag807
a(lp812
g780
ag807
aaa(lp813
I1045
aI1054
ag807
a(lp814
g771
ag807
aaa(lp815
I1056
aI1065
aS'neuropathy'
p816
a(lp817
g807
ag816
aaa(lp818
I1056
aI1065
ag816
a(lp819
g798
ag816
aaa(lp820
I1056
aI1065
ag816
a(lp821
g789
ag816
aaa(lp822
I1056
aI1065
ag816
a(lp823
g780
ag816
aaa(lp824
I1067
aI1073
aS'another'
p825
a(lp826
g816
ag825
aaa(lp827
I1067
aI1073
ag825
a(lp828
g807
ag825
aaa(lp829
I1067
aI1073
ag825
a(lp830
g798
ag825
aaa(lp831
I1067
aI1073
ag825
a(lp832
g789
ag825
aaa(lp833
I1075
aI1080
aS'common'
p834
a(lp835
g825
ag834
aaa(lp836
I1075
aI1080
ag834
a(lp837
g816
ag834
aaa(lp838
I1075
aI1080
ag834
a(lp839
g807
ag834
aaa(lp840
I1075
aI1080
ag834
a(lp841
g798
ag834
aaa(lp842
I1082
aI1088
aS'problem'
p843
a(lp844
g834
ag843
aaa(lp845
I1082
aI1088
ag843
a(lp846
g825
ag843
aaa(lp847
I1082
aI1088
ag843
a(lp848
g816
ag843
aaa(lp849
I1082
aI1088
ag843
a(lp850
g807
ag843
aaa(lp851
I1106
aI1110
aS'cause'
p852
a(lp853
g843
ag852
aaa(lp854
I1106
aI1110
ag852
a(lp855
g834
ag852
aaa(lp856
I1106
aI1110
ag852
a(lp857
g825
ag852
aaa(lp858
I1106
aI1110
ag852
a(lp859
g816
ag852
aaa(lp860
I1115
aI1118
aS'pain'
p861
a(lp862
g852
ag861
aaa(lp863
I1115
aI1118
ag861
a(lp864
g843
ag861
aaa(lp865
I1115
aI1118
ag861
a(lp866
g834
ag861
aaa(lp867
I1115
aI1118
ag861
a(lp868
g825
ag861
aaa(lp869
I1127
aI1133
aS'forearm'
p870
a(lp871
g861
ag870
aaa(lp872
I1127
aI1133
ag870
a(lp873
g852
ag870
aaa(lp874
I1127
aI1133
ag870
a(lp875
g843
ag870
aaa(lp876
I1127
aI1133
ag870
a(lp877
g834
ag870
aaa(lp878
I1138
aI1147
aS'peripheral'
p879
a(lp880
g870
ag879
aaa(lp881
I1138
aI1147
ag879
a(lp882
g861
ag879
aaa(lp883
I1138
aI1147
ag879
a(lp884
g852
ag879
aaa(lp885
I1138
aI1147
ag879
a(lp886
g843
ag879
aaa(lp887
I1149
aI1158
aS'neuropathy'
p888
a(lp889
g879
ag888
aaa(lp890
I1149
aI1158
ag888
a(lp891
g870
ag888
aaa(lp892
I1149
aI1158
ag888
a(lp893
g861
ag888
aaa(lp894
I1149
aI1158
ag888
a(lp895
g852
ag888
aaa(lp896
I1171
aI1177
aS'problem'
p897
a(lp898
g888
ag897
aaa(lp899
I1171
aI1177
ag897
a(lp900
g879
ag897
aaa(lp901
I1171
aI1177
ag897
a(lp902
g870
ag897
aaa(lp903
I1171
aI1177
ag897
a(lp904
g861
ag897
aaa(lp905
I1184
aI1189
aS'occurs'
p906
a(lp907
g897
ag906
aaa(lp908
I1184
aI1189
ag906
a(lp909
g888
ag906
aaa(lp910
I1184
aI1189
ag906
a(lp911
g879
ag906
aaa(lp912
I1184
aI1189
ag906
a(lp913
g870
ag906
aaa(lp914
I1205
aI1210
aS'damage'
p915
a(lp916
g906
ag915
aaa(lp917
I1205
aI1210
ag915
a(lp918
g897
ag915
aaa(lp919
I1205
aI1210
ag915
a(lp920
g888
ag915
aaa(lp921
I1205
aI1210
ag915
a(lp922
g879
ag915
aaa(lp923
I1215
aI1220
aS'nerves'
p924
a(lp925
g915
ag924
aaa(lp926
I1215
aI1220
ag924
a(lp927
g906
ag924
aaa(lp928
I1215
aI1220
ag924
a(lp929
g897
ag924
aaa(lp930
I1215
aI1220
ag924
a(lp931
g888
ag924
aaa(lp932
I1231
aI1240
aS'peripheral'
p933
a(lp934
g924
ag933
aaa(lp935
I1231
aI1240
ag933
a(lp936
g915
ag933
aaa(lp937
I1231
aI1240
ag933
a(lp938
g906
ag933
aaa(lp939
I1231
aI1240
ag933
a(lp940
g897
ag933
aaa(lp941
I1243
aI1247
aS'often'
p942
a(lp943
g933
ag942
aaa(lp944
I1243
aI1247
ag942
a(lp945
g924
ag942
aaa(lp946
I1243
aI1247
ag942
a(lp947
g915
ag942
aaa(lp948
I1243
aI1247
ag942
a(lp949
g906
ag942
aaa(lp950
I1254
aI1260
aS'problem'
p951
a(lp952
g942
ag951
aaa(lp953
I1254
aI1260
ag951
a(lp954
g933
ag951
aaa(lp955
I1254
aI1260
ag951
a(lp956
g924
ag951
aaa(lp957
I1254
aI1260
ag951
a(lp958
g915
ag951
aaa(lp959
I1265
aI1270
aS'caused'
p960
a(lp961
g951
ag960
aaa(lp962
I1265
aI1270
ag960
a(lp963
g942
ag960
aaa(lp964
I1265
aI1270
ag960
a(lp965
g933
ag960
aaa(lp966
I1265
aI1270
ag960
a(lp967
g924
ag960
aaa(lp968
I1275
aI1282
aS'diabetes'
p969
a(lp970
g960
ag969
aaa(lp971
I1275
aI1282
ag969
a(lp972
g951
ag969
aaa(lp973
I1275
aI1282
ag969
a(lp974
g942
ag969
aaa(lp975
I1275
aI1282
ag969
a(lp976
g933
ag969
aaa(lp977
I1292
aI1296
aS'occur'
p978
a(lp979
g969
ag978
aaa(lp980
I1292
aI1296
ag978
a(lp981
g960
ag978
aaa(lp982
I1292
aI1296
ag978
a(lp983
g951
ag978
aaa(lp984
I1292
aI1296
ag978
a(lp985
g942
ag978
aaa(lp986
I1305
aI1308
aS'feet'
p987
a(lp988
g978
ag987
aaa(lp989
I1305
aI1308
ag987
a(lp990
g969
ag987
aaa(lp991
I1305
aI1308
ag987
a(lp992
g960
ag987
aaa(lp993
I1305
aI1308
ag987
a(lp994
g951
ag987
aaa(lp995
I1311
aI1315
aS'hands'
p996
a(lp997
g987
ag996
aaa(lp998
I1311
aI1315
ag996
a(lp999
g978
ag996
aaa(lp1000
I1311
aI1315
ag996
a(lp1001
g969
ag996
aaa(lp1002
I1311
aI1315
ag996
a(lp1003
g960
ag996
aaa(lp1004
I1322
aI1325
aS'arms'
p1005
a(lp1006
g996
ag1005
aaa(lp1007
I1322
aI1325
ag1005
a(lp1008
g987
ag1005
aaa(lp1009
I1322
aI1325
ag1005
a(lp1010
g978
ag1005
aaa(lp1011
I1322
aI1325
ag1005
a(lp1012
g969
ag1005
aaa(lp1013
I1335
aI1339
aS'could'
p1014
a(lp1015
g1005
ag1014
aaa(lp1016
I1335
aI1339
ag1014
a(lp1017
g996
ag1014
aaa(lp1018
I1335
aI1339
ag1014
a(lp1019
g987
ag1014
aaa(lp1020
I1335
aI1339
ag1014
a(lp1021
g978
ag1014
aaa(lp1022
I1346
aI1352
aS'problem'
p1023
a(lp1024
g1014
ag1023
aaa(lp1025
I1346
aI1352
ag1023
a(lp1026
g1005
ag1023
aaa(lp1027
I1346
aI1352
ag1023
a(lp1028
g996
ag1023
aaa(lp1029
I1346
aI1352
ag1023
a(lp1030
g987
ag1023
aaa(lp1031
I1362
aI1368
aS'causing'
p1032
a(lp1033
g1023
ag1032
aaa(lp1034
I1362
aI1368
ag1032
a(lp1035
g1014
ag1032
aaa(lp1036
I1362
aI1368
ag1032
a(lp1037
g1005
ag1032
aaa(lp1038
I1362
aI1368
ag1032
a(lp1039
g996
ag1032
aaa(lp1040
I1374
aI1377
aS'pain'
p1041
a(lp1042
g1032
ag1041
aaa(lp1043
I1374
aI1377
ag1041
a(lp1044
g1023
ag1041
aaa(lp1045
I1374
aI1377
ag1041
a(lp1046
g1014
ag1041
aaa(lp1047
I1374
aI1377
ag1041
a(lp1048
g1005
ag1041
aaa(lp1049
I1387
aI1393
aS'forearm'
p1050
a(lp1051
g1041
ag1050
aaa(lp1052
I1387
aI1393
ag1050
a(lp1053
g1032
ag1050
aaa(lp1054
I1387
aI1393
ag1050
a(lp1055
g1023
ag1050
aaa(lp1056
I1387
aI1393
ag1050
a(lp1057
g1014
ag1050
aaa(lp1058
I1396
aI1405
aS'tendonitis'
p1059
a(lp1060
g1050
ag1059
aaa(lp1061
I1396
aI1405
ag1059
a(lp1062
g1041
ag1059
aaa(lp1063
I1396
aI1405
ag1059
a(lp1064
g1032
ag1059
aaa(lp1065
I1396
aI1405
ag1059
a(lp1066
g1023
ag1059
aaa(lp1067
I1407
aI1416
aS'tendonitis'
p1068
a(lp1069
g1059
ag1068
aaa(lp1070
I1407
aI1416
ag1068
a(lp1071
g1050
ag1068
aaa(lp1072
I1407
aI1416
ag1068
a(lp1073
g1041
ag1068
aaa(lp1074
I1407
aI1416
ag1068
a(lp1075
g1032
ag1068
aaa(lp1076
I1421
aI1427
aS'another'
p1077
a(lp1078
g1068
ag1077
aaa(lp1079
I1421
aI1427
ag1077
a(lp1080
g1059
ag1077
aaa(lp1081
I1421
aI1427
ag1077
a(lp1082
g1050
ag1077
aaa(lp1083
I1421
aI1427
ag1077
a(lp1084
g1041
ag1077
aaa(lp1085
I1429
aI1435
aS'problem'
p1086
a(lp1087
g1077
ag1086
aaa(lp1088
I1429
aI1435
ag1086
a(lp1089
g1068
ag1086
aaa(lp1090
I1429
aI1435
ag1086
a(lp1091
g1059
ag1086
aaa(lp1092
I1429
aI1435
ag1086
a(lp1093
g1050
ag1086
aaa(lp1094
I1442
aI1446
aS'often'
p1095
a(lp1096
g1086
ag1095
aaa(lp1097
I1442
aI1446
ag1095
a(lp1098
g1077
ag1095
aaa(lp1099
I1442
aI1446
ag1095
a(lp1100
g1068
ag1095
aaa(lp1101
I1442
aI1446
ag1095
a(lp1102
g1059
ag1095
aaa(lp1103
I1448
aI1453
aS'causes'
p1104
a(lp1105
g1095
ag1104
aaa(lp1106
I1448
aI1453
ag1104
a(lp1107
g1086
ag1104
aaa(lp1108
I1448
aI1453
ag1104
a(lp1109
g1077
ag1104
aaa(lp1110
I1448
aI1453
ag1104
a(lp1111
g1068
ag1104
aaa(lp1112
I1455
aI1458
aS'pain'
p1113
a(lp1114
g1104
ag1113
aaa(lp1115
I1455
aI1458
ag1113
a(lp1116
g1095
ag1113
aaa(lp1117
I1455
aI1458
ag1113
a(lp1118
g1086
ag1113
aaa(lp1119
I1455
aI1458
ag1113
a(lp1120
g1077
ag1113
aaa(lp1121
I1467
aI1473
aS'forearm'
p1122
a(lp1123
g1113
ag1122
aaa(lp1124
I1467
aI1473
ag1122
a(lp1125
g1104
ag1122
aaa(lp1126
I1467
aI1473
ag1122
a(lp1127
g1095
ag1122
aaa(lp1128
I1467
aI1473
ag1122
a(lp1129
g1086
ag1122
aaa(lp1130
I1481
aI1489
aS'basically'
p1131
a(lp1132
g1122
ag1131
aaa(lp1133
I1481
aI1489
ag1131
a(lp1134
g1113
ag1131
aaa(lp1135
I1481
aI1489
ag1131
a(lp1136
g1104
ag1131
aaa(lp1137
I1481
aI1489
ag1131
a(lp1138
g1095
ag1131
aaa(lp1139
I1496
aI1502
aS'problem'
p1140
a(lp1141
g1131
ag1140
aaa(lp1142
I1496
aI1502
ag1140
a(lp1143
g1122
ag1140
aaa(lp1144
I1496
aI1502
ag1140
a(lp1145
g1113
ag1140
aaa(lp1146
I1496
aI1502
ag1140
a(lp1147
g1104
ag1140
aaa(lp1148
I1509
aI1514
aS'occurs'
p1149
a(lp1150
g1140
ag1149
aaa(lp1151
I1509
aI1514
ag1149
a(lp1152
g1131
ag1149
aaa(lp1153
I1509
aI1514
ag1149
a(lp1154
g1122
ag1149
aaa(lp1155
I1509
aI1514
ag1149
a(lp1156
g1113
ag1149
aaa(lp1157
I1525
aI1531
aS'tendons'
p1158
a(lp1159
g1149
ag1158
aaa(lp1160
I1525
aI1531
ag1158
a(lp1161
g1140
ag1158
aaa(lp1162
I1525
aI1531
ag1158
a(lp1163
g1131
ag1158
aaa(lp1164
I1525
aI1531
ag1158
a(lp1165
g1122
ag1158
aaa(lp1166
I1533
aI1540
aS'actually'
p1167
a(lp1168
g1158
ag1167
aaa(lp1169
I1533
aI1540
ag1167
a(lp1170
g1149
ag1167
aaa(lp1171
I1533
aI1540
ag1167
a(lp1172
g1140
ag1167
aaa(lp1173
I1533
aI1540
ag1167
a(lp1174
g1131
ag1167
aaa(lp1175
I1542
aI1544
aS'get'
p1176
a(lp1177
g1167
ag1176
aaa(lp1178
I1542
aI1544
ag1176
a(lp1179
g1158
ag1176
aaa(lp1180
I1542
aI1544
ag1176
a(lp1181
g1149
ag1176
aaa(lp1182
I1542
aI1544
ag1176
a(lp1183
g1140
ag1176
aaa(lp1184
I1546
aI1553
aS'inflamed'
p1185
a(lp1186
g1176
ag1185
aaa(lp1187
I1546
aI1553
ag1185
a(lp1188
g1167
ag1185
aaa(lp1189
I1546
aI1553
ag1185
a(lp1190
g1158
ag1185
aaa(lp1191
I1546
aI1553
ag1185
a(lp1192
g1149
ag1185
aaa(lp1193
I1568
aI1573
aS'result'
p1194
a(lp1195
g1185
ag1194
aaa(lp1196
I1568
aI1573
ag1194
a(lp1197
g1176
ag1194
aaa(lp1198
I1568
aI1573
ag1194
a(lp1199
g1167
ag1194
aaa(lp1200
I1568
aI1573
ag1194
a(lp1201
g1158
ag1194
aaa(lp1202
I1578
aI1583
aS'injury'
p1203
a(lp1204
g1194
ag1203
aaa(lp1205
I1578
aI1583
ag1203
a(lp1206
g1185
ag1203
aaa(lp1207
I1578
aI1583
ag1203
a(lp1208
g1176
ag1203
aaa(lp1209
I1578
aI1583
ag1203
a(lp1210
g1167
ag1203
aaa(lp1211
I1588
aI1591
aS'even'
p1212
a(lp1213
g1203
ag1212
aaa(lp1214
I1588
aI1591
ag1212
a(lp1215
g1194
ag1212
aaa(lp1216
I1588
aI1591
ag1212
a(lp1217
g1185
ag1212
aaa(lp1218
I1588
aI1591
ag1212
a(lp1219
g1176
ag1212
aaa(lp1220
I1593
aI1597
aS'using'
p1221
a(lp1222
g1212
ag1221
aaa(lp1223
I1593
aI1597
ag1221
a(lp1224
g1203
ag1221
aaa(lp1225
I1593
aI1597
ag1221
a(lp1226
g1194
ag1221
aaa(lp1227
I1593
aI1597
ag1221
a(lp1228
g1185
ag1221
aaa(lp1229
I1606
aI1609
aS'much'
p1230
a(lp1231
g1221
ag1230
aaa(lp1232
I1606
aI1609
ag1230
a(lp1233
g1212
ag1230
aaa(lp1234
I1606
aI1609
ag1230
a(lp1235
g1203
ag1230
aaa(lp1236
I1606
aI1609
ag1230
a(lp1237
g1194
ag1230
aaa(lp1238
I1619
aI1623
aS'cause'
p1239
a(lp1240
g1230
ag1239
aaa(lp1241
I1619
aI1623
ag1239
a(lp1242
g1221
ag1239
aaa(lp1243
I1619
aI1623
ag1239
a(lp1244
g1212
ag1239
aaa(lp1245
I1619
aI1623
ag1239
a(lp1246
g1203
ag1239
aaa(lp1247
I1627
aI1629
aS'lot'
p1248
a(lp1249
g1239
ag1248
aaa(lp1250
I1627
aI1629
ag1248
a(lp1251
g1230
ag1248
aaa(lp1252
I1627
aI1629
ag1248
a(lp1253
g1221
ag1248
aaa(lp1254
I1627
aI1629
ag1248
a(lp1255
g1212
ag1248
aaa(lp1256
I1634
aI1637
aS'pain'
p1257
a(lp1258
g1248
ag1257
aaa(lp1259
I1634
aI1637
ag1257
a(lp1260
g1239
ag1257
aaa(lp1261
I1634
aI1637
ag1257
a(lp1262
g1230
ag1257
aaa(lp1263
I1634
aI1637
ag1257
a(lp1264
g1221
ag1257
aaa(lp1265
I1640
aI1648
aS'including'
p1266
a(lp1267
g1257
ag1266
aaa(lp1268
I1640
aI1648
ag1266
a(lp1269
g1248
ag1266
aaa(lp1270
I1640
aI1648
ag1266
a(lp1271
g1239
ag1266
aaa(lp1272
I1640
aI1648
ag1266
a(lp1273
g1230
ag1266
aaa(lp1274
I1650
aI1653
aS'pain'
p1275
a(lp1276
g1266
ag1275
aaa(lp1277
I1650
aI1653
ag1275
a(lp1278
g1257
ag1275
aaa(lp1279
I1650
aI1653
ag1275
a(lp1280
g1248
ag1275
aaa(lp1281
I1650
aI1653
ag1275
a(lp1282
g1239
ag1275
aaa(lp1283
I1662
aI1668
aS'forearm'
p1284
a(lp1285
g1275
ag1284
aaa(lp1286
I1662
aI1668
ag1284
a(lp1287
g1266
ag1284
aaa(lp1288
I1662
aI1668
ag1284
a(lp1289
g1257
ag1284
aaa(lp1290
I1662
aI1668
ag1284
a(lp1291
g1248
ag1284
aaa(lp1292
I1677
aI1683
aS'tendons'
p1293
a(lp1294
g1284
ag1293
aaa(lp1295
I1677
aI1683
ag1293
a(lp1296
g1275
ag1293
aaa(lp1297
I1677
aI1683
ag1293
a(lp1298
g1266
ag1293
aaa(lp1299
I1677
aI1683
ag1293
a(lp1300
g1257
ag1293
aaa(lp1301
I1692
aI1695
aS'area'
p1302
a(lp1303
g1293
ag1302
aaa(lp1304
I1692
aI1695
ag1302
a(lp1305
g1284
ag1302
aaa(lp1306
I1692
aI1695
ag1302
a(lp1307
g1275
ag1302
aaa(lp1308
I1692
aI1695
ag1302
a(lp1309
g1266
ag1302
aaa(lp1310
I1701
aI1704
aS'hurt'
p1311
a(lp1312
g1302
ag1311
aaa(lp1313
I1701
aI1704
ag1311
a(lp1314
g1293
ag1311
aaa(lp1315
I1701
aI1704
ag1311
a(lp1316
g1284
ag1311
aaa(lp1317
I1701
aI1704
ag1311
a(lp1318
g1275
ag1311
aaa(lp1319
I1709
aI1716
aS'overused'
p1320
a(lp1321
g1311
ag1320
aaa(lp1322
I1709
aI1716
ag1320
a(lp1323
g1302
ag1320
aaa(lp1324
I1709
aI1716
ag1320
a(lp1325
g1293
ag1320
aaa(lp1326
I1709
aI1716
ag1320
a(lp1327
g1284
ag1320
aaa(lp1328
I1719
aI1722
aS'left'
p1329
a(lp1330
g1320
ag1329
aaa(lp1331
I1719
aI1722
ag1329
a(lp1332
g1311
ag1329
aaa(lp1333
I1719
aI1722
ag1329
a(lp1334
g1302
ag1329
aaa(lp1335
I1719
aI1722
ag1329
a(lp1336
g1293
ag1329
aaa(lp1337
I1724
aI1726
aS'arm'
p1338
a(lp1339
g1329
ag1338
aaa(lp1340
I1724
aI1726
ag1338
a(lp1341
g1320
ag1338
aaa(lp1342
I1724
aI1726
ag1338
a(lp1343
g1311
ag1338
aaa(lp1344
I1724
aI1726
ag1338
a(lp1345
g1302
ag1338
aaa(lp1346
I1730
aI1737
aS'possible'
p1347
a(lp1348
g1338
ag1347
aaa(lp1349
I1730
aI1737
ag1347
a(lp1350
g1329
ag1347
aaa(lp1351
I1730
aI1737
ag1347
a(lp1352
g1320
ag1347
aaa(lp1353
I1730
aI1737
ag1347
a(lp1354
g1311
ag1347
aaa(lp1355
I1739
aI1743
aS'heart'
p1356
a(lp1357
g1347
ag1356
aaa(lp1358
I1739
aI1743
ag1356
a(lp1359
g1338
ag1356
aaa(lp1360
I1739
aI1743
ag1356
a(lp1361
g1329
ag1356
aaa(lp1362
I1739
aI1743
ag1356
a(lp1363
g1320
ag1356
aaa(lp1364
I1745
aI1750
aS'attack'
p1365
a(lp1366
g1356
ag1365
aaa(lp1367
I1745
aI1750
ag1365
a(lp1368
g1347
ag1365
aaa(lp1369
I1745
aI1750
ag1365
a(lp1370
g1338
ag1365
aaa(lp1371
I1745
aI1750
ag1365
a(lp1372
g1329
ag1365
aaa(lp1373
I1752
aI1755
aS'last'
p1374
a(lp1375
g1365
ag1374
aaa(lp1376
I1752
aI1755
ag1374
a(lp1377
g1356
ag1374
aaa(lp1378
I1752
aI1755
ag1374
a(lp1379
g1347
ag1374
aaa(lp1380
I1752
aI1755
ag1374
a(lp1381
g1338
ag1374
aaa(lp1382
I1776
aI1782
aS'dealing'
p1383
a(lp1384
g1374
ag1383
aaa(lp1385
I1776
aI1782
ag1383
a(lp1386
g1365
ag1383
aaa(lp1387
I1776
aI1782
ag1383
a(lp1388
g1356
ag1383
aaa(lp1389
I1776
aI1782
ag1383
a(lp1390
g1347
ag1383
aaa(lp1391
I1789
aI1795
aS'forearm'
p1392
a(lp1393
g1383
ag1392
aaa(lp1394
I1789
aI1795
ag1392
a(lp1395
g1374
ag1392
aaa(lp1396
I1789
aI1795
ag1392
a(lp1397
g1365
ag1392
aaa(lp1398
I1789
aI1795
ag1392
a(lp1399
g1356
ag1392
aaa(lp1400
I1797
aI1800
aS'pain'
p1401
a(lp1402
g1392
ag1401
aaa(lp1403
I1797
aI1800
ag1401
a(lp1404
g1383
ag1401
aaa(lp1405
I1797
aI1800
ag1401
a(lp1406
g1374
ag1401
aaa(lp1407
I1797
aI1800
ag1401
a(lp1408
g1365
ag1401
aaa(lp1409
I1810
aI1813
aS'left'
p1410
a(lp1411
g1401
ag1410
aaa(lp1412
I1810
aI1813
ag1410
a(lp1413
g1392
ag1410
aaa(lp1414
I1810
aI1813
ag1410
a(lp1415
g1383
ag1410
aaa(lp1416
I1810
aI1813
ag1410
a(lp1417
g1374
ag1410
aaa(lp1418
I1815
aI1817
aS'arm'
p1419
a(lp1420
g1410
ag1419
aaa(lp1421
I1815
aI1817
ag1419
a(lp1422
g1401
ag1419
aaa(lp1423
I1815
aI1817
ag1419
a(lp1424
g1392
ag1419
aaa(lp1425
I1815
aI1817
ag1419
a(lp1426
g1383
ag1419
aaa(lp1427
I1825
aI1829
aS'could'
p1428
a(lp1429
g1419
ag1428
aaa(lp1430
I1825
aI1829
ag1428
a(lp1431
g1410
ag1428
aaa(lp1432
I1825
aI1829
ag1428
a(lp1433
g1401
ag1428
aaa(lp1434
I1825
aI1829
ag1428
a(lp1435
g1392
ag1428
aaa(lp1436
I1834
aI1844
aS'potentially'
p1437
a(lp1438
g1428
ag1437
aaa(lp1439
I1834
aI1844
ag1437
a(lp1440
g1419
ag1437
aaa(lp1441
I1834
aI1844
ag1437
a(lp1442
g1410
ag1437
aaa(lp1443
I1834
aI1844
ag1437
a(lp1444
g1401
ag1437
aaa(lp1445
I1846
aI1852
aS'serious'
p1446
a(lp1447
g1437
ag1446
aaa(lp1448
I1846
aI1852
ag1446
a(lp1449
g1428
ag1446
aaa(lp1450
I1846
aI1852
ag1446
a(lp1451
g1419
ag1446
aaa(lp1452
I1846
aI1852
ag1446
a(lp1453
g1410
ag1446
aaa(lp1454
I1855
aI1863
aS'sometimes'
p1455
a(lp1456
g1446
ag1455
aaa(lp1457
I1855
aI1863
ag1455
a(lp1458
g1437
ag1455
aaa(lp1459
I1855
aI1863
ag1455
a(lp1460
g1428
ag1455
aaa(lp1461
I1855
aI1863
ag1455
a(lp1462
g1419
ag1455
aaa(lp1463
I1870
aI1875
aS'people'
p1464
a(lp1465
g1455
ag1464
aaa(lp1466
I1870
aI1875
ag1464
a(lp1467
g1446
ag1464
aaa(lp1468
I1870
aI1875
ag1464
a(lp1469
g1437
ag1464
aaa(lp1470
I1870
aI1875
ag1464
a(lp1471
g1428
ag1464
aaa(lp1472
I1881
aI1885
aS'going'
p1473
a(lp1474
g1464
ag1473
aaa(lp1475
I1881
aI1885
ag1473
a(lp1476
g1455
ag1473
aaa(lp1477
I1881
aI1885
ag1473
a(lp1478
g1446
ag1473
aaa(lp1479
I1881
aI1885
ag1473
a(lp1480
g1437
ag1473
aaa(lp1481
I1897
aI1901
aS'heart'
p1482
a(lp1483
g1473
ag1482
aaa(lp1484
I1897
aI1901
ag1482
a(lp1485
g1464
ag1482
aaa(lp1486
I1897
aI1901
ag1482
a(lp1487
g1455
ag1482
aaa(lp1488
I1897
aI1901
ag1482
a(lp1489
g1446
ag1482
aaa(lp1490
I1903
aI1908
aS'attack'
p1491
a(lp1492
g1482
ag1491
aaa(lp1493
I1903
aI1908
ag1491
a(lp1494
g1473
ag1491
aaa(lp1495
I1903
aI1908
ag1491
a(lp1496
g1464
ag1491
aaa(lp1497
I1903
aI1908
ag1491
a(lp1498
g1455
ag1491
aaa(lp1499
I1916
aI1918
aS'end'
p1500
a(lp1501
g1491
ag1500
aaa(lp1502
I1916
aI1918
ag1500
a(lp1503
g1482
ag1500
aaa(lp1504
I1916
aI1918
ag1500
a(lp1505
g1473
ag1500
aaa(lp1506
I1916
aI1918
ag1500
a(lp1507
g1464
ag1500
aaa(lp1508
I1930
aI1933
aS'pain'
p1509
a(lp1510
g1500
ag1509
aaa(lp1511
I1930
aI1933
ag1509
a(lp1512
g1491
ag1509
aaa(lp1513
I1930
aI1933
ag1509
a(lp1514
g1482
ag1509
aaa(lp1515
I1930
aI1933
ag1509
a(lp1516
g1473
ag1509
aaa(lp1517
I1944
aI1947
aS'left'
p1518
a(lp1519
g1509
ag1518
aaa(lp1520
I1944
aI1947
ag1518
a(lp1521
g1500
ag1518
aaa(lp1522
I1944
aI1947
ag1518
a(lp1523
g1491
ag1518
aaa(lp1524
I1944
aI1947
ag1518
a(lp1525
g1482
ag1518
aaa(lp1526
I1949
aI1951
aS'arm'
p1527
a(lp1528
g1518
ag1527
aaa(lp1529
I1949
aI1951
ag1527
a(lp1530
g1509
ag1527
aaa(lp1531
I1949
aI1951
ag1527
a(lp1532
g1500
ag1527
aaa(lp1533
I1949
aI1951
ag1527
a(lp1534
g1491
ag1527
aaa(lp1535
I1964
aI1970
aS'include'
p1536
a(lp1537
g1527
ag1536
aaa(lp1538
I1964
aI1970
ag1536
a(lp1539
g1518
ag1536
aaa(lp1540
I1964
aI1970
ag1536
a(lp1541
g1509
ag1536
aaa(lp1542
I1964
aI1970
ag1536
a(lp1543
g1500
ag1536
aaa(lp1544
I1976
aI1982
aS'forearm'
p1545
a(lp1546
g1536
ag1545
aaa(lp1547
I1976
aI1982
ag1545
a(lp1548
g1527
ag1545
aaa(lp1549
I1976
aI1982
ag1545
a(lp1550
g1518
ag1545
aaa(lp1551
I1976
aI1982
ag1545
a(lp1552
g1509
ag1545
aaa(lp1553
I1984
aI1987
aS'area'
p1554
a(lp1555
g1545
ag1554
aaa(lp1556
I1984
aI1987
ag1554
a(lp1557
g1536
ag1554
aaa(lp1558
I1984
aI1987
ag1554
a(lp1559
g1527
ag1554
aaa(lp1560
I1984
aI1987
ag1554
a(lp1561
g1518
ag1554
aaa(lp1562
I2008
aI2012
aS'chest'
p1563
a(lp1564
g1554
ag1563
aaa(lp1565
I2008
aI2012
ag1563
a(lp1566
g1545
ag1563
aaa(lp1567
I2008
aI2012
ag1563
a(lp1568
g1536
ag1563
aaa(lp1569
I2008
aI2012
ag1563
a(lp1570
g1527
ag1563
aaa(lp1571
I2014
aI2017
aS'pain'
p1572
a(lp1573
g1563
ag1572
aaa(lp1574
I2014
aI2017
ag1572
a(lp1575
g1554
ag1572
aaa(lp1576
I2014
aI2017
ag1572
a(lp1577
g1545
ag1572
aaa(lp1578
I2014
aI2017
ag1572
a(lp1579
g1536
ag1572
aaa(lp1580
I2019
aI2023
aS'along'
p1581
a(lp1582
g1572
ag1581
aaa(lp1583
I2019
aI2023
ag1581
a(lp1584
g1563
ag1581
aaa(lp1585
I2019
aI2023
ag1581
a(lp1586
g1554
ag1581
aaa(lp1587
I2019
aI2023
ag1581
a(lp1588
g1545
ag1581
aaa(lp1589
I2035
aI2041
aS'forearm'
p1590
a(lp1591
g1581
ag1590
aaa(lp1592
I2035
aI2041
ag1590
a(lp1593
g1572
ag1590
aaa(lp1594
I2035
aI2041
ag1590
a(lp1595
g1563
ag1590
aaa(lp1596
I2035
aI2041
ag1590
a(lp1597
g1554
ag1590
aaa(lp1598
I2043
aI2046
aS'pain'
p1599
a(lp1600
g1590
ag1599
aaa(lp1601
I2043
aI2046
ag1599
a(lp1602
g1581
ag1599
aaa(lp1603
I2043
aI2046
ag1599
a(lp1604
g1572
ag1599
aaa(lp1605
I2043
aI2046
ag1599
a(lp1606
g1563
ag1599
aaa(lp1607
I2060
aI2063
aS'pain'
p1608
a(lp1609
g1599
ag1608
aaa(lp1610
I2060
aI2063
ag1608
a(lp1611
g1590
ag1608
aaa(lp1612
I2060
aI2063
ag1608
a(lp1613
g1581
ag1608
aaa(lp1614
I2060
aI2063
ag1608
a(lp1615
g1572
ag1608
aaa(lp1616
I2077
aI2082
aS'entire'
p1617
a(lp1618
g1608
ag1617
aaa(lp1619
I2077
aI2082
ag1617
a(lp1620
g1599
ag1617
aaa(lp1621
I2077
aI2082
ag1617
a(lp1622
g1590
ag1617
aaa(lp1623
I2077
aI2082
ag1617
a(lp1624
g1581
ag1617
aaa(lp1625
I2084
aI2086
aS'arm'
p1626
a(lp1627
g1617
ag1626
aaa(lp1628
I2084
aI2086
ag1626
a(lp1629
g1608
ag1626
aaa(lp1630
I2084
aI2086
ag1626
a(lp1631
g1599
ag1626
aaa(lp1632
I2084
aI2086
ag1626
a(lp1633
g1590
ag1626
aaa(lp1634
I2104
aI2106
aS'one'
p1635
a(lp1636
g1626
ag1635
aaa(lp1637
I2104
aI2106
ag1635
a(lp1638
g1617
ag1635
aaa(lp1639
I2104
aI2106
ag1635
a(lp1640
g1608
ag1635
aaa(lp1641
I2104
aI2106
ag1635
a(lp1642
g1599
ag1635
aaa(lp1643
I2108
aI2111
aS'side'
p1644
a(lp1645
g1635
ag1644
aaa(lp1646
I2108
aI2111
ag1644
a(lp1647
g1626
ag1644
aaa(lp1648
I2108
aI2111
ag1644
a(lp1649
g1617
ag1644
aaa(lp1650
I2108
aI2111
ag1644
a(lp1651
g1608
ag1644
aaa(lp1652
I2125
aI2128
aS'seek'
p1653
a(lp1654
g1644
ag1653
aaa(lp1655
I2125
aI2128
ag1653
a(lp1656
g1635
ag1653
aaa(lp1657
I2125
aI2128
ag1653
a(lp1658
g1626
ag1653
aaa(lp1659
I2125
aI2128
ag1653
a(lp1660
g1617
ag1653
aaa(lp1661
I2130
aI2136
aS'medical'
p1662
a(lp1663
g1653
ag1662
aaa(lp1664
I2130
aI2136
ag1662
a(lp1665
g1644
ag1662
aaa(lp1666
I2130
aI2136
ag1662
a(lp1667
g1635
ag1662
aaa(lp1668
I2130
aI2136
ag1662
a(lp1669
g1626
ag1662
aaa(lp1670
I2138
aI2146
aS'attention'
p1671
a(lp1672
g1662
ag1671
aaa(lp1673
I2138
aI2146
ag1671
a(lp1674
g1653
ag1671
aaa(lp1675
I2138
aI2146
ag1671
a(lp1676
g1644
ag1671
aaa(lp1677
I2138
aI2146
ag1671
a(lp1678
g1635
ag1671
aaa(lp1679
I2151
aI2154
aS'soon'
p1680
a(lp1681
g1671
ag1680
aaa(lp1682
I2151
aI2154
ag1680
a(lp1683
g1662
ag1680
aaa(lp1684
I2151
aI2154
ag1680
a(lp1685
g1653
ag1680
aaa(lp1686
I2151
aI2154
ag1680
a(lp1687
g1644
ag1680
aaa(lp1688
I2159
aI2166
aS'possible'
p1689
a(lp1690
g1680
ag1689
aaa(lp1691
I2159
aI2166
ag1689
a(lp1692
g1671
ag1689
aaa(lp1693
I2159
aI2166
ag1689
a(lp1694
g1662
ag1689
aaa(lp1695
I2159
aI2166
ag1689
a(lp1696
g1653
ag1689
aaa(lp1697
I2184
aI2186
aS'see'
p1698
a(lp1699
g1689
ag1698
aaa(lp1700
I2184
aI2186
ag1698
a(lp1701
g1680
ag1698
aaa(lp1702
I2184
aI2186
ag1698
a(lp1703
g1671
ag1698
aaa(lp1704
I2184
aI2186
ag1698
a(lp1705
g1662
ag1698
aaa(lp1706
I2189
aI2192
aS'pain'
p1707
a(lp1708
g1698
ag1707
aaa(lp1709
I2189
aI2192
ag1707
a(lp1710
g1689
ag1707
aaa(lp1711
I2189
aI2192
ag1707
a(lp1712
g1680
ag1707
aaa(lp1713
I2189
aI2192
ag1707
a(lp1714
g1671
ag1707
aaa(lp1715
I2201
aI2207
aS'forearm'
p1716
a(lp1717
g1707
ag1716
aaa(lp1718
I2201
aI2207
ag1716
a(lp1719
g1698
ag1716
aaa(lp1720
I2201
aI2207
ag1716
a(lp1721
g1689
ag1716
aaa(lp1722
I2201
aI2207
ag1716
a(lp1723
g1680
ag1716
aaa(lp1724
I2216
aI2221
aS'always'
p1725
a(lp1726
g1716
ag1725
aaa(lp1727
I2216
aI2221
ag1725
a(lp1728
g1707
ag1725
aaa(lp1729
I2216
aI2221
ag1725
a(lp1730
g1698
ag1725
aaa(lp1731
I2216
aI2221
ag1725
a(lp1732
g1689
ag1725
aaa(lp1733
I2225
aI2228
aS'sign'
p1734
a(lp1735
g1725
ag1734
aaa(lp1736
I2225
aI2228
ag1734
a(lp1737
g1716
ag1734
aaa(lp1738
I2225
aI2228
ag1734
a(lp1739
g1707
ag1734
aaa(lp1740
I2225
aI2228
ag1734
a(lp1741
g1698
ag1734
aaa(lp1742
I2233
aI2239
aS'dealing'
p1743
a(lp1744
g1734
ag1743
aaa(lp1745
I2233
aI2239
ag1743
a(lp1746
g1725
ag1743
aaa(lp1747
I2233
aI2239
ag1743
a(lp1748
g1716
ag1743
aaa(lp1749
I2233
aI2239
ag1743
a(lp1750
g1707
ag1743
aaa(lp1751
I2246
aI2251
aS'carpal'
p1752
a(lp1753
g1743
ag1752
aaa(lp1754
I2246
aI2251
ag1752
a(lp1755
g1734
ag1752
aaa(lp1756
I2246
aI2251
ag1752
a(lp1757
g1725
ag1752
aaa(lp1758
I2246
aI2251
ag1752
a(lp1759
g1716
ag1752
aaa(lp1760
I2253
aI2258
aS'tunnel'
p1761
a(lp1762
g1752
ag1761
aaa(lp1763
I2253
aI2258
ag1761
a(lp1764
g1743
ag1761
aaa(lp1765
I2253
aI2258
ag1761
a(lp1766
g1734
ag1761
aaa(lp1767
I2253
aI2258
ag1761
a(lp1768
g1725
ag1761
aaa(lp1769
I2260
aI2267
aS'syndrome'
p1770
a(lp1771
g1761
ag1770
aaa(lp1772
I2260
aI2267
ag1770
a(lp1773
g1752
ag1770
aaa(lp1774
I2260
aI2267
ag1770
a(lp1775
g1743
ag1770
aaa(lp1776
I2260
aI2267
ag1770
a(lp1777
g1734
ag1770
aaa(lp1778
I2291
aI2297
aS'serious'
p1779
a(lp1780
g1770
ag1779
aaa(lp1781
I2291
aI2297
ag1779
a(lp1782
g1761
ag1779
aaa(lp1783
I2291
aI2297
ag1779
a(lp1784
g1752
ag1779
aaa(lp1785
I2291
aI2297
ag1779
a(lp1786
g1743
ag1779
aaa(lp1787
I2299
aI2306
aS'problems'
p1788
a(lp1789
g1779
ag1788
aaa(lp1790
I2299
aI2306
ag1788
a(lp1791
g1770
ag1788
aaa(lp1792
I2299
aI2306
ag1788
a(lp1793
g1761
ag1788
aaa(lp1794
I2299
aI2306
ag1788
a(lp1795
g1752
ag1788
aaa(lp1796
I2317
aI2321
aS'cause'
p1797
a(lp1798
g1788
ag1797
aaa(lp1799
I2317
aI2321
ag1797
a(lp1800
g1779
ag1797
aaa(lp1801
I2317
aI2321
ag1797
a(lp1802
g1770
ag1797
aaa(lp1803
I2317
aI2321
ag1797
a(lp1804
g1761
ag1797
aaa(lp1805
I2323
aI2329
aS'similar'
p1806
a(lp1807
g1797
ag1806
aaa(lp1808
I2323
aI2329
ag1806
a(lp1809
g1788
ag1806
aaa(lp1810
I2323
aI2329
ag1806
a(lp1811
g1779
ag1806
aaa(lp1812
I2323
aI2329
ag1806
a(lp1813
g1770
ag1806
aaa(lp1814
I2331
aI2334
aS'pain'
p1815
a(lp1816
g1806
ag1815
aaa(lp1817
I2331
aI2334
ag1815
a(lp1818
g1797
ag1815
aaa(lp1819
I2331
aI2334
ag1815
a(lp1820
g1788
ag1815
aaa(lp1821
I2331
aI2334
ag1815
a(lp1822
g1779
ag1815
aaa(lp1823
I2346
aI2351
aS'reason'
p1824
a(lp1825
g1815
ag1824
aaa(lp1826
I2346
aI2351
ag1824
a(lp1827
g1806
ag1824
aaa(lp1828
I2346
aI2351
ag1824
a(lp1829
g1797
ag1824
aaa(lp1830
I2346
aI2351
ag1824
a(lp1831
g1788
ag1824
aaa(lp1832
I2354
aI2358
aS'going'
p1833
a(lp1834
g1824
ag1833
aaa(lp1835
I2354
aI2358
ag1833
a(lp1836
g1815
ag1833
aaa(lp1837
I2354
aI2358
ag1833
a(lp1838
g1806
ag1833
aaa(lp1839
I2354
aI2358
ag1833
a(lp1840
g1797
ag1833
aaa(lp1841
I2368
aI2373
aS'doctor'
p1842
a(lp1843
g1833
ag1842
aaa(lp1844
I2368
aI2373
ag1842
a(lp1845
g1824
ag1842
aaa(lp1846
I2368
aI2373
ag1842
a(lp1847
g1815
ag1842
aaa(lp1848
I2368
aI2373
ag1842
a(lp1849
g1806
ag1842
aaa(lp1850
I2379
aI2385
aS'letting'
p1851
a(lp1852
g1842
ag1851
aaa(lp1853
I2379
aI2385
ag1851
a(lp1854
g1833
ag1851
aaa(lp1855
I2379
aI2385
ag1851
a(lp1856
g1824
ag1851
aaa(lp1857
I2379
aI2385
ag1851
a(lp1858
g1815
ag1851
aaa(lp1859
I2391
aI2394
aS'know'
p1860
a(lp1861
g1851
ag1860
aaa(lp1862
I2391
aI2394
ag1860
a(lp1863
g1842
ag1860
aaa(lp1864
I2391
aI2394
ag1860
a(lp1865
g1833
ag1860
aaa(lp1866
I2391
aI2394
ag1860
a(lp1867
g1824
ag1860
aaa(lp1868
I2406
aI2409
aS'pain'
p1869
a(lp1870
g1860
ag1869
aaa(lp1871
I2406
aI2409
ag1869
a(lp1872
g1851
ag1869
aaa(lp1873
I2406
aI2409
ag1869
a(lp1874
g1842
ag1869
aaa(lp1875
I2406
aI2409
ag1869
a(lp1876
g1833
ag1869
aaa(lp1877
I2423
aI2431
aS'important'
p1878
a(lp1879
g1869
ag1878
aaa(lp1880
I2423
aI2431
ag1878
a(lp1881
g1860
ag1878
aaa(lp1882
I2423
aI2431
ag1878
a(lp1883
g1851
ag1878
aaa(lp1884
I2423
aI2431
ag1878
a(lp1885
g1842
ag1878
aaa(lp1886
I2436
aI2442
aS'receive'
p1887
a(lp1888
g1878
ag1887
aaa(lp1889
I2436
aI2442
ag1887
a(lp1890
g1869
ag1887
aaa(lp1891
I2436
aI2442
ag1887
a(lp1892
g1860
ag1887
aaa(lp1893
I2436
aI2442
ag1887
a(lp1894
g1851
ag1887
aaa(lp1895
I2448
aI2452
aS'right'
p1896
a(lp1897
g1887
ag1896
aaa(lp1898
I2448
aI2452
ag1896
a(lp1899
g1878
ag1896
aaa(lp1900
I2448
aI2452
ag1896
a(lp1901
g1869
ag1896
aaa(lp1902
I2448
aI2452
ag1896
a(lp1903
g1860
ag1896
aaa(lp1904
I2448
aI2452
aS'treatment'
p1905
a(lp1906
g1896
ag1905
aaa(lp1907
I2448
aI2452
ag1905
a(lp1908
g1887
ag1905
aaa(lp1909
I2448
aI2452
ag1905
a(lp1910
g1878
ag1905
aaa(lp1911
I2448
aI2452
ag1905
a(lp1912
g1869
ag1905
aaasS'wordMap'
p1913
(lp1914
(lp1915
I0
aI5
ag5
a(lp1916
(lp1917
I0
aS'c'
p1918
aa(lp1919
I1
aS'a'
p1920
aa(lp1921
I2
aS'r'
p1922
aa(lp1923
I3
aS'p'
p1924
aa(lp1925
I4
ag1920
aa(lp1926
I5
aS'l'
p1927
aaaa(lp1928
I7
aI12
ag15
a(lp1929
(lp1930
I7
aS't'
p1931
aa(lp1932
I8
aS'u'
p1933
aa(lp1934
I9
aS'n'
p1935
aa(lp1936
I10
ag1935
aa(lp1937
I11
aS'e'
p1938
aa(lp1939
I12
ag1927
aaaa(lp1940
I14
aI15
aS'is'
p1941
a(lp1942
(lp1943
I14
aS'i'
p1944
aa(lp1945
I15
aS's'
p1946
aaaa(lp1947
I17
aI19
aS'not'
p1948
a(lp1949
(lp1950
I17
ag1935
aa(lp1951
I18
aS'o'
p1952
aa(lp1953
I19
ag1931
aaaa(lp1954
I21
aI23
aS'the'
p1955
a(lp1956
(lp1957
I21
ag1931
aa(lp1958
I22
aS'h'
p1959
aa(lp1960
I23
ag1938
aaaa(lp1961
I25
aI28
aS'only'
p1962
a(lp1963
(lp1964
I25
ag1952
aa(lp1965
I26
ag1935
aa(lp1966
I27
ag1927
aa(lp1967
I28
aS'y'
p1968
aaaa(lp1969
I30
aI34
ag24
a(lp1970
(lp1971
I30
ag1918
aa(lp1972
I31
ag1920
aa(lp1973
I32
ag1933
aa(lp1974
I33
ag1946
aa(lp1975
I34
ag1938
aaaa(lp1976
I36
aI37
aS'of'
p1977
a(lp1978
(lp1979
I36
ag1952
aa(lp1980
I37
aS'f'
p1981
aaaa(lp1982
I39
aI45
ag33
a(lp1983
(lp1984
I39
ag1981
aa(lp1985
I40
ag1952
aa(lp1986
I41
ag1922
aa(lp1987
I42
ag1938
aa(lp1988
I43
ag1920
aa(lp1989
I44
ag1922
aa(lp1990
I45
aS'm'
p1991
aaaa(lp1992
I47
aI50
ag42
a(lp1993
(lp1994
I47
ag1924
aa(lp1995
I48
ag1920
aa(lp1996
I49
ag1944
aa(lp1997
I50
ag1935
aaaa(lp1998
I52
aI60
ag51
a(lp1999
(lp2000
I52
aS'w'
p2001
aa(lp2002
I53
ag1938
aa(lp2003
I54
aS'd'
p2004
aa(lp2005
I55
ag1935
aa(lp2006
I56
ag1938
aa(lp2007
I57
ag1946
aa(lp2008
I58
ag2004
aa(lp2009
I59
ag1920
aa(lp2010
I60
ag1968
aaaa(lp2011
I63
aI70
ag60
a(lp2012
(lp2013
I63
ag1935
aa(lp2014
I64
ag1952
aa(lp2015
I65
aS'v'
p2016
aa(lp2017
I66
ag1938
aa(lp2018
I67
ag1991
aa(lp2019
I68
aS'b'
p2020
aa(lp2021
I69
ag1938
aa(lp2022
I70
ag1922
aaaa(lp2023
I72
aI73
ag69
a(lp2024
(lp2025
I72
aS'2'
p2026
aa(lp2027
I73
aS'6'
p2028
aaaa(lp2029
I76
aI79
ag78
a(lp2030
(lp2031
I76
ag2026
aa(lp2032
I77
aS'0'
p2033
aa(lp2034
I78
ag2033
aa(lp2035
I79
aS'8'
p2036
aaaa(lp2037
I81
aI87
ag87
a(lp2038
(lp2039
I81
ag2004
aa(lp2040
I82
ag1938
aa(lp2041
I83
ag1920
aa(lp2042
I84
ag1927
aa(lp2043
I85
ag1944
aa(lp2044
I86
ag1935
aa(lp2045
I87
aS'g'
p2046
aaaa(lp2047
I89
aI92
aS'with'
p2048
a(lp2049
(lp2050
I89
ag2001
aa(lp2051
I90
ag1944
aa(lp2052
I91
ag1931
aa(lp2053
I92
ag1959
aaaa(lp2054
I94
aI100
ag96
a(lp2055
(lp2056
I94
ag1981
aa(lp2057
I95
ag1952
aa(lp2058
I96
ag1922
aa(lp2059
I97
ag1938
aa(lp2060
I98
ag1920
aa(lp2061
I99
ag1922
aa(lp2062
I100
ag1991
aaaa(lp2063
I102
aI105
ag105
a(lp2064
(lp2065
I102
ag1924
aa(lp2066
I103
ag1920
aa(lp2067
I104
ag1944
aa(lp2068
I105
ag1935
aaaa(lp2069
I108
aI111
aS'this'
p2070
a(lp2071
(lp2072
I108
ag1931
aa(lp2073
I109
ag1959
aa(lp2074
I110
ag1944
aa(lp2075
I111
ag1946
aaaa(lp2076
I113
aI114
aS'is'
p2077
a(lp2078
(lp2079
I113
ag1944
aa(lp2080
I114
ag1946
aaaa(lp2081
I116
aI116
ag1920
a(lp2082
(lp2083
I116
ag1920
aaaa(lp2084
I118
aI121
ag114
a(lp2085
(lp2086
I118
ag1924
aa(lp2087
I119
ag1920
aa(lp2088
I120
ag1944
aa(lp2089
I121
ag1935
aaaa(lp2090
I123
aI126
aS'that'
p2091
a(lp2092
(lp2093
I123
ag1931
aa(lp2094
I124
ag1959
aa(lp2095
I125
ag1920
aa(lp2096
I126
ag1931
aaaa(lp2097
I128
aI133
ag123
a(lp2098
(lp2099
I128
ag1952
aa(lp2100
I129
ag1918
aa(lp2101
I130
ag1918
aa(lp2102
I131
ag1933
aa(lp2103
I132
ag1922
aa(lp2104
I133
ag1946
aaaa(lp2105
I135
aI136
aS'in'
p2106
a(lp2107
(lp2108
I135
ag1944
aa(lp2109
I136
ag1935
aaaa(lp2110
I138
aI140
aS'the'
p2111
a(lp2112
(lp2113
I138
ag1931
aa(lp2114
I139
ag1959
aa(lp2115
I140
ag1938
aaaa(lp2116
I142
aI148
ag132
a(lp2117
(lp2118
I142
ag1981
aa(lp2119
I143
ag1952
aa(lp2120
I144
ag1922
aa(lp2121
I145
ag1938
aa(lp2122
I146
ag1920
aa(lp2123
I147
ag1922
aa(lp2124
I148
ag1991
aaaa(lp2125
I150
aI153
ag141
a(lp2126
(lp2127
I150
ag1920
aa(lp2128
I151
ag1922
aa(lp2129
I152
ag1938
aa(lp2130
I153
ag1920
aaaa(lp2131
I155
aI157
aS'and'
p2132
a(lp2133
(lp2134
I155
ag1920
aa(lp2135
I156
ag1935
aa(lp2136
I157
ag2004
aaaa(lp2137
I159
aI160
aS'it'
p2138
a(lp2139
(lp2140
I159
ag1944
aa(lp2141
I160
ag1931
aaaa(lp2142
I162
aI164
aS'can'
p2143
a(lp2144
(lp2145
I162
ag1918
aa(lp2146
I163
ag1920
aa(lp2147
I164
ag1935
aaaa(lp2148
I166
aI167
aS'be'
p2149
a(lp2150
(lp2151
I166
ag2020
aa(lp2152
I167
ag1938
aaaa(lp2153
I169
aI174
ag150
a(lp2154
(lp2155
I169
ag1918
aa(lp2156
I170
ag1920
aa(lp2157
I171
ag1933
aa(lp2158
I172
ag1946
aa(lp2159
I173
ag1938
aa(lp2160
I174
ag2004
aaaa(lp2161
I176
aI177
aS'by'
p2162
a(lp2163
(lp2164
I176
ag2020
aa(lp2165
I177
ag1968
aaaa(lp2166
I179
aI179
ag1920
a(lp2167
(lp2168
I179
ag1920
aaaa(lp2169
I181
aI187
ag159
a(lp2170
(lp2171
I181
ag2016
aa(lp2172
I182
ag1920
aa(lp2173
I183
ag1922
aa(lp2174
I184
ag1944
aa(lp2175
I185
ag1938
aa(lp2176
I186
ag1931
aa(lp2177
I187
ag1968
aaaa(lp2178
I189
aI190
aS'of'
p2179
a(lp2180
(lp2181
I189
ag1952
aa(lp2182
I190
ag1981
aaaa(lp2183
I192
aI200
ag168
a(lp2184
(lp2185
I192
ag2004
aa(lp2186
I193
ag1944
aa(lp2187
I194
ag1981
aa(lp2188
I195
ag1981
aa(lp2189
I196
ag1938
aa(lp2190
I197
ag1922
aa(lp2191
I198
ag1938
aa(lp2192
I199
ag1935
aa(lp2193
I200
ag1931
aaaa(lp2194
I202
aI209
ag177
a(lp2195
(lp2196
I202
ag1924
aa(lp2197
I203
ag1922
aa(lp2198
I204
ag1952
aa(lp2199
I205
ag2020
aa(lp2200
I206
ag1927
aa(lp2201
I207
ag1938
aa(lp2202
I208
ag1991
aa(lp2203
I209
ag1946
aaaa(lp2204
I212
aI215
ag186
a(lp2205
(lp2206
I212
ag1991
aa(lp2207
I213
ag1920
aa(lp2208
I214
ag1935
aa(lp2209
I215
ag1968
aaaa(lp2210
I217
aI221
ag195
a(lp2211
(lp2212
I217
ag1931
aa(lp2213
I218
ag1944
aa(lp2214
I219
ag1991
aa(lp2215
I220
ag1938
aa(lp2216
I221
ag1946
aaaa(lp2217
I223
aI224
aS'it'
p2218
a(lp2219
(lp2220
I223
ag1944
aa(lp2221
I224
ag1931
aaaa(lp2222
I226
aI227
aS'is'
p2223
a(lp2224
(lp2225
I226
ag1944
aa(lp2226
I227
ag1946
aaaa(lp2227
I229
aI234
ag204
a(lp2228
(lp2229
I229
ag1918
aa(lp2230
I230
ag1920
aa(lp2231
I231
ag1933
aa(lp2232
I232
ag1946
aa(lp2233
I233
ag1938
aa(lp2234
I234
ag2004
aaaa(lp2235
I236
aI237
aS'by'
p2236
a(lp2237
(lp2238
I236
ag2020
aa(lp2239
I237
ag1968
aaaa(lp2240
I239
aI244
ag213
a(lp2241
(lp2242
I239
ag1918
aa(lp2243
I240
ag1920
aa(lp2244
I241
ag1922
aa(lp2245
I242
ag1924
aa(lp2246
I243
ag1920
aa(lp2247
I244
ag1927
aaaa(lp2248
I246
aI251
ag222
a(lp2249
(lp2250
I246
ag1931
aa(lp2251
I247
ag1933
aa(lp2252
I248
ag1935
aa(lp2253
I249
ag1935
aa(lp2254
I250
ag1938
aa(lp2255
I251
ag1927
aaaa(lp2256
I253
aI260
ag231
a(lp2257
(lp2258
I253
ag1946
aa(lp2259
I254
ag1968
aa(lp2260
I255
ag1935
aa(lp2261
I256
ag2004
aa(lp2262
I257
ag1922
aa(lp2263
I258
ag1952
aa(lp2264
I259
ag1991
aa(lp2265
I260
ag1938
aaaa(lp2266
I263
aI269
ag240
a(lp2267
(lp2268
I263
ag1959
aa(lp2269
I264
ag1952
aa(lp2270
I265
ag2001
aa(lp2271
I266
ag1938
aa(lp2272
I267
ag2016
aa(lp2273
I268
ag1938
aa(lp2274
I269
ag1922
aaaa(lp2275
I272
aI273
aS'if'
p2276
a(lp2277
(lp2278
I272
ag1944
aa(lp2279
I273
ag1981
aaaa(lp2280
I275
aI277
aS'you'
p2281
a(lp2282
(lp2283
I275
ag1968
aa(lp2284
I276
ag1952
aa(lp2285
I277
ag1933
aaaa(lp2286
I279
aI281
aS'are'
p2287
a(lp2288
(lp2289
I279
ag1920
aa(lp2290
I280
ag1922
aa(lp2291
I281
ag1938
aaaa(lp2292
I283
aI289
ag249
a(lp2293
(lp2294
I283
ag2004
aa(lp2295
I284
ag1938
aa(lp2296
I285
ag1920
aa(lp2297
I286
ag1927
aa(lp2298
I287
ag1944
aa(lp2299
I288
ag1935
aa(lp2300
I289
ag2046
aaaa(lp2301
I291
aI294
aS'with'
p2302
a(lp2303
(lp2304
I291
ag2001
aa(lp2305
I292
ag1944
aa(lp2306
I293
ag1931
aa(lp2307
I294
ag1959
aaaa(lp2308
I296
aI299
ag258
a(lp2309
(lp2310
I296
ag1924
aa(lp2311
I297
ag1920
aa(lp2312
I298
ag1944
aa(lp2313
I299
ag1935
aaaa(lp2314
I301
aI302
aS'in'
p2315
a(lp2316
(lp2317
I301
ag1944
aa(lp2318
I302
ag1935
aaaa(lp2319
I304
aI307
aS'your'
p2320
a(lp2321
(lp2322
I304
ag1968
aa(lp2323
I305
ag1952
aa(lp2324
I306
ag1933
aa(lp2325
I307
ag1922
aaaa(lp2326
I309
aI315
ag267
a(lp2327
(lp2328
I309
ag1981
aa(lp2329
I310
ag1952
aa(lp2330
I311
ag1922
aa(lp2331
I312
ag1938
aa(lp2332
I313
ag1920
aa(lp2333
I314
ag1922
aa(lp2334
I315
ag1991
aaaa(lp2335
I318
aI320
aS'you'
p2336
a(lp2337
(lp2338
I318
ag1968
aa(lp2339
I319
ag1952
aa(lp2340
I320
ag1933
aaaa(lp2341
I322
aI325
ag276
a(lp2342
(lp2343
I322
ag1935
aa(lp2344
I323
ag1938
aa(lp2345
I324
ag1938
aa(lp2346
I325
ag2004
aaaa(lp2347
I327
aI328
aS'to'
p2348
a(lp2349
(lp2350
I327
ag1931
aa(lp2351
I328
ag1952
aaaa(lp2352
I330
aI339
ag285
a(lp2353
(lp2354
I330
ag1933
aa(lp2355
I331
ag1935
aa(lp2356
I332
ag2004
aa(lp2357
I333
ag1938
aa(lp2358
I334
ag1922
aa(lp2359
I335
ag1946
aa(lp2360
I336
ag1931
aa(lp2361
I337
ag1920
aa(lp2362
I338
ag1935
aa(lp2363
I339
ag2004
aaaa(lp2364
I341
aI344
aS'that'
p2365
a(lp2366
(lp2367
I341
ag1931
aa(lp2368
I342
ag1959
aa(lp2369
I343
ag1920
aa(lp2370
I344
ag1931
aaaa(lp2371
I346
aI351
ag294
a(lp2372
(lp2373
I346
ag1918
aa(lp2374
I347
ag1920
aa(lp2375
I348
ag1922
aa(lp2376
I349
ag1924
aa(lp2377
I350
ag1920
aa(lp2378
I351
ag1927
aaaa(lp2379
I353
aI358
ag303
a(lp2380
(lp2381
I353
ag1931
aa(lp2382
I354
ag1933
aa(lp2383
I355
ag1935
aa(lp2384
I356
ag1935
aa(lp2385
I357
ag1938
aa(lp2386
I358
ag1927
aaaa(lp2387
I360
aI367
ag312
a(lp2388
(lp2389
I360
ag1946
aa(lp2390
I361
ag1968
aa(lp2391
I362
ag1935
aa(lp2392
I363
ag2004
aa(lp2393
I364
ag1922
aa(lp2394
I365
ag1952
aa(lp2395
I366
ag1991
aa(lp2396
I367
ag1938
aaaa(lp2397
I369
aI370
aS'is'
p2398
a(lp2399
(lp2400
I369
ag1944
aa(lp2401
I370
ag1946
aaaa(lp2402
I372
aI374
aS'not'
p2403
a(lp2404
(lp2405
I372
ag1935
aa(lp2406
I373
ag1952
aa(lp2407
I374
ag1931
aaaa(lp2408
I376
aI381
ag321
a(lp2409
(lp2410
I376
ag1920
aa(lp2411
I377
ag1927
aa(lp2412
I378
ag2001
aa(lp2413
I379
ag1920
aa(lp2414
I380
ag1968
aa(lp2415
I381
ag1946
aaaa(lp2416
I383
aI385
aS'the'
p2417
a(lp2418
(lp2419
I383
ag1931
aa(lp2420
I384
ag1959
aa(lp2421
I385
ag1938
aaaa(lp2422
I387
aI393
ag330
a(lp2423
(lp2424
I387
ag1924
aa(lp2425
I388
ag1922
aa(lp2426
I389
ag1952
aa(lp2427
I390
ag2020
aa(lp2428
I391
ag1927
aa(lp2429
I392
ag1938
aa(lp2430
I393
ag1991
aaaa(lp2431
I396
aI400
aS'there'
p2432
a(lp2433
(lp2434
I396
ag1931
aa(lp2435
I397
ag1959
aa(lp2436
I398
ag1938
aa(lp2437
I399
ag1922
aa(lp2438
I400
ag1938
aaaa(lp2439
I402
aI404
aS'are'
p2440
a(lp2441
(lp2442
I402
ag1920
aa(lp2443
I403
ag1922
aa(lp2444
I404
ag1938
aaaa(lp2445
I406
aI409
ag339
a(lp2446
(lp2447
I406
ag1991
aa(lp2448
I407
ag1920
aa(lp2449
I408
ag1935
aa(lp2450
I409
ag1968
aaaa(lp2451
I411
aI415
aS'other'
p2452
a(lp2453
(lp2454
I411
ag1952
aa(lp2455
I412
ag1931
aa(lp2456
I413
ag1959
aa(lp2457
I414
ag1938
aa(lp2458
I415
ag1922
aaaa(lp2459
I417
aI422
ag348
a(lp2460
(lp2461
I417
ag1918
aa(lp2462
I418
ag1920
aa(lp2463
I419
ag1933
aa(lp2464
I420
ag1946
aa(lp2465
I421
ag1938
aa(lp2466
I422
ag1946
aaaa(lp2467
I424
aI425
aS'of'
p2468
a(lp2469
(lp2470
I424
ag1952
aa(lp2471
I425
ag1981
aaaa(lp2472
I427
aI433
ag357
a(lp2473
(lp2474
I427
ag1981
aa(lp2475
I428
ag1952
aa(lp2476
I429
ag1922
aa(lp2477
I430
ag1938
aa(lp2478
I431
ag1920
aa(lp2479
I432
ag1922
aa(lp2480
I433
ag1991
aaaa(lp2481
I435
aI438
ag366
a(lp2482
(lp2483
I435
ag1924
aa(lp2484
I436
ag1920
aa(lp2485
I437
ag1944
aa(lp2486
I438
ag1935
aaaa(lp2487
I440
aI443
aS'that'
p2488
a(lp2489
(lp2490
I440
ag1931
aa(lp2491
I441
ag1959
aa(lp2492
I442
ag1920
aa(lp2493
I443
ag1931
aaaa(lp2494
I445
aI447
aS'you'
p2495
a(lp2496
(lp2497
I445
ag1968
aa(lp2498
I446
ag1952
aa(lp2499
I447
ag1933
aaaa(lp2500
I449
aI454
aS'should'
p2501
a(lp2502
(lp2503
I449
ag1946
aa(lp2504
I450
ag1959
aa(lp2505
I451
ag1952
aa(lp2506
I452
ag1933
aa(lp2507
I453
ag1927
aa(lp2508
I454
ag2004
aaaa(lp2509
I456
aI457
aS'be'
p2510
a(lp2511
(lp2512
I456
ag2020
aa(lp2513
I457
ag1938
aaaa(lp2514
I459
aI463
ag375
a(lp2515
(lp2516
I459
ag1920
aa(lp2517
I460
ag2001
aa(lp2518
I461
ag1920
aa(lp2519
I462
ag1922
aa(lp2520
I463
ag1938
aaaa(lp2521
I465
aI466
aS'of'
p2522
a(lp2523
(lp2524
I465
ag1952
aa(lp2525
I466
ag1981
aaaa(lp2526
I469
aI472
aS'here'
p2527
a(lp2528
(lp2529
I469
ag1959
aa(lp2530
I470
ag1938
aa(lp2531
I471
ag1922
aa(lp2532
I472
ag1938
aaaa(lp2533
I474
aI475
aS'is'
p2534
a(lp2535
(lp2536
I474
ag1944
aa(lp2537
I475
ag1946
aaaa(lp2538
I477
aI477
ag1920
a(lp2539
(lp2540
I477
ag1920
aaaa(lp2541
I479
aI482
ag384
a(lp2542
(lp2543
I479
ag1927
aa(lp2544
I480
ag1952
aa(lp2545
I481
ag1952
aa(lp2546
I482
aS'k'
p2547
aaaa(lp2548
I484
aI485
aS'at'
p2549
a(lp2550
(lp2551
I484
ag1920
aa(lp2552
I485
ag1931
aaaa(lp2553
I487
aI490
aS'some'
p2554
a(lp2555
(lp2556
I487
ag1946
aa(lp2557
I488
ag1952
aa(lp2558
I489
ag1991
aa(lp2559
I490
ag1938
aaaa(lp2560
I492
aI493
aS'of'
p2561
a(lp2562
(lp2563
I492
ag1952
aa(lp2564
I493
ag1981
aaaa(lp2565
I495
aI497
aS'the'
p2566
a(lp2567
(lp2568
I495
ag1931
aa(lp2569
I496
ag1959
aa(lp2570
I497
ag1938
aaaa(lp2571
I499
aI506
ag393
a(lp2572
(lp2573
I499
ag1924
aa(lp2574
I500
ag1922
aa(lp2575
I501
ag1952
aa(lp2576
I502
ag2020
aa(lp2577
I503
ag1927
aa(lp2578
I504
ag1938
aa(lp2579
I505
ag1991
aa(lp2580
I506
ag1946
aaaa(lp2581
I509
aI513
aS'other'
p2582
a(lp2583
(lp2584
I509
ag1952
aa(lp2585
I510
ag1931
aa(lp2586
I511
ag1959
aa(lp2587
I512
ag1938
aa(lp2588
I513
ag1922
aaaa(lp2589
I515
aI518
aS'than'
p2590
a(lp2591
(lp2592
I515
ag1931
aa(lp2593
I516
ag1959
aa(lp2594
I517
ag1920
aa(lp2595
I518
ag1935
aaaa(lp2596
I520
aI525
ag402
a(lp2597
(lp2598
I520
ag1918
aa(lp2599
I521
ag1920
aa(lp2600
I522
ag1922
aa(lp2601
I523
ag1924
aa(lp2602
I524
ag1920
aa(lp2603
I525
ag1927
aaaa(lp2604
I527
aI532
ag411
a(lp2605
(lp2606
I527
ag1931
aa(lp2607
I528
ag1933
aa(lp2608
I529
ag1935
aa(lp2609
I530
ag1935
aa(lp2610
I531
ag1938
aa(lp2611
I532
ag1927
aaaa(lp2612
I534
aI541
ag420
a(lp2613
(lp2614
I534
ag1946
aa(lp2615
I535
ag1968
aa(lp2616
I536
ag1935
aa(lp2617
I537
ag2004
aa(lp2618
I538
ag1922
aa(lp2619
I539
ag1952
aa(lp2620
I540
ag1991
aa(lp2621
I541
ag1938
aaaa(lp2622
I544
aI547
aS'that'
p2623
a(lp2624
(lp2625
I544
ag1931
aa(lp2626
I545
ag1959
aa(lp2627
I546
ag1920
aa(lp2628
I547
ag1931
aaaa(lp2629
I549
aI551
aS'can'
p2630
a(lp2631
(lp2632
I549
ag1918
aa(lp2633
I550
ag1920
aa(lp2634
I551
ag1935
aaaa(lp2635
I553
aI554
aS'be'
p2636
a(lp2637
(lp2638
I553
ag2020
aa(lp2639
I554
ag1938
aaaa(lp2640
I556
aI562
ag429
a(lp2641
(lp2642
I556
ag1918
aa(lp2643
I557
ag1920
aa(lp2644
I558
ag1933
aa(lp2645
I559
ag1946
aa(lp2646
I560
ag1944
aa(lp2647
I561
ag1935
aa(lp2648
I562
ag2046
aaaa(lp2649
I564
aI566
aS'the'
p2650
a(lp2651
(lp2652
I564
ag1931
aa(lp2653
I565
ag1959
aa(lp2654
I566
ag1938
aaaa(lp2655
I568
aI571
ag438
a(lp2656
(lp2657
I568
ag1924
aa(lp2658
I569
ag1920
aa(lp2659
I570
ag1944
aa(lp2660
I571
ag1935
aaaa(lp2661
I573
aI575
aS'you'
p2662
a(lp2663
(lp2664
I573
ag1968
aa(lp2665
I574
ag1952
aa(lp2666
I575
ag1933
aaaa(lp2667
I577
aI580
aS'have'
p2668
a(lp2669
(lp2670
I577
ag1959
aa(lp2671
I578
ag1920
aa(lp2672
I579
ag2016
aa(lp2673
I580
ag1938
aaaa(lp2674
I582
aI583
aS'in'
p2675
a(lp2676
(lp2677
I582
ag1944
aa(lp2678
I583
ag1935
aaaa(lp2679
I585
aI588
aS'your'
p2680
a(lp2681
(lp2682
I585
ag1968
aa(lp2683
I586
ag1952
aa(lp2684
I587
ag1933
aa(lp2685
I588
ag1922
aaaa(lp2686
I590
aI596
ag447
a(lp2687
(lp2688
I590
ag1981
aa(lp2689
I591
ag1952
aa(lp2690
I592
ag1922
aa(lp2691
I593
ag1938
aa(lp2692
I594
ag1920
aa(lp2693
I595
ag1922
aa(lp2694
I596
ag1991
aaaa(lp2695
I599
aI604
ag456
a(lp2696
(lp2697
I599
ag1944
aa(lp2698
I600
ag1935
aa(lp2699
I601
aS'j'
p2700
aa(lp2701
I602
ag1933
aa(lp2702
I603
ag1922
aa(lp2703
I604
ag1968
aaaa(lp2704
I606
aI607
aS'to'
p2705
a(lp2706
(lp2707
I606
ag1931
aa(lp2708
I607
ag1952
aaaa(lp2709
I609
aI611
aS'the'
p2710
a(lp2711
(lp2712
I609
ag1931
aa(lp2713
I610
ag1959
aa(lp2714
I611
ag1938
aaaa(lp2715
I613
aI619
ag465
a(lp2716
(lp2717
I613
ag1981
aa(lp2718
I614
ag1952
aa(lp2719
I615
ag1922
aa(lp2720
I616
ag1938
aa(lp2721
I617
ag1920
aa(lp2722
I618
ag1922
aa(lp2723
I619
ag1991
aaaa(lp2724
I621
aI623
ag474
a(lp2725
(lp2726
I621
ag1952
aa(lp2727
I622
ag1935
aa(lp2728
I623
ag1938
aaaa(lp2729
I625
aI629
ag483
a(lp2730
(lp2731
I625
ag1918
aa(lp2732
I626
ag1920
aa(lp2733
I627
ag1933
aa(lp2734
I628
ag1946
aa(lp2735
I629
ag1938
aaaa(lp2736
I631
aI632
aS'of'
p2737
a(lp2738
(lp2739
I631
ag1952
aa(lp2740
I632
ag1981
aaaa(lp2741
I634
aI637
ag492
a(lp2742
(lp2743
I634
ag1924
aa(lp2744
I635
ag1920
aa(lp2745
I636
ag1944
aa(lp2746
I637
ag1935
aaaa(lp2747
I639
aI640
aS'in'
p2748
a(lp2749
(lp2750
I639
ag1944
aa(lp2751
I640
ag1935
aaaa(lp2752
I642
aI644
aS'the'
p2753
a(lp2754
(lp2755
I642
ag1931
aa(lp2756
I643
ag1959
aa(lp2757
I644
ag1938
aaaa(lp2758
I646
aI652
ag501
a(lp2759
(lp2760
I646
ag1981
aa(lp2761
I647
ag1952
aa(lp2762
I648
ag1922
aa(lp2763
I649
ag1938
aa(lp2764
I650
ag1920
aa(lp2765
I651
ag1922
aa(lp2766
I652
ag1991
aaaa(lp2767
I654
aI657
ag510
a(lp2768
(lp2769
I654
ag1920
aa(lp2770
I655
ag1922
aa(lp2771
I656
ag1938
aa(lp2772
I657
ag1920
aaaa(lp2773
I659
aI661
aS'can'
p2774
a(lp2775
(lp2776
I659
ag1918
aa(lp2777
I660
ag1920
aa(lp2778
I661
ag1935
aaaa(lp2779
I663
aI664
aS'be'
p2780
a(lp2781
(lp2782
I663
ag2020
aa(lp2783
I664
ag1938
aaaa(lp2784
I666
aI667
aS'an'
p2785
a(lp2786
(lp2787
I666
ag1920
aa(lp2788
I667
ag1935
aaaa(lp2789
I669
aI674
ag519
a(lp2790
(lp2791
I669
ag1944
aa(lp2792
I670
ag1935
aa(lp2793
I671
ag2700
aa(lp2794
I672
ag1933
aa(lp2795
I673
ag1922
aa(lp2796
I674
ag1968
aaaa(lp2797
I676
aI677
aS'to'
p2798
a(lp2799
(lp2800
I676
ag1931
aa(lp2801
I677
ag1952
aaaa(lp2802
I679
aI681
aS'the'
p2803
a(lp2804
(lp2805
I679
ag1931
aa(lp2806
I680
ag1959
aa(lp2807
I681
ag1938
aaaa(lp2808
I683
aI689
ag528
a(lp2809
(lp2810
I683
ag1981
aa(lp2811
I684
ag1952
aa(lp2812
I685
ag1922
aa(lp2813
I686
ag1938
aa(lp2814
I687
ag1920
aa(lp2815
I688
ag1922
aa(lp2816
I689
ag1991
aaaa(lp2817
I692
aI697
aS'before'
p2818
a(lp2819
(lp2820
I692
ag2020
aa(lp2821
I693
ag1938
aa(lp2822
I694
ag1981
aa(lp2823
I695
ag1952
aa(lp2824
I696
ag1922
aa(lp2825
I697
ag1938
aaaa(lp2826
I699
aI701
aS'you'
p2827
a(lp2828
(lp2829
I699
ag1968
aa(lp2830
I700
ag1952
aa(lp2831
I701
ag1933
aaaa(lp2832
I703
aI708
ag537
a(lp2833
(lp2834
I703
ag2004
aa(lp2835
I704
ag1938
aa(lp2836
I705
ag1918
aa(lp2837
I706
ag1944
aa(lp2838
I707
ag2004
aa(lp2839
I708
ag1938
aaaa(lp2840
I710
aI712
aS'you'
p2841
a(lp2842
(lp2843
I710
ag1968
aa(lp2844
I711
ag1952
aa(lp2845
I712
ag1933
aaaa(lp2846
I714
aI716
aS'are'
p2847
a(lp2848
(lp2849
I714
ag1920
aa(lp2850
I715
ag1922
aa(lp2851
I716
ag1938
aaaa(lp2852
I718
aI721
aS'only'
p2853
a(lp2854
(lp2855
I718
ag1952
aa(lp2856
I719
ag1935
aa(lp2857
I720
ag1927
aa(lp2858
I721
ag1968
aaaa(lp2859
I723
aI729
ag546
a(lp2860
(lp2861
I723
ag2004
aa(lp2862
I724
ag1938
aa(lp2863
I725
ag1920
aa(lp2864
I726
ag1927
aa(lp2865
I727
ag1944
aa(lp2866
I728
ag1935
aa(lp2867
I729
ag2046
aaaa(lp2868
I731
aI734
aS'with'
p2869
a(lp2870
(lp2871
I731
ag2001
aa(lp2872
I732
ag1944
aa(lp2873
I733
ag1931
aa(lp2874
I734
ag1959
aaaa(lp2875
I736
aI739
aS'some'
p2876
a(lp2877
(lp2878
I736
ag1946
aa(lp2879
I737
ag1952
aa(lp2880
I738
ag1991
aa(lp2881
I739
ag1938
aaaa(lp2882
I741
aI746
ag555
a(lp2883
(lp2884
I741
ag1918
aa(lp2885
I742
ag1920
aa(lp2886
I743
ag1922
aa(lp2887
I744
ag1924
aa(lp2888
I745
ag1920
aa(lp2889
I746
ag1927
aaaa(lp2890
I748
aI753
ag564
a(lp2891
(lp2892
I748
ag1931
aa(lp2893
I749
ag1933
aa(lp2894
I750
ag1935
aa(lp2895
I751
ag1935
aa(lp2896
I752
ag1938
aa(lp2897
I753
ag1927
aaaa(lp2898
I755
aI758
ag573
a(lp2899
(lp2900
I755
ag1924
aa(lp2901
I756
ag1920
aa(lp2902
I757
ag1944
aa(lp2903
I758
ag1935
aaaa(lp2904
I761
aI763
aS'you'
p2905
a(lp2906
(lp2907
I761
ag1968
aa(lp2908
I762
ag1952
aa(lp2909
I763
ag1933
aaaa(lp2910
I765
aI768
aS'will'
p2911
a(lp2912
(lp2913
I765
ag2001
aa(lp2914
I766
ag1944
aa(lp2915
I767
ag1927
aa(lp2916
I768
ag1927
aaaa(lp2917
I770
aI773
ag582
a(lp2918
(lp2919
I770
ag2001
aa(lp2920
I771
ag1920
aa(lp2921
I772
ag1935
aa(lp2922
I773
ag1931
aaaa(lp2923
I775
aI776
aS'to'
p2924
a(lp2925
(lp2926
I775
ag1931
aa(lp2927
I776
ag1952
aaaa(lp2928
I778
aI781
ag591
a(lp2929
(lp2930
I778
ag1931
aa(lp2931
I779
ag1920
aa(lp2932
I780
ag2547
aa(lp2933
I781
ag1938
aaaa(lp2934
I783
aI783
ag1920
a(lp2935
(lp2936
I783
ag1920
aaaa(lp2937
I785
aI787
aS'few'
p2938
a(lp2939
(lp2940
I785
ag1981
aa(lp2941
I786
ag1938
aa(lp2942
I787
ag2001
aaaa(lp2943
I789
aI795
ag600
a(lp2944
(lp2945
I789
ag1991
aa(lp2946
I790
ag1944
aa(lp2947
I791
ag1935
aa(lp2948
I792
ag1933
aa(lp2949
I793
ag1931
aa(lp2950
I794
ag1938
aa(lp2951
I795
ag1946
aaaa(lp2952
I797
aI798
aS'to'
p2953
a(lp2954
(lp2955
I797
ag1931
aa(lp2956
I798
ag1952
aaaa(lp2957
I800
aI804
ag609
a(lp2958
(lp2959
I800
ag1931
aa(lp2960
I801
ag1959
aa(lp2961
I802
ag1944
aa(lp2962
I803
ag1935
aa(lp2963
I804
ag2547
aaaa(lp2964
I807
aI810
aS'have'
p2965
a(lp2966
(lp2967
I807
ag1959
aa(lp2968
I808
ag1920
aa(lp2969
I809
ag2016
aa(lp2970
I810
ag1938
aaaa(lp2971
I812
aI814
aS'you'
p2972
a(lp2973
(lp2974
I812
ag1968
aa(lp2975
I813
ag1952
aa(lp2976
I814
ag1933
aaaa(lp2977
I816
aI822
ag618
a(lp2978
(lp2979
I816
ag1944
aa(lp2980
I817
ag1935
aa(lp2981
I818
ag2700
aa(lp2982
I819
ag1933
aa(lp2983
I820
ag1922
aa(lp2984
I821
ag1938
aa(lp2985
I822
ag2004
aaaa(lp2986
I824
aI826
aS'the'
p2987
a(lp2988
(lp2989
I824
ag1931
aa(lp2990
I825
ag1959
aa(lp2991
I826
ag1938
aaaa(lp2992
I828
aI834
ag627
a(lp2993
(lp2994
I828
ag1981
aa(lp2995
I829
ag1952
aa(lp2996
I830
ag1922
aa(lp2997
I831
ag1938
aa(lp2998
I832
ag1920
aa(lp2999
I833
ag1922
aa(lp3000
I834
ag1991
aaaa(lp3001
I836
aI837
aS'in'
p3002
a(lp3003
(lp3004
I836
ag1944
aa(lp3005
I837
ag1935
aaaa(lp3006
I839
aI841
aS'any'
p3007
a(lp3008
(lp3009
I839
ag1920
aa(lp3010
I840
ag1935
aa(lp3011
I841
ag1968
aaaa(lp3012
I843
aI845
ag636
a(lp3013
(lp3014
I843
ag2001
aa(lp3015
I844
ag1920
aa(lp3016
I845
ag1968
aaaa(lp3017
I848
aI850
aS'did'
p3018
a(lp3019
(lp3020
I848
ag2004
aa(lp3021
I849
ag1944
aa(lp3022
I850
ag2004
aaaa(lp3023
I852
aI854
aS'you'
p3024
a(lp3025
(lp3026
I852
ag1968
aa(lp3027
I853
ag1952
aa(lp3028
I854
ag1933
aaaa(lp3029
I856
aI859
ag645
a(lp3030
(lp3031
I856
ag1931
aa(lp3032
I857
ag1920
aa(lp3033
I858
ag2547
aa(lp3034
I859
ag1938
aaaa(lp3035
I861
aI861
ag1920
a(lp3036
(lp3037
I861
ag1920
aaaa(lp3038
I863
aI866
ag654
a(lp3039
(lp3040
I863
ag1981
aa(lp3041
I864
ag1920
aa(lp3042
I865
ag1927
aa(lp3043
I866
ag1927
aaaa(lp3044
I868
aI869
aS'or'
p3045
a(lp3046
(lp3047
I868
ag1952
aa(lp3048
I869
ag1922
aaaa(lp3049
I871
aI877
ag663
a(lp3050
(lp3051
I871
ag1924
aa(lp3052
I872
ag1938
aa(lp3053
I873
ag1922
aa(lp3054
I874
ag1959
aa(lp3055
I875
ag1920
aa(lp3056
I876
ag1924
aa(lp3057
I877
ag1946
aaaa(lp3058
I879
aI881
aS'did'
p3059
a(lp3060
(lp3061
I879
ag2004
aa(lp3062
I880
ag1944
aa(lp3063
I881
ag2004
aaaa(lp3064
I883
aI885
aS'you'
p3065
a(lp3066
(lp3067
I883
ag1968
aa(lp3068
I884
ag1952
aa(lp3069
I885
ag1933
aaaa(lp3070
I887
aI898
ag672
a(lp3071
(lp3072
I887
ag1920
aa(lp3073
I888
ag1918
aa(lp3074
I889
ag1918
aa(lp3075
I890
ag1944
aa(lp3076
I891
ag2004
aa(lp3077
I892
ag1938
aa(lp3078
I893
ag1935
aa(lp3079
I894
ag1931
aa(lp3080
I895
ag1920
aa(lp3081
I896
ag1927
aa(lp3082
I897
ag1927
aa(lp3083
I898
ag1968
aaaa(lp3084
I900
aI902
ag681
a(lp3085
(lp3086
I900
ag1959
aa(lp3087
I901
ag1944
aa(lp3088
I902
ag1931
aaaa(lp3089
I904
aI906
aS'the'
p3090
a(lp3091
(lp3092
I904
ag1931
aa(lp3093
I905
ag1959
aa(lp3094
I906
ag1938
aaaa(lp3095
I908
aI914
ag690
a(lp3096
(lp3097
I908
ag1981
aa(lp3098
I909
ag1952
aa(lp3099
I910
ag1922
aa(lp3100
I911
ag1938
aa(lp3101
I912
ag1920
aa(lp3102
I913
ag1922
aa(lp3103
I914
ag1991
aaaa(lp3104
I916
aI917
aS'on'
p3105
a(lp3106
(lp3107
I916
ag1952
aa(lp3108
I917
ag1935
aaaa(lp3109
I919
aI927
ag699
a(lp3110
(lp3111
I919
ag1946
aa(lp3112
I920
ag1952
aa(lp3113
I921
ag1991
aa(lp3114
I922
ag1938
aa(lp3115
I923
ag1931
aa(lp3116
I924
ag1959
aa(lp3117
I925
ag1944
aa(lp3118
I926
ag1935
aa(lp3119
I927
ag2046
aaaa(lp3120
I930
aI936
ag708
a(lp3121
(lp3122
I930
ag1924
aa(lp3123
I931
ag1938
aa(lp3124
I932
ag1922
aa(lp3125
I933
ag1959
aa(lp3126
I934
ag1920
aa(lp3127
I935
ag1924
aa(lp3128
I936
ag1946
aaaa(lp3129
I938
aI940
aS'you'
p3130
a(lp3131
(lp3132
I938
ag1968
aa(lp3133
I939
ag1952
aa(lp3134
I940
ag1933
aaaa(lp3135
I942
aI945
ag717
a(lp3136
(lp3137
I942
ag1938
aa(lp3138
I943
ag2016
aa(lp3139
I944
ag1938
aa(lp3140
I945
ag1935
aaaa(lp3141
I947
aI952
ag726
a(lp3142
(lp3143
I947
ag1924
aa(lp3144
I948
ag1933
aa(lp3145
I949
ag1927
aa(lp3146
I950
ag1927
aa(lp3147
I951
ag1938
aa(lp3148
I952
ag2004
aaaa(lp3149
I954
aI954
ag1920
a(lp3150
(lp3151
I954
ag1920
aaaa(lp3152
I956
aI961
ag735
a(lp3153
(lp3154
I956
ag1991
aa(lp3155
I957
ag1933
aa(lp3156
I958
ag1946
aa(lp3157
I959
ag1918
aa(lp3158
I960
ag1927
aa(lp3159
I961
ag1938
aaaa(lp3160
I963
aI964
aS'or'
p3161
a(lp3162
(lp3163
I963
ag1952
aa(lp3164
I964
ag1922
aaaa(lp3165
I966
aI971
ag744
a(lp3166
(lp3167
I966
ag1931
aa(lp3168
I967
ag1938
aa(lp3169
I968
ag1935
aa(lp3170
I969
ag2004
aa(lp3171
I970
ag1952
aa(lp3172
I971
ag1935
aaaa(lp3173
I974
aI978
aS'these'
p3174
a(lp3175
(lp3176
I974
ag1931
aa(lp3177
I975
ag1959
aa(lp3178
I976
ag1938
aa(lp3179
I977
ag1946
aa(lp3180
I978
ag1938
aaaa(lp3181
I980
aI982
aS'are'
p3182
a(lp3183
(lp3184
I980
ag1920
aa(lp3185
I981
ag1922
aa(lp3186
I982
ag1938
aaaa(lp3187
I984
aI989
ag753
a(lp3188
(lp3189
I984
ag1918
aa(lp3190
I985
ag1952
aa(lp3191
I986
ag1991
aa(lp3192
I987
ag1991
aa(lp3193
I988
ag1952
aa(lp3194
I989
ag1935
aaaa(lp3195
I991
aI998
ag762
a(lp3196
(lp3197
I991
ag1924
aa(lp3198
I992
ag1922
aa(lp3199
I993
ag1952
aa(lp3200
I994
ag2020
aa(lp3201
I995
ag1927
aa(lp3202
I996
ag1938
aa(lp3203
I997
ag1991
aa(lp3204
I998
ag1946
aaaa(lp3205
I1000
aI1003
aS'that'
p3206
a(lp3207
(lp3208
I1000
ag1931
aa(lp3209
I1001
ag1959
aa(lp3210
I1002
ag1920
aa(lp3211
I1003
ag1931
aaaa(lp3212
I1005
aI1007
aS'can'
p3213
a(lp3214
(lp3215
I1005
ag1918
aa(lp3216
I1006
ag1920
aa(lp3217
I1007
ag1935
aaaa(lp3218
I1009
aI1013
ag771
a(lp3219
(lp3220
I1009
ag1952
aa(lp3221
I1010
ag1918
aa(lp3222
I1011
ag1918
aa(lp3223
I1012
ag1933
aa(lp3224
I1013
ag1922
aaaa(lp3225
I1015
aI1018
aS'that'
p3226
a(lp3227
(lp3228
I1015
ag1931
aa(lp3229
I1016
ag1959
aa(lp3230
I1017
ag1920
aa(lp3231
I1018
ag1931
aaaa(lp3232
I1020
aI1024
ag780
a(lp3233
(lp3234
I1020
ag1918
aa(lp3235
I1021
ag1920
aa(lp3236
I1022
ag1933
aa(lp3237
I1023
ag1946
aa(lp3238
I1024
ag1938
aaaa(lp3239
I1026
aI1029
aS'this'
p3240
a(lp3241
(lp3242
I1026
ag1931
aa(lp3243
I1027
ag1959
aa(lp3244
I1028
ag1944
aa(lp3245
I1029
ag1946
aaaa(lp3246
I1031
aI1034
ag789
a(lp3247
(lp3248
I1031
ag1931
aa(lp3249
I1032
ag1968
aa(lp3250
I1033
ag1924
aa(lp3251
I1034
ag1938
aaaa(lp3252
I1036
aI1037
aS'of'
p3253
a(lp3254
(lp3255
I1036
ag1952
aa(lp3256
I1037
ag1981
aaaa(lp3257
I1039
aI1042
ag798
a(lp3258
(lp3259
I1039
ag1924
aa(lp3260
I1040
ag1920
aa(lp3261
I1041
ag1944
aa(lp3262
I1042
ag1935
aaaa(lp3263
I1045
aI1054
ag807
a(lp3264
(lp3265
I1045
ag1924
aa(lp3266
I1046
ag1938
aa(lp3267
I1047
ag1922
aa(lp3268
I1048
ag1944
aa(lp3269
I1049
ag1924
aa(lp3270
I1050
ag1959
aa(lp3271
I1051
ag1938
aa(lp3272
I1052
ag1922
aa(lp3273
I1053
ag1920
aa(lp3274
I1054
ag1927
aaaa(lp3275
I1056
aI1065
ag816
a(lp3276
(lp3277
I1056
ag1935
aa(lp3278
I1057
ag1938
aa(lp3279
I1058
ag1933
aa(lp3280
I1059
ag1922
aa(lp3281
I1060
ag1952
aa(lp3282
I1061
ag1924
aa(lp3283
I1062
ag1920
aa(lp3284
I1063
ag1931
aa(lp3285
I1064
ag1959
aa(lp3286
I1065
ag1968
aaaa(lp3287
I1067
aI1073
ag825
a(lp3288
(lp3289
I1067
ag1920
aa(lp3290
I1068
ag1935
aa(lp3291
I1069
ag1952
aa(lp3292
I1070
ag1931
aa(lp3293
I1071
ag1959
aa(lp3294
I1072
ag1938
aa(lp3295
I1073
ag1922
aaaa(lp3296
I1075
aI1080
ag834
a(lp3297
(lp3298
I1075
ag1918
aa(lp3299
I1076
ag1952
aa(lp3300
I1077
ag1991
aa(lp3301
I1078
ag1991
aa(lp3302
I1079
ag1952
aa(lp3303
I1080
ag1935
aaaa(lp3304
I1082
aI1088
ag843
a(lp3305
(lp3306
I1082
ag1924
aa(lp3307
I1083
ag1922
aa(lp3308
I1084
ag1952
aa(lp3309
I1085
ag2020
aa(lp3310
I1086
ag1927
aa(lp3311
I1087
ag1938
aa(lp3312
I1088
ag1991
aaaa(lp3313
I1090
aI1093
aS'that'
p3314
a(lp3315
(lp3316
I1090
ag1931
aa(lp3317
I1091
ag1959
aa(lp3318
I1092
ag1920
aa(lp3319
I1093
ag1931
aaaa(lp3320
I1095
aI1097
aS'can'
p3321
a(lp3322
(lp3323
I1095
ag1918
aa(lp3324
I1096
ag1920
aa(lp3325
I1097
ag1935
aaaa(lp3326
I1099
aI1100
aS'be'
p3327
a(lp3328
(lp3329
I1099
ag2020
aa(lp3330
I1100
ag1938
aaaa(lp3331
I1102
aI1104
aS'the'
p3332
a(lp3333
(lp3334
I1102
ag1931
aa(lp3335
I1103
ag1959
aa(lp3336
I1104
ag1938
aaaa(lp3337
I1106
aI1110
ag852
a(lp3338
(lp3339
I1106
ag1918
aa(lp3340
I1107
ag1920
aa(lp3341
I1108
ag1933
aa(lp3342
I1109
ag1946
aa(lp3343
I1110
ag1938
aaaa(lp3344
I1112
aI1113
aS'of'
p3345
a(lp3346
(lp3347
I1112
ag1952
aa(lp3348
I1113
ag1981
aaaa(lp3349
I1115
aI1118
ag861
a(lp3350
(lp3351
I1115
ag1924
aa(lp3352
I1116
ag1920
aa(lp3353
I1117
ag1944
aa(lp3354
I1118
ag1935
aaaa(lp3355
I1120
aI1121
aS'in'
p3356
a(lp3357
(lp3358
I1120
ag1944
aa(lp3359
I1121
ag1935
aaaa(lp3360
I1123
aI1125
aS'the'
p3361
a(lp3362
(lp3363
I1123
ag1931
aa(lp3364
I1124
ag1959
aa(lp3365
I1125
ag1938
aaaa(lp3366
I1127
aI1133
ag870
a(lp3367
(lp3368
I1127
ag1981
aa(lp3369
I1128
ag1952
aa(lp3370
I1129
ag1922
aa(lp3371
I1130
ag1938
aa(lp3372
I1131
ag1920
aa(lp3373
I1132
ag1922
aa(lp3374
I1133
ag1991
aaaa(lp3375
I1135
aI1136
aS'is'
p3376
a(lp3377
(lp3378
I1135
ag1944
aa(lp3379
I1136
ag1946
aaaa(lp3380
I1138
aI1147
ag879
a(lp3381
(lp3382
I1138
ag1924
aa(lp3383
I1139
ag1938
aa(lp3384
I1140
ag1922
aa(lp3385
I1141
ag1944
aa(lp3386
I1142
ag1924
aa(lp3387
I1143
ag1959
aa(lp3388
I1144
ag1938
aa(lp3389
I1145
ag1922
aa(lp3390
I1146
ag1920
aa(lp3391
I1147
ag1927
aaaa(lp3392
I1149
aI1158
ag888
a(lp3393
(lp3394
I1149
ag1935
aa(lp3395
I1150
ag1938
aa(lp3396
I1151
ag1933
aa(lp3397
I1152
ag1922
aa(lp3398
I1153
ag1952
aa(lp3399
I1154
ag1924
aa(lp3400
I1155
ag1920
aa(lp3401
I1156
ag1931
aa(lp3402
I1157
ag1959
aa(lp3403
I1158
ag1968
aaaa(lp3404
I1161
aI1164
aS'this'
p3405
a(lp3406
(lp3407
I1161
ag1931
aa(lp3408
I1162
ag1959
aa(lp3409
I1163
ag1944
aa(lp3410
I1164
ag1946
aaaa(lp3411
I1166
aI1167
aS'is'
p3412
a(lp3413
(lp3414
I1166
ag1944
aa(lp3415
I1167
ag1946
aaaa(lp3416
I1169
aI1169
ag1920
a(lp3417
(lp3418
I1169
ag1920
aaaa(lp3419
I1171
aI1177
ag897
a(lp3420
(lp3421
I1171
ag1924
aa(lp3422
I1172
ag1922
aa(lp3423
I1173
ag1952
aa(lp3424
I1174
ag2020
aa(lp3425
I1175
ag1927
aa(lp3426
I1176
ag1938
aa(lp3427
I1177
ag1991
aaaa(lp3428
I1179
aI1182
aS'that'
p3429
a(lp3430
(lp3431
I1179
ag1931
aa(lp3432
I1180
ag1959
aa(lp3433
I1181
ag1920
aa(lp3434
I1182
ag1931
aaaa(lp3435
I1184
aI1189
ag906
a(lp3436
(lp3437
I1184
ag1952
aa(lp3438
I1185
ag1918
aa(lp3439
I1186
ag1918
aa(lp3440
I1187
ag1933
aa(lp3441
I1188
ag1922
aa(lp3442
I1189
ag1946
aaaa(lp3443
I1191
aI1194
aS'when'
p3444
a(lp3445
(lp3446
I1191
ag2001
aa(lp3447
I1192
ag1959
aa(lp3448
I1193
ag1938
aa(lp3449
I1194
ag1935
aaaa(lp3450
I1196
aI1200
aS'there'
p3451
a(lp3452
(lp3453
I1196
ag1931
aa(lp3454
I1197
ag1959
aa(lp3455
I1198
ag1938
aa(lp3456
I1199
ag1922
aa(lp3457
I1200
ag1938
aaaa(lp3458
I1202
aI1203
aS'is'
p3459
a(lp3460
(lp3461
I1202
ag1944
aa(lp3462
I1203
ag1946
aaaa(lp3463
I1205
aI1210
ag915
a(lp3464
(lp3465
I1205
ag2004
aa(lp3466
I1206
ag1920
aa(lp3467
I1207
ag1991
aa(lp3468
I1208
ag1920
aa(lp3469
I1209
ag2046
aa(lp3470
I1210
ag1938
aaaa(lp3471
I1212
aI1213
aS'to'
p3472
a(lp3473
(lp3474
I1212
ag1931
aa(lp3475
I1213
ag1952
aaaa(lp3476
I1215
aI1220
ag924
a(lp3477
(lp3478
I1215
ag1935
aa(lp3479
I1216
ag1938
aa(lp3480
I1217
ag1922
aa(lp3481
I1218
ag2016
aa(lp3482
I1219
ag1938
aa(lp3483
I1220
ag1946
aaaa(lp3484
I1222
aI1225
aS'that'
p3485
a(lp3486
(lp3487
I1222
ag1931
aa(lp3488
I1223
ag1959
aa(lp3489
I1224
ag1920
aa(lp3490
I1225
ag1931
aaaa(lp3491
I1227
aI1229
aS'are'
p3492
a(lp3493
(lp3494
I1227
ag1920
aa(lp3495
I1228
ag1922
aa(lp3496
I1229
ag1938
aaaa(lp3497
I1231
aI1240
ag933
a(lp3498
(lp3499
I1231
ag1924
aa(lp3500
I1232
ag1938
aa(lp3501
I1233
ag1922
aa(lp3502
I1234
ag1944
aa(lp3503
I1235
ag1924
aa(lp3504
I1236
ag1959
aa(lp3505
I1237
ag1938
aa(lp3506
I1238
ag1922
aa(lp3507
I1239
ag1920
aa(lp3508
I1240
ag1927
aaaa(lp3509
I1243
aI1247
ag942
a(lp3510
(lp3511
I1243
ag1952
aa(lp3512
I1244
ag1981
aa(lp3513
I1245
ag1931
aa(lp3514
I1246
ag1938
aa(lp3515
I1247
ag1935
aaaa(lp3516
I1249
aI1252
aS'this'
p3517
a(lp3518
(lp3519
I1249
ag1931
aa(lp3520
I1250
ag1959
aa(lp3521
I1251
ag1944
aa(lp3522
I1252
ag1946
aaaa(lp3523
I1254
aI1260
ag951
a(lp3524
(lp3525
I1254
ag1924
aa(lp3526
I1255
ag1922
aa(lp3527
I1256
ag1952
aa(lp3528
I1257
ag2020
aa(lp3529
I1258
ag1927
aa(lp3530
I1259
ag1938
aa(lp3531
I1260
ag1991
aaaa(lp3532
I1262
aI1263
aS'is'
p3533
a(lp3534
(lp3535
I1262
ag1944
aa(lp3536
I1263
ag1946
aaaa(lp3537
I1265
aI1270
ag960
a(lp3538
(lp3539
I1265
ag1918
aa(lp3540
I1266
ag1920
aa(lp3541
I1267
ag1933
aa(lp3542
I1268
ag1946
aa(lp3543
I1269
ag1938
aa(lp3544
I1270
ag2004
aaaa(lp3545
I1272
aI1273
aS'by'
p3546
a(lp3547
(lp3548
I1272
ag2020
aa(lp3549
I1273
ag1968
aaaa(lp3550
I1275
aI1282
ag969
a(lp3551
(lp3552
I1275
ag2004
aa(lp3553
I1276
ag1944
aa(lp3554
I1277
ag1920
aa(lp3555
I1278
ag2020
aa(lp3556
I1279
ag1938
aa(lp3557
I1280
ag1931
aa(lp3558
I1281
ag1938
aa(lp3559
I1282
ag1946
aaaa(lp3560
I1284
aI1286
aS'and'
p3561
a(lp3562
(lp3563
I1284
ag1920
aa(lp3564
I1285
ag1935
aa(lp3565
I1286
ag2004
aaaa(lp3566
I1288
aI1290
aS'can'
p3567
a(lp3568
(lp3569
I1288
ag1918
aa(lp3570
I1289
ag1920
aa(lp3571
I1290
ag1935
aaaa(lp3572
I1292
aI1296
ag978
a(lp3573
(lp3574
I1292
ag1952
aa(lp3575
I1293
ag1918
aa(lp3576
I1294
ag1918
aa(lp3577
I1295
ag1933
aa(lp3578
I1296
ag1922
aaaa(lp3579
I1298
aI1299
aS'to'
p3580
a(lp3581
(lp3582
I1298
ag1931
aa(lp3583
I1299
ag1952
aaaa(lp3584
I1301
aI1303
aS'the'
p3585
a(lp3586
(lp3587
I1301
ag1931
aa(lp3588
I1302
ag1959
aa(lp3589
I1303
ag1938
aaaa(lp3590
I1305
aI1308
ag987
a(lp3591
(lp3592
I1305
ag1981
aa(lp3593
I1306
ag1938
aa(lp3594
I1307
ag1938
aa(lp3595
I1308
ag1931
aaaa(lp3596
I1311
aI1315
ag996
a(lp3597
(lp3598
I1311
ag1959
aa(lp3599
I1312
ag1920
aa(lp3600
I1313
ag1935
aa(lp3601
I1314
ag2004
aa(lp3602
I1315
ag1946
aaaa(lp3603
I1318
aI1320
aS'and'
p3604
a(lp3605
(lp3606
I1318
ag1920
aa(lp3607
I1319
ag1935
aa(lp3608
I1320
ag2004
aaaa(lp3609
I1322
aI1325
ag1005
a(lp3610
(lp3611
I1322
ag1920
aa(lp3612
I1323
ag1922
aa(lp3613
I1324
ag1991
aa(lp3614
I1325
ag1946
aaaa(lp3615
I1328
aI1329
aS'so'
p3616
a(lp3617
(lp3618
I1328
ag1946
aa(lp3619
I1329
ag1952
aaaa(lp3620
I1332
aI1333
aS'it'
p3621
a(lp3622
(lp3623
I1332
ag1944
aa(lp3624
I1333
ag1931
aaaa(lp3625
I1335
aI1339
ag1014
a(lp3626
(lp3627
I1335
ag1918
aa(lp3628
I1336
ag1952
aa(lp3629
I1337
ag1933
aa(lp3630
I1338
ag1927
aa(lp3631
I1339
ag2004
aaaa(lp3632
I1341
aI1342
aS'be'
p3633
a(lp3634
(lp3635
I1341
ag2020
aa(lp3636
I1342
ag1938
aaaa(lp3637
I1344
aI1344
ag1920
a(lp3638
(lp3639
I1344
ag1920
aaaa(lp3640
I1346
aI1352
ag1023
a(lp3641
(lp3642
I1346
ag1924
aa(lp3643
I1347
ag1922
aa(lp3644
I1348
ag1952
aa(lp3645
I1349
ag2020
aa(lp3646
I1350
ag1927
aa(lp3647
I1351
ag1938
aa(lp3648
I1352
ag1991
aaaa(lp3649
I1354
aI1357
aS'that'
p3650
a(lp3651
(lp3652
I1354
ag1931
aa(lp3653
I1355
ag1959
aa(lp3654
I1356
ag1920
aa(lp3655
I1357
ag1931
aaaa(lp3656
I1359
aI1360
aS'is'
p3657
a(lp3658
(lp3659
I1359
ag1944
aa(lp3660
I1360
ag1946
aaaa(lp3661
I1362
aI1368
ag1032
a(lp3662
(lp3663
I1362
ag1918
aa(lp3664
I1363
ag1920
aa(lp3665
I1364
ag1933
aa(lp3666
I1365
ag1946
aa(lp3667
I1366
ag1944
aa(lp3668
I1367
ag1935
aa(lp3669
I1368
ag2046
aaaa(lp3670
I1370
aI1372
aS'the'
p3671
a(lp3672
(lp3673
I1370
ag1931
aa(lp3674
I1371
ag1959
aa(lp3675
I1372
ag1938
aaaa(lp3676
I1374
aI1377
ag1041
a(lp3677
(lp3678
I1374
ag1924
aa(lp3679
I1375
ag1920
aa(lp3680
I1376
ag1944
aa(lp3681
I1377
ag1935
aaaa(lp3682
I1379
aI1380
aS'in'
p3683
a(lp3684
(lp3685
I1379
ag1944
aa(lp3686
I1380
ag1935
aaaa(lp3687
I1382
aI1385
aS'your'
p3688
a(lp3689
(lp3690
I1382
ag1968
aa(lp3691
I1383
ag1952
aa(lp3692
I1384
ag1933
aa(lp3693
I1385
ag1922
aaaa(lp3694
I1387
aI1393
ag1050
a(lp3695
(lp3696
I1387
ag1981
aa(lp3697
I1388
ag1952
aa(lp3698
I1389
ag1922
aa(lp3699
I1390
ag1938
aa(lp3700
I1391
ag1920
aa(lp3701
I1392
ag1922
aa(lp3702
I1393
ag1991
aaaa(lp3703
I1396
aI1405
ag1059
a(lp3704
(lp3705
I1396
ag1931
aa(lp3706
I1397
ag1938
aa(lp3707
I1398
ag1935
aa(lp3708
I1399
ag2004
aa(lp3709
I1400
ag1952
aa(lp3710
I1401
ag1935
aa(lp3711
I1402
ag1944
aa(lp3712
I1403
ag1931
aa(lp3713
I1404
ag1944
aa(lp3714
I1405
ag1946
aaaa(lp3715
I1407
aI1416
ag1068
a(lp3716
(lp3717
I1407
ag1931
aa(lp3718
I1408
ag1938
aa(lp3719
I1409
ag1935
aa(lp3720
I1410
ag2004
aa(lp3721
I1411
ag1952
aa(lp3722
I1412
ag1935
aa(lp3723
I1413
ag1944
aa(lp3724
I1414
ag1931
aa(lp3725
I1415
ag1944
aa(lp3726
I1416
ag1946
aaaa(lp3727
I1418
aI1419
aS'is'
p3728
a(lp3729
(lp3730
I1418
ag1944
aa(lp3731
I1419
ag1946
aaaa(lp3732
I1421
aI1427
ag1077
a(lp3733
(lp3734
I1421
ag1920
aa(lp3735
I1422
ag1935
aa(lp3736
I1423
ag1952
aa(lp3737
I1424
ag1931
aa(lp3738
I1425
ag1959
aa(lp3739
I1426
ag1938
aa(lp3740
I1427
ag1922
aaaa(lp3741
I1429
aI1435
ag1086
a(lp3742
(lp3743
I1429
ag1924
aa(lp3744
I1430
ag1922
aa(lp3745
I1431
ag1952
aa(lp3746
I1432
ag2020
aa(lp3747
I1433
ag1927
aa(lp3748
I1434
ag1938
aa(lp3749
I1435
ag1991
aaaa(lp3750
I1437
aI1440
aS'that'
p3751
a(lp3752
(lp3753
I1437
ag1931
aa(lp3754
I1438
ag1959
aa(lp3755
I1439
ag1920
aa(lp3756
I1440
ag1931
aaaa(lp3757
I1442
aI1446
ag1095
a(lp3758
(lp3759
I1442
ag1952
aa(lp3760
I1443
ag1981
aa(lp3761
I1444
ag1931
aa(lp3762
I1445
ag1938
aa(lp3763
I1446
ag1935
aaaa(lp3764
I1448
aI1453
ag1104
a(lp3765
(lp3766
I1448
ag1918
aa(lp3767
I1449
ag1920
aa(lp3768
I1450
ag1933
aa(lp3769
I1451
ag1946
aa(lp3770
I1452
ag1938
aa(lp3771
I1453
ag1946
aaaa(lp3772
I1455
aI1458
ag1113
a(lp3773
(lp3774
I1455
ag1924
aa(lp3775
I1456
ag1920
aa(lp3776
I1457
ag1944
aa(lp3777
I1458
ag1935
aaaa(lp3778
I1460
aI1461
aS'in'
p3779
a(lp3780
(lp3781
I1460
ag1944
aa(lp3782
I1461
ag1935
aaaa(lp3783
I1463
aI1465
aS'the'
p3784
a(lp3785
(lp3786
I1463
ag1931
aa(lp3787
I1464
ag1959
aa(lp3788
I1465
ag1938
aaaa(lp3789
I1467
aI1473
ag1122
a(lp3790
(lp3791
I1467
ag1981
aa(lp3792
I1468
ag1952
aa(lp3793
I1469
ag1922
aa(lp3794
I1470
ag1938
aa(lp3795
I1471
ag1920
aa(lp3796
I1472
ag1922
aa(lp3797
I1473
ag1991
aaaa(lp3798
I1476
aI1479
aS'this'
p3799
a(lp3800
(lp3801
I1476
ag1931
aa(lp3802
I1477
ag1959
aa(lp3803
I1478
ag1944
aa(lp3804
I1479
ag1946
aaaa(lp3805
I1481
aI1489
ag1131
a(lp3806
(lp3807
I1481
ag2020
aa(lp3808
I1482
ag1920
aa(lp3809
I1483
ag1946
aa(lp3810
I1484
ag1944
aa(lp3811
I1485
ag1918
aa(lp3812
I1486
ag1920
aa(lp3813
I1487
ag1927
aa(lp3814
I1488
ag1927
aa(lp3815
I1489
ag1968
aaaa(lp3816
I1491
aI1492
aS'is'
p3817
a(lp3818
(lp3819
I1491
ag1944
aa(lp3820
I1492
ag1946
aaaa(lp3821
I1494
aI1494
ag1920
a(lp3822
(lp3823
I1494
ag1920
aaaa(lp3824
I1496
aI1502
ag1140
a(lp3825
(lp3826
I1496
ag1924
aa(lp3827
I1497
ag1922
aa(lp3828
I1498
ag1952
aa(lp3829
I1499
ag2020
aa(lp3830
I1500
ag1927
aa(lp3831
I1501
ag1938
aa(lp3832
I1502
ag1991
aaaa(lp3833
I1504
aI1507
aS'that'
p3834
a(lp3835
(lp3836
I1504
ag1931
aa(lp3837
I1505
ag1959
aa(lp3838
I1506
ag1920
aa(lp3839
I1507
ag1931
aaaa(lp3840
I1509
aI1514
ag1149
a(lp3841
(lp3842
I1509
ag1952
aa(lp3843
I1510
ag1918
aa(lp3844
I1511
ag1918
aa(lp3845
I1512
ag1933
aa(lp3846
I1513
ag1922
aa(lp3847
I1514
ag1946
aaaa(lp3848
I1516
aI1519
aS'when'
p3849
a(lp3850
(lp3851
I1516
ag2001
aa(lp3852
I1517
ag1959
aa(lp3853
I1518
ag1938
aa(lp3854
I1519
ag1935
aaaa(lp3855
I1521
aI1523
aS'the'
p3856
a(lp3857
(lp3858
I1521
ag1931
aa(lp3859
I1522
ag1959
aa(lp3860
I1523
ag1938
aaaa(lp3861
I1525
aI1531
ag1158
a(lp3862
(lp3863
I1525
ag1931
aa(lp3864
I1526
ag1938
aa(lp3865
I1527
ag1935
aa(lp3866
I1528
ag2004
aa(lp3867
I1529
ag1952
aa(lp3868
I1530
ag1935
aa(lp3869
I1531
ag1946
aaaa(lp3870
I1533
aI1540
ag1167
a(lp3871
(lp3872
I1533
ag1920
aa(lp3873
I1534
ag1918
aa(lp3874
I1535
ag1931
aa(lp3875
I1536
ag1933
aa(lp3876
I1537
ag1920
aa(lp3877
I1538
ag1927
aa(lp3878
I1539
ag1927
aa(lp3879
I1540
ag1968
aaaa(lp3880
I1542
aI1544
ag1176
a(lp3881
(lp3882
I1542
ag2046
aa(lp3883
I1543
ag1938
aa(lp3884
I1544
ag1931
aaaa(lp3885
I1546
aI1553
ag1185
a(lp3886
(lp3887
I1546
ag1944
aa(lp3888
I1547
ag1935
aa(lp3889
I1548
ag1981
aa(lp3890
I1549
ag1927
aa(lp3891
I1550
ag1920
aa(lp3892
I1551
ag1991
aa(lp3893
I1552
ag1938
aa(lp3894
I1553
ag2004
aaaa(lp3895
I1556
aI1557
aS'it'
p3896
a(lp3897
(lp3898
I1556
ag1944
aa(lp3899
I1557
ag1931
aaaa(lp3900
I1559
aI1561
aS'can'
p3901
a(lp3902
(lp3903
I1559
ag1918
aa(lp3904
I1560
ag1920
aa(lp3905
I1561
ag1935
aaaa(lp3906
I1563
aI1564
aS'be'
p3907
a(lp3908
(lp3909
I1563
ag2020
aa(lp3910
I1564
ag1938
aaaa(lp3911
I1566
aI1566
ag1920
a(lp3912
(lp3913
I1566
ag1920
aaaa(lp3914
I1568
aI1573
ag1194
a(lp3915
(lp3916
I1568
ag1922
aa(lp3917
I1569
ag1938
aa(lp3918
I1570
ag1946
aa(lp3919
I1571
ag1933
aa(lp3920
I1572
ag1927
aa(lp3921
I1573
ag1931
aaaa(lp3922
I1575
aI1576
aS'of'
p3923
a(lp3924
(lp3925
I1575
ag1952
aa(lp3926
I1576
ag1981
aaaa(lp3927
I1578
aI1583
ag1203
a(lp3928
(lp3929
I1578
ag1944
aa(lp3930
I1579
ag1935
aa(lp3931
I1580
ag2700
aa(lp3932
I1581
ag1933
aa(lp3933
I1582
ag1922
aa(lp3934
I1583
ag1968
aaaa(lp3935
I1585
aI1586
aS'or'
p3936
a(lp3937
(lp3938
I1585
ag1952
aa(lp3939
I1586
ag1922
aaaa(lp3940
I1588
aI1591
ag1212
a(lp3941
(lp3942
I1588
ag1938
aa(lp3943
I1589
ag2016
aa(lp3944
I1590
ag1938
aa(lp3945
I1591
ag1935
aaaa(lp3946
I1593
aI1597
ag1221
a(lp3947
(lp3948
I1593
ag1933
aa(lp3949
I1594
ag1946
aa(lp3950
I1595
ag1944
aa(lp3951
I1596
ag1935
aa(lp3952
I1597
ag2046
aaaa(lp3953
I1599
aI1600
aS'it'
p3954
a(lp3955
(lp3956
I1599
ag1944
aa(lp3957
I1600
ag1931
aaaa(lp3958
I1602
aI1604
aS'too'
p3959
a(lp3960
(lp3961
I1602
ag1931
aa(lp3962
I1603
ag1952
aa(lp3963
I1604
ag1952
aaaa(lp3964
I1606
aI1609
ag1230
a(lp3965
(lp3966
I1606
ag1991
aa(lp3967
I1607
ag1933
aa(lp3968
I1608
ag1918
aa(lp3969
I1609
ag1959
aaaa(lp3970
I1612
aI1613
aS'it'
p3971
a(lp3972
(lp3973
I1612
ag1944
aa(lp3974
I1613
ag1931
aaaa(lp3975
I1615
aI1617
aS'can'
p3976
a(lp3977
(lp3978
I1615
ag1918
aa(lp3979
I1616
ag1920
aa(lp3980
I1617
ag1935
aaaa(lp3981
I1619
aI1623
ag1239
a(lp3982
(lp3983
I1619
ag1918
aa(lp3984
I1620
ag1920
aa(lp3985
I1621
ag1933
aa(lp3986
I1622
ag1946
aa(lp3987
I1623
ag1938
aaaa(lp3988
I1625
aI1625
ag1920
a(lp3989
(lp3990
I1625
ag1920
aaaa(lp3991
I1627
aI1629
ag1248
a(lp3992
(lp3993
I1627
ag1927
aa(lp3994
I1628
ag1952
aa(lp3995
I1629
ag1931
aaaa(lp3996
I1631
aI1632
aS'of'
p3997
a(lp3998
(lp3999
I1631
ag1952
aa(lp4000
I1632
ag1981
aaaa(lp4001
I1634
aI1637
ag1257
a(lp4002
(lp4003
I1634
ag1924
aa(lp4004
I1635
ag1920
aa(lp4005
I1636
ag1944
aa(lp4006
I1637
ag1935
aaaa(lp4007
I1640
aI1648
ag1266
a(lp4008
(lp4009
I1640
ag1944
aa(lp4010
I1641
ag1935
aa(lp4011
I1642
ag1918
aa(lp4012
I1643
ag1927
aa(lp4013
I1644
ag1933
aa(lp4014
I1645
ag2004
aa(lp4015
I1646
ag1944
aa(lp4016
I1647
ag1935
aa(lp4017
I1648
ag2046
aaaa(lp4018
I1650
aI1653
ag1275
a(lp4019
(lp4020
I1650
ag1924
aa(lp4021
I1651
ag1920
aa(lp4022
I1652
ag1944
aa(lp4023
I1653
ag1935
aaaa(lp4024
I1655
aI1656
aS'in'
p4025
a(lp4026
(lp4027
I1655
ag1944
aa(lp4028
I1656
ag1935
aaaa(lp4029
I1658
aI1660
aS'the'
p4030
a(lp4031
(lp4032
I1658
ag1931
aa(lp4033
I1659
ag1959
aa(lp4034
I1660
ag1938
aaaa(lp4035
I1662
aI1668
ag1284
a(lp4036
(lp4037
I1662
ag1981
aa(lp4038
I1663
ag1952
aa(lp4039
I1664
ag1922
aa(lp4040
I1665
ag1938
aa(lp4041
I1666
ag1920
aa(lp4042
I1667
ag1922
aa(lp4043
I1668
ag1991
aaaa(lp4044
I1670
aI1671
aS'if'
p4045
a(lp4046
(lp4047
I1670
ag1944
aa(lp4048
I1671
ag1981
aaaa(lp4049
I1673
aI1675
aS'the'
p4050
a(lp4051
(lp4052
I1673
ag1931
aa(lp4053
I1674
ag1959
aa(lp4054
I1675
ag1938
aaaa(lp4055
I1677
aI1683
ag1293
a(lp4056
(lp4057
I1677
ag1931
aa(lp4058
I1678
ag1938
aa(lp4059
I1679
ag1935
aa(lp4060
I1680
ag2004
aa(lp4061
I1681
ag1952
aa(lp4062
I1682
ag1935
aa(lp4063
I1683
ag1946
aaaa(lp4064
I1685
aI1686
aS'in'
p4065
a(lp4066
(lp4067
I1685
ag1944
aa(lp4068
I1686
ag1935
aaaa(lp4069
I1688
aI1690
aS'the'
p4070
a(lp4071
(lp4072
I1688
ag1931
aa(lp4073
I1689
ag1959
aa(lp4074
I1690
ag1938
aaaa(lp4075
I1692
aI1695
ag1302
a(lp4076
(lp4077
I1692
ag1920
aa(lp4078
I1693
ag1922
aa(lp4079
I1694
ag1938
aa(lp4080
I1695
ag1920
aaaa(lp4081
I1697
aI1699
aS'are'
p4082
a(lp4083
(lp4084
I1697
ag1920
aa(lp4085
I1698
ag1922
aa(lp4086
I1699
ag1938
aaaa(lp4087
I1701
aI1704
ag1311
a(lp4088
(lp4089
I1701
ag1959
aa(lp4090
I1702
ag1933
aa(lp4091
I1703
ag1922
aa(lp4092
I1704
ag1931
aaaa(lp4093
I1706
aI1707
aS'or'
p4094
a(lp4095
(lp4096
I1706
ag1952
aa(lp4097
I1707
ag1922
aaaa(lp4098
I1709
aI1716
ag1320
a(lp4099
(lp4100
I1709
ag1952
aa(lp4101
I1710
ag2016
aa(lp4102
I1711
ag1938
aa(lp4103
I1712
ag1922
aa(lp4104
I1713
ag1933
aa(lp4105
I1714
ag1946
aa(lp4106
I1715
ag1938
aa(lp4107
I1716
ag2004
aaaa(lp4108
I1719
aI1722
ag1329
a(lp4109
(lp4110
I1719
ag1927
aa(lp4111
I1720
ag1938
aa(lp4112
I1721
ag1981
aa(lp4113
I1722
ag1931
aaaa(lp4114
I1724
aI1726
ag1338
a(lp4115
(lp4116
I1724
ag1920
aa(lp4117
I1725
ag1922
aa(lp4118
I1726
ag1991
aaaa(lp4119
I1730
aI1737
ag1347
a(lp4120
(lp4121
I1730
ag1924
aa(lp4122
I1731
ag1952
aa(lp4123
I1732
ag1946
aa(lp4124
I1733
ag1946
aa(lp4125
I1734
ag1944
aa(lp4126
I1735
ag2020
aa(lp4127
I1736
ag1927
aa(lp4128
I1737
ag1938
aaaa(lp4129
I1739
aI1743
ag1356
a(lp4130
(lp4131
I1739
ag1959
aa(lp4132
I1740
ag1938
aa(lp4133
I1741
ag1920
aa(lp4134
I1742
ag1922
aa(lp4135
I1743
ag1931
aaaa(lp4136
I1745
aI1750
ag1365
a(lp4137
(lp4138
I1745
ag1920
aa(lp4139
I1746
ag1931
aa(lp4140
I1747
ag1931
aa(lp4141
I1748
ag1920
aa(lp4142
I1749
ag1918
aa(lp4143
I1750
ag2547
aaaa(lp4144
I1752
aI1755
ag1374
a(lp4145
(lp4146
I1752
ag1927
aa(lp4147
I1753
ag1920
aa(lp4148
I1754
ag1946
aa(lp4149
I1755
ag1931
aaaa(lp4150
I1757
aI1758
aS'of'
p4151
a(lp4152
(lp4153
I1757
ag1952
aa(lp4154
I1758
ag1981
aaaa(lp4155
I1760
aI1762
aS'all'
p4156
a(lp4157
(lp4158
I1760
ag1920
aa(lp4159
I1761
ag1927
aa(lp4160
I1762
ag1927
aaaa(lp4161
I1765
aI1766
aS'if'
p4162
a(lp4163
(lp4164
I1765
ag1944
aa(lp4165
I1766
ag1981
aaaa(lp4166
I1768
aI1770
aS'you'
p4167
a(lp4168
(lp4169
I1768
ag1968
aa(lp4170
I1769
ag1952
aa(lp4171
I1770
ag1933
aaaa(lp4172
I1772
aI1774
aS'are'
p4173
a(lp4174
(lp4175
I1772
ag1920
aa(lp4176
I1773
ag1922
aa(lp4177
I1774
ag1938
aaaa(lp4178
I1776
aI1782
ag1383
a(lp4179
(lp4180
I1776
ag2004
aa(lp4181
I1777
ag1938
aa(lp4182
I1778
ag1920
aa(lp4183
I1779
ag1927
aa(lp4184
I1780
ag1944
aa(lp4185
I1781
ag1935
aa(lp4186
I1782
ag2046
aaaa(lp4187
I1784
aI1787
aS'with'
p4188
a(lp4189
(lp4190
I1784
ag2001
aa(lp4191
I1785
ag1944
aa(lp4192
I1786
ag1931
aa(lp4193
I1787
ag1959
aaaa(lp4194
I1789
aI1795
ag1392
a(lp4195
(lp4196
I1789
ag1981
aa(lp4197
I1790
ag1952
aa(lp4198
I1791
ag1922
aa(lp4199
I1792
ag1938
aa(lp4200
I1793
ag1920
aa(lp4201
I1794
ag1922
aa(lp4202
I1795
ag1991
aaaa(lp4203
I1797
aI1800
ag1401
a(lp4204
(lp4205
I1797
ag1924
aa(lp4206
I1798
ag1920
aa(lp4207
I1799
ag1944
aa(lp4208
I1800
ag1935
aaaa(lp4209
I1802
aI1803
aS'in'
p4210
a(lp4211
(lp4212
I1802
ag1944
aa(lp4213
I1803
ag1935
aaaa(lp4214
I1805
aI1808
aS'your'
p4215
a(lp4216
(lp4217
I1805
ag1968
aa(lp4218
I1806
ag1952
aa(lp4219
I1807
ag1933
aa(lp4220
I1808
ag1922
aaaa(lp4221
I1810
aI1813
ag1410
a(lp4222
(lp4223
I1810
ag1927
aa(lp4224
I1811
ag1938
aa(lp4225
I1812
ag1981
aa(lp4226
I1813
ag1931
aaaa(lp4227
I1815
aI1817
ag1419
a(lp4228
(lp4229
I1815
ag1920
aa(lp4230
I1816
ag1922
aa(lp4231
I1817
ag1991
aaaa(lp4232
I1820
aI1823
aS'this'
p4233
a(lp4234
(lp4235
I1820
ag1931
aa(lp4236
I1821
ag1959
aa(lp4237
I1822
ag1944
aa(lp4238
I1823
ag1946
aaaa(lp4239
I1825
aI1829
ag1428
a(lp4240
(lp4241
I1825
ag1918
aa(lp4242
I1826
ag1952
aa(lp4243
I1827
ag1933
aa(lp4244
I1828
ag1927
aa(lp4245
I1829
ag2004
aaaa(lp4246
I1831
aI1832
aS'be'
p4247
a(lp4248
(lp4249
I1831
ag2020
aa(lp4250
I1832
ag1938
aaaa(lp4251
I1834
aI1844
ag1437
a(lp4252
(lp4253
I1834
ag1924
aa(lp4254
I1835
ag1952
aa(lp4255
I1836
ag1931
aa(lp4256
I1837
ag1938
aa(lp4257
I1838
ag1935
aa(lp4258
I1839
ag1931
aa(lp4259
I1840
ag1944
aa(lp4260
I1841
ag1920
aa(lp4261
I1842
ag1927
aa(lp4262
I1843
ag1927
aa(lp4263
I1844
ag1968
aaaa(lp4264
I1846
aI1852
ag1446
a(lp4265
(lp4266
I1846
ag1946
aa(lp4267
I1847
ag1938
aa(lp4268
I1848
ag1922
aa(lp4269
I1849
ag1944
aa(lp4270
I1850
ag1952
aa(lp4271
I1851
ag1933
aa(lp4272
I1852
ag1946
aaaa(lp4273
I1855
aI1863
ag1455
a(lp4274
(lp4275
I1855
ag1946
aa(lp4276
I1856
ag1952
aa(lp4277
I1857
ag1991
aa(lp4278
I1858
ag1938
aa(lp4279
I1859
ag1931
aa(lp4280
I1860
ag1944
aa(lp4281
I1861
ag1991
aa(lp4282
I1862
ag1938
aa(lp4283
I1863
ag1946
aaaa(lp4284
I1865
aI1868
aS'when'
p4285
a(lp4286
(lp4287
I1865
ag2001
aa(lp4288
I1866
ag1959
aa(lp4289
I1867
ag1938
aa(lp4290
I1868
ag1935
aaaa(lp4291
I1870
aI1875
ag1464
a(lp4292
(lp4293
I1870
ag1924
aa(lp4294
I1871
ag1938
aa(lp4295
I1872
ag1952
aa(lp4296
I1873
ag1924
aa(lp4297
I1874
ag1927
aa(lp4298
I1875
ag1938
aaaa(lp4299
I1877
aI1879
aS'are'
p4300
a(lp4301
(lp4302
I1877
ag1920
aa(lp4303
I1878
ag1922
aa(lp4304
I1879
ag1938
aaaa(lp4305
I1881
aI1885
ag1473
a(lp4306
(lp4307
I1881
ag2046
aa(lp4308
I1882
ag1952
aa(lp4309
I1883
ag1944
aa(lp4310
I1884
ag1935
aa(lp4311
I1885
ag2046
aaaa(lp4312
I1887
aI1893
aS'through'
p4313
a(lp4314
(lp4315
I1887
ag1931
aa(lp4316
I1888
ag1959
aa(lp4317
I1889
ag1922
aa(lp4318
I1890
ag1952
aa(lp4319
I1891
ag1933
aa(lp4320
I1892
ag2046
aa(lp4321
I1893
ag1959
aaaa(lp4322
I1895
aI1895
ag1920
a(lp4323
(lp4324
I1895
ag1920
aaaa(lp4325
I1897
aI1901
ag1482
a(lp4326
(lp4327
I1897
ag1959
aa(lp4328
I1898
ag1938
aa(lp4329
I1899
ag1920
aa(lp4330
I1900
ag1922
aa(lp4331
I1901
ag1931
aaaa(lp4332
I1903
aI1908
ag1491
a(lp4333
(lp4334
I1903
ag1920
aa(lp4335
I1904
ag1931
aa(lp4336
I1905
ag1931
aa(lp4337
I1906
ag1920
aa(lp4338
I1907
ag1918
aa(lp4339
I1908
ag2547
aaaa(lp4340
I1911
aI1914
aS'they'
p4341
a(lp4342
(lp4343
I1911
ag1931
aa(lp4344
I1912
ag1959
aa(lp4345
I1913
ag1938
aa(lp4346
I1914
ag1968
aaaa(lp4347
I1916
aI1918
ag1500
a(lp4348
(lp4349
I1916
ag1938
aa(lp4350
I1917
ag1935
aa(lp4351
I1918
ag2004
aaaa(lp4352
I1920
aI1921
aS'up'
p4353
a(lp4354
(lp4355
I1920
ag1933
aa(lp4356
I1921
ag1924
aaaa(lp4357
I1923
aI1928
aS'having'
p4358
a(lp4359
(lp4360
I1923
ag1959
aa(lp4361
I1924
ag1920
aa(lp4362
I1925
ag2016
aa(lp4363
I1926
ag1944
aa(lp4364
I1927
ag1935
aa(lp4365
I1928
ag2046
aaaa(lp4366
I1930
aI1933
ag1509
a(lp4367
(lp4368
I1930
ag1924
aa(lp4369
I1931
ag1920
aa(lp4370
I1932
ag1944
aa(lp4371
I1933
ag1935
aaaa(lp4372
I1935
aI1936
aS'in'
p4373
a(lp4374
(lp4375
I1935
ag1944
aa(lp4376
I1936
ag1935
aaaa(lp4377
I1938
aI1942
aS'their'
p4378
a(lp4379
(lp4380
I1938
ag1931
aa(lp4381
I1939
ag1959
aa(lp4382
I1940
ag1938
aa(lp4383
I1941
ag1944
aa(lp4384
I1942
ag1922
aaaa(lp4385
I1944
aI1947
ag1518
a(lp4386
(lp4387
I1944
ag1927
aa(lp4388
I1945
ag1938
aa(lp4389
I1946
ag1981
aa(lp4390
I1947
ag1931
aaaa(lp4391
I1949
aI1951
ag1527
a(lp4392
(lp4393
I1949
ag1920
aa(lp4394
I1950
ag1922
aa(lp4395
I1951
ag1991
aaaa(lp4396
I1954
aI1958
aS'which'
p4397
a(lp4398
(lp4399
I1954
ag2001
aa(lp4400
I1955
ag1959
aa(lp4401
I1956
ag1944
aa(lp4402
I1957
ag1918
aa(lp4403
I1958
ag1959
aaaa(lp4404
I1960
aI1962
aS'can'
p4405
a(lp4406
(lp4407
I1960
ag1918
aa(lp4408
I1961
ag1920
aa(lp4409
I1962
ag1935
aaaa(lp4410
I1964
aI1970
ag1536
a(lp4411
(lp4412
I1964
ag1944
aa(lp4413
I1965
ag1935
aa(lp4414
I1966
ag1918
aa(lp4415
I1967
ag1927
aa(lp4416
I1968
ag1933
aa(lp4417
I1969
ag2004
aa(lp4418
I1970
ag1938
aaaa(lp4419
I1972
aI1974
aS'the'
p4420
a(lp4421
(lp4422
I1972
ag1931
aa(lp4423
I1973
ag1959
aa(lp4424
I1974
ag1938
aaaa(lp4425
I1976
aI1982
ag1545
a(lp4426
(lp4427
I1976
ag1981
aa(lp4428
I1977
ag1952
aa(lp4429
I1978
ag1922
aa(lp4430
I1979
ag1938
aa(lp4431
I1980
ag1920
aa(lp4432
I1981
ag1922
aa(lp4433
I1982
ag1991
aaaa(lp4434
I1984
aI1987
ag1554
a(lp4435
(lp4436
I1984
ag1920
aa(lp4437
I1985
ag1922
aa(lp4438
I1986
ag1938
aa(lp4439
I1987
ag1920
aaaa(lp4440
I1990
aI1991
aS'if'
p4441
a(lp4442
(lp4443
I1990
ag1944
aa(lp4444
I1991
ag1981
aaaa(lp4445
I1993
aI1995
aS'you'
p4446
a(lp4447
(lp4448
I1993
ag1968
aa(lp4449
I1994
ag1952
aa(lp4450
I1995
ag1933
aaaa(lp4451
I1997
aI1999
aS'are'
p4452
a(lp4453
(lp4454
I1997
ag1920
aa(lp4455
I1998
ag1922
aa(lp4456
I1999
ag1938
aaaa(lp4457
I2001
aI2006
aS'having'
p4458
a(lp4459
(lp4460
I2001
ag1959
aa(lp4461
I2002
ag1920
aa(lp4462
I2003
ag2016
aa(lp4463
I2004
ag1944
aa(lp4464
I2005
ag1935
aa(lp4465
I2006
ag2046
aaaa(lp4466
I2008
aI2012
ag1563
a(lp4467
(lp4468
I2008
ag1918
aa(lp4469
I2009
ag1959
aa(lp4470
I2010
ag1938
aa(lp4471
I2011
ag1946
aa(lp4472
I2012
ag1931
aaaa(lp4473
I2014
aI2017
ag1572
a(lp4474
(lp4475
I2014
ag1924
aa(lp4476
I2015
ag1920
aa(lp4477
I2016
ag1944
aa(lp4478
I2017
ag1935
aaaa(lp4479
I2019
aI2023
ag1581
a(lp4480
(lp4481
I2019
ag1920
aa(lp4482
I2020
ag1927
aa(lp4483
I2021
ag1952
aa(lp4484
I2022
ag1935
aa(lp4485
I2023
ag2046
aaaa(lp4486
I2025
aI2028
aS'with'
p4487
a(lp4488
(lp4489
I2025
ag2001
aa(lp4490
I2026
ag1944
aa(lp4491
I2027
ag1931
aa(lp4492
I2028
ag1959
aaaa(lp4493
I2030
aI2033
aS'this'
p4494
a(lp4495
(lp4496
I2030
ag1931
aa(lp4497
I2031
ag1959
aa(lp4498
I2032
ag1944
aa(lp4499
I2033
ag1946
aaaa(lp4500
I2035
aI2041
ag1590
a(lp4501
(lp4502
I2035
ag1981
aa(lp4503
I2036
ag1952
aa(lp4504
I2037
ag1922
aa(lp4505
I2038
ag1938
aa(lp4506
I2039
ag1920
aa(lp4507
I2040
ag1922
aa(lp4508
I2041
ag1991
aaaa(lp4509
I2043
aI2046
ag1599
a(lp4510
(lp4511
I2043
ag1924
aa(lp4512
I2044
ag1920
aa(lp4513
I2045
ag1944
aa(lp4514
I2046
ag1935
aaaa(lp4515
I2048
aI2049
aS'or'
p4516
a(lp4517
(lp4518
I2048
ag1952
aa(lp4519
I2049
ag1922
aaaa(lp4520
I2051
aI2053
aS'you'
p4521
a(lp4522
(lp4523
I2051
ag1968
aa(lp4524
I2052
ag1952
aa(lp4525
I2053
ag1933
aaaa(lp4526
I2055
aI2058
aS'have'
p4527
a(lp4528
(lp4529
I2055
ag1959
aa(lp4530
I2056
ag1920
aa(lp4531
I2057
ag2016
aa(lp4532
I2058
ag1938
aaaa(lp4533
I2060
aI2063
ag1608
a(lp4534
(lp4535
I2060
ag1924
aa(lp4536
I2061
ag1920
aa(lp4537
I2062
ag1944
aa(lp4538
I2063
ag1935
aaaa(lp4539
I2065
aI2071
aS'through'
p4540
a(lp4541
(lp4542
I2065
ag1931
aa(lp4543
I2066
ag1959
aa(lp4544
I2067
ag1922
aa(lp4545
I2068
ag1952
aa(lp4546
I2069
ag1933
aa(lp4547
I2070
ag2046
aa(lp4548
I2071
ag1959
aaaa(lp4549
I2073
aI2075
aS'the'
p4550
a(lp4551
(lp4552
I2073
ag1931
aa(lp4553
I2074
ag1959
aa(lp4554
I2075
ag1938
aaaa(lp4555
I2077
aI2082
ag1617
a(lp4556
(lp4557
I2077
ag1938
aa(lp4558
I2078
ag1935
aa(lp4559
I2079
ag1931
aa(lp4560
I2080
ag1944
aa(lp4561
I2081
ag1922
aa(lp4562
I2082
ag1938
aaaa(lp4563
I2084
aI2086
ag1626
a(lp4564
(lp4565
I2084
ag1920
aa(lp4566
I2085
ag1922
aa(lp4567
I2086
ag1991
aaaa(lp4568
I2088
aI2090
aS'and'
p4569
a(lp4570
(lp4571
I2088
ag1920
aa(lp4572
I2089
ag1935
aa(lp4573
I2090
ag2004
aaaa(lp4574
I2092
aI2095
aS'only'
p4575
a(lp4576
(lp4577
I2092
ag1952
aa(lp4578
I2093
ag1935
aa(lp4579
I2094
ag1927
aa(lp4580
I2095
ag1968
aaaa(lp4581
I2097
aI2098
aS'on'
p4582
a(lp4583
(lp4584
I2097
ag1952
aa(lp4585
I2098
ag1935
aaaa(lp4586
I2100
aI2102
aS'the'
p4587
a(lp4588
(lp4589
I2100
ag1931
aa(lp4590
I2101
ag1959
aa(lp4591
I2102
ag1938
aaaa(lp4592
I2104
aI2106
ag1635
a(lp4593
(lp4594
I2104
ag1952
aa(lp4595
I2105
ag1935
aa(lp4596
I2106
ag1938
aaaa(lp4597
I2108
aI2111
ag1644
a(lp4598
(lp4599
I2108
ag1946
aa(lp4600
I2109
ag1944
aa(lp4601
I2110
ag2004
aa(lp4602
I2111
ag1938
aaaa(lp4603
I2114
aI2116
aS'you'
p4604
a(lp4605
(lp4606
I2114
ag1968
aa(lp4607
I2115
ag1952
aa(lp4608
I2116
ag1933
aaaa(lp4609
I2118
aI2123
aS'should'
p4610
a(lp4611
(lp4612
I2118
ag1946
aa(lp4613
I2119
ag1959
aa(lp4614
I2120
ag1952
aa(lp4615
I2121
ag1933
aa(lp4616
I2122
ag1927
aa(lp4617
I2123
ag2004
aaaa(lp4618
I2125
aI2128
ag1653
a(lp4619
(lp4620
I2125
ag1946
aa(lp4621
I2126
ag1938
aa(lp4622
I2127
ag1938
aa(lp4623
I2128
ag2547
aaaa(lp4624
I2130
aI2136
ag1662
a(lp4625
(lp4626
I2130
ag1991
aa(lp4627
I2131
ag1938
aa(lp4628
I2132
ag2004
aa(lp4629
I2133
ag1944
aa(lp4630
I2134
ag1918
aa(lp4631
I2135
ag1920
aa(lp4632
I2136
ag1927
aaaa(lp4633
I2138
aI2146
ag1671
a(lp4634
(lp4635
I2138
ag1920
aa(lp4636
I2139
ag1931
aa(lp4637
I2140
ag1931
aa(lp4638
I2141
ag1938
aa(lp4639
I2142
ag1935
aa(lp4640
I2143
ag1931
aa(lp4641
I2144
ag1944
aa(lp4642
I2145
ag1952
aa(lp4643
I2146
ag1935
aaaa(lp4644
I2148
aI2149
aS'as'
p4645
a(lp4646
(lp4647
I2148
ag1920
aa(lp4648
I2149
ag1946
aaaa(lp4649
I2151
aI2154
ag1680
a(lp4650
(lp4651
I2151
ag1946
aa(lp4652
I2152
ag1952
aa(lp4653
I2153
ag1952
aa(lp4654
I2154
ag1935
aaaa(lp4655
I2156
aI2157
aS'as'
p4656
a(lp4657
(lp4658
I2156
ag1920
aa(lp4659
I2157
ag1946
aaaa(lp4660
I2159
aI2166
ag1689
a(lp4661
(lp4662
I2159
ag1924
aa(lp4663
I2160
ag1952
aa(lp4664
I2161
ag1946
aa(lp4665
I2162
ag1946
aa(lp4666
I2163
ag1944
aa(lp4667
I2164
ag2020
aa(lp4668
I2165
ag1927
aa(lp4669
I2166
ag1938
aaaa(lp4670
I2169
aI2170
aS'so'
p4671
a(lp4672
(lp4673
I2169
ag1946
aa(lp4674
I2170
ag1952
aaaa(lp4675
I2173
aI2174
aS'as'
p4676
a(lp4677
(lp4678
I2173
ag1920
aa(lp4679
I2174
ag1946
aaaa(lp4680
I2176
aI2178
aS'you'
p4681
a(lp4682
(lp4683
I2176
ag1968
aa(lp4684
I2177
ag1952
aa(lp4685
I2178
ag1933
aaaa(lp4686
I2180
aI2182
aS'can'
p4687
a(lp4688
(lp4689
I2180
ag1918
aa(lp4690
I2181
ag1920
aa(lp4691
I2182
ag1935
aaaa(lp4692
I2184
aI2186
ag1698
a(lp4693
(lp4694
I2184
ag1946
aa(lp4695
I2185
ag1938
aa(lp4696
I2186
ag1938
aaaa(lp4697
I2189
aI2192
ag1707
a(lp4698
(lp4699
I2189
ag1924
aa(lp4700
I2190
ag1920
aa(lp4701
I2191
ag1944
aa(lp4702
I2192
ag1935
aaaa(lp4703
I2194
aI2195
aS'in'
p4704
a(lp4705
(lp4706
I2194
ag1944
aa(lp4707
I2195
ag1935
aaaa(lp4708
I2197
aI2199
aS'the'
p4709
a(lp4710
(lp4711
I2197
ag1931
aa(lp4712
I2198
ag1959
aa(lp4713
I2199
ag1938
aaaa(lp4714
I2201
aI2207
ag1716
a(lp4715
(lp4716
I2201
ag1981
aa(lp4717
I2202
ag1952
aa(lp4718
I2203
ag1922
aa(lp4719
I2204
ag1938
aa(lp4720
I2205
ag1920
aa(lp4721
I2206
ag1922
aa(lp4722
I2207
ag1991
aaaa(lp4723
I2209
aI2210
aS'is'
p4724
a(lp4725
(lp4726
I2209
ag1944
aa(lp4727
I2210
ag1946
aaaa(lp4728
I2212
aI2214
aS'not'
p4729
a(lp4730
(lp4731
I2212
ag1935
aa(lp4732
I2213
ag1952
aa(lp4733
I2214
ag1931
aaaa(lp4734
I2216
aI2221
ag1725
a(lp4735
(lp4736
I2216
ag1920
aa(lp4737
I2217
ag1927
aa(lp4738
I2218
ag2001
aa(lp4739
I2219
ag1920
aa(lp4740
I2220
ag1968
aa(lp4741
I2221
ag1946
aaaa(lp4742
I2223
aI2223
ag1920
a(lp4743
(lp4744
I2223
ag1920
aaaa(lp4745
I2225
aI2228
ag1734
a(lp4746
(lp4747
I2225
ag1946
aa(lp4748
I2226
ag1944
aa(lp4749
I2227
ag2046
aa(lp4750
I2228
ag1935
aaaa(lp4751
I2230
aI2231
aS'of'
p4752
a(lp4753
(lp4754
I2230
ag1952
aa(lp4755
I2231
ag1981
aaaa(lp4756
I2233
aI2239
ag1743
a(lp4757
(lp4758
I2233
ag2004
aa(lp4759
I2234
ag1938
aa(lp4760
I2235
ag1920
aa(lp4761
I2236
ag1927
aa(lp4762
I2237
ag1944
aa(lp4763
I2238
ag1935
aa(lp4764
I2239
ag2046
aaaa(lp4765
I2241
aI2244
aS'with'
p4766
a(lp4767
(lp4768
I2241
ag2001
aa(lp4769
I2242
ag1944
aa(lp4770
I2243
ag1931
aa(lp4771
I2244
ag1959
aaaa(lp4772
I2246
aI2251
ag1752
a(lp4773
(lp4774
I2246
ag1918
aa(lp4775
I2247
ag1920
aa(lp4776
I2248
ag1922
aa(lp4777
I2249
ag1924
aa(lp4778
I2250
ag1920
aa(lp4779
I2251
ag1927
aaaa(lp4780
I2253
aI2258
ag1761
a(lp4781
(lp4782
I2253
ag1931
aa(lp4783
I2254
ag1933
aa(lp4784
I2255
ag1935
aa(lp4785
I2256
ag1935
aa(lp4786
I2257
ag1938
aa(lp4787
I2258
ag1927
aaaa(lp4788
I2260
aI2267
ag1770
a(lp4789
(lp4790
I2260
ag1946
aa(lp4791
I2261
ag1968
aa(lp4792
I2262
ag1935
aa(lp4793
I2263
ag2004
aa(lp4794
I2264
ag1922
aa(lp4795
I2265
ag1952
aa(lp4796
I2266
ag1991
aa(lp4797
I2267
ag1938
aaaa(lp4798
I2270
aI2274
aS'there'
p4799
a(lp4800
(lp4801
I2270
ag1931
aa(lp4802
I2271
ag1959
aa(lp4803
I2272
ag1938
aa(lp4804
I2273
ag1922
aa(lp4805
I2274
ag1938
aaaa(lp4806
I2276
aI2278
aS'are'
p4807
a(lp4808
(lp4809
I2276
ag1920
aa(lp4810
I2277
ag1922
aa(lp4811
I2278
ag1938
aaaa(lp4812
I2280
aI2284
aS'other'
p4813
a(lp4814
(lp4815
I2280
ag1952
aa(lp4816
I2281
ag1931
aa(lp4817
I2282
ag1959
aa(lp4818
I2283
ag1938
aa(lp4819
I2284
ag1922
aaaa(lp4820
I2286
aI2289
aS'very'
p4821
a(lp4822
(lp4823
I2286
ag2016
aa(lp4824
I2287
ag1938
aa(lp4825
I2288
ag1922
aa(lp4826
I2289
ag1968
aaaa(lp4827
I2291
aI2297
ag1779
a(lp4828
(lp4829
I2291
ag1946
aa(lp4830
I2292
ag1938
aa(lp4831
I2293
ag1922
aa(lp4832
I2294
ag1944
aa(lp4833
I2295
ag1952
aa(lp4834
I2296
ag1933
aa(lp4835
I2297
ag1946
aaaa(lp4836
I2299
aI2306
ag1788
a(lp4837
(lp4838
I2299
ag1924
aa(lp4839
I2300
ag1922
aa(lp4840
I2301
ag1952
aa(lp4841
I2302
ag2020
aa(lp4842
I2303
ag1927
aa(lp4843
I2304
ag1938
aa(lp4844
I2305
ag1991
aa(lp4845
I2306
ag1946
aaaa(lp4846
I2308
aI2311
aS'that'
p4847
a(lp4848
(lp4849
I2308
ag1931
aa(lp4850
I2309
ag1959
aa(lp4851
I2310
ag1920
aa(lp4852
I2311
ag1931
aaaa(lp4853
I2313
aI2315
aS'can'
p4854
a(lp4855
(lp4856
I2313
ag1918
aa(lp4857
I2314
ag1920
aa(lp4858
I2315
ag1935
aaaa(lp4859
I2317
aI2321
ag1797
a(lp4860
(lp4861
I2317
ag1918
aa(lp4862
I2318
ag1920
aa(lp4863
I2319
ag1933
aa(lp4864
I2320
ag1946
aa(lp4865
I2321
ag1938
aaaa(lp4866
I2323
aI2329
ag1806
a(lp4867
(lp4868
I2323
ag1946
aa(lp4869
I2324
ag1944
aa(lp4870
I2325
ag1991
aa(lp4871
I2326
ag1944
aa(lp4872
I2327
ag1927
aa(lp4873
I2328
ag1920
aa(lp4874
I2329
ag1922
aaaa(lp4875
I2331
aI2334
ag1815
a(lp4876
(lp4877
I2331
ag1924
aa(lp4878
I2332
ag1920
aa(lp4879
I2333
ag1944
aa(lp4880
I2334
ag1935
aaaa(lp4881
I2337
aI2339
aS'for'
p4882
a(lp4883
(lp4884
I2337
ag1981
aa(lp4885
I2338
ag1952
aa(lp4886
I2339
ag1922
aaaa(lp4887
I2341
aI2344
aS'this'
p4888
a(lp4889
(lp4890
I2341
ag1931
aa(lp4891
I2342
ag1959
aa(lp4892
I2343
ag1944
aa(lp4893
I2344
ag1946
aaaa(lp4894
I2346
aI2351
ag1824
a(lp4895
(lp4896
I2346
ag1922
aa(lp4897
I2347
ag1938
aa(lp4898
I2348
ag1920
aa(lp4899
I2349
ag1946
aa(lp4900
I2350
ag1952
aa(lp4901
I2351
ag1935
aaaa(lp4902
I2354
aI2358
ag1833
a(lp4903
(lp4904
I2354
ag2046
aa(lp4905
I2355
ag1952
aa(lp4906
I2356
ag1944
aa(lp4907
I2357
ag1935
aa(lp4908
I2358
ag2046
aaaa(lp4909
I2360
aI2361
aS'to'
p4910
a(lp4911
(lp4912
I2360
ag1931
aa(lp4913
I2361
ag1952
aaaa(lp4914
I2363
aI2366
aS'your'
p4915
a(lp4916
(lp4917
I2363
ag1968
aa(lp4918
I2364
ag1952
aa(lp4919
I2365
ag1933
aa(lp4920
I2366
ag1922
aaaa(lp4921
I2368
aI2373
ag1842
a(lp4922
(lp4923
I2368
ag2004
aa(lp4924
I2369
ag1952
aa(lp4925
I2370
ag1918
aa(lp4926
I2371
ag1931
aa(lp4927
I2372
ag1952
aa(lp4928
I2373
ag1922
aaaa(lp4929
I2375
aI2377
aS'and'
p4930
a(lp4931
(lp4932
I2375
ag1920
aa(lp4933
I2376
ag1935
aa(lp4934
I2377
ag2004
aaaa(lp4935
I2379
aI2385
ag1851
a(lp4936
(lp4937
I2379
ag1927
aa(lp4938
I2380
ag1938
aa(lp4939
I2381
ag1931
aa(lp4940
I2382
ag1931
aa(lp4941
I2383
ag1944
aa(lp4942
I2384
ag1935
aa(lp4943
I2385
ag2046
aaaa(lp4944
I2387
aI2389
aS'him'
p4945
a(lp4946
(lp4947
I2387
ag1959
aa(lp4948
I2388
ag1944
aa(lp4949
I2389
ag1991
aaaa(lp4950
I2391
aI2394
ag1860
a(lp4951
(lp4952
I2391
ag2547
aa(lp4953
I2392
ag1935
aa(lp4954
I2393
ag1952
aa(lp4955
I2394
ag2001
aaaa(lp4956
I2396
aI2400
aS'about'
p4957
a(lp4958
(lp4959
I2396
ag1920
aa(lp4960
I2397
ag2020
aa(lp4961
I2398
ag1952
aa(lp4962
I2399
ag1933
aa(lp4963
I2400
ag1931
aaaa(lp4964
I2402
aI2404
aS'the'
p4965
a(lp4966
(lp4967
I2402
ag1931
aa(lp4968
I2403
ag1959
aa(lp4969
I2404
ag1938
aaaa(lp4970
I2406
aI2409
ag1869
a(lp4971
(lp4972
I2406
ag1924
aa(lp4973
I2407
ag1920
aa(lp4974
I2408
ag1944
aa(lp4975
I2409
ag1935
aaaa(lp4976
I2411
aI2413
aS'can'
p4977
a(lp4978
(lp4979
I2411
ag1918
aa(lp4980
I2412
ag1920
aa(lp4981
I2413
ag1935
aaaa(lp4982
I2415
aI2416
aS'be'
p4983
a(lp4984
(lp4985
I2415
ag2020
aa(lp4986
I2416
ag1938
aaaa(lp4987
I2418
aI2421
aS'very'
p4988
a(lp4989
(lp4990
I2418
ag2016
aa(lp4991
I2419
ag1938
aa(lp4992
I2420
ag1922
aa(lp4993
I2421
ag1968
aaaa(lp4994
I2423
aI2431
ag1878
a(lp4995
(lp4996
I2423
ag1944
aa(lp4997
I2424
ag1991
aa(lp4998
I2425
ag1924
aa(lp4999
I2426
ag1952
aa(lp5000
I2427
ag1922
aa(lp5001
I2428
ag1931
aa(lp5002
I2429
ag1920
aa(lp5003
I2430
ag1935
aa(lp5004
I2431
ag1931
aaaa(lp5005
I2433
aI2434
aS'to'
p5006
a(lp5007
(lp5008
I2433
ag1931
aa(lp5009
I2434
ag1952
aaaa(lp5010
I2436
aI2442
ag1887
a(lp5011
(lp5012
I2436
ag1922
aa(lp5013
I2437
ag1938
aa(lp5014
I2438
ag1918
aa(lp5015
I2439
ag1938
aa(lp5016
I2440
ag1944
aa(lp5017
I2441
ag2016
aa(lp5018
I2442
ag1938
aaaa(lp5019
I2444
aI2446
aS'the'
p5020
a(lp5021
(lp5022
I2444
ag1931
aa(lp5023
I2445
ag1959
aa(lp5024
I2446
ag1938
aaaa(lp5025
I2448
aI2452
ag1896
a(lp5026
(lp5027
I2448
ag1922
aa(lp5028
I2449
ag1944
aa(lp5029
I2450
ag2046
aa(lp5030
I2451
ag1959
aa(lp5031
I2452
ag1931
aaaa(lp5032
I2448
aI2452
ag1905
a(lp5033
(lp5034
I2454
ag1931
aa(lp5035
I2455
ag1922
aa(lp5036
I2456
ag1938
aa(lp5037
I2457
ag1920
aa(lp5038
I2458
ag1931
aa(lp5039
I2459
ag1991
aa(lp5040
I2460
ag1938
aa(lp5041
I2461
ag1935
aa(lp5042
I2462
ag1931
aaaasS'cleanCharacterMap'
p5043
(lp5044
g1917
ag1919
ag1921
ag1923
ag1925
ag1926
a(lp5045
I6
aS' '
p5046
aag1930
ag1932
ag1934
ag1936
ag1937
ag1939
a(lp5047
I13
ag5046
aag1943
ag1945
a(lp5048
I16
ag5046
aag1950
ag1951
ag1953
a(lp5049
I20
ag5046
aag1957
ag1958
ag1960
a(lp5050
I24
ag5046
aag1964
ag1965
ag1966
ag1967
a(lp5051
I29
ag5046
aag1971
ag1972
ag1973
ag1974
ag1975
a(lp5052
I35
ag5046
aag1979
ag1980
a(lp5053
I38
ag5046
aag1984
ag1985
ag1986
ag1987
ag1988
ag1989
ag1990
a(lp5054
I46
ag5046
aag1994
ag1995
ag1996
ag1997
a(lp5055
I51
ag5046
aag2000
ag2002
ag2003
ag2005
ag2006
ag2007
ag2008
ag2009
ag2010
a(lp5056
I62
ag5046
aag2013
ag2014
ag2015
ag2017
ag2018
ag2019
ag2021
ag2022
a(lp5057
I71
ag5046
aag2025
ag2027
a(lp5058
I75
ag5046
aag2031
ag2032
ag2034
ag2035
a(lp5059
I80
ag5046
aag2039
ag2040
ag2041
ag2042
ag2043
ag2044
ag2045
a(lp5060
I88
ag5046
aag2050
ag2051
ag2052
ag2053
a(lp5061
I93
ag5046
aag2056
ag2057
ag2058
ag2059
ag2060
ag2061
ag2062
a(lp5062
I101
ag5046
aag2065
ag2066
ag2067
ag2068
a(lp5063
I107
ag5046
aag2072
ag2073
ag2074
ag2075
a(lp5064
I112
ag5046
aag2079
ag2080
a(lp5065
I115
ag5046
aag2083
a(lp5066
I117
ag5046
aag2086
ag2087
ag2088
ag2089
a(lp5067
I122
ag5046
aag2093
ag2094
ag2095
ag2096
a(lp5068
I127
ag5046
aag2099
ag2100
ag2101
ag2102
ag2103
ag2104
a(lp5069
I134
ag5046
aag2108
ag2109
a(lp5070
I137
ag5046
aag2113
ag2114
ag2115
a(lp5071
I141
ag5046
aag2118
ag2119
ag2120
ag2121
ag2122
ag2123
ag2124
a(lp5072
I149
ag5046
aag2127
ag2128
ag2129
ag2130
a(lp5073
I154
ag5046
aag2134
ag2135
ag2136
a(lp5074
I158
ag5046
aag2140
ag2141
a(lp5075
I161
ag5046
aag2145
ag2146
ag2147
a(lp5076
I165
ag5046
aag2151
ag2152
a(lp5077
I168
ag5046
aag2155
ag2156
ag2157
ag2158
ag2159
ag2160
a(lp5078
I175
ag5046
aag2164
ag2165
a(lp5079
I178
ag5046
aag2168
a(lp5080
I180
ag5046
aag2171
ag2172
ag2173
ag2174
ag2175
ag2176
ag2177
a(lp5081
I188
ag5046
aag2181
ag2182
a(lp5082
I191
ag5046
aag2185
ag2186
ag2187
ag2188
ag2189
ag2190
ag2191
ag2192
ag2193
a(lp5083
I201
ag5046
aag2196
ag2197
ag2198
ag2199
ag2200
ag2201
ag2202
ag2203
a(lp5084
I211
ag5046
aag2206
ag2207
ag2208
ag2209
a(lp5085
I216
ag5046
aag2212
ag2213
ag2214
ag2215
ag2216
a(lp5086
I222
ag5046
aag2220
ag2221
a(lp5087
I225
ag5046
aag2225
ag2226
a(lp5088
I228
ag5046
aag2229
ag2230
ag2231
ag2232
ag2233
ag2234
a(lp5089
I235
ag5046
aag2238
ag2239
a(lp5090
I238
ag5046
aag2242
ag2243
ag2244
ag2245
ag2246
ag2247
a(lp5091
I245
ag5046
aag2250
ag2251
ag2252
ag2253
ag2254
ag2255
a(lp5092
I252
ag5046
aag2258
ag2259
ag2260
ag2261
ag2262
ag2263
ag2264
ag2265
a(lp5093
I262
ag5046
aag2268
ag2269
ag2270
ag2271
ag2272
ag2273
ag2274
a(lp5094
I271
ag5046
aag2278
ag2279
a(lp5095
I274
ag5046
aag2283
ag2284
ag2285
a(lp5096
I278
ag5046
aag2289
ag2290
ag2291
a(lp5097
I282
ag5046
aag2294
ag2295
ag2296
ag2297
ag2298
ag2299
ag2300
a(lp5098
I290
ag5046
aag2304
ag2305
ag2306
ag2307
a(lp5099
I295
ag5046
aag2310
ag2311
ag2312
ag2313
a(lp5100
I300
ag5046
aag2317
ag2318
a(lp5101
I303
ag5046
aag2322
ag2323
ag2324
ag2325
a(lp5102
I308
ag5046
aag2328
ag2329
ag2330
ag2331
ag2332
ag2333
ag2334
a(lp5103
I317
ag5046
aag2338
ag2339
ag2340
a(lp5104
I321
ag5046
aag2343
ag2344
ag2345
ag2346
a(lp5105
I326
ag5046
aag2350
ag2351
a(lp5106
I329
ag5046
aag2354
ag2355
ag2356
ag2357
ag2358
ag2359
ag2360
ag2361
ag2362
ag2363
a(lp5107
I340
ag5046
aag2367
ag2368
ag2369
ag2370
a(lp5108
I345
ag5046
aag2373
ag2374
ag2375
ag2376
ag2377
ag2378
a(lp5109
I352
ag5046
aag2381
ag2382
ag2383
ag2384
ag2385
ag2386
a(lp5110
I359
ag5046
aag2389
ag2390
ag2391
ag2392
ag2393
ag2394
ag2395
ag2396
a(lp5111
I368
ag5046
aag2400
ag2401
a(lp5112
I371
ag5046
aag2405
ag2406
ag2407
a(lp5113
I375
ag5046
aag2410
ag2411
ag2412
ag2413
ag2414
ag2415
a(lp5114
I382
ag5046
aag2419
ag2420
ag2421
a(lp5115
I386
ag5046
aag2424
ag2425
ag2426
ag2427
ag2428
ag2429
ag2430
a(lp5116
I395
ag5046
aag2434
ag2435
ag2436
ag2437
ag2438
a(lp5117
I401
ag5046
aag2442
ag2443
ag2444
a(lp5118
I405
ag5046
aag2447
ag2448
ag2449
ag2450
a(lp5119
I410
ag5046
aag2454
ag2455
ag2456
ag2457
ag2458
a(lp5120
I416
ag5046
aag2461
ag2462
ag2463
ag2464
ag2465
ag2466
a(lp5121
I423
ag5046
aag2470
ag2471
a(lp5122
I426
ag5046
aag2474
ag2475
ag2476
ag2477
ag2478
ag2479
ag2480
a(lp5123
I434
ag5046
aag2483
ag2484
ag2485
ag2486
a(lp5124
I439
ag5046
aag2490
ag2491
ag2492
ag2493
a(lp5125
I444
ag5046
aag2497
ag2498
ag2499
a(lp5126
I448
ag5046
aag2503
ag2504
ag2505
ag2506
ag2507
ag2508
a(lp5127
I455
ag5046
aag2512
ag2513
a(lp5128
I458
ag5046
aag2516
ag2517
ag2518
ag2519
ag2520
a(lp5129
I464
ag5046
aag2524
ag2525
a(lp5130
I468
ag5046
aag2529
ag2530
ag2531
ag2532
a(lp5131
I473
ag5046
aag2536
ag2537
a(lp5132
I476
ag5046
aag2540
a(lp5133
I478
ag5046
aag2543
ag2544
ag2545
ag2546
a(lp5134
I483
ag5046
aag2551
ag2552
a(lp5135
I486
ag5046
aag2556
ag2557
ag2558
ag2559
a(lp5136
I491
ag5046
aag2563
ag2564
a(lp5137
I494
ag5046
aag2568
ag2569
ag2570
a(lp5138
I498
ag5046
aag2573
ag2574
ag2575
ag2576
ag2577
ag2578
ag2579
ag2580
a(lp5139
I508
ag5046
aag2584
ag2585
ag2586
ag2587
ag2588
a(lp5140
I514
ag5046
aag2592
ag2593
ag2594
ag2595
a(lp5141
I519
ag5046
aag2598
ag2599
ag2600
ag2601
ag2602
ag2603
a(lp5142
I526
ag5046
aag2606
ag2607
ag2608
ag2609
ag2610
ag2611
a(lp5143
I533
ag5046
aag2614
ag2615
ag2616
ag2617
ag2618
ag2619
ag2620
ag2621
a(lp5144
I543
ag5046
aag2625
ag2626
ag2627
ag2628
a(lp5145
I548
ag5046
aag2632
ag2633
ag2634
a(lp5146
I552
ag5046
aag2638
ag2639
a(lp5147
I555
ag5046
aag2642
ag2643
ag2644
ag2645
ag2646
ag2647
ag2648
a(lp5148
I563
ag5046
aag2652
ag2653
ag2654
a(lp5149
I567
ag5046
aag2657
ag2658
ag2659
ag2660
a(lp5150
I572
ag5046
aag2664
ag2665
ag2666
a(lp5151
I576
ag5046
aag2670
ag2671
ag2672
ag2673
a(lp5152
I581
ag5046
aag2677
ag2678
a(lp5153
I584
ag5046
aag2682
ag2683
ag2684
ag2685
a(lp5154
I589
ag5046
aag2688
ag2689
ag2690
ag2691
ag2692
ag2693
ag2694
a(lp5155
I598
ag5046
aag2697
ag2698
ag2699
ag2701
ag2702
ag2703
a(lp5156
I605
ag5046
aag2707
ag2708
a(lp5157
I608
ag5046
aag2712
ag2713
ag2714
a(lp5158
I612
ag5046
aag2717
ag2718
ag2719
ag2720
ag2721
ag2722
ag2723
a(lp5159
I620
ag5046
aag2726
ag2727
ag2728
a(lp5160
I624
ag5046
aag2731
ag2732
ag2733
ag2734
ag2735
a(lp5161
I630
ag5046
aag2739
ag2740
a(lp5162
I633
ag5046
aag2743
ag2744
ag2745
ag2746
a(lp5163
I638
ag5046
aag2750
ag2751
a(lp5164
I641
ag5046
aag2755
ag2756
ag2757
a(lp5165
I645
ag5046
aag2760
ag2761
ag2762
ag2763
ag2764
ag2765
ag2766
a(lp5166
I653
ag5046
aag2769
ag2770
ag2771
ag2772
a(lp5167
I658
ag5046
aag2776
ag2777
ag2778
a(lp5168
I662
ag5046
aag2782
ag2783
a(lp5169
I665
ag5046
aag2787
ag2788
a(lp5170
I668
ag5046
aag2791
ag2792
ag2793
ag2794
ag2795
ag2796
a(lp5171
I675
ag5046
aag2800
ag2801
a(lp5172
I678
ag5046
aag2805
ag2806
ag2807
a(lp5173
I682
ag5046
aag2810
ag2811
ag2812
ag2813
ag2814
ag2815
ag2816
a(lp5174
I691
ag5046
aag2820
ag2821
ag2822
ag2823
ag2824
ag2825
a(lp5175
I698
ag5046
aag2829
ag2830
ag2831
a(lp5176
I702
ag5046
aag2834
ag2835
ag2836
ag2837
ag2838
ag2839
a(lp5177
I709
ag5046
aag2843
ag2844
ag2845
a(lp5178
I713
ag5046
aag2849
ag2850
ag2851
a(lp5179
I717
ag5046
aag2855
ag2856
ag2857
ag2858
a(lp5180
I722
ag5046
aag2861
ag2862
ag2863
ag2864
ag2865
ag2866
ag2867
a(lp5181
I730
ag5046
aag2871
ag2872
ag2873
ag2874
a(lp5182
I735
ag5046
aag2878
ag2879
ag2880
ag2881
a(lp5183
I740
ag5046
aag2884
ag2885
ag2886
ag2887
ag2888
ag2889
a(lp5184
I747
ag5046
aag2892
ag2893
ag2894
ag2895
ag2896
ag2897
a(lp5185
I754
ag5046
aag2900
ag2901
ag2902
ag2903
a(lp5186
I760
ag5046
aag2907
ag2908
ag2909
a(lp5187
I764
ag5046
aag2913
ag2914
ag2915
ag2916
a(lp5188
I769
ag5046
aag2919
ag2920
ag2921
ag2922
a(lp5189
I774
ag5046
aag2926
ag2927
a(lp5190
I777
ag5046
aag2930
ag2931
ag2932
ag2933
a(lp5191
I782
ag5046
aag2936
a(lp5192
I784
ag5046
aag2940
ag2941
ag2942
a(lp5193
I788
ag5046
aag2945
ag2946
ag2947
ag2948
ag2949
ag2950
ag2951
a(lp5194
I796
ag5046
aag2955
ag2956
a(lp5195
I799
ag5046
aag2959
ag2960
ag2961
ag2962
ag2963
a(lp5196
I806
ag5046
aag2967
ag2968
ag2969
ag2970
a(lp5197
I811
ag5046
aag2974
ag2975
ag2976
a(lp5198
I815
ag5046
aag2979
ag2980
ag2981
ag2982
ag2983
ag2984
ag2985
a(lp5199
I823
ag5046
aag2989
ag2990
ag2991
a(lp5200
I827
ag5046
aag2994
ag2995
ag2996
ag2997
ag2998
ag2999
ag3000
a(lp5201
I835
ag5046
aag3004
ag3005
a(lp5202
I838
ag5046
aag3009
ag3010
ag3011
a(lp5203
I842
ag5046
aag3014
ag3015
ag3016
a(lp5204
I847
ag5046
aag3020
ag3021
ag3022
a(lp5205
I851
ag5046
aag3026
ag3027
ag3028
a(lp5206
I855
ag5046
aag3031
ag3032
ag3033
ag3034
a(lp5207
I860
ag5046
aag3037
a(lp5208
I862
ag5046
aag3040
ag3041
ag3042
ag3043
a(lp5209
I867
ag5046
aag3047
ag3048
a(lp5210
I870
ag5046
aag3051
ag3052
ag3053
ag3054
ag3055
ag3056
ag3057
a(lp5211
I878
ag5046
aag3061
ag3062
ag3063
a(lp5212
I882
ag5046
aag3067
ag3068
ag3069
a(lp5213
I886
ag5046
aag3072
ag3073
ag3074
ag3075
ag3076
ag3077
ag3078
ag3079
ag3080
ag3081
ag3082
ag3083
a(lp5214
I899
ag5046
aag3086
ag3087
ag3088
a(lp5215
I903
ag5046
aag3092
ag3093
ag3094
a(lp5216
I907
ag5046
aag3097
ag3098
ag3099
ag3100
ag3101
ag3102
ag3103
a(lp5217
I915
ag5046
aag3107
ag3108
a(lp5218
I918
ag5046
aag3111
ag3112
ag3113
ag3114
ag3115
ag3116
ag3117
ag3118
ag3119
a(lp5219
I929
ag5046
aag3122
ag3123
ag3124
ag3125
ag3126
ag3127
ag3128
a(lp5220
I937
ag5046
aag3132
ag3133
ag3134
a(lp5221
I941
ag5046
aag3137
ag3138
ag3139
ag3140
a(lp5222
I946
ag5046
aag3143
ag3144
ag3145
ag3146
ag3147
ag3148
a(lp5223
I953
ag5046
aag3151
a(lp5224
I955
ag5046
aag3154
ag3155
ag3156
ag3157
ag3158
ag3159
a(lp5225
I962
ag5046
aag3163
ag3164
a(lp5226
I965
ag5046
aag3167
ag3168
ag3169
ag3170
ag3171
ag3172
a(lp5227
I973
ag5046
aag3176
ag3177
ag3178
ag3179
ag3180
a(lp5228
I979
ag5046
aag3184
ag3185
ag3186
a(lp5229
I983
ag5046
aag3189
ag3190
ag3191
ag3192
ag3193
ag3194
a(lp5230
I990
ag5046
aag3197
ag3198
ag3199
ag3200
ag3201
ag3202
ag3203
ag3204
a(lp5231
I999
ag5046
aag3208
ag3209
ag3210
ag3211
a(lp5232
I1004
ag5046
aag3215
ag3216
ag3217
a(lp5233
I1008
ag5046
aag3220
ag3221
ag3222
ag3223
ag3224
a(lp5234
I1014
ag5046
aag3228
ag3229
ag3230
ag3231
a(lp5235
I1019
ag5046
aag3234
ag3235
ag3236
ag3237
ag3238
a(lp5236
I1025
ag5046
aag3242
ag3243
ag3244
ag3245
a(lp5237
I1030
ag5046
aag3248
ag3249
ag3250
ag3251
a(lp5238
I1035
ag5046
aag3255
ag3256
a(lp5239
I1038
ag5046
aag3259
ag3260
ag3261
ag3262
a(lp5240
I1044
ag5046
aag3265
ag3266
ag3267
ag3268
ag3269
ag3270
ag3271
ag3272
ag3273
ag3274
a(lp5241
I1055
ag5046
aag3277
ag3278
ag3279
ag3280
ag3281
ag3282
ag3283
ag3284
ag3285
ag3286
a(lp5242
I1066
ag5046
aag3289
ag3290
ag3291
ag3292
ag3293
ag3294
ag3295
a(lp5243
I1074
ag5046
aag3298
ag3299
ag3300
ag3301
ag3302
ag3303
a(lp5244
I1081
ag5046
aag3306
ag3307
ag3308
ag3309
ag3310
ag3311
ag3312
a(lp5245
I1089
ag5046
aag3316
ag3317
ag3318
ag3319
a(lp5246
I1094
ag5046
aag3323
ag3324
ag3325
a(lp5247
I1098
ag5046
aag3329
ag3330
a(lp5248
I1101
ag5046
aag3334
ag3335
ag3336
a(lp5249
I1105
ag5046
aag3339
ag3340
ag3341
ag3342
ag3343
a(lp5250
I1111
ag5046
aag3347
ag3348
a(lp5251
I1114
ag5046
aag3351
ag3352
ag3353
ag3354
a(lp5252
I1119
ag5046
aag3358
ag3359
a(lp5253
I1122
ag5046
aag3363
ag3364
ag3365
a(lp5254
I1126
ag5046
aag3368
ag3369
ag3370
ag3371
ag3372
ag3373
ag3374
a(lp5255
I1134
ag5046
aag3378
ag3379
a(lp5256
I1137
ag5046
aag3382
ag3383
ag3384
ag3385
ag3386
ag3387
ag3388
ag3389
ag3390
ag3391
a(lp5257
I1148
ag5046
aag3394
ag3395
ag3396
ag3397
ag3398
ag3399
ag3400
ag3401
ag3402
ag3403
a(lp5258
I1160
ag5046
aag3407
ag3408
ag3409
ag3410
a(lp5259
I1165
ag5046
aag3414
ag3415
a(lp5260
I1168
ag5046
aag3418
a(lp5261
I1170
ag5046
aag3421
ag3422
ag3423
ag3424
ag3425
ag3426
ag3427
a(lp5262
I1178
ag5046
aag3431
ag3432
ag3433
ag3434
a(lp5263
I1183
ag5046
aag3437
ag3438
ag3439
ag3440
ag3441
ag3442
a(lp5264
I1190
ag5046
aag3446
ag3447
ag3448
ag3449
a(lp5265
I1195
ag5046
aag3453
ag3454
ag3455
ag3456
ag3457
a(lp5266
I1201
ag5046
aag3461
ag3462
a(lp5267
I1204
ag5046
aag3465
ag3466
ag3467
ag3468
ag3469
ag3470
a(lp5268
I1211
ag5046
aag3474
ag3475
a(lp5269
I1214
ag5046
aag3478
ag3479
ag3480
ag3481
ag3482
ag3483
a(lp5270
I1221
ag5046
aag3487
ag3488
ag3489
ag3490
a(lp5271
I1226
ag5046
aag3494
ag3495
ag3496
a(lp5272
I1230
ag5046
aag3499
ag3500
ag3501
ag3502
ag3503
ag3504
ag3505
ag3506
ag3507
ag3508
a(lp5273
I1242
ag5046
aag3511
ag3512
ag3513
ag3514
ag3515
a(lp5274
I1248
ag5046
aag3519
ag3520
ag3521
ag3522
a(lp5275
I1253
ag5046
aag3525
ag3526
ag3527
ag3528
ag3529
ag3530
ag3531
a(lp5276
I1261
ag5046
aag3535
ag3536
a(lp5277
I1264
ag5046
aag3539
ag3540
ag3541
ag3542
ag3543
ag3544
a(lp5278
I1271
ag5046
aag3548
ag3549
a(lp5279
I1274
ag5046
aag3552
ag3553
ag3554
ag3555
ag3556
ag3557
ag3558
ag3559
a(lp5280
I1283
ag5046
aag3563
ag3564
ag3565
a(lp5281
I1287
ag5046
aag3569
ag3570
ag3571
a(lp5282
I1291
ag5046
aag3574
ag3575
ag3576
ag3577
ag3578
a(lp5283
I1297
ag5046
aag3582
ag3583
a(lp5284
I1300
ag5046
aag3587
ag3588
ag3589
a(lp5285
I1304
ag5046
aag3592
ag3593
ag3594
ag3595
a(lp5286
I1310
ag5046
aag3598
ag3599
ag3600
ag3601
ag3602
a(lp5287
I1317
ag5046
aag3606
ag3607
ag3608
a(lp5288
I1321
ag5046
aag3611
ag3612
ag3613
ag3614
a(lp5289
I1327
ag5046
aag3618
ag3619
a(lp5290
I1331
ag5046
aag3623
ag3624
a(lp5291
I1334
ag5046
aag3627
ag3628
ag3629
ag3630
ag3631
a(lp5292
I1340
ag5046
aag3635
ag3636
a(lp5293
I1343
ag5046
aag3639
a(lp5294
I1345
ag5046
aag3642
ag3643
ag3644
ag3645
ag3646
ag3647
ag3648
a(lp5295
I1353
ag5046
aag3652
ag3653
ag3654
ag3655
a(lp5296
I1358
ag5046
aag3659
ag3660
a(lp5297
I1361
ag5046
aag3663
ag3664
ag3665
ag3666
ag3667
ag3668
ag3669
a(lp5298
I1369
ag5046
aag3673
ag3674
ag3675
a(lp5299
I1373
ag5046
aag3678
ag3679
ag3680
ag3681
a(lp5300
I1378
ag5046
aag3685
ag3686
a(lp5301
I1381
ag5046
aag3690
ag3691
ag3692
ag3693
a(lp5302
I1386
ag5046
aag3696
ag3697
ag3698
ag3699
ag3700
ag3701
ag3702
a(lp5303
I1395
ag5046
aag3705
ag3706
ag3707
ag3708
ag3709
ag3710
ag3711
ag3712
ag3713
ag3714
a(lp5304
I1406
ag5046
aag3717
ag3718
ag3719
ag3720
ag3721
ag3722
ag3723
ag3724
ag3725
ag3726
a(lp5305
I1417
ag5046
aag3730
ag3731
a(lp5306
I1420
ag5046
aag3734
ag3735
ag3736
ag3737
ag3738
ag3739
ag3740
a(lp5307
I1428
ag5046
aag3743
ag3744
ag3745
ag3746
ag3747
ag3748
ag3749
a(lp5308
I1436
ag5046
aag3753
ag3754
ag3755
ag3756
a(lp5309
I1441
ag5046
aag3759
ag3760
ag3761
ag3762
ag3763
a(lp5310
I1447
ag5046
aag3766
ag3767
ag3768
ag3769
ag3770
ag3771
a(lp5311
I1454
ag5046
aag3774
ag3775
ag3776
ag3777
a(lp5312
I1459
ag5046
aag3781
ag3782
a(lp5313
I1462
ag5046
aag3786
ag3787
ag3788
a(lp5314
I1466
ag5046
aag3791
ag3792
ag3793
ag3794
ag3795
ag3796
ag3797
a(lp5315
I1475
ag5046
aag3801
ag3802
ag3803
ag3804
a(lp5316
I1480
ag5046
aag3807
ag3808
ag3809
ag3810
ag3811
ag3812
ag3813
ag3814
ag3815
a(lp5317
I1490
ag5046
aag3819
ag3820
a(lp5318
I1493
ag5046
aag3823
a(lp5319
I1495
ag5046
aag3826
ag3827
ag3828
ag3829
ag3830
ag3831
ag3832
a(lp5320
I1503
ag5046
aag3836
ag3837
ag3838
ag3839
a(lp5321
I1508
ag5046
aag3842
ag3843
ag3844
ag3845
ag3846
ag3847
a(lp5322
I1515
ag5046
aag3851
ag3852
ag3853
ag3854
a(lp5323
I1520
ag5046
aag3858
ag3859
ag3860
a(lp5324
I1524
ag5046
aag3863
ag3864
ag3865
ag3866
ag3867
ag3868
ag3869
a(lp5325
I1532
ag5046
aag3872
ag3873
ag3874
ag3875
ag3876
ag3877
ag3878
ag3879
a(lp5326
I1541
ag5046
aag3882
ag3883
ag3884
a(lp5327
I1545
ag5046
aag3887
ag3888
ag3889
ag3890
ag3891
ag3892
ag3893
ag3894
a(lp5328
I1555
ag5046
aag3898
ag3899
a(lp5329
I1558
ag5046
aag3903
ag3904
ag3905
a(lp5330
I1562
ag5046
aag3909
ag3910
a(lp5331
I1565
ag5046
aag3913
a(lp5332
I1567
ag5046
aag3916
ag3917
ag3918
ag3919
ag3920
ag3921
a(lp5333
I1574
ag5046
aag3925
ag3926
a(lp5334
I1577
ag5046
aag3929
ag3930
ag3931
ag3932
ag3933
ag3934
a(lp5335
I1584
ag5046
aag3938
ag3939
a(lp5336
I1587
ag5046
aag3942
ag3943
ag3944
ag3945
a(lp5337
I1592
ag5046
aag3948
ag3949
ag3950
ag3951
ag3952
a(lp5338
I1598
ag5046
aag3956
ag3957
a(lp5339
I1601
ag5046
aag3961
ag3962
ag3963
a(lp5340
I1605
ag5046
aag3966
ag3967
ag3968
ag3969
a(lp5341
I1611
ag5046
aag3973
ag3974
a(lp5342
I1614
ag5046
aag3978
ag3979
ag3980
a(lp5343
I1618
ag5046
aag3983
ag3984
ag3985
ag3986
ag3987
a(lp5344
I1624
ag5046
aag3990
a(lp5345
I1626
ag5046
aag3993
ag3994
ag3995
a(lp5346
I1630
ag5046
aag3999
ag4000
a(lp5347
I1633
ag5046
aag4003
ag4004
ag4005
ag4006
a(lp5348
I1639
ag5046
aag4009
ag4010
ag4011
ag4012
ag4013
ag4014
ag4015
ag4016
ag4017
a(lp5349
I1649
ag5046
aag4020
ag4021
ag4022
ag4023
a(lp5350
I1654
ag5046
aag4027
ag4028
a(lp5351
I1657
ag5046
aag4032
ag4033
ag4034
a(lp5352
I1661
ag5046
aag4037
ag4038
ag4039
ag4040
ag4041
ag4042
ag4043
a(lp5353
I1669
ag5046
aag4047
ag4048
a(lp5354
I1672
ag5046
aag4052
ag4053
ag4054
a(lp5355
I1676
ag5046
aag4057
ag4058
ag4059
ag4060
ag4061
ag4062
ag4063
a(lp5356
I1684
ag5046
aag4067
ag4068
a(lp5357
I1687
ag5046
aag4072
ag4073
ag4074
a(lp5358
I1691
ag5046
aag4077
ag4078
ag4079
ag4080
a(lp5359
I1696
ag5046
aag4084
ag4085
ag4086
a(lp5360
I1700
ag5046
aag4089
ag4090
ag4091
ag4092
a(lp5361
I1705
ag5046
aag4096
ag4097
a(lp5362
I1708
ag5046
aag4100
ag4101
ag4102
ag4103
ag4104
ag4105
ag4106
ag4107
a(lp5363
I1718
ag5046
aag4110
ag4111
ag4112
ag4113
a(lp5364
I1723
ag5046
aag4116
ag4117
ag4118
a(lp5365
I1727
ag5046
aa(lp5366
I1729
ag5046
aag4121
ag4122
ag4123
ag4124
ag4125
ag4126
ag4127
ag4128
a(lp5367
I1738
ag5046
aag4131
ag4132
ag4133
ag4134
ag4135
a(lp5368
I1744
ag5046
aag4138
ag4139
ag4140
ag4141
ag4142
ag4143
a(lp5369
I1751
ag5046
aag4146
ag4147
ag4148
ag4149
a(lp5370
I1756
ag5046
aag4153
ag4154
a(lp5371
I1759
ag5046
aag4158
ag4159
ag4160
a(lp5372
I1764
ag5046
aag4164
ag4165
a(lp5373
I1767
ag5046
aag4169
ag4170
ag4171
a(lp5374
I1771
ag5046
aag4175
ag4176
ag4177
a(lp5375
I1775
ag5046
aag4180
ag4181
ag4182
ag4183
ag4184
ag4185
ag4186
a(lp5376
I1783
ag5046
aag4190
ag4191
ag4192
ag4193
a(lp5377
I1788
ag5046
aag4196
ag4197
ag4198
ag4199
ag4200
ag4201
ag4202
a(lp5378
I1796
ag5046
aag4205
ag4206
ag4207
ag4208
a(lp5379
I1801
ag5046
aag4212
ag4213
a(lp5380
I1804
ag5046
aag4217
ag4218
ag4219
ag4220
a(lp5381
I1809
ag5046
aag4223
ag4224
ag4225
ag4226
a(lp5382
I1814
ag5046
aag4229
ag4230
ag4231
a(lp5383
I1819
ag5046
aag4235
ag4236
ag4237
ag4238
a(lp5384
I1824
ag5046
aag4241
ag4242
ag4243
ag4244
ag4245
a(lp5385
I1830
ag5046
aag4249
ag4250
a(lp5386
I1833
ag5046
aag4253
ag4254
ag4255
ag4256
ag4257
ag4258
ag4259
ag4260
ag4261
ag4262
ag4263
a(lp5387
I1845
ag5046
aag4266
ag4267
ag4268
ag4269
ag4270
ag4271
ag4272
a(lp5388
I1854
ag5046
aag4275
ag4276
ag4277
ag4278
ag4279
ag4280
ag4281
ag4282
ag4283
a(lp5389
I1864
ag5046
aag4287
ag4288
ag4289
ag4290
a(lp5390
I1869
ag5046
aag4293
ag4294
ag4295
ag4296
ag4297
ag4298
a(lp5391
I1876
ag5046
aag4302
ag4303
ag4304
a(lp5392
I1880
ag5046
aag4307
ag4308
ag4309
ag4310
ag4311
a(lp5393
I1886
ag5046
aag4315
ag4316
ag4317
ag4318
ag4319
ag4320
ag4321
a(lp5394
I1894
ag5046
aag4324
a(lp5395
I1896
ag5046
aag4327
ag4328
ag4329
ag4330
ag4331
a(lp5396
I1902
ag5046
aag4334
ag4335
ag4336
ag4337
ag4338
ag4339
a(lp5397
I1910
ag5046
aag4343
ag4344
ag4345
ag4346
a(lp5398
I1915
ag5046
aag4349
ag4350
ag4351
a(lp5399
I1919
ag5046
aag4355
ag4356
a(lp5400
I1922
ag5046
aag4360
ag4361
ag4362
ag4363
ag4364
ag4365
a(lp5401
I1929
ag5046
aag4368
ag4369
ag4370
ag4371
a(lp5402
I1934
ag5046
aag4375
ag4376
a(lp5403
I1937
ag5046
aag4380
ag4381
ag4382
ag4383
ag4384
a(lp5404
I1943
ag5046
aag4387
ag4388
ag4389
ag4390
a(lp5405
I1948
ag5046
aag4393
ag4394
ag4395
a(lp5406
I1953
ag5046
aag4399
ag4400
ag4401
ag4402
ag4403
a(lp5407
I1959
ag5046
aag4407
ag4408
ag4409
a(lp5408
I1963
ag5046
aag4412
ag4413
ag4414
ag4415
ag4416
ag4417
ag4418
a(lp5409
I1971
ag5046
aag4422
ag4423
ag4424
a(lp5410
I1975
ag5046
aag4427
ag4428
ag4429
ag4430
ag4431
ag4432
ag4433
a(lp5411
I1983
ag5046
aag4436
ag4437
ag4438
ag4439
a(lp5412
I1989
ag5046
aag4443
ag4444
a(lp5413
I1992
ag5046
aag4448
ag4449
ag4450
a(lp5414
I1996
ag5046
aag4454
ag4455
ag4456
a(lp5415
I2000
ag5046
aag4460
ag4461
ag4462
ag4463
ag4464
ag4465
a(lp5416
I2007
ag5046
aag4468
ag4469
ag4470
ag4471
ag4472
a(lp5417
I2013
ag5046
aag4475
ag4476
ag4477
ag4478
a(lp5418
I2018
ag5046
aag4481
ag4482
ag4483
ag4484
ag4485
a(lp5419
I2024
ag5046
aag4489
ag4490
ag4491
ag4492
a(lp5420
I2029
ag5046
aag4496
ag4497
ag4498
ag4499
a(lp5421
I2034
ag5046
aag4502
ag4503
ag4504
ag4505
ag4506
ag4507
ag4508
a(lp5422
I2042
ag5046
aag4511
ag4512
ag4513
ag4514
a(lp5423
I2047
ag5046
aag4518
ag4519
a(lp5424
I2050
ag5046
aag4523
ag4524
ag4525
a(lp5425
I2054
ag5046
aag4529
ag4530
ag4531
ag4532
a(lp5426
I2059
ag5046
aag4535
ag4536
ag4537
ag4538
a(lp5427
I2064
ag5046
aag4542
ag4543
ag4544
ag4545
ag4546
ag4547
ag4548
a(lp5428
I2072
ag5046
aag4552
ag4553
ag4554
a(lp5429
I2076
ag5046
aag4557
ag4558
ag4559
ag4560
ag4561
ag4562
a(lp5430
I2083
ag5046
aag4565
ag4566
ag4567
a(lp5431
I2087
ag5046
aag4571
ag4572
ag4573
a(lp5432
I2091
ag5046
aag4577
ag4578
ag4579
ag4580
a(lp5433
I2096
ag5046
aag4584
ag4585
a(lp5434
I2099
ag5046
aag4589
ag4590
ag4591
a(lp5435
I2103
ag5046
aag4594
ag4595
ag4596
a(lp5436
I2107
ag5046
aag4599
ag4600
ag4601
ag4602
a(lp5437
I2113
ag5046
aag4606
ag4607
ag4608
a(lp5438
I2117
ag5046
aag4612
ag4613
ag4614
ag4615
ag4616
ag4617
a(lp5439
I2124
ag5046
aag4620
ag4621
ag4622
ag4623
a(lp5440
I2129
ag5046
aag4626
ag4627
ag4628
ag4629
ag4630
ag4631
ag4632
a(lp5441
I2137
ag5046
aag4635
ag4636
ag4637
ag4638
ag4639
ag4640
ag4641
ag4642
ag4643
a(lp5442
I2147
ag5046
aag4647
ag4648
a(lp5443
I2150
ag5046
aag4651
ag4652
ag4653
ag4654
a(lp5444
I2155
ag5046
aag4658
ag4659
a(lp5445
I2158
ag5046
aag4662
ag4663
ag4664
ag4665
ag4666
ag4667
ag4668
ag4669
a(lp5446
I2168
ag5046
aag4673
ag4674
a(lp5447
I2172
ag5046
aag4678
ag4679
a(lp5448
I2175
ag5046
aag4683
ag4684
ag4685
a(lp5449
I2179
ag5046
aag4689
ag4690
ag4691
a(lp5450
I2183
ag5046
aag4694
ag4695
ag4696
a(lp5451
I2188
ag5046
aag4699
ag4700
ag4701
ag4702
a(lp5452
I2193
ag5046
aag4706
ag4707
a(lp5453
I2196
ag5046
aag4711
ag4712
ag4713
a(lp5454
I2200
ag5046
aag4716
ag4717
ag4718
ag4719
ag4720
ag4721
ag4722
a(lp5455
I2208
ag5046
aag4726
ag4727
a(lp5456
I2211
ag5046
aag4731
ag4732
ag4733
a(lp5457
I2215
ag5046
aag4736
ag4737
ag4738
ag4739
ag4740
ag4741
a(lp5458
I2222
ag5046
aag4744
a(lp5459
I2224
ag5046
aag4747
ag4748
ag4749
ag4750
a(lp5460
I2229
ag5046
aag4754
ag4755
a(lp5461
I2232
ag5046
aag4758
ag4759
ag4760
ag4761
ag4762
ag4763
ag4764
a(lp5462
I2240
ag5046
aag4768
ag4769
ag4770
ag4771
a(lp5463
I2245
ag5046
aag4774
ag4775
ag4776
ag4777
ag4778
ag4779
a(lp5464
I2252
ag5046
aag4782
ag4783
ag4784
ag4785
ag4786
ag4787
a(lp5465
I2259
ag5046
aag4790
ag4791
ag4792
ag4793
ag4794
ag4795
ag4796
ag4797
a(lp5466
I2269
ag5046
aag4801
ag4802
ag4803
ag4804
ag4805
a(lp5467
I2275
ag5046
aag4809
ag4810
ag4811
a(lp5468
I2279
ag5046
aag4815
ag4816
ag4817
ag4818
ag4819
a(lp5469
I2285
ag5046
aag4823
ag4824
ag4825
ag4826
a(lp5470
I2290
ag5046
aag4829
ag4830
ag4831
ag4832
ag4833
ag4834
ag4835
a(lp5471
I2298
ag5046
aag4838
ag4839
ag4840
ag4841
ag4842
ag4843
ag4844
ag4845
a(lp5472
I2307
ag5046
aag4849
ag4850
ag4851
ag4852
a(lp5473
I2312
ag5046
aag4856
ag4857
ag4858
a(lp5474
I2316
ag5046
aag4861
ag4862
ag4863
ag4864
ag4865
a(lp5475
I2322
ag5046
aag4868
ag4869
ag4870
ag4871
ag4872
ag4873
ag4874
a(lp5476
I2330
ag5046
aag4877
ag4878
ag4879
ag4880
a(lp5477
I2336
ag5046
aag4884
ag4885
ag4886
a(lp5478
I2340
ag5046
aag4890
ag4891
ag4892
ag4893
a(lp5479
I2345
ag5046
aag4896
ag4897
ag4898
ag4899
ag4900
ag4901
a(lp5480
I2353
ag5046
aag4904
ag4905
ag4906
ag4907
ag4908
a(lp5481
I2359
ag5046
aag4912
ag4913
a(lp5482
I2362
ag5046
aag4917
ag4918
ag4919
ag4920
a(lp5483
I2367
ag5046
aag4923
ag4924
ag4925
ag4926
ag4927
ag4928
a(lp5484
I2374
ag5046
aag4932
ag4933
ag4934
a(lp5485
I2378
ag5046
aag4937
ag4938
ag4939
ag4940
ag4941
ag4942
ag4943
a(lp5486
I2386
ag5046
aag4947
ag4948
ag4949
a(lp5487
I2390
ag5046
aag4952
ag4953
ag4954
ag4955
a(lp5488
I2395
ag5046
aag4959
ag4960
ag4961
ag4962
ag4963
a(lp5489
I2401
ag5046
aag4967
ag4968
ag4969
a(lp5490
I2405
ag5046
aag4972
ag4973
ag4974
ag4975
a(lp5491
I2410
ag5046
aag4979
ag4980
ag4981
a(lp5492
I2414
ag5046
aag4985
ag4986
a(lp5493
I2417
ag5046
aag4990
ag4991
ag4992
ag4993
a(lp5494
I2422
ag5046
aag4996
ag4997
ag4998
ag4999
ag5000
ag5001
ag5002
ag5003
ag5004
a(lp5495
I2432
ag5046
aag5008
ag5009
a(lp5496
I2435
ag5046
aag5012
ag5013
ag5014
ag5015
ag5016
ag5017
ag5018
a(lp5497
I2443
ag5046
aag5022
ag5023
ag5024
a(lp5498
I2447
ag5046
aag5027
ag5028
ag5029
ag5030
ag5031
a(lp5499
I2453
ag5046
aag5034
ag5035
ag5036
ag5037
ag5038
ag5039
ag5040
ag5041
ag5042
asS'text'
p5500
S'carpal tunnel is not the only cause of forearm pain wednesday, november 26, 2008 dealing with forearm pain? this is a pain that occurs in the forearm area and it can be caused by a variety of different problems. many times it is caused by carpal tunnel syndrome. however, if you are dealing with pain in your forearm, you need to understand that carpal tunnel syndrome is not always the problem. there are many other causes of forearm pain that you should be aware of. here is a look at some of the problems, other than carpal tunnel syndrome, that can be causing the pain you have in your forearm. injury to the forearm one cause of pain in the forearm area can be an injury to the forearm. before you decide you are only dealing with some carpal tunnel pain, you will want to take a few minutes to think. have you injured the forearm in any way? did you take a fall or perhaps did you accidentally hit the forearm on something? perhaps you even pulled a muscle or tendon. these are common problems that can occur that cause this type of pain. peripheral neuropathy another common problem that can be the cause of pain in the forearm is peripheral neuropathy. this is a problem that occurs when there is damage to nerves that are peripheral. often this problem is caused by diabetes and can occur to the feet, hands, and arms. so, it could be a problem that is causing the pain in your forearm. tendonitis tendonitis is another problem that often causes pain in the forearm. this basically is a problem that occurs when the tendons actually get inflamed. it can be a result of injury or even using it too much. it can cause a lot of pain, including pain in the forearm if the tendons in the area are hurt or overused. left arm - possible heart attack last of all, if you are dealing with forearm pain in your left arm, this could be potentially serious. sometimes when people are going through a heart attack, they end up having pain in their left arm, which can include the forearm area. if you are having chest pain along with this forearm pain or you have pain through the entire arm and only on the one side, you should seek medical attention as soon as possible. so, as you can see, pain in the forearm is not always a sign of dealing with carpal tunnel syndrome. there are other very serious problems that can cause similar pain. for this reason, going to your doctor and letting him know about the pain can be very important to receive the right treatment.'
p5501
sS'cleanWordMap'
p5502
(lp5503
g1915
ag1928
ag1969
ag1982
ag1992
ag1998
ag2011
ag2023
ag2029
ag2037
ag2054
ag2063
ag2084
ag2097
ag2116
ag2125
ag2153
ag2169
ag2183
ag2194
ag2204
ag2210
ag2227
ag2240
ag2248
ag2256
ag2266
ag2292
ag2308
ag2326
ag2341
ag2352
ag2371
ag2379
ag2387
ag2408
ag2422
ag2445
ag2459
ag2472
ag2481
ag2514
ag2541
ag2571
ag2596
ag2604
ag2612
ag2640
ag2655
ag2686
ag2695
ag2715
ag2724
ag2729
ag2741
ag2758
ag2767
ag2789
ag2808
ag2832
ag2859
ag2882
ag2890
ag2898
ag2917
ag2928
ag2943
ag2957
ag2977
ag2992
ag3012
ag3029
ag3038
ag3049
ag3070
ag3084
ag3095
ag3109
ag3120
ag3135
ag3141
ag3152
ag3165
ag3187
ag3195
ag3218
ag3232
ag3246
ag3257
ag3263
ag3275
ag3287
ag3296
ag3304
ag3337
ag3349
ag3366
ag3380
ag3392
ag3419
ag3435
ag3463
ag3476
ag3497
ag3509
ag3523
ag3537
ag3550
ag3572
ag3590
ag3596
ag3609
ag3625
ag3640
ag3661
ag3676
ag3694
ag3703
ag3715
ag3732
ag3741
ag3757
ag3764
ag3772
ag3789
ag3805
ag3824
ag3840
ag3861
ag3870
ag3880
ag3885
ag3914
ag3927
ag3940
ag3946
ag3964
ag3981
ag3991
ag4001
ag4007
ag4018
ag4035
ag4055
ag4075
ag4087
ag4098
ag4108
ag4114
ag4119
ag4129
ag4136
ag4144
ag4178
ag4194
ag4203
ag4221
ag4227
ag4239
ag4251
ag4264
ag4273
ag4291
ag4305
ag4325
ag4332
ag4347
ag4366
ag4385
ag4391
ag4410
ag4425
ag4434
ag4466
ag4473
ag4479
ag4500
ag4509
ag4533
ag4555
ag4563
ag4592
ag4597
ag4618
ag4624
ag4633
ag4649
ag4660
ag4692
ag4697
ag4714
ag4734
ag4745
ag4756
ag4772
ag4780
ag4788
ag4827
ag4836
ag4859
ag4866
ag4875
ag4894
ag4902
ag4921
ag4935
ag4950
ag4970
ag4994
ag5010
ag5025
ag5032
asS'lines'
p5504
(lp5505
VCarpal Tunnel is Not the Only Cause of Forearm Pain\u000a
p5506
aVWednesday, November 26, 2008\u000a
p5507
aVDealing with forearm pain? This is a pain that occurs in the forearm area and it can be caused by a variety of different problems. Many times it is caused by carpal tunnel syndrome. However, if you are dealing with pain in your forearm, you need to understand that carpal tunnel syndrome is not always the problem. There are many other causes of forearm pain that you should be aware of. Here is a look at some of the problems, other than carpal tunnel syndrome, that can be causing the pain you have in your forearm.\u000a
p5508
aVInjury to the Forearm\u000a
p5509
aVOne cause of pain in the forearm area can be an injury to the forearm. Before you decide you are only dealing with some carpal tunnel pain, you will want to take a few minutes to think. Have you injured the forearm in any way? Did you take a fall or perhaps did you accidentally hit the forearm on something? Perhaps you even pulled a muscle or tendon. These are common problems that can occur that cause this type of pain.\u000a
p5510
aVPeripheral Neuropathy\u000a
p5511
aVAnother common problem that can be the cause of pain in the forearm is peripheral neuropathy. This is a problem that occurs when there is damage to nerves that are peripheral. Often this problem is caused by diabetes and can occur to the feet, hands, and arms. So, it could be a problem that is causing the pain in your forearm.\u000a
p5512
aVTendonitis\u000a
p5513
aVTendonitis is another problem that often causes pain in the forearm. This basically is a problem that occurs when the tendons actually get inflamed. It can be a result of injury or even using it too much. It can cause a lot of pain, including pain in the forearm if the tendons in the area are hurt or overused.\u000a
p5514
aVLeft Arm - Possible Heart Attack\u000a
p5515
aVLast of all, if you are dealing with forearm pain in your left arm, this could be potentially serious. Sometimes when people are going through a heart attack, they end up having pain in their left arm, which can include the forearm area. If you are having chest pain along with this forearm pain or you have pain through the entire arm and only on the one side, you should seek medical attention as soon as possible.\u000a
p5516
aVSo, as you can see, pain in the forearm is not always a sign of dealing with carpal tunnel syndrome. There are other very serious problems that can cause similar pain. For this reason, going to your doctor and letting him know about the pain can be very important to receive the right treatment.
p5517
asS'docType'
p5518
S'src'
p5519
sS'newfmap'
p5520
(lp5521
g4
ag8
ag10
ag12
ag17
ag19
ag21
ag23
ag26
ag28
ag30
ag32
ag35
ag37
ag39
ag46
ag48
ag50
ag53
ag55
ag57
ag59
ag62
ag64
ag66
ag68
ag71
ag73
ag75
ag77
ag80
ag82
ag84
ag86
ag89
ag91
ag93
ag95
ag98
ag100
ag102
ag109
ag111
ag120
ag122
ag125
ag127
ag129
ag131
ag138
ag140
ag143
ag145
ag147
ag149
ag152
ag154
ag156
ag158
ag161
ag163
ag165
ag167
ag170
ag172
ag174
ag176
ag179
ag181
ag183
ag185
ag188
ag190
ag192
ag194
ag197
ag199
ag201
ag203
ag206
ag208
ag210
ag212
ag215
ag217
ag219
ag224
ag226
ag228
ag230
ag233
ag235
ag237
ag239
ag242
ag244
ag246
ag248
ag251
ag253
ag255
ag260
ag262
ag264
ag269
ag271
ag273
ag275
ag278
ag280
ag282
ag284
ag287
ag289
ag291
ag293
ag296
ag298
ag300
ag305
ag307
ag309
ag311
ag314
ag316
ag318
ag320
ag323
ag325
ag327
ag329
ag332
ag334
ag336
ag338
ag341
ag343
ag345
ag347
ag350
ag352
ag354
ag356
ag359
ag361
ag363
ag368
ag370
ag372
ag374
ag377
ag379
ag381
ag383
ag386
ag388
ag390
ag392
ag395
ag397
ag399
ag401
ag404
ag406
ag408
ag413
ag415
ag417
ag419
ag422
ag424
ag426
ag428
ag431
ag433
ag435
ag437
ag440
ag442
ag444
ag449
ag451
ag453
ag455
ag458
ag460
ag462
ag464
ag467
ag471
ag473
ag476
ag478
ag480
ag482
ag485
ag487
ag489
ag494
ag498
ag503
ag505
ag507
ag509
ag512
ag514
ag516
ag518
ag521
ag523
ag525
ag527
ag530
ag532
ag536
ag539
ag541
ag543
ag545
ag548
ag550
ag552
ag554
ag557
ag559
ag561
ag566
ag568
ag570
ag572
ag575
ag579
ag581
ag584
ag586
ag588
ag590
ag593
ag595
ag597
ag599
ag602
ag604
ag606
ag608
ag611
ag613
ag615
ag617
ag620
ag622
ag624
ag626
ag629
ag631
ag633
ag635
ag638
ag640
ag642
ag644
ag647
ag649
ag651
ag653
ag656
ag658
ag660
ag662
ag665
ag667
ag669
ag671
ag674
ag676
ag678
ag680
ag683
ag685
ag687
ag689
ag692
ag694
ag696
ag698
ag701
ag703
ag705
ag707
ag710
ag712
ag714
ag716
ag719
ag721
ag723
ag725
ag728
ag730
ag732
ag734
ag737
ag739
ag741
ag743
ag746
ag748
ag750
ag752
ag755
ag757
ag759
ag761
ag764
ag766
ag768
ag770
ag773
ag775
ag777
ag779
ag782
ag784
ag786
ag788
ag791
ag793
ag795
ag797
ag802
ag804
ag806
ag809
ag811
ag813
ag815
ag818
ag820
ag822
ag824
ag827
ag829
ag831
ag833
ag836
ag838
ag840
ag842
ag845
ag847
ag849
ag851
ag854
ag856
ag858
ag863
ag865
ag867
ag872
ag874
ag876
ag878
ag881
ag883
ag885
ag887
ag890
ag892
ag894
ag896
ag899
ag901
ag903
ag905
ag908
ag910
ag912
ag914
ag917
ag919
ag921
ag923
ag926
ag928
ag930
ag932
ag935
ag937
ag939
ag941
ag944
ag946
ag948
ag950
ag953
ag955
ag957
ag959
ag962
ag964
ag966
ag968
ag971
ag973
ag975
ag977
ag980
ag982
ag984
ag986
ag989
ag991
ag993
ag995
ag998
ag1000
ag1002
ag1004
ag1007
ag1009
ag1011
ag1013
ag1016
ag1018
ag1020
ag1022
ag1025
ag1027
ag1029
ag1031
ag1034
ag1036
ag1038
ag1040
ag1043
ag1045
ag1047
ag1052
ag1054
ag1056
ag1058
ag1061
ag1063
ag1065
ag1067
ag1070
ag1072
ag1074
ag1076
ag1079
ag1081
ag1083
ag1085
ag1088
ag1090
ag1092
ag1094
ag1097
ag1099
ag1101
ag1103
ag1106
ag1108
ag1110
ag1112
ag1115
ag1117
ag1119
ag1124
ag1126
ag1128
ag1130
ag1133
ag1135
ag1137
ag1139
ag1142
ag1144
ag1146
ag1148
ag1151
ag1153
ag1155
ag1157
ag1160
ag1162
ag1164
ag1166
ag1169
ag1171
ag1173
ag1175
ag1178
ag1180
ag1182
ag1184
ag1187
ag1189
ag1191
ag1193
ag1196
ag1198
ag1200
ag1202
ag1205
ag1207
ag1209
ag1211
ag1214
ag1216
ag1218
ag1220
ag1223
ag1225
ag1227
ag1229
ag1232
ag1234
ag1236
ag1238
ag1241
ag1243
ag1245
ag1247
ag1250
ag1252
ag1254
ag1256
ag1261
ag1263
ag1265
ag1268
ag1270
ag1272
ag1274
ag1279
ag1286
ag1290
ag1292
ag1295
ag1297
ag1299
ag1301
ag1304
ag1306
ag1308
ag1310
ag1313
ag1315
ag1317
ag1319
ag1322
ag1324
ag1326
ag1328
ag1331
ag1333
ag1335
ag1337
ag1340
ag1342
ag1344
ag1346
ag1349
ag1351
ag1353
ag1355
ag1358
ag1360
ag1362
ag1364
ag1367
ag1369
ag1371
ag1373
ag1376
ag1378
ag1380
ag1382
ag1385
ag1387
ag1389
ag1391
ag1394
ag1396
ag1398
ag1405
ag1407
ag1409
ag1412
ag1414
ag1416
ag1418
ag1421
ag1423
ag1425
ag1427
ag1430
ag1432
ag1434
ag1436
ag1439
ag1441
ag1443
ag1445
ag1448
ag1450
ag1452
ag1454
ag1457
ag1459
ag1461
ag1463
ag1466
ag1468
ag1470
ag1472
ag1475
ag1477
ag1479
ag1481
ag1484
ag1486
ag1488
ag1490
ag1493
ag1495
ag1497
ag1499
ag1502
ag1504
ag1506
ag1508
ag1511
ag1513
ag1515
ag1517
ag1520
ag1522
ag1524
ag1526
ag1529
ag1531
ag1533
ag1535
ag1538
ag1540
ag1542
ag1544
ag1547
ag1549
ag1553
ag1556
ag1558
ag1560
ag1562
ag1565
ag1567
ag1569
ag1571
ag1574
ag1578
ag1580
ag1583
ag1585
ag1587
ag1589
ag1594
ag1596
ag1601
ag1605
ag1612
ag1616
ag1619
ag1621
ag1623
ag1625
ag1628
ag1630
ag1632
ag1634
ag1637
ag1639
ag1641
ag1643
ag1646
ag1648
ag1650
ag1652
ag1655
ag1657
ag1659
ag1661
ag1664
ag1666
ag1668
ag1670
ag1673
ag1675
ag1677
ag1679
ag1682
ag1684
ag1686
ag1688
ag1691
ag1693
ag1695
ag1697
ag1700
ag1702
ag1704
ag1706
ag1709
ag1711
ag1713
ag1718
ag1720
ag1722
ag1724
ag1727
ag1729
ag1731
ag1733
ag1736
ag1738
ag1740
ag1742
ag1745
ag1747
ag1749
ag1751
ag1754
ag1756
ag1758
ag1763
ag1765
ag1767
ag1769
ag1772
ag1774
ag1776
ag1778
ag1781
ag1783
ag1785
ag1787
ag1790
ag1792
ag1794
ag1796
ag1799
ag1801
ag1803
ag1805
ag1808
ag1810
ag1812
ag1814
ag1819
ag1821
ag1823
ag1826
ag1828
ag1830
ag1832
ag1835
ag1837
ag1839
ag1841
ag1844
ag1846
ag1848
ag1850
ag1853
ag1855
ag1857
ag1859
ag1862
ag1864
ag1866
ag1868
ag1871
ag1873
ag1875
ag1877
ag1880
ag1882
ag1884
ag1886
ag1889
ag1891
ag1893
ag1895
ag1898
ag1900
ag1902
ag1904
ag1907
ag1909
ag1911
asS'featureMap'
p5522
(lp5523
(lp5524
I0
aI5
ag5
ag6
ag9
ag11
ag13
aa(lp5525
I7
aI12
ag15
ag16
ag18
ag20
ag22
aa(lp5526
I30
aI34
ag24
ag25
ag27
ag29
ag31
aa(lp5527
I39
aI45
ag33
ag34
ag36
ag38
ag40
aa(lp5528
I47
aI50
ag42
ag43
ag45
ag47
ag49
aa(lp5529
I52
aI60
ag51
ag52
ag54
ag56
ag58
aa(lp5530
I63
aI70
ag60
ag61
ag63
ag65
ag67
aa(lp5531
I72
aI73
ag69
ag70
ag72
ag74
ag76
aa(lp5532
I76
aI79
ag78
ag79
ag81
ag83
ag85
aa(lp5533
I81
aI87
ag87
ag88
ag90
ag92
ag94
aa(lp5534
I94
aI100
ag96
ag97
ag99
ag101
ag103
aa(lp5535
I102
aI105
ag105
ag106
ag108
ag110
ag112
aa(lp5536
I118
aI121
ag114
ag115
ag117
ag119
ag121
aa(lp5537
I128
aI133
ag123
ag124
ag126
ag128
ag130
aa(lp5538
I142
aI148
ag132
ag133
ag135
ag137
ag139
aa(lp5539
I150
aI153
ag141
ag142
ag144
ag146
ag148
aa(lp5540
I169
aI174
ag150
ag151
ag153
ag155
ag157
aa(lp5541
I181
aI187
ag159
ag160
ag162
ag164
ag166
aa(lp5542
I192
aI200
ag168
ag169
ag171
ag173
ag175
aa(lp5543
I202
aI209
ag177
ag178
ag180
ag182
ag184
aa(lp5544
I212
aI215
ag186
ag187
ag189
ag191
ag193
aa(lp5545
I217
aI221
ag195
ag196
ag198
ag200
ag202
aa(lp5546
I229
aI234
ag204
ag205
ag207
ag209
ag211
aa(lp5547
I239
aI244
ag213
ag214
ag216
ag218
ag220
aa(lp5548
I246
aI251
ag222
ag223
ag225
ag227
ag229
aa(lp5549
I253
aI260
ag231
ag232
ag234
ag236
ag238
aa(lp5550
I263
aI269
ag240
ag241
ag243
ag245
ag247
aa(lp5551
I283
aI289
ag249
ag250
ag252
ag254
ag256
aa(lp5552
I296
aI299
ag258
ag259
ag261
ag263
ag265
aa(lp5553
I309
aI315
ag267
ag268
ag270
ag272
ag274
aa(lp5554
I322
aI325
ag276
ag277
ag279
ag281
ag283
aa(lp5555
I330
aI339
ag285
ag286
ag288
ag290
ag292
aa(lp5556
I346
aI351
ag294
ag295
ag297
ag299
ag301
aa(lp5557
I353
aI358
ag303
ag304
ag306
ag308
ag310
aa(lp5558
I360
aI367
ag312
ag313
ag315
ag317
ag319
aa(lp5559
I376
aI381
ag321
ag322
ag324
ag326
ag328
aa(lp5560
I387
aI393
ag330
ag331
ag333
ag335
ag337
aa(lp5561
I406
aI409
ag339
ag340
ag342
ag344
ag346
aa(lp5562
I417
aI422
ag348
ag349
ag351
ag353
ag355
aa(lp5563
I427
aI433
ag357
ag358
ag360
ag362
ag364
aa(lp5564
I435
aI438
ag366
ag367
ag369
ag371
ag373
aa(lp5565
I459
aI463
ag375
ag376
ag378
ag380
ag382
aa(lp5566
I479
aI482
ag384
ag385
ag387
ag389
ag391
aa(lp5567
I499
aI506
ag393
ag394
ag396
ag398
ag400
aa(lp5568
I520
aI525
ag402
ag403
ag405
ag407
ag409
aa(lp5569
I527
aI532
ag411
ag412
ag414
ag416
ag418
aa(lp5570
I534
aI541
ag420
ag421
ag423
ag425
ag427
aa(lp5571
I556
aI562
ag429
ag430
ag432
ag434
ag436
aa(lp5572
I568
aI571
ag438
ag439
ag441
ag443
ag445
aa(lp5573
I590
aI596
ag447
ag448
ag450
ag452
ag454
aa(lp5574
I599
aI604
ag456
ag457
ag459
ag461
ag463
aa(lp5575
I613
aI619
ag465
ag466
ag468
ag470
ag472
aa(lp5576
I621
aI623
ag474
ag475
ag477
ag479
ag481
aa(lp5577
I625
aI629
ag483
ag484
ag486
ag488
ag490
aa(lp5578
I634
aI637
ag492
ag493
ag495
ag497
ag499
aa(lp5579
I646
aI652
ag501
ag502
ag504
ag506
ag508
aa(lp5580
I654
aI657
ag510
ag511
ag513
ag515
ag517
aa(lp5581
I669
aI674
ag519
ag520
ag522
ag524
ag526
aa(lp5582
I683
aI689
ag528
ag529
ag531
ag533
ag535
aa(lp5583
I703
aI708
ag537
ag538
ag540
ag542
ag544
aa(lp5584
I723
aI729
ag546
ag547
ag549
ag551
ag553
aa(lp5585
I741
aI746
ag555
ag556
ag558
ag560
ag562
aa(lp5586
I748
aI753
ag564
ag565
ag567
ag569
ag571
aa(lp5587
I755
aI758
ag573
ag574
ag576
ag578
ag580
aa(lp5588
I770
aI773
ag582
ag583
ag585
ag587
ag589
aa(lp5589
I778
aI781
ag591
ag592
ag594
ag596
ag598
aa(lp5590
I789
aI795
ag600
ag601
ag603
ag605
ag607
aa(lp5591
I800
aI804
ag609
ag610
ag612
ag614
ag616
aa(lp5592
I816
aI822
ag618
ag619
ag621
ag623
ag625
aa(lp5593
I828
aI834
ag627
ag628
ag630
ag632
ag634
aa(lp5594
I843
aI845
ag636
ag637
ag639
ag641
ag643
aa(lp5595
I856
aI859
ag645
ag646
ag648
ag650
ag652
aa(lp5596
I863
aI866
ag654
ag655
ag657
ag659
ag661
aa(lp5597
I871
aI877
ag663
ag664
ag666
ag668
ag670
aa(lp5598
I887
aI898
ag672
ag673
ag675
ag677
ag679
aa(lp5599
I900
aI902
ag681
ag682
ag684
ag686
ag688
aa(lp5600
I908
aI914
ag690
ag691
ag693
ag695
ag697
aa(lp5601
I919
aI927
ag699
ag700
ag702
ag704
ag706
aa(lp5602
I930
aI936
ag708
ag709
ag711
ag713
ag715
aa(lp5603
I942
aI945
ag717
ag718
ag720
ag722
ag724
aa(lp5604
I947
aI952
ag726
ag727
ag729
ag731
ag733
aa(lp5605
I956
aI961
ag735
ag736
ag738
ag740
ag742
aa(lp5606
I966
aI971
ag744
ag745
ag747
ag749
ag751
aa(lp5607
I984
aI989
ag753
ag754
ag756
ag758
ag760
aa(lp5608
I991
aI998
ag762
ag763
ag765
ag767
ag769
aa(lp5609
I1009
aI1013
ag771
ag772
ag774
ag776
ag778
aa(lp5610
I1020
aI1024
ag780
ag781
ag783
ag785
ag787
aa(lp5611
I1031
aI1034
ag789
ag790
ag792
ag794
ag796
aa(lp5612
I1039
aI1042
ag798
ag799
ag801
ag803
ag805
aa(lp5613
I1045
aI1054
ag807
ag808
ag810
ag812
ag814
aa(lp5614
I1056
aI1065
ag816
ag817
ag819
ag821
ag823
aa(lp5615
I1067
aI1073
ag825
ag826
ag828
ag830
ag832
aa(lp5616
I1075
aI1080
ag834
ag835
ag837
ag839
ag841
aa(lp5617
I1082
aI1088
ag843
ag844
ag846
ag848
ag850
aa(lp5618
I1106
aI1110
ag852
ag853
ag855
ag857
ag859
aa(lp5619
I1115
aI1118
ag861
ag862
ag864
ag866
ag868
aa(lp5620
I1127
aI1133
ag870
ag871
ag873
ag875
ag877
aa(lp5621
I1138
aI1147
ag879
ag880
ag882
ag884
ag886
aa(lp5622
I1149
aI1158
ag888
ag889
ag891
ag893
ag895
aa(lp5623
I1171
aI1177
ag897
ag898
ag900
ag902
ag904
aa(lp5624
I1184
aI1189
ag906
ag907
ag909
ag911
ag913
aa(lp5625
I1205
aI1210
ag915
ag916
ag918
ag920
ag922
aa(lp5626
I1215
aI1220
ag924
ag925
ag927
ag929
ag931
aa(lp5627
I1231
aI1240
ag933
ag934
ag936
ag938
ag940
aa(lp5628
I1243
aI1247
ag942
ag943
ag945
ag947
ag949
aa(lp5629
I1254
aI1260
ag951
ag952
ag954
ag956
ag958
aa(lp5630
I1265
aI1270
ag960
ag961
ag963
ag965
ag967
aa(lp5631
I1275
aI1282
ag969
ag970
ag972
ag974
ag976
aa(lp5632
I1292
aI1296
ag978
ag979
ag981
ag983
ag985
aa(lp5633
I1305
aI1308
ag987
ag988
ag990
ag992
ag994
aa(lp5634
I1311
aI1315
ag996
ag997
ag999
ag1001
ag1003
aa(lp5635
I1322
aI1325
ag1005
ag1006
ag1008
ag1010
ag1012
aa(lp5636
I1335
aI1339
ag1014
ag1015
ag1017
ag1019
ag1021
aa(lp5637
I1346
aI1352
ag1023
ag1024
ag1026
ag1028
ag1030
aa(lp5638
I1362
aI1368
ag1032
ag1033
ag1035
ag1037
ag1039
aa(lp5639
I1374
aI1377
ag1041
ag1042
ag1044
ag1046
ag1048
aa(lp5640
I1387
aI1393
ag1050
ag1051
ag1053
ag1055
ag1057
aa(lp5641
I1396
aI1405
ag1059
ag1060
ag1062
ag1064
ag1066
aa(lp5642
I1407
aI1416
ag1068
ag1069
ag1071
ag1073
ag1075
aa(lp5643
I1421
aI1427
ag1077
ag1078
ag1080
ag1082
ag1084
aa(lp5644
I1429
aI1435
ag1086
ag1087
ag1089
ag1091
ag1093
aa(lp5645
I1442
aI1446
ag1095
ag1096
ag1098
ag1100
ag1102
aa(lp5646
I1448
aI1453
ag1104
ag1105
ag1107
ag1109
ag1111
aa(lp5647
I1455
aI1458
ag1113
ag1114
ag1116
ag1118
ag1120
aa(lp5648
I1467
aI1473
ag1122
ag1123
ag1125
ag1127
ag1129
aa(lp5649
I1481
aI1489
ag1131
ag1132
ag1134
ag1136
ag1138
aa(lp5650
I1496
aI1502
ag1140
ag1141
ag1143
ag1145
ag1147
aa(lp5651
I1509
aI1514
ag1149
ag1150
ag1152
ag1154
ag1156
aa(lp5652
I1525
aI1531
ag1158
ag1159
ag1161
ag1163
ag1165
aa(lp5653
I1533
aI1540
ag1167
ag1168
ag1170
ag1172
ag1174
aa(lp5654
I1542
aI1544
ag1176
ag1177
ag1179
ag1181
ag1183
aa(lp5655
I1546
aI1553
ag1185
ag1186
ag1188
ag1190
ag1192
aa(lp5656
I1568
aI1573
ag1194
ag1195
ag1197
ag1199
ag1201
aa(lp5657
I1578
aI1583
ag1203
ag1204
ag1206
ag1208
ag1210
aa(lp5658
I1588
aI1591
ag1212
ag1213
ag1215
ag1217
ag1219
aa(lp5659
I1593
aI1597
ag1221
ag1222
ag1224
ag1226
ag1228
aa(lp5660
I1606
aI1609
ag1230
ag1231
ag1233
ag1235
ag1237
aa(lp5661
I1619
aI1623
ag1239
ag1240
ag1242
ag1244
ag1246
aa(lp5662
I1627
aI1629
ag1248
ag1249
ag1251
ag1253
ag1255
aa(lp5663
I1634
aI1637
ag1257
ag1258
ag1260
ag1262
ag1264
aa(lp5664
I1640
aI1648
ag1266
ag1267
ag1269
ag1271
ag1273
aa(lp5665
I1650
aI1653
ag1275
ag1276
ag1278
ag1280
ag1282
aa(lp5666
I1662
aI1668
ag1284
ag1285
ag1287
ag1289
ag1291
aa(lp5667
I1677
aI1683
ag1293
ag1294
ag1296
ag1298
ag1300
aa(lp5668
I1692
aI1695
ag1302
ag1303
ag1305
ag1307
ag1309
aa(lp5669
I1701
aI1704
ag1311
ag1312
ag1314
ag1316
ag1318
aa(lp5670
I1709
aI1716
ag1320
ag1321
ag1323
ag1325
ag1327
aa(lp5671
I1719
aI1722
ag1329
ag1330
ag1332
ag1334
ag1336
aa(lp5672
I1724
aI1726
ag1338
ag1339
ag1341
ag1343
ag1345
aa(lp5673
I1730
aI1737
ag1347
ag1348
ag1350
ag1352
ag1354
aa(lp5674
I1739
aI1743
ag1356
ag1357
ag1359
ag1361
ag1363
aa(lp5675
I1745
aI1750
ag1365
ag1366
ag1368
ag1370
ag1372
aa(lp5676
I1752
aI1755
ag1374
ag1375
ag1377
ag1379
ag1381
aa(lp5677
I1776
aI1782
ag1383
ag1384
ag1386
ag1388
ag1390
aa(lp5678
I1789
aI1795
ag1392
ag1393
ag1395
ag1397
ag1399
aa(lp5679
I1797
aI1800
ag1401
ag1402
ag1404
ag1406
ag1408
aa(lp5680
I1810
aI1813
ag1410
ag1411
ag1413
ag1415
ag1417
aa(lp5681
I1815
aI1817
ag1419
ag1420
ag1422
ag1424
ag1426
aa(lp5682
I1825
aI1829
ag1428
ag1429
ag1431
ag1433
ag1435
aa(lp5683
I1834
aI1844
ag1437
ag1438
ag1440
ag1442
ag1444
aa(lp5684
I1846
aI1852
ag1446
ag1447
ag1449
ag1451
ag1453
aa(lp5685
I1855
aI1863
ag1455
ag1456
ag1458
ag1460
ag1462
aa(lp5686
I1870
aI1875
ag1464
ag1465
ag1467
ag1469
ag1471
aa(lp5687
I1881
aI1885
ag1473
ag1474
ag1476
ag1478
ag1480
aa(lp5688
I1897
aI1901
ag1482
ag1483
ag1485
ag1487
ag1489
aa(lp5689
I1903
aI1908
ag1491
ag1492
ag1494
ag1496
ag1498
aa(lp5690
I1916
aI1918
ag1500
ag1501
ag1503
ag1505
ag1507
aa(lp5691
I1930
aI1933
ag1509
ag1510
ag1512
ag1514
ag1516
aa(lp5692
I1944
aI1947
ag1518
ag1519
ag1521
ag1523
ag1525
aa(lp5693
I1949
aI1951
ag1527
ag1528
ag1530
ag1532
ag1534
aa(lp5694
I1964
aI1970
ag1536
ag1537
ag1539
ag1541
ag1543
aa(lp5695
I1976
aI1982
ag1545
ag1546
ag1548
ag1550
ag1552
aa(lp5696
I1984
aI1987
ag1554
ag1555
ag1557
ag1559
ag1561
aa(lp5697
I2008
aI2012
ag1563
ag1564
ag1566
ag1568
ag1570
aa(lp5698
I2014
aI2017
ag1572
ag1573
ag1575
ag1577
ag1579
aa(lp5699
I2019
aI2023
ag1581
ag1582
ag1584
ag1586
ag1588
aa(lp5700
I2035
aI2041
ag1590
ag1591
ag1593
ag1595
ag1597
aa(lp5701
I2043
aI2046
ag1599
ag1600
ag1602
ag1604
ag1606
aa(lp5702
I2060
aI2063
ag1608
ag1609
ag1611
ag1613
ag1615
aa(lp5703
I2077
aI2082
ag1617
ag1618
ag1620
ag1622
ag1624
aa(lp5704
I2084
aI2086
ag1626
ag1627
ag1629
ag1631
ag1633
aa(lp5705
I2104
aI2106
ag1635
ag1636
ag1638
ag1640
ag1642
aa(lp5706
I2108
aI2111
ag1644
ag1645
ag1647
ag1649
ag1651
aa(lp5707
I2125
aI2128
ag1653
ag1654
ag1656
ag1658
ag1660
aa(lp5708
I2130
aI2136
ag1662
ag1663
ag1665
ag1667
ag1669
aa(lp5709
I2138
aI2146
ag1671
ag1672
ag1674
ag1676
ag1678
aa(lp5710
I2151
aI2154
ag1680
ag1681
ag1683
ag1685
ag1687
aa(lp5711
I2159
aI2166
ag1689
ag1690
ag1692
ag1694
ag1696
aa(lp5712
I2184
aI2186
ag1698
ag1699
ag1701
ag1703
ag1705
aa(lp5713
I2189
aI2192
ag1707
ag1708
ag1710
ag1712
ag1714
aa(lp5714
I2201
aI2207
ag1716
ag1717
ag1719
ag1721
ag1723
aa(lp5715
I2216
aI2221
ag1725
ag1726
ag1728
ag1730
ag1732
aa(lp5716
I2225
aI2228
ag1734
ag1735
ag1737
ag1739
ag1741
aa(lp5717
I2233
aI2239
ag1743
ag1744
ag1746
ag1748
ag1750
aa(lp5718
I2246
aI2251
ag1752
ag1753
ag1755
ag1757
ag1759
aa(lp5719
I2253
aI2258
ag1761
ag1762
ag1764
ag1766
ag1768
aa(lp5720
I2260
aI2267
ag1770
ag1771
ag1773
ag1775
ag1777
aa(lp5721
I2291
aI2297
ag1779
ag1780
ag1782
ag1784
ag1786
aa(lp5722
I2299
aI2306
ag1788
ag1789
ag1791
ag1793
ag1795
aa(lp5723
I2317
aI2321
ag1797
ag1798
ag1800
ag1802
ag1804
aa(lp5724
I2323
aI2329
ag1806
ag1807
ag1809
ag1811
ag1813
aa(lp5725
I2331
aI2334
ag1815
ag1816
ag1818
ag1820
ag1822
aa(lp5726
I2346
aI2351
ag1824
ag1825
ag1827
ag1829
ag1831
aa(lp5727
I2354
aI2358
ag1833
ag1834
ag1836
ag1838
ag1840
aa(lp5728
I2368
aI2373
ag1842
ag1843
ag1845
ag1847
ag1849
aa(lp5729
I2379
aI2385
ag1851
ag1852
ag1854
ag1856
ag1858
aa(lp5730
I2391
aI2394
ag1860
ag1861
ag1863
ag1865
ag1867
aa(lp5731
I2406
aI2409
ag1869
ag1870
ag1872
ag1874
ag1876
aa(lp5732
I2423
aI2431
ag1878
ag1879
ag1881
ag1883
ag1885
aa(lp5733
I2436
aI2442
ag1887
ag1888
ag1890
ag1892
ag1894
aa(lp5734
I2448
aI2452
ag1896
ag1897
ag1899
ag1901
ag1903
aa(lp5735
I2448
aI2452
ag1905
ag1906
ag1908
ag1910
ag1912
aasS'characterMap'
p5736
(lp5737
g1917
ag1919
ag1921
ag1923
ag1925
ag1926
ag5045
ag1930
ag1932
ag1934
ag1936
ag1937
ag1939
ag5047
ag1943
ag1945
ag5048
ag1950
ag1951
ag1953
ag5049
ag1957
ag1958
ag1960
ag5050
ag1964
ag1965
ag1966
ag1967
ag5051
ag1971
ag1972
ag1973
ag1974
ag1975
ag5052
ag1979
ag1980
ag5053
ag1984
ag1985
ag1986
ag1987
ag1988
ag1989
ag1990
ag5054
ag1994
ag1995
ag1996
ag1997
ag5055
ag2000
ag2002
ag2003
ag2005
ag2006
ag2007
ag2008
ag2009
ag2010
a(lp5738
I61
aS','
p5739
aag5056
ag2013
ag2014
ag2015
ag2017
ag2018
ag2019
ag2021
ag2022
ag5057
ag2025
ag2027
a(lp5740
I74
ag5739
aag5058
ag2031
ag2032
ag2034
ag2035
ag5059
ag2039
ag2040
ag2041
ag2042
ag2043
ag2044
ag2045
ag5060
ag2050
ag2051
ag2052
ag2053
ag5061
ag2056
ag2057
ag2058
ag2059
ag2060
ag2061
ag2062
ag5062
ag2065
ag2066
ag2067
ag2068
a(lp5741
I106
aS'?'
p5742
aag5063
ag2072
ag2073
ag2074
ag2075
ag5064
ag2079
ag2080
ag5065
ag2083
ag5066
ag2086
ag2087
ag2088
ag2089
ag5067
ag2093
ag2094
ag2095
ag2096
ag5068
ag2099
ag2100
ag2101
ag2102
ag2103
ag2104
ag5069
ag2108
ag2109
ag5070
ag2113
ag2114
ag2115
ag5071
ag2118
ag2119
ag2120
ag2121
ag2122
ag2123
ag2124
ag5072
ag2127
ag2128
ag2129
ag2130
ag5073
ag2134
ag2135
ag2136
ag5074
ag2140
ag2141
ag5075
ag2145
ag2146
ag2147
ag5076
ag2151
ag2152
ag5077
ag2155
ag2156
ag2157
ag2158
ag2159
ag2160
ag5078
ag2164
ag2165
ag5079
ag2168
ag5080
ag2171
ag2172
ag2173
ag2174
ag2175
ag2176
ag2177
ag5081
ag2181
ag2182
ag5082
ag2185
ag2186
ag2187
ag2188
ag2189
ag2190
ag2191
ag2192
ag2193
ag5083
ag2196
ag2197
ag2198
ag2199
ag2200
ag2201
ag2202
ag2203
a(lp5743
I210
aS'.'
p5744
aag5084
ag2206
ag2207
ag2208
ag2209
ag5085
ag2212
ag2213
ag2214
ag2215
ag2216
ag5086
ag2220
ag2221
ag5087
ag2225
ag2226
ag5088
ag2229
ag2230
ag2231
ag2232
ag2233
ag2234
ag5089
ag2238
ag2239
ag5090
ag2242
ag2243
ag2244
ag2245
ag2246
ag2247
ag5091
ag2250
ag2251
ag2252
ag2253
ag2254
ag2255
ag5092
ag2258
ag2259
ag2260
ag2261
ag2262
ag2263
ag2264
ag2265
a(lp5745
I261
ag5744
aag5093
ag2268
ag2269
ag2270
ag2271
ag2272
ag2273
ag2274
a(lp5746
I270
ag5739
aag5094
ag2278
ag2279
ag5095
ag2283
ag2284
ag2285
ag5096
ag2289
ag2290
ag2291
ag5097
ag2294
ag2295
ag2296
ag2297
ag2298
ag2299
ag2300
ag5098
ag2304
ag2305
ag2306
ag2307
ag5099
ag2310
ag2311
ag2312
ag2313
ag5100
ag2317
ag2318
ag5101
ag2322
ag2323
ag2324
ag2325
ag5102
ag2328
ag2329
ag2330
ag2331
ag2332
ag2333
ag2334
a(lp5747
I316
ag5739
aag5103
ag2338
ag2339
ag2340
ag5104
ag2343
ag2344
ag2345
ag2346
ag5105
ag2350
ag2351
ag5106
ag2354
ag2355
ag2356
ag2357
ag2358
ag2359
ag2360
ag2361
ag2362
ag2363
ag5107
ag2367
ag2368
ag2369
ag2370
ag5108
ag2373
ag2374
ag2375
ag2376
ag2377
ag2378
ag5109
ag2381
ag2382
ag2383
ag2384
ag2385
ag2386
ag5110
ag2389
ag2390
ag2391
ag2392
ag2393
ag2394
ag2395
ag2396
ag5111
ag2400
ag2401
ag5112
ag2405
ag2406
ag2407
ag5113
ag2410
ag2411
ag2412
ag2413
ag2414
ag2415
ag5114
ag2419
ag2420
ag2421
ag5115
ag2424
ag2425
ag2426
ag2427
ag2428
ag2429
ag2430
a(lp5748
I394
ag5744
aag5116
ag2434
ag2435
ag2436
ag2437
ag2438
ag5117
ag2442
ag2443
ag2444
ag5118
ag2447
ag2448
ag2449
ag2450
ag5119
ag2454
ag2455
ag2456
ag2457
ag2458
ag5120
ag2461
ag2462
ag2463
ag2464
ag2465
ag2466
ag5121
ag2470
ag2471
ag5122
ag2474
ag2475
ag2476
ag2477
ag2478
ag2479
ag2480
ag5123
ag2483
ag2484
ag2485
ag2486
ag5124
ag2490
ag2491
ag2492
ag2493
ag5125
ag2497
ag2498
ag2499
ag5126
ag2503
ag2504
ag2505
ag2506
ag2507
ag2508
ag5127
ag2512
ag2513
ag5128
ag2516
ag2517
ag2518
ag2519
ag2520
ag5129
ag2524
ag2525
a(lp5749
I467
ag5744
aag5130
ag2529
ag2530
ag2531
ag2532
ag5131
ag2536
ag2537
ag5132
ag2540
ag5133
ag2543
ag2544
ag2545
ag2546
ag5134
ag2551
ag2552
ag5135
ag2556
ag2557
ag2558
ag2559
ag5136
ag2563
ag2564
ag5137
ag2568
ag2569
ag2570
ag5138
ag2573
ag2574
ag2575
ag2576
ag2577
ag2578
ag2579
ag2580
a(lp5750
I507
ag5739
aag5139
ag2584
ag2585
ag2586
ag2587
ag2588
ag5140
ag2592
ag2593
ag2594
ag2595
ag5141
ag2598
ag2599
ag2600
ag2601
ag2602
ag2603
ag5142
ag2606
ag2607
ag2608
ag2609
ag2610
ag2611
ag5143
ag2614
ag2615
ag2616
ag2617
ag2618
ag2619
ag2620
ag2621
a(lp5751
I542
ag5739
aag5144
ag2625
ag2626
ag2627
ag2628
ag5145
ag2632
ag2633
ag2634
ag5146
ag2638
ag2639
ag5147
ag2642
ag2643
ag2644
ag2645
ag2646
ag2647
ag2648
ag5148
ag2652
ag2653
ag2654
ag5149
ag2657
ag2658
ag2659
ag2660
ag5150
ag2664
ag2665
ag2666
ag5151
ag2670
ag2671
ag2672
ag2673
ag5152
ag2677
ag2678
ag5153
ag2682
ag2683
ag2684
ag2685
ag5154
ag2688
ag2689
ag2690
ag2691
ag2692
ag2693
ag2694
a(lp5752
I597
ag5744
aag5155
ag2697
ag2698
ag2699
ag2701
ag2702
ag2703
ag5156
ag2707
ag2708
ag5157
ag2712
ag2713
ag2714
ag5158
ag2717
ag2718
ag2719
ag2720
ag2721
ag2722
ag2723
ag5159
ag2726
ag2727
ag2728
ag5160
ag2731
ag2732
ag2733
ag2734
ag2735
ag5161
ag2739
ag2740
ag5162
ag2743
ag2744
ag2745
ag2746
ag5163
ag2750
ag2751
ag5164
ag2755
ag2756
ag2757
ag5165
ag2760
ag2761
ag2762
ag2763
ag2764
ag2765
ag2766
ag5166
ag2769
ag2770
ag2771
ag2772
ag5167
ag2776
ag2777
ag2778
ag5168
ag2782
ag2783
ag5169
ag2787
ag2788
ag5170
ag2791
ag2792
ag2793
ag2794
ag2795
ag2796
ag5171
ag2800
ag2801
ag5172
ag2805
ag2806
ag2807
ag5173
ag2810
ag2811
ag2812
ag2813
ag2814
ag2815
ag2816
a(lp5753
I690
ag5744
aag5174
ag2820
ag2821
ag2822
ag2823
ag2824
ag2825
ag5175
ag2829
ag2830
ag2831
ag5176
ag2834
ag2835
ag2836
ag2837
ag2838
ag2839
ag5177
ag2843
ag2844
ag2845
ag5178
ag2849
ag2850
ag2851
ag5179
ag2855
ag2856
ag2857
ag2858
ag5180
ag2861
ag2862
ag2863
ag2864
ag2865
ag2866
ag2867
ag5181
ag2871
ag2872
ag2873
ag2874
ag5182
ag2878
ag2879
ag2880
ag2881
ag5183
ag2884
ag2885
ag2886
ag2887
ag2888
ag2889
ag5184
ag2892
ag2893
ag2894
ag2895
ag2896
ag2897
ag5185
ag2900
ag2901
ag2902
ag2903
a(lp5754
I759
ag5739
aag5186
ag2907
ag2908
ag2909
ag5187
ag2913
ag2914
ag2915
ag2916
ag5188
ag2919
ag2920
ag2921
ag2922
ag5189
ag2926
ag2927
ag5190
ag2930
ag2931
ag2932
ag2933
ag5191
ag2936
ag5192
ag2940
ag2941
ag2942
ag5193
ag2945
ag2946
ag2947
ag2948
ag2949
ag2950
ag2951
ag5194
ag2955
ag2956
ag5195
ag2959
ag2960
ag2961
ag2962
ag2963
a(lp5755
I805
ag5744
aag5196
ag2967
ag2968
ag2969
ag2970
ag5197
ag2974
ag2975
ag2976
ag5198
ag2979
ag2980
ag2981
ag2982
ag2983
ag2984
ag2985
ag5199
ag2989
ag2990
ag2991
ag5200
ag2994
ag2995
ag2996
ag2997
ag2998
ag2999
ag3000
ag5201
ag3004
ag3005
ag5202
ag3009
ag3010
ag3011
ag5203
ag3014
ag3015
ag3016
a(lp5756
I846
ag5742
aag5204
ag3020
ag3021
ag3022
ag5205
ag3026
ag3027
ag3028
ag5206
ag3031
ag3032
ag3033
ag3034
ag5207
ag3037
ag5208
ag3040
ag3041
ag3042
ag3043
ag5209
ag3047
ag3048
ag5210
ag3051
ag3052
ag3053
ag3054
ag3055
ag3056
ag3057
ag5211
ag3061
ag3062
ag3063
ag5212
ag3067
ag3068
ag3069
ag5213
ag3072
ag3073
ag3074
ag3075
ag3076
ag3077
ag3078
ag3079
ag3080
ag3081
ag3082
ag3083
ag5214
ag3086
ag3087
ag3088
ag5215
ag3092
ag3093
ag3094
ag5216
ag3097
ag3098
ag3099
ag3100
ag3101
ag3102
ag3103
ag5217
ag3107
ag3108
ag5218
ag3111
ag3112
ag3113
ag3114
ag3115
ag3116
ag3117
ag3118
ag3119
a(lp5757
I928
ag5742
aag5219
ag3122
ag3123
ag3124
ag3125
ag3126
ag3127
ag3128
ag5220
ag3132
ag3133
ag3134
ag5221
ag3137
ag3138
ag3139
ag3140
ag5222
ag3143
ag3144
ag3145
ag3146
ag3147
ag3148
ag5223
ag3151
ag5224
ag3154
ag3155
ag3156
ag3157
ag3158
ag3159
ag5225
ag3163
ag3164
ag5226
ag3167
ag3168
ag3169
ag3170
ag3171
ag3172
a(lp5758
I972
ag5744
aag5227
ag3176
ag3177
ag3178
ag3179
ag3180
ag5228
ag3184
ag3185
ag3186
ag5229
ag3189
ag3190
ag3191
ag3192
ag3193
ag3194
ag5230
ag3197
ag3198
ag3199
ag3200
ag3201
ag3202
ag3203
ag3204
ag5231
ag3208
ag3209
ag3210
ag3211
ag5232
ag3215
ag3216
ag3217
ag5233
ag3220
ag3221
ag3222
ag3223
ag3224
ag5234
ag3228
ag3229
ag3230
ag3231
ag5235
ag3234
ag3235
ag3236
ag3237
ag3238
ag5236
ag3242
ag3243
ag3244
ag3245
ag5237
ag3248
ag3249
ag3250
ag3251
ag5238
ag3255
ag3256
ag5239
ag3259
ag3260
ag3261
ag3262
a(lp5759
I1043
ag5744
aag5240
ag3265
ag3266
ag3267
ag3268
ag3269
ag3270
ag3271
ag3272
ag3273
ag3274
ag5241
ag3277
ag3278
ag3279
ag3280
ag3281
ag3282
ag3283
ag3284
ag3285
ag3286
ag5242
ag3289
ag3290
ag3291
ag3292
ag3293
ag3294
ag3295
ag5243
ag3298
ag3299
ag3300
ag3301
ag3302
ag3303
ag5244
ag3306
ag3307
ag3308
ag3309
ag3310
ag3311
ag3312
ag5245
ag3316
ag3317
ag3318
ag3319
ag5246
ag3323
ag3324
ag3325
ag5247
ag3329
ag3330
ag5248
ag3334
ag3335
ag3336
ag5249
ag3339
ag3340
ag3341
ag3342
ag3343
ag5250
ag3347
ag3348
ag5251
ag3351
ag3352
ag3353
ag3354
ag5252
ag3358
ag3359
ag5253
ag3363
ag3364
ag3365
ag5254
ag3368
ag3369
ag3370
ag3371
ag3372
ag3373
ag3374
ag5255
ag3378
ag3379
ag5256
ag3382
ag3383
ag3384
ag3385
ag3386
ag3387
ag3388
ag3389
ag3390
ag3391
ag5257
ag3394
ag3395
ag3396
ag3397
ag3398
ag3399
ag3400
ag3401
ag3402
ag3403
a(lp5760
I1159
ag5744
aag5258
ag3407
ag3408
ag3409
ag3410
ag5259
ag3414
ag3415
ag5260
ag3418
ag5261
ag3421
ag3422
ag3423
ag3424
ag3425
ag3426
ag3427
ag5262
ag3431
ag3432
ag3433
ag3434
ag5263
ag3437
ag3438
ag3439
ag3440
ag3441
ag3442
ag5264
ag3446
ag3447
ag3448
ag3449
ag5265
ag3453
ag3454
ag3455
ag3456
ag3457
ag5266
ag3461
ag3462
ag5267
ag3465
ag3466
ag3467
ag3468
ag3469
ag3470
ag5268
ag3474
ag3475
ag5269
ag3478
ag3479
ag3480
ag3481
ag3482
ag3483
ag5270
ag3487
ag3488
ag3489
ag3490
ag5271
ag3494
ag3495
ag3496
ag5272
ag3499
ag3500
ag3501
ag3502
ag3503
ag3504
ag3505
ag3506
ag3507
ag3508
a(lp5761
I1241
ag5744
aag5273
ag3511
ag3512
ag3513
ag3514
ag3515
ag5274
ag3519
ag3520
ag3521
ag3522
ag5275
ag3525
ag3526
ag3527
ag3528
ag3529
ag3530
ag3531
ag5276
ag3535
ag3536
ag5277
ag3539
ag3540
ag3541
ag3542
ag3543
ag3544
ag5278
ag3548
ag3549
ag5279
ag3552
ag3553
ag3554
ag3555
ag3556
ag3557
ag3558
ag3559
ag5280
ag3563
ag3564
ag3565
ag5281
ag3569
ag3570
ag3571
ag5282
ag3574
ag3575
ag3576
ag3577
ag3578
ag5283
ag3582
ag3583
ag5284
ag3587
ag3588
ag3589
ag5285
ag3592
ag3593
ag3594
ag3595
a(lp5762
I1309
ag5739
aag5286
ag3598
ag3599
ag3600
ag3601
ag3602
a(lp5763
I1316
ag5739
aag5287
ag3606
ag3607
ag3608
ag5288
ag3611
ag3612
ag3613
ag3614
a(lp5764
I1326
ag5744
aag5289
ag3618
ag3619
a(lp5765
I1330
ag5739
aag5290
ag3623
ag3624
ag5291
ag3627
ag3628
ag3629
ag3630
ag3631
ag5292
ag3635
ag3636
ag5293
ag3639
ag5294
ag3642
ag3643
ag3644
ag3645
ag3646
ag3647
ag3648
ag5295
ag3652
ag3653
ag3654
ag3655
ag5296
ag3659
ag3660
ag5297
ag3663
ag3664
ag3665
ag3666
ag3667
ag3668
ag3669
ag5298
ag3673
ag3674
ag3675
ag5299
ag3678
ag3679
ag3680
ag3681
ag5300
ag3685
ag3686
ag5301
ag3690
ag3691
ag3692
ag3693
ag5302
ag3696
ag3697
ag3698
ag3699
ag3700
ag3701
ag3702
a(lp5766
I1394
ag5744
aag5303
ag3705
ag3706
ag3707
ag3708
ag3709
ag3710
ag3711
ag3712
ag3713
ag3714
ag5304
ag3717
ag3718
ag3719
ag3720
ag3721
ag3722
ag3723
ag3724
ag3725
ag3726
ag5305
ag3730
ag3731
ag5306
ag3734
ag3735
ag3736
ag3737
ag3738
ag3739
ag3740
ag5307
ag3743
ag3744
ag3745
ag3746
ag3747
ag3748
ag3749
ag5308
ag3753
ag3754
ag3755
ag3756
ag5309
ag3759
ag3760
ag3761
ag3762
ag3763
ag5310
ag3766
ag3767
ag3768
ag3769
ag3770
ag3771
ag5311
ag3774
ag3775
ag3776
ag3777
ag5312
ag3781
ag3782
ag5313
ag3786
ag3787
ag3788
ag5314
ag3791
ag3792
ag3793
ag3794
ag3795
ag3796
ag3797
a(lp5767
I1474
ag5744
aag5315
ag3801
ag3802
ag3803
ag3804
ag5316
ag3807
ag3808
ag3809
ag3810
ag3811
ag3812
ag3813
ag3814
ag3815
ag5317
ag3819
ag3820
ag5318
ag3823
ag5319
ag3826
ag3827
ag3828
ag3829
ag3830
ag3831
ag3832
ag5320
ag3836
ag3837
ag3838
ag3839
ag5321
ag3842
ag3843
ag3844
ag3845
ag3846
ag3847
ag5322
ag3851
ag3852
ag3853
ag3854
ag5323
ag3858
ag3859
ag3860
ag5324
ag3863
ag3864
ag3865
ag3866
ag3867
ag3868
ag3869
ag5325
ag3872
ag3873
ag3874
ag3875
ag3876
ag3877
ag3878
ag3879
ag5326
ag3882
ag3883
ag3884
ag5327
ag3887
ag3888
ag3889
ag3890
ag3891
ag3892
ag3893
ag3894
a(lp5768
I1554
ag5744
aag5328
ag3898
ag3899
ag5329
ag3903
ag3904
ag3905
ag5330
ag3909
ag3910
ag5331
ag3913
ag5332
ag3916
ag3917
ag3918
ag3919
ag3920
ag3921
ag5333
ag3925
ag3926
ag5334
ag3929
ag3930
ag3931
ag3932
ag3933
ag3934
ag5335
ag3938
ag3939
ag5336
ag3942
ag3943
ag3944
ag3945
ag5337
ag3948
ag3949
ag3950
ag3951
ag3952
ag5338
ag3956
ag3957
ag5339
ag3961
ag3962
ag3963
ag5340
ag3966
ag3967
ag3968
ag3969
a(lp5769
I1610
ag5744
aag5341
ag3973
ag3974
ag5342
ag3978
ag3979
ag3980
ag5343
ag3983
ag3984
ag3985
ag3986
ag3987
ag5344
ag3990
ag5345
ag3993
ag3994
ag3995
ag5346
ag3999
ag4000
ag5347
ag4003
ag4004
ag4005
ag4006
a(lp5770
I1638
ag5739
aag5348
ag4009
ag4010
ag4011
ag4012
ag4013
ag4014
ag4015
ag4016
ag4017
ag5349
ag4020
ag4021
ag4022
ag4023
ag5350
ag4027
ag4028
ag5351
ag4032
ag4033
ag4034
ag5352
ag4037
ag4038
ag4039
ag4040
ag4041
ag4042
ag4043
ag5353
ag4047
ag4048
ag5354
ag4052
ag4053
ag4054
ag5355
ag4057
ag4058
ag4059
ag4060
ag4061
ag4062
ag4063
ag5356
ag4067
ag4068
ag5357
ag4072
ag4073
ag4074
ag5358
ag4077
ag4078
ag4079
ag4080
ag5359
ag4084
ag4085
ag4086
ag5360
ag4089
ag4090
ag4091
ag4092
ag5361
ag4096
ag4097
ag5362
ag4100
ag4101
ag4102
ag4103
ag4104
ag4105
ag4106
ag4107
a(lp5771
I1717
ag5744
aag5363
ag4110
ag4111
ag4112
ag4113
ag5364
ag4116
ag4117
ag4118
ag5365
a(lp5772
I1728
aS'-'
p5773
aag5366
ag4121
ag4122
ag4123
ag4124
ag4125
ag4126
ag4127
ag4128
ag5367
ag4131
ag4132
ag4133
ag4134
ag4135
ag5368
ag4138
ag4139
ag4140
ag4141
ag4142
ag4143
ag5369
ag4146
ag4147
ag4148
ag4149
ag5370
ag4153
ag4154
ag5371
ag4158
ag4159
ag4160
a(lp5774
I1763
ag5739
aag5372
ag4164
ag4165
ag5373
ag4169
ag4170
ag4171
ag5374
ag4175
ag4176
ag4177
ag5375
ag4180
ag4181
ag4182
ag4183
ag4184
ag4185
ag4186
ag5376
ag4190
ag4191
ag4192
ag4193
ag5377
ag4196
ag4197
ag4198
ag4199
ag4200
ag4201
ag4202
ag5378
ag4205
ag4206
ag4207
ag4208
ag5379
ag4212
ag4213
ag5380
ag4217
ag4218
ag4219
ag4220
ag5381
ag4223
ag4224
ag4225
ag4226
ag5382
ag4229
ag4230
ag4231
a(lp5775
I1818
ag5739
aag5383
ag4235
ag4236
ag4237
ag4238
ag5384
ag4241
ag4242
ag4243
ag4244
ag4245
ag5385
ag4249
ag4250
ag5386
ag4253
ag4254
ag4255
ag4256
ag4257
ag4258
ag4259
ag4260
ag4261
ag4262
ag4263
ag5387
ag4266
ag4267
ag4268
ag4269
ag4270
ag4271
ag4272
a(lp5776
I1853
ag5744
aag5388
ag4275
ag4276
ag4277
ag4278
ag4279
ag4280
ag4281
ag4282
ag4283
ag5389
ag4287
ag4288
ag4289
ag4290
ag5390
ag4293
ag4294
ag4295
ag4296
ag4297
ag4298
ag5391
ag4302
ag4303
ag4304
ag5392
ag4307
ag4308
ag4309
ag4310
ag4311
ag5393
ag4315
ag4316
ag4317
ag4318
ag4319
ag4320
ag4321
ag5394
ag4324
ag5395
ag4327
ag4328
ag4329
ag4330
ag4331
ag5396
ag4334
ag4335
ag4336
ag4337
ag4338
ag4339
a(lp5777
I1909
ag5739
aag5397
ag4343
ag4344
ag4345
ag4346
ag5398
ag4349
ag4350
ag4351
ag5399
ag4355
ag4356
ag5400
ag4360
ag4361
ag4362
ag4363
ag4364
ag4365
ag5401
ag4368
ag4369
ag4370
ag4371
ag5402
ag4375
ag4376
ag5403
ag4380
ag4381
ag4382
ag4383
ag4384
ag5404
ag4387
ag4388
ag4389
ag4390
ag5405
ag4393
ag4394
ag4395
a(lp5778
I1952
ag5739
aag5406
ag4399
ag4400
ag4401
ag4402
ag4403
ag5407
ag4407
ag4408
ag4409
ag5408
ag4412
ag4413
ag4414
ag4415
ag4416
ag4417
ag4418
ag5409
ag4422
ag4423
ag4424
ag5410
ag4427
ag4428
ag4429
ag4430
ag4431
ag4432
ag4433
ag5411
ag4436
ag4437
ag4438
ag4439
a(lp5779
I1988
ag5744
aag5412
ag4443
ag4444
ag5413
ag4448
ag4449
ag4450
ag5414
ag4454
ag4455
ag4456
ag5415
ag4460
ag4461
ag4462
ag4463
ag4464
ag4465
ag5416
ag4468
ag4469
ag4470
ag4471
ag4472
ag5417
ag4475
ag4476
ag4477
ag4478
ag5418
ag4481
ag4482
ag4483
ag4484
ag4485
ag5419
ag4489
ag4490
ag4491
ag4492
ag5420
ag4496
ag4497
ag4498
ag4499
ag5421
ag4502
ag4503
ag4504
ag4505
ag4506
ag4507
ag4508
ag5422
ag4511
ag4512
ag4513
ag4514
ag5423
ag4518
ag4519
ag5424
ag4523
ag4524
ag4525
ag5425
ag4529
ag4530
ag4531
ag4532
ag5426
ag4535
ag4536
ag4537
ag4538
ag5427
ag4542
ag4543
ag4544
ag4545
ag4546
ag4547
ag4548
ag5428
ag4552
ag4553
ag4554
ag5429
ag4557
ag4558
ag4559
ag4560
ag4561
ag4562
ag5430
ag4565
ag4566
ag4567
ag5431
ag4571
ag4572
ag4573
ag5432
ag4577
ag4578
ag4579
ag4580
ag5433
ag4584
ag4585
ag5434
ag4589
ag4590
ag4591
ag5435
ag4594
ag4595
ag4596
ag5436
ag4599
ag4600
ag4601
ag4602
a(lp5780
I2112
ag5739
aag5437
ag4606
ag4607
ag4608
ag5438
ag4612
ag4613
ag4614
ag4615
ag4616
ag4617
ag5439
ag4620
ag4621
ag4622
ag4623
ag5440
ag4626
ag4627
ag4628
ag4629
ag4630
ag4631
ag4632
ag5441
ag4635
ag4636
ag4637
ag4638
ag4639
ag4640
ag4641
ag4642
ag4643
ag5442
ag4647
ag4648
ag5443
ag4651
ag4652
ag4653
ag4654
ag5444
ag4658
ag4659
ag5445
ag4662
ag4663
ag4664
ag4665
ag4666
ag4667
ag4668
ag4669
a(lp5781
I2167
ag5744
aag5446
ag4673
ag4674
a(lp5782
I2171
ag5739
aag5447
ag4678
ag4679
ag5448
ag4683
ag4684
ag4685
ag5449
ag4689
ag4690
ag4691
ag5450
ag4694
ag4695
ag4696
a(lp5783
I2187
ag5739
aag5451
ag4699
ag4700
ag4701
ag4702
ag5452
ag4706
ag4707
ag5453
ag4711
ag4712
ag4713
ag5454
ag4716
ag4717
ag4718
ag4719
ag4720
ag4721
ag4722
ag5455
ag4726
ag4727
ag5456
ag4731
ag4732
ag4733
ag5457
ag4736
ag4737
ag4738
ag4739
ag4740
ag4741
ag5458
ag4744
ag5459
ag4747
ag4748
ag4749
ag4750
ag5460
ag4754
ag4755
ag5461
ag4758
ag4759
ag4760
ag4761
ag4762
ag4763
ag4764
ag5462
ag4768
ag4769
ag4770
ag4771
ag5463
ag4774
ag4775
ag4776
ag4777
ag4778
ag4779
ag5464
ag4782
ag4783
ag4784
ag4785
ag4786
ag4787
ag5465
ag4790
ag4791
ag4792
ag4793
ag4794
ag4795
ag4796
ag4797
a(lp5784
I2268
ag5744
aag5466
ag4801
ag4802
ag4803
ag4804
ag4805
ag5467
ag4809
ag4810
ag4811
ag5468
ag4815
ag4816
ag4817
ag4818
ag4819
ag5469
ag4823
ag4824
ag4825
ag4826
ag5470
ag4829
ag4830
ag4831
ag4832
ag4833
ag4834
ag4835
ag5471
ag4838
ag4839
ag4840
ag4841
ag4842
ag4843
ag4844
ag4845
ag5472
ag4849
ag4850
ag4851
ag4852
ag5473
ag4856
ag4857
ag4858
ag5474
ag4861
ag4862
ag4863
ag4864
ag4865
ag5475
ag4868
ag4869
ag4870
ag4871
ag4872
ag4873
ag4874
ag5476
ag4877
ag4878
ag4879
ag4880
a(lp5785
I2335
ag5744
aag5477
ag4884
ag4885
ag4886
ag5478
ag4890
ag4891
ag4892
ag4893
ag5479
ag4896
ag4897
ag4898
ag4899
ag4900
ag4901
a(lp5786
I2352
ag5739
aag5480
ag4904
ag4905
ag4906
ag4907
ag4908
ag5481
ag4912
ag4913
ag5482
ag4917
ag4918
ag4919
ag4920
ag5483
ag4923
ag4924
ag4925
ag4926
ag4927
ag4928
ag5484
ag4932
ag4933
ag4934
ag5485
ag4937
ag4938
ag4939
ag4940
ag4941
ag4942
ag4943
ag5486
ag4947
ag4948
ag4949
ag5487
ag4952
ag4953
ag4954
ag4955
ag5488
ag4959
ag4960
ag4961
ag4962
ag4963
ag5489
ag4967
ag4968
ag4969
ag5490
ag4972
ag4973
ag4974
ag4975
ag5491
ag4979
ag4980
ag4981
ag5492
ag4985
ag4986
ag5493
ag4990
ag4991
ag4992
ag4993
ag5494
ag4996
ag4997
ag4998
ag4999
ag5000
ag5001
ag5002
ag5003
ag5004
ag5495
ag5008
ag5009
ag5496
ag5012
ag5013
ag5014
ag5015
ag5016
ag5017
ag5018
ag5497
ag5022
ag5023
ag5024
ag5498
ag5027
ag5028
ag5029
ag5030
ag5031
ag5499
ag5034
ag5035
ag5036
ag5037
ag5038
ag5039
ag5040
ag5041
ag5042
a(lp5787
I2463
ag5744
aasS'docName'
p5788
S'source-document01011.txt'
p5789
sb.