(iModel.Document
Document
p0
(dp1
S'fmap'
p2
(lp3
(lp4
I0
aI0
aS'q'
p5
a(lp6
S'*'
p7
ag5
aaa(lp8
I0
aI0
ag5
a(lp9
g7
ag5
aaa(lp10
I0
aI0
ag5
a(lp11
g7
ag5
aaa(lp12
I0
aI0
ag5
a(lp13
g7
ag5
aaa(lp14
I23
aI29
aS'prepare'
p15
a(lp16
g5
ag15
aaa(lp17
I23
aI29
ag15
a(lp18
g7
ag15
aaa(lp19
I23
aI29
ag15
a(lp20
g7
ag15
aaa(lp21
I23
aI29
ag15
a(lp22
g7
ag15
aaa(lp23
I39
aI47
aS'interview'
p24
a(lp25
g15
ag24
aaa(lp26
I39
aI47
ag24
a(lp27
g5
ag24
aaa(lp28
I39
aI47
ag24
a(lp29
g7
ag24
aaa(lp30
I39
aI47
ag24
a(lp31
g7
ag24
aaa(lp32
I50
aI57
aS'research'
p33
a(lp34
g24
ag33
aaa(lp35
I50
aI57
ag33
a(lp36
g15
ag33
aaa(lp37
I50
aI57
ag33
a(lp38
g5
ag33
aaa(lp39
I50
aI57
ag33
a(lp40
g7
ag33
aaa(lp41
I81
aI88
aS'employer'
p42
a(lp43
g33
ag42
aaa(lp44
I81
aI88
ag42
a(lp45
g24
ag42
aaa(lp46
I81
aI88
ag42
a(lp47
g15
ag42
aaa(lp48
I81
aI88
ag42
a(lp49
g5
ag42
aaa(lp50
I90
aI96
aS'prepare'
p51
a(lp52
g42
ag51
aaa(lp53
I90
aI96
ag51
a(lp54
g33
ag51
aaa(lp55
I90
aI96
ag51
a(lp56
g24
ag51
aaa(lp57
I90
aI96
ag51
a(lp58
g15
ag51
aaa(lp59
I100
aI103
aS'neat'
p60
a(lp61
g51
ag60
aaa(lp62
I100
aI103
ag60
a(lp63
g42
ag60
aaa(lp64
I100
aI103
ag60
a(lp65
g33
ag60
aaa(lp66
I100
aI103
ag60
a(lp67
g24
ag60
aaa(lp68
I105
aI110
aS'folder'
p69
a(lp70
g60
ag69
aaa(lp71
I105
aI110
ag69
a(lp72
g51
ag69
aaa(lp73
I105
aI110
ag69
a(lp74
g42
ag69
aaa(lp75
I105
aI110
ag69
a(lp76
g33
ag69
aaa(lp77
I112
aI121
aS'containing'
p78
a(lp79
g69
ag78
aaa(lp80
I112
aI121
ag78
a(lp81
g60
ag78
aaa(lp82
I112
aI121
ag78
a(lp83
g51
ag78
aaa(lp84
I112
aI121
ag78
a(lp85
g42
ag78
aaa(lp86
I128
aI133
aS'resume'
p87
a(lp88
g78
ag87
aaa(lp89
I128
aI133
ag87
a(lp90
g69
ag87
aaa(lp91
I128
aI133
ag87
a(lp92
g60
ag87
aaa(lp93
I128
aI133
ag87
a(lp94
g51
ag87
aaa(lp95
I136
aI147
aS'certificates'
p96
a(lp97
g87
ag96
aaa(lp98
I136
aI147
ag96
a(lp99
g78
ag96
aaa(lp100
I136
aI147
ag96
a(lp101
g69
ag96
aaa(lp102
I136
aI147
ag96
a(lp103
g60
ag96
aaa(lp104
I150
aI159
aS'references'
p105
a(lp106
g96
ag105
aaa(lp107
I150
aI159
ag105
a(lp108
g87
ag105
aaa(lp109
I150
aI159
ag105
a(lp110
g78
ag105
aaa(lp111
I150
aI159
ag105
a(lp112
g69
ag105
aaa(lp113
I162
aI164
aS'etc'
p114
a(lp115
g105
ag114
aaa(lp116
I162
aI164
ag114
a(lp117
g96
ag114
aaa(lp118
I162
aI164
ag114
a(lp119
g87
ag114
aaa(lp120
I162
aI164
ag114
a(lp121
g78
ag114
aaa(lp122
I167
aI171
aS'dress'
p123
a(lp124
g114
ag123
aaa(lp125
I167
aI171
ag123
a(lp126
g105
ag123
aaa(lp127
I167
aI171
ag123
a(lp128
g96
ag123
aaa(lp129
I167
aI171
ag123
a(lp130
g87
ag123
aaa(lp131
I173
aI185
aS'appropriately'
p132
a(lp133
g123
ag132
aaa(lp134
I173
aI185
ag132
a(lp135
g114
ag132
aaa(lp136
I173
aI185
ag132
a(lp137
g105
ag132
aaa(lp138
I173
aI185
ag132
a(lp139
g96
ag132
aaa(lp140
I191
aI196
aS'ensure'
p141
a(lp142
g132
ag141
aaa(lp143
I191
aI196
ag141
a(lp144
g123
ag141
aaa(lp145
I191
aI196
ag141
a(lp146
g114
ag141
aaa(lp147
I191
aI196
ag141
a(lp148
g105
ag141
aaa(lp149
I200
aI203
aS'high'
p150
a(lp151
g141
ag150
aaa(lp152
I200
aI203
ag150
a(lp153
g132
ag150
aaa(lp154
I200
aI203
ag150
a(lp155
g123
ag150
aaa(lp156
I200
aI203
ag150
a(lp157
g114
ag150
aaa(lp158
I205
aI209
aS'level'
p159
a(lp160
g150
ag159
aaa(lp161
I205
aI209
ag159
a(lp162
g141
ag159
aaa(lp163
I205
aI209
ag159
a(lp164
g132
ag159
aaa(lp165
I205
aI209
ag159
a(lp166
g123
ag159
aaa(lp167
I214
aI220
aS'hygiene'
p168
a(lp169
g159
ag168
aaa(lp170
I214
aI220
ag168
a(lp171
g150
ag168
aaa(lp172
I214
aI220
ag168
a(lp173
g141
ag168
aaa(lp174
I214
aI220
ag168
a(lp175
g132
ag168
aaa(lp176
I235
aI240
aS'smoker'
p177
a(lp178
g168
ag177
aaa(lp179
I235
aI240
ag177
a(lp180
g159
ag177
aaa(lp181
I235
aI240
ag177
a(lp182
g150
ag177
aaa(lp183
I235
aI240
ag177
a(lp184
g141
ag177
aaa(lp185
I243
aI247
aS'avoid'
p186
a(lp187
g177
ag186
aaa(lp188
I243
aI247
ag186
a(lp189
g168
ag186
aaa(lp190
I243
aI247
ag186
a(lp191
g159
ag186
aaa(lp192
I243
aI247
ag186
a(lp193
g150
ag186
aaa(lp194
I249
aI255
aS'smoking'
p195
a(lp196
g186
ag195
aaa(lp197
I249
aI255
ag195
a(lp198
g177
ag195
aaa(lp199
I249
aI255
ag195
a(lp200
g168
ag195
aaa(lp201
I249
aI255
ag195
a(lp202
g159
ag195
aaa(lp203
I264
aI267
aS'long'
p204
a(lp205
g195
ag204
aaa(lp206
I264
aI267
ag204
a(lp207
g186
ag204
aaa(lp208
I264
aI267
ag204
a(lp209
g177
ag204
aaa(lp210
I264
aI267
ag204
a(lp211
g168
ag204
aaa(lp212
I272
aI279
aS'possible'
p213
a(lp214
g204
ag213
aaa(lp215
I272
aI279
ag213
a(lp216
g195
ag213
aaa(lp217
I272
aI279
ag213
a(lp218
g186
ag213
aaa(lp219
I272
aI279
ag213
a(lp220
g177
ag213
aaa(lp221
I281
aI291
aS'immediately'
p222
a(lp223
g213
ag222
aaa(lp224
I281
aI291
ag222
a(lp225
g204
ag222
aaa(lp226
I281
aI291
ag222
a(lp227
g195
ag222
aaa(lp228
I281
aI291
ag222
a(lp229
g186
ag222
aaa(lp230
I293
aI297
aS'prior'
p231
a(lp232
g222
ag231
aaa(lp233
I293
aI297
ag231
a(lp234
g213
ag231
aaa(lp235
I293
aI297
ag231
a(lp236
g204
ag231
aaa(lp237
I293
aI297
ag231
a(lp238
g195
ag231
aaa(lp239
I307
aI315
aS'interview'
p240
a(lp241
g231
ag240
aaa(lp242
I307
aI315
ag240
a(lp243
g222
ag240
aaa(lp244
I307
aI315
ag240
a(lp245
g213
ag240
aaa(lp246
I307
aI315
ag240
a(lp247
g204
ag240
aaa(lp248
I317
aI322
aS'arrive'
p249
a(lp250
g240
ag249
aaa(lp251
I317
aI322
ag249
a(lp252
g231
ag249
aaa(lp253
I317
aI322
ag249
a(lp254
g222
ag249
aaa(lp255
I317
aI322
ag249
a(lp256
g213
ag249
aaa(lp257
I324
aI325
aS'15'
p258
a(lp259
g249
ag258
aaa(lp260
I324
aI325
ag258
a(lp261
g240
ag258
aaa(lp262
I324
aI325
ag258
a(lp263
g231
ag258
aaa(lp264
I324
aI325
ag258
a(lp265
g222
ag258
aaa(lp266
I327
aI333
aS'minutes'
p267
a(lp268
g258
ag267
aaa(lp269
I327
aI333
ag267
a(lp270
g249
ag267
aaa(lp271
I327
aI333
ag267
a(lp272
g240
ag267
aaa(lp273
I327
aI333
ag267
a(lp274
g231
ag267
aaa(lp275
I335
aI339
aS'early'
p276
a(lp277
g267
ag276
aaa(lp278
I335
aI339
ag276
a(lp279
g258
ag276
aaa(lp280
I335
aI339
ag276
a(lp281
g249
ag276
aaa(lp282
I335
aI339
ag276
a(lp283
g240
ag276
aaa(lp284
I341
aI348
aS'rehearse'
p285
a(lp286
g276
ag285
aaa(lp287
I341
aI348
ag285
a(lp288
g267
ag285
aaa(lp289
I341
aI348
ag285
a(lp290
g258
ag285
aaa(lp291
I341
aI348
ag285
a(lp292
g249
ag285
aaa(lp293
I350
aI356
aS'answers'
p294
a(lp295
g285
ag294
aaa(lp296
I350
aI356
ag294
a(lp297
g276
ag294
aaa(lp298
I350
aI356
ag294
a(lp299
g267
ag294
aaa(lp300
I350
aI356
ag294
a(lp301
g258
ag294
aaa(lp302
I361
aI366
aS'likely'
p303
a(lp304
g294
ag303
aaa(lp305
I361
aI366
ag303
a(lp306
g285
ag303
aaa(lp307
I361
aI366
ag303
a(lp308
g276
ag303
aaa(lp309
I361
aI366
ag303
a(lp310
g267
ag303
aaa(lp311
I368
aI376
aS'interview'
p312
a(lp313
g303
ag312
aaa(lp314
I368
aI376
ag312
a(lp315
g294
ag312
aaa(lp316
I368
aI376
ag312
a(lp317
g285
ag312
aaa(lp318
I368
aI376
ag312
a(lp319
g276
ag312
aaa(lp320
I378
aI386
aS'questions'
p321
a(lp322
g312
ag321
aaa(lp323
I378
aI386
ag321
a(lp324
g303
ag321
aaa(lp325
I378
aI386
ag321
a(lp326
g294
ag321
aaa(lp327
I378
aI386
ag321
a(lp328
g285
ag321
aaa(lp329
I388
aI395
aS'rehearse'
p330
a(lp331
g321
ag330
aaa(lp332
I388
aI395
ag330
a(lp333
g312
ag330
aaa(lp334
I388
aI395
ag330
a(lp335
g303
ag330
aaa(lp336
I388
aI395
ag330
a(lp337
g294
ag330
aaa(lp338
I401
aI409
aS'questions'
p339
a(lp340
g330
ag339
aaa(lp341
I401
aI409
ag339
a(lp342
g321
ag339
aaa(lp343
I401
aI409
ag339
a(lp344
g312
ag339
aaa(lp345
I401
aI409
ag339
a(lp346
g303
ag339
aaa(lp347
I415
aI418
aS'want'
p348
a(lp349
g339
ag348
aaa(lp350
I415
aI418
ag348
a(lp351
g330
ag348
aaa(lp352
I415
aI418
ag348
a(lp353
g321
ag348
aaa(lp354
I415
aI418
ag348
a(lp355
g312
ag348
aaa(lp356
I423
aI425
aS'ask'
p357
a(lp358
g348
ag357
aaa(lp359
I423
aI425
ag357
a(lp360
g339
ag357
aaa(lp361
I423
aI425
ag357
a(lp362
g330
ag357
aaa(lp363
I423
aI425
ag357
a(lp364
g321
ag357
aaa(lp365
I431
aI438
aS'employer'
p366
a(lp367
g357
ag366
aaa(lp368
I431
aI438
ag366
a(lp369
g348
ag366
aaa(lp370
I431
aI438
ag366
a(lp371
g339
ag366
aaa(lp372
I431
aI438
ag366
a(lp373
g330
ag366
aaa(lp374
I440
aI444
aS'dress'
p375
a(lp376
g366
ag375
aaa(lp377
I440
aI444
ag375
a(lp378
g357
ag375
aaa(lp379
I440
aI444
ag375
a(lp380
g348
ag375
aaa(lp381
I440
aI444
ag375
a(lp382
g339
ag375
aaa(lp383
I446
aI458
aS'appropriately'
p384
a(lp385
g375
ag384
aaa(lp386
I446
aI458
ag384
a(lp387
g366
ag384
aaa(lp388
I446
aI458
ag384
a(lp389
g357
ag384
aaa(lp390
I446
aI458
ag384
a(lp391
g348
ag384
aaa(lp392
I468
aI475
aS'position'
p393
a(lp394
g384
ag393
aaa(lp395
I468
aI475
ag393
a(lp396
g375
ag393
aaa(lp397
I468
aI475
ag393
a(lp398
g366
ag393
aaa(lp399
I468
aI475
ag393
a(lp400
g357
ag393
aaa(lp401
I481
aI488
aS'industry'
p402
a(lp403
g393
ag402
aaa(lp404
I481
aI488
ag402
a(lp405
g384
ag402
aaa(lp406
I481
aI488
ag402
a(lp407
g375
ag402
aaa(lp408
I481
aI488
ag402
a(lp409
g366
ag402
aaa(lp410
I494
aI499
aS'ensure'
p411
a(lp412
g402
ag411
aaa(lp413
I494
aI499
ag411
a(lp414
g393
ag411
aaa(lp415
I494
aI499
ag411
a(lp416
g384
ag411
aaa(lp417
I494
aI499
ag411
a(lp418
g375
ag411
aaa(lp419
I503
aI506
aS'high'
p420
a(lp421
g411
ag420
aaa(lp422
I503
aI506
ag420
a(lp423
g402
ag420
aaa(lp424
I503
aI506
ag420
a(lp425
g393
ag420
aaa(lp426
I503
aI506
ag420
a(lp427
g384
ag420
aaa(lp428
I508
aI512
aS'level'
p429
a(lp430
g420
ag429
aaa(lp431
I508
aI512
ag429
a(lp432
g411
ag429
aaa(lp433
I508
aI512
ag429
a(lp434
g402
ag429
aaa(lp435
I508
aI512
ag429
a(lp436
g393
ag429
aaa(lp437
I517
aI524
aS'hygieneq'
p438
a(lp439
g429
ag438
aaa(lp440
I517
aI524
ag438
a(lp441
g420
ag438
aaa(lp442
I517
aI524
ag438
a(lp443
g411
ag438
aaa(lp444
I517
aI524
ag438
a(lp445
g402
ag438
aaa(lp446
I541
aI544
aS'wear'
p447
a(lp448
g438
ag447
aaa(lp449
I541
aI544
ag447
a(lp450
g429
ag447
aaa(lp451
I541
aI544
ag447
a(lp452
g420
ag447
aaa(lp453
I541
aI544
ag447
a(lp454
g411
ag447
aaa(lp455
I553
aI561
aS'interview'
p456
a(lp457
g447
ag456
aaa(lp458
I553
aI561
ag456
a(lp459
g438
ag456
aaa(lp460
I553
aI561
ag456
a(lp461
g429
ag456
aaa(lp462
I553
aI561
ag456
a(lp463
g420
ag456
aaa(lp464
I567
aI570
aS'sure'
p465
a(lp466
g456
ag465
aaa(lp467
I567
aI570
ag465
a(lp468
g447
ag465
aaa(lp469
I567
aI570
ag465
a(lp470
g438
ag465
aaa(lp471
I567
aI570
ag465
a(lp472
g429
ag465
aaa(lp473
I575
aI579
aS'bring'
p474
a(lp475
g465
ag474
aaa(lp476
I575
aI579
ag474
a(lp477
g456
ag474
aaa(lp478
I575
aI579
ag474
a(lp479
g447
ag474
aaa(lp480
I575
aI579
ag474
a(lp481
g438
ag474
aaa(lp482
I583
aI586
aS'copy'
p483
a(lp484
g474
ag483
aaa(lp485
I583
aI586
ag483
a(lp486
g465
ag483
aaa(lp487
I583
aI586
ag483
a(lp488
g456
ag483
aaa(lp489
I583
aI586
ag483
a(lp490
g447
ag483
aaa(lp491
I596
aI601
aS'resume'
p492
a(lp493
g483
ag492
aaa(lp494
I596
aI601
ag492
a(lp495
g474
ag492
aaa(lp496
I596
aI601
ag492
a(lp497
g465
ag492
aaa(lp498
I596
aI601
ag492
a(lp499
g456
ag492
aaa(lp500
I607
aI619
aS'references\xa0'
p501
a(lp502
g492
ag501
aaa(lp503
I607
aI619
ag501
a(lp504
g483
ag501
aaa(lp505
I607
aI619
ag501
a(lp506
g474
ag501
aaa(lp507
I607
aI619
ag501
a(lp508
g465
ag501
aaa(lp509
I627
aI632
aS'always'
p510
a(lp511
g501
ag510
aaa(lp512
I627
aI632
ag510
a(lp513
g492
ag510
aaa(lp514
I627
aI632
ag510
a(lp515
g483
ag510
aaa(lp516
I627
aI632
ag510
a(lp517
g474
ag510
aaa(lp518
I634
aI640
aS'helpful'
p519
a(lp520
g510
ag519
aaa(lp521
I634
aI640
ag519
a(lp522
g501
ag519
aaa(lp523
I634
aI640
ag519
a(lp524
g492
ag519
aaa(lp525
I634
aI640
ag519
a(lp526
g483
ag519
aaa(lp527
I649
aI656
aS'employer'
p528
a(lp529
g519
ag528
aaa(lp530
I649
aI656
ag528
a(lp531
g510
ag528
aaa(lp532
I649
aI656
ag528
a(lp533
g501
ag528
aaa(lp534
I649
aI656
ag528
a(lp535
g492
ag528
aaa(lp536
I661
aI664
aS'also'
p537
a(lp538
g528
ag537
aaa(lp539
I661
aI664
ag537
a(lp540
g519
ag537
aaa(lp541
I661
aI664
ag537
a(lp542
g510
ag537
aaa(lp543
I661
aI664
ag537
a(lp544
g501
ag537
aaa(lp545
I666
aI668
aS'see'
p546
a(lp547
g537
ag546
aaa(lp548
I666
aI668
ag546
a(lp549
g528
ag546
aaa(lp550
I666
aI668
ag546
a(lp551
g519
ag546
aaa(lp552
I666
aI668
ag546
a(lp553
g510
ag546
aaa(lp554
I670
aI675
aS'copies'
p555
a(lp556
g546
ag555
aaa(lp557
I670
aI675
ag555
a(lp558
g537
ag555
aaa(lp559
I670
aI675
ag555
a(lp560
g528
ag555
aaa(lp561
I670
aI675
ag555
a(lp562
g519
ag555
aaa(lp563
I684
aI695
aS'certificates'
p564
a(lp565
g555
ag564
aaa(lp566
I684
aI695
ag564
a(lp567
g546
ag564
aaa(lp568
I684
aI695
ag564
a(lp569
g537
ag564
aaa(lp570
I684
aI695
ag564
a(lp571
g528
ag564
aaa(lp572
I700
aI710
aS'achievement'
p573
a(lp574
g564
ag573
aaa(lp575
I700
aI710
ag573
a(lp576
g555
ag573
aaa(lp577
I700
aI710
ag573
a(lp578
g546
ag573
aaa(lp579
I700
aI710
ag573
a(lp580
g537
ag573
aaa(lp581
I715
aI727
aS'qualification'
p582
a(lp583
g573
ag582
aaa(lp584
I715
aI727
ag582
a(lp585
g564
ag582
aaa(lp586
I715
aI727
ag582
a(lp587
g555
ag582
aaa(lp588
I715
aI727
ag582
a(lp589
g546
ag582
aaa(lp590
I729
aI740
aS'certificates'
p591
a(lp592
g582
ag591
aaa(lp593
I729
aI740
ag591
a(lp594
g573
ag591
aaa(lp595
I729
aI740
ag591
a(lp596
g564
ag591
aaa(lp597
I729
aI740
ag591
a(lp598
g555
ag591
aaa(lp599
I746
aI748
aS'may'
p600
a(lp601
g591
ag600
aaa(lp602
I746
aI748
ag600
a(lp603
g582
ag600
aaa(lp604
I746
aI748
ag600
a(lp605
g573
ag600
aaa(lp606
I746
aI748
ag600
a(lp607
g564
ag600
aaa(lp608
I750
aI755
aS'haveq'
p609
a(lp610
g600
ag609
aaa(lp611
I750
aI755
ag609
a(lp612
g591
ag609
aaa(lp613
I750
aI755
ag609
a(lp614
g582
ag609
aaa(lp615
I750
aI755
ag609
a(lp616
g573
ag609
aaa(lp617
I767
aI771
aS'bring'
p618
a(lp619
g609
ag618
aaa(lp620
I767
aI771
ag618
a(lp621
g600
ag618
aaa(lp622
I767
aI771
ag618
a(lp623
g591
ag618
aaa(lp624
I767
aI771
ag618
a(lp625
g582
ag618
aaa(lp626
I773
aI780
aS'anything'
p627
a(lp628
g618
ag627
aaa(lp629
I773
aI780
ag627
a(lp630
g609
ag627
aaa(lp631
I773
aI780
ag627
a(lp632
g600
ag627
aaa(lp633
I773
aI780
ag627
a(lp634
g591
ag627
aaa(lp635
I789
aI797
aS'interview'
p636
a(lp637
g627
ag636
aaa(lp638
I789
aI797
ag636
a(lp639
g618
ag636
aaa(lp640
I789
aI797
ag636
a(lp641
g609
ag636
aaa(lp642
I789
aI797
ag636
a(lp643
g600
ag636
aaa(lp644
I814
aI818
aS'sorts'
p645
a(lp646
g636
ag645
aaa(lp647
I814
aI818
ag645
a(lp648
g627
ag645
aaa(lp649
I814
aI818
ag645
a(lp650
g618
ag645
aaa(lp651
I814
aI818
ag645
a(lp652
g609
ag645
aaa(lp653
I823
aI831
aS'questions'
p654
a(lp655
g645
ag654
aaa(lp656
I823
aI831
ag654
a(lp657
g636
ag654
aaa(lp658
I823
aI831
ag654
a(lp659
g627
ag654
aaa(lp660
I823
aI831
ag654
a(lp661
g618
ag654
aaa(lp662
I841
aI846
aS'expect'
p663
a(lp664
g654
ag663
aaa(lp665
I841
aI846
ag663
a(lp666
g645
ag663
aaa(lp667
I841
aI846
ag663
a(lp668
g636
ag663
aaa(lp669
I841
aI846
ag663
a(lp670
g627
ag663
aaa(lp671
I857
aI862
aS'attend'
p672
a(lp673
g663
ag672
aaa(lp674
I857
aI862
ag672
a(lp675
g654
ag672
aaa(lp676
I857
aI862
ag672
a(lp677
g645
ag672
aaa(lp678
I857
aI862
ag672
a(lp679
g636
ag672
aaa(lp680
I866
aI868
aS'job'
p681
a(lp682
g672
ag681
aaa(lp683
I866
aI868
ag681
a(lp684
g663
ag681
aaa(lp685
I866
aI868
ag681
a(lp686
g654
ag681
aaa(lp687
I866
aI868
ag681
a(lp688
g645
ag681
aaa(lp689
I870
aI878
aS'interview'
p690
a(lp691
g681
ag690
aaa(lp692
I870
aI878
ag690
a(lp693
g672
ag690
aaa(lp694
I870
aI878
ag690
a(lp695
g663
ag690
aaa(lp696
I870
aI878
ag690
a(lp697
g654
ag690
aaa(lp698
I886
aI889
aS'good'
p699
a(lp700
g690
ag699
aaa(lp701
I886
aI889
ag699
a(lp702
g681
ag699
aaa(lp703
I886
aI889
ag699
a(lp704
g672
ag699
aaa(lp705
I886
aI889
ag699
a(lp706
g663
ag699
aaa(lp707
I891
aI894
aS'idea'
p708
a(lp709
g699
ag708
aaa(lp710
I891
aI894
ag708
a(lp711
g690
ag708
aaa(lp712
I891
aI894
ag708
a(lp713
g681
ag708
aaa(lp714
I891
aI894
ag708
a(lp715
g672
ag708
aaa(lp716
I899
aI903
aS'write'
p717
a(lp718
g708
ag717
aaa(lp719
I899
aI903
ag717
a(lp720
g699
ag717
aaa(lp721
I899
aI903
ag717
a(lp722
g690
ag717
aaa(lp723
I899
aI903
ag717
a(lp724
g681
ag717
aaa(lp725
I910
aI916
aS'answers'
p726
a(lp727
g717
ag726
aaa(lp728
I910
aI916
ag726
a(lp729
g708
ag726
aaa(lp730
I910
aI916
ag726
a(lp731
g699
ag726
aaa(lp732
I910
aI916
ag726
a(lp733
g690
ag726
aaa(lp734
I927
aI935
aS'questions'
p735
a(lp736
g726
ag735
aaa(lp737
I927
aI935
ag735
a(lp738
g717
ag735
aaa(lp739
I927
aI935
ag735
a(lp740
g708
ag735
aaa(lp741
I927
aI935
ag735
a(lp742
g699
ag735
aaa(lp743
I942
aI949
aS'practice'
p744
a(lp745
g735
ag744
aaa(lp746
I942
aI949
ag744
a(lp747
g726
ag744
aaa(lp748
I942
aI949
ag744
a(lp749
g717
ag744
aaa(lp750
I942
aI949
ag744
a(lp751
g708
ag744
aaa(lp752
I955
aI958
aS'loud'
p753
a(lp754
g744
ag753
aaa(lp755
I955
aI958
ag753
a(lp756
g735
ag753
aaa(lp757
I955
aI958
ag753
a(lp758
g726
ag753
aaa(lp759
I955
aI958
ag753
a(lp760
g717
ag753
aaa(lp761
I973
aI983
aS'interviewq'
p762
a(lp763
g753
ag762
aaa(lp764
I973
aI983
ag762
a(lp765
g744
ag762
aaa(lp766
I973
aI983
ag762
a(lp767
g735
ag762
aaa(lp768
I973
aI983
ag762
a(lp769
g726
ag762
aaa(lp770
I991
aI994
aS'kind'
p771
a(lp772
g762
ag771
aaa(lp773
I991
aI994
ag771
a(lp774
g753
ag771
aaa(lp775
I991
aI994
ag771
a(lp776
g744
ag771
aaa(lp777
I991
aI994
ag771
a(lp778
g735
ag771
aaa(lp779
I999
aI1007
aS'questions'
p780
a(lp781
g771
ag780
aaa(lp782
I999
aI1007
ag780
a(lp783
g762
ag780
aaa(lp784
I999
aI1007
ag780
a(lp785
g753
ag780
aaa(lp786
I999
aI1007
ag780
a(lp787
g744
ag780
aaa(lp788
I1019
aI1023
aS'asked'
p789
a(lp790
g780
ag789
aaa(lp791
I1019
aI1023
ag789
a(lp792
g771
ag789
aaa(lp793
I1019
aI1023
ag789
a(lp794
g762
ag789
aaa(lp795
I1019
aI1023
ag789
a(lp796
g753
ag789
aaa(lp797
I1032
aI1040
aS'interview'
p798
a(lp799
g789
ag798
aaa(lp800
I1032
aI1040
ag798
a(lp801
g780
ag798
aaa(lp802
I1032
aI1040
ag798
a(lp803
g771
ag798
aaa(lp804
I1032
aI1040
ag798
a(lp805
g762
ag798
aaa(lp806
I1054
aI1057
aS'want'
p807
a(lp808
g798
ag807
aaa(lp809
I1054
aI1057
ag807
a(lp810
g789
ag807
aaa(lp811
I1054
aI1057
ag807
a(lp812
g780
ag807
aaa(lp813
I1054
aI1057
ag807
a(lp814
g771
ag807
aaa(lp815
I1062
aI1065
aS'work'
p816
a(lp817
g807
ag816
aaa(lp818
I1062
aI1065
ag816
a(lp819
g798
ag816
aaa(lp820
I1062
aI1065
ag816
a(lp821
g789
ag816
aaa(lp822
I1062
aI1065
ag816
a(lp823
g780
ag816
aaa(lp824
I1076
aI1082
aS'company'
p825
a(lp826
g816
ag825
aaa(lp827
I1076
aI1082
ag825
a(lp828
g807
ag825
aaa(lp829
I1076
aI1082
ag825
a(lp830
g798
ag825
aaa(lp831
I1076
aI1082
ag825
a(lp832
g789
ag825
aaa(lp833
I1090
aI1093
aS'kind'
p834
a(lp835
g825
ag834
aaa(lp836
I1090
aI1093
ag834
a(lp837
g816
ag834
aaa(lp838
I1090
aI1093
ag834
a(lp839
g807
ag834
aaa(lp840
I1090
aI1093
ag834
a(lp841
g798
ag834
aaa(lp842
I1098
aI1100
aS'job'
p843
a(lp844
g834
ag843
aaa(lp845
I1098
aI1100
ag843
a(lp846
g825
ag843
aaa(lp847
I1098
aI1100
ag843
a(lp848
g816
ag843
aaa(lp849
I1098
aI1100
ag843
a(lp850
g807
ag843
aaa(lp851
I1109
aI1112
aS'hope'
p852
a(lp853
g843
ag852
aaa(lp854
I1109
aI1112
ag852
a(lp855
g834
ag852
aaa(lp856
I1109
aI1112
ag852
a(lp857
g825
ag852
aaa(lp858
I1109
aI1112
ag852
a(lp859
g816
ag852
aaa(lp860
I1117
aI1120
aS'hold'
p861
a(lp862
g852
ag861
aaa(lp863
I1117
aI1120
ag861
a(lp864
g843
ag861
aaa(lp865
I1117
aI1120
ag861
a(lp866
g834
ag861
aaa(lp867
I1117
aI1120
ag861
a(lp868
g825
ag861
aaa(lp869
I1122
aI1125
aS'five'
p870
a(lp871
g861
ag870
aaa(lp872
I1122
aI1125
ag870
a(lp873
g852
ag870
aaa(lp874
I1122
aI1125
ag870
a(lp875
g843
ag870
aaa(lp876
I1122
aI1125
ag870
a(lp877
g834
ag870
aaa(lp878
I1127
aI1131
aS'years'
p879
a(lp880
g870
ag879
aaa(lp881
I1127
aI1131
ag879
a(lp882
g861
ag879
aaa(lp883
I1127
aI1131
ag879
a(lp884
g852
ag879
aaa(lp885
I1127
aI1131
ag879
a(lp886
g843
ag879
aaa(lp887
I1148
aI1161
aS'qualifications'
p888
a(lp889
g879
ag888
aaa(lp890
I1148
aI1161
ag888
a(lp891
g870
ag888
aaa(lp892
I1148
aI1161
ag888
a(lp893
g861
ag888
aaa(lp894
I1148
aI1161
ag888
a(lp895
g852
ag888
aaa(lp896
I1186
aI1189
aS'make'
p897
a(lp898
g888
ag897
aaa(lp899
I1186
aI1189
ag897
a(lp900
g879
ag897
aaa(lp901
I1186
aI1189
ag897
a(lp902
g870
ag897
aaa(lp903
I1186
aI1189
ag897
a(lp904
g861
ag897
aaa(lp905
I1195
aI1204
aS'successful'
p906
a(lp907
g897
ag906
aaa(lp908
I1195
aI1204
ag906
a(lp909
g888
ag906
aaa(lp910
I1195
aI1204
ag906
a(lp911
g879
ag906
aaa(lp912
I1195
aI1204
ag906
a(lp913
g870
ag906
aaa(lp914
I1214
aI1218
aS'field'
p915
a(lp916
g906
ag915
aaa(lp917
I1214
aI1218
ag915
a(lp918
g897
ag915
aaa(lp919
I1214
aI1218
ag915
a(lp920
g888
ag915
aaa(lp921
I1214
aI1218
ag915
a(lp922
g879
ag915
aaa(lp923
I1234
aI1237
aS'like'
p924
a(lp925
g915
ag924
aaa(lp926
I1234
aI1237
ag924
a(lp927
g906
ag924
aaa(lp928
I1234
aI1237
ag924
a(lp929
g897
ag924
aaa(lp930
I1234
aI1237
ag924
a(lp931
g888
ag924
aaa(lp932
I1239
aI1248
aS'mostleast'
p933
a(lp934
g924
ag933
aaa(lp935
I1239
aI1248
ag933
a(lp936
g915
ag933
aaa(lp937
I1239
aI1248
ag933
a(lp938
g906
ag933
aaa(lp939
I1239
aI1248
ag933
a(lp940
g897
ag933
aaa(lp941
I1261
aI1263
aS'old'
p942
a(lp943
g933
ag942
aaa(lp944
I1261
aI1263
ag942
a(lp945
g924
ag942
aaa(lp946
I1261
aI1263
ag942
a(lp947
g915
ag942
aaa(lp948
I1261
aI1263
ag942
a(lp949
g906
ag942
aaa(lp950
I1265
aI1267
aS'job'
p951
a(lp952
g942
ag951
aaa(lp953
I1265
aI1267
ag951
a(lp954
g933
ag951
aaa(lp955
I1265
aI1267
ag951
a(lp956
g924
ag951
aaa(lp957
I1265
aI1267
ag951
a(lp958
g915
ag951
aaa(lp959
I1283
aI1287
aS'major'
p960
a(lp961
g951
ag960
aaa(lp962
I1283
aI1287
ag960
a(lp963
g942
ag960
aaa(lp964
I1283
aI1287
ag960
a(lp965
g933
ag960
aaa(lp966
I1283
aI1287
ag960
a(lp967
g924
ag960
aaa(lp968
I1289
aI1296
aS'strength'
p969
a(lp970
g960
ag969
aaa(lp971
I1289
aI1296
ag969
a(lp972
g951
ag969
aaa(lp973
I1289
aI1296
ag969
a(lp974
g942
ag969
aaa(lp975
I1289
aI1296
ag969
a(lp976
g933
ag969
aaa(lp977
I1312
aI1316
aS'major'
p978
a(lp979
g969
ag978
aaa(lp980
I1312
aI1316
ag978
a(lp981
g960
ag978
aaa(lp982
I1312
aI1316
ag978
a(lp983
g951
ag978
aaa(lp984
I1312
aI1316
ag978
a(lp985
g942
ag978
aaa(lp986
I1318
aI1325
aS'weakness'
p987
a(lp988
g978
ag987
aaa(lp989
I1318
aI1325
ag987
a(lp990
g969
ag987
aaa(lp991
I1318
aI1325
ag987
a(lp992
g960
ag987
aaa(lp993
I1318
aI1325
ag987
a(lp994
g951
ag987
aaa(lp995
I1348
aI1352
aS'would'
p996
a(lp997
g987
ag996
aaa(lp998
I1348
aI1352
ag996
a(lp999
g978
ag996
aaa(lp1000
I1348
aI1352
ag996
a(lp1001
g969
ag996
aaa(lp1002
I1348
aI1352
ag996
a(lp1003
g960
ag996
aaa(lp1004
I1358
aI1363
aS'employ'
p1005
a(lp1006
g996
ag1005
aaa(lp1007
I1358
aI1363
ag1005
a(lp1008
g987
ag1005
aaa(lp1009
I1358
aI1363
ag1005
a(lp1010
g978
ag1005
aaa(lp1011
I1358
aI1363
ag1005
a(lp1012
g969
ag1005
aaa(lp1013
I1389
aI1393
aS'ideas'
p1014
a(lp1015
g1005
ag1014
aaa(lp1016
I1389
aI1393
ag1014
a(lp1017
g996
ag1014
aaa(lp1018
I1389
aI1393
ag1014
a(lp1019
g987
ag1014
aaa(lp1020
I1389
aI1393
ag1014
a(lp1021
g978
ag1014
aaa(lp1022
I1398
aI1403
aS'salary'
p1023
a(lp1024
g1014
ag1023
aaa(lp1025
I1398
aI1403
ag1023
a(lp1026
g1005
ag1023
aaa(lp1027
I1398
aI1403
ag1023
a(lp1028
g996
ag1023
aaa(lp1029
I1398
aI1403
ag1023
a(lp1030
g987
ag1023
aaa(lp1031
I1413
aI1417
aS'could'
p1032
a(lp1033
g1023
ag1032
aaa(lp1034
I1413
aI1417
ag1032
a(lp1035
g1014
ag1032
aaa(lp1036
I1413
aI1417
ag1032
a(lp1037
g1005
ag1032
aaa(lp1038
I1413
aI1417
ag1032
a(lp1039
g996
ag1032
aaa(lp1040
I1419
aI1424
aS'design'
p1041
a(lp1042
g1032
ag1041
aaa(lp1043
I1419
aI1424
ag1041
a(lp1044
g1023
ag1041
aaa(lp1045
I1419
aI1424
ag1041
a(lp1046
g1014
ag1041
aaa(lp1047
I1419
aI1424
ag1041
a(lp1048
g1005
ag1041
aaa(lp1049
I1435
aI1437
aS'job'
p1050
a(lp1051
g1041
ag1050
aaa(lp1052
I1435
aI1437
ag1050
a(lp1053
g1032
ag1050
aaa(lp1054
I1435
aI1437
ag1050
a(lp1055
g1023
ag1050
aaa(lp1056
I1435
aI1437
ag1050
a(lp1057
g1014
ag1050
aaa(lp1058
I1445
aI1449
aS'would'
p1059
a(lp1060
g1050
ag1059
aaa(lp1061
I1445
aI1449
ag1059
a(lp1062
g1041
ag1059
aaa(lp1063
I1445
aI1449
ag1059
a(lp1064
g1032
ag1059
aaa(lp1065
I1445
aI1449
ag1059
a(lp1066
g1023
ag1059
aaa(lp1067
I1456
aI1461
aS'duties'
p1068
a(lp1069
g1059
ag1068
aaa(lp1070
I1456
aI1461
ag1068
a(lp1071
g1050
ag1068
aaa(lp1072
I1456
aI1461
ag1068
a(lp1073
g1041
ag1068
aaa(lp1074
I1456
aI1461
ag1068
a(lp1075
g1032
ag1068
aaa(lp1076
I1483
aI1491
aS'questions'
p1077
a(lp1078
g1068
ag1077
aaa(lp1079
I1483
aI1491
ag1077
a(lp1080
g1059
ag1077
aaa(lp1081
I1483
aI1491
ag1077
a(lp1082
g1050
ag1077
aaa(lp1083
I1483
aI1491
ag1077
a(lp1084
g1041
ag1077
aaa(lp1085
I1494
aI1496
aS'try'
p1086
a(lp1087
g1077
ag1086
aaa(lp1088
I1494
aI1496
ag1086
a(lp1089
g1068
ag1086
aaa(lp1090
I1494
aI1496
ag1086
a(lp1091
g1059
ag1086
aaa(lp1092
I1494
aI1496
ag1086
a(lp1093
g1050
ag1086
aaa(lp1094
I1498
aI1504
aS'sending'
p1095
a(lp1096
g1086
ag1095
aaa(lp1097
I1498
aI1504
ag1095
a(lp1098
g1077
ag1095
aaa(lp1099
I1498
aI1504
ag1095
a(lp1100
g1068
ag1095
aaa(lp1101
I1498
aI1504
ag1095
a(lp1102
g1059
ag1095
aaa(lp1103
I1508
aI1512
aS'thank'
p1104
a(lp1105
g1095
ag1104
aaa(lp1106
I1508
aI1512
ag1104
a(lp1107
g1086
ag1104
aaa(lp1108
I1508
aI1512
ag1104
a(lp1109
g1077
ag1104
aaa(lp1110
I1508
aI1512
ag1104
a(lp1111
g1068
ag1104
aaa(lp1112
I1518
aI1523
aS'letter'
p1113
a(lp1114
g1104
ag1113
aaa(lp1115
I1518
aI1523
ag1113
a(lp1116
g1095
ag1113
aaa(lp1117
I1518
aI1523
ag1113
a(lp1118
g1086
ag1113
aaa(lp1119
I1518
aI1523
ag1113
a(lp1120
g1077
ag1113
aaa(lp1121
I1525
aI1526
aS'24'
p1122
a(lp1123
g1113
ag1122
aaa(lp1124
I1525
aI1526
ag1122
a(lp1125
g1104
ag1122
aaa(lp1126
I1525
aI1526
ag1122
a(lp1127
g1095
ag1122
aaa(lp1128
I1525
aI1526
ag1122
a(lp1129
g1086
ag1122
aaa(lp1130
I1528
aI1532
aS'hours'
p1131
a(lp1132
g1122
ag1131
aaa(lp1133
I1528
aI1532
ag1131
a(lp1134
g1113
ag1131
aaa(lp1135
I1528
aI1532
ag1131
a(lp1136
g1104
ag1131
aaa(lp1137
I1528
aI1532
ag1131
a(lp1138
g1095
ag1131
aaa(lp1139
I1544
aI1555
aS'interview\xa0'
p1140
a(lp1141
g1131
ag1140
aaa(lp1142
I1544
aI1555
ag1140
a(lp1143
g1122
ag1140
aaa(lp1144
I1544
aI1555
ag1140
a(lp1145
g1113
ag1140
aaa(lp1146
I1544
aI1555
ag1140
a(lp1147
g1104
ag1140
aaa(lp1148
I1557
aI1563
aS'chances'
p1149
a(lp1150
g1140
ag1149
aaa(lp1151
I1557
aI1563
ag1149
a(lp1152
g1131
ag1149
aaa(lp1153
I1557
aI1563
ag1149
a(lp1154
g1122
ag1149
aaa(lp1155
I1557
aI1563
ag1149
a(lp1156
g1113
ag1149
aaa(lp1157
I1569
aI1572
aS'youl'
p1158
a(lp1159
g1149
ag1158
aaa(lp1160
I1569
aI1572
ag1158
a(lp1161
g1140
ag1158
aaa(lp1162
I1569
aI1572
ag1158
a(lp1163
g1131
ag1158
aaa(lp1164
I1569
aI1572
ag1158
a(lp1165
g1122
ag1158
aaa(lp1166
I1574
aI1578
aS'stand'
p1167
a(lp1168
g1158
ag1167
aaa(lp1169
I1574
aI1578
ag1167
a(lp1170
g1149
ag1167
aaa(lp1171
I1574
aI1578
ag1167
a(lp1172
g1140
ag1167
aaa(lp1173
I1574
aI1578
ag1167
a(lp1174
g1131
ag1167
aaa(lp1175
I1593
aI1599
aS'crowdq'
p1176
a(lp1177
g1167
ag1176
aaa(lp1178
I1593
aI1599
ag1176
a(lp1179
g1158
ag1176
aaa(lp1180
I1593
aI1599
ag1176
a(lp1181
g1149
ag1176
aaa(lp1182
I1593
aI1599
ag1176
a(lp1183
g1140
ag1176
aaa(lp1184
I1629
aI1637
aS'interview'
p1185
a(lp1186
g1176
ag1185
aaa(lp1187
I1629
aI1637
ag1185
a(lp1188
g1167
ag1185
aaa(lp1189
I1629
aI1637
ag1185
a(lp1190
g1158
ag1185
aaa(lp1191
I1629
aI1637
ag1185
a(lp1192
g1149
ag1185
aaa(lp1193
I1629
aI1637
aS'\xa0'
p1194
a(lp1195
g1185
ag1194
aaa(lp1196
I1629
aI1637
ag1194
a(lp1197
g1176
ag1194
aaa(lp1198
I1629
aI1637
ag1194
a(lp1199
g1167
ag1194
aaa(lp1200
I1629
aI1637
ag1194
a(lp1201
g1158
ag1194
aaasS'wordMap'
p1202
(lp1203
(lp1204
I0
aI0
ag5
a(lp1205
(lp1206
I0
ag5
aaaa(lp1207
I3
aI6
aS'what'
p1208
a(lp1209
(lp1210
I3
aS'w'
p1211
aa(lp1212
I4
aS'h'
p1213
aa(lp1214
I5
aS'a'
p1215
aa(lp1216
I6
aS't'
p1217
aaaa(lp1218
I8
aI13
aS'should'
p1219
a(lp1220
(lp1221
I8
aS's'
p1222
aa(lp1223
I9
ag1213
aa(lp1224
I10
aS'o'
p1225
aa(lp1226
I11
aS'u'
p1227
aa(lp1228
I12
aS'l'
p1229
aa(lp1230
I13
aS'd'
p1231
aaaa(lp1232
I15
aI15
aS'i'
p1233
a(lp1234
(lp1235
I15
ag1233
aaaa(lp1236
I17
aI18
aS'do'
p1237
a(lp1238
(lp1239
I17
ag1231
aa(lp1240
I18
ag1225
aaaa(lp1241
I20
aI21
aS'to'
p1242
a(lp1243
(lp1244
I20
ag1217
aa(lp1245
I21
ag1225
aaaa(lp1246
I23
aI29
ag15
a(lp1247
(lp1248
I23
aS'p'
p1249
aa(lp1250
I24
aS'r'
p1251
aa(lp1252
I25
aS'e'
p1253
aa(lp1254
I26
ag1249
aa(lp1255
I27
ag1215
aa(lp1256
I28
ag1251
aa(lp1257
I29
ag1253
aaaa(lp1258
I31
aI33
aS'for'
p1259
a(lp1260
(lp1261
I31
aS'f'
p1262
aa(lp1263
I32
ag1225
aa(lp1264
I33
ag1251
aaaa(lp1265
I35
aI37
aS'the'
p1266
a(lp1267
(lp1268
I35
ag1217
aa(lp1269
I36
ag1213
aa(lp1270
I37
ag1253
aaaa(lp1271
I39
aI47
ag24
a(lp1272
(lp1273
I39
ag1233
aa(lp1274
I40
aS'n'
p1275
aa(lp1276
I41
ag1217
aa(lp1277
I42
ag1253
aa(lp1278
I43
ag1251
aa(lp1279
I44
aS'v'
p1280
aa(lp1281
I45
ag1233
aa(lp1282
I46
ag1253
aa(lp1283
I47
ag1211
aaaa(lp1284
I50
aI57
ag33
a(lp1285
(lp1286
I50
ag1251
aa(lp1287
I51
ag1253
aa(lp1288
I52
ag1222
aa(lp1289
I53
ag1253
aa(lp1290
I54
ag1215
aa(lp1291
I55
ag1251
aa(lp1292
I56
aS'c'
p1293
aa(lp1294
I57
ag1213
aaaa(lp1295
I59
aI61
aS'all'
p1296
a(lp1297
(lp1298
I59
ag1215
aa(lp1299
I60
ag1229
aa(lp1300
I61
ag1229
aaaa(lp1301
I63
aI65
aS'you'
p1302
a(lp1303
(lp1304
I63
aS'y'
p1305
aa(lp1306
I64
ag1225
aa(lp1307
I65
ag1227
aaaa(lp1308
I67
aI69
aS'can'
p1309
a(lp1310
(lp1311
I67
ag1293
aa(lp1312
I68
ag1215
aa(lp1313
I69
ag1275
aaaa(lp1314
I71
aI75
aS'about'
p1315
a(lp1316
(lp1317
I71
ag1215
aa(lp1318
I72
aS'b'
p1319
aa(lp1320
I73
ag1225
aa(lp1321
I74
ag1227
aa(lp1322
I75
ag1217
aaaa(lp1323
I77
aI79
aS'the'
p1324
a(lp1325
(lp1326
I77
ag1217
aa(lp1327
I78
ag1213
aa(lp1328
I79
ag1253
aaaa(lp1329
I81
aI88
ag42
a(lp1330
(lp1331
I81
ag1253
aa(lp1332
I82
aS'm'
p1333
aa(lp1334
I83
ag1249
aa(lp1335
I84
ag1229
aa(lp1336
I85
ag1225
aa(lp1337
I86
ag1305
aa(lp1338
I87
ag1253
aa(lp1339
I88
ag1251
aaaa(lp1340
I90
aI96
ag51
a(lp1341
(lp1342
I90
ag1249
aa(lp1343
I91
ag1251
aa(lp1344
I92
ag1253
aa(lp1345
I93
ag1249
aa(lp1346
I94
ag1215
aa(lp1347
I95
ag1251
aa(lp1348
I96
ag1253
aaaa(lp1349
I98
aI98
ag1215
a(lp1350
(lp1351
I98
ag1215
aaaa(lp1352
I100
aI103
ag60
a(lp1353
(lp1354
I100
ag1275
aa(lp1355
I101
ag1253
aa(lp1356
I102
ag1215
aa(lp1357
I103
ag1217
aaaa(lp1358
I105
aI110
ag69
a(lp1359
(lp1360
I105
ag1262
aa(lp1361
I106
ag1225
aa(lp1362
I107
ag1229
aa(lp1363
I108
ag1231
aa(lp1364
I109
ag1253
aa(lp1365
I110
ag1251
aaaa(lp1366
I112
aI121
ag78
a(lp1367
(lp1368
I112
ag1293
aa(lp1369
I113
ag1225
aa(lp1370
I114
ag1275
aa(lp1371
I115
ag1217
aa(lp1372
I116
ag1215
aa(lp1373
I117
ag1233
aa(lp1374
I118
ag1275
aa(lp1375
I119
ag1233
aa(lp1376
I120
ag1275
aa(lp1377
I121
aS'g'
p1378
aaaa(lp1379
I123
aI126
aS'your'
p1380
a(lp1381
(lp1382
I123
ag1305
aa(lp1383
I124
ag1225
aa(lp1384
I125
ag1227
aa(lp1385
I126
ag1251
aaaa(lp1386
I128
aI133
ag87
a(lp1387
(lp1388
I128
ag1251
aa(lp1389
I129
ag1253
aa(lp1390
I130
ag1222
aa(lp1391
I131
ag1227
aa(lp1392
I132
ag1333
aa(lp1393
I133
ag1253
aaaa(lp1394
I136
aI147
ag96
a(lp1395
(lp1396
I136
ag1293
aa(lp1397
I137
ag1253
aa(lp1398
I138
ag1251
aa(lp1399
I139
ag1217
aa(lp1400
I140
ag1233
aa(lp1401
I141
ag1262
aa(lp1402
I142
ag1233
aa(lp1403
I143
ag1293
aa(lp1404
I144
ag1215
aa(lp1405
I145
ag1217
aa(lp1406
I146
ag1253
aa(lp1407
I147
ag1222
aaaa(lp1408
I150
aI159
ag105
a(lp1409
(lp1410
I150
ag1251
aa(lp1411
I151
ag1253
aa(lp1412
I152
ag1262
aa(lp1413
I153
ag1253
aa(lp1414
I154
ag1251
aa(lp1415
I155
ag1253
aa(lp1416
I156
ag1275
aa(lp1417
I157
ag1293
aa(lp1418
I158
ag1253
aa(lp1419
I159
ag1222
aaaa(lp1420
I162
aI164
ag114
a(lp1421
(lp1422
I162
ag1253
aa(lp1423
I163
ag1217
aa(lp1424
I164
ag1293
aaaa(lp1425
I167
aI171
ag123
a(lp1426
(lp1427
I167
ag1231
aa(lp1428
I168
ag1251
aa(lp1429
I169
ag1253
aa(lp1430
I170
ag1222
aa(lp1431
I171
ag1222
aaaa(lp1432
I173
aI185
ag132
a(lp1433
(lp1434
I173
ag1215
aa(lp1435
I174
ag1249
aa(lp1436
I175
ag1249
aa(lp1437
I176
ag1251
aa(lp1438
I177
ag1225
aa(lp1439
I178
ag1249
aa(lp1440
I179
ag1251
aa(lp1441
I180
ag1233
aa(lp1442
I181
ag1215
aa(lp1443
I182
ag1217
aa(lp1444
I183
ag1253
aa(lp1445
I184
ag1229
aa(lp1446
I185
ag1305
aaaa(lp1447
I187
aI189
aS'and'
p1448
a(lp1449
(lp1450
I187
ag1215
aa(lp1451
I188
ag1275
aa(lp1452
I189
ag1231
aaaa(lp1453
I191
aI196
ag141
a(lp1454
(lp1455
I191
ag1253
aa(lp1456
I192
ag1275
aa(lp1457
I193
ag1222
aa(lp1458
I194
ag1227
aa(lp1459
I195
ag1251
aa(lp1460
I196
ag1253
aaaa(lp1461
I198
aI198
ag1215
a(lp1462
(lp1463
I198
ag1215
aaaa(lp1464
I200
aI203
ag150
a(lp1465
(lp1466
I200
ag1213
aa(lp1467
I201
ag1233
aa(lp1468
I202
ag1378
aa(lp1469
I203
ag1213
aaaa(lp1470
I205
aI209
ag159
a(lp1471
(lp1472
I205
ag1229
aa(lp1473
I206
ag1253
aa(lp1474
I207
ag1280
aa(lp1475
I208
ag1253
aa(lp1476
I209
ag1229
aaaa(lp1477
I211
aI212
aS'of'
p1478
a(lp1479
(lp1480
I211
ag1225
aa(lp1481
I212
ag1262
aaaa(lp1482
I214
aI220
ag168
a(lp1483
(lp1484
I214
ag1213
aa(lp1485
I215
ag1305
aa(lp1486
I216
ag1378
aa(lp1487
I217
ag1233
aa(lp1488
I218
ag1253
aa(lp1489
I219
ag1275
aa(lp1490
I220
ag1253
aaaa(lp1491
I222
aI223
aS'if'
p1492
a(lp1493
(lp1494
I222
ag1233
aa(lp1495
I223
ag1262
aaaa(lp1496
I225
aI227
aS'you'
p1497
a(lp1498
(lp1499
I225
ag1305
aa(lp1500
I226
ag1225
aa(lp1501
I227
ag1227
aaaa(lp1502
I229
aI231
aS'are'
p1503
a(lp1504
(lp1505
I229
ag1215
aa(lp1506
I230
ag1251
aa(lp1507
I231
ag1253
aaaa(lp1508
I233
aI233
ag1215
a(lp1509
(lp1510
I233
ag1215
aaaa(lp1511
I235
aI240
ag177
a(lp1512
(lp1513
I235
ag1222
aa(lp1514
I236
ag1333
aa(lp1515
I237
ag1225
aa(lp1516
I238
aS'k'
p1517
aa(lp1518
I239
ag1253
aa(lp1519
I240
ag1251
aaaa(lp1520
I243
aI247
ag186
a(lp1521
(lp1522
I243
ag1215
aa(lp1523
I244
ag1280
aa(lp1524
I245
ag1225
aa(lp1525
I246
ag1233
aa(lp1526
I247
ag1231
aaaa(lp1527
I249
aI255
ag195
a(lp1528
(lp1529
I249
ag1222
aa(lp1530
I250
ag1333
aa(lp1531
I251
ag1225
aa(lp1532
I252
ag1517
aa(lp1533
I253
ag1233
aa(lp1534
I254
ag1275
aa(lp1535
I255
ag1378
aaaa(lp1536
I257
aI259
aS'for'
p1537
a(lp1538
(lp1539
I257
ag1262
aa(lp1540
I258
ag1225
aa(lp1541
I259
ag1251
aaaa(lp1542
I261
aI262
aS'as'
p1543
a(lp1544
(lp1545
I261
ag1215
aa(lp1546
I262
ag1222
aaaa(lp1547
I264
aI267
ag204
a(lp1548
(lp1549
I264
ag1229
aa(lp1550
I265
ag1225
aa(lp1551
I266
ag1275
aa(lp1552
I267
ag1378
aaaa(lp1553
I269
aI270
aS'as'
p1554
a(lp1555
(lp1556
I269
ag1215
aa(lp1557
I270
ag1222
aaaa(lp1558
I272
aI279
ag213
a(lp1559
(lp1560
I272
ag1249
aa(lp1561
I273
ag1225
aa(lp1562
I274
ag1222
aa(lp1563
I275
ag1222
aa(lp1564
I276
ag1233
aa(lp1565
I277
ag1319
aa(lp1566
I278
ag1229
aa(lp1567
I279
ag1253
aaaa(lp1568
I281
aI291
ag222
a(lp1569
(lp1570
I281
ag1233
aa(lp1571
I282
ag1333
aa(lp1572
I283
ag1333
aa(lp1573
I284
ag1253
aa(lp1574
I285
ag1231
aa(lp1575
I286
ag1233
aa(lp1576
I287
ag1215
aa(lp1577
I288
ag1217
aa(lp1578
I289
ag1253
aa(lp1579
I290
ag1229
aa(lp1580
I291
ag1305
aaaa(lp1581
I293
aI297
ag231
a(lp1582
(lp1583
I293
ag1249
aa(lp1584
I294
ag1251
aa(lp1585
I295
ag1233
aa(lp1586
I296
ag1225
aa(lp1587
I297
ag1251
aaaa(lp1588
I299
aI300
aS'to'
p1589
a(lp1590
(lp1591
I299
ag1217
aa(lp1592
I300
ag1225
aaaa(lp1593
I302
aI305
aS'your'
p1594
a(lp1595
(lp1596
I302
ag1305
aa(lp1597
I303
ag1225
aa(lp1598
I304
ag1227
aa(lp1599
I305
ag1251
aaaa(lp1600
I307
aI315
ag240
a(lp1601
(lp1602
I307
ag1233
aa(lp1603
I308
ag1275
aa(lp1604
I309
ag1217
aa(lp1605
I310
ag1253
aa(lp1606
I311
ag1251
aa(lp1607
I312
ag1280
aa(lp1608
I313
ag1233
aa(lp1609
I314
ag1253
aa(lp1610
I315
ag1211
aaaa(lp1611
I317
aI322
ag249
a(lp1612
(lp1613
I317
ag1215
aa(lp1614
I318
ag1251
aa(lp1615
I319
ag1251
aa(lp1616
I320
ag1233
aa(lp1617
I321
ag1280
aa(lp1618
I322
ag1253
aaaa(lp1619
I324
aI325
ag258
a(lp1620
(lp1621
I324
aS'1'
p1622
aa(lp1623
I325
aS'5'
p1624
aaaa(lp1625
I327
aI333
ag267
a(lp1626
(lp1627
I327
ag1333
aa(lp1628
I328
ag1233
aa(lp1629
I329
ag1275
aa(lp1630
I330
ag1227
aa(lp1631
I331
ag1217
aa(lp1632
I332
ag1253
aa(lp1633
I333
ag1222
aaaa(lp1634
I335
aI339
ag276
a(lp1635
(lp1636
I335
ag1253
aa(lp1637
I336
ag1215
aa(lp1638
I337
ag1251
aa(lp1639
I338
ag1229
aa(lp1640
I339
ag1305
aaaa(lp1641
I341
aI348
ag285
a(lp1642
(lp1643
I341
ag1251
aa(lp1644
I342
ag1253
aa(lp1645
I343
ag1213
aa(lp1646
I344
ag1253
aa(lp1647
I345
ag1215
aa(lp1648
I346
ag1251
aa(lp1649
I347
ag1222
aa(lp1650
I348
ag1253
aaaa(lp1651
I350
aI356
ag294
a(lp1652
(lp1653
I350
ag1215
aa(lp1654
I351
ag1275
aa(lp1655
I352
ag1222
aa(lp1656
I353
ag1211
aa(lp1657
I354
ag1253
aa(lp1658
I355
ag1251
aa(lp1659
I356
ag1222
aaaa(lp1660
I358
aI359
aS'to'
p1661
a(lp1662
(lp1663
I358
ag1217
aa(lp1664
I359
ag1225
aaaa(lp1665
I361
aI366
ag303
a(lp1666
(lp1667
I361
ag1229
aa(lp1668
I362
ag1233
aa(lp1669
I363
ag1517
aa(lp1670
I364
ag1253
aa(lp1671
I365
ag1229
aa(lp1672
I366
ag1305
aaaa(lp1673
I368
aI376
ag312
a(lp1674
(lp1675
I368
ag1233
aa(lp1676
I369
ag1275
aa(lp1677
I370
ag1217
aa(lp1678
I371
ag1253
aa(lp1679
I372
ag1251
aa(lp1680
I373
ag1280
aa(lp1681
I374
ag1233
aa(lp1682
I375
ag1253
aa(lp1683
I376
ag1211
aaaa(lp1684
I378
aI386
ag321
a(lp1685
(lp1686
I378
ag5
aa(lp1687
I379
ag1227
aa(lp1688
I380
ag1253
aa(lp1689
I381
ag1222
aa(lp1690
I382
ag1217
aa(lp1691
I383
ag1233
aa(lp1692
I384
ag1225
aa(lp1693
I385
ag1275
aa(lp1694
I386
ag1222
aaaa(lp1695
I388
aI395
ag330
a(lp1696
(lp1697
I388
ag1251
aa(lp1698
I389
ag1253
aa(lp1699
I390
ag1213
aa(lp1700
I391
ag1253
aa(lp1701
I392
ag1215
aa(lp1702
I393
ag1251
aa(lp1703
I394
ag1222
aa(lp1704
I395
ag1253
aaaa(lp1705
I397
aI399
aS'the'
p1706
a(lp1707
(lp1708
I397
ag1217
aa(lp1709
I398
ag1213
aa(lp1710
I399
ag1253
aaaa(lp1711
I401
aI409
ag339
a(lp1712
(lp1713
I401
ag5
aa(lp1714
I402
ag1227
aa(lp1715
I403
ag1253
aa(lp1716
I404
ag1222
aa(lp1717
I405
ag1217
aa(lp1718
I406
ag1233
aa(lp1719
I407
ag1225
aa(lp1720
I408
ag1275
aa(lp1721
I409
ag1222
aaaa(lp1722
I411
aI413
aS'you'
p1723
a(lp1724
(lp1725
I411
ag1305
aa(lp1726
I412
ag1225
aa(lp1727
I413
ag1227
aaaa(lp1728
I415
aI418
ag348
a(lp1729
(lp1730
I415
ag1211
aa(lp1731
I416
ag1215
aa(lp1732
I417
ag1275
aa(lp1733
I418
ag1217
aaaa(lp1734
I420
aI421
aS'to'
p1735
a(lp1736
(lp1737
I420
ag1217
aa(lp1738
I421
ag1225
aaaa(lp1739
I423
aI425
ag357
a(lp1740
(lp1741
I423
ag1215
aa(lp1742
I424
ag1222
aa(lp1743
I425
ag1517
aaaa(lp1744
I427
aI429
aS'the'
p1745
a(lp1746
(lp1747
I427
ag1217
aa(lp1748
I428
ag1213
aa(lp1749
I429
ag1253
aaaa(lp1750
I431
aI438
ag366
a(lp1751
(lp1752
I431
ag1253
aa(lp1753
I432
ag1333
aa(lp1754
I433
ag1249
aa(lp1755
I434
ag1229
aa(lp1756
I435
ag1225
aa(lp1757
I436
ag1305
aa(lp1758
I437
ag1253
aa(lp1759
I438
ag1251
aaaa(lp1760
I440
aI444
ag375
a(lp1761
(lp1762
I440
ag1231
aa(lp1763
I441
ag1251
aa(lp1764
I442
ag1253
aa(lp1765
I443
ag1222
aa(lp1766
I444
ag1222
aaaa(lp1767
I446
aI458
ag384
a(lp1768
(lp1769
I446
ag1215
aa(lp1770
I447
ag1249
aa(lp1771
I448
ag1249
aa(lp1772
I449
ag1251
aa(lp1773
I450
ag1225
aa(lp1774
I451
ag1249
aa(lp1775
I452
ag1251
aa(lp1776
I453
ag1233
aa(lp1777
I454
ag1215
aa(lp1778
I455
ag1217
aa(lp1779
I456
ag1253
aa(lp1780
I457
ag1229
aa(lp1781
I458
ag1305
aaaa(lp1782
I460
aI462
aS'for'
p1783
a(lp1784
(lp1785
I460
ag1262
aa(lp1786
I461
ag1225
aa(lp1787
I462
ag1251
aaaa(lp1788
I464
aI466
aS'the'
p1789
a(lp1790
(lp1791
I464
ag1217
aa(lp1792
I465
ag1213
aa(lp1793
I466
ag1253
aaaa(lp1794
I468
aI475
ag393
a(lp1795
(lp1796
I468
ag1249
aa(lp1797
I469
ag1225
aa(lp1798
I470
ag1222
aa(lp1799
I471
ag1233
aa(lp1800
I472
ag1217
aa(lp1801
I473
ag1233
aa(lp1802
I474
ag1225
aa(lp1803
I475
ag1275
aaaa(lp1804
I477
aI479
aS'and'
p1805
a(lp1806
(lp1807
I477
ag1215
aa(lp1808
I478
ag1275
aa(lp1809
I479
ag1231
aaaa(lp1810
I481
aI488
ag402
a(lp1811
(lp1812
I481
ag1233
aa(lp1813
I482
ag1275
aa(lp1814
I483
ag1231
aa(lp1815
I484
ag1227
aa(lp1816
I485
ag1222
aa(lp1817
I486
ag1217
aa(lp1818
I487
ag1251
aa(lp1819
I488
ag1305
aaaa(lp1820
I490
aI492
aS'and'
p1821
a(lp1822
(lp1823
I490
ag1215
aa(lp1824
I491
ag1275
aa(lp1825
I492
ag1231
aaaa(lp1826
I494
aI499
ag411
a(lp1827
(lp1828
I494
ag1253
aa(lp1829
I495
ag1275
aa(lp1830
I496
ag1222
aa(lp1831
I497
ag1227
aa(lp1832
I498
ag1251
aa(lp1833
I499
ag1253
aaaa(lp1834
I501
aI501
ag1215
a(lp1835
(lp1836
I501
ag1215
aaaa(lp1837
I503
aI506
ag420
a(lp1838
(lp1839
I503
ag1213
aa(lp1840
I504
ag1233
aa(lp1841
I505
ag1378
aa(lp1842
I506
ag1213
aaaa(lp1843
I508
aI512
ag429
a(lp1844
(lp1845
I508
ag1229
aa(lp1846
I509
ag1253
aa(lp1847
I510
ag1280
aa(lp1848
I511
ag1253
aa(lp1849
I512
ag1229
aaaa(lp1850
I514
aI515
aS'of'
p1851
a(lp1852
(lp1853
I514
ag1225
aa(lp1854
I515
ag1262
aaaa(lp1855
I517
aI524
ag438
a(lp1856
(lp1857
I517
ag1213
aa(lp1858
I518
ag1305
aa(lp1859
I519
ag1378
aa(lp1860
I520
ag1233
aa(lp1861
I521
ag1253
aa(lp1862
I522
ag1275
aa(lp1863
I523
ag1253
aa(lp1864
I524
ag5
aaaa(lp1865
I527
aI530
aS'what'
p1866
a(lp1867
(lp1868
I527
ag1211
aa(lp1869
I528
ag1213
aa(lp1870
I529
ag1215
aa(lp1871
I530
ag1217
aaaa(lp1872
I532
aI537
aS'should'
p1873
a(lp1874
(lp1875
I532
ag1222
aa(lp1876
I533
ag1213
aa(lp1877
I534
ag1225
aa(lp1878
I535
ag1227
aa(lp1879
I536
ag1229
aa(lp1880
I537
ag1231
aaaa(lp1881
I539
aI539
ag1233
a(lp1882
(lp1883
I539
ag1233
aaaa(lp1884
I541
aI544
ag447
a(lp1885
(lp1886
I541
ag1211
aa(lp1887
I542
ag1253
aa(lp1888
I543
ag1215
aa(lp1889
I544
ag1251
aaaa(lp1890
I546
aI547
aS'to'
p1891
a(lp1892
(lp1893
I546
ag1217
aa(lp1894
I547
ag1225
aaaa(lp1895
I549
aI551
aS'the'
p1896
a(lp1897
(lp1898
I549
ag1217
aa(lp1899
I550
ag1213
aa(lp1900
I551
ag1253
aaaa(lp1901
I553
aI561
ag456
a(lp1902
(lp1903
I553
ag1233
aa(lp1904
I554
ag1275
aa(lp1905
I555
ag1217
aa(lp1906
I556
ag1253
aa(lp1907
I557
ag1251
aa(lp1908
I558
ag1280
aa(lp1909
I559
ag1233
aa(lp1910
I560
ag1253
aa(lp1911
I561
ag1211
aaaa(lp1912
I564
aI565
aS'be'
p1913
a(lp1914
(lp1915
I564
ag1319
aa(lp1916
I565
ag1253
aaaa(lp1917
I567
aI570
ag465
a(lp1918
(lp1919
I567
ag1222
aa(lp1920
I568
ag1227
aa(lp1921
I569
ag1251
aa(lp1922
I570
ag1253
aaaa(lp1923
I572
aI573
aS'to'
p1924
a(lp1925
(lp1926
I572
ag1217
aa(lp1927
I573
ag1225
aaaa(lp1928
I575
aI579
ag474
a(lp1929
(lp1930
I575
ag1319
aa(lp1931
I576
ag1251
aa(lp1932
I577
ag1233
aa(lp1933
I578
ag1275
aa(lp1934
I579
ag1378
aaaa(lp1935
I581
aI581
ag1215
a(lp1936
(lp1937
I581
ag1215
aaaa(lp1938
I583
aI586
ag483
a(lp1939
(lp1940
I583
ag1293
aa(lp1941
I584
ag1225
aa(lp1942
I585
ag1249
aa(lp1943
I586
ag1305
aaaa(lp1944
I588
aI589
aS'of'
p1945
a(lp1946
(lp1947
I588
ag1225
aa(lp1948
I589
ag1262
aaaa(lp1949
I591
aI594
aS'your'
p1950
a(lp1951
(lp1952
I591
ag1305
aa(lp1953
I592
ag1225
aa(lp1954
I593
ag1227
aa(lp1955
I594
ag1251
aaaa(lp1956
I596
aI601
ag492
a(lp1957
(lp1958
I596
ag1251
aa(lp1959
I597
ag1253
aa(lp1960
I598
ag1222
aa(lp1961
I599
ag1227
aa(lp1962
I600
ag1333
aa(lp1963
I601
ag1253
aaaa(lp1964
I603
aI605
aS'and'
p1965
a(lp1966
(lp1967
I603
ag1215
aa(lp1968
I604
ag1275
aa(lp1969
I605
ag1231
aaaa(lp1970
I607
aI619
ag501
a(lp1971
(lp1972
I607
ag1251
aa(lp1973
I608
ag1253
aa(lp1974
I609
ag1262
aa(lp1975
I610
ag1253
aa(lp1976
I611
ag1251
aa(lp1977
I612
ag1253
aa(lp1978
I613
ag1275
aa(lp1979
I614
ag1293
aa(lp1980
I615
ag1253
aa(lp1981
I616
ag1222
aa(lp1982
I619
ag1194
aaaa(lp1983
I621
aI622
aS'it'
p1984
a(lp1985
(lp1986
I621
ag1233
aa(lp1987
I622
ag1217
aaaa(lp1988
I624
aI625
aS'is'
p1989
a(lp1990
(lp1991
I624
ag1233
aa(lp1992
I625
ag1222
aaaa(lp1993
I627
aI632
ag510
a(lp1994
(lp1995
I627
ag1215
aa(lp1996
I628
ag1229
aa(lp1997
I629
ag1211
aa(lp1998
I630
ag1215
aa(lp1999
I631
ag1305
aa(lp2000
I632
ag1222
aaaa(lp2001
I634
aI640
ag519
a(lp2002
(lp2003
I634
ag1213
aa(lp2004
I635
ag1253
aa(lp2005
I636
ag1229
aa(lp2006
I637
ag1249
aa(lp2007
I638
ag1262
aa(lp2008
I639
ag1227
aa(lp2009
I640
ag1229
aaaa(lp2010
I642
aI643
aS'to'
p2011
a(lp2012
(lp2013
I642
ag1217
aa(lp2014
I643
ag1225
aaaa(lp2015
I645
aI647
aS'the'
p2016
a(lp2017
(lp2018
I645
ag1217
aa(lp2019
I646
ag1213
aa(lp2020
I647
ag1253
aaaa(lp2021
I649
aI656
ag528
a(lp2022
(lp2023
I649
ag1253
aa(lp2024
I650
ag1333
aa(lp2025
I651
ag1249
aa(lp2026
I652
ag1229
aa(lp2027
I653
ag1225
aa(lp2028
I654
ag1305
aa(lp2029
I655
ag1253
aa(lp2030
I656
ag1251
aaaa(lp2031
I658
aI659
aS'to'
p2032
a(lp2033
(lp2034
I658
ag1217
aa(lp2035
I659
ag1225
aaaa(lp2036
I661
aI664
ag537
a(lp2037
(lp2038
I661
ag1215
aa(lp2039
I662
ag1229
aa(lp2040
I663
ag1222
aa(lp2041
I664
ag1225
aaaa(lp2042
I666
aI668
ag546
a(lp2043
(lp2044
I666
ag1222
aa(lp2045
I667
ag1253
aa(lp2046
I668
ag1253
aaaa(lp2047
I670
aI675
ag555
a(lp2048
(lp2049
I670
ag1293
aa(lp2050
I671
ag1225
aa(lp2051
I672
ag1249
aa(lp2052
I673
ag1233
aa(lp2053
I674
ag1253
aa(lp2054
I675
ag1222
aaaa(lp2055
I677
aI678
aS'of'
p2056
a(lp2057
(lp2058
I677
ag1225
aa(lp2059
I678
ag1262
aaaa(lp2060
I680
aI682
aS'any'
p2061
a(lp2062
(lp2063
I680
ag1215
aa(lp2064
I681
ag1275
aa(lp2065
I682
ag1305
aaaa(lp2066
I684
aI695
ag564
a(lp2067
(lp2068
I684
ag1293
aa(lp2069
I685
ag1253
aa(lp2070
I686
ag1251
aa(lp2071
I687
ag1217
aa(lp2072
I688
ag1233
aa(lp2073
I689
ag1262
aa(lp2074
I690
ag1233
aa(lp2075
I691
ag1293
aa(lp2076
I692
ag1215
aa(lp2077
I693
ag1217
aa(lp2078
I694
ag1253
aa(lp2079
I695
ag1222
aaaa(lp2080
I697
aI698
aS'of'
p2081
a(lp2082
(lp2083
I697
ag1225
aa(lp2084
I698
ag1262
aaaa(lp2085
I700
aI710
ag573
a(lp2086
(lp2087
I700
ag1215
aa(lp2088
I701
ag1293
aa(lp2089
I702
ag1213
aa(lp2090
I703
ag1233
aa(lp2091
I704
ag1253
aa(lp2092
I705
ag1280
aa(lp2093
I706
ag1253
aa(lp2094
I707
ag1333
aa(lp2095
I708
ag1253
aa(lp2096
I709
ag1275
aa(lp2097
I710
ag1217
aaaa(lp2098
I712
aI713
aS'or'
p2099
a(lp2100
(lp2101
I712
ag1225
aa(lp2102
I713
ag1251
aaaa(lp2103
I715
aI727
ag582
a(lp2104
(lp2105
I715
ag5
aa(lp2106
I716
ag1227
aa(lp2107
I717
ag1215
aa(lp2108
I718
ag1229
aa(lp2109
I719
ag1233
aa(lp2110
I720
ag1262
aa(lp2111
I721
ag1233
aa(lp2112
I722
ag1293
aa(lp2113
I723
ag1215
aa(lp2114
I724
ag1217
aa(lp2115
I725
ag1233
aa(lp2116
I726
ag1225
aa(lp2117
I727
ag1275
aaaa(lp2118
I729
aI740
ag591
a(lp2119
(lp2120
I729
ag1293
aa(lp2121
I730
ag1253
aa(lp2122
I731
ag1251
aa(lp2123
I732
ag1217
aa(lp2124
I733
ag1233
aa(lp2125
I734
ag1262
aa(lp2126
I735
ag1233
aa(lp2127
I736
ag1293
aa(lp2128
I737
ag1215
aa(lp2129
I738
ag1217
aa(lp2130
I739
ag1253
aa(lp2131
I740
ag1222
aaaa(lp2132
I742
aI744
aS'you'
p2133
a(lp2134
(lp2135
I742
ag1305
aa(lp2136
I743
ag1225
aa(lp2137
I744
ag1227
aaaa(lp2138
I746
aI748
ag600
a(lp2139
(lp2140
I746
ag1333
aa(lp2141
I747
ag1215
aa(lp2142
I748
ag1305
aaaa(lp2143
I750
aI755
ag609
a(lp2144
(lp2145
I750
ag1213
aa(lp2146
I751
ag1215
aa(lp2147
I752
ag1280
aa(lp2148
I753
ag1253
aa(lp2149
I755
ag5
aaaa(lp2150
I758
aI763
aS'should'
p2151
a(lp2152
(lp2153
I758
ag1222
aa(lp2154
I759
ag1213
aa(lp2155
I760
ag1225
aa(lp2156
I761
ag1227
aa(lp2157
I762
ag1229
aa(lp2158
I763
ag1231
aaaa(lp2159
I765
aI765
ag1233
a(lp2160
(lp2161
I765
ag1233
aaaa(lp2162
I767
aI771
ag618
a(lp2163
(lp2164
I767
ag1319
aa(lp2165
I768
ag1251
aa(lp2166
I769
ag1233
aa(lp2167
I770
ag1275
aa(lp2168
I771
ag1378
aaaa(lp2169
I773
aI780
ag627
a(lp2170
(lp2171
I773
ag1215
aa(lp2172
I774
ag1275
aa(lp2173
I775
ag1305
aa(lp2174
I776
ag1217
aa(lp2175
I777
ag1213
aa(lp2176
I778
ag1233
aa(lp2177
I779
ag1275
aa(lp2178
I780
ag1378
aaaa(lp2179
I782
aI783
aS'to'
p2180
a(lp2181
(lp2182
I782
ag1217
aa(lp2183
I783
ag1225
aaaa(lp2184
I785
aI787
aS'the'
p2185
a(lp2186
(lp2187
I785
ag1217
aa(lp2188
I786
ag1213
aa(lp2189
I787
ag1253
aaaa(lp2190
I789
aI797
ag636
a(lp2191
(lp2192
I789
ag1233
aa(lp2193
I790
ag1275
aa(lp2194
I791
ag1217
aa(lp2195
I792
ag1253
aa(lp2196
I793
ag1251
aa(lp2197
I794
ag1280
aa(lp2198
I795
ag1233
aa(lp2199
I796
ag1253
aa(lp2200
I797
ag1211
aaaa(lp2201
I800
aI804
aS'these'
p2202
a(lp2203
(lp2204
I800
ag1217
aa(lp2205
I801
ag1213
aa(lp2206
I802
ag1253
aa(lp2207
I803
ag1222
aa(lp2208
I804
ag1253
aaaa(lp2209
I806
aI808
aS'are'
p2210
a(lp2211
(lp2212
I806
ag1215
aa(lp2213
I807
ag1251
aa(lp2214
I808
ag1253
aaaa(lp2215
I810
aI812
aS'the'
p2216
a(lp2217
(lp2218
I810
ag1217
aa(lp2219
I811
ag1213
aa(lp2220
I812
ag1253
aaaa(lp2221
I814
aI818
ag645
a(lp2222
(lp2223
I814
ag1222
aa(lp2224
I815
ag1225
aa(lp2225
I816
ag1251
aa(lp2226
I817
ag1217
aa(lp2227
I818
ag1222
aaaa(lp2228
I820
aI821
aS'of'
p2229
a(lp2230
(lp2231
I820
ag1225
aa(lp2232
I821
ag1262
aaaa(lp2233
I823
aI831
ag654
a(lp2234
(lp2235
I823
ag5
aa(lp2236
I824
ag1227
aa(lp2237
I825
ag1253
aa(lp2238
I826
ag1222
aa(lp2239
I827
ag1217
aa(lp2240
I828
ag1233
aa(lp2241
I829
ag1225
aa(lp2242
I830
ag1275
aa(lp2243
I831
ag1222
aaaa(lp2244
I833
aI835
aS'you'
p2245
a(lp2246
(lp2247
I833
ag1305
aa(lp2248
I834
ag1225
aa(lp2249
I835
ag1227
aaaa(lp2250
I837
aI839
aS'can'
p2251
a(lp2252
(lp2253
I837
ag1293
aa(lp2254
I838
ag1215
aa(lp2255
I839
ag1275
aaaa(lp2256
I841
aI846
ag663
a(lp2257
(lp2258
I841
ag1253
aa(lp2259
I842
aS'x'
p2260
aa(lp2261
I843
ag1249
aa(lp2262
I844
ag1253
aa(lp2263
I845
ag1293
aa(lp2264
I846
ag1217
aaaa(lp2265
I848
aI851
aS'when'
p2266
a(lp2267
(lp2268
I848
ag1211
aa(lp2269
I849
ag1213
aa(lp2270
I850
ag1253
aa(lp2271
I851
ag1275
aaaa(lp2272
I853
aI855
aS'you'
p2273
a(lp2274
(lp2275
I853
ag1305
aa(lp2276
I854
ag1225
aa(lp2277
I855
ag1227
aaaa(lp2278
I857
aI862
ag672
a(lp2279
(lp2280
I857
ag1215
aa(lp2281
I858
ag1217
aa(lp2282
I859
ag1217
aa(lp2283
I860
ag1253
aa(lp2284
I861
ag1275
aa(lp2285
I862
ag1231
aaaa(lp2286
I864
aI864
ag1215
a(lp2287
(lp2288
I864
ag1215
aaaa(lp2289
I866
aI868
ag681
a(lp2290
(lp2291
I866
aS'j'
p2292
aa(lp2293
I867
ag1225
aa(lp2294
I868
ag1319
aaaa(lp2295
I870
aI878
ag690
a(lp2296
(lp2297
I870
ag1233
aa(lp2298
I871
ag1275
aa(lp2299
I872
ag1217
aa(lp2300
I873
ag1253
aa(lp2301
I874
ag1251
aa(lp2302
I875
ag1280
aa(lp2303
I876
ag1233
aa(lp2304
I877
ag1253
aa(lp2305
I878
ag1211
aaaa(lp2306
I881
aI882
aS'it'
p2307
a(lp2308
(lp2309
I881
ag1233
aa(lp2310
I882
ag1217
aaaa(lp2311
I884
aI884
ag1215
a(lp2312
(lp2313
I884
ag1215
aaaa(lp2314
I886
aI889
ag699
a(lp2315
(lp2316
I886
ag1378
aa(lp2317
I887
ag1225
aa(lp2318
I888
ag1225
aa(lp2319
I889
ag1231
aaaa(lp2320
I891
aI894
ag708
a(lp2321
(lp2322
I891
ag1233
aa(lp2323
I892
ag1231
aa(lp2324
I893
ag1253
aa(lp2325
I894
ag1215
aaaa(lp2326
I896
aI897
aS'to'
p2327
a(lp2328
(lp2329
I896
ag1217
aa(lp2330
I897
ag1225
aaaa(lp2331
I899
aI903
ag717
a(lp2332
(lp2333
I899
ag1211
aa(lp2334
I900
ag1251
aa(lp2335
I901
ag1233
aa(lp2336
I902
ag1217
aa(lp2337
I903
ag1253
aaaa(lp2338
I905
aI908
aS'down'
p2339
a(lp2340
(lp2341
I905
ag1231
aa(lp2342
I906
ag1225
aa(lp2343
I907
ag1211
aa(lp2344
I908
ag1275
aaaa(lp2345
I910
aI916
ag726
a(lp2346
(lp2347
I910
ag1215
aa(lp2348
I911
ag1275
aa(lp2349
I912
ag1222
aa(lp2350
I913
ag1211
aa(lp2351
I914
ag1253
aa(lp2352
I915
ag1251
aa(lp2353
I916
ag1222
aaaa(lp2354
I918
aI919
aS'to'
p2355
a(lp2356
(lp2357
I918
ag1217
aa(lp2358
I919
ag1225
aaaa(lp2359
I921
aI925
aS'these'
p2360
a(lp2361
(lp2362
I921
ag1217
aa(lp2363
I922
ag1213
aa(lp2364
I923
ag1253
aa(lp2365
I924
ag1222
aa(lp2366
I925
ag1253
aaaa(lp2367
I927
aI935
ag735
a(lp2368
(lp2369
I927
ag5
aa(lp2370
I928
ag1227
aa(lp2371
I929
ag1253
aa(lp2372
I930
ag1222
aa(lp2373
I931
ag1217
aa(lp2374
I932
ag1233
aa(lp2375
I933
ag1225
aa(lp2376
I934
ag1275
aa(lp2377
I935
ag1222
aaaa(lp2378
I938
aI940
aS'and'
p2379
a(lp2380
(lp2381
I938
ag1215
aa(lp2382
I939
ag1275
aa(lp2383
I940
ag1231
aaaa(lp2384
I942
aI949
ag744
a(lp2385
(lp2386
I942
ag1249
aa(lp2387
I943
ag1251
aa(lp2388
I944
ag1215
aa(lp2389
I945
ag1293
aa(lp2390
I946
ag1217
aa(lp2391
I947
ag1233
aa(lp2392
I948
ag1293
aa(lp2393
I949
ag1253
aaaa(lp2394
I951
aI953
aS'out'
p2395
a(lp2396
(lp2397
I951
ag1225
aa(lp2398
I952
ag1227
aa(lp2399
I953
ag1217
aaaa(lp2400
I955
aI958
ag753
a(lp2401
(lp2402
I955
ag1229
aa(lp2403
I956
ag1225
aa(lp2404
I957
ag1227
aa(lp2405
I958
ag1231
aaaa(lp2406
I961
aI966
aS'before'
p2407
a(lp2408
(lp2409
I961
ag1319
aa(lp2410
I962
ag1253
aa(lp2411
I963
ag1262
aa(lp2412
I964
ag1225
aa(lp2413
I965
ag1251
aa(lp2414
I966
ag1253
aaaa(lp2415
I968
aI971
aS'each'
p2416
a(lp2417
(lp2418
I968
ag1253
aa(lp2419
I969
ag1215
aa(lp2420
I970
ag1293
aa(lp2421
I971
ag1213
aaaa(lp2422
I973
aI983
ag762
a(lp2423
(lp2424
I973
ag1233
aa(lp2425
I974
ag1275
aa(lp2426
I975
ag1217
aa(lp2427
I976
ag1253
aa(lp2428
I977
ag1251
aa(lp2429
I978
ag1280
aa(lp2430
I979
ag1233
aa(lp2431
I980
ag1253
aa(lp2432
I981
ag1211
aa(lp2433
I983
ag5
aaaa(lp2434
I986
aI989
aS'what'
p2435
a(lp2436
(lp2437
I986
ag1211
aa(lp2438
I987
ag1213
aa(lp2439
I988
ag1215
aa(lp2440
I989
ag1217
aaaa(lp2441
I991
aI994
ag771
a(lp2442
(lp2443
I991
ag1517
aa(lp2444
I992
ag1233
aa(lp2445
I993
ag1275
aa(lp2446
I994
ag1231
aaaa(lp2447
I996
aI997
aS'of'
p2448
a(lp2449
(lp2450
I996
ag1225
aa(lp2451
I997
ag1262
aaaa(lp2452
I999
aI1007
ag780
a(lp2453
(lp2454
I999
ag5
aa(lp2455
I1000
ag1227
aa(lp2456
I1001
ag1253
aa(lp2457
I1002
ag1222
aa(lp2458
I1003
ag1217
aa(lp2459
I1004
ag1233
aa(lp2460
I1005
ag1225
aa(lp2461
I1006
ag1275
aa(lp2462
I1007
ag1222
aaaa(lp2463
I1009
aI1012
aS'will'
p2464
a(lp2465
(lp2466
I1009
ag1211
aa(lp2467
I1010
ag1233
aa(lp2468
I1011
ag1229
aa(lp2469
I1012
ag1229
aaaa(lp2470
I1014
aI1014
ag1233
a(lp2471
(lp2472
I1014
ag1233
aaaa(lp2473
I1016
aI1017
aS'be'
p2474
a(lp2475
(lp2476
I1016
ag1319
aa(lp2477
I1017
ag1253
aaaa(lp2478
I1019
aI1023
ag789
a(lp2479
(lp2480
I1019
ag1215
aa(lp2481
I1020
ag1222
aa(lp2482
I1021
ag1517
aa(lp2483
I1022
ag1253
aa(lp2484
I1023
ag1231
aaaa(lp2485
I1025
aI1026
aS'at'
p2486
a(lp2487
(lp2488
I1025
ag1215
aa(lp2489
I1026
ag1217
aaaa(lp2490
I1028
aI1030
aS'the'
p2491
a(lp2492
(lp2493
I1028
ag1217
aa(lp2494
I1029
ag1213
aa(lp2495
I1030
ag1253
aaaa(lp2496
I1032
aI1040
ag798
a(lp2497
(lp2498
I1032
ag1233
aa(lp2499
I1033
ag1275
aa(lp2500
I1034
ag1217
aa(lp2501
I1035
ag1253
aa(lp2502
I1036
ag1251
aa(lp2503
I1037
ag1280
aa(lp2504
I1038
ag1233
aa(lp2505
I1039
ag1253
aa(lp2506
I1040
ag1211
aaaa(lp2507
I1043
aI1045
aS'why'
p2508
a(lp2509
(lp2510
I1043
ag1211
aa(lp2511
I1044
ag1213
aa(lp2512
I1045
ag1305
aaaa(lp2513
I1047
aI1048
aS'do'
p2514
a(lp2515
(lp2516
I1047
ag1231
aa(lp2517
I1048
ag1225
aaaa(lp2518
I1050
aI1052
aS'you'
p2519
a(lp2520
(lp2521
I1050
ag1305
aa(lp2522
I1051
ag1225
aa(lp2523
I1052
ag1227
aaaa(lp2524
I1054
aI1057
ag807
a(lp2525
(lp2526
I1054
ag1211
aa(lp2527
I1055
ag1215
aa(lp2528
I1056
ag1275
aa(lp2529
I1057
ag1217
aaaa(lp2530
I1059
aI1060
aS'to'
p2531
a(lp2532
(lp2533
I1059
ag1217
aa(lp2534
I1060
ag1225
aaaa(lp2535
I1062
aI1065
ag816
a(lp2536
(lp2537
I1062
ag1211
aa(lp2538
I1063
ag1225
aa(lp2539
I1064
ag1251
aa(lp2540
I1065
ag1517
aaaa(lp2541
I1067
aI1069
aS'for'
p2542
a(lp2543
(lp2544
I1067
ag1262
aa(lp2545
I1068
ag1225
aa(lp2546
I1069
ag1251
aaaa(lp2547
I1071
aI1074
aS'this'
p2548
a(lp2549
(lp2550
I1071
ag1217
aa(lp2551
I1072
ag1213
aa(lp2552
I1073
ag1233
aa(lp2553
I1074
ag1222
aaaa(lp2554
I1076
aI1082
ag825
a(lp2555
(lp2556
I1076
ag1293
aa(lp2557
I1077
ag1225
aa(lp2558
I1078
ag1333
aa(lp2559
I1079
ag1249
aa(lp2560
I1080
ag1215
aa(lp2561
I1081
ag1275
aa(lp2562
I1082
ag1305
aaaa(lp2563
I1085
aI1088
aS'what'
p2564
a(lp2565
(lp2566
I1085
ag1211
aa(lp2567
I1086
ag1213
aa(lp2568
I1087
ag1215
aa(lp2569
I1088
ag1217
aaaa(lp2570
I1090
aI1093
ag834
a(lp2571
(lp2572
I1090
ag1517
aa(lp2573
I1091
ag1233
aa(lp2574
I1092
ag1275
aa(lp2575
I1093
ag1231
aaaa(lp2576
I1095
aI1096
aS'of'
p2577
a(lp2578
(lp2579
I1095
ag1225
aa(lp2580
I1096
ag1262
aaaa(lp2581
I1098
aI1100
ag843
a(lp2582
(lp2583
I1098
ag2292
aa(lp2584
I1099
ag1225
aa(lp2585
I1100
ag1319
aaaa(lp2586
I1102
aI1103
aS'do'
p2587
a(lp2588
(lp2589
I1102
ag1231
aa(lp2590
I1103
ag1225
aaaa(lp2591
I1105
aI1107
aS'you'
p2592
a(lp2593
(lp2594
I1105
ag1305
aa(lp2595
I1106
ag1225
aa(lp2596
I1107
ag1227
aaaa(lp2597
I1109
aI1112
ag852
a(lp2598
(lp2599
I1109
ag1213
aa(lp2600
I1110
ag1225
aa(lp2601
I1111
ag1249
aa(lp2602
I1112
ag1253
aaaa(lp2603
I1114
aI1115
aS'to'
p2604
a(lp2605
(lp2606
I1114
ag1217
aa(lp2607
I1115
ag1225
aaaa(lp2608
I1117
aI1120
ag861
a(lp2609
(lp2610
I1117
ag1213
aa(lp2611
I1118
ag1225
aa(lp2612
I1119
ag1229
aa(lp2613
I1120
ag1231
aaaa(lp2614
I1122
aI1125
ag870
a(lp2615
(lp2616
I1122
ag1262
aa(lp2617
I1123
ag1233
aa(lp2618
I1124
ag1280
aa(lp2619
I1125
ag1253
aaaa(lp2620
I1127
aI1131
ag879
a(lp2621
(lp2622
I1127
ag1305
aa(lp2623
I1128
ag1253
aa(lp2624
I1129
ag1215
aa(lp2625
I1130
ag1251
aa(lp2626
I1131
ag1222
aaaa(lp2627
I1133
aI1136
aS'from'
p2628
a(lp2629
(lp2630
I1133
ag1262
aa(lp2631
I1134
ag1251
aa(lp2632
I1135
ag1225
aa(lp2633
I1136
ag1333
aaaa(lp2634
I1138
aI1140
aS'now'
p2635
a(lp2636
(lp2637
I1138
ag1275
aa(lp2638
I1139
ag1225
aa(lp2639
I1140
ag1211
aaaa(lp2640
I1143
aI1146
aS'what'
p2641
a(lp2642
(lp2643
I1143
ag1211
aa(lp2644
I1144
ag1213
aa(lp2645
I1145
ag1215
aa(lp2646
I1146
ag1217
aaaa(lp2647
I1148
aI1161
ag888
a(lp2648
(lp2649
I1148
ag5
aa(lp2650
I1149
ag1227
aa(lp2651
I1150
ag1215
aa(lp2652
I1151
ag1229
aa(lp2653
I1152
ag1233
aa(lp2654
I1153
ag1262
aa(lp2655
I1154
ag1233
aa(lp2656
I1155
ag1293
aa(lp2657
I1156
ag1215
aa(lp2658
I1157
ag1217
aa(lp2659
I1158
ag1233
aa(lp2660
I1159
ag1225
aa(lp2661
I1160
ag1275
aa(lp2662
I1161
ag1222
aaaa(lp2663
I1163
aI1164
aS'do'
p2664
a(lp2665
(lp2666
I1163
ag1231
aa(lp2667
I1164
ag1225
aaaa(lp2668
I1166
aI1168
aS'you'
p2669
a(lp2670
(lp2671
I1166
ag1305
aa(lp2672
I1167
ag1225
aa(lp2673
I1168
ag1227
aaaa(lp2674
I1170
aI1173
aS'have'
p2675
a(lp2676
(lp2677
I1170
ag1213
aa(lp2678
I1171
ag1215
aa(lp2679
I1172
ag1280
aa(lp2680
I1173
ag1253
aaaa(lp2681
I1175
aI1179
aS'which'
p2682
a(lp2683
(lp2684
I1175
ag1211
aa(lp2685
I1176
ag1213
aa(lp2686
I1177
ag1233
aa(lp2687
I1178
ag1293
aa(lp2688
I1179
ag1213
aaaa(lp2689
I1181
aI1184
aS'will'
p2690
a(lp2691
(lp2692
I1181
ag1211
aa(lp2693
I1182
ag1233
aa(lp2694
I1183
ag1229
aa(lp2695
I1184
ag1229
aaaa(lp2696
I1186
aI1189
ag897
a(lp2697
(lp2698
I1186
ag1333
aa(lp2699
I1187
ag1215
aa(lp2700
I1188
ag1517
aa(lp2701
I1189
ag1253
aaaa(lp2702
I1191
aI1193
aS'you'
p2703
a(lp2704
(lp2705
I1191
ag1305
aa(lp2706
I1192
ag1225
aa(lp2707
I1193
ag1227
aaaa(lp2708
I1195
aI1204
ag906
a(lp2709
(lp2710
I1195
ag1222
aa(lp2711
I1196
ag1227
aa(lp2712
I1197
ag1293
aa(lp2713
I1198
ag1293
aa(lp2714
I1199
ag1253
aa(lp2715
I1200
ag1222
aa(lp2716
I1201
ag1222
aa(lp2717
I1202
ag1262
aa(lp2718
I1203
ag1227
aa(lp2719
I1204
ag1229
aaaa(lp2720
I1206
aI1207
aS'in'
p2721
a(lp2722
(lp2723
I1206
ag1233
aa(lp2724
I1207
ag1275
aaaa(lp2725
I1209
aI1212
aS'this'
p2726
a(lp2727
(lp2728
I1209
ag1217
aa(lp2729
I1210
ag1213
aa(lp2730
I1211
ag1233
aa(lp2731
I1212
ag1222
aaaa(lp2732
I1214
aI1218
ag915
a(lp2733
(lp2734
I1214
ag1262
aa(lp2735
I1215
ag1233
aa(lp2736
I1216
ag1253
aa(lp2737
I1217
ag1229
aa(lp2738
I1218
ag1231
aaaa(lp2739
I1221
aI1224
aS'what'
p2740
a(lp2741
(lp2742
I1221
ag1211
aa(lp2743
I1222
ag1213
aa(lp2744
I1223
ag1215
aa(lp2745
I1224
ag1217
aaaa(lp2746
I1226
aI1228
aS'did'
p2747
a(lp2748
(lp2749
I1226
ag1231
aa(lp2750
I1227
ag1233
aa(lp2751
I1228
ag1231
aaaa(lp2752
I1230
aI1232
aS'you'
p2753
a(lp2754
(lp2755
I1230
ag1305
aa(lp2756
I1231
ag1225
aa(lp2757
I1232
ag1227
aaaa(lp2758
I1234
aI1237
ag924
a(lp2759
(lp2760
I1234
ag1229
aa(lp2761
I1235
ag1233
aa(lp2762
I1236
ag1517
aa(lp2763
I1237
ag1253
aaaa(lp2764
I1239
aI1248
ag933
a(lp2765
(lp2766
I1239
ag1333
aa(lp2767
I1240
ag1225
aa(lp2768
I1241
ag1222
aa(lp2769
I1242
ag1217
aa(lp2770
I1244
ag1229
aa(lp2771
I1245
ag1253
aa(lp2772
I1246
ag1215
aa(lp2773
I1247
ag1222
aa(lp2774
I1248
ag1217
aaaa(lp2775
I1250
aI1254
aS'about'
p2776
a(lp2777
(lp2778
I1250
ag1215
aa(lp2779
I1251
ag1319
aa(lp2780
I1252
ag1225
aa(lp2781
I1253
ag1227
aa(lp2782
I1254
ag1217
aaaa(lp2783
I1256
aI1259
aS'your'
p2784
a(lp2785
(lp2786
I1256
ag1305
aa(lp2787
I1257
ag1225
aa(lp2788
I1258
ag1227
aa(lp2789
I1259
ag1251
aaaa(lp2790
I1261
aI1263
ag942
a(lp2791
(lp2792
I1261
ag1225
aa(lp2793
I1262
ag1229
aa(lp2794
I1263
ag1231
aaaa(lp2795
I1265
aI1267
ag951
a(lp2796
(lp2797
I1265
ag2292
aa(lp2798
I1266
ag1225
aa(lp2799
I1267
ag1319
aaaa(lp2800
I1270
aI1273
aS'what'
p2801
a(lp2802
(lp2803
I1270
ag1211
aa(lp2804
I1271
ag1213
aa(lp2805
I1272
ag1215
aa(lp2806
I1273
ag1217
aaaa(lp2807
I1275
aI1276
aS'is'
p2808
a(lp2809
(lp2810
I1275
ag1233
aa(lp2811
I1276
ag1222
aaaa(lp2812
I1278
aI1281
aS'your'
p2813
a(lp2814
(lp2815
I1278
ag1305
aa(lp2816
I1279
ag1225
aa(lp2817
I1280
ag1227
aa(lp2818
I1281
ag1251
aaaa(lp2819
I1283
aI1287
ag960
a(lp2820
(lp2821
I1283
ag1333
aa(lp2822
I1284
ag1215
aa(lp2823
I1285
ag2292
aa(lp2824
I1286
ag1225
aa(lp2825
I1287
ag1251
aaaa(lp2826
I1289
aI1296
ag969
a(lp2827
(lp2828
I1289
ag1222
aa(lp2829
I1290
ag1217
aa(lp2830
I1291
ag1251
aa(lp2831
I1292
ag1253
aa(lp2832
I1293
ag1275
aa(lp2833
I1294
ag1378
aa(lp2834
I1295
ag1217
aa(lp2835
I1296
ag1213
aaaa(lp2836
I1299
aI1302
aS'what'
p2837
a(lp2838
(lp2839
I1299
ag1211
aa(lp2840
I1300
ag1213
aa(lp2841
I1301
ag1215
aa(lp2842
I1302
ag1217
aaaa(lp2843
I1304
aI1305
aS'is'
p2844
a(lp2845
(lp2846
I1304
ag1233
aa(lp2847
I1305
ag1222
aaaa(lp2848
I1307
aI1310
aS'your'
p2849
a(lp2850
(lp2851
I1307
ag1305
aa(lp2852
I1308
ag1225
aa(lp2853
I1309
ag1227
aa(lp2854
I1310
ag1251
aaaa(lp2855
I1312
aI1316
ag978
a(lp2856
(lp2857
I1312
ag1333
aa(lp2858
I1313
ag1215
aa(lp2859
I1314
ag2292
aa(lp2860
I1315
ag1225
aa(lp2861
I1316
ag1251
aaaa(lp2862
I1318
aI1325
ag987
a(lp2863
(lp2864
I1318
ag1211
aa(lp2865
I1319
ag1253
aa(lp2866
I1320
ag1215
aa(lp2867
I1321
ag1517
aa(lp2868
I1322
ag1275
aa(lp2869
I1323
ag1253
aa(lp2870
I1324
ag1222
aa(lp2871
I1325
ag1222
aaaa(lp2872
I1328
aI1329
aS'if'
p2873
a(lp2874
(lp2875
I1328
ag1233
aa(lp2876
I1329
ag1262
aaaa(lp2877
I1331
aI1333
aS'you'
p2878
a(lp2879
(lp2880
I1331
ag1305
aa(lp2881
I1332
ag1225
aa(lp2882
I1333
ag1227
aaaa(lp2883
I1335
aI1338
aS'were'
p2884
a(lp2885
(lp2886
I1335
ag1211
aa(lp2887
I1336
ag1253
aa(lp2888
I1337
ag1251
aa(lp2889
I1338
ag1253
aaaa(lp2890
I1340
aI1341
aS'me'
p2891
a(lp2892
(lp2893
I1340
ag1333
aa(lp2894
I1341
ag1253
aaaa(lp2895
I1344
aI1346
aS'why'
p2896
a(lp2897
(lp2898
I1344
ag1211
aa(lp2899
I1345
ag1213
aa(lp2900
I1346
ag1305
aaaa(lp2901
I1348
aI1352
ag996
a(lp2902
(lp2903
I1348
ag1211
aa(lp2904
I1349
ag1225
aa(lp2905
I1350
ag1227
aa(lp2906
I1351
ag1229
aa(lp2907
I1352
ag1231
aaaa(lp2908
I1354
aI1356
aS'you'
p2909
a(lp2910
(lp2911
I1354
ag1305
aa(lp2912
I1355
ag1225
aa(lp2913
I1356
ag1227
aaaa(lp2914
I1358
aI1363
ag1005
a(lp2915
(lp2916
I1358
ag1253
aa(lp2917
I1359
ag1333
aa(lp2918
I1360
ag1249
aa(lp2919
I1361
ag1229
aa(lp2920
I1362
ag1225
aa(lp2921
I1363
ag1305
aaaa(lp2922
I1365
aI1372
aS'yourself'
p2923
a(lp2924
(lp2925
I1365
ag1305
aa(lp2926
I1366
ag1225
aa(lp2927
I1367
ag1227
aa(lp2928
I1368
ag1251
aa(lp2929
I1369
ag1222
aa(lp2930
I1370
ag1253
aa(lp2931
I1371
ag1229
aa(lp2932
I1372
ag1262
aaaa(lp2933
I1375
aI1378
aS'what'
p2934
a(lp2935
(lp2936
I1375
ag1211
aa(lp2937
I1376
ag1213
aa(lp2938
I1377
ag1215
aa(lp2939
I1378
ag1217
aaaa(lp2940
I1380
aI1382
aS'are'
p2941
a(lp2942
(lp2943
I1380
ag1215
aa(lp2944
I1381
ag1251
aa(lp2945
I1382
ag1253
aaaa(lp2946
I1384
aI1387
aS'your'
p2947
a(lp2948
(lp2949
I1384
ag1305
aa(lp2950
I1385
ag1225
aa(lp2951
I1386
ag1227
aa(lp2952
I1387
ag1251
aaaa(lp2953
I1389
aI1393
ag1014
a(lp2954
(lp2955
I1389
ag1233
aa(lp2956
I1390
ag1231
aa(lp2957
I1391
ag1253
aa(lp2958
I1392
ag1215
aa(lp2959
I1393
ag1222
aaaa(lp2960
I1395
aI1396
aS'on'
p2961
a(lp2962
(lp2963
I1395
ag1225
aa(lp2964
I1396
ag1275
aaaa(lp2965
I1398
aI1403
ag1023
a(lp2966
(lp2967
I1398
ag1222
aa(lp2968
I1399
ag1215
aa(lp2969
I1400
ag1229
aa(lp2970
I1401
ag1215
aa(lp2971
I1402
ag1251
aa(lp2972
I1403
ag1305
aaaa(lp2973
I1406
aI1407
aS'if'
p2974
a(lp2975
(lp2976
I1406
ag1233
aa(lp2977
I1407
ag1262
aaaa(lp2978
I1409
aI1411
aS'you'
p2979
a(lp2980
(lp2981
I1409
ag1305
aa(lp2982
I1410
ag1225
aa(lp2983
I1411
ag1227
aaaa(lp2984
I1413
aI1417
ag1032
a(lp2985
(lp2986
I1413
ag1293
aa(lp2987
I1414
ag1225
aa(lp2988
I1415
ag1227
aa(lp2989
I1416
ag1229
aa(lp2990
I1417
ag1231
aaaa(lp2991
I1419
aI1424
ag1041
a(lp2992
(lp2993
I1419
ag1231
aa(lp2994
I1420
ag1253
aa(lp2995
I1421
ag1222
aa(lp2996
I1422
ag1233
aa(lp2997
I1423
ag1378
aa(lp2998
I1424
ag1275
aaaa(lp2999
I1426
aI1429
aS'your'
p3000
a(lp3001
(lp3002
I1426
ag1305
aa(lp3003
I1427
ag1225
aa(lp3004
I1428
ag1227
aa(lp3005
I1429
ag1251
aaaa(lp3006
I1431
aI1433
aS'own'
p3007
a(lp3008
(lp3009
I1431
ag1225
aa(lp3010
I1432
ag1211
aa(lp3011
I1433
ag1275
aaaa(lp3012
I1435
aI1437
ag1050
a(lp3013
(lp3014
I1435
ag2292
aa(lp3015
I1436
ag1225
aa(lp3016
I1437
ag1319
aaaa(lp3017
I1440
aI1443
aS'what'
p3018
a(lp3019
(lp3020
I1440
ag1211
aa(lp3021
I1441
ag1213
aa(lp3022
I1442
ag1215
aa(lp3023
I1443
ag1217
aaaa(lp3024
I1445
aI1449
ag1059
a(lp3025
(lp3026
I1445
ag1211
aa(lp3027
I1446
ag1225
aa(lp3028
I1447
ag1227
aa(lp3029
I1448
ag1229
aa(lp3030
I1449
ag1231
aaaa(lp3031
I1451
aI1454
aS'your'
p3032
a(lp3033
(lp3034
I1451
ag1305
aa(lp3035
I1452
ag1225
aa(lp3036
I1453
ag1227
aa(lp3037
I1454
ag1251
aaaa(lp3038
I1456
aI1461
ag1068
a(lp3039
(lp3040
I1456
ag1231
aa(lp3041
I1457
ag1227
aa(lp3042
I1458
ag1217
aa(lp3043
I1459
ag1233
aa(lp3044
I1460
ag1253
aa(lp3045
I1461
ag1222
aaaa(lp3046
I1463
aI1464
aS'be'
p3047
a(lp3048
(lp3049
I1463
ag1319
aa(lp3050
I1464
ag1253
aaaa(lp3051
I1467
aI1468
aS'do'
p3052
a(lp3053
(lp3054
I1467
ag1231
aa(lp3055
I1468
ag1225
aaaa(lp3056
I1470
aI1472
aS'you'
p3057
a(lp3058
(lp3059
I1470
ag1305
aa(lp3060
I1471
ag1225
aa(lp3061
I1472
ag1227
aaaa(lp3062
I1474
aI1477
aS'have'
p3063
a(lp3064
(lp3065
I1474
ag1213
aa(lp3066
I1475
ag1215
aa(lp3067
I1476
ag1280
aa(lp3068
I1477
ag1253
aaaa(lp3069
I1479
aI1481
aS'any'
p3070
a(lp3071
(lp3072
I1479
ag1215
aa(lp3073
I1480
ag1275
aa(lp3074
I1481
ag1305
aaaa(lp3075
I1483
aI1491
ag1077
a(lp3076
(lp3077
I1483
ag5
aa(lp3078
I1484
ag1227
aa(lp3079
I1485
ag1253
aa(lp3080
I1486
ag1222
aa(lp3081
I1487
ag1217
aa(lp3082
I1488
ag1233
aa(lp3083
I1489
ag1225
aa(lp3084
I1490
ag1275
aa(lp3085
I1491
ag1222
aaaa(lp3086
I1494
aI1496
ag1086
a(lp3087
(lp3088
I1494
ag1217
aa(lp3089
I1495
ag1251
aa(lp3090
I1496
ag1305
aaaa(lp3091
I1498
aI1504
ag1095
a(lp3092
(lp3093
I1498
ag1222
aa(lp3094
I1499
ag1253
aa(lp3095
I1500
ag1275
aa(lp3096
I1501
ag1231
aa(lp3097
I1502
ag1233
aa(lp3098
I1503
ag1275
aa(lp3099
I1504
ag1378
aaaa(lp3100
I1506
aI1506
ag1215
a(lp3101
(lp3102
I1506
ag1215
aaaa(lp3103
I1508
aI1512
ag1104
a(lp3104
(lp3105
I1508
ag1217
aa(lp3106
I1509
ag1213
aa(lp3107
I1510
ag1215
aa(lp3108
I1511
ag1275
aa(lp3109
I1512
ag1517
aaaa(lp3110
I1514
aI1516
aS'you'
p3111
a(lp3112
(lp3113
I1514
ag1305
aa(lp3114
I1515
ag1225
aa(lp3115
I1516
ag1227
aaaa(lp3116
I1518
aI1523
ag1113
a(lp3117
(lp3118
I1518
ag1229
aa(lp3119
I1519
ag1253
aa(lp3120
I1520
ag1217
aa(lp3121
I1521
ag1217
aa(lp3122
I1522
ag1253
aa(lp3123
I1523
ag1251
aaaa(lp3124
I1525
aI1526
ag1122
a(lp3125
(lp3126
I1525
aS'2'
p3127
aa(lp3128
I1526
aS'4'
p3129
aaaa(lp3130
I1528
aI1532
ag1131
a(lp3131
(lp3132
I1528
ag1213
aa(lp3133
I1529
ag1225
aa(lp3134
I1530
ag1227
aa(lp3135
I1531
ag1251
aa(lp3136
I1532
ag1222
aaaa(lp3137
I1534
aI1538
aS'after'
p3138
a(lp3139
(lp3140
I1534
ag1215
aa(lp3141
I1535
ag1262
aa(lp3142
I1536
ag1217
aa(lp3143
I1537
ag1253
aa(lp3144
I1538
ag1251
aaaa(lp3145
I1540
aI1542
aS'the'
p3146
a(lp3147
(lp3148
I1540
ag1217
aa(lp3149
I1541
ag1213
aa(lp3150
I1542
ag1253
aaaa(lp3151
I1544
aI1555
ag1140
a(lp3152
(lp3153
I1544
ag1233
aa(lp3154
I1545
ag1275
aa(lp3155
I1546
ag1217
aa(lp3156
I1547
ag1253
aa(lp3157
I1548
ag1251
aa(lp3158
I1549
ag1280
aa(lp3159
I1550
ag1233
aa(lp3160
I1551
ag1253
aa(lp3161
I1552
ag1211
aa(lp3162
I1555
ag1194
aaaa(lp3163
I1557
aI1563
ag1149
a(lp3164
(lp3165
I1557
ag1293
aa(lp3166
I1558
ag1213
aa(lp3167
I1559
ag1215
aa(lp3168
I1560
ag1275
aa(lp3169
I1561
ag1293
aa(lp3170
I1562
ag1253
aa(lp3171
I1563
ag1222
aaaa(lp3172
I1565
aI1567
aS'are'
p3173
a(lp3174
(lp3175
I1565
ag1215
aa(lp3176
I1566
ag1251
aa(lp3177
I1567
ag1253
aaaa(lp3178
I1569
aI1572
ag1158
a(lp3179
(lp3180
I1569
ag1305
aa(lp3181
I1570
ag1225
aa(lp3182
I1571
ag1227
aa(lp3183
I1572
ag1229
aaaa(lp3184
I1574
aI1578
ag1167
a(lp3185
(lp3186
I1574
ag1222
aa(lp3187
I1575
ag1217
aa(lp3188
I1576
ag1215
aa(lp3189
I1577
ag1275
aa(lp3190
I1578
ag1231
aaaa(lp3191
I1580
aI1582
aS'out'
p3192
a(lp3193
(lp3194
I1580
ag1225
aa(lp3195
I1581
ag1227
aa(lp3196
I1582
ag1217
aaaa(lp3197
I1584
aI1587
aS'from'
p3198
a(lp3199
(lp3200
I1584
ag1262
aa(lp3201
I1585
ag1251
aa(lp3202
I1586
ag1225
aa(lp3203
I1587
ag1333
aaaa(lp3204
I1589
aI1591
aS'the'
p3205
a(lp3206
(lp3207
I1589
ag1217
aa(lp3208
I1590
ag1213
aa(lp3209
I1591
ag1253
aaaa(lp3210
I1593
aI1599
ag1176
a(lp3211
(lp3212
I1593
ag1293
aa(lp3213
I1594
ag1251
aa(lp3214
I1595
ag1225
aa(lp3215
I1596
ag1211
aa(lp3216
I1597
ag1231
aa(lp3217
I1599
ag5
aaaa(lp3218
I1602
aI1605
aS'what'
p3219
a(lp3220
(lp3221
I1602
ag1211
aa(lp3222
I1603
ag1213
aa(lp3223
I1604
ag1215
aa(lp3224
I1605
ag1217
aaaa(lp3225
I1607
aI1612
aS'should'
p3226
a(lp3227
(lp3228
I1607
ag1222
aa(lp3229
I1608
ag1213
aa(lp3230
I1609
ag1225
aa(lp3231
I1610
ag1227
aa(lp3232
I1611
ag1229
aa(lp3233
I1612
ag1231
aaaa(lp3234
I1614
aI1614
ag1233
a(lp3235
(lp3236
I1614
ag1233
aaaa(lp3237
I1616
aI1617
aS'do'
p3238
a(lp3239
(lp3240
I1616
ag1231
aa(lp3241
I1617
ag1225
aaaa(lp3242
I1619
aI1623
aS'after'
p3243
a(lp3244
(lp3245
I1619
ag1215
aa(lp3246
I1620
ag1262
aa(lp3247
I1621
ag1217
aa(lp3248
I1622
ag1253
aa(lp3249
I1623
ag1251
aaaa(lp3250
I1625
aI1627
aS'the'
p3251
a(lp3252
(lp3253
I1625
ag1217
aa(lp3254
I1626
ag1213
aa(lp3255
I1627
ag1253
aaaa(lp3256
I1629
aI1637
ag1185
a(lp3257
(lp3258
I1629
ag1233
aa(lp3259
I1630
ag1275
aa(lp3260
I1631
ag1217
aa(lp3261
I1632
ag1253
aa(lp3262
I1633
ag1251
aa(lp3263
I1634
ag1280
aa(lp3264
I1635
ag1233
aa(lp3265
I1636
ag1253
aa(lp3266
I1637
ag1211
aaaa(lp3267
I1629
aI1637
ag1194
a(lp3268
(lp3269
I1641
ag1194
aaaasS'cleanCharacterMap'
p3270
(lp3271
g1206
a(lp3272
I2
aS' '
p3273
aag1210
ag1212
ag1214
ag1216
a(lp3274
I7
ag3273
aag1221
ag1223
ag1224
ag1226
ag1228
ag1230
a(lp3275
I14
ag3273
aag1235
a(lp3276
I16
ag3273
aag1239
ag1240
a(lp3277
I19
ag3273
aag1244
ag1245
a(lp3278
I22
ag3273
aag1248
ag1250
ag1252
ag1254
ag1255
ag1256
ag1257
a(lp3279
I30
ag3273
aag1261
ag1263
ag1264
a(lp3280
I34
ag3273
aag1268
ag1269
ag1270
a(lp3281
I38
ag3273
aag1273
ag1274
ag1276
ag1277
ag1278
ag1279
ag1281
ag1282
ag1283
a(lp3282
I49
ag3273
aag1286
ag1287
ag1288
ag1289
ag1290
ag1291
ag1292
ag1294
a(lp3283
I58
ag3273
aag1298
ag1299
ag1300
a(lp3284
I62
ag3273
aag1304
ag1306
ag1307
a(lp3285
I66
ag3273
aag1311
ag1312
ag1313
a(lp3286
I70
ag3273
aag1317
ag1318
ag1320
ag1321
ag1322
a(lp3287
I76
ag3273
aag1326
ag1327
ag1328
a(lp3288
I80
ag3273
aag1331
ag1332
ag1334
ag1335
ag1336
ag1337
ag1338
ag1339
a(lp3289
I89
ag3273
aag1342
ag1343
ag1344
ag1345
ag1346
ag1347
ag1348
a(lp3290
I97
ag3273
aag1351
a(lp3291
I99
ag3273
aag1354
ag1355
ag1356
ag1357
a(lp3292
I104
ag3273
aag1360
ag1361
ag1362
ag1363
ag1364
ag1365
a(lp3293
I111
ag3273
aag1368
ag1369
ag1370
ag1371
ag1372
ag1373
ag1374
ag1375
ag1376
ag1377
a(lp3294
I122
ag3273
aag1382
ag1383
ag1384
ag1385
a(lp3295
I127
ag3273
aag1388
ag1389
ag1390
ag1391
ag1392
ag1393
a(lp3296
I135
ag3273
aag1396
ag1397
ag1398
ag1399
ag1400
ag1401
ag1402
ag1403
ag1404
ag1405
ag1406
ag1407
a(lp3297
I149
ag3273
aag1410
ag1411
ag1412
ag1413
ag1414
ag1415
ag1416
ag1417
ag1418
ag1419
a(lp3298
I161
ag3273
aag1422
ag1423
ag1424
a(lp3299
I166
ag3273
aag1427
ag1428
ag1429
ag1430
ag1431
a(lp3300
I172
ag3273
aag1434
ag1435
ag1436
ag1437
ag1438
ag1439
ag1440
ag1441
ag1442
ag1443
ag1444
ag1445
ag1446
a(lp3301
I186
ag3273
aag1450
ag1451
ag1452
a(lp3302
I190
ag3273
aag1455
ag1456
ag1457
ag1458
ag1459
ag1460
a(lp3303
I197
ag3273
aag1463
a(lp3304
I199
ag3273
aag1466
ag1467
ag1468
ag1469
a(lp3305
I204
ag3273
aag1472
ag1473
ag1474
ag1475
ag1476
a(lp3306
I210
ag3273
aag1480
ag1481
a(lp3307
I213
ag3273
aag1484
ag1485
ag1486
ag1487
ag1488
ag1489
ag1490
a(lp3308
I221
ag3273
aag1494
ag1495
a(lp3309
I224
ag3273
aag1499
ag1500
ag1501
a(lp3310
I228
ag3273
aag1505
ag1506
ag1507
a(lp3311
I232
ag3273
aag1510
a(lp3312
I234
ag3273
aag1513
ag1514
ag1515
ag1516
ag1518
ag1519
a(lp3313
I242
ag3273
aag1522
ag1523
ag1524
ag1525
ag1526
a(lp3314
I248
ag3273
aag1529
ag1530
ag1531
ag1532
ag1533
ag1534
ag1535
a(lp3315
I256
ag3273
aag1539
ag1540
ag1541
a(lp3316
I260
ag3273
aag1545
ag1546
a(lp3317
I263
ag3273
aag1549
ag1550
ag1551
ag1552
a(lp3318
I268
ag3273
aag1556
ag1557
a(lp3319
I271
ag3273
aag1560
ag1561
ag1562
ag1563
ag1564
ag1565
ag1566
ag1567
a(lp3320
I280
ag3273
aag1570
ag1571
ag1572
ag1573
ag1574
ag1575
ag1576
ag1577
ag1578
ag1579
ag1580
a(lp3321
I292
ag3273
aag1583
ag1584
ag1585
ag1586
ag1587
a(lp3322
I298
ag3273
aag1591
ag1592
a(lp3323
I301
ag3273
aag1596
ag1597
ag1598
ag1599
a(lp3324
I306
ag3273
aag1602
ag1603
ag1604
ag1605
ag1606
ag1607
ag1608
ag1609
ag1610
a(lp3325
I316
ag3273
aag1613
ag1614
ag1615
ag1616
ag1617
ag1618
a(lp3326
I323
ag3273
aag1621
ag1623
a(lp3327
I326
ag3273
aag1627
ag1628
ag1629
ag1630
ag1631
ag1632
ag1633
a(lp3328
I334
ag3273
aag1636
ag1637
ag1638
ag1639
ag1640
a(lp3329
I340
ag3273
aag1643
ag1644
ag1645
ag1646
ag1647
ag1648
ag1649
ag1650
a(lp3330
I349
ag3273
aag1653
ag1654
ag1655
ag1656
ag1657
ag1658
ag1659
a(lp3331
I357
ag3273
aag1663
ag1664
a(lp3332
I360
ag3273
aag1667
ag1668
ag1669
ag1670
ag1671
ag1672
a(lp3333
I367
ag3273
aag1675
ag1676
ag1677
ag1678
ag1679
ag1680
ag1681
ag1682
ag1683
a(lp3334
I377
ag3273
aag1686
ag1687
ag1688
ag1689
ag1690
ag1691
ag1692
ag1693
ag1694
a(lp3335
I387
ag3273
aag1697
ag1698
ag1699
ag1700
ag1701
ag1702
ag1703
ag1704
a(lp3336
I396
ag3273
aag1708
ag1709
ag1710
a(lp3337
I400
ag3273
aag1713
ag1714
ag1715
ag1716
ag1717
ag1718
ag1719
ag1720
ag1721
a(lp3338
I410
ag3273
aag1725
ag1726
ag1727
a(lp3339
I414
ag3273
aag1730
ag1731
ag1732
ag1733
a(lp3340
I419
ag3273
aag1737
ag1738
a(lp3341
I422
ag3273
aag1741
ag1742
ag1743
a(lp3342
I426
ag3273
aag1747
ag1748
ag1749
a(lp3343
I430
ag3273
aag1752
ag1753
ag1754
ag1755
ag1756
ag1757
ag1758
ag1759
a(lp3344
I439
ag3273
aag1762
ag1763
ag1764
ag1765
ag1766
a(lp3345
I445
ag3273
aag1769
ag1770
ag1771
ag1772
ag1773
ag1774
ag1775
ag1776
ag1777
ag1778
ag1779
ag1780
ag1781
a(lp3346
I459
ag3273
aag1785
ag1786
ag1787
a(lp3347
I463
ag3273
aag1791
ag1792
ag1793
a(lp3348
I467
ag3273
aag1796
ag1797
ag1798
ag1799
ag1800
ag1801
ag1802
ag1803
a(lp3349
I476
ag3273
aag1807
ag1808
ag1809
a(lp3350
I480
ag3273
aag1812
ag1813
ag1814
ag1815
ag1816
ag1817
ag1818
ag1819
a(lp3351
I489
ag3273
aag1823
ag1824
ag1825
a(lp3352
I493
ag3273
aag1828
ag1829
ag1830
ag1831
ag1832
ag1833
a(lp3353
I500
ag3273
aag1836
a(lp3354
I502
ag3273
aag1839
ag1840
ag1841
ag1842
a(lp3355
I507
ag3273
aag1845
ag1846
ag1847
ag1848
ag1849
a(lp3356
I513
ag3273
aag1853
ag1854
a(lp3357
I516
ag3273
aag1857
ag1858
ag1859
ag1860
ag1861
ag1862
ag1863
ag1864
a(lp3358
I526
ag3273
aag1868
ag1869
ag1870
ag1871
a(lp3359
I531
ag3273
aag1875
ag1876
ag1877
ag1878
ag1879
ag1880
a(lp3360
I538
ag3273
aag1883
a(lp3361
I540
ag3273
aag1886
ag1887
ag1888
ag1889
a(lp3362
I545
ag3273
aag1893
ag1894
a(lp3363
I548
ag3273
aag1898
ag1899
ag1900
a(lp3364
I552
ag3273
aag1903
ag1904
ag1905
ag1906
ag1907
ag1908
ag1909
ag1910
ag1911
a(lp3365
I563
ag3273
aag1915
ag1916
a(lp3366
I566
ag3273
aag1919
ag1920
ag1921
ag1922
a(lp3367
I571
ag3273
aag1926
ag1927
a(lp3368
I574
ag3273
aag1930
ag1931
ag1932
ag1933
ag1934
a(lp3369
I580
ag3273
aag1937
a(lp3370
I582
ag3273
aag1940
ag1941
ag1942
ag1943
a(lp3371
I587
ag3273
aag1947
ag1948
a(lp3372
I590
ag3273
aag1952
ag1953
ag1954
ag1955
a(lp3373
I595
ag3273
aag1958
ag1959
ag1960
ag1961
ag1962
ag1963
a(lp3374
I602
ag3273
aag1967
ag1968
ag1969
a(lp3375
I606
ag3273
aag1972
ag1973
ag1974
ag1975
ag1976
ag1977
ag1978
ag1979
ag1980
ag1981
ag1982
a(lp3376
I620
ag3273
aag1986
ag1987
a(lp3377
I623
ag3273
aag1991
ag1992
a(lp3378
I626
ag3273
aag1995
ag1996
ag1997
ag1998
ag1999
ag2000
a(lp3379
I633
ag3273
aag2003
ag2004
ag2005
ag2006
ag2007
ag2008
ag2009
a(lp3380
I641
ag3273
aag2013
ag2014
a(lp3381
I644
ag3273
aag2018
ag2019
ag2020
a(lp3382
I648
ag3273
aag2023
ag2024
ag2025
ag2026
ag2027
ag2028
ag2029
ag2030
a(lp3383
I657
ag3273
aag2034
ag2035
a(lp3384
I660
ag3273
aag2038
ag2039
ag2040
ag2041
a(lp3385
I665
ag3273
aag2044
ag2045
ag2046
a(lp3386
I669
ag3273
aag2049
ag2050
ag2051
ag2052
ag2053
ag2054
a(lp3387
I676
ag3273
aag2058
ag2059
a(lp3388
I679
ag3273
aag2063
ag2064
ag2065
a(lp3389
I683
ag3273
aag2068
ag2069
ag2070
ag2071
ag2072
ag2073
ag2074
ag2075
ag2076
ag2077
ag2078
ag2079
a(lp3390
I696
ag3273
aag2083
ag2084
a(lp3391
I699
ag3273
aag2087
ag2088
ag2089
ag2090
ag2091
ag2092
ag2093
ag2094
ag2095
ag2096
ag2097
a(lp3392
I711
ag3273
aag2101
ag2102
a(lp3393
I714
ag3273
aag2105
ag2106
ag2107
ag2108
ag2109
ag2110
ag2111
ag2112
ag2113
ag2114
ag2115
ag2116
ag2117
a(lp3394
I728
ag3273
aag2120
ag2121
ag2122
ag2123
ag2124
ag2125
ag2126
ag2127
ag2128
ag2129
ag2130
ag2131
a(lp3395
I741
ag3273
aag2135
ag2136
ag2137
a(lp3396
I745
ag3273
aag2140
ag2141
ag2142
a(lp3397
I749
ag3273
aag2145
ag2146
ag2147
ag2148
ag2149
a(lp3398
I757
ag3273
aag2153
ag2154
ag2155
ag2156
ag2157
ag2158
a(lp3399
I764
ag3273
aag2161
a(lp3400
I766
ag3273
aag2164
ag2165
ag2166
ag2167
ag2168
a(lp3401
I772
ag3273
aag2171
ag2172
ag2173
ag2174
ag2175
ag2176
ag2177
ag2178
a(lp3402
I781
ag3273
aag2182
ag2183
a(lp3403
I784
ag3273
aag2187
ag2188
ag2189
a(lp3404
I788
ag3273
aag2192
ag2193
ag2194
ag2195
ag2196
ag2197
ag2198
ag2199
ag2200
a(lp3405
I799
ag3273
aag2204
ag2205
ag2206
ag2207
ag2208
a(lp3406
I805
ag3273
aag2212
ag2213
ag2214
a(lp3407
I809
ag3273
aag2218
ag2219
ag2220
a(lp3408
I813
ag3273
aag2223
ag2224
ag2225
ag2226
ag2227
a(lp3409
I819
ag3273
aag2231
ag2232
a(lp3410
I822
ag3273
aag2235
ag2236
ag2237
ag2238
ag2239
ag2240
ag2241
ag2242
ag2243
a(lp3411
I832
ag3273
aag2247
ag2248
ag2249
a(lp3412
I836
ag3273
aag2253
ag2254
ag2255
a(lp3413
I840
ag3273
aag2258
ag2259
ag2261
ag2262
ag2263
ag2264
a(lp3414
I847
ag3273
aag2268
ag2269
ag2270
ag2271
a(lp3415
I852
ag3273
aag2275
ag2276
ag2277
a(lp3416
I856
ag3273
aag2280
ag2281
ag2282
ag2283
ag2284
ag2285
a(lp3417
I863
ag3273
aag2288
a(lp3418
I865
ag3273
aag2291
ag2293
ag2294
a(lp3419
I869
ag3273
aag2297
ag2298
ag2299
ag2300
ag2301
ag2302
ag2303
ag2304
ag2305
a(lp3420
I880
ag3273
aag2309
ag2310
a(lp3421
I883
ag3273
aag2313
a(lp3422
I885
ag3273
aag2316
ag2317
ag2318
ag2319
a(lp3423
I890
ag3273
aag2322
ag2323
ag2324
ag2325
a(lp3424
I895
ag3273
aag2329
ag2330
a(lp3425
I898
ag3273
aag2333
ag2334
ag2335
ag2336
ag2337
a(lp3426
I904
ag3273
aag2341
ag2342
ag2343
ag2344
a(lp3427
I909
ag3273
aag2347
ag2348
ag2349
ag2350
ag2351
ag2352
ag2353
a(lp3428
I917
ag3273
aag2357
ag2358
a(lp3429
I920
ag3273
aag2362
ag2363
ag2364
ag2365
ag2366
a(lp3430
I926
ag3273
aag2369
ag2370
ag2371
ag2372
ag2373
ag2374
ag2375
ag2376
ag2377
a(lp3431
I937
ag3273
aag2381
ag2382
ag2383
a(lp3432
I941
ag3273
aag2386
ag2387
ag2388
ag2389
ag2390
ag2391
ag2392
ag2393
a(lp3433
I950
ag3273
aag2397
ag2398
ag2399
a(lp3434
I954
ag3273
aag2402
ag2403
ag2404
ag2405
a(lp3435
I960
ag3273
aag2409
ag2410
ag2411
ag2412
ag2413
ag2414
a(lp3436
I967
ag3273
aag2418
ag2419
ag2420
ag2421
a(lp3437
I972
ag3273
aag2424
ag2425
ag2426
ag2427
ag2428
ag2429
ag2430
ag2431
ag2432
ag2433
a(lp3438
I985
ag3273
aag2437
ag2438
ag2439
ag2440
a(lp3439
I990
ag3273
aag2443
ag2444
ag2445
ag2446
a(lp3440
I995
ag3273
aag2450
ag2451
a(lp3441
I998
ag3273
aag2454
ag2455
ag2456
ag2457
ag2458
ag2459
ag2460
ag2461
ag2462
a(lp3442
I1008
ag3273
aag2466
ag2467
ag2468
ag2469
a(lp3443
I1013
ag3273
aag2472
a(lp3444
I1015
ag3273
aag2476
ag2477
a(lp3445
I1018
ag3273
aag2480
ag2481
ag2482
ag2483
ag2484
a(lp3446
I1024
ag3273
aag2488
ag2489
a(lp3447
I1027
ag3273
aag2493
ag2494
ag2495
a(lp3448
I1031
ag3273
aag2498
ag2499
ag2500
ag2501
ag2502
ag2503
ag2504
ag2505
ag2506
a(lp3449
I1042
ag3273
aag2510
ag2511
ag2512
a(lp3450
I1046
ag3273
aag2516
ag2517
a(lp3451
I1049
ag3273
aag2521
ag2522
ag2523
a(lp3452
I1053
ag3273
aag2526
ag2527
ag2528
ag2529
a(lp3453
I1058
ag3273
aag2533
ag2534
a(lp3454
I1061
ag3273
aag2537
ag2538
ag2539
ag2540
a(lp3455
I1066
ag3273
aag2544
ag2545
ag2546
a(lp3456
I1070
ag3273
aag2550
ag2551
ag2552
ag2553
a(lp3457
I1075
ag3273
aag2556
ag2557
ag2558
ag2559
ag2560
ag2561
ag2562
a(lp3458
I1084
ag3273
aag2566
ag2567
ag2568
ag2569
a(lp3459
I1089
ag3273
aag2572
ag2573
ag2574
ag2575
a(lp3460
I1094
ag3273
aag2579
ag2580
a(lp3461
I1097
ag3273
aag2583
ag2584
ag2585
a(lp3462
I1101
ag3273
aag2589
ag2590
a(lp3463
I1104
ag3273
aag2594
ag2595
ag2596
a(lp3464
I1108
ag3273
aag2599
ag2600
ag2601
ag2602
a(lp3465
I1113
ag3273
aag2606
ag2607
a(lp3466
I1116
ag3273
aag2610
ag2611
ag2612
ag2613
a(lp3467
I1121
ag3273
aag2616
ag2617
ag2618
ag2619
a(lp3468
I1126
ag3273
aag2622
ag2623
ag2624
ag2625
ag2626
a(lp3469
I1132
ag3273
aag2630
ag2631
ag2632
ag2633
a(lp3470
I1137
ag3273
aag2637
ag2638
ag2639
a(lp3471
I1142
ag3273
aag2643
ag2644
ag2645
ag2646
a(lp3472
I1147
ag3273
aag2649
ag2650
ag2651
ag2652
ag2653
ag2654
ag2655
ag2656
ag2657
ag2658
ag2659
ag2660
ag2661
ag2662
a(lp3473
I1162
ag3273
aag2666
ag2667
a(lp3474
I1165
ag3273
aag2671
ag2672
ag2673
a(lp3475
I1169
ag3273
aag2677
ag2678
ag2679
ag2680
a(lp3476
I1174
ag3273
aag2684
ag2685
ag2686
ag2687
ag2688
a(lp3477
I1180
ag3273
aag2692
ag2693
ag2694
ag2695
a(lp3478
I1185
ag3273
aag2698
ag2699
ag2700
ag2701
a(lp3479
I1190
ag3273
aag2705
ag2706
ag2707
a(lp3480
I1194
ag3273
aag2710
ag2711
ag2712
ag2713
ag2714
ag2715
ag2716
ag2717
ag2718
ag2719
a(lp3481
I1205
ag3273
aag2723
ag2724
a(lp3482
I1208
ag3273
aag2728
ag2729
ag2730
ag2731
a(lp3483
I1213
ag3273
aag2734
ag2735
ag2736
ag2737
ag2738
a(lp3484
I1220
ag3273
aag2742
ag2743
ag2744
ag2745
a(lp3485
I1225
ag3273
aag2749
ag2750
ag2751
a(lp3486
I1229
ag3273
aag2755
ag2756
ag2757
a(lp3487
I1233
ag3273
aag2760
ag2761
ag2762
ag2763
a(lp3488
I1238
ag3273
aag2766
ag2767
ag2768
ag2769
ag2770
ag2771
ag2772
ag2773
ag2774
a(lp3489
I1249
ag3273
aag2778
ag2779
ag2780
ag2781
ag2782
a(lp3490
I1255
ag3273
aag2786
ag2787
ag2788
ag2789
a(lp3491
I1260
ag3273
aag2792
ag2793
ag2794
a(lp3492
I1264
ag3273
aag2797
ag2798
ag2799
a(lp3493
I1269
ag3273
aag2803
ag2804
ag2805
ag2806
a(lp3494
I1274
ag3273
aag2810
ag2811
a(lp3495
I1277
ag3273
aag2815
ag2816
ag2817
ag2818
a(lp3496
I1282
ag3273
aag2821
ag2822
ag2823
ag2824
ag2825
a(lp3497
I1288
ag3273
aag2828
ag2829
ag2830
ag2831
ag2832
ag2833
ag2834
ag2835
a(lp3498
I1298
ag3273
aag2839
ag2840
ag2841
ag2842
a(lp3499
I1303
ag3273
aag2846
ag2847
a(lp3500
I1306
ag3273
aag2851
ag2852
ag2853
ag2854
a(lp3501
I1311
ag3273
aag2857
ag2858
ag2859
ag2860
ag2861
a(lp3502
I1317
ag3273
aag2864
ag2865
ag2866
ag2867
ag2868
ag2869
ag2870
ag2871
a(lp3503
I1327
ag3273
aag2875
ag2876
a(lp3504
I1330
ag3273
aag2880
ag2881
ag2882
a(lp3505
I1334
ag3273
aag2886
ag2887
ag2888
ag2889
a(lp3506
I1339
ag3273
aag2893
ag2894
a(lp3507
I1343
ag3273
aag2898
ag2899
ag2900
a(lp3508
I1347
ag3273
aag2903
ag2904
ag2905
ag2906
ag2907
a(lp3509
I1353
ag3273
aag2911
ag2912
ag2913
a(lp3510
I1357
ag3273
aag2916
ag2917
ag2918
ag2919
ag2920
ag2921
a(lp3511
I1364
ag3273
aag2925
ag2926
ag2927
ag2928
ag2929
ag2930
ag2931
ag2932
a(lp3512
I1374
ag3273
aag2936
ag2937
ag2938
ag2939
a(lp3513
I1379
ag3273
aag2943
ag2944
ag2945
a(lp3514
I1383
ag3273
aag2949
ag2950
ag2951
ag2952
a(lp3515
I1388
ag3273
aag2955
ag2956
ag2957
ag2958
ag2959
a(lp3516
I1394
ag3273
aag2963
ag2964
a(lp3517
I1397
ag3273
aag2967
ag2968
ag2969
ag2970
ag2971
ag2972
a(lp3518
I1405
ag3273
aag2976
ag2977
a(lp3519
I1408
ag3273
aag2981
ag2982
ag2983
a(lp3520
I1412
ag3273
aag2986
ag2987
ag2988
ag2989
ag2990
a(lp3521
I1418
ag3273
aag2993
ag2994
ag2995
ag2996
ag2997
ag2998
a(lp3522
I1425
ag3273
aag3002
ag3003
ag3004
ag3005
a(lp3523
I1430
ag3273
aag3009
ag3010
ag3011
a(lp3524
I1434
ag3273
aag3014
ag3015
ag3016
a(lp3525
I1439
ag3273
aag3020
ag3021
ag3022
ag3023
a(lp3526
I1444
ag3273
aag3026
ag3027
ag3028
ag3029
ag3030
a(lp3527
I1450
ag3273
aag3034
ag3035
ag3036
ag3037
a(lp3528
I1455
ag3273
aag3040
ag3041
ag3042
ag3043
ag3044
ag3045
a(lp3529
I1462
ag3273
aag3049
ag3050
a(lp3530
I1466
ag3273
aag3054
ag3055
a(lp3531
I1469
ag3273
aag3059
ag3060
ag3061
a(lp3532
I1473
ag3273
aag3065
ag3066
ag3067
ag3068
a(lp3533
I1478
ag3273
aag3072
ag3073
ag3074
a(lp3534
I1482
ag3273
aag3077
ag3078
ag3079
ag3080
ag3081
ag3082
ag3083
ag3084
ag3085
a(lp3535
I1493
ag3273
aag3088
ag3089
ag3090
a(lp3536
I1497
ag3273
aag3093
ag3094
ag3095
ag3096
ag3097
ag3098
ag3099
a(lp3537
I1505
ag3273
aag3102
a(lp3538
I1507
ag3273
aag3105
ag3106
ag3107
ag3108
ag3109
a(lp3539
I1513
ag3273
aag3113
ag3114
ag3115
a(lp3540
I1517
ag3273
aag3118
ag3119
ag3120
ag3121
ag3122
ag3123
a(lp3541
I1524
ag3273
aag3126
ag3128
a(lp3542
I1527
ag3273
aag3132
ag3133
ag3134
ag3135
ag3136
a(lp3543
I1533
ag3273
aag3140
ag3141
ag3142
ag3143
ag3144
a(lp3544
I1539
ag3273
aag3148
ag3149
ag3150
a(lp3545
I1543
ag3273
aag3153
ag3154
ag3155
ag3156
ag3157
ag3158
ag3159
ag3160
ag3161
ag3162
a(lp3546
I1556
ag3273
aag3165
ag3166
ag3167
ag3168
ag3169
ag3170
ag3171
a(lp3547
I1564
ag3273
aag3175
ag3176
ag3177
a(lp3548
I1568
ag3273
aag3180
ag3181
ag3182
ag3183
a(lp3549
I1573
ag3273
aag3186
ag3187
ag3188
ag3189
ag3190
a(lp3550
I1579
ag3273
aag3194
ag3195
ag3196
a(lp3551
I1583
ag3273
aag3200
ag3201
ag3202
ag3203
a(lp3552
I1588
ag3273
aag3207
ag3208
ag3209
a(lp3553
I1592
ag3273
aag3212
ag3213
ag3214
ag3215
ag3216
ag3217
a(lp3554
I1601
ag3273
aag3221
ag3222
ag3223
ag3224
a(lp3555
I1606
ag3273
aag3228
ag3229
ag3230
ag3231
ag3232
ag3233
a(lp3556
I1613
ag3273
aag3236
a(lp3557
I1615
ag3273
aag3240
ag3241
a(lp3558
I1618
ag3273
aag3245
ag3246
ag3247
ag3248
ag3249
a(lp3559
I1624
ag3273
aag3253
ag3254
ag3255
a(lp3560
I1628
ag3273
aag3258
ag3259
ag3260
ag3261
ag3262
ag3263
ag3264
ag3265
ag3266
a(lp3561
I1639
ag3273
aag3269
asS'text'
p3562
S'q. what should i do to prepare for the interview? research all you can about the employer prepare a neat folder containing your resume, certificates, references, etc. dress appropriately and ensure a high level of hygiene if you are a smoker, avoid smoking for as long as possible immediately prior to your interview arrive 15 minutes early rehearse answers to likely interview questions rehearse the questions you want to ask the employer dress appropriately for the position and industry and ensure a high level of hygieneq. what should i wear to the interview? be sure to bring a copy of your resume and references.\xc2\xa0 it is always helpful to the employer to also see copies of any certificates of achievement or qualification certificates you may have.q. should i bring anything to the interview? these are the sorts of questions you can expect when you attend a job interview. it a good idea to write down answers to these questions, and practice out loud, before each interview.q. what kind of questions will i be asked at the interview? why do you want to work for this company? what kind of job do you hope to hold five years from now? what qualifications do you have which will make you successful in this field? what did you like most/least about your old job? what is your major strength? what is your major weakness? if you were me, why would you employ yourself? what are your ideas on salary? if you could design your own job, what would your duties be? do you have any questions? try sending a thank you letter 24 hours after the interview.\xc2\xa0 chances are youl stand out from the crowd!q. what should i do after the interview? \xc2\xa0'
p3563
sS'cleanWordMap'
p3564
(lp3565
g1204
ag1246
ag1271
ag1284
ag1329
ag1340
ag1352
ag1358
ag1366
ag1386
ag1394
ag1408
ag1420
ag1425
ag1432
ag1453
ag1464
ag1470
ag1482
ag1511
ag1520
ag1527
ag1547
ag1558
ag1568
ag1581
ag1600
ag1611
ag1619
ag1625
ag1634
ag1641
ag1651
ag1665
ag1673
ag1684
ag1695
ag1711
ag1728
ag1739
ag1750
ag1760
ag1767
ag1794
ag1810
ag1826
ag1837
ag1843
ag1855
ag1884
ag1901
ag1917
ag1928
ag1938
ag1956
ag1970
ag1993
ag2001
ag2021
ag2036
ag2042
ag2047
ag2066
ag2085
ag2103
ag2118
ag2138
ag2143
ag2162
ag2169
ag2190
ag2221
ag2233
ag2256
ag2278
ag2289
ag2295
ag2314
ag2320
ag2331
ag2345
ag2367
ag2384
ag2400
ag2422
ag2441
ag2452
ag2478
ag2496
ag2524
ag2535
ag2554
ag2570
ag2581
ag2597
ag2608
ag2614
ag2620
ag2647
ag2696
ag2708
ag2732
ag2758
ag2764
ag2790
ag2795
ag2819
ag2826
ag2855
ag2862
ag2901
ag2914
ag2953
ag2965
ag2984
ag2991
ag3012
ag3024
ag3038
ag3075
ag3086
ag3091
ag3103
ag3116
ag3124
ag3130
ag3151
ag3163
ag3178
ag3184
ag3210
ag3256
ag3267
asS'lines'
p3566
(lp3567
VQ. What should I do to prepare for the interview?\u000a
p3568
aVResearch all you can about the employer\u000a
p3569
aVPrepare a neat folder containing your resume, certificates, references, etc.\u000a
p3570
aVDress appropriately and ensure a high level of hygiene\u000a
p3571
aVIf you are a smoker, avoid smoking for as long as possible immediately prior to your interview\u000a
p3572
aVArrive 15 minutes early\u000a
p3573
aVRehearse answers to likely interview questions\u000a
p3574
aVRehearse the questions you want to ask the employer\u000a
p3575
aVDress appropriately for the position and industry and ensure a high level of hygieneQ. What should I wear to the interview?\u000a
p3576
aVBe sure to bring a copy of your resume and references. It is always helpful to the employer to also see copies of any certificates of achievement or qualification certificates you may have.Q. Should I bring anything to the interview?\u000a
p3577
aVThese are the sorts of questions you can expect when you attend a job interview. It a good idea to write down answers to these questions, and practice out loud, before each interview.Q. What kind of questions will I be asked at the interview?\u000a
p3578
aVWhy do you want to work for this company?\u000a
p3579
aVWhat kind of job do you hope to hold five years from now?\u000a
p3580
aVWhat qualifications do you have which will make you successful in this field?\u000a
p3581
aVWhat did you like most/least about your old job?\u000a
p3582
aVWhat is your major strength?\u000a
p3583
aVWhat is your major weakness?\u000a
p3584
aVIf you were me, why would you employ yourself?\u000a
p3585
aVWhat are your ideas on salary?\u000a
p3586
aVIf you could design your own job, what would your duties be?\u000a
p3587
aVDo you have any questions?\u000a
p3588
aVTry sending a thank you letter 24 hours after the interview. Chances are youl stand out from the crowd!Q. What should I do after the interview?\u000a
p3589
aV
p3590
asS'docType'
p3591
S'src'
p3592
sS'newfmap'
p3593
(lp3594
g4
ag8
ag10
ag12
ag14
ag17
ag19
ag21
ag23
ag26
ag28
ag30
ag32
ag35
ag37
ag39
ag41
ag44
ag46
ag48
ag50
ag53
ag55
ag57
ag59
ag62
ag64
ag66
ag68
ag71
ag73
ag75
ag77
ag80
ag82
ag84
ag86
ag89
ag91
ag93
ag95
ag98
ag100
ag102
ag104
ag107
ag109
ag111
ag113
ag116
ag118
ag120
ag122
ag125
ag127
ag129
ag131
ag134
ag136
ag138
ag140
ag143
ag145
ag147
ag149
ag152
ag154
ag156
ag158
ag161
ag163
ag165
ag167
ag170
ag172
ag174
ag176
ag179
ag181
ag183
ag185
ag188
ag190
ag192
ag194
ag197
ag199
ag201
ag203
ag206
ag208
ag210
ag212
ag215
ag217
ag219
ag221
ag224
ag226
ag228
ag230
ag233
ag235
ag237
ag239
ag242
ag244
ag246
ag248
ag251
ag253
ag255
ag257
ag260
ag262
ag264
ag266
ag269
ag271
ag273
ag275
ag278
ag280
ag282
ag284
ag287
ag289
ag291
ag293
ag296
ag298
ag300
ag302
ag305
ag307
ag309
ag311
ag314
ag316
ag318
ag320
ag323
ag325
ag327
ag329
ag332
ag334
ag336
ag338
ag341
ag343
ag345
ag347
ag350
ag352
ag354
ag356
ag359
ag361
ag363
ag365
ag368
ag370
ag372
ag374
ag377
ag379
ag381
ag383
ag386
ag388
ag390
ag392
ag395
ag397
ag399
ag401
ag404
ag406
ag408
ag410
ag413
ag415
ag417
ag419
ag422
ag424
ag426
ag428
ag431
ag433
ag435
ag437
ag440
ag442
ag444
ag446
ag449
ag451
ag453
ag455
ag458
ag460
ag462
ag464
ag467
ag469
ag471
ag473
ag476
ag478
ag480
ag482
ag485
ag487
ag489
ag491
ag494
ag496
ag498
ag500
ag503
ag505
ag507
ag509
ag512
ag514
ag516
ag518
ag521
ag523
ag525
ag527
ag530
ag532
ag534
ag536
ag539
ag541
ag543
ag545
ag548
ag550
ag552
ag554
ag557
ag559
ag561
ag563
ag566
ag568
ag570
ag572
ag575
ag577
ag579
ag581
ag584
ag586
ag588
ag590
ag593
ag595
ag597
ag599
ag602
ag604
ag606
ag608
ag611
ag613
ag615
ag617
ag620
ag622
ag624
ag626
ag629
ag631
ag633
ag635
ag638
ag640
ag642
ag644
ag647
ag649
ag651
ag653
ag656
ag658
ag660
ag662
ag665
ag667
ag669
ag671
ag674
ag676
ag678
ag680
ag683
ag685
ag687
ag689
ag692
ag694
ag696
ag698
ag701
ag703
ag705
ag707
ag710
ag712
ag714
ag716
ag719
ag721
ag723
ag725
ag728
ag730
ag732
ag734
ag737
ag739
ag741
ag743
ag746
ag748
ag750
ag752
ag755
ag757
ag759
ag761
ag764
ag766
ag768
ag770
ag773
ag775
ag777
ag779
ag782
ag784
ag786
ag788
ag791
ag793
ag795
ag797
ag800
ag802
ag804
ag806
ag809
ag811
ag813
ag815
ag818
ag820
ag822
ag824
ag827
ag829
ag831
ag833
ag836
ag838
ag840
ag842
ag845
ag847
ag849
ag851
ag854
ag856
ag858
ag860
ag863
ag865
ag867
ag869
ag872
ag874
ag876
ag878
ag881
ag883
ag885
ag887
ag890
ag892
ag894
ag896
ag899
ag901
ag903
ag905
ag908
ag910
ag912
ag914
ag917
ag919
ag921
ag923
ag926
ag928
ag930
ag932
ag935
ag937
ag939
ag941
ag944
ag946
ag948
ag950
ag953
ag955
ag957
ag959
ag962
ag964
ag966
ag968
ag971
ag973
ag975
ag977
ag980
ag982
ag984
ag986
ag989
ag991
ag993
ag995
ag998
ag1000
ag1002
ag1004
ag1007
ag1009
ag1011
ag1013
ag1016
ag1018
ag1020
ag1022
ag1025
ag1027
ag1029
ag1031
ag1034
ag1036
ag1038
ag1040
ag1043
ag1045
ag1047
ag1049
ag1052
ag1054
ag1056
ag1058
ag1061
ag1063
ag1065
ag1067
ag1070
ag1072
ag1074
ag1076
ag1079
ag1081
ag1083
ag1085
ag1088
ag1090
ag1092
ag1094
ag1097
ag1099
ag1101
ag1103
ag1106
ag1108
ag1110
ag1112
ag1115
ag1117
ag1119
ag1121
ag1124
ag1126
ag1128
ag1130
ag1133
ag1135
ag1137
ag1139
ag1142
ag1144
ag1146
ag1148
ag1151
ag1153
ag1155
ag1157
ag1160
ag1162
ag1164
ag1166
ag1169
ag1171
ag1173
ag1175
ag1178
ag1180
ag1182
ag1184
ag1187
ag1189
ag1191
ag1193
ag1196
ag1198
ag1200
asS'featureMap'
p3595
(lp3596
(lp3597
I0
aI0
ag5
ag6
ag9
ag11
ag13
aa(lp3598
I23
aI29
ag15
ag16
ag18
ag20
ag22
aa(lp3599
I39
aI47
ag24
ag25
ag27
ag29
ag31
aa(lp3600
I50
aI57
ag33
ag34
ag36
ag38
ag40
aa(lp3601
I81
aI88
ag42
ag43
ag45
ag47
ag49
aa(lp3602
I90
aI96
ag51
ag52
ag54
ag56
ag58
aa(lp3603
I100
aI103
ag60
ag61
ag63
ag65
ag67
aa(lp3604
I105
aI110
ag69
ag70
ag72
ag74
ag76
aa(lp3605
I112
aI121
ag78
ag79
ag81
ag83
ag85
aa(lp3606
I128
aI133
ag87
ag88
ag90
ag92
ag94
aa(lp3607
I136
aI147
ag96
ag97
ag99
ag101
ag103
aa(lp3608
I150
aI159
ag105
ag106
ag108
ag110
ag112
aa(lp3609
I162
aI164
ag114
ag115
ag117
ag119
ag121
aa(lp3610
I167
aI171
ag123
ag124
ag126
ag128
ag130
aa(lp3611
I173
aI185
ag132
ag133
ag135
ag137
ag139
aa(lp3612
I191
aI196
ag141
ag142
ag144
ag146
ag148
aa(lp3613
I200
aI203
ag150
ag151
ag153
ag155
ag157
aa(lp3614
I205
aI209
ag159
ag160
ag162
ag164
ag166
aa(lp3615
I214
aI220
ag168
ag169
ag171
ag173
ag175
aa(lp3616
I235
aI240
ag177
ag178
ag180
ag182
ag184
aa(lp3617
I243
aI247
ag186
ag187
ag189
ag191
ag193
aa(lp3618
I249
aI255
ag195
ag196
ag198
ag200
ag202
aa(lp3619
I264
aI267
ag204
ag205
ag207
ag209
ag211
aa(lp3620
I272
aI279
ag213
ag214
ag216
ag218
ag220
aa(lp3621
I281
aI291
ag222
ag223
ag225
ag227
ag229
aa(lp3622
I293
aI297
ag231
ag232
ag234
ag236
ag238
aa(lp3623
I307
aI315
ag240
ag241
ag243
ag245
ag247
aa(lp3624
I317
aI322
ag249
ag250
ag252
ag254
ag256
aa(lp3625
I324
aI325
ag258
ag259
ag261
ag263
ag265
aa(lp3626
I327
aI333
ag267
ag268
ag270
ag272
ag274
aa(lp3627
I335
aI339
ag276
ag277
ag279
ag281
ag283
aa(lp3628
I341
aI348
ag285
ag286
ag288
ag290
ag292
aa(lp3629
I350
aI356
ag294
ag295
ag297
ag299
ag301
aa(lp3630
I361
aI366
ag303
ag304
ag306
ag308
ag310
aa(lp3631
I368
aI376
ag312
ag313
ag315
ag317
ag319
aa(lp3632
I378
aI386
ag321
ag322
ag324
ag326
ag328
aa(lp3633
I388
aI395
ag330
ag331
ag333
ag335
ag337
aa(lp3634
I401
aI409
ag339
ag340
ag342
ag344
ag346
aa(lp3635
I415
aI418
ag348
ag349
ag351
ag353
ag355
aa(lp3636
I423
aI425
ag357
ag358
ag360
ag362
ag364
aa(lp3637
I431
aI438
ag366
ag367
ag369
ag371
ag373
aa(lp3638
I440
aI444
ag375
ag376
ag378
ag380
ag382
aa(lp3639
I446
aI458
ag384
ag385
ag387
ag389
ag391
aa(lp3640
I468
aI475
ag393
ag394
ag396
ag398
ag400
aa(lp3641
I481
aI488
ag402
ag403
ag405
ag407
ag409
aa(lp3642
I494
aI499
ag411
ag412
ag414
ag416
ag418
aa(lp3643
I503
aI506
ag420
ag421
ag423
ag425
ag427
aa(lp3644
I508
aI512
ag429
ag430
ag432
ag434
ag436
aa(lp3645
I517
aI524
ag438
ag439
ag441
ag443
ag445
aa(lp3646
I541
aI544
ag447
ag448
ag450
ag452
ag454
aa(lp3647
I553
aI561
ag456
ag457
ag459
ag461
ag463
aa(lp3648
I567
aI570
ag465
ag466
ag468
ag470
ag472
aa(lp3649
I575
aI579
ag474
ag475
ag477
ag479
ag481
aa(lp3650
I583
aI586
ag483
ag484
ag486
ag488
ag490
aa(lp3651
I596
aI601
ag492
ag493
ag495
ag497
ag499
aa(lp3652
I607
aI619
ag501
ag502
ag504
ag506
ag508
aa(lp3653
I627
aI632
ag510
ag511
ag513
ag515
ag517
aa(lp3654
I634
aI640
ag519
ag520
ag522
ag524
ag526
aa(lp3655
I649
aI656
ag528
ag529
ag531
ag533
ag535
aa(lp3656
I661
aI664
ag537
ag538
ag540
ag542
ag544
aa(lp3657
I666
aI668
ag546
ag547
ag549
ag551
ag553
aa(lp3658
I670
aI675
ag555
ag556
ag558
ag560
ag562
aa(lp3659
I684
aI695
ag564
ag565
ag567
ag569
ag571
aa(lp3660
I700
aI710
ag573
ag574
ag576
ag578
ag580
aa(lp3661
I715
aI727
ag582
ag583
ag585
ag587
ag589
aa(lp3662
I729
aI740
ag591
ag592
ag594
ag596
ag598
aa(lp3663
I746
aI748
ag600
ag601
ag603
ag605
ag607
aa(lp3664
I750
aI755
ag609
ag610
ag612
ag614
ag616
aa(lp3665
I767
aI771
ag618
ag619
ag621
ag623
ag625
aa(lp3666
I773
aI780
ag627
ag628
ag630
ag632
ag634
aa(lp3667
I789
aI797
ag636
ag637
ag639
ag641
ag643
aa(lp3668
I814
aI818
ag645
ag646
ag648
ag650
ag652
aa(lp3669
I823
aI831
ag654
ag655
ag657
ag659
ag661
aa(lp3670
I841
aI846
ag663
ag664
ag666
ag668
ag670
aa(lp3671
I857
aI862
ag672
ag673
ag675
ag677
ag679
aa(lp3672
I866
aI868
ag681
ag682
ag684
ag686
ag688
aa(lp3673
I870
aI878
ag690
ag691
ag693
ag695
ag697
aa(lp3674
I886
aI889
ag699
ag700
ag702
ag704
ag706
aa(lp3675
I891
aI894
ag708
ag709
ag711
ag713
ag715
aa(lp3676
I899
aI903
ag717
ag718
ag720
ag722
ag724
aa(lp3677
I910
aI916
ag726
ag727
ag729
ag731
ag733
aa(lp3678
I927
aI935
ag735
ag736
ag738
ag740
ag742
aa(lp3679
I942
aI949
ag744
ag745
ag747
ag749
ag751
aa(lp3680
I955
aI958
ag753
ag754
ag756
ag758
ag760
aa(lp3681
I973
aI983
ag762
ag763
ag765
ag767
ag769
aa(lp3682
I991
aI994
ag771
ag772
ag774
ag776
ag778
aa(lp3683
I999
aI1007
ag780
ag781
ag783
ag785
ag787
aa(lp3684
I1019
aI1023
ag789
ag790
ag792
ag794
ag796
aa(lp3685
I1032
aI1040
ag798
ag799
ag801
ag803
ag805
aa(lp3686
I1054
aI1057
ag807
ag808
ag810
ag812
ag814
aa(lp3687
I1062
aI1065
ag816
ag817
ag819
ag821
ag823
aa(lp3688
I1076
aI1082
ag825
ag826
ag828
ag830
ag832
aa(lp3689
I1090
aI1093
ag834
ag835
ag837
ag839
ag841
aa(lp3690
I1098
aI1100
ag843
ag844
ag846
ag848
ag850
aa(lp3691
I1109
aI1112
ag852
ag853
ag855
ag857
ag859
aa(lp3692
I1117
aI1120
ag861
ag862
ag864
ag866
ag868
aa(lp3693
I1122
aI1125
ag870
ag871
ag873
ag875
ag877
aa(lp3694
I1127
aI1131
ag879
ag880
ag882
ag884
ag886
aa(lp3695
I1148
aI1161
ag888
ag889
ag891
ag893
ag895
aa(lp3696
I1186
aI1189
ag897
ag898
ag900
ag902
ag904
aa(lp3697
I1195
aI1204
ag906
ag907
ag909
ag911
ag913
aa(lp3698
I1214
aI1218
ag915
ag916
ag918
ag920
ag922
aa(lp3699
I1234
aI1237
ag924
ag925
ag927
ag929
ag931
aa(lp3700
I1239
aI1248
ag933
ag934
ag936
ag938
ag940
aa(lp3701
I1261
aI1263
ag942
ag943
ag945
ag947
ag949
aa(lp3702
I1265
aI1267
ag951
ag952
ag954
ag956
ag958
aa(lp3703
I1283
aI1287
ag960
ag961
ag963
ag965
ag967
aa(lp3704
I1289
aI1296
ag969
ag970
ag972
ag974
ag976
aa(lp3705
I1312
aI1316
ag978
ag979
ag981
ag983
ag985
aa(lp3706
I1318
aI1325
ag987
ag988
ag990
ag992
ag994
aa(lp3707
I1348
aI1352
ag996
ag997
ag999
ag1001
ag1003
aa(lp3708
I1358
aI1363
ag1005
ag1006
ag1008
ag1010
ag1012
aa(lp3709
I1389
aI1393
ag1014
ag1015
ag1017
ag1019
ag1021
aa(lp3710
I1398
aI1403
ag1023
ag1024
ag1026
ag1028
ag1030
aa(lp3711
I1413
aI1417
ag1032
ag1033
ag1035
ag1037
ag1039
aa(lp3712
I1419
aI1424
ag1041
ag1042
ag1044
ag1046
ag1048
aa(lp3713
I1435
aI1437
ag1050
ag1051
ag1053
ag1055
ag1057
aa(lp3714
I1445
aI1449
ag1059
ag1060
ag1062
ag1064
ag1066
aa(lp3715
I1456
aI1461
ag1068
ag1069
ag1071
ag1073
ag1075
aa(lp3716
I1483
aI1491
ag1077
ag1078
ag1080
ag1082
ag1084
aa(lp3717
I1494
aI1496
ag1086
ag1087
ag1089
ag1091
ag1093
aa(lp3718
I1498
aI1504
ag1095
ag1096
ag1098
ag1100
ag1102
aa(lp3719
I1508
aI1512
ag1104
ag1105
ag1107
ag1109
ag1111
aa(lp3720
I1518
aI1523
ag1113
ag1114
ag1116
ag1118
ag1120
aa(lp3721
I1525
aI1526
ag1122
ag1123
ag1125
ag1127
ag1129
aa(lp3722
I1528
aI1532
ag1131
ag1132
ag1134
ag1136
ag1138
aa(lp3723
I1544
aI1555
ag1140
ag1141
ag1143
ag1145
ag1147
aa(lp3724
I1557
aI1563
ag1149
ag1150
ag1152
ag1154
ag1156
aa(lp3725
I1569
aI1572
ag1158
ag1159
ag1161
ag1163
ag1165
aa(lp3726
I1574
aI1578
ag1167
ag1168
ag1170
ag1172
ag1174
aa(lp3727
I1593
aI1599
ag1176
ag1177
ag1179
ag1181
ag1183
aa(lp3728
I1629
aI1637
ag1185
ag1186
ag1188
ag1190
ag1192
aa(lp3729
I1629
aI1637
ag1194
ag1195
ag1197
ag1199
ag1201
aasS'characterMap'
p3730
(lp3731
g1206
a(lp3732
I1
aS'.'
p3733
aag3272
ag1210
ag1212
ag1214
ag1216
ag3274
ag1221
ag1223
ag1224
ag1226
ag1228
ag1230
ag3275
ag1235
ag3276
ag1239
ag1240
ag3277
ag1244
ag1245
ag3278
ag1248
ag1250
ag1252
ag1254
ag1255
ag1256
ag1257
ag3279
ag1261
ag1263
ag1264
ag3280
ag1268
ag1269
ag1270
ag3281
ag1273
ag1274
ag1276
ag1277
ag1278
ag1279
ag1281
ag1282
ag1283
a(lp3734
I48
aS'?'
p3735
aag3282
ag1286
ag1287
ag1288
ag1289
ag1290
ag1291
ag1292
ag1294
ag3283
ag1298
ag1299
ag1300
ag3284
ag1304
ag1306
ag1307
ag3285
ag1311
ag1312
ag1313
ag3286
ag1317
ag1318
ag1320
ag1321
ag1322
ag3287
ag1326
ag1327
ag1328
ag3288
ag1331
ag1332
ag1334
ag1335
ag1336
ag1337
ag1338
ag1339
ag3289
ag1342
ag1343
ag1344
ag1345
ag1346
ag1347
ag1348
ag3290
ag1351
ag3291
ag1354
ag1355
ag1356
ag1357
ag3292
ag1360
ag1361
ag1362
ag1363
ag1364
ag1365
ag3293
ag1368
ag1369
ag1370
ag1371
ag1372
ag1373
ag1374
ag1375
ag1376
ag1377
ag3294
ag1382
ag1383
ag1384
ag1385
ag3295
ag1388
ag1389
ag1390
ag1391
ag1392
ag1393
a(lp3736
I134
aS','
p3737
aag3296
ag1396
ag1397
ag1398
ag1399
ag1400
ag1401
ag1402
ag1403
ag1404
ag1405
ag1406
ag1407
a(lp3738
I148
ag3737
aag3297
ag1410
ag1411
ag1412
ag1413
ag1414
ag1415
ag1416
ag1417
ag1418
ag1419
a(lp3739
I160
ag3737
aag3298
ag1422
ag1423
ag1424
a(lp3740
I165
ag3733
aag3299
ag1427
ag1428
ag1429
ag1430
ag1431
ag3300
ag1434
ag1435
ag1436
ag1437
ag1438
ag1439
ag1440
ag1441
ag1442
ag1443
ag1444
ag1445
ag1446
ag3301
ag1450
ag1451
ag1452
ag3302
ag1455
ag1456
ag1457
ag1458
ag1459
ag1460
ag3303
ag1463
ag3304
ag1466
ag1467
ag1468
ag1469
ag3305
ag1472
ag1473
ag1474
ag1475
ag1476
ag3306
ag1480
ag1481
ag3307
ag1484
ag1485
ag1486
ag1487
ag1488
ag1489
ag1490
ag3308
ag1494
ag1495
ag3309
ag1499
ag1500
ag1501
ag3310
ag1505
ag1506
ag1507
ag3311
ag1510
ag3312
ag1513
ag1514
ag1515
ag1516
ag1518
ag1519
a(lp3741
I241
ag3737
aag3313
ag1522
ag1523
ag1524
ag1525
ag1526
ag3314
ag1529
ag1530
ag1531
ag1532
ag1533
ag1534
ag1535
ag3315
ag1539
ag1540
ag1541
ag3316
ag1545
ag1546
ag3317
ag1549
ag1550
ag1551
ag1552
ag3318
ag1556
ag1557
ag3319
ag1560
ag1561
ag1562
ag1563
ag1564
ag1565
ag1566
ag1567
ag3320
ag1570
ag1571
ag1572
ag1573
ag1574
ag1575
ag1576
ag1577
ag1578
ag1579
ag1580
ag3321
ag1583
ag1584
ag1585
ag1586
ag1587
ag3322
ag1591
ag1592
ag3323
ag1596
ag1597
ag1598
ag1599
ag3324
ag1602
ag1603
ag1604
ag1605
ag1606
ag1607
ag1608
ag1609
ag1610
ag3325
ag1613
ag1614
ag1615
ag1616
ag1617
ag1618
ag3326
ag1621
ag1623
ag3327
ag1627
ag1628
ag1629
ag1630
ag1631
ag1632
ag1633
ag3328
ag1636
ag1637
ag1638
ag1639
ag1640
ag3329
ag1643
ag1644
ag1645
ag1646
ag1647
ag1648
ag1649
ag1650
ag3330
ag1653
ag1654
ag1655
ag1656
ag1657
ag1658
ag1659
ag3331
ag1663
ag1664
ag3332
ag1667
ag1668
ag1669
ag1670
ag1671
ag1672
ag3333
ag1675
ag1676
ag1677
ag1678
ag1679
ag1680
ag1681
ag1682
ag1683
ag3334
ag1686
ag1687
ag1688
ag1689
ag1690
ag1691
ag1692
ag1693
ag1694
ag3335
ag1697
ag1698
ag1699
ag1700
ag1701
ag1702
ag1703
ag1704
ag3336
ag1708
ag1709
ag1710
ag3337
ag1713
ag1714
ag1715
ag1716
ag1717
ag1718
ag1719
ag1720
ag1721
ag3338
ag1725
ag1726
ag1727
ag3339
ag1730
ag1731
ag1732
ag1733
ag3340
ag1737
ag1738
ag3341
ag1741
ag1742
ag1743
ag3342
ag1747
ag1748
ag1749
ag3343
ag1752
ag1753
ag1754
ag1755
ag1756
ag1757
ag1758
ag1759
ag3344
ag1762
ag1763
ag1764
ag1765
ag1766
ag3345
ag1769
ag1770
ag1771
ag1772
ag1773
ag1774
ag1775
ag1776
ag1777
ag1778
ag1779
ag1780
ag1781
ag3346
ag1785
ag1786
ag1787
ag3347
ag1791
ag1792
ag1793
ag3348
ag1796
ag1797
ag1798
ag1799
ag1800
ag1801
ag1802
ag1803
ag3349
ag1807
ag1808
ag1809
ag3350
ag1812
ag1813
ag1814
ag1815
ag1816
ag1817
ag1818
ag1819
ag3351
ag1823
ag1824
ag1825
ag3352
ag1828
ag1829
ag1830
ag1831
ag1832
ag1833
ag3353
ag1836
ag3354
ag1839
ag1840
ag1841
ag1842
ag3355
ag1845
ag1846
ag1847
ag1848
ag1849
ag3356
ag1853
ag1854
ag3357
ag1857
ag1858
ag1859
ag1860
ag1861
ag1862
ag1863
ag1864
a(lp3742
I525
ag3733
aag3358
ag1868
ag1869
ag1870
ag1871
ag3359
ag1875
ag1876
ag1877
ag1878
ag1879
ag1880
ag3360
ag1883
ag3361
ag1886
ag1887
ag1888
ag1889
ag3362
ag1893
ag1894
ag3363
ag1898
ag1899
ag1900
ag3364
ag1903
ag1904
ag1905
ag1906
ag1907
ag1908
ag1909
ag1910
ag1911
a(lp3743
I562
ag3735
aag3365
ag1915
ag1916
ag3366
ag1919
ag1920
ag1921
ag1922
ag3367
ag1926
ag1927
ag3368
ag1930
ag1931
ag1932
ag1933
ag1934
ag3369
ag1937
ag3370
ag1940
ag1941
ag1942
ag1943
ag3371
ag1947
ag1948
ag3372
ag1952
ag1953
ag1954
ag1955
ag3373
ag1958
ag1959
ag1960
ag1961
ag1962
ag1963
ag3374
ag1967
ag1968
ag1969
ag3375
ag1972
ag1973
ag1974
ag1975
ag1976
ag1977
ag1978
ag1979
ag1980
ag1981
a(lp3744
I617
ag3733
aa(lp3745
I618
aS'\xc2'
p3746
aag1982
ag3376
ag1986
ag1987
ag3377
ag1991
ag1992
ag3378
ag1995
ag1996
ag1997
ag1998
ag1999
ag2000
ag3379
ag2003
ag2004
ag2005
ag2006
ag2007
ag2008
ag2009
ag3380
ag2013
ag2014
ag3381
ag2018
ag2019
ag2020
ag3382
ag2023
ag2024
ag2025
ag2026
ag2027
ag2028
ag2029
ag2030
ag3383
ag2034
ag2035
ag3384
ag2038
ag2039
ag2040
ag2041
ag3385
ag2044
ag2045
ag2046
ag3386
ag2049
ag2050
ag2051
ag2052
ag2053
ag2054
ag3387
ag2058
ag2059
ag3388
ag2063
ag2064
ag2065
ag3389
ag2068
ag2069
ag2070
ag2071
ag2072
ag2073
ag2074
ag2075
ag2076
ag2077
ag2078
ag2079
ag3390
ag2083
ag2084
ag3391
ag2087
ag2088
ag2089
ag2090
ag2091
ag2092
ag2093
ag2094
ag2095
ag2096
ag2097
ag3392
ag2101
ag2102
ag3393
ag2105
ag2106
ag2107
ag2108
ag2109
ag2110
ag2111
ag2112
ag2113
ag2114
ag2115
ag2116
ag2117
ag3394
ag2120
ag2121
ag2122
ag2123
ag2124
ag2125
ag2126
ag2127
ag2128
ag2129
ag2130
ag2131
ag3395
ag2135
ag2136
ag2137
ag3396
ag2140
ag2141
ag2142
ag3397
ag2145
ag2146
ag2147
ag2148
a(lp3747
I754
ag3733
aag2149
a(lp3748
I756
ag3733
aag3398
ag2153
ag2154
ag2155
ag2156
ag2157
ag2158
ag3399
ag2161
ag3400
ag2164
ag2165
ag2166
ag2167
ag2168
ag3401
ag2171
ag2172
ag2173
ag2174
ag2175
ag2176
ag2177
ag2178
ag3402
ag2182
ag2183
ag3403
ag2187
ag2188
ag2189
ag3404
ag2192
ag2193
ag2194
ag2195
ag2196
ag2197
ag2198
ag2199
ag2200
a(lp3749
I798
ag3735
aag3405
ag2204
ag2205
ag2206
ag2207
ag2208
ag3406
ag2212
ag2213
ag2214
ag3407
ag2218
ag2219
ag2220
ag3408
ag2223
ag2224
ag2225
ag2226
ag2227
ag3409
ag2231
ag2232
ag3410
ag2235
ag2236
ag2237
ag2238
ag2239
ag2240
ag2241
ag2242
ag2243
ag3411
ag2247
ag2248
ag2249
ag3412
ag2253
ag2254
ag2255
ag3413
ag2258
ag2259
ag2261
ag2262
ag2263
ag2264
ag3414
ag2268
ag2269
ag2270
ag2271
ag3415
ag2275
ag2276
ag2277
ag3416
ag2280
ag2281
ag2282
ag2283
ag2284
ag2285
ag3417
ag2288
ag3418
ag2291
ag2293
ag2294
ag3419
ag2297
ag2298
ag2299
ag2300
ag2301
ag2302
ag2303
ag2304
ag2305
a(lp3750
I879
ag3733
aag3420
ag2309
ag2310
ag3421
ag2313
ag3422
ag2316
ag2317
ag2318
ag2319
ag3423
ag2322
ag2323
ag2324
ag2325
ag3424
ag2329
ag2330
ag3425
ag2333
ag2334
ag2335
ag2336
ag2337
ag3426
ag2341
ag2342
ag2343
ag2344
ag3427
ag2347
ag2348
ag2349
ag2350
ag2351
ag2352
ag2353
ag3428
ag2357
ag2358
ag3429
ag2362
ag2363
ag2364
ag2365
ag2366
ag3430
ag2369
ag2370
ag2371
ag2372
ag2373
ag2374
ag2375
ag2376
ag2377
a(lp3751
I936
ag3737
aag3431
ag2381
ag2382
ag2383
ag3432
ag2386
ag2387
ag2388
ag2389
ag2390
ag2391
ag2392
ag2393
ag3433
ag2397
ag2398
ag2399
ag3434
ag2402
ag2403
ag2404
ag2405
a(lp3752
I959
ag3737
aag3435
ag2409
ag2410
ag2411
ag2412
ag2413
ag2414
ag3436
ag2418
ag2419
ag2420
ag2421
ag3437
ag2424
ag2425
ag2426
ag2427
ag2428
ag2429
ag2430
ag2431
ag2432
a(lp3753
I982
ag3733
aag2433
a(lp3754
I984
ag3733
aag3438
ag2437
ag2438
ag2439
ag2440
ag3439
ag2443
ag2444
ag2445
ag2446
ag3440
ag2450
ag2451
ag3441
ag2454
ag2455
ag2456
ag2457
ag2458
ag2459
ag2460
ag2461
ag2462
ag3442
ag2466
ag2467
ag2468
ag2469
ag3443
ag2472
ag3444
ag2476
ag2477
ag3445
ag2480
ag2481
ag2482
ag2483
ag2484
ag3446
ag2488
ag2489
ag3447
ag2493
ag2494
ag2495
ag3448
ag2498
ag2499
ag2500
ag2501
ag2502
ag2503
ag2504
ag2505
ag2506
a(lp3755
I1041
ag3735
aag3449
ag2510
ag2511
ag2512
ag3450
ag2516
ag2517
ag3451
ag2521
ag2522
ag2523
ag3452
ag2526
ag2527
ag2528
ag2529
ag3453
ag2533
ag2534
ag3454
ag2537
ag2538
ag2539
ag2540
ag3455
ag2544
ag2545
ag2546
ag3456
ag2550
ag2551
ag2552
ag2553
ag3457
ag2556
ag2557
ag2558
ag2559
ag2560
ag2561
ag2562
a(lp3756
I1083
ag3735
aag3458
ag2566
ag2567
ag2568
ag2569
ag3459
ag2572
ag2573
ag2574
ag2575
ag3460
ag2579
ag2580
ag3461
ag2583
ag2584
ag2585
ag3462
ag2589
ag2590
ag3463
ag2594
ag2595
ag2596
ag3464
ag2599
ag2600
ag2601
ag2602
ag3465
ag2606
ag2607
ag3466
ag2610
ag2611
ag2612
ag2613
ag3467
ag2616
ag2617
ag2618
ag2619
ag3468
ag2622
ag2623
ag2624
ag2625
ag2626
ag3469
ag2630
ag2631
ag2632
ag2633
ag3470
ag2637
ag2638
ag2639
a(lp3757
I1141
ag3735
aag3471
ag2643
ag2644
ag2645
ag2646
ag3472
ag2649
ag2650
ag2651
ag2652
ag2653
ag2654
ag2655
ag2656
ag2657
ag2658
ag2659
ag2660
ag2661
ag2662
ag3473
ag2666
ag2667
ag3474
ag2671
ag2672
ag2673
ag3475
ag2677
ag2678
ag2679
ag2680
ag3476
ag2684
ag2685
ag2686
ag2687
ag2688
ag3477
ag2692
ag2693
ag2694
ag2695
ag3478
ag2698
ag2699
ag2700
ag2701
ag3479
ag2705
ag2706
ag2707
ag3480
ag2710
ag2711
ag2712
ag2713
ag2714
ag2715
ag2716
ag2717
ag2718
ag2719
ag3481
ag2723
ag2724
ag3482
ag2728
ag2729
ag2730
ag2731
ag3483
ag2734
ag2735
ag2736
ag2737
ag2738
a(lp3758
I1219
ag3735
aag3484
ag2742
ag2743
ag2744
ag2745
ag3485
ag2749
ag2750
ag2751
ag3486
ag2755
ag2756
ag2757
ag3487
ag2760
ag2761
ag2762
ag2763
ag3488
ag2766
ag2767
ag2768
ag2769
a(lp3759
I1243
aS'/'
p3760
aag2770
ag2771
ag2772
ag2773
ag2774
ag3489
ag2778
ag2779
ag2780
ag2781
ag2782
ag3490
ag2786
ag2787
ag2788
ag2789
ag3491
ag2792
ag2793
ag2794
ag3492
ag2797
ag2798
ag2799
a(lp3761
I1268
ag3735
aag3493
ag2803
ag2804
ag2805
ag2806
ag3494
ag2810
ag2811
ag3495
ag2815
ag2816
ag2817
ag2818
ag3496
ag2821
ag2822
ag2823
ag2824
ag2825
ag3497
ag2828
ag2829
ag2830
ag2831
ag2832
ag2833
ag2834
ag2835
a(lp3762
I1297
ag3735
aag3498
ag2839
ag2840
ag2841
ag2842
ag3499
ag2846
ag2847
ag3500
ag2851
ag2852
ag2853
ag2854
ag3501
ag2857
ag2858
ag2859
ag2860
ag2861
ag3502
ag2864
ag2865
ag2866
ag2867
ag2868
ag2869
ag2870
ag2871
a(lp3763
I1326
ag3735
aag3503
ag2875
ag2876
ag3504
ag2880
ag2881
ag2882
ag3505
ag2886
ag2887
ag2888
ag2889
ag3506
ag2893
ag2894
a(lp3764
I1342
ag3737
aag3507
ag2898
ag2899
ag2900
ag3508
ag2903
ag2904
ag2905
ag2906
ag2907
ag3509
ag2911
ag2912
ag2913
ag3510
ag2916
ag2917
ag2918
ag2919
ag2920
ag2921
ag3511
ag2925
ag2926
ag2927
ag2928
ag2929
ag2930
ag2931
ag2932
a(lp3765
I1373
ag3735
aag3512
ag2936
ag2937
ag2938
ag2939
ag3513
ag2943
ag2944
ag2945
ag3514
ag2949
ag2950
ag2951
ag2952
ag3515
ag2955
ag2956
ag2957
ag2958
ag2959
ag3516
ag2963
ag2964
ag3517
ag2967
ag2968
ag2969
ag2970
ag2971
ag2972
a(lp3766
I1404
ag3735
aag3518
ag2976
ag2977
ag3519
ag2981
ag2982
ag2983
ag3520
ag2986
ag2987
ag2988
ag2989
ag2990
ag3521
ag2993
ag2994
ag2995
ag2996
ag2997
ag2998
ag3522
ag3002
ag3003
ag3004
ag3005
ag3523
ag3009
ag3010
ag3011
ag3524
ag3014
ag3015
ag3016
a(lp3767
I1438
ag3737
aag3525
ag3020
ag3021
ag3022
ag3023
ag3526
ag3026
ag3027
ag3028
ag3029
ag3030
ag3527
ag3034
ag3035
ag3036
ag3037
ag3528
ag3040
ag3041
ag3042
ag3043
ag3044
ag3045
ag3529
ag3049
ag3050
a(lp3768
I1465
ag3735
aag3530
ag3054
ag3055
ag3531
ag3059
ag3060
ag3061
ag3532
ag3065
ag3066
ag3067
ag3068
ag3533
ag3072
ag3073
ag3074
ag3534
ag3077
ag3078
ag3079
ag3080
ag3081
ag3082
ag3083
ag3084
ag3085
a(lp3769
I1492
ag3735
aag3535
ag3088
ag3089
ag3090
ag3536
ag3093
ag3094
ag3095
ag3096
ag3097
ag3098
ag3099
ag3537
ag3102
ag3538
ag3105
ag3106
ag3107
ag3108
ag3109
ag3539
ag3113
ag3114
ag3115
ag3540
ag3118
ag3119
ag3120
ag3121
ag3122
ag3123
ag3541
ag3126
ag3128
ag3542
ag3132
ag3133
ag3134
ag3135
ag3136
ag3543
ag3140
ag3141
ag3142
ag3143
ag3144
ag3544
ag3148
ag3149
ag3150
ag3545
ag3153
ag3154
ag3155
ag3156
ag3157
ag3158
ag3159
ag3160
ag3161
a(lp3770
I1553
ag3733
aa(lp3771
I1554
ag3746
aag3162
ag3546
ag3165
ag3166
ag3167
ag3168
ag3169
ag3170
ag3171
ag3547
ag3175
ag3176
ag3177
ag3548
ag3180
ag3181
ag3182
ag3183
ag3549
ag3186
ag3187
ag3188
ag3189
ag3190
ag3550
ag3194
ag3195
ag3196
ag3551
ag3200
ag3201
ag3202
ag3203
ag3552
ag3207
ag3208
ag3209
ag3553
ag3212
ag3213
ag3214
ag3215
ag3216
a(lp3772
I1598
aS'!'
p3773
aag3217
a(lp3774
I1600
ag3733
aag3554
ag3221
ag3222
ag3223
ag3224
ag3555
ag3228
ag3229
ag3230
ag3231
ag3232
ag3233
ag3556
ag3236
ag3557
ag3240
ag3241
ag3558
ag3245
ag3246
ag3247
ag3248
ag3249
ag3559
ag3253
ag3254
ag3255
ag3560
ag3258
ag3259
ag3260
ag3261
ag3262
ag3263
ag3264
ag3265
ag3266
a(lp3775
I1638
ag3735
aag3561
a(lp3776
I1640
ag3746
aag3269
asS'docName'
p3777
S'source-document02868.txt'
p3778
sb.