(iModel.Document
Document
p0
(dp1
S'fmap'
p2
(lp3
(lp4
I0
aI5
aS'disney'
p5
a(lp6
S'*'
p7
ag5
aaa(lp8
I0
aI5
ag5
a(lp9
g7
ag5
aaa(lp10
I0
aI5
ag5
a(lp11
g7
ag5
aaa(lp12
I0
aI5
ag5
a(lp13
g7
ag5
aaa(lp14
I14
aI17
aS'free'
p15
a(lp16
g5
ag15
aaa(lp17
I14
aI17
ag15
a(lp18
g7
ag15
aaa(lp19
I14
aI17
ag15
a(lp20
g7
ag15
aaa(lp21
I14
aI17
ag15
a(lp22
g7
ag15
aaa(lp23
I19
aI23
aS'shock'
p24
a(lp25
g15
ag24
aaa(lp26
I19
aI23
ag24
a(lp27
g5
ag24
aaa(lp28
I19
aI23
ag24
a(lp29
g7
ag24
aaa(lp30
I19
aI23
ag24
a(lp31
g7
ag24
aaa(lp32
I25
aI28
aS'wave'
p33
a(lp34
g24
ag33
aaa(lp35
I25
aI28
ag33
a(lp36
g15
ag33
aaa(lp37
I25
aI28
ag33
a(lp38
g5
ag33
aaa(lp39
I25
aI28
ag33
a(lp40
g7
ag33
aaa(lp41
I30
aI33
aS'game'
p42
a(lp43
g33
ag42
aaa(lp44
I30
aI33
ag42
a(lp45
g24
ag42
aaa(lp46
I30
aI33
ag42
a(lp47
g15
ag42
aaa(lp48
I30
aI33
ag42
a(lp49
g5
ag42
aaa(lp50
I40
aI45
aS'disney'
p51
a(lp52
g42
ag51
aaa(lp53
I40
aI45
ag51
a(lp54
g33
ag51
aaa(lp55
I40
aI45
ag51
a(lp56
g24
ag51
aaa(lp57
I40
aI45
ag51
a(lp58
g15
ag51
aaa(lp59
I60
aI67
aS'bringing'
p60
a(lp61
g51
ag60
aaa(lp62
I60
aI67
ag60
a(lp63
g42
ag60
aaa(lp64
I60
aI67
ag60
a(lp65
g33
ag60
aaa(lp66
I60
aI67
ag60
a(lp67
g24
ag60
aaa(lp68
I81
aI89
aS'dalmation'
p69
a(lp70
g60
ag69
aaa(lp71
I81
aI89
ag69
a(lp72
g51
ag69
aaa(lp73
I81
aI89
ag69
a(lp74
g42
ag69
aaa(lp75
I81
aI89
ag69
a(lp76
g33
ag69
aaa(lp77
I92
aI95
aS'help'
p78
a(lp79
g69
ag78
aaa(lp80
I92
aI95
ag78
a(lp81
g60
ag78
aaa(lp82
I92
aI95
ag78
a(lp83
g51
ag78
aaa(lp84
I92
aI95
ag78
a(lp85
g42
ag78
aaa(lp86
I102
aI106
aS'puppy'
p87
a(lp88
g78
ag87
aaa(lp89
I102
aI106
ag87
a(lp90
g69
ag87
aaa(lp91
I102
aI106
ag87
a(lp92
g60
ag87
aaa(lp93
I102
aI106
ag87
a(lp94
g51
ag87
aaa(lp95
I111
aI113
aS'eat'
p96
a(lp97
g87
ag96
aaa(lp98
I111
aI113
ag96
a(lp99
g78
ag96
aaa(lp100
I111
aI113
ag96
a(lp101
g69
ag96
aaa(lp102
I111
aI113
ag96
a(lp103
g60
ag96
aaa(lp104
I116
aI120
aS'sleep'
p105
a(lp106
g96
ag105
aaa(lp107
I116
aI120
ag105
a(lp108
g87
ag105
aaa(lp109
I116
aI120
ag105
a(lp110
g78
ag105
aaa(lp111
I116
aI120
ag105
a(lp112
g69
ag105
aaa(lp113
I123
aI126
aS'play'
p114
a(lp115
g105
ag114
aaa(lp116
I123
aI126
ag114
a(lp117
g96
ag114
aaa(lp118
I123
aI126
ag114
a(lp119
g87
ag114
aaa(lp120
I123
aI126
ag114
a(lp121
g78
ag114
aaa(lp122
I140
aI143
aS'keep'
p123
a(lp124
g114
ag123
aaa(lp125
I140
aI143
ag123
a(lp126
g105
ag123
aaa(lp127
I140
aI143
ag123
a(lp128
g96
ag123
aaa(lp129
I140
aI143
ag123
a(lp130
g87
ag123
aaa(lp131
I148
aI151
aS'warm'
p132
a(lp133
g123
ag132
aaa(lp134
I148
aI151
ag132
a(lp135
g114
ag132
aaa(lp136
I148
aI151
ag132
a(lp137
g105
ag132
aaa(lp138
I148
aI151
ag132
a(lp139
g96
ag132
aaa(lp140
I165
aI169
aS'would'
p141
a(lp142
g132
ag141
aaa(lp143
I165
aI169
ag141
a(lp144
g123
ag141
aaa(lp145
I165
aI169
ag141
a(lp146
g114
ag141
aaa(lp147
I165
aI169
ag141
a(lp148
g105
ag141
aaa(lp149
I176
aI179
aS'real'
p150
a(lp151
g141
ag150
aaa(lp152
I176
aI179
ag150
a(lp153
g132
ag150
aaa(lp154
I176
aI179
ag150
a(lp155
g123
ag150
aaa(lp156
I176
aI179
ag150
a(lp157
g114
ag150
aaa(lp158
I181
aI183
aS'pet'
p159
a(lp160
g150
ag159
aaa(lp161
I181
aI183
ag159
a(lp162
g141
ag159
aaa(lp163
I181
aI183
ag159
a(lp164
g132
ag159
aaa(lp165
I181
aI183
ag159
a(lp166
g123
ag159
aaa(lp167
I191
aI195
aS'shock'
p168
a(lp169
g159
ag168
aaa(lp170
I191
aI195
ag168
a(lp171
g150
ag168
aaa(lp172
I191
aI195
ag168
a(lp173
g141
ag168
aaa(lp174
I191
aI195
ag168
a(lp175
g132
ag168
aaa(lp176
I197
aI200
aS'wave'
p177
a(lp178
g168
ag177
aaa(lp179
I197
aI200
ag177
a(lp180
g159
ag177
aaa(lp181
I197
aI200
ag177
a(lp182
g150
ag177
aaa(lp183
I197
aI200
ag177
a(lp184
g141
ag177
aaa(lp185
I202
aI205
aS'game'
p186
a(lp187
g177
ag186
aaa(lp188
I202
aI205
ag186
a(lp189
g168
ag186
aaa(lp190
I202
aI205
ag186
a(lp191
g159
ag186
aaa(lp192
I202
aI205
ag186
a(lp193
g150
ag186
aaa(lp194
I207
aI211
aS'saves'
p195
a(lp196
g186
ag195
aaa(lp197
I207
aI211
ag195
a(lp198
g177
ag195
aaa(lp199
I207
aI211
ag195
a(lp200
g168
ag195
aaa(lp201
I207
aI211
ag195
a(lp202
g159
ag195
aaa(lp203
I231
aI234
aS'come'
p204
a(lp205
g195
ag204
aaa(lp206
I231
aI234
ag204
a(lp207
g186
ag204
aaa(lp208
I231
aI234
ag204
a(lp209
g177
ag204
aaa(lp210
I231
aI234
ag204
a(lp211
g168
ag204
aaa(lp212
I236
aI239
aS'back'
p213
a(lp214
g204
ag213
aaa(lp215
I236
aI239
ag213
a(lp216
g195
ag213
aaa(lp217
I236
aI239
ag213
a(lp218
g186
ag213
aaa(lp219
I236
aI239
ag213
a(lp220
g177
ag213
aaa(lp221
I252
aI256
aS'later'
p222
a(lp223
g213
ag222
aaa(lp224
I252
aI256
ag222
a(lp225
g204
ag222
aaa(lp226
I252
aI256
ag222
a(lp227
g195
ag222
aaa(lp228
I252
aI256
ag222
a(lp229
g186
ag222
aaa(lp230
I258
aI261
aS'date'
p231
a(lp232
g222
ag231
aaa(lp233
I258
aI261
ag231
a(lp234
g213
ag231
aaa(lp235
I258
aI261
ag231
a(lp236
g204
ag231
aaa(lp237
I258
aI261
ag231
a(lp238
g195
ag231
aaa(lp239
I274
aI277
aS'free'
p240
a(lp241
g231
ag240
aaa(lp242
I274
aI277
ag240
a(lp243
g222
ag240
aaa(lp244
I274
aI277
ag240
a(lp245
g213
ag240
aaa(lp246
I274
aI277
ag240
a(lp247
g204
ag240
aaa(lp248
I279
aI283
aS'shock'
p249
a(lp250
g240
ag249
aaa(lp251
I279
aI283
ag249
a(lp252
g231
ag249
aaa(lp253
I279
aI283
ag249
a(lp254
g222
ag249
aaa(lp255
I279
aI283
ag249
a(lp256
g213
ag249
aaa(lp257
I285
aI288
aS'wave'
p258
a(lp259
g249
ag258
aaa(lp260
I285
aI288
ag258
a(lp261
g240
ag258
aaa(lp262
I285
aI288
ag258
a(lp263
g231
ag258
aaa(lp264
I285
aI288
ag258
a(lp265
g222
ag258
aaa(lp266
I290
aI293
aS'game'
p267
a(lp268
g258
ag267
aaa(lp269
I290
aI293
ag267
a(lp270
g249
ag267
aaa(lp271
I290
aI293
ag267
a(lp272
g240
ag267
aaa(lp273
I290
aI293
ag267
a(lp274
g231
ag267
aaa(lp275
I307
aI310
aS'help'
p276
a(lp277
g267
ag276
aaa(lp278
I307
aI310
ag276
a(lp279
g258
ag276
aaa(lp280
I307
aI310
ag276
a(lp281
g249
ag276
aaa(lp282
I307
aI310
ag276
a(lp283
g240
ag276
aaa(lp284
I316
aI318
aS'101'
p285
a(lp286
g276
ag285
aaa(lp287
I316
aI318
ag285
a(lp288
g267
ag285
aaa(lp289
I316
aI318
ag285
a(lp290
g258
ag285
aaa(lp291
I316
aI318
ag285
a(lp292
g249
ag285
aaa(lp293
I320
aI329
aS'dalmations'
p294
a(lp295
g285
ag294
aaa(lp296
I320
aI329
ag294
a(lp297
g276
ag294
aaa(lp298
I320
aI329
ag294
a(lp299
g267
ag294
aaa(lp300
I320
aI329
ag294
a(lp301
g258
ag294
aaa(lp302
I331
aI335
aS'round'
p303
a(lp304
g294
ag303
aaa(lp305
I331
aI335
ag303
a(lp306
g285
ag303
aaa(lp307
I331
aI335
ag303
a(lp308
g276
ag303
aaa(lp309
I331
aI335
ag303
a(lp310
g267
ag303
aaa(lp311
I353
aI358
aS'animal'
p312
a(lp313
g303
ag312
aaa(lp314
I353
aI358
ag312
a(lp315
g294
ag312
aaa(lp316
I353
aI358
ag312
a(lp317
g285
ag312
aaa(lp318
I353
aI358
ag312
a(lp319
g276
ag312
aaa(lp320
I360
aI366
aS'friends'
p321
a(lp322
g312
ag321
aaa(lp323
I360
aI366
ag321
a(lp324
g303
ag321
aaa(lp325
I360
aI366
ag321
a(lp326
g294
ag321
aaa(lp327
I360
aI366
ag321
a(lp328
g285
ag321
aaa(lp329
I376
aI382
aS'cruella'
p330
a(lp331
g321
ag330
aaa(lp332
I376
aI382
ag330
a(lp333
g312
ag330
aaa(lp334
I376
aI382
ag330
a(lp335
g303
ag330
aaa(lp336
I376
aI382
ag330
a(lp337
g294
ag330
aaa(lp338
I384
aI385
aS'de'
p339
a(lp340
g330
ag339
aaa(lp341
I384
aI385
ag339
a(lp342
g321
ag339
aaa(lp343
I384
aI385
ag339
a(lp344
g312
ag339
aaa(lp345
I384
aI385
ag339
a(lp346
g303
ag339
aaa(lp347
I387
aI391
aS'vils'
p348
a(lp349
g339
ag348
aaa(lp350
I387
aI391
ag348
a(lp351
g330
ag348
aaa(lp352
I387
aI391
ag348
a(lp353
g321
ag348
aaa(lp354
I387
aI391
ag348
a(lp355
g312
ag348
aaa(lp356
I393
aI396
aS'evil'
p357
a(lp358
g348
ag357
aaa(lp359
I393
aI396
ag357
a(lp360
g339
ag357
aaa(lp361
I393
aI396
ag357
a(lp362
g330
ag357
aaa(lp363
I393
aI396
ag357
a(lp364
g321
ag357
aaa(lp365
I398
aI405
aS'henchmen'
p366
a(lp367
g357
ag366
aaa(lp368
I398
aI405
ag366
a(lp369
g348
ag366
aaa(lp370
I398
aI405
ag366
a(lp371
g339
ag366
aaa(lp372
I398
aI405
ag366
a(lp373
g330
ag366
aaa(lp374
I407
aI412
aS'jasper'
p375
a(lp376
g366
ag375
aaa(lp377
I407
aI412
ag375
a(lp378
g357
ag375
aaa(lp379
I407
aI412
ag375
a(lp380
g348
ag375
aaa(lp381
I407
aI412
ag375
a(lp382
g339
ag375
aaa(lp383
I418
aI423
aS'horace'
p384
a(lp385
g375
ag384
aaa(lp386
I418
aI423
ag384
a(lp387
g366
ag384
aaa(lp388
I418
aI423
ag384
a(lp389
g357
ag384
aaa(lp390
I418
aI423
ag384
a(lp391
g348
ag384
aaa(lp392
I429
aI435
aS'capture'
p393
a(lp394
g384
ag393
aaa(lp395
I429
aI435
ag393
a(lp396
g375
ag393
aaa(lp397
I429
aI435
ag393
a(lp398
g366
ag393
aaa(lp399
I429
aI435
ag393
a(lp400
g357
ag393
aaa(lp401
I450
aI454
aS'shock'
p402
a(lp403
g393
ag402
aaa(lp404
I450
aI454
ag402
a(lp405
g384
ag402
aaa(lp406
I450
aI454
ag402
a(lp407
g375
ag402
aaa(lp408
I450
aI454
ag402
a(lp409
g366
ag402
aaa(lp410
I456
aI459
aS'wave'
p411
a(lp412
g402
ag411
aaa(lp413
I456
aI459
ag411
a(lp414
g393
ag411
aaa(lp415
I456
aI459
ag411
a(lp416
g384
ag411
aaa(lp417
I456
aI459
ag411
a(lp418
g375
ag411
aaa(lp419
I461
aI464
aS'game'
p420
a(lp421
g411
ag420
aaa(lp422
I461
aI464
ag420
a(lp423
g402
ag420
aaa(lp424
I461
aI464
ag420
a(lp425
g393
ag420
aaa(lp426
I461
aI464
ag420
a(lp427
g384
ag420
aaa(lp428
I466
aI469
aS'uses'
p429
a(lp430
g420
ag429
aaa(lp431
I466
aI469
ag429
a(lp432
g411
ag429
aaa(lp433
I466
aI469
ag429
a(lp434
g402
ag429
aaa(lp435
I466
aI469
ag429
a(lp436
g393
ag429
aaa(lp437
I471
aI477
aS'musical'
p438
a(lp439
g429
ag438
aaa(lp440
I471
aI477
ag438
a(lp441
g420
ag438
aaa(lp442
I471
aI477
ag438
a(lp443
g411
ag438
aaa(lp444
I471
aI477
ag438
a(lp445
g402
ag438
aaa(lp446
I479
aI483
aS'notes'
p447
a(lp448
g438
ag447
aaa(lp449
I479
aI483
ag447
a(lp450
g429
ag447
aaa(lp451
I479
aI483
ag447
a(lp452
g420
ag447
aaa(lp453
I479
aI483
ag447
a(lp454
g411
ag447
aaa(lp455
I490
aI491
aS'10'
p456
a(lp457
g447
ag456
aaa(lp458
I490
aI491
ag456
a(lp459
g438
ag456
aaa(lp460
I490
aI491
ag456
a(lp461
g429
ag456
aaa(lp462
I490
aI491
ag456
a(lp463
g420
ag456
aaa(lp464
I493
aI501
aS'available'
p465
a(lp466
g456
ag465
aaa(lp467
I493
aI501
ag465
a(lp468
g447
ag465
aaa(lp469
I493
aI501
ag465
a(lp470
g438
ag465
aaa(lp471
I493
aI501
ag465
a(lp472
g429
ag465
aaa(lp473
I514
aI516
aS'use'
p474
a(lp475
g465
ag474
aaa(lp476
I514
aI516
ag474
a(lp477
g456
ag474
aaa(lp478
I514
aI516
ag474
a(lp479
g447
ag474
aaa(lp480
I514
aI516
ag474
a(lp481
g438
ag474
aaa(lp482
I519
aI523
aS'click'
p483
a(lp484
g474
ag483
aaa(lp485
I519
aI523
ag483
a(lp486
g465
ag483
aaa(lp487
I519
aI523
ag483
a(lp488
g456
ag483
aaa(lp489
I519
aI523
ag483
a(lp490
g447
ag483
aaa(lp491
I532
aI536
aS'notes'
p492
a(lp493
g483
ag492
aaa(lp494
I532
aI536
ag492
a(lp495
g474
ag492
aaa(lp496
I532
aI536
ag492
a(lp497
g465
ag492
aaa(lp498
I532
aI536
ag492
a(lp499
g456
ag492
aaa(lp500
I541
aI544
aS'make'
p501
a(lp502
g492
ag501
aaa(lp503
I541
aI544
ag501
a(lp504
g483
ag501
aaa(lp505
I541
aI544
ag501
a(lp506
g474
ag501
aaa(lp507
I541
aI544
ag501
a(lp508
g465
ag501
aaa(lp509
I558
aI562
aS'tunes'
p510
a(lp511
g501
ag510
aaa(lp512
I558
aI562
ag510
a(lp513
g492
ag510
aaa(lp514
I558
aI562
ag510
a(lp515
g483
ag510
aaa(lp516
I558
aI562
ag510
a(lp517
g474
ag510
aaa(lp518
I565
aI577
aS'alternatively'
p519
a(lp520
g510
ag519
aaa(lp521
I565
aI577
ag519
a(lp522
g501
ag519
aaa(lp523
I565
aI577
ag519
a(lp524
g492
ag519
aaa(lp525
I565
aI577
ag519
a(lp526
g483
ag519
aaa(lp527
I579
aI582
aS'drag'
p528
a(lp529
g519
ag528
aaa(lp530
I579
aI582
ag528
a(lp531
g510
ag528
aaa(lp532
I579
aI582
ag528
a(lp533
g501
ag528
aaa(lp534
I579
aI582
ag528
a(lp535
g492
ag528
aaa(lp536
I588
aI592
aS'notes'
p537
a(lp538
g528
ag537
aaa(lp539
I588
aI592
ag537
a(lp540
g519
ag537
aaa(lp541
I588
aI592
ag537
a(lp542
g510
ag537
aaa(lp543
I588
aI592
ag537
a(lp544
g501
ag537
aaa(lp545
I602
aI606
aS'empty'
p546
a(lp547
g537
ag546
aaa(lp548
I602
aI606
ag546
a(lp549
g528
ag546
aaa(lp550
I602
aI606
ag546
a(lp551
g519
ag546
aaa(lp552
I602
aI606
ag546
a(lp553
g510
ag546
aaa(lp554
I608
aI613
aS'circle'
p555
a(lp556
g546
ag555
aaa(lp557
I608
aI613
ag555
a(lp558
g537
ag555
aaa(lp559
I608
aI613
ag555
a(lp560
g528
ag555
aaa(lp561
I608
aI613
ag555
a(lp562
g519
ag555
aaa(lp563
I618
aI621
aS'make'
p564
a(lp565
g555
ag564
aaa(lp566
I618
aI621
ag564
a(lp567
g546
ag564
aaa(lp568
I618
aI621
ag564
a(lp569
g537
ag564
aaa(lp570
I618
aI621
ag564
a(lp571
g528
ag564
aaa(lp572
I635
aI638
aS'song'
p573
a(lp574
g564
ag573
aaa(lp575
I635
aI638
ag573
a(lp576
g555
ag573
aaa(lp577
I635
aI638
ag573
a(lp578
g546
ag573
aaa(lp579
I635
aI638
ag573
a(lp580
g537
ag573
aaa(lp581
I641
aI643
aS'101'
p582
a(lp583
g573
ag582
aaa(lp584
I641
aI643
ag582
a(lp585
g564
ag582
aaa(lp586
I641
aI643
ag582
a(lp587
g555
ag582
aaa(lp588
I641
aI643
ag582
a(lp589
g546
ag582
aaa(lp590
I645
aI654
aS'dalmations'
p591
a(lp592
g582
ag591
aaa(lp593
I645
aI654
ag591
a(lp594
g573
ag591
aaa(lp595
I645
aI654
ag591
a(lp596
g564
ag591
aaa(lp597
I645
aI654
ag591
a(lp598
g555
ag591
aaa(lp599
I657
aI659
aS'101'
p600
a(lp601
g591
ag600
aaa(lp602
I657
aI659
ag600
a(lp603
g582
ag600
aaa(lp604
I657
aI659
ag600
a(lp605
g573
ag600
aaa(lp606
I657
aI659
ag600
a(lp607
g564
ag600
aaa(lp608
I661
aI670
aS'dalmations'
p609
a(lp610
g600
ag609
aaa(lp611
I661
aI670
ag609
a(lp612
g591
ag609
aaa(lp613
I661
aI670
ag609
a(lp614
g582
ag609
aaa(lp615
I661
aI670
ag609
a(lp616
g573
ag609
aaa(lp617
I672
aI676
aS'games'
p618
a(lp619
g609
ag618
aaa(lp620
I672
aI676
ag618
a(lp621
g600
ag618
aaa(lp622
I672
aI676
ag618
a(lp623
g591
ag618
aaa(lp624
I672
aI676
ag618
a(lp625
g582
ag618
aaa(lp626
I687
aI691
aS'shock'
p627
a(lp628
g618
ag627
aaa(lp629
I687
aI691
ag627
a(lp630
g609
ag627
aaa(lp631
I687
aI691
ag627
a(lp632
g600
ag627
aaa(lp633
I687
aI691
ag627
a(lp634
g591
ag627
aaa(lp635
I693
aI696
aS'wave'
p636
a(lp637
g627
ag636
aaa(lp638
I693
aI696
ag636
a(lp639
g618
ag636
aaa(lp640
I693
aI696
ag636
a(lp641
g609
ag636
aaa(lp642
I693
aI696
ag636
a(lp643
g600
ag636
aaa(lp644
I698
aI702
aS'games'
p645
a(lp646
g636
ag645
aaa(lp647
I698
aI702
ag645
a(lp648
g627
ag645
aaa(lp649
I698
aI702
ag645
a(lp650
g618
ag645
aaa(lp651
I698
aI702
ag645
a(lp652
g609
ag645
aaa(lp653
I708
aI711
aS'free'
p654
a(lp655
g645
ag654
aaa(lp656
I708
aI711
ag654
a(lp657
g636
ag654
aaa(lp658
I708
aI711
ag654
a(lp659
g627
ag654
aaa(lp660
I708
aI711
ag654
a(lp661
g618
ag654
aaa(lp662
I713
aI717
aS'shock'
p663
a(lp664
g654
ag663
aaa(lp665
I713
aI717
ag663
a(lp666
g645
ag663
aaa(lp667
I713
aI717
ag663
a(lp668
g636
ag663
aaa(lp669
I713
aI717
ag663
a(lp670
g627
ag663
aaa(lp671
I719
aI722
aS'wave'
p672
a(lp673
g663
ag672
aaa(lp674
I719
aI722
ag672
a(lp675
g654
ag672
aaa(lp676
I719
aI722
ag672
a(lp677
g645
ag672
aaa(lp678
I719
aI722
ag672
a(lp679
g636
ag672
aaa(lp680
I719
aI722
aS'games'
p681
a(lp682
g672
ag681
aaa(lp683
I719
aI722
ag681
a(lp684
g663
ag681
aaa(lp685
I719
aI722
ag681
a(lp686
g654
ag681
aaa(lp687
I719
aI722
ag681
a(lp688
g645
ag681
aaasS'wordMap'
p689
(lp690
(lp691
I0
aI5
ag5
a(lp692
(lp693
I0
aS'd'
p694
aa(lp695
I1
aS'i'
p696
aa(lp697
I2
aS's'
p698
aa(lp699
I3
aS'n'
p700
aa(lp701
I4
aS'e'
p702
aa(lp703
I5
aS'y'
p704
aaaa(lp705
I9
aI12
aS'this'
p706
a(lp707
(lp708
I9
aS't'
p709
aa(lp710
I10
aS'h'
p711
aa(lp712
I11
ag696
aa(lp713
I12
ag698
aaaa(lp714
I14
aI17
ag15
a(lp715
(lp716
I14
aS'f'
p717
aa(lp718
I15
aS'r'
p719
aa(lp720
I16
ag702
aa(lp721
I17
ag702
aaaa(lp722
I19
aI23
ag24
a(lp723
(lp724
I19
ag698
aa(lp725
I20
ag711
aa(lp726
I21
aS'o'
p727
aa(lp728
I22
aS'c'
p729
aa(lp730
I23
aS'k'
p731
aaaa(lp732
I25
aI28
ag33
a(lp733
(lp734
I25
aS'w'
p735
aa(lp736
I26
aS'a'
p737
aa(lp738
I27
aS'v'
p739
aa(lp740
I28
ag702
aaaa(lp741
I30
aI33
ag42
a(lp742
(lp743
I30
aS'g'
p744
aa(lp745
I31
ag737
aa(lp746
I32
aS'm'
p747
aa(lp748
I33
ag702
aaaa(lp749
I35
aI38
aS'from'
p750
a(lp751
(lp752
I35
ag717
aa(lp753
I36
ag719
aa(lp754
I37
ag727
aa(lp755
I38
ag747
aaaa(lp756
I40
aI45
ag51
a(lp757
(lp758
I40
ag694
aa(lp759
I41
ag696
aa(lp760
I42
ag698
aa(lp761
I43
ag700
aa(lp762
I44
ag702
aa(lp763
I45
ag704
aaaa(lp764
I47
aI48
aS'is'
p765
a(lp766
(lp767
I47
ag696
aa(lp768
I48
ag698
aaaa(lp769
I50
aI52
aS'all'
p770
a(lp771
(lp772
I50
ag737
aa(lp773
I51
aS'l'
p774
aa(lp775
I52
ag774
aaaa(lp776
I54
aI58
aS'about'
p777
a(lp778
(lp779
I54
ag737
aa(lp780
I55
aS'b'
p781
aa(lp782
I56
ag727
aa(lp783
I57
aS'u'
p784
aa(lp785
I58
ag709
aaaa(lp786
I60
aI67
ag60
a(lp787
(lp788
I60
ag781
aa(lp789
I61
ag719
aa(lp790
I62
ag696
aa(lp791
I63
ag700
aa(lp792
I64
ag744
aa(lp793
I65
ag696
aa(lp794
I66
ag700
aa(lp795
I67
ag744
aaaa(lp796
I69
aI70
aS'up'
p797
a(lp798
(lp799
I69
ag784
aa(lp800
I70
aS'p'
p801
aaaa(lp802
I72
aI75
aS'your'
p803
a(lp804
(lp805
I72
ag704
aa(lp806
I73
ag727
aa(lp807
I74
ag784
aa(lp808
I75
ag719
aaaa(lp809
I77
aI79
aS'own'
p810
a(lp811
(lp812
I77
ag727
aa(lp813
I78
ag735
aa(lp814
I79
ag700
aaaa(lp815
I81
aI89
ag69
a(lp816
(lp817
I81
ag694
aa(lp818
I82
ag737
aa(lp819
I83
ag774
aa(lp820
I84
ag747
aa(lp821
I85
ag737
aa(lp822
I86
ag709
aa(lp823
I87
ag696
aa(lp824
I88
ag727
aa(lp825
I89
ag700
aaaa(lp826
I92
aI95
ag78
a(lp827
(lp828
I92
ag711
aa(lp829
I93
ag702
aa(lp830
I94
ag774
aa(lp831
I95
ag801
aaaa(lp832
I97
aI100
aS'your'
p833
a(lp834
(lp835
I97
ag704
aa(lp836
I98
ag727
aa(lp837
I99
ag784
aa(lp838
I100
ag719
aaaa(lp839
I102
aI106
ag87
a(lp840
(lp841
I102
ag801
aa(lp842
I103
ag784
aa(lp843
I104
ag801
aa(lp844
I105
ag801
aa(lp845
I106
ag704
aaaa(lp846
I108
aI109
aS'to'
p847
a(lp848
(lp849
I108
ag709
aa(lp850
I109
ag727
aaaa(lp851
I111
aI113
ag96
a(lp852
(lp853
I111
ag702
aa(lp854
I112
ag737
aa(lp855
I113
ag709
aaaa(lp856
I116
aI120
ag105
a(lp857
(lp858
I116
ag698
aa(lp859
I117
ag774
aa(lp860
I118
ag702
aa(lp861
I119
ag702
aa(lp862
I120
ag801
aaaa(lp863
I123
aI126
ag114
a(lp864
(lp865
I123
ag801
aa(lp866
I124
ag774
aa(lp867
I125
ag737
aa(lp868
I126
ag704
aaaa(lp869
I128
aI131
aS'with'
p870
a(lp871
(lp872
I128
ag735
aa(lp873
I129
ag696
aa(lp874
I130
ag709
aa(lp875
I131
ag711
aaaa(lp876
I133
aI134
aS'it'
p877
a(lp878
(lp879
I133
ag696
aa(lp880
I134
ag709
aaaa(lp881
I136
aI138
aS'and'
p882
a(lp883
(lp884
I136
ag737
aa(lp885
I137
ag700
aa(lp886
I138
ag694
aaaa(lp887
I140
aI143
ag123
a(lp888
(lp889
I140
ag731
aa(lp890
I141
ag702
aa(lp891
I142
ag702
aa(lp892
I143
ag801
aaaa(lp893
I145
aI146
aS'it'
p894
a(lp895
(lp896
I145
ag696
aa(lp897
I146
ag709
aaaa(lp898
I148
aI151
ag132
a(lp899
(lp900
I148
ag735
aa(lp901
I149
ag737
aa(lp902
I150
ag719
aa(lp903
I151
ag747
aaaa(lp904
I153
aI156
aS'just'
p905
a(lp906
(lp907
I153
aS'j'
p908
aa(lp909
I154
ag784
aa(lp910
I155
ag698
aa(lp911
I156
ag709
aaaa(lp912
I158
aI159
aS'as'
p913
a(lp914
(lp915
I158
ag737
aa(lp916
I159
ag698
aaaa(lp917
I161
aI163
aS'you'
p918
a(lp919
(lp920
I161
ag704
aa(lp921
I162
ag727
aa(lp922
I163
ag784
aaaa(lp923
I165
aI169
ag141
a(lp924
(lp925
I165
ag735
aa(lp926
I166
ag727
aa(lp927
I167
ag784
aa(lp928
I168
ag774
aa(lp929
I169
ag694
aaaa(lp930
I171
aI174
aS'your'
p931
a(lp932
(lp933
I171
ag704
aa(lp934
I172
ag727
aa(lp935
I173
ag784
aa(lp936
I174
ag719
aaaa(lp937
I176
aI179
ag150
a(lp938
(lp939
I176
ag719
aa(lp940
I177
ag702
aa(lp941
I178
ag737
aa(lp942
I179
ag774
aaaa(lp943
I181
aI183
ag159
a(lp944
(lp945
I181
ag801
aa(lp946
I182
ag702
aa(lp947
I183
ag709
aaaa(lp948
I186
aI189
aS'this'
p949
a(lp950
(lp951
I186
ag709
aa(lp952
I187
ag711
aa(lp953
I188
ag696
aa(lp954
I189
ag698
aaaa(lp955
I191
aI195
ag168
a(lp956
(lp957
I191
ag698
aa(lp958
I192
ag711
aa(lp959
I193
ag727
aa(lp960
I194
ag729
aa(lp961
I195
ag731
aaaa(lp962
I197
aI200
ag177
a(lp963
(lp964
I197
ag735
aa(lp965
I198
ag737
aa(lp966
I199
ag739
aa(lp967
I200
ag702
aaaa(lp968
I202
aI205
ag186
a(lp969
(lp970
I202
ag744
aa(lp971
I203
ag737
aa(lp972
I204
ag747
aa(lp973
I205
ag702
aaaa(lp974
I207
aI211
ag195
a(lp975
(lp976
I207
ag698
aa(lp977
I208
ag737
aa(lp978
I209
ag739
aa(lp979
I210
ag702
aa(lp980
I211
ag698
aaaa(lp981
I213
aI218
aS'itself'
p982
a(lp983
(lp984
I213
ag696
aa(lp985
I214
ag709
aa(lp986
I215
ag698
aa(lp987
I216
ag702
aa(lp988
I217
ag774
aa(lp989
I218
ag717
aaaa(lp990
I220
aI221
aS'so'
p991
a(lp992
(lp993
I220
ag698
aa(lp994
I221
ag727
aaaa(lp995
I223
aI225
aS'you'
p996
a(lp997
(lp998
I223
ag704
aa(lp999
I224
ag727
aa(lp1000
I225
ag784
aaaa(lp1001
I227
aI229
aS'can'
p1002
a(lp1003
(lp1004
I227
ag729
aa(lp1005
I228
ag737
aa(lp1006
I229
ag700
aaaa(lp1007
I231
aI234
ag204
a(lp1008
(lp1009
I231
ag729
aa(lp1010
I232
ag727
aa(lp1011
I233
ag747
aa(lp1012
I234
ag702
aaaa(lp1013
I236
aI239
ag213
a(lp1014
(lp1015
I236
ag781
aa(lp1016
I237
ag737
aa(lp1017
I238
ag729
aa(lp1018
I239
ag731
aaaa(lp1019
I241
aI242
aS'to'
p1020
a(lp1021
(lp1022
I241
ag709
aa(lp1023
I242
ag727
aaaa(lp1024
I244
aI245
aS'it'
p1025
a(lp1026
(lp1027
I244
ag696
aa(lp1028
I245
ag709
aaaa(lp1029
I247
aI248
aS'at'
p1030
a(lp1031
(lp1032
I247
ag737
aa(lp1033
I248
ag709
aaaa(lp1034
I250
aI250
ag737
a(lp1035
(lp1036
I250
ag737
aaaa(lp1037
I252
aI256
ag222
a(lp1038
(lp1039
I252
ag774
aa(lp1040
I253
ag737
aa(lp1041
I254
ag709
aa(lp1042
I255
ag702
aa(lp1043
I256
ag719
aaaa(lp1044
I258
aI261
ag231
a(lp1045
(lp1046
I258
ag694
aa(lp1047
I259
ag737
aa(lp1048
I260
ag709
aa(lp1049
I261
ag702
aaaa(lp1050
I266
aI267
aS'in'
p1051
a(lp1052
(lp1053
I266
ag696
aa(lp1054
I267
ag700
aaaa(lp1055
I269
aI272
aS'this'
p1056
a(lp1057
(lp1058
I269
ag709
aa(lp1059
I270
ag711
aa(lp1060
I271
ag696
aa(lp1061
I272
ag698
aaaa(lp1062
I274
aI277
ag240
a(lp1063
(lp1064
I274
ag717
aa(lp1065
I275
ag719
aa(lp1066
I276
ag702
aa(lp1067
I277
ag702
aaaa(lp1068
I279
aI283
ag249
a(lp1069
(lp1070
I279
ag698
aa(lp1071
I280
ag711
aa(lp1072
I281
ag727
aa(lp1073
I282
ag729
aa(lp1074
I283
ag731
aaaa(lp1075
I285
aI288
ag258
a(lp1076
(lp1077
I285
ag735
aa(lp1078
I286
ag737
aa(lp1079
I287
ag739
aa(lp1080
I288
ag702
aaaa(lp1081
I290
aI293
ag267
a(lp1082
(lp1083
I290
ag744
aa(lp1084
I291
ag737
aa(lp1085
I292
ag747
aa(lp1086
I293
ag702
aaaa(lp1087
I295
aI297
aS'you'
p1088
a(lp1089
(lp1090
I295
ag704
aa(lp1091
I296
ag727
aa(lp1092
I297
ag784
aaaa(lp1093
I299
aI302
aS'have'
p1094
a(lp1095
(lp1096
I299
ag711
aa(lp1097
I300
ag737
aa(lp1098
I301
ag739
aa(lp1099
I302
ag702
aaaa(lp1100
I304
aI305
aS'to'
p1101
a(lp1102
(lp1103
I304
ag709
aa(lp1104
I305
ag727
aaaa(lp1105
I307
aI310
ag276
a(lp1106
(lp1107
I307
ag711
aa(lp1108
I308
ag702
aa(lp1109
I309
ag774
aa(lp1110
I310
ag801
aaaa(lp1111
I312
aI314
aS'the'
p1112
a(lp1113
(lp1114
I312
ag709
aa(lp1115
I313
ag711
aa(lp1116
I314
ag702
aaaa(lp1117
I316
aI318
ag285
a(lp1118
(lp1119
I316
aS'1'
p1120
aa(lp1121
I317
aS'0'
p1122
aa(lp1123
I318
ag1120
aaaa(lp1124
I320
aI329
ag294
a(lp1125
(lp1126
I320
ag694
aa(lp1127
I321
ag737
aa(lp1128
I322
ag774
aa(lp1129
I323
ag747
aa(lp1130
I324
ag737
aa(lp1131
I325
ag709
aa(lp1132
I326
ag696
aa(lp1133
I327
ag727
aa(lp1134
I328
ag700
aa(lp1135
I329
ag698
aaaa(lp1136
I331
aI335
ag303
a(lp1137
(lp1138
I331
ag719
aa(lp1139
I332
ag727
aa(lp1140
I333
ag784
aa(lp1141
I334
ag700
aa(lp1142
I335
ag694
aaaa(lp1143
I337
aI338
aS'up'
p1144
a(lp1145
(lp1146
I337
ag784
aa(lp1147
I338
ag801
aaaa(lp1148
I340
aI342
aS'all'
p1149
a(lp1150
(lp1151
I340
ag737
aa(lp1152
I341
ag774
aa(lp1153
I342
ag774
aaaa(lp1154
I344
aI345
aS'of'
p1155
a(lp1156
(lp1157
I344
ag727
aa(lp1158
I345
ag717
aaaa(lp1159
I347
aI351
aS'their'
p1160
a(lp1161
(lp1162
I347
ag709
aa(lp1163
I348
ag711
aa(lp1164
I349
ag702
aa(lp1165
I350
ag696
aa(lp1166
I351
ag719
aaaa(lp1167
I353
aI358
ag312
a(lp1168
(lp1169
I353
ag737
aa(lp1170
I354
ag700
aa(lp1171
I355
ag696
aa(lp1172
I356
ag747
aa(lp1173
I357
ag737
aa(lp1174
I358
ag774
aaaa(lp1175
I360
aI366
ag321
a(lp1176
(lp1177
I360
ag717
aa(lp1178
I361
ag719
aa(lp1179
I362
ag696
aa(lp1180
I363
ag702
aa(lp1181
I364
ag700
aa(lp1182
I365
ag694
aa(lp1183
I366
ag698
aaaa(lp1184
I369
aI374
aS'before'
p1185
a(lp1186
(lp1187
I369
ag781
aa(lp1188
I370
ag702
aa(lp1189
I371
ag717
aa(lp1190
I372
ag727
aa(lp1191
I373
ag719
aa(lp1192
I374
ag702
aaaa(lp1193
I376
aI382
ag330
a(lp1194
(lp1195
I376
ag729
aa(lp1196
I377
ag719
aa(lp1197
I378
ag784
aa(lp1198
I379
ag702
aa(lp1199
I380
ag774
aa(lp1200
I381
ag774
aa(lp1201
I382
ag737
aaaa(lp1202
I384
aI385
ag339
a(lp1203
(lp1204
I384
ag694
aa(lp1205
I385
ag702
aaaa(lp1206
I387
aI391
ag348
a(lp1207
(lp1208
I387
ag739
aa(lp1209
I388
ag696
aa(lp1210
I389
ag774
aa(lp1211
I391
ag698
aaaa(lp1212
I393
aI396
ag357
a(lp1213
(lp1214
I393
ag702
aa(lp1215
I394
ag739
aa(lp1216
I395
ag696
aa(lp1217
I396
ag774
aaaa(lp1218
I398
aI405
ag366
a(lp1219
(lp1220
I398
ag711
aa(lp1221
I399
ag702
aa(lp1222
I400
ag700
aa(lp1223
I401
ag729
aa(lp1224
I402
ag711
aa(lp1225
I403
ag747
aa(lp1226
I404
ag702
aa(lp1227
I405
ag700
aaaa(lp1228
I407
aI412
ag375
a(lp1229
(lp1230
I407
ag908
aa(lp1231
I408
ag737
aa(lp1232
I409
ag698
aa(lp1233
I410
ag801
aa(lp1234
I411
ag702
aa(lp1235
I412
ag719
aaaa(lp1236
I414
aI416
aS'and'
p1237
a(lp1238
(lp1239
I414
ag737
aa(lp1240
I415
ag700
aa(lp1241
I416
ag694
aaaa(lp1242
I418
aI423
ag384
a(lp1243
(lp1244
I418
ag711
aa(lp1245
I419
ag727
aa(lp1246
I420
ag719
aa(lp1247
I421
ag737
aa(lp1248
I422
ag729
aa(lp1249
I423
ag702
aaaa(lp1250
I425
aI427
aS'can'
p1251
a(lp1252
(lp1253
I425
ag729
aa(lp1254
I426
ag737
aa(lp1255
I427
ag700
aaaa(lp1256
I429
aI435
ag393
a(lp1257
(lp1258
I429
ag729
aa(lp1259
I430
ag737
aa(lp1260
I431
ag801
aa(lp1261
I432
ag709
aa(lp1262
I433
ag784
aa(lp1263
I434
ag719
aa(lp1264
I435
ag702
aaaa(lp1265
I437
aI440
aS'them'
p1266
a(lp1267
(lp1268
I437
ag709
aa(lp1269
I438
ag711
aa(lp1270
I439
ag702
aa(lp1271
I440
ag747
aaaa(lp1272
I445
aI448
aS'this'
p1273
a(lp1274
(lp1275
I445
ag709
aa(lp1276
I446
ag711
aa(lp1277
I447
ag696
aa(lp1278
I448
ag698
aaaa(lp1279
I450
aI454
ag402
a(lp1280
(lp1281
I450
ag698
aa(lp1282
I451
ag711
aa(lp1283
I452
ag727
aa(lp1284
I453
ag729
aa(lp1285
I454
ag731
aaaa(lp1286
I456
aI459
ag411
a(lp1287
(lp1288
I456
ag735
aa(lp1289
I457
ag737
aa(lp1290
I458
ag739
aa(lp1291
I459
ag702
aaaa(lp1292
I461
aI464
ag420
a(lp1293
(lp1294
I461
ag744
aa(lp1295
I462
ag737
aa(lp1296
I463
ag747
aa(lp1297
I464
ag702
aaaa(lp1298
I466
aI469
ag429
a(lp1299
(lp1300
I466
ag784
aa(lp1301
I467
ag698
aa(lp1302
I468
ag702
aa(lp1303
I469
ag698
aaaa(lp1304
I471
aI477
ag438
a(lp1305
(lp1306
I471
ag747
aa(lp1307
I472
ag784
aa(lp1308
I473
ag698
aa(lp1309
I474
ag696
aa(lp1310
I475
ag729
aa(lp1311
I476
ag737
aa(lp1312
I477
ag774
aaaa(lp1313
I479
aI483
ag447
a(lp1314
(lp1315
I479
ag700
aa(lp1316
I480
ag727
aa(lp1317
I481
ag709
aa(lp1318
I482
ag702
aa(lp1319
I483
ag698
aaaa(lp1320
I485
aI488
aS'with'
p1321
a(lp1322
(lp1323
I485
ag735
aa(lp1324
I486
ag696
aa(lp1325
I487
ag709
aa(lp1326
I488
ag711
aaaa(lp1327
I490
aI491
ag456
a(lp1328
(lp1329
I490
ag1120
aa(lp1330
I491
ag1122
aaaa(lp1331
I493
aI501
ag465
a(lp1332
(lp1333
I493
ag737
aa(lp1334
I494
ag739
aa(lp1335
I495
ag737
aa(lp1336
I496
ag696
aa(lp1337
I497
ag774
aa(lp1338
I498
ag737
aa(lp1339
I499
ag781
aa(lp1340
I500
ag774
aa(lp1341
I501
ag702
aaaa(lp1342
I503
aI505
aS'for'
p1343
a(lp1344
(lp1345
I503
ag717
aa(lp1346
I504
ag727
aa(lp1347
I505
ag719
aaaa(lp1348
I507
aI509
aS'you'
p1349
a(lp1350
(lp1351
I507
ag704
aa(lp1352
I508
ag727
aa(lp1353
I509
ag784
aaaa(lp1354
I511
aI512
aS'to'
p1355
a(lp1356
(lp1357
I511
ag709
aa(lp1358
I512
ag727
aaaa(lp1359
I514
aI516
ag474
a(lp1360
(lp1361
I514
ag784
aa(lp1362
I515
ag698
aa(lp1363
I516
ag702
aaaa(lp1364
I519
aI523
ag483
a(lp1365
(lp1366
I519
ag729
aa(lp1367
I520
ag774
aa(lp1368
I521
ag696
aa(lp1369
I522
ag729
aa(lp1370
I523
ag731
aaaa(lp1371
I525
aI526
aS'on'
p1372
a(lp1373
(lp1374
I525
ag727
aa(lp1375
I526
ag700
aaaa(lp1376
I528
aI530
aS'the'
p1377
a(lp1378
(lp1379
I528
ag709
aa(lp1380
I529
ag711
aa(lp1381
I530
ag702
aaaa(lp1382
I532
aI536
ag492
a(lp1383
(lp1384
I532
ag700
aa(lp1385
I533
ag727
aa(lp1386
I534
ag709
aa(lp1387
I535
ag702
aa(lp1388
I536
ag698
aaaa(lp1389
I538
aI539
aS'to'
p1390
a(lp1391
(lp1392
I538
ag709
aa(lp1393
I539
ag727
aaaa(lp1394
I541
aI544
ag501
a(lp1395
(lp1396
I541
ag747
aa(lp1397
I542
ag737
aa(lp1398
I543
ag731
aa(lp1399
I544
ag702
aaaa(lp1400
I546
aI547
aS'up'
p1401
a(lp1402
(lp1403
I546
ag784
aa(lp1404
I547
ag801
aaaa(lp1405
I549
aI552
aS'your'
p1406
a(lp1407
(lp1408
I549
ag704
aa(lp1409
I550
ag727
aa(lp1410
I551
ag784
aa(lp1411
I552
ag719
aaaa(lp1412
I554
aI556
aS'own'
p1413
a(lp1414
(lp1415
I554
ag727
aa(lp1416
I555
ag735
aa(lp1417
I556
ag700
aaaa(lp1418
I558
aI562
ag510
a(lp1419
(lp1420
I558
ag709
aa(lp1421
I559
ag784
aa(lp1422
I560
ag700
aa(lp1423
I561
ag702
aa(lp1424
I562
ag698
aaaa(lp1425
I565
aI577
ag519
a(lp1426
(lp1427
I565
ag737
aa(lp1428
I566
ag774
aa(lp1429
I567
ag709
aa(lp1430
I568
ag702
aa(lp1431
I569
ag719
aa(lp1432
I570
ag700
aa(lp1433
I571
ag737
aa(lp1434
I572
ag709
aa(lp1435
I573
ag696
aa(lp1436
I574
ag739
aa(lp1437
I575
ag702
aa(lp1438
I576
ag774
aa(lp1439
I577
ag704
aaaa(lp1440
I579
aI582
ag528
a(lp1441
(lp1442
I579
ag694
aa(lp1443
I580
ag719
aa(lp1444
I581
ag737
aa(lp1445
I582
ag744
aaaa(lp1446
I584
aI586
aS'the'
p1447
a(lp1448
(lp1449
I584
ag709
aa(lp1450
I585
ag711
aa(lp1451
I586
ag702
aaaa(lp1452
I588
aI592
ag537
a(lp1453
(lp1454
I588
ag700
aa(lp1455
I589
ag727
aa(lp1456
I590
ag709
aa(lp1457
I591
ag702
aa(lp1458
I592
ag698
aaaa(lp1459
I594
aI597
aS'into'
p1460
a(lp1461
(lp1462
I594
ag696
aa(lp1463
I595
ag700
aa(lp1464
I596
ag709
aa(lp1465
I597
ag727
aaaa(lp1466
I599
aI600
aS'an'
p1467
a(lp1468
(lp1469
I599
ag737
aa(lp1470
I600
ag700
aaaa(lp1471
I602
aI606
ag546
a(lp1472
(lp1473
I602
ag702
aa(lp1474
I603
ag747
aa(lp1475
I604
ag801
aa(lp1476
I605
ag709
aa(lp1477
I606
ag704
aaaa(lp1478
I608
aI613
ag555
a(lp1479
(lp1480
I608
ag729
aa(lp1481
I609
ag696
aa(lp1482
I610
ag719
aa(lp1483
I611
ag729
aa(lp1484
I612
ag774
aa(lp1485
I613
ag702
aaaa(lp1486
I615
aI616
aS'to'
p1487
a(lp1488
(lp1489
I615
ag709
aa(lp1490
I616
ag727
aaaa(lp1491
I618
aI621
ag564
a(lp1492
(lp1493
I618
ag747
aa(lp1494
I619
ag737
aa(lp1495
I620
ag731
aa(lp1496
I621
ag702
aaaa(lp1497
I623
aI624
aS'up'
p1498
a(lp1499
(lp1500
I623
ag784
aa(lp1501
I624
ag801
aaaa(lp1502
I626
aI629
aS'your'
p1503
a(lp1504
(lp1505
I626
ag704
aa(lp1506
I627
ag727
aa(lp1507
I628
ag784
aa(lp1508
I629
ag719
aaaa(lp1509
I631
aI633
aS'own'
p1510
a(lp1511
(lp1512
I631
ag727
aa(lp1513
I632
ag735
aa(lp1514
I633
ag700
aaaa(lp1515
I635
aI638
ag573
a(lp1516
(lp1517
I635
ag698
aa(lp1518
I636
ag727
aa(lp1519
I637
ag700
aa(lp1520
I638
ag744
aaaa(lp1521
I641
aI643
ag582
a(lp1522
(lp1523
I641
ag1120
aa(lp1524
I642
ag1122
aa(lp1525
I643
ag1120
aaaa(lp1526
I645
aI654
ag591
a(lp1527
(lp1528
I645
ag694
aa(lp1529
I646
ag737
aa(lp1530
I647
ag774
aa(lp1531
I648
ag747
aa(lp1532
I649
ag737
aa(lp1533
I650
ag709
aa(lp1534
I651
ag696
aa(lp1535
I652
ag727
aa(lp1536
I653
ag700
aa(lp1537
I654
ag698
aaaa(lp1538
I657
aI659
ag600
a(lp1539
(lp1540
I657
ag1120
aa(lp1541
I658
ag1122
aa(lp1542
I659
ag1120
aaaa(lp1543
I661
aI670
ag609
a(lp1544
(lp1545
I661
ag694
aa(lp1546
I662
ag737
aa(lp1547
I663
ag774
aa(lp1548
I664
ag747
aa(lp1549
I665
ag737
aa(lp1550
I666
ag709
aa(lp1551
I667
ag696
aa(lp1552
I668
ag727
aa(lp1553
I669
ag700
aa(lp1554
I670
ag698
aaaa(lp1555
I672
aI676
ag618
a(lp1556
(lp1557
I672
ag744
aa(lp1558
I673
ag737
aa(lp1559
I674
ag747
aa(lp1560
I675
ag702
aa(lp1561
I676
ag698
aaaa(lp1562
I678
aI681
aS'that'
p1563
a(lp1564
(lp1565
I678
ag709
aa(lp1566
I679
ag711
aa(lp1567
I680
ag737
aa(lp1568
I681
ag709
aaaa(lp1569
I683
aI685
aS'are'
p1570
a(lp1571
(lp1572
I683
ag737
aa(lp1573
I684
ag719
aa(lp1574
I685
ag702
aaaa(lp1575
I687
aI691
ag627
a(lp1576
(lp1577
I687
ag698
aa(lp1578
I688
ag711
aa(lp1579
I689
ag727
aa(lp1580
I690
ag729
aa(lp1581
I691
ag731
aaaa(lp1582
I693
aI696
ag636
a(lp1583
(lp1584
I693
ag735
aa(lp1585
I694
ag737
aa(lp1586
I695
ag739
aa(lp1587
I696
ag702
aaaa(lp1588
I698
aI702
ag645
a(lp1589
(lp1590
I698
ag744
aa(lp1591
I699
ag737
aa(lp1592
I700
ag747
aa(lp1593
I701
ag702
aa(lp1594
I702
ag698
aaaa(lp1595
I704
aI706
aS'and'
p1596
a(lp1597
(lp1598
I704
ag737
aa(lp1599
I705
ag700
aa(lp1600
I706
ag694
aaaa(lp1601
I708
aI711
ag654
a(lp1602
(lp1603
I708
ag717
aa(lp1604
I709
ag719
aa(lp1605
I710
ag702
aa(lp1606
I711
ag702
aaaa(lp1607
I713
aI717
ag663
a(lp1608
(lp1609
I713
ag698
aa(lp1610
I714
ag711
aa(lp1611
I715
ag727
aa(lp1612
I716
ag729
aa(lp1613
I717
ag731
aaaa(lp1614
I719
aI722
ag672
a(lp1615
(lp1616
I719
ag735
aa(lp1617
I720
ag737
aa(lp1618
I721
ag739
aa(lp1619
I722
ag702
aaaa(lp1620
I719
aI722
ag681
a(lp1621
(lp1622
I724
ag744
aa(lp1623
I725
ag737
aa(lp1624
I726
ag747
aa(lp1625
I727
ag702
aa(lp1626
I728
ag698
aaaasS'cleanCharacterMap'
p1627
(lp1628
g693
ag695
ag697
ag699
ag701
ag703
a(lp1629
I6
aS' '
p1630
aa(lp1631
I8
ag1630
aag708
ag710
ag712
ag713
a(lp1632
I13
ag1630
aag716
ag718
ag720
ag721
a(lp1633
I18
ag1630
aag724
ag725
ag726
ag728
ag730
a(lp1634
I24
ag1630
aag734
ag736
ag738
ag740
a(lp1635
I29
ag1630
aag743
ag745
ag746
ag748
a(lp1636
I34
ag1630
aag752
ag753
ag754
ag755
a(lp1637
I39
ag1630
aag758
ag759
ag760
ag761
ag762
ag763
a(lp1638
I46
ag1630
aag767
ag768
a(lp1639
I49
ag1630
aag772
ag773
ag775
a(lp1640
I53
ag1630
aag779
ag780
ag782
ag783
ag785
a(lp1641
I59
ag1630
aag788
ag789
ag790
ag791
ag792
ag793
ag794
ag795
a(lp1642
I68
ag1630
aag799
ag800
a(lp1643
I71
ag1630
aag805
ag806
ag807
ag808
a(lp1644
I76
ag1630
aag812
ag813
ag814
a(lp1645
I80
ag1630
aag817
ag818
ag819
ag820
ag821
ag822
ag823
ag824
ag825
a(lp1646
I91
ag1630
aag828
ag829
ag830
ag831
a(lp1647
I96
ag1630
aag835
ag836
ag837
ag838
a(lp1648
I101
ag1630
aag841
ag842
ag843
ag844
ag845
a(lp1649
I107
ag1630
aag849
ag850
a(lp1650
I110
ag1630
aag853
ag854
ag855
a(lp1651
I115
ag1630
aag858
ag859
ag860
ag861
ag862
a(lp1652
I122
ag1630
aag865
ag866
ag867
ag868
a(lp1653
I127
ag1630
aag872
ag873
ag874
ag875
a(lp1654
I132
ag1630
aag879
ag880
a(lp1655
I135
ag1630
aag884
ag885
ag886
a(lp1656
I139
ag1630
aag889
ag890
ag891
ag892
a(lp1657
I144
ag1630
aag896
ag897
a(lp1658
I147
ag1630
aag900
ag901
ag902
ag903
a(lp1659
I152
ag1630
aag907
ag909
ag910
ag911
a(lp1660
I157
ag1630
aag915
ag916
a(lp1661
I160
ag1630
aag920
ag921
ag922
a(lp1662
I164
ag1630
aag925
ag926
ag927
ag928
ag929
a(lp1663
I170
ag1630
aag933
ag934
ag935
ag936
a(lp1664
I175
ag1630
aag939
ag940
ag941
ag942
a(lp1665
I180
ag1630
aag945
ag946
ag947
a(lp1666
I185
ag1630
aag951
ag952
ag953
ag954
a(lp1667
I190
ag1630
aag957
ag958
ag959
ag960
ag961
a(lp1668
I196
ag1630
aag964
ag965
ag966
ag967
a(lp1669
I201
ag1630
aag970
ag971
ag972
ag973
a(lp1670
I206
ag1630
aag976
ag977
ag978
ag979
ag980
a(lp1671
I212
ag1630
aag984
ag985
ag986
ag987
ag988
ag989
a(lp1672
I219
ag1630
aag993
ag994
a(lp1673
I222
ag1630
aag998
ag999
ag1000
a(lp1674
I226
ag1630
aag1004
ag1005
ag1006
a(lp1675
I230
ag1630
aag1009
ag1010
ag1011
ag1012
a(lp1676
I235
ag1630
aag1015
ag1016
ag1017
ag1018
a(lp1677
I240
ag1630
aag1022
ag1023
a(lp1678
I243
ag1630
aag1027
ag1028
a(lp1679
I246
ag1630
aag1032
ag1033
a(lp1680
I249
ag1630
aag1036
a(lp1681
I251
ag1630
aag1039
ag1040
ag1041
ag1042
ag1043
a(lp1682
I257
ag1630
aag1046
ag1047
ag1048
ag1049
a(lp1683
I263
ag1630
aa(lp1684
I265
ag1630
aag1053
ag1054
a(lp1685
I268
ag1630
aag1058
ag1059
ag1060
ag1061
a(lp1686
I273
ag1630
aag1064
ag1065
ag1066
ag1067
a(lp1687
I278
ag1630
aag1070
ag1071
ag1072
ag1073
ag1074
a(lp1688
I284
ag1630
aag1077
ag1078
ag1079
ag1080
a(lp1689
I289
ag1630
aag1083
ag1084
ag1085
ag1086
a(lp1690
I294
ag1630
aag1090
ag1091
ag1092
a(lp1691
I298
ag1630
aag1096
ag1097
ag1098
ag1099
a(lp1692
I303
ag1630
aag1103
ag1104
a(lp1693
I306
ag1630
aag1107
ag1108
ag1109
ag1110
a(lp1694
I311
ag1630
aag1114
ag1115
ag1116
a(lp1695
I315
ag1630
aag1119
ag1121
ag1123
a(lp1696
I319
ag1630
aag1126
ag1127
ag1128
ag1129
ag1130
ag1131
ag1132
ag1133
ag1134
ag1135
a(lp1697
I330
ag1630
aag1138
ag1139
ag1140
ag1141
ag1142
a(lp1698
I336
ag1630
aag1146
ag1147
a(lp1699
I339
ag1630
aag1151
ag1152
ag1153
a(lp1700
I343
ag1630
aag1157
ag1158
a(lp1701
I346
ag1630
aag1162
ag1163
ag1164
ag1165
ag1166
a(lp1702
I352
ag1630
aag1169
ag1170
ag1171
ag1172
ag1173
ag1174
a(lp1703
I359
ag1630
aag1177
ag1178
ag1179
ag1180
ag1181
ag1182
ag1183
a(lp1704
I368
ag1630
aag1187
ag1188
ag1189
ag1190
ag1191
ag1192
a(lp1705
I375
ag1630
aag1195
ag1196
ag1197
ag1198
ag1199
ag1200
ag1201
a(lp1706
I383
ag1630
aag1204
ag1205
a(lp1707
I386
ag1630
aag1208
ag1209
ag1210
ag1211
a(lp1708
I392
ag1630
aag1214
ag1215
ag1216
ag1217
a(lp1709
I397
ag1630
aag1220
ag1221
ag1222
ag1223
ag1224
ag1225
ag1226
ag1227
a(lp1710
I406
ag1630
aag1230
ag1231
ag1232
ag1233
ag1234
ag1235
a(lp1711
I413
ag1630
aag1239
ag1240
ag1241
a(lp1712
I417
ag1630
aag1244
ag1245
ag1246
ag1247
ag1248
ag1249
a(lp1713
I424
ag1630
aag1253
ag1254
ag1255
a(lp1714
I428
ag1630
aag1258
ag1259
ag1260
ag1261
ag1262
ag1263
ag1264
a(lp1715
I436
ag1630
aag1268
ag1269
ag1270
ag1271
a(lp1716
I442
ag1630
aa(lp1717
I444
ag1630
aag1275
ag1276
ag1277
ag1278
a(lp1718
I449
ag1630
aag1281
ag1282
ag1283
ag1284
ag1285
a(lp1719
I455
ag1630
aag1288
ag1289
ag1290
ag1291
a(lp1720
I460
ag1630
aag1294
ag1295
ag1296
ag1297
a(lp1721
I465
ag1630
aag1300
ag1301
ag1302
ag1303
a(lp1722
I470
ag1630
aag1306
ag1307
ag1308
ag1309
ag1310
ag1311
ag1312
a(lp1723
I478
ag1630
aag1315
ag1316
ag1317
ag1318
ag1319
a(lp1724
I484
ag1630
aag1323
ag1324
ag1325
ag1326
a(lp1725
I489
ag1630
aag1329
ag1330
a(lp1726
I492
ag1630
aag1333
ag1334
ag1335
ag1336
ag1337
ag1338
ag1339
ag1340
ag1341
a(lp1727
I502
ag1630
aag1345
ag1346
ag1347
a(lp1728
I506
ag1630
aag1351
ag1352
ag1353
a(lp1729
I510
ag1630
aag1357
ag1358
a(lp1730
I513
ag1630
aag1361
ag1362
ag1363
a(lp1731
I518
ag1630
aag1366
ag1367
ag1368
ag1369
ag1370
a(lp1732
I524
ag1630
aag1374
ag1375
a(lp1733
I527
ag1630
aag1379
ag1380
ag1381
a(lp1734
I531
ag1630
aag1384
ag1385
ag1386
ag1387
ag1388
a(lp1735
I537
ag1630
aag1392
ag1393
a(lp1736
I540
ag1630
aag1396
ag1397
ag1398
ag1399
a(lp1737
I545
ag1630
aag1403
ag1404
a(lp1738
I548
ag1630
aag1408
ag1409
ag1410
ag1411
a(lp1739
I553
ag1630
aag1415
ag1416
ag1417
a(lp1740
I557
ag1630
aag1420
ag1421
ag1422
ag1423
ag1424
a(lp1741
I564
ag1630
aag1427
ag1428
ag1429
ag1430
ag1431
ag1432
ag1433
ag1434
ag1435
ag1436
ag1437
ag1438
ag1439
a(lp1742
I578
ag1630
aag1442
ag1443
ag1444
ag1445
a(lp1743
I583
ag1630
aag1449
ag1450
ag1451
a(lp1744
I587
ag1630
aag1454
ag1455
ag1456
ag1457
ag1458
a(lp1745
I593
ag1630
aag1462
ag1463
ag1464
ag1465
a(lp1746
I598
ag1630
aag1469
ag1470
a(lp1747
I601
ag1630
aag1473
ag1474
ag1475
ag1476
ag1477
a(lp1748
I607
ag1630
aag1480
ag1481
ag1482
ag1483
ag1484
ag1485
a(lp1749
I614
ag1630
aag1489
ag1490
a(lp1750
I617
ag1630
aag1493
ag1494
ag1495
ag1496
a(lp1751
I622
ag1630
aag1500
ag1501
a(lp1752
I625
ag1630
aag1505
ag1506
ag1507
ag1508
a(lp1753
I630
ag1630
aag1512
ag1513
ag1514
a(lp1754
I634
ag1630
aag1517
ag1518
ag1519
ag1520
a(lp1755
I640
ag1630
aag1523
ag1524
ag1525
a(lp1756
I644
ag1630
aag1528
ag1529
ag1530
ag1531
ag1532
ag1533
ag1534
ag1535
ag1536
ag1537
a(lp1757
I656
ag1630
aag1540
ag1541
ag1542
a(lp1758
I660
ag1630
aag1545
ag1546
ag1547
ag1548
ag1549
ag1550
ag1551
ag1552
ag1553
ag1554
a(lp1759
I671
ag1630
aag1557
ag1558
ag1559
ag1560
ag1561
a(lp1760
I677
ag1630
aag1565
ag1566
ag1567
ag1568
a(lp1761
I682
ag1630
aag1572
ag1573
ag1574
a(lp1762
I686
ag1630
aag1577
ag1578
ag1579
ag1580
ag1581
a(lp1763
I692
ag1630
aag1584
ag1585
ag1586
ag1587
a(lp1764
I697
ag1630
aag1590
ag1591
ag1592
ag1593
ag1594
a(lp1765
I703
ag1630
aag1598
ag1599
ag1600
a(lp1766
I707
ag1630
aag1603
ag1604
ag1605
ag1606
a(lp1767
I712
ag1630
aag1609
ag1610
ag1611
ag1612
ag1613
a(lp1768
I718
ag1630
aag1616
ag1617
ag1618
ag1619
a(lp1769
I723
ag1630
aag1622
ag1623
ag1624
ag1625
ag1626
asS'text'
p1770
S"disney - this free shock wave game from disney is all about bringing up your own dalmation. help your puppy to eat, sleep, play with it and keep it warm just as you would your real pet. this shock wave game saves itself so you can come back to it at a later date. - in this free shock wave game you have to help the 101 dalmations round up all of their animal friends, before cruella de vil's evil henchmen jasper and horace can capture them. - this shock wave game uses musical notes with 10 available for you to use. click on the notes to make up your own tunes. alternatively drag the notes into an empty circle to make up your own song. 101 dalmations. 101 dalmations games that are shock wave games and free shock wave games."
p1771
sS'cleanWordMap'
p1772
(lp1773
g691
ag714
ag722
ag732
ag741
ag756
ag786
ag815
ag826
ag839
ag851
ag856
ag863
ag887
ag898
ag923
ag937
ag943
ag955
ag962
ag968
ag974
ag1007
ag1013
ag1037
ag1044
ag1062
ag1068
ag1075
ag1081
ag1105
ag1117
ag1124
ag1136
ag1167
ag1175
ag1193
ag1202
ag1206
ag1212
ag1218
ag1228
ag1242
ag1256
ag1279
ag1286
ag1292
ag1298
ag1304
ag1313
ag1327
ag1331
ag1359
ag1364
ag1382
ag1394
ag1418
ag1425
ag1440
ag1452
ag1471
ag1478
ag1491
ag1515
ag1521
ag1526
ag1538
ag1543
ag1555
ag1575
ag1582
ag1588
ag1601
ag1607
ag1614
ag1620
asS'lines'
p1774
(lp1775
VDisney\u000a
p1776
aV- This free shock wave game from Disney is all about bringing up your own Dalmation. Help your puppy to eat, sleep, play with it and keep it warm just as you would your real pet. This shock wave game saves itself so you can come back to it at a later date. - In this free shock wave game you have to help the 101 Dalmations round up all of their animal friends, before Cruella De Vil's evil henchmen Jasper and Horace can capture them. - This shock wave game uses musical notes with 10 available for you to use. Click on the notes to make up your own tunes. Alternatively drag the notes into an empty circle to make up your own song.\u000a
p1777
aV101 Dalmations. 101 dalmations games that are Shock wave games and free shock wave games.
p1778
asS'docType'
p1779
S'src'
p1780
sS'newfmap'
p1781
(lp1782
g4
ag8
ag10
ag12
ag14
ag17
ag19
ag21
ag23
ag26
ag28
ag30
ag35
ag37
ag39
ag41
ag44
ag46
ag48
ag50
ag53
ag55
ag57
ag59
ag62
ag64
ag66
ag68
ag71
ag73
ag75
ag77
ag80
ag82
ag84
ag86
ag89
ag91
ag93
ag95
ag98
ag100
ag102
ag104
ag107
ag109
ag111
ag113
ag116
ag118
ag120
ag122
ag125
ag127
ag129
ag131
ag134
ag136
ag138
ag140
ag143
ag145
ag147
ag149
ag152
ag154
ag156
ag158
ag161
ag163
ag165
ag167
ag170
ag172
ag174
ag179
ag181
ag183
ag185
ag188
ag190
ag192
ag194
ag197
ag199
ag201
ag203
ag206
ag208
ag210
ag212
ag215
ag217
ag219
ag221
ag224
ag226
ag228
ag230
ag233
ag235
ag237
ag239
ag242
ag244
ag246
ag248
ag251
ag253
ag255
ag260
ag262
ag264
ag266
ag269
ag271
ag273
ag275
ag278
ag280
ag282
ag284
ag287
ag289
ag291
ag293
ag296
ag298
ag300
ag302
ag305
ag307
ag309
ag311
ag314
ag316
ag318
ag320
ag323
ag325
ag327
ag329
ag332
ag334
ag336
ag338
ag341
ag343
ag345
ag347
ag350
ag352
ag354
ag356
ag359
ag361
ag363
ag365
ag368
ag370
ag372
ag374
ag377
ag379
ag381
ag383
ag386
ag388
ag390
ag392
ag395
ag397
ag399
ag401
ag404
ag406
ag408
ag413
ag415
ag417
ag419
ag422
ag424
ag426
ag428
ag431
ag433
ag435
ag437
ag440
ag442
ag444
ag446
ag449
ag451
ag453
ag455
ag458
ag460
ag462
ag464
ag467
ag469
ag471
ag473
ag476
ag478
ag480
ag482
ag485
ag487
ag489
ag491
ag494
ag496
ag498
ag500
ag503
ag505
ag507
ag509
ag512
ag514
ag516
ag518
ag521
ag523
ag525
ag527
ag530
ag532
ag534
ag536
ag539
ag541
ag543
ag545
ag548
ag550
ag552
ag554
ag557
ag559
ag561
ag563
ag566
ag568
ag570
ag572
ag575
ag577
ag579
ag581
ag584
ag586
ag588
ag590
ag593
ag595
ag597
ag599
ag602
ag604
ag606
ag608
ag611
ag613
ag615
ag617
ag620
ag622
ag624
ag626
ag629
ag631
ag633
ag638
ag640
ag642
ag644
ag647
ag649
ag651
ag653
ag656
ag658
ag660
ag662
ag665
ag667
ag669
ag674
ag676
ag678
ag680
ag683
ag685
ag687
asS'featureMap'
p1783
(lp1784
(lp1785
I0
aI5
ag5
ag6
ag9
ag11
ag13
aa(lp1786
I14
aI17
ag15
ag16
ag18
ag20
ag22
aa(lp1787
I19
aI23
ag24
ag25
ag27
ag29
ag31
aa(lp1788
I25
aI28
ag33
ag34
ag36
ag38
ag40
aa(lp1789
I30
aI33
ag42
ag43
ag45
ag47
ag49
aa(lp1790
I40
aI45
ag51
ag52
ag54
ag56
ag58
aa(lp1791
I60
aI67
ag60
ag61
ag63
ag65
ag67
aa(lp1792
I81
aI89
ag69
ag70
ag72
ag74
ag76
aa(lp1793
I92
aI95
ag78
ag79
ag81
ag83
ag85
aa(lp1794
I102
aI106
ag87
ag88
ag90
ag92
ag94
aa(lp1795
I111
aI113
ag96
ag97
ag99
ag101
ag103
aa(lp1796
I116
aI120
ag105
ag106
ag108
ag110
ag112
aa(lp1797
I123
aI126
ag114
ag115
ag117
ag119
ag121
aa(lp1798
I140
aI143
ag123
ag124
ag126
ag128
ag130
aa(lp1799
I148
aI151
ag132
ag133
ag135
ag137
ag139
aa(lp1800
I165
aI169
ag141
ag142
ag144
ag146
ag148
aa(lp1801
I176
aI179
ag150
ag151
ag153
ag155
ag157
aa(lp1802
I181
aI183
ag159
ag160
ag162
ag164
ag166
aa(lp1803
I191
aI195
ag168
ag169
ag171
ag173
ag175
aa(lp1804
I197
aI200
ag177
ag178
ag180
ag182
ag184
aa(lp1805
I202
aI205
ag186
ag187
ag189
ag191
ag193
aa(lp1806
I207
aI211
ag195
ag196
ag198
ag200
ag202
aa(lp1807
I231
aI234
ag204
ag205
ag207
ag209
ag211
aa(lp1808
I236
aI239
ag213
ag214
ag216
ag218
ag220
aa(lp1809
I252
aI256
ag222
ag223
ag225
ag227
ag229
aa(lp1810
I258
aI261
ag231
ag232
ag234
ag236
ag238
aa(lp1811
I274
aI277
ag240
ag241
ag243
ag245
ag247
aa(lp1812
I279
aI283
ag249
ag250
ag252
ag254
ag256
aa(lp1813
I285
aI288
ag258
ag259
ag261
ag263
ag265
aa(lp1814
I290
aI293
ag267
ag268
ag270
ag272
ag274
aa(lp1815
I307
aI310
ag276
ag277
ag279
ag281
ag283
aa(lp1816
I316
aI318
ag285
ag286
ag288
ag290
ag292
aa(lp1817
I320
aI329
ag294
ag295
ag297
ag299
ag301
aa(lp1818
I331
aI335
ag303
ag304
ag306
ag308
ag310
aa(lp1819
I353
aI358
ag312
ag313
ag315
ag317
ag319
aa(lp1820
I360
aI366
ag321
ag322
ag324
ag326
ag328
aa(lp1821
I376
aI382
ag330
ag331
ag333
ag335
ag337
aa(lp1822
I384
aI385
ag339
ag340
ag342
ag344
ag346
aa(lp1823
I387
aI391
ag348
ag349
ag351
ag353
ag355
aa(lp1824
I393
aI396
ag357
ag358
ag360
ag362
ag364
aa(lp1825
I398
aI405
ag366
ag367
ag369
ag371
ag373
aa(lp1826
I407
aI412
ag375
ag376
ag378
ag380
ag382
aa(lp1827
I418
aI423
ag384
ag385
ag387
ag389
ag391
aa(lp1828
I429
aI435
ag393
ag394
ag396
ag398
ag400
aa(lp1829
I450
aI454
ag402
ag403
ag405
ag407
ag409
aa(lp1830
I456
aI459
ag411
ag412
ag414
ag416
ag418
aa(lp1831
I461
aI464
ag420
ag421
ag423
ag425
ag427
aa(lp1832
I466
aI469
ag429
ag430
ag432
ag434
ag436
aa(lp1833
I471
aI477
ag438
ag439
ag441
ag443
ag445
aa(lp1834
I479
aI483
ag447
ag448
ag450
ag452
ag454
aa(lp1835
I490
aI491
ag456
ag457
ag459
ag461
ag463
aa(lp1836
I493
aI501
ag465
ag466
ag468
ag470
ag472
aa(lp1837
I514
aI516
ag474
ag475
ag477
ag479
ag481
aa(lp1838
I519
aI523
ag483
ag484
ag486
ag488
ag490
aa(lp1839
I532
aI536
ag492
ag493
ag495
ag497
ag499
aa(lp1840
I541
aI544
ag501
ag502
ag504
ag506
ag508
aa(lp1841
I558
aI562
ag510
ag511
ag513
ag515
ag517
aa(lp1842
I565
aI577
ag519
ag520
ag522
ag524
ag526
aa(lp1843
I579
aI582
ag528
ag529
ag531
ag533
ag535
aa(lp1844
I588
aI592
ag537
ag538
ag540
ag542
ag544
aa(lp1845
I602
aI606
ag546
ag547
ag549
ag551
ag553
aa(lp1846
I608
aI613
ag555
ag556
ag558
ag560
ag562
aa(lp1847
I618
aI621
ag564
ag565
ag567
ag569
ag571
aa(lp1848
I635
aI638
ag573
ag574
ag576
ag578
ag580
aa(lp1849
I641
aI643
ag582
ag583
ag585
ag587
ag589
aa(lp1850
I645
aI654
ag591
ag592
ag594
ag596
ag598
aa(lp1851
I657
aI659
ag600
ag601
ag603
ag605
ag607
aa(lp1852
I661
aI670
ag609
ag610
ag612
ag614
ag616
aa(lp1853
I672
aI676
ag618
ag619
ag621
ag623
ag625
aa(lp1854
I687
aI691
ag627
ag628
ag630
ag632
ag634
aa(lp1855
I693
aI696
ag636
ag637
ag639
ag641
ag643
aa(lp1856
I698
aI702
ag645
ag646
ag648
ag650
ag652
aa(lp1857
I708
aI711
ag654
ag655
ag657
ag659
ag661
aa(lp1858
I713
aI717
ag663
ag664
ag666
ag668
ag670
aa(lp1859
I719
aI722
ag672
ag673
ag675
ag677
ag679
aa(lp1860
I719
aI722
ag681
ag682
ag684
ag686
ag688
aasS'characterMap'
p1861
(lp1862
g693
ag695
ag697
ag699
ag701
ag703
ag1629
a(lp1863
I7
aS'-'
p1864
aag1631
ag708
ag710
ag712
ag713
ag1632
ag716
ag718
ag720
ag721
ag1633
ag724
ag725
ag726
ag728
ag730
ag1634
ag734
ag736
ag738
ag740
ag1635
ag743
ag745
ag746
ag748
ag1636
ag752
ag753
ag754
ag755
ag1637
ag758
ag759
ag760
ag761
ag762
ag763
ag1638
ag767
ag768
ag1639
ag772
ag773
ag775
ag1640
ag779
ag780
ag782
ag783
ag785
ag1641
ag788
ag789
ag790
ag791
ag792
ag793
ag794
ag795
ag1642
ag799
ag800
ag1643
ag805
ag806
ag807
ag808
ag1644
ag812
ag813
ag814
ag1645
ag817
ag818
ag819
ag820
ag821
ag822
ag823
ag824
ag825
a(lp1865
I90
aS'.'
p1866
aag1646
ag828
ag829
ag830
ag831
ag1647
ag835
ag836
ag837
ag838
ag1648
ag841
ag842
ag843
ag844
ag845
ag1649
ag849
ag850
ag1650
ag853
ag854
ag855
a(lp1867
I114
aS','
p1868
aag1651
ag858
ag859
ag860
ag861
ag862
a(lp1869
I121
ag1868
aag1652
ag865
ag866
ag867
ag868
ag1653
ag872
ag873
ag874
ag875
ag1654
ag879
ag880
ag1655
ag884
ag885
ag886
ag1656
ag889
ag890
ag891
ag892
ag1657
ag896
ag897
ag1658
ag900
ag901
ag902
ag903
ag1659
ag907
ag909
ag910
ag911
ag1660
ag915
ag916
ag1661
ag920
ag921
ag922
ag1662
ag925
ag926
ag927
ag928
ag929
ag1663
ag933
ag934
ag935
ag936
ag1664
ag939
ag940
ag941
ag942
ag1665
ag945
ag946
ag947
a(lp1870
I184
ag1866
aag1666
ag951
ag952
ag953
ag954
ag1667
ag957
ag958
ag959
ag960
ag961
ag1668
ag964
ag965
ag966
ag967
ag1669
ag970
ag971
ag972
ag973
ag1670
ag976
ag977
ag978
ag979
ag980
ag1671
ag984
ag985
ag986
ag987
ag988
ag989
ag1672
ag993
ag994
ag1673
ag998
ag999
ag1000
ag1674
ag1004
ag1005
ag1006
ag1675
ag1009
ag1010
ag1011
ag1012
ag1676
ag1015
ag1016
ag1017
ag1018
ag1677
ag1022
ag1023
ag1678
ag1027
ag1028
ag1679
ag1032
ag1033
ag1680
ag1036
ag1681
ag1039
ag1040
ag1041
ag1042
ag1043
ag1682
ag1046
ag1047
ag1048
ag1049
a(lp1871
I262
ag1866
aag1683
a(lp1872
I264
ag1864
aag1684
ag1053
ag1054
ag1685
ag1058
ag1059
ag1060
ag1061
ag1686
ag1064
ag1065
ag1066
ag1067
ag1687
ag1070
ag1071
ag1072
ag1073
ag1074
ag1688
ag1077
ag1078
ag1079
ag1080
ag1689
ag1083
ag1084
ag1085
ag1086
ag1690
ag1090
ag1091
ag1092
ag1691
ag1096
ag1097
ag1098
ag1099
ag1692
ag1103
ag1104
ag1693
ag1107
ag1108
ag1109
ag1110
ag1694
ag1114
ag1115
ag1116
ag1695
ag1119
ag1121
ag1123
ag1696
ag1126
ag1127
ag1128
ag1129
ag1130
ag1131
ag1132
ag1133
ag1134
ag1135
ag1697
ag1138
ag1139
ag1140
ag1141
ag1142
ag1698
ag1146
ag1147
ag1699
ag1151
ag1152
ag1153
ag1700
ag1157
ag1158
ag1701
ag1162
ag1163
ag1164
ag1165
ag1166
ag1702
ag1169
ag1170
ag1171
ag1172
ag1173
ag1174
ag1703
ag1177
ag1178
ag1179
ag1180
ag1181
ag1182
ag1183
a(lp1873
I367
ag1868
aag1704
ag1187
ag1188
ag1189
ag1190
ag1191
ag1192
ag1705
ag1195
ag1196
ag1197
ag1198
ag1199
ag1200
ag1201
ag1706
ag1204
ag1205
ag1707
ag1208
ag1209
ag1210
a(lp1874
I390
aS"'"
p1875
aag1211
ag1708
ag1214
ag1215
ag1216
ag1217
ag1709
ag1220
ag1221
ag1222
ag1223
ag1224
ag1225
ag1226
ag1227
ag1710
ag1230
ag1231
ag1232
ag1233
ag1234
ag1235
ag1711
ag1239
ag1240
ag1241
ag1712
ag1244
ag1245
ag1246
ag1247
ag1248
ag1249
ag1713
ag1253
ag1254
ag1255
ag1714
ag1258
ag1259
ag1260
ag1261
ag1262
ag1263
ag1264
ag1715
ag1268
ag1269
ag1270
ag1271
a(lp1876
I441
ag1866
aag1716
a(lp1877
I443
ag1864
aag1717
ag1275
ag1276
ag1277
ag1278
ag1718
ag1281
ag1282
ag1283
ag1284
ag1285
ag1719
ag1288
ag1289
ag1290
ag1291
ag1720
ag1294
ag1295
ag1296
ag1297
ag1721
ag1300
ag1301
ag1302
ag1303
ag1722
ag1306
ag1307
ag1308
ag1309
ag1310
ag1311
ag1312
ag1723
ag1315
ag1316
ag1317
ag1318
ag1319
ag1724
ag1323
ag1324
ag1325
ag1326
ag1725
ag1329
ag1330
ag1726
ag1333
ag1334
ag1335
ag1336
ag1337
ag1338
ag1339
ag1340
ag1341
ag1727
ag1345
ag1346
ag1347
ag1728
ag1351
ag1352
ag1353
ag1729
ag1357
ag1358
ag1730
ag1361
ag1362
ag1363
a(lp1878
I517
ag1866
aag1731
ag1366
ag1367
ag1368
ag1369
ag1370
ag1732
ag1374
ag1375
ag1733
ag1379
ag1380
ag1381
ag1734
ag1384
ag1385
ag1386
ag1387
ag1388
ag1735
ag1392
ag1393
ag1736
ag1396
ag1397
ag1398
ag1399
ag1737
ag1403
ag1404
ag1738
ag1408
ag1409
ag1410
ag1411
ag1739
ag1415
ag1416
ag1417
ag1740
ag1420
ag1421
ag1422
ag1423
ag1424
a(lp1879
I563
ag1866
aag1741
ag1427
ag1428
ag1429
ag1430
ag1431
ag1432
ag1433
ag1434
ag1435
ag1436
ag1437
ag1438
ag1439
ag1742
ag1442
ag1443
ag1444
ag1445
ag1743
ag1449
ag1450
ag1451
ag1744
ag1454
ag1455
ag1456
ag1457
ag1458
ag1745
ag1462
ag1463
ag1464
ag1465
ag1746
ag1469
ag1470
ag1747
ag1473
ag1474
ag1475
ag1476
ag1477
ag1748
ag1480
ag1481
ag1482
ag1483
ag1484
ag1485
ag1749
ag1489
ag1490
ag1750
ag1493
ag1494
ag1495
ag1496
ag1751
ag1500
ag1501
ag1752
ag1505
ag1506
ag1507
ag1508
ag1753
ag1512
ag1513
ag1514
ag1754
ag1517
ag1518
ag1519
ag1520
a(lp1880
I639
ag1866
aag1755
ag1523
ag1524
ag1525
ag1756
ag1528
ag1529
ag1530
ag1531
ag1532
ag1533
ag1534
ag1535
ag1536
ag1537
a(lp1881
I655
ag1866
aag1757
ag1540
ag1541
ag1542
ag1758
ag1545
ag1546
ag1547
ag1548
ag1549
ag1550
ag1551
ag1552
ag1553
ag1554
ag1759
ag1557
ag1558
ag1559
ag1560
ag1561
ag1760
ag1565
ag1566
ag1567
ag1568
ag1761
ag1572
ag1573
ag1574
ag1762
ag1577
ag1578
ag1579
ag1580
ag1581
ag1763
ag1584
ag1585
ag1586
ag1587
ag1764
ag1590
ag1591
ag1592
ag1593
ag1594
ag1765
ag1598
ag1599
ag1600
ag1766
ag1603
ag1604
ag1605
ag1606
ag1767
ag1609
ag1610
ag1611
ag1612
ag1613
ag1768
ag1616
ag1617
ag1618
ag1619
ag1769
ag1622
ag1623
ag1624
ag1625
ag1626
a(lp1882
I729
ag1866
aasS'docName'
p1883
S'source-document02351.txt'
p1884
sb.