(iModel.Document
Document
p0
(dp1
S'fmap'
p2
(lp3
(lp4
I0
aI6
aS'january'
p5
a(lp6
S'*'
p7
ag5
aaa(lp8
I0
aI6
ag5
a(lp9
g7
ag5
aaa(lp10
I0
aI6
ag5
a(lp11
g7
ag5
aaa(lp12
I0
aI6
ag5
a(lp13
g7
ag5
aaa(lp14
I8
aI9
aS'12'
p15
a(lp16
g5
ag15
aaa(lp17
I8
aI9
ag15
a(lp18
g7
ag15
aaa(lp19
I8
aI9
ag15
a(lp20
g7
ag15
aaa(lp21
I8
aI9
ag15
a(lp22
g7
ag15
aaa(lp23
I12
aI15
aS'2009'
p24
a(lp25
g15
ag24
aaa(lp26
I12
aI15
ag24
a(lp27
g5
ag24
aaa(lp28
I12
aI15
ag24
a(lp29
g7
ag24
aaa(lp30
I12
aI15
ag24
a(lp31
g7
ag24
aaa(lp32
I20
aI25
aS'equine'
p33
a(lp34
g24
ag33
aaa(lp35
I20
aI25
ag33
a(lp36
g15
ag33
aaa(lp37
I20
aI25
ag33
a(lp38
g5
ag33
aaa(lp39
I20
aI25
ag33
a(lp40
g7
ag33
aaa(lp41
I27
aI32
aS'rescue'
p42
a(lp43
g33
ag42
aaa(lp44
I27
aI32
ag42
a(lp45
g24
ag42
aaa(lp46
I27
aI32
ag42
a(lp47
g15
ag42
aaa(lp48
I27
aI32
ag42
a(lp49
g5
ag42
aaa(lp50
I34
aI39
aS'france'
p51
a(lp52
g42
ag51
aaa(lp53
I34
aI39
ag51
a(lp54
g33
ag51
aaa(lp55
I34
aI39
ag51
a(lp56
g24
ag51
aaa(lp57
I34
aI39
ag51
a(lp58
g15
ag51
aaa(lp59
I41
aI44
aS'last'
p60
a(lp61
g51
ag60
aaa(lp62
I41
aI44
ag60
a(lp63
g42
ag60
aaa(lp64
I41
aI44
ag60
a(lp65
g33
ag60
aaa(lp66
I41
aI44
ag60
a(lp67
g24
ag60
aaa(lp68
I46
aI49
aS'year'
p69
a(lp70
g60
ag69
aaa(lp71
I46
aI49
ag69
a(lp72
g51
ag69
aaa(lp73
I46
aI49
ag69
a(lp74
g42
ag69
aaa(lp75
I46
aI49
ag69
a(lp76
g33
ag69
aaa(lp77
I59
aI65
aS'alerted'
p78
a(lp79
g69
ag78
aaa(lp80
I59
aI65
ag78
a(lp81
g60
ag78
aaa(lp82
I59
aI65
ag78
a(lp83
g51
ag78
aaa(lp84
I59
aI65
ag78
a(lp85
g42
ag78
aaa(lp86
I74
aI77
aS'case'
p87
a(lp88
g78
ag87
aaa(lp89
I74
aI77
ag87
a(lp90
g69
ag87
aaa(lp91
I74
aI77
ag87
a(lp92
g60
ag87
aaa(lp93
I74
aI77
ag87
a(lp94
g51
ag87
aaa(lp95
I84
aI91
aS'shetland'
p96
a(lp97
g87
ag96
aaa(lp98
I84
aI91
ag96
a(lp99
g78
ag96
aaa(lp100
I84
aI91
ag96
a(lp101
g69
ag96
aaa(lp102
I84
aI91
ag96
a(lp103
g60
ag96
aaa(lp104
I96
aI99
aS'dept'
p105
a(lp106
g96
ag105
aaa(lp107
I96
aI99
ag105
a(lp108
g87
ag105
aaa(lp109
I96
aI99
ag105
a(lp110
g78
ag105
aaa(lp111
I96
aI99
ag105
a(lp112
g69
ag105
aaa(lp113
I102
aI103
aS'17'
p114
a(lp115
g105
ag114
aaa(lp116
I102
aI103
ag114
a(lp117
g96
ag114
aaa(lp118
I102
aI103
ag114
a(lp119
g87
ag114
aaa(lp120
I102
aI103
ag114
a(lp121
g78
ag114
aaa(lp122
I114
aI121
aS'severely'
p123
a(lp124
g114
ag123
aaa(lp125
I114
aI121
ag123
a(lp126
g105
ag123
aaa(lp127
I114
aI121
ag123
a(lp128
g96
ag123
aaa(lp129
I114
aI121
ag123
a(lp130
g87
ag123
aaa(lp131
I123
aI131
aS'overgrown'
p132
a(lp133
g123
ag132
aaa(lp134
I123
aI131
ag132
a(lp135
g114
ag132
aaa(lp136
I123
aI131
ag132
a(lp137
g105
ag132
aaa(lp138
I123
aI131
ag132
a(lp139
g96
ag132
aaa(lp140
I133
aI136
aS'feet'
p141
a(lp142
g132
ag141
aaa(lp143
I133
aI136
ag141
a(lp144
g123
ag141
aaa(lp145
I133
aI136
ag141
a(lp146
g114
ag141
aaa(lp147
I133
aI136
ag141
a(lp148
g105
ag141
aaa(lp149
I146
aI150
aS'maire'
p150
a(lp151
g141
ag150
aaa(lp152
I146
aI150
ag150
a(lp153
g132
ag150
aaa(lp154
I146
aI150
ag150
a(lp155
g123
ag150
aaa(lp156
I146
aI150
ag150
a(lp157
g114
ag150
aaa(lp158
I156
aI162
aS'already'
p159
a(lp160
g150
ag159
aaa(lp161
I156
aI162
ag159
a(lp162
g141
ag159
aaa(lp163
I156
aI162
ag159
a(lp164
g132
ag159
aaa(lp165
I156
aI162
ag159
a(lp166
g123
ag159
aaa(lp167
I169
aI177
aS'contacted'
p168
a(lp169
g159
ag168
aaa(lp170
I169
aI177
ag168
a(lp171
g150
ag168
aaa(lp172
I169
aI177
ag168
a(lp173
g141
ag168
aaa(lp174
I169
aI177
ag168
a(lp175
g132
ag168
aaa(lp176
I182
aI186
aS'spoke'
p177
a(lp178
g168
ag177
aaa(lp179
I182
aI186
ag177
a(lp180
g159
ag177
aaa(lp181
I182
aI186
ag177
a(lp182
g150
ag177
aaa(lp183
I182
aI186
ag177
a(lp184
g141
ag177
aaa(lp185
I195
aI197
aS'spa'
p186
a(lp187
g177
ag186
aaa(lp188
I195
aI197
ag186
a(lp189
g168
ag186
aaa(lp190
I195
aI197
ag186
a(lp191
g159
ag186
aaa(lp192
I195
aI197
ag186
a(lp193
g150
ag186
aaa(lp194
I203
aI211
aS'contacted'
p195
a(lp196
g186
ag195
aaa(lp197
I203
aI211
ag195
a(lp198
g177
ag195
aaa(lp199
I203
aI211
ag195
a(lp200
g168
ag195
aaa(lp201
I203
aI211
ag195
a(lp202
g159
ag195
aaa(lp203
I220
aI224
aS'local'
p204
a(lp205
g195
ag204
aaa(lp206
I220
aI224
ag204
a(lp207
g186
ag204
aaa(lp208
I220
aI224
ag204
a(lp209
g177
ag204
aaa(lp210
I220
aI224
ag204
a(lp211
g168
ag204
aaa(lp212
I226
aI237
aS'organisation'
p213
a(lp214
g204
ag213
aaa(lp215
I226
aI237
ag213
a(lp216
g195
ag213
aaa(lp217
I226
aI237
ag213
a(lp218
g186
ag213
aaa(lp219
I226
aI237
ag213
a(lp220
g177
ag213
aaa(lp221
I242
aI245
aS'take'
p222
a(lp223
g213
ag222
aaa(lp224
I242
aI245
ag222
a(lp225
g204
ag222
aaa(lp226
I242
aI245
ag222
a(lp227
g195
ag222
aaa(lp228
I242
aI245
ag222
a(lp229
g186
ag222
aaa(lp230
I251
aI254
aS'case'
p231
a(lp232
g222
ag231
aaa(lp233
I251
aI254
ag231
a(lp234
g213
ag231
aaa(lp235
I251
aI254
ag231
a(lp236
g204
ag231
aaa(lp237
I251
aI254
ag231
a(lp238
g195
ag231
aaa(lp239
I260
aI272
aS'unfortunately'
p240
a(lp241
g231
ag240
aaa(lp242
I260
aI272
ag240
a(lp243
g222
ag240
aaa(lp244
I260
aI272
ag240
a(lp245
g213
ag240
aaa(lp246
I260
aI272
ag240
a(lp247
g204
ag240
aaa(lp248
I281
aI284
aS'know'
p249
a(lp250
g240
ag249
aaa(lp251
I281
aI284
ag249
a(lp252
g231
ag249
aaa(lp253
I281
aI284
ag249
a(lp254
g222
ag249
aaa(lp255
I281
aI284
ag249
a(lp256
g213
ag249
aaa(lp257
I289
aI294
aS'action'
p258
a(lp259
g249
ag258
aaa(lp260
I289
aI294
ag258
a(lp261
g240
ag258
aaa(lp262
I289
aI294
ag258
a(lp263
g231
ag258
aaa(lp264
I289
aI294
ag258
a(lp265
g222
ag258
aaa(lp266
I300
aI304
aS'taken'
p267
a(lp268
g258
ag267
aaa(lp269
I300
aI304
ag267
a(lp270
g249
ag267
aaa(lp271
I300
aI304
ag267
a(lp272
g240
ag267
aaa(lp273
I300
aI304
ag267
a(lp274
g231
ag267
aaa(lp275
I320
aI327
aS'original'
p276
a(lp277
g267
ag276
aaa(lp278
I320
aI327
ag276
a(lp279
g258
ag276
aaa(lp280
I320
aI327
ag276
a(lp281
g249
ag276
aaa(lp282
I320
aI327
ag276
a(lp283
g240
ag276
aaa(lp284
I329
aI334
aS'person'
p285
a(lp286
g276
ag285
aaa(lp287
I329
aI334
ag285
a(lp288
g267
ag285
aaa(lp289
I329
aI334
ag285
a(lp290
g258
ag285
aaa(lp291
I329
aI334
ag285
a(lp292
g249
ag285
aaa(lp293
I340
aI347
aS'reported'
p294
a(lp295
g285
ag294
aaa(lp296
I340
aI347
ag294
a(lp297
g276
ag294
aaa(lp298
I340
aI347
ag294
a(lp299
g267
ag294
aaa(lp300
I340
aI347
ag294
a(lp301
g258
ag294
aaa(lp302
I352
aI355
aS'told'
p303
a(lp304
g294
ag303
aaa(lp305
I352
aI355
ag303
a(lp306
g285
ag303
aaa(lp307
I352
aI355
ag303
a(lp308
g276
ag303
aaa(lp309
I352
aI355
ag303
a(lp310
g267
ag303
aaa(lp311
I357
aI358
aS'us'
p312
a(lp313
g303
ag312
aaa(lp314
I357
aI358
ag312
a(lp315
g294
ag312
aaa(lp316
I357
aI358
ag312
a(lp317
g285
ag312
aaa(lp318
I357
aI358
ag312
a(lp319
g276
ag312
aaa(lp320
I368
aI378
aS'immediately'
p321
a(lp322
g312
ag321
aaa(lp323
I368
aI378
ag321
a(lp324
g303
ag321
aaa(lp325
I368
aI378
ag321
a(lp326
g294
ag321
aaa(lp327
I368
aI378
ag321
a(lp328
g285
ag321
aaa(lp329
I380
aI386
aS'started'
p330
a(lp331
g321
ag330
aaa(lp332
I380
aI386
ag330
a(lp333
g312
ag330
aaa(lp334
I380
aI386
ag330
a(lp335
g303
ag330
aaa(lp336
I380
aI386
ag330
a(lp337
g294
ag330
aaa(lp338
I388
aI401
aS'communications'
p339
a(lp340
g330
ag339
aaa(lp341
I388
aI401
ag339
a(lp342
g321
ag339
aaa(lp343
I388
aI401
ag339
a(lp344
g312
ag339
aaa(lp345
I388
aI401
ag339
a(lp346
g303
ag339
aaa(lp347
I412
aI415
aS'ddsv'
p348
a(lp349
g339
ag348
aaa(lp350
I412
aI415
ag348
a(lp351
g330
ag348
aaa(lp352
I412
aI415
ag348
a(lp353
g321
ag348
aaa(lp354
I412
aI415
ag348
a(lp355
g312
ag348
aaa(lp356
I420
aI422
aS'get'
p357
a(lp358
g348
ag357
aaa(lp359
I420
aI422
ag357
a(lp360
g339
ag357
aaa(lp361
I420
aI422
ag357
a(lp362
g330
ag357
aaa(lp363
I420
aI422
ag357
a(lp364
g321
ag357
aaa(lp365
I424
aI432
aS'something'
p366
a(lp367
g357
ag366
aaa(lp368
I424
aI432
ag366
a(lp369
g348
ag366
aaa(lp370
I424
aI432
ag366
a(lp371
g339
ag366
aaa(lp372
I424
aI432
ag366
a(lp373
g330
ag366
aaa(lp374
I434
aI437
aS'done'
p375
a(lp376
g366
ag375
aaa(lp377
I434
aI437
ag375
a(lp378
g357
ag375
aaa(lp379
I434
aI437
ag375
a(lp380
g348
ag375
aaa(lp381
I434
aI437
ag375
a(lp382
g339
ag375
aaa(lp383
I440
aI443
aS'last'
p384
a(lp385
g375
ag384
aaa(lp386
I440
aI443
ag384
a(lp387
g366
ag384
aaa(lp388
I440
aI443
ag384
a(lp389
g357
ag384
aaa(lp390
I440
aI443
ag384
a(lp391
g348
ag384
aaa(lp392
I445
aI448
aS'week'
p393
a(lp394
g384
ag393
aaa(lp395
I445
aI448
ag393
a(lp396
g375
ag393
aaa(lp397
I445
aI448
ag393
a(lp398
g366
ag393
aaa(lp399
I445
aI448
ag393
a(lp400
g357
ag393
aaa(lp401
I458
aI466
aS'contacted'
p402
a(lp403
g393
ag402
aaa(lp404
I458
aI466
ag402
a(lp405
g384
ag402
aaa(lp406
I458
aI466
ag402
a(lp407
g375
ag402
aaa(lp408
I458
aI466
ag402
a(lp409
g366
ag402
aaa(lp410
I475
aI478
aS'ddsv'
p411
a(lp412
g402
ag411
aaa(lp413
I475
aI478
ag411
a(lp414
g393
ag411
aaa(lp415
I475
aI478
ag411
a(lp416
g384
ag411
aaa(lp417
I475
aI478
ag411
a(lp418
g375
ag411
aaa(lp419
I489
aI498
aS'department'
p420
a(lp421
g411
ag420
aaa(lp422
I489
aI498
ag420
a(lp423
g402
ag420
aaa(lp424
I489
aI498
ag420
a(lp425
g393
ag420
aaa(lp426
I489
aI498
ag420
a(lp427
g384
ag420
aaa(lp428
I503
aI508
aS'inform'
p429
a(lp430
g420
ag429
aaa(lp431
I503
aI508
ag429
a(lp432
g411
ag429
aaa(lp433
I503
aI508
ag429
a(lp434
g402
ag429
aaa(lp435
I503
aI508
ag429
a(lp436
g393
ag429
aaa(lp437
I510
aI511
aS'us'
p438
a(lp439
g429
ag438
aaa(lp440
I510
aI511
ag438
a(lp441
g420
ag438
aaa(lp442
I510
aI511
ag438
a(lp443
g411
ag438
aaa(lp444
I510
aI511
ag438
a(lp445
g402
ag438
aaa(lp446
I550
aI554
aS'owner'
p447
a(lp448
g438
ag447
aaa(lp449
I550
aI554
ag447
a(lp450
g429
ag447
aaa(lp451
I550
aI554
ag447
a(lp452
g420
ag447
aaa(lp453
I550
aI554
ag447
a(lp454
g411
ag447
aaa(lp455
I569
aI576
aS'notified'
p456
a(lp457
g447
ag456
aaa(lp458
I569
aI576
ag456
a(lp459
g438
ag456
aaa(lp460
I569
aI576
ag456
a(lp461
g429
ag456
aaa(lp462
I569
aI576
ag456
a(lp463
g420
ag456
aaa(lp464
I581
aI584
aS'take'
p465
a(lp466
g456
ag465
aaa(lp467
I581
aI584
ag465
a(lp468
g447
ag465
aaa(lp469
I581
aI584
ag465
a(lp470
g438
ag465
aaa(lp471
I581
aI584
ag465
a(lp472
g429
ag465
aaa(lp473
I586
aI591
aS'action'
p474
a(lp475
g465
ag474
aaa(lp476
I586
aI591
ag474
a(lp477
g456
ag474
aaa(lp478
I586
aI591
ag474
a(lp479
g447
ag474
aaa(lp480
I586
aI591
ag474
a(lp481
g438
ag474
aaa(lp482
I596
aI602
aS'rectify'
p483
a(lp484
g474
ag483
aaa(lp485
I596
aI602
ag483
a(lp486
g465
ag483
aaa(lp487
I596
aI602
ag483
a(lp488
g456
ag483
aaa(lp489
I596
aI602
ag483
a(lp490
g447
ag483
aaa(lp491
I608
aI615
aS'pony\xe2\x80\x99s'
p492
a(lp493
g483
ag492
aaa(lp494
I608
aI615
ag492
a(lp495
g474
ag492
aaa(lp496
I608
aI615
ag492
a(lp497
g465
ag492
aaa(lp498
I608
aI615
ag492
a(lp499
g456
ag492
aaa(lp500
I617
aI625
aS'condition'
p501
a(lp502
g492
ag501
aaa(lp503
I617
aI625
ag501
a(lp504
g483
ag501
aaa(lp505
I617
aI625
ag501
a(lp506
g474
ag501
aaa(lp507
I617
aI625
ag501
a(lp508
g465
ag501
aaa(lp509
I639
aI644
aS'course'
p510
a(lp511
g501
ag510
aaa(lp512
I639
aI644
ag510
a(lp513
g492
ag510
aaa(lp514
I639
aI644
ag510
a(lp515
g483
ag510
aaa(lp516
I639
aI644
ag510
a(lp517
g474
ag510
aaa(lp518
I649
aI657
aS'following'
p519
a(lp520
g510
ag519
aaa(lp521
I649
aI657
ag519
a(lp522
g501
ag519
aaa(lp523
I649
aI657
ag519
a(lp524
g492
ag519
aaa(lp525
I649
aI657
ag519
a(lp526
g483
ag519
aaa(lp527
I667
aI673
aS'shortly'
p528
a(lp529
g519
ag528
aaa(lp530
I667
aI673
ag528
a(lp531
g510
ag528
aaa(lp532
I667
aI673
ag528
a(lp533
g501
ag528
aaa(lp534
I667
aI673
ag528
a(lp535
g492
ag528
aaa(lp536
I678
aI681
aS'find'
p537
a(lp538
g528
ag537
aaa(lp539
I678
aI681
ag537
a(lp540
g519
ag537
aaa(lp541
I678
aI681
ag537
a(lp542
g510
ag537
aaa(lp543
I678
aI681
ag537
a(lp544
g501
ag537
aaa(lp545
I692
aI703
aS'improvements'
p546
a(lp547
g537
ag546
aaa(lp548
I692
aI703
ag546
a(lp549
g528
ag546
aaa(lp550
I692
aI703
ag546
a(lp551
g519
ag546
aaa(lp552
I692
aI703
ag546
a(lp553
g510
ag546
aaa(lp554
I710
aI713
aS'made'
p555
a(lp556
g546
ag555
aaa(lp557
I710
aI713
ag555
a(lp558
g537
ag555
aaa(lp559
I710
aI713
ag555
a(lp560
g528
ag555
aaa(lp561
I710
aI713
ag555
a(lp562
g519
ag555
aaasS'wordMap'
p563
(lp564
(lp565
I0
aI6
ag5
a(lp566
(lp567
I0
aS'j'
p568
aa(lp569
I1
aS'a'
p570
aa(lp571
I2
aS'n'
p572
aa(lp573
I3
aS'u'
p574
aa(lp575
I4
ag570
aa(lp576
I5
aS'r'
p577
aa(lp578
I6
aS'y'
p579
aaaa(lp580
I8
aI9
ag15
a(lp581
(lp582
I8
aS'1'
p583
aa(lp584
I9
aS'2'
p585
aaaa(lp586
I12
aI15
ag24
a(lp587
(lp588
I12
ag585
aa(lp589
I13
aS'0'
p590
aa(lp591
I14
ag590
aa(lp592
I15
aS'9'
p593
aaaa(lp594
I17
aI18
aS'by'
p595
a(lp596
(lp597
I17
aS'b'
p598
aa(lp599
I18
ag579
aaaa(lp600
I20
aI25
ag33
a(lp601
(lp602
I20
aS'e'
p603
aa(lp604
I21
aS'q'
p605
aa(lp606
I22
ag574
aa(lp607
I23
aS'i'
p608
aa(lp609
I24
ag572
aa(lp610
I25
ag603
aaaa(lp611
I27
aI32
ag42
a(lp612
(lp613
I27
ag577
aa(lp614
I28
ag603
aa(lp615
I29
aS's'
p616
aa(lp617
I30
aS'c'
p618
aa(lp619
I31
ag574
aa(lp620
I32
ag603
aaaa(lp621
I34
aI39
ag51
a(lp622
(lp623
I34
aS'f'
p624
aa(lp625
I35
ag577
aa(lp626
I36
ag570
aa(lp627
I37
ag572
aa(lp628
I38
ag618
aa(lp629
I39
ag603
aaaa(lp630
I41
aI44
ag60
a(lp631
(lp632
I41
aS'l'
p633
aa(lp634
I42
ag570
aa(lp635
I43
ag616
aa(lp636
I44
aS't'
p637
aaaa(lp638
I46
aI49
ag69
a(lp639
(lp640
I46
ag579
aa(lp641
I47
ag603
aa(lp642
I48
ag570
aa(lp643
I49
ag577
aaaa(lp644
I51
aI52
aS'we'
p645
a(lp646
(lp647
I51
aS'w'
p648
aa(lp649
I52
ag603
aaaa(lp650
I54
aI57
aS'were'
p651
a(lp652
(lp653
I54
ag648
aa(lp654
I55
ag603
aa(lp655
I56
ag577
aa(lp656
I57
ag603
aaaa(lp657
I59
aI65
ag78
a(lp658
(lp659
I59
ag570
aa(lp660
I60
ag633
aa(lp661
I61
ag603
aa(lp662
I62
ag577
aa(lp663
I63
ag637
aa(lp664
I64
ag603
aa(lp665
I65
aS'd'
p666
aaaa(lp667
I67
aI68
aS'to'
p668
a(lp669
(lp670
I67
ag637
aa(lp671
I68
aS'o'
p672
aaaa(lp673
I70
aI72
aS'the'
p674
a(lp675
(lp676
I70
ag637
aa(lp677
I71
aS'h'
p678
aa(lp679
I72
ag603
aaaa(lp680
I74
aI77
ag87
a(lp681
(lp682
I74
ag618
aa(lp683
I75
ag570
aa(lp684
I76
ag616
aa(lp685
I77
ag603
aaaa(lp686
I79
aI80
aS'of'
p687
a(lp688
(lp689
I79
ag672
aa(lp690
I80
ag624
aaaa(lp691
I82
aI82
ag570
a(lp692
(lp693
I82
ag570
aaaa(lp694
I84
aI91
ag96
a(lp695
(lp696
I84
ag616
aa(lp697
I85
ag678
aa(lp698
I86
ag603
aa(lp699
I87
ag637
aa(lp700
I88
ag633
aa(lp701
I89
ag570
aa(lp702
I90
ag572
aa(lp703
I91
ag666
aaaa(lp704
I93
aI94
aS'in'
p705
a(lp706
(lp707
I93
ag608
aa(lp708
I94
ag572
aaaa(lp709
I96
aI99
ag105
a(lp710
(lp711
I96
ag666
aa(lp712
I97
ag603
aa(lp713
I98
aS'p'
p714
aa(lp715
I99
ag637
aaaa(lp716
I102
aI103
ag114
a(lp717
(lp718
I102
ag583
aa(lp719
I103
aS'7'
p720
aaaa(lp721
I105
aI108
aS'that'
p722
a(lp723
(lp724
I105
ag637
aa(lp725
I106
ag678
aa(lp726
I107
ag570
aa(lp727
I108
ag637
aaaa(lp728
I110
aI112
aS'had'
p729
a(lp730
(lp731
I110
ag678
aa(lp732
I111
ag570
aa(lp733
I112
ag666
aaaa(lp734
I114
aI121
ag123
a(lp735
(lp736
I114
ag616
aa(lp737
I115
ag603
aa(lp738
I116
aS'v'
p739
aa(lp740
I117
ag603
aa(lp741
I118
ag577
aa(lp742
I119
ag603
aa(lp743
I120
ag633
aa(lp744
I121
ag579
aaaa(lp745
I123
aI131
ag132
a(lp746
(lp747
I123
ag672
aa(lp748
I124
ag739
aa(lp749
I125
ag603
aa(lp750
I126
ag577
aa(lp751
I127
aS'g'
p752
aa(lp753
I128
ag577
aa(lp754
I129
ag672
aa(lp755
I130
ag648
aa(lp756
I131
ag572
aaaa(lp757
I133
aI136
ag141
a(lp758
(lp759
I133
ag624
aa(lp760
I134
ag603
aa(lp761
I135
ag603
aa(lp762
I136
ag637
aaaa(lp763
I139
aI140
aS'as'
p764
a(lp765
(lp766
I139
ag570
aa(lp767
I140
ag616
aaaa(lp768
I142
aI144
aS'the'
p769
a(lp770
(lp771
I142
ag637
aa(lp772
I143
ag678
aa(lp773
I144
ag603
aaaa(lp774
I146
aI150
ag150
a(lp775
(lp776
I146
aS'm'
p777
aa(lp778
I147
ag570
aa(lp779
I148
ag608
aa(lp780
I149
ag577
aa(lp781
I150
ag603
aaaa(lp782
I152
aI154
aS'had'
p783
a(lp784
(lp785
I152
ag678
aa(lp786
I153
ag570
aa(lp787
I154
ag666
aaaa(lp788
I156
aI162
ag159
a(lp789
(lp790
I156
ag570
aa(lp791
I157
ag633
aa(lp792
I158
ag577
aa(lp793
I159
ag603
aa(lp794
I160
ag570
aa(lp795
I161
ag666
aa(lp796
I162
ag579
aaaa(lp797
I164
aI167
aS'been'
p798
a(lp799
(lp800
I164
ag598
aa(lp801
I165
ag603
aa(lp802
I166
ag603
aa(lp803
I167
ag572
aaaa(lp804
I169
aI177
ag168
a(lp805
(lp806
I169
ag618
aa(lp807
I170
ag672
aa(lp808
I171
ag572
aa(lp809
I172
ag637
aa(lp810
I173
ag570
aa(lp811
I174
ag618
aa(lp812
I175
ag637
aa(lp813
I176
ag603
aa(lp814
I177
ag666
aaaa(lp815
I179
aI180
aS'we'
p816
a(lp817
(lp818
I179
ag648
aa(lp819
I180
ag603
aaaa(lp820
I182
aI186
ag177
a(lp821
(lp822
I182
ag616
aa(lp823
I183
ag714
aa(lp824
I184
ag672
aa(lp825
I185
aS'k'
p826
aa(lp827
I186
ag603
aaaa(lp828
I188
aI189
aS'to'
p829
a(lp830
(lp831
I188
ag637
aa(lp832
I189
ag672
aaaa(lp833
I191
aI193
aS'the'
p834
a(lp835
(lp836
I191
ag637
aa(lp837
I192
ag678
aa(lp838
I193
ag603
aaaa(lp839
I195
aI197
ag186
a(lp840
(lp841
I195
ag616
aa(lp842
I196
ag714
aa(lp843
I197
ag570
aaaa(lp844
I199
aI201
aS'who'
p845
a(lp846
(lp847
I199
ag648
aa(lp848
I200
ag678
aa(lp849
I201
ag672
aaaa(lp850
I203
aI211
ag195
a(lp851
(lp852
I203
ag618
aa(lp853
I204
ag672
aa(lp854
I205
ag572
aa(lp855
I206
ag637
aa(lp856
I207
ag570
aa(lp857
I208
ag618
aa(lp858
I209
ag637
aa(lp859
I210
ag603
aa(lp860
I211
ag666
aaaa(lp861
I213
aI213
ag570
a(lp862
(lp863
I213
ag570
aaaa(lp864
I215
aI218
aS'more'
p865
a(lp866
(lp867
I215
ag777
aa(lp868
I216
ag672
aa(lp869
I217
ag577
aa(lp870
I218
ag603
aaaa(lp871
I220
aI224
ag204
a(lp872
(lp873
I220
ag633
aa(lp874
I221
ag672
aa(lp875
I222
ag618
aa(lp876
I223
ag570
aa(lp877
I224
ag633
aaaa(lp878
I226
aI237
ag213
a(lp879
(lp880
I226
ag672
aa(lp881
I227
ag577
aa(lp882
I228
ag752
aa(lp883
I229
ag570
aa(lp884
I230
ag572
aa(lp885
I231
ag608
aa(lp886
I232
ag616
aa(lp887
I233
ag570
aa(lp888
I234
ag637
aa(lp889
I235
ag608
aa(lp890
I236
ag672
aa(lp891
I237
ag572
aaaa(lp892
I239
aI240
aS'to'
p893
a(lp894
(lp895
I239
ag637
aa(lp896
I240
ag672
aaaa(lp897
I242
aI245
ag222
a(lp898
(lp899
I242
ag637
aa(lp900
I243
ag570
aa(lp901
I244
ag826
aa(lp902
I245
ag603
aaaa(lp903
I247
aI249
aS'the'
p904
a(lp905
(lp906
I247
ag637
aa(lp907
I248
ag678
aa(lp908
I249
ag603
aaaa(lp909
I251
aI254
ag231
a(lp910
(lp911
I251
ag618
aa(lp912
I252
ag570
aa(lp913
I253
ag616
aa(lp914
I254
ag603
aaaa(lp915
I256
aI257
aS'on'
p916
a(lp917
(lp918
I256
ag672
aa(lp919
I257
ag572
aaaa(lp920
I260
aI272
ag240
a(lp921
(lp922
I260
ag574
aa(lp923
I261
ag572
aa(lp924
I262
ag624
aa(lp925
I263
ag672
aa(lp926
I264
ag577
aa(lp927
I265
ag637
aa(lp928
I266
ag574
aa(lp929
I267
ag572
aa(lp930
I268
ag570
aa(lp931
I269
ag637
aa(lp932
I270
ag603
aa(lp933
I271
ag633
aa(lp934
I272
ag579
aaaa(lp935
I274
aI275
aS'we'
p936
a(lp937
(lp938
I274
ag648
aa(lp939
I275
ag603
aaaa(lp940
I277
aI279
aS'now'
p941
a(lp942
(lp943
I277
ag572
aa(lp944
I278
ag672
aa(lp945
I279
ag648
aaaa(lp946
I281
aI284
ag249
a(lp947
(lp948
I281
ag826
aa(lp949
I282
ag572
aa(lp950
I283
ag672
aa(lp951
I284
ag648
aaaa(lp952
I286
aI287
aS'no'
p953
a(lp954
(lp955
I286
ag572
aa(lp956
I287
ag672
aaaa(lp957
I289
aI294
ag258
a(lp958
(lp959
I289
ag570
aa(lp960
I290
ag618
aa(lp961
I291
ag637
aa(lp962
I292
ag608
aa(lp963
I293
ag672
aa(lp964
I294
ag572
aaaa(lp965
I296
aI298
aS'was'
p966
a(lp967
(lp968
I296
ag648
aa(lp969
I297
ag570
aa(lp970
I298
ag616
aaaa(lp971
I300
aI304
ag267
a(lp972
(lp973
I300
ag637
aa(lp974
I301
ag570
aa(lp975
I302
ag826
aa(lp976
I303
ag603
aa(lp977
I304
ag572
aaaa(lp978
I307
aI309
aS'and'
p979
a(lp980
(lp981
I307
ag570
aa(lp982
I308
ag572
aa(lp983
I309
ag666
aaaa(lp984
I311
aI314
aS'when'
p985
a(lp986
(lp987
I311
ag648
aa(lp988
I312
ag678
aa(lp989
I313
ag603
aa(lp990
I314
ag572
aaaa(lp991
I316
aI318
aS'the'
p992
a(lp993
(lp994
I316
ag637
aa(lp995
I317
ag678
aa(lp996
I318
ag603
aaaa(lp997
I320
aI327
ag276
a(lp998
(lp999
I320
ag672
aa(lp1000
I321
ag577
aa(lp1001
I322
ag608
aa(lp1002
I323
ag752
aa(lp1003
I324
ag608
aa(lp1004
I325
ag572
aa(lp1005
I326
ag570
aa(lp1006
I327
ag633
aaaa(lp1007
I329
aI334
ag285
a(lp1008
(lp1009
I329
ag714
aa(lp1010
I330
ag603
aa(lp1011
I331
ag577
aa(lp1012
I332
ag616
aa(lp1013
I333
ag672
aa(lp1014
I334
ag572
aaaa(lp1015
I336
aI338
aS'who'
p1016
a(lp1017
(lp1018
I336
ag648
aa(lp1019
I337
ag678
aa(lp1020
I338
ag672
aaaa(lp1021
I340
aI347
ag294
a(lp1022
(lp1023
I340
ag577
aa(lp1024
I341
ag603
aa(lp1025
I342
ag714
aa(lp1026
I343
ag672
aa(lp1027
I344
ag577
aa(lp1028
I345
ag637
aa(lp1029
I346
ag603
aa(lp1030
I347
ag666
aaaa(lp1031
I349
aI350
aS'it'
p1032
a(lp1033
(lp1034
I349
ag608
aa(lp1035
I350
ag637
aaaa(lp1036
I352
aI355
ag303
a(lp1037
(lp1038
I352
ag637
aa(lp1039
I353
ag672
aa(lp1040
I354
ag633
aa(lp1041
I355
ag666
aaaa(lp1042
I357
aI358
ag312
a(lp1043
(lp1044
I357
ag574
aa(lp1045
I358
ag616
aaaa(lp1046
I360
aI363
aS'this'
p1047
a(lp1048
(lp1049
I360
ag637
aa(lp1050
I361
ag678
aa(lp1051
I362
ag608
aa(lp1052
I363
ag616
aaaa(lp1053
I365
aI366
aS'we'
p1054
a(lp1055
(lp1056
I365
ag648
aa(lp1057
I366
ag603
aaaa(lp1058
I368
aI378
ag321
a(lp1059
(lp1060
I368
ag608
aa(lp1061
I369
ag777
aa(lp1062
I370
ag777
aa(lp1063
I371
ag603
aa(lp1064
I372
ag666
aa(lp1065
I373
ag608
aa(lp1066
I374
ag570
aa(lp1067
I375
ag637
aa(lp1068
I376
ag603
aa(lp1069
I377
ag633
aa(lp1070
I378
ag579
aaaa(lp1071
I380
aI386
ag330
a(lp1072
(lp1073
I380
ag616
aa(lp1074
I381
ag637
aa(lp1075
I382
ag570
aa(lp1076
I383
ag577
aa(lp1077
I384
ag637
aa(lp1078
I385
ag603
aa(lp1079
I386
ag666
aaaa(lp1080
I388
aI401
ag339
a(lp1081
(lp1082
I388
ag618
aa(lp1083
I389
ag672
aa(lp1084
I390
ag777
aa(lp1085
I391
ag777
aa(lp1086
I392
ag574
aa(lp1087
I393
ag572
aa(lp1088
I394
ag608
aa(lp1089
I395
ag618
aa(lp1090
I396
ag570
aa(lp1091
I397
ag637
aa(lp1092
I398
ag608
aa(lp1093
I399
ag672
aa(lp1094
I400
ag572
aa(lp1095
I401
ag616
aaaa(lp1096
I403
aI406
aS'with'
p1097
a(lp1098
(lp1099
I403
ag648
aa(lp1100
I404
ag608
aa(lp1101
I405
ag637
aa(lp1102
I406
ag678
aaaa(lp1103
I408
aI410
aS'the'
p1104
a(lp1105
(lp1106
I408
ag637
aa(lp1107
I409
ag678
aa(lp1108
I410
ag603
aaaa(lp1109
I412
aI415
ag348
a(lp1110
(lp1111
I412
ag666
aa(lp1112
I413
ag666
aa(lp1113
I414
ag616
aa(lp1114
I415
ag739
aaaa(lp1115
I417
aI418
aS'to'
p1116
a(lp1117
(lp1118
I417
ag637
aa(lp1119
I418
ag672
aaaa(lp1120
I420
aI422
ag357
a(lp1121
(lp1122
I420
ag752
aa(lp1123
I421
ag603
aa(lp1124
I422
ag637
aaaa(lp1125
I424
aI432
ag366
a(lp1126
(lp1127
I424
ag616
aa(lp1128
I425
ag672
aa(lp1129
I426
ag777
aa(lp1130
I427
ag603
aa(lp1131
I428
ag637
aa(lp1132
I429
ag678
aa(lp1133
I430
ag608
aa(lp1134
I431
ag572
aa(lp1135
I432
ag752
aaaa(lp1136
I434
aI437
ag375
a(lp1137
(lp1138
I434
ag666
aa(lp1139
I435
ag672
aa(lp1140
I436
ag572
aa(lp1141
I437
ag603
aaaa(lp1142
I440
aI443
ag384
a(lp1143
(lp1144
I440
ag633
aa(lp1145
I441
ag570
aa(lp1146
I442
ag616
aa(lp1147
I443
ag637
aaaa(lp1148
I445
aI448
ag393
a(lp1149
(lp1150
I445
ag648
aa(lp1151
I446
ag603
aa(lp1152
I447
ag603
aa(lp1153
I448
ag826
aaaa(lp1154
I450
aI451
aS'we'
p1155
a(lp1156
(lp1157
I450
ag648
aa(lp1158
I451
ag603
aaaa(lp1159
I453
aI456
aS'were'
p1160
a(lp1161
(lp1162
I453
ag648
aa(lp1163
I454
ag603
aa(lp1164
I455
ag577
aa(lp1165
I456
ag603
aaaa(lp1166
I458
aI466
ag402
a(lp1167
(lp1168
I458
ag618
aa(lp1169
I459
ag672
aa(lp1170
I460
ag572
aa(lp1171
I461
ag637
aa(lp1172
I462
ag570
aa(lp1173
I463
ag618
aa(lp1174
I464
ag637
aa(lp1175
I465
ag603
aa(lp1176
I466
ag666
aaaa(lp1177
I468
aI469
aS'by'
p1178
a(lp1179
(lp1180
I468
ag598
aa(lp1181
I469
ag579
aaaa(lp1182
I471
aI473
aS'the'
p1183
a(lp1184
(lp1185
I471
ag637
aa(lp1186
I472
ag678
aa(lp1187
I473
ag603
aaaa(lp1188
I475
aI478
ag411
a(lp1189
(lp1190
I475
ag666
aa(lp1191
I476
ag666
aa(lp1192
I477
ag616
aa(lp1193
I478
ag739
aaaa(lp1194
I480
aI482
aS'for'
p1195
a(lp1196
(lp1197
I480
ag624
aa(lp1198
I481
ag672
aa(lp1199
I482
ag577
aaaa(lp1200
I484
aI487
aS'that'
p1201
a(lp1202
(lp1203
I484
ag637
aa(lp1204
I485
ag678
aa(lp1205
I486
ag570
aa(lp1206
I487
ag637
aaaa(lp1207
I489
aI498
ag420
a(lp1208
(lp1209
I489
ag666
aa(lp1210
I490
ag603
aa(lp1211
I491
ag714
aa(lp1212
I492
ag570
aa(lp1213
I493
ag577
aa(lp1214
I494
ag637
aa(lp1215
I495
ag777
aa(lp1216
I496
ag603
aa(lp1217
I497
ag572
aa(lp1218
I498
ag637
aaaa(lp1219
I500
aI501
aS'to'
p1220
a(lp1221
(lp1222
I500
ag637
aa(lp1223
I501
ag672
aaaa(lp1224
I503
aI508
ag429
a(lp1225
(lp1226
I503
ag608
aa(lp1227
I504
ag572
aa(lp1228
I505
ag624
aa(lp1229
I506
ag672
aa(lp1230
I507
ag577
aa(lp1231
I508
ag777
aaaa(lp1232
I510
aI511
ag438
a(lp1233
(lp1234
I510
ag574
aa(lp1235
I511
ag616
aaaa(lp1236
I513
aI516
aS'that'
p1237
a(lp1238
(lp1239
I513
ag637
aa(lp1240
I514
ag678
aa(lp1241
I515
ag570
aa(lp1242
I516
ag637
aaaa(lp1243
I518
aI521
aS'they'
p1244
a(lp1245
(lp1246
I518
ag637
aa(lp1247
I519
ag678
aa(lp1248
I520
ag603
aa(lp1249
I521
ag579
aaaa(lp1250
I523
aI525
aS'had'
p1251
a(lp1252
(lp1253
I523
ag678
aa(lp1254
I524
ag570
aa(lp1255
I525
ag666
aaaa(lp1256
I527
aI530
aS'been'
p1257
a(lp1258
(lp1259
I527
ag598
aa(lp1260
I528
ag603
aa(lp1261
I529
ag603
aa(lp1262
I530
ag572
aaaa(lp1263
I532
aI534
aS'out'
p1264
a(lp1265
(lp1266
I532
ag672
aa(lp1267
I533
ag574
aa(lp1268
I534
ag637
aaaa(lp1269
I537
aI539
aS'and'
p1270
a(lp1271
(lp1272
I537
ag570
aa(lp1273
I538
ag572
aa(lp1274
I539
ag666
aaaa(lp1275
I541
aI544
aS'that'
p1276
a(lp1277
(lp1278
I541
ag637
aa(lp1279
I542
ag678
aa(lp1280
I543
ag570
aa(lp1281
I544
ag637
aaaa(lp1282
I546
aI548
aS'the'
p1283
a(lp1284
(lp1285
I546
ag637
aa(lp1286
I547
ag678
aa(lp1287
I548
ag603
aaaa(lp1288
I550
aI554
ag447
a(lp1289
(lp1290
I550
ag672
aa(lp1291
I551
ag648
aa(lp1292
I552
ag572
aa(lp1293
I553
ag603
aa(lp1294
I554
ag577
aaaa(lp1295
I556
aI558
aS'has'
p1296
a(lp1297
(lp1298
I556
ag678
aa(lp1299
I557
ag570
aa(lp1300
I558
ag616
aaaa(lp1301
I560
aI562
aS'now'
p1302
a(lp1303
(lp1304
I560
ag572
aa(lp1305
I561
ag672
aa(lp1306
I562
ag648
aaaa(lp1307
I564
aI567
aS'been'
p1308
a(lp1309
(lp1310
I564
ag598
aa(lp1311
I565
ag603
aa(lp1312
I566
ag603
aa(lp1313
I567
ag572
aaaa(lp1314
I569
aI576
ag456
a(lp1315
(lp1316
I569
ag572
aa(lp1317
I570
ag672
aa(lp1318
I571
ag637
aa(lp1319
I572
ag608
aa(lp1320
I573
ag624
aa(lp1321
I574
ag608
aa(lp1322
I575
ag603
aa(lp1323
I576
ag666
aaaa(lp1324
I578
aI579
aS'to'
p1325
a(lp1326
(lp1327
I578
ag637
aa(lp1328
I579
ag672
aaaa(lp1329
I581
aI584
ag465
a(lp1330
(lp1331
I581
ag637
aa(lp1332
I582
ag570
aa(lp1333
I583
ag826
aa(lp1334
I584
ag603
aaaa(lp1335
I586
aI591
ag474
a(lp1336
(lp1337
I586
ag570
aa(lp1338
I587
ag618
aa(lp1339
I588
ag637
aa(lp1340
I589
ag608
aa(lp1341
I590
ag672
aa(lp1342
I591
ag572
aaaa(lp1343
I593
aI594
aS'to'
p1344
a(lp1345
(lp1346
I593
ag637
aa(lp1347
I594
ag672
aaaa(lp1348
I596
aI602
ag483
a(lp1349
(lp1350
I596
ag577
aa(lp1351
I597
ag603
aa(lp1352
I598
ag618
aa(lp1353
I599
ag637
aa(lp1354
I600
ag608
aa(lp1355
I601
ag624
aa(lp1356
I602
ag579
aaaa(lp1357
I604
aI606
aS'the'
p1358
a(lp1359
(lp1360
I604
ag637
aa(lp1361
I605
ag678
aa(lp1362
I606
ag603
aaaa(lp1363
I608
aI615
ag492
a(lp1364
(lp1365
I608
ag714
aa(lp1366
I609
ag672
aa(lp1367
I610
ag572
aa(lp1368
I611
ag579
aa(lp1369
I612
aS'\xe2'
p1370
aa(lp1371
I613
aS'\x80'
p1372
aa(lp1373
I614
aS'\x99'
p1374
aa(lp1375
I615
ag616
aaaa(lp1376
I617
aI625
ag501
a(lp1377
(lp1378
I617
ag618
aa(lp1379
I618
ag672
aa(lp1380
I619
ag572
aa(lp1381
I620
ag666
aa(lp1382
I621
ag608
aa(lp1383
I622
ag637
aa(lp1384
I623
ag608
aa(lp1385
I624
ag672
aa(lp1386
I625
ag572
aaaa(lp1387
I628
aI629
aS'we'
p1388
a(lp1389
(lp1390
I628
ag648
aa(lp1391
I629
ag603
aaaa(lp1392
I631
aI634
aS'will'
p1393
a(lp1394
(lp1395
I631
ag648
aa(lp1396
I632
ag608
aa(lp1397
I633
ag633
aa(lp1398
I634
ag633
aaaa(lp1399
I636
aI637
aS'of'
p1400
a(lp1401
(lp1402
I636
ag672
aa(lp1403
I637
ag624
aaaa(lp1404
I639
aI644
ag510
a(lp1405
(lp1406
I639
ag618
aa(lp1407
I640
ag672
aa(lp1408
I641
ag574
aa(lp1409
I642
ag577
aa(lp1410
I643
ag616
aa(lp1411
I644
ag603
aaaa(lp1412
I646
aI647
aS'be'
p1413
a(lp1414
(lp1415
I646
ag598
aa(lp1416
I647
ag603
aaaa(lp1417
I649
aI657
ag519
a(lp1418
(lp1419
I649
ag624
aa(lp1420
I650
ag672
aa(lp1421
I651
ag633
aa(lp1422
I652
ag633
aa(lp1423
I653
ag672
aa(lp1424
I654
ag648
aa(lp1425
I655
ag608
aa(lp1426
I656
ag572
aa(lp1427
I657
ag752
aaaa(lp1428
I659
aI662
aS'this'
p1429
a(lp1430
(lp1431
I659
ag637
aa(lp1432
I660
ag678
aa(lp1433
I661
ag608
aa(lp1434
I662
ag616
aaaa(lp1435
I664
aI665
aS'up'
p1436
a(lp1437
(lp1438
I664
ag574
aa(lp1439
I665
ag714
aaaa(lp1440
I667
aI673
ag528
a(lp1441
(lp1442
I667
ag616
aa(lp1443
I668
ag678
aa(lp1444
I669
ag672
aa(lp1445
I670
ag577
aa(lp1446
I671
ag637
aa(lp1447
I672
ag633
aa(lp1448
I673
ag579
aaaa(lp1449
I675
aI676
aS'to'
p1450
a(lp1451
(lp1452
I675
ag637
aa(lp1453
I676
ag672
aaaa(lp1454
I678
aI681
ag537
a(lp1455
(lp1456
I678
ag624
aa(lp1457
I679
ag608
aa(lp1458
I680
ag572
aa(lp1459
I681
ag666
aaaa(lp1460
I683
aI685
aS'out'
p1461
a(lp1462
(lp1463
I683
ag672
aa(lp1464
I684
ag574
aa(lp1465
I685
ag637
aaaa(lp1466
I687
aI690
aS'what'
p1467
a(lp1468
(lp1469
I687
ag648
aa(lp1470
I688
ag678
aa(lp1471
I689
ag570
aa(lp1472
I690
ag637
aaaa(lp1473
I692
aI703
ag546
a(lp1474
(lp1475
I692
ag608
aa(lp1476
I693
ag777
aa(lp1477
I694
ag714
aa(lp1478
I695
ag577
aa(lp1479
I696
ag672
aa(lp1480
I697
ag739
aa(lp1481
I698
ag603
aa(lp1482
I699
ag777
aa(lp1483
I700
ag603
aa(lp1484
I701
ag572
aa(lp1485
I702
ag637
aa(lp1486
I703
ag616
aaaa(lp1487
I705
aI708
aS'have'
p1488
a(lp1489
(lp1490
I705
ag678
aa(lp1491
I706
ag570
aa(lp1492
I707
ag739
aa(lp1493
I708
ag603
aaaa(lp1494
I710
aI713
aS'been'
p1495
a(lp1496
(lp1497
I710
ag598
aa(lp1498
I711
ag603
aa(lp1499
I712
ag603
aa(lp1500
I713
ag572
aaaa(lp1501
I710
aI713
ag555
a(lp1502
(lp1503
I715
ag777
aa(lp1504
I716
ag570
aa(lp1505
I717
ag666
aa(lp1506
I718
ag603
aaaasS'cleanCharacterMap'
p1507
(lp1508
g567
ag569
ag571
ag573
ag575
ag576
ag578
a(lp1509
I7
aS' '
p1510
aag582
ag584
a(lp1511
I11
ag1510
aag588
ag589
ag591
ag592
a(lp1512
I16
ag1510
aag597
ag599
a(lp1513
I19
ag1510
aag602
ag604
ag606
ag607
ag609
ag610
a(lp1514
I26
ag1510
aag613
ag614
ag615
ag617
ag619
ag620
a(lp1515
I33
ag1510
aag623
ag625
ag626
ag627
ag628
ag629
a(lp1516
I40
ag1510
aag632
ag634
ag635
ag636
a(lp1517
I45
ag1510
aag640
ag641
ag642
ag643
a(lp1518
I50
ag1510
aag647
ag649
a(lp1519
I53
ag1510
aag653
ag654
ag655
ag656
a(lp1520
I58
ag1510
aag659
ag660
ag661
ag662
ag663
ag664
ag665
a(lp1521
I66
ag1510
aag670
ag671
a(lp1522
I69
ag1510
aag676
ag677
ag679
a(lp1523
I73
ag1510
aag682
ag683
ag684
ag685
a(lp1524
I78
ag1510
aag689
ag690
a(lp1525
I81
ag1510
aag693
a(lp1526
I83
ag1510
aag696
ag697
ag698
ag699
ag700
ag701
ag702
ag703
a(lp1527
I92
ag1510
aag707
ag708
a(lp1528
I95
ag1510
aag711
ag712
ag713
ag715
a(lp1529
I101
ag1510
aag718
ag719
a(lp1530
I104
ag1510
aag724
ag725
ag726
ag727
a(lp1531
I109
ag1510
aag731
ag732
ag733
a(lp1532
I113
ag1510
aag736
ag737
ag738
ag740
ag741
ag742
ag743
ag744
a(lp1533
I122
ag1510
aag747
ag748
ag749
ag750
ag751
ag753
ag754
ag755
ag756
a(lp1534
I132
ag1510
aag759
ag760
ag761
ag762
a(lp1535
I138
ag1510
aag766
ag767
a(lp1536
I141
ag1510
aag771
ag772
ag773
a(lp1537
I145
ag1510
aag776
ag778
ag779
ag780
ag781
a(lp1538
I151
ag1510
aag785
ag786
ag787
a(lp1539
I155
ag1510
aag790
ag791
ag792
ag793
ag794
ag795
ag796
a(lp1540
I163
ag1510
aag800
ag801
ag802
ag803
a(lp1541
I168
ag1510
aag806
ag807
ag808
ag809
ag810
ag811
ag812
ag813
ag814
a(lp1542
I178
ag1510
aag818
ag819
a(lp1543
I181
ag1510
aag822
ag823
ag824
ag825
ag827
a(lp1544
I187
ag1510
aag831
ag832
a(lp1545
I190
ag1510
aag836
ag837
ag838
a(lp1546
I194
ag1510
aag841
ag842
ag843
a(lp1547
I198
ag1510
aag847
ag848
ag849
a(lp1548
I202
ag1510
aag852
ag853
ag854
ag855
ag856
ag857
ag858
ag859
ag860
a(lp1549
I212
ag1510
aag863
a(lp1550
I214
ag1510
aag867
ag868
ag869
ag870
a(lp1551
I219
ag1510
aag873
ag874
ag875
ag876
ag877
a(lp1552
I225
ag1510
aag880
ag881
ag882
ag883
ag884
ag885
ag886
ag887
ag888
ag889
ag890
ag891
a(lp1553
I238
ag1510
aag895
ag896
a(lp1554
I241
ag1510
aag899
ag900
ag901
ag902
a(lp1555
I246
ag1510
aag906
ag907
ag908
a(lp1556
I250
ag1510
aag911
ag912
ag913
ag914
a(lp1557
I255
ag1510
aag918
ag919
a(lp1558
I259
ag1510
aag922
ag923
ag924
ag925
ag926
ag927
ag928
ag929
ag930
ag931
ag932
ag933
ag934
a(lp1559
I273
ag1510
aag938
ag939
a(lp1560
I276
ag1510
aag943
ag944
ag945
a(lp1561
I280
ag1510
aag948
ag949
ag950
ag951
a(lp1562
I285
ag1510
aag955
ag956
a(lp1563
I288
ag1510
aag959
ag960
ag961
ag962
ag963
ag964
a(lp1564
I295
ag1510
aag968
ag969
ag970
a(lp1565
I299
ag1510
aag973
ag974
ag975
ag976
ag977
a(lp1566
I306
ag1510
aag981
ag982
ag983
a(lp1567
I310
ag1510
aag987
ag988
ag989
ag990
a(lp1568
I315
ag1510
aag994
ag995
ag996
a(lp1569
I319
ag1510
aag999
ag1000
ag1001
ag1002
ag1003
ag1004
ag1005
ag1006
a(lp1570
I328
ag1510
aag1009
ag1010
ag1011
ag1012
ag1013
ag1014
a(lp1571
I335
ag1510
aag1018
ag1019
ag1020
a(lp1572
I339
ag1510
aag1023
ag1024
ag1025
ag1026
ag1027
ag1028
ag1029
ag1030
a(lp1573
I348
ag1510
aag1034
ag1035
a(lp1574
I351
ag1510
aag1038
ag1039
ag1040
ag1041
a(lp1575
I356
ag1510
aag1044
ag1045
a(lp1576
I359
ag1510
aag1049
ag1050
ag1051
ag1052
a(lp1577
I364
ag1510
aag1056
ag1057
a(lp1578
I367
ag1510
aag1060
ag1061
ag1062
ag1063
ag1064
ag1065
ag1066
ag1067
ag1068
ag1069
ag1070
a(lp1579
I379
ag1510
aag1073
ag1074
ag1075
ag1076
ag1077
ag1078
ag1079
a(lp1580
I387
ag1510
aag1082
ag1083
ag1084
ag1085
ag1086
ag1087
ag1088
ag1089
ag1090
ag1091
ag1092
ag1093
ag1094
ag1095
a(lp1581
I402
ag1510
aag1099
ag1100
ag1101
ag1102
a(lp1582
I407
ag1510
aag1106
ag1107
ag1108
a(lp1583
I411
ag1510
aag1111
ag1112
ag1113
ag1114
a(lp1584
I416
ag1510
aag1118
ag1119
a(lp1585
I419
ag1510
aag1122
ag1123
ag1124
a(lp1586
I423
ag1510
aag1127
ag1128
ag1129
ag1130
ag1131
ag1132
ag1133
ag1134
ag1135
a(lp1587
I433
ag1510
aag1138
ag1139
ag1140
ag1141
a(lp1588
I439
ag1510
aag1144
ag1145
ag1146
ag1147
a(lp1589
I444
ag1510
aag1150
ag1151
ag1152
ag1153
a(lp1590
I449
ag1510
aag1157
ag1158
a(lp1591
I452
ag1510
aag1162
ag1163
ag1164
ag1165
a(lp1592
I457
ag1510
aag1168
ag1169
ag1170
ag1171
ag1172
ag1173
ag1174
ag1175
ag1176
a(lp1593
I467
ag1510
aag1180
ag1181
a(lp1594
I470
ag1510
aag1185
ag1186
ag1187
a(lp1595
I474
ag1510
aag1190
ag1191
ag1192
ag1193
a(lp1596
I479
ag1510
aag1197
ag1198
ag1199
a(lp1597
I483
ag1510
aag1203
ag1204
ag1205
ag1206
a(lp1598
I488
ag1510
aag1209
ag1210
ag1211
ag1212
ag1213
ag1214
ag1215
ag1216
ag1217
ag1218
a(lp1599
I499
ag1510
aag1222
ag1223
a(lp1600
I502
ag1510
aag1226
ag1227
ag1228
ag1229
ag1230
ag1231
a(lp1601
I509
ag1510
aag1234
ag1235
a(lp1602
I512
ag1510
aag1239
ag1240
ag1241
ag1242
a(lp1603
I517
ag1510
aag1246
ag1247
ag1248
ag1249
a(lp1604
I522
ag1510
aag1253
ag1254
ag1255
a(lp1605
I526
ag1510
aag1259
ag1260
ag1261
ag1262
a(lp1606
I531
ag1510
aag1266
ag1267
ag1268
a(lp1607
I536
ag1510
aag1272
ag1273
ag1274
a(lp1608
I540
ag1510
aag1278
ag1279
ag1280
ag1281
a(lp1609
I545
ag1510
aag1285
ag1286
ag1287
a(lp1610
I549
ag1510
aag1290
ag1291
ag1292
ag1293
ag1294
a(lp1611
I555
ag1510
aag1298
ag1299
ag1300
a(lp1612
I559
ag1510
aag1304
ag1305
ag1306
a(lp1613
I563
ag1510
aag1310
ag1311
ag1312
ag1313
a(lp1614
I568
ag1510
aag1316
ag1317
ag1318
ag1319
ag1320
ag1321
ag1322
ag1323
a(lp1615
I577
ag1510
aag1327
ag1328
a(lp1616
I580
ag1510
aag1331
ag1332
ag1333
ag1334
a(lp1617
I585
ag1510
aag1337
ag1338
ag1339
ag1340
ag1341
ag1342
a(lp1618
I592
ag1510
aag1346
ag1347
a(lp1619
I595
ag1510
aag1350
ag1351
ag1352
ag1353
ag1354
ag1355
ag1356
a(lp1620
I603
ag1510
aag1360
ag1361
ag1362
a(lp1621
I607
ag1510
aag1365
ag1366
ag1367
ag1368
ag1369
ag1371
ag1373
ag1375
a(lp1622
I616
ag1510
aag1378
ag1379
ag1380
ag1381
ag1382
ag1383
ag1384
ag1385
ag1386
a(lp1623
I627
ag1510
aag1390
ag1391
a(lp1624
I630
ag1510
aag1395
ag1396
ag1397
ag1398
a(lp1625
I635
ag1510
aag1402
ag1403
a(lp1626
I638
ag1510
aag1406
ag1407
ag1408
ag1409
ag1410
ag1411
a(lp1627
I645
ag1510
aag1415
ag1416
a(lp1628
I648
ag1510
aag1419
ag1420
ag1421
ag1422
ag1423
ag1424
ag1425
ag1426
ag1427
a(lp1629
I658
ag1510
aag1431
ag1432
ag1433
ag1434
a(lp1630
I663
ag1510
aag1438
ag1439
a(lp1631
I666
ag1510
aag1442
ag1443
ag1444
ag1445
ag1446
ag1447
ag1448
a(lp1632
I674
ag1510
aag1452
ag1453
a(lp1633
I677
ag1510
aag1456
ag1457
ag1458
ag1459
a(lp1634
I682
ag1510
aag1463
ag1464
ag1465
a(lp1635
I686
ag1510
aag1469
ag1470
ag1471
ag1472
a(lp1636
I691
ag1510
aag1475
ag1476
ag1477
ag1478
ag1479
ag1480
ag1481
ag1482
ag1483
ag1484
ag1485
ag1486
a(lp1637
I704
ag1510
aag1490
ag1491
ag1492
ag1493
a(lp1638
I709
ag1510
aag1497
ag1498
ag1499
ag1500
a(lp1639
I714
ag1510
aag1503
ag1504
ag1505
ag1506
asS'text'
p1640
S'january 12, 2009 by equine rescue france last year we were alerted to the case of a shetland in dept. 17 that had severely overgrown feet. as the maire had already been contacted we spoke to the spa who contacted a more local organisation to take the case on. unfortunately we now know no action was taken, and when the original person who reported it told us this we immediately started communications with the ddsv to get something done. last week we were contacted by the ddsv for that department to inform us that they had been out, and that the owner has now been notified to take action to rectify the pony\xe2\x80\x99s condition. we will of course be following this up shortly to find out what improvements have been made.'
p1641
sS'cleanWordMap'
p1642
(lp1643
g565
ag580
ag586
ag600
ag611
ag621
ag630
ag638
ag657
ag680
ag694
ag709
ag716
ag734
ag745
ag757
ag774
ag788
ag804
ag820
ag839
ag850
ag871
ag878
ag897
ag909
ag920
ag946
ag957
ag971
ag997
ag1007
ag1021
ag1036
ag1042
ag1058
ag1071
ag1080
ag1109
ag1120
ag1125
ag1136
ag1142
ag1148
ag1166
ag1188
ag1207
ag1224
ag1232
ag1288
ag1314
ag1329
ag1335
ag1348
ag1363
ag1376
ag1404
ag1417
ag1440
ag1454
ag1473
ag1501
asS'lines'
p1644
(lp1645
VJanuary 12, 2009 by Equine Rescue France\u000a
p1646
aVLast year we were alerted to the case of a Shetland in dept. 17 that had severely overgrown feet.\u000a
p1647
aVAs the Maire had already been contacted we spoke to the SPA who contacted a more local organisation to take the case on. Unfortunately we now know no action was taken, and when the original person who reported it told us this we immediately started communications with the DDSV to get something done. Last week we were contacted by the DDSV for that department to inform us that they had been out, and that the owner has now been notified to take action to rectify the pony\u2019s condition. We will of course be following this up shortly to find out what improvements have been made.
p1648
asS'docType'
p1649
S'src'
p1650
sS'newfmap'
p1651
(lp1652
g4
ag8
ag10
ag12
ag14
ag17
ag19
ag21
ag23
ag26
ag28
ag30
ag32
ag35
ag37
ag39
ag41
ag44
ag46
ag48
ag50
ag53
ag55
ag57
ag59
ag62
ag64
ag66
ag68
ag71
ag73
ag75
ag77
ag80
ag82
ag84
ag86
ag89
ag91
ag93
ag95
ag98
ag100
ag102
ag104
ag107
ag109
ag111
ag113
ag116
ag118
ag120
ag122
ag125
ag127
ag129
ag131
ag134
ag136
ag138
ag140
ag143
ag145
ag147
ag149
ag152
ag154
ag156
ag158
ag161
ag163
ag165
ag167
ag170
ag172
ag174
ag176
ag179
ag181
ag183
ag185
ag188
ag190
ag192
ag194
ag197
ag199
ag201
ag203
ag206
ag208
ag210
ag212
ag215
ag217
ag219
ag221
ag224
ag226
ag228
ag230
ag233
ag235
ag237
ag239
ag242
ag244
ag246
ag248
ag251
ag253
ag255
ag257
ag260
ag262
ag264
ag266
ag269
ag271
ag273
ag275
ag278
ag280
ag282
ag284
ag287
ag289
ag291
ag293
ag296
ag298
ag300
ag302
ag305
ag307
ag309
ag311
ag314
ag316
ag318
ag320
ag323
ag325
ag327
ag329
ag332
ag334
ag336
ag338
ag341
ag343
ag345
ag347
ag350
ag352
ag354
ag356
ag359
ag361
ag363
ag365
ag368
ag370
ag372
ag374
ag377
ag379
ag381
ag383
ag386
ag388
ag390
ag392
ag395
ag397
ag399
ag401
ag404
ag406
ag408
ag410
ag413
ag415
ag417
ag419
ag422
ag424
ag426
ag428
ag431
ag433
ag435
ag437
ag440
ag442
ag444
ag446
ag449
ag451
ag453
ag455
ag458
ag460
ag462
ag464
ag467
ag469
ag471
ag473
ag476
ag478
ag480
ag482
ag485
ag487
ag489
ag491
ag494
ag496
ag498
ag500
ag503
ag505
ag507
ag509
ag512
ag514
ag516
ag518
ag521
ag523
ag525
ag527
ag530
ag532
ag534
ag536
ag539
ag541
ag543
ag545
ag548
ag550
ag552
ag554
ag557
ag559
ag561
asS'featureMap'
p1653
(lp1654
(lp1655
I0
aI6
ag5
ag6
ag9
ag11
ag13
aa(lp1656
I8
aI9
ag15
ag16
ag18
ag20
ag22
aa(lp1657
I12
aI15
ag24
ag25
ag27
ag29
ag31
aa(lp1658
I20
aI25
ag33
ag34
ag36
ag38
ag40
aa(lp1659
I27
aI32
ag42
ag43
ag45
ag47
ag49
aa(lp1660
I34
aI39
ag51
ag52
ag54
ag56
ag58
aa(lp1661
I41
aI44
ag60
ag61
ag63
ag65
ag67
aa(lp1662
I46
aI49
ag69
ag70
ag72
ag74
ag76
aa(lp1663
I59
aI65
ag78
ag79
ag81
ag83
ag85
aa(lp1664
I74
aI77
ag87
ag88
ag90
ag92
ag94
aa(lp1665
I84
aI91
ag96
ag97
ag99
ag101
ag103
aa(lp1666
I96
aI99
ag105
ag106
ag108
ag110
ag112
aa(lp1667
I102
aI103
ag114
ag115
ag117
ag119
ag121
aa(lp1668
I114
aI121
ag123
ag124
ag126
ag128
ag130
aa(lp1669
I123
aI131
ag132
ag133
ag135
ag137
ag139
aa(lp1670
I133
aI136
ag141
ag142
ag144
ag146
ag148
aa(lp1671
I146
aI150
ag150
ag151
ag153
ag155
ag157
aa(lp1672
I156
aI162
ag159
ag160
ag162
ag164
ag166
aa(lp1673
I169
aI177
ag168
ag169
ag171
ag173
ag175
aa(lp1674
I182
aI186
ag177
ag178
ag180
ag182
ag184
aa(lp1675
I195
aI197
ag186
ag187
ag189
ag191
ag193
aa(lp1676
I203
aI211
ag195
ag196
ag198
ag200
ag202
aa(lp1677
I220
aI224
ag204
ag205
ag207
ag209
ag211
aa(lp1678
I226
aI237
ag213
ag214
ag216
ag218
ag220
aa(lp1679
I242
aI245
ag222
ag223
ag225
ag227
ag229
aa(lp1680
I251
aI254
ag231
ag232
ag234
ag236
ag238
aa(lp1681
I260
aI272
ag240
ag241
ag243
ag245
ag247
aa(lp1682
I281
aI284
ag249
ag250
ag252
ag254
ag256
aa(lp1683
I289
aI294
ag258
ag259
ag261
ag263
ag265
aa(lp1684
I300
aI304
ag267
ag268
ag270
ag272
ag274
aa(lp1685
I320
aI327
ag276
ag277
ag279
ag281
ag283
aa(lp1686
I329
aI334
ag285
ag286
ag288
ag290
ag292
aa(lp1687
I340
aI347
ag294
ag295
ag297
ag299
ag301
aa(lp1688
I352
aI355
ag303
ag304
ag306
ag308
ag310
aa(lp1689
I357
aI358
ag312
ag313
ag315
ag317
ag319
aa(lp1690
I368
aI378
ag321
ag322
ag324
ag326
ag328
aa(lp1691
I380
aI386
ag330
ag331
ag333
ag335
ag337
aa(lp1692
I388
aI401
ag339
ag340
ag342
ag344
ag346
aa(lp1693
I412
aI415
ag348
ag349
ag351
ag353
ag355
aa(lp1694
I420
aI422
ag357
ag358
ag360
ag362
ag364
aa(lp1695
I424
aI432
ag366
ag367
ag369
ag371
ag373
aa(lp1696
I434
aI437
ag375
ag376
ag378
ag380
ag382
aa(lp1697
I440
aI443
ag384
ag385
ag387
ag389
ag391
aa(lp1698
I445
aI448
ag393
ag394
ag396
ag398
ag400
aa(lp1699
I458
aI466
ag402
ag403
ag405
ag407
ag409
aa(lp1700
I475
aI478
ag411
ag412
ag414
ag416
ag418
aa(lp1701
I489
aI498
ag420
ag421
ag423
ag425
ag427
aa(lp1702
I503
aI508
ag429
ag430
ag432
ag434
ag436
aa(lp1703
I510
aI511
ag438
ag439
ag441
ag443
ag445
aa(lp1704
I550
aI554
ag447
ag448
ag450
ag452
ag454
aa(lp1705
I569
aI576
ag456
ag457
ag459
ag461
ag463
aa(lp1706
I581
aI584
ag465
ag466
ag468
ag470
ag472
aa(lp1707
I586
aI591
ag474
ag475
ag477
ag479
ag481
aa(lp1708
I596
aI602
ag483
ag484
ag486
ag488
ag490
aa(lp1709
I608
aI615
ag492
ag493
ag495
ag497
ag499
aa(lp1710
I617
aI625
ag501
ag502
ag504
ag506
ag508
aa(lp1711
I639
aI644
ag510
ag511
ag513
ag515
ag517
aa(lp1712
I649
aI657
ag519
ag520
ag522
ag524
ag526
aa(lp1713
I667
aI673
ag528
ag529
ag531
ag533
ag535
aa(lp1714
I678
aI681
ag537
ag538
ag540
ag542
ag544
aa(lp1715
I692
aI703
ag546
ag547
ag549
ag551
ag553
aa(lp1716
I710
aI713
ag555
ag556
ag558
ag560
ag562
aasS'characterMap'
p1717
(lp1718
g567
ag569
ag571
ag573
ag575
ag576
ag578
ag1509
ag582
ag584
a(lp1719
I10
aS','
p1720
aag1511
ag588
ag589
ag591
ag592
ag1512
ag597
ag599
ag1513
ag602
ag604
ag606
ag607
ag609
ag610
ag1514
ag613
ag614
ag615
ag617
ag619
ag620
ag1515
ag623
ag625
ag626
ag627
ag628
ag629
ag1516
ag632
ag634
ag635
ag636
ag1517
ag640
ag641
ag642
ag643
ag1518
ag647
ag649
ag1519
ag653
ag654
ag655
ag656
ag1520
ag659
ag660
ag661
ag662
ag663
ag664
ag665
ag1521
ag670
ag671
ag1522
ag676
ag677
ag679
ag1523
ag682
ag683
ag684
ag685
ag1524
ag689
ag690
ag1525
ag693
ag1526
ag696
ag697
ag698
ag699
ag700
ag701
ag702
ag703
ag1527
ag707
ag708
ag1528
ag711
ag712
ag713
ag715
a(lp1721
I100
aS'.'
p1722
aag1529
ag718
ag719
ag1530
ag724
ag725
ag726
ag727
ag1531
ag731
ag732
ag733
ag1532
ag736
ag737
ag738
ag740
ag741
ag742
ag743
ag744
ag1533
ag747
ag748
ag749
ag750
ag751
ag753
ag754
ag755
ag756
ag1534
ag759
ag760
ag761
ag762
a(lp1723
I137
ag1722
aag1535
ag766
ag767
ag1536
ag771
ag772
ag773
ag1537
ag776
ag778
ag779
ag780
ag781
ag1538
ag785
ag786
ag787
ag1539
ag790
ag791
ag792
ag793
ag794
ag795
ag796
ag1540
ag800
ag801
ag802
ag803
ag1541
ag806
ag807
ag808
ag809
ag810
ag811
ag812
ag813
ag814
ag1542
ag818
ag819
ag1543
ag822
ag823
ag824
ag825
ag827
ag1544
ag831
ag832
ag1545
ag836
ag837
ag838
ag1546
ag841
ag842
ag843
ag1547
ag847
ag848
ag849
ag1548
ag852
ag853
ag854
ag855
ag856
ag857
ag858
ag859
ag860
ag1549
ag863
ag1550
ag867
ag868
ag869
ag870
ag1551
ag873
ag874
ag875
ag876
ag877
ag1552
ag880
ag881
ag882
ag883
ag884
ag885
ag886
ag887
ag888
ag889
ag890
ag891
ag1553
ag895
ag896
ag1554
ag899
ag900
ag901
ag902
ag1555
ag906
ag907
ag908
ag1556
ag911
ag912
ag913
ag914
ag1557
ag918
ag919
a(lp1724
I258
ag1722
aag1558
ag922
ag923
ag924
ag925
ag926
ag927
ag928
ag929
ag930
ag931
ag932
ag933
ag934
ag1559
ag938
ag939
ag1560
ag943
ag944
ag945
ag1561
ag948
ag949
ag950
ag951
ag1562
ag955
ag956
ag1563
ag959
ag960
ag961
ag962
ag963
ag964
ag1564
ag968
ag969
ag970
ag1565
ag973
ag974
ag975
ag976
ag977
a(lp1725
I305
ag1720
aag1566
ag981
ag982
ag983
ag1567
ag987
ag988
ag989
ag990
ag1568
ag994
ag995
ag996
ag1569
ag999
ag1000
ag1001
ag1002
ag1003
ag1004
ag1005
ag1006
ag1570
ag1009
ag1010
ag1011
ag1012
ag1013
ag1014
ag1571
ag1018
ag1019
ag1020
ag1572
ag1023
ag1024
ag1025
ag1026
ag1027
ag1028
ag1029
ag1030
ag1573
ag1034
ag1035
ag1574
ag1038
ag1039
ag1040
ag1041
ag1575
ag1044
ag1045
ag1576
ag1049
ag1050
ag1051
ag1052
ag1577
ag1056
ag1057
ag1578
ag1060
ag1061
ag1062
ag1063
ag1064
ag1065
ag1066
ag1067
ag1068
ag1069
ag1070
ag1579
ag1073
ag1074
ag1075
ag1076
ag1077
ag1078
ag1079
ag1580
ag1082
ag1083
ag1084
ag1085
ag1086
ag1087
ag1088
ag1089
ag1090
ag1091
ag1092
ag1093
ag1094
ag1095
ag1581
ag1099
ag1100
ag1101
ag1102
ag1582
ag1106
ag1107
ag1108
ag1583
ag1111
ag1112
ag1113
ag1114
ag1584
ag1118
ag1119
ag1585
ag1122
ag1123
ag1124
ag1586
ag1127
ag1128
ag1129
ag1130
ag1131
ag1132
ag1133
ag1134
ag1135
ag1587
ag1138
ag1139
ag1140
ag1141
a(lp1726
I438
ag1722
aag1588
ag1144
ag1145
ag1146
ag1147
ag1589
ag1150
ag1151
ag1152
ag1153
ag1590
ag1157
ag1158
ag1591
ag1162
ag1163
ag1164
ag1165
ag1592
ag1168
ag1169
ag1170
ag1171
ag1172
ag1173
ag1174
ag1175
ag1176
ag1593
ag1180
ag1181
ag1594
ag1185
ag1186
ag1187
ag1595
ag1190
ag1191
ag1192
ag1193
ag1596
ag1197
ag1198
ag1199
ag1597
ag1203
ag1204
ag1205
ag1206
ag1598
ag1209
ag1210
ag1211
ag1212
ag1213
ag1214
ag1215
ag1216
ag1217
ag1218
ag1599
ag1222
ag1223
ag1600
ag1226
ag1227
ag1228
ag1229
ag1230
ag1231
ag1601
ag1234
ag1235
ag1602
ag1239
ag1240
ag1241
ag1242
ag1603
ag1246
ag1247
ag1248
ag1249
ag1604
ag1253
ag1254
ag1255
ag1605
ag1259
ag1260
ag1261
ag1262
ag1606
ag1266
ag1267
ag1268
a(lp1727
I535
ag1720
aag1607
ag1272
ag1273
ag1274
ag1608
ag1278
ag1279
ag1280
ag1281
ag1609
ag1285
ag1286
ag1287
ag1610
ag1290
ag1291
ag1292
ag1293
ag1294
ag1611
ag1298
ag1299
ag1300
ag1612
ag1304
ag1305
ag1306
ag1613
ag1310
ag1311
ag1312
ag1313
ag1614
ag1316
ag1317
ag1318
ag1319
ag1320
ag1321
ag1322
ag1323
ag1615
ag1327
ag1328
ag1616
ag1331
ag1332
ag1333
ag1334
ag1617
ag1337
ag1338
ag1339
ag1340
ag1341
ag1342
ag1618
ag1346
ag1347
ag1619
ag1350
ag1351
ag1352
ag1353
ag1354
ag1355
ag1356
ag1620
ag1360
ag1361
ag1362
ag1621
ag1365
ag1366
ag1367
ag1368
ag1369
ag1371
ag1373
ag1375
ag1622
ag1378
ag1379
ag1380
ag1381
ag1382
ag1383
ag1384
ag1385
ag1386
a(lp1728
I626
ag1722
aag1623
ag1390
ag1391
ag1624
ag1395
ag1396
ag1397
ag1398
ag1625
ag1402
ag1403
ag1626
ag1406
ag1407
ag1408
ag1409
ag1410
ag1411
ag1627
ag1415
ag1416
ag1628
ag1419
ag1420
ag1421
ag1422
ag1423
ag1424
ag1425
ag1426
ag1427
ag1629
ag1431
ag1432
ag1433
ag1434
ag1630
ag1438
ag1439
ag1631
ag1442
ag1443
ag1444
ag1445
ag1446
ag1447
ag1448
ag1632
ag1452
ag1453
ag1633
ag1456
ag1457
ag1458
ag1459
ag1634
ag1463
ag1464
ag1465
ag1635
ag1469
ag1470
ag1471
ag1472
ag1636
ag1475
ag1476
ag1477
ag1478
ag1479
ag1480
ag1481
ag1482
ag1483
ag1484
ag1485
ag1486
ag1637
ag1490
ag1491
ag1492
ag1493
ag1638
ag1497
ag1498
ag1499
ag1500
ag1639
ag1503
ag1504
ag1505
ag1506
a(lp1729
I719
ag1722
aasS'docName'
p1730
S'source-document00326.txt'
p1731
sb.