(iModel.Document
Document
p0
(dp1
S'fmap'
p2
(lp3
(lp4
I5
aI8
aS'page'
p5
a(lp6
S'*'
p7
ag5
aaa(lp8
I5
aI8
ag5
a(lp9
g7
ag5
aaa(lp10
I5
aI8
ag5
a(lp11
g7
ag5
aaa(lp12
I5
aI8
ag5
a(lp13
g7
ag5
aaa(lp14
I13
aI17
aS'empty'
p15
a(lp16
g5
ag15
aaa(lp17
I13
aI17
ag15
a(lp18
g7
ag15
aaa(lp19
I13
aI17
ag15
a(lp20
g7
ag15
aaa(lp21
I13
aI17
ag15
a(lp22
g7
ag15
aaa(lp23
I20
aI22
aS'use'
p24
a(lp25
g15
ag24
aaa(lp26
I20
aI22
ag24
a(lp27
g5
ag24
aaa(lp28
I20
aI22
ag24
a(lp29
g7
ag24
aaa(lp30
I20
aI22
ag24
a(lp31
g7
ag24
aaa(lp32
I28
aI31
aS'edit'
p33
a(lp34
g24
ag33
aaa(lp35
I28
aI31
ag33
a(lp36
g15
ag33
aaa(lp37
I28
aI31
ag33
a(lp38
g5
ag33
aaa(lp39
I28
aI31
ag33
a(lp40
g7
ag33
aaa(lp41
I33
aI39
aS'article'
p42
a(lp43
g33
ag42
aaa(lp44
I33
aI39
ag42
a(lp45
g24
ag42
aaa(lp46
I33
aI39
ag42
a(lp47
g15
ag42
aaa(lp48
I33
aI39
ag42
a(lp49
g5
ag42
aaa(lp50
I41
aI44
aS'link'
p51
a(lp52
g42
ag51
aaa(lp53
I41
aI44
ag51
a(lp54
g33
ag51
aaa(lp55
I41
aI44
ag51
a(lp56
g24
ag51
aaa(lp57
I41
aI44
ag51
a(lp58
g15
ag51
aaa(lp59
I53
aI55
aS'top'
p60
a(lp61
g51
ag60
aaa(lp62
I53
aI55
ag60
a(lp63
g42
ag60
aaa(lp64
I53
aI55
ag60
a(lp65
g33
ag60
aaa(lp66
I53
aI55
ag60
a(lp67
g24
ag60
aaa(lp68
I57
aI61
aS'right'
p69
a(lp70
g60
ag69
aaa(lp71
I57
aI61
ag69
a(lp72
g51
ag69
aaa(lp73
I57
aI61
ag69
a(lp74
g42
ag69
aaa(lp75
I57
aI61
ag69
a(lp76
g33
ag69
aaa(lp77
I71
aI74
aS'page'
p78
a(lp79
g69
ag78
aaa(lp80
I71
aI74
ag78
a(lp81
g60
ag78
aaa(lp82
I71
aI74
ag78
a(lp83
g51
ag78
aaa(lp84
I71
aI74
ag78
a(lp85
g42
ag78
aaa(lp86
I79
aI82
aS'edit'
p87
a(lp88
g78
ag87
aaa(lp89
I79
aI82
ag87
a(lp90
g69
ag87
aaa(lp91
I79
aI82
ag87
a(lp92
g60
ag87
aaa(lp93
I79
aI82
ag87
a(lp94
g51
ag87
aaa(lp95
I85
aI88
aS'plot'
p96
a(lp97
g87
ag96
aaa(lp98
I85
aI88
ag96
a(lp99
g78
ag96
aaa(lp100
I85
aI88
ag96
a(lp101
g69
ag96
aaa(lp102
I85
aI88
ag96
a(lp103
g60
ag96
aaa(lp104
I90
aI96
aS'summary'
p105
a(lp106
g96
ag105
aaa(lp107
I90
aI96
ag105
a(lp108
g87
ag105
aaa(lp109
I90
aI96
ag105
a(lp110
g78
ag105
aaa(lp111
I90
aI96
ag105
a(lp112
g69
ag105
aaa(lp113
I98
aI100
aS'add'
p114
a(lp115
g105
ag114
aaa(lp116
I98
aI100
ag114
a(lp117
g96
ag114
aaa(lp118
I98
aI100
ag114
a(lp119
g87
ag114
aaa(lp120
I98
aI100
ag114
a(lp121
g78
ag114
aaa(lp122
I104
aI110
aS'creator'
p123
a(lp124
g114
ag123
aaa(lp125
I104
aI110
ag123
a(lp126
g105
ag123
aaa(lp127
I104
aI110
ag123
a(lp128
g96
ag123
aaa(lp129
I104
aI110
ag123
a(lp130
g87
ag123
aaa(lp131
I112
aI117
aS'credit'
p132
a(lp133
g123
ag132
aaa(lp134
I112
aI117
ag132
a(lp135
g114
ag132
aaa(lp136
I112
aI117
ag132
a(lp137
g105
ag132
aaa(lp138
I112
aI117
ag132
a(lp139
g96
ag132
aaa(lp140
I127
aI131
aS'issue'
p141
a(lp142
g132
ag141
aaa(lp143
I127
aI131
ag141
a(lp144
g123
ag141
aaa(lp145
I127
aI131
ag141
a(lp146
g114
ag141
aaa(lp147
I127
aI131
ag141
a(lp148
g105
ag141
aaa(lp149
I133
aI138
aS'search'
p150
a(lp151
g141
ag150
aaa(lp152
I133
aI138
ag150
a(lp153
g132
ag150
aaa(lp154
I133
aI138
ag150
a(lp155
g123
ag150
aaa(lp156
I133
aI138
ag150
a(lp157
g114
ag150
aaa(lp158
I146
aI152
aS'creator'
p159
a(lp160
g150
ag159
aaa(lp161
I146
aI152
ag159
a(lp162
g141
ag159
aaa(lp163
I146
aI152
ag159
a(lp164
g132
ag159
aaa(lp165
I146
aI152
ag159
a(lp166
g123
ag159
aaa(lp167
I157
aI161
aS'dont'
p168
a(lp169
g159
ag168
aaa(lp170
I157
aI161
ag168
a(lp171
g150
ag168
aaa(lp172
I157
aI161
ag168
a(lp173
g141
ag168
aaa(lp174
I157
aI161
ag168
a(lp175
g132
ag168
aaa(lp176
I172
aI179
aS'creators'
p177
a(lp178
g168
ag177
aaa(lp179
I172
aI179
ag177
a(lp180
g159
ag177
aaa(lp181
I172
aI179
ag177
a(lp182
g150
ag177
aaa(lp183
I172
aI179
ag177
a(lp184
g141
ag177
aaa(lp185
I181
aI188
aS'attached'
p186
a(lp187
g177
ag186
aaa(lp188
I181
aI188
ag186
a(lp189
g168
ag186
aaa(lp190
I181
aI188
ag186
a(lp191
g159
ag186
aaa(lp192
I181
aI188
ag186
a(lp193
g150
ag186
aaa(lp194
I198
aI202
aS'issue'
p195
a(lp196
g186
ag195
aaa(lp197
I198
aI202
ag195
a(lp198
g177
ag195
aaa(lp199
I198
aI202
ag195
a(lp200
g168
ag195
aaa(lp201
I198
aI202
ag195
a(lp202
g159
ag195
aaa(lp203
I205
aI208
aS'help'
p204
a(lp205
g195
ag204
aaa(lp206
I205
aI208
ag204
a(lp207
g186
ag204
aaa(lp208
I205
aI208
ag204
a(lp209
g177
ag204
aaa(lp210
I205
aI208
ag204
a(lp211
g168
ag204
aaa(lp212
I210
aI211
aS'us'
p213
a(lp214
g204
ag213
aaa(lp215
I210
aI211
ag213
a(lp216
g195
ag213
aaa(lp217
I210
aI211
ag213
a(lp218
g186
ag213
aaa(lp219
I210
aI211
ag213
a(lp220
g177
ag213
aaa(lp221
I213
aI216
aS'fill'
p222
a(lp223
g213
ag222
aaa(lp224
I213
aI216
ag222
a(lp225
g204
ag222
aaa(lp226
I213
aI216
ag222
a(lp227
g195
ag222
aaa(lp228
I213
aI216
ag222
a(lp229
g186
ag222
aaa(lp230
I225
aI234
aS'characters'
p231
a(lp232
g222
ag231
aaa(lp233
I225
aI234
ag231
a(lp234
g213
ag231
aaa(lp235
I225
aI234
ag231
a(lp236
g204
ag231
aaa(lp237
I225
aI234
ag231
a(lp238
g195
ag231
aaa(lp239
I236
aI238
aS'add'
p240
a(lp241
g231
ag240
aaa(lp242
I236
aI238
ag240
a(lp243
g222
ag240
aaa(lp244
I236
aI238
ag240
a(lp245
g213
ag240
aaa(lp246
I236
aI238
ag240
a(lp247
g204
ag240
aaa(lp248
I242
aI250
aS'character'
p249
a(lp250
g240
ag249
aaa(lp251
I242
aI250
ag249
a(lp252
g231
ag249
aaa(lp253
I242
aI250
ag249
a(lp254
g222
ag249
aaa(lp255
I242
aI250
ag249
a(lp256
g213
ag249
aaa(lp257
I252
aI257
aS'credit'
p258
a(lp259
g249
ag258
aaa(lp260
I252
aI257
ag258
a(lp261
g240
ag258
aaa(lp262
I252
aI257
ag258
a(lp263
g231
ag258
aaa(lp264
I252
aI257
ag258
a(lp265
g222
ag258
aaa(lp266
I267
aI270
aS'book'
p267
a(lp268
g258
ag267
aaa(lp269
I267
aI270
ag267
a(lp270
g249
ag267
aaa(lp271
I267
aI270
ag267
a(lp272
g240
ag267
aaa(lp273
I267
aI270
ag267
a(lp274
g231
ag267
aaa(lp275
I272
aI277
aS'search'
p276
a(lp277
g267
ag276
aaa(lp278
I272
aI277
ag276
a(lp279
g258
ag276
aaa(lp280
I272
aI277
ag276
a(lp281
g249
ag276
aaa(lp282
I272
aI277
ag276
a(lp283
g240
ag276
aaa(lp284
I285
aI293
aS'character'
p285
a(lp286
g276
ag285
aaa(lp287
I285
aI293
ag285
a(lp288
g267
ag285
aaa(lp289
I285
aI293
ag285
a(lp290
g258
ag285
aaa(lp291
I285
aI293
ag285
a(lp292
g249
ag285
aaa(lp293
I298
aI302
aS'dont'
p294
a(lp295
g285
ag294
aaa(lp296
I298
aI302
ag294
a(lp297
g276
ag294
aaa(lp298
I298
aI302
ag294
a(lp299
g267
ag294
aaa(lp300
I298
aI302
ag294
a(lp301
g258
ag294
aaa(lp302
I313
aI322
aS'characters'
p303
a(lp304
g294
ag303
aaa(lp305
I313
aI322
ag303
a(lp306
g285
ag303
aaa(lp307
I313
aI322
ag303
a(lp308
g276
ag303
aaa(lp309
I313
aI322
ag303
a(lp310
g267
ag303
aaa(lp311
I324
aI331
aS'attached'
p312
a(lp313
g303
ag312
aaa(lp314
I324
aI331
ag312
a(lp315
g294
ag312
aaa(lp316
I324
aI331
ag312
a(lp317
g285
ag312
aaa(lp318
I324
aI331
ag312
a(lp319
g276
ag312
aaa(lp320
I341
aI344
aS'book'
p321
a(lp322
g312
ag321
aaa(lp323
I341
aI344
ag321
a(lp324
g303
ag321
aaa(lp325
I341
aI344
ag321
a(lp326
g294
ag321
aaa(lp327
I341
aI344
ag321
a(lp328
g285
ag321
aaa(lp329
I347
aI350
aS'help'
p330
a(lp331
g321
ag330
aaa(lp332
I347
aI350
ag330
a(lp333
g312
ag330
aaa(lp334
I347
aI350
ag330
a(lp335
g303
ag330
aaa(lp336
I347
aI350
ag330
a(lp337
g294
ag330
aaa(lp338
I352
aI353
aS'us'
p339
a(lp340
g330
ag339
aaa(lp341
I352
aI353
ag339
a(lp342
g321
ag339
aaa(lp343
I352
aI353
ag339
a(lp344
g312
ag339
aaa(lp345
I352
aI353
ag339
a(lp346
g303
ag339
aaa(lp347
I355
aI358
aS'fill'
p348
a(lp349
g339
ag348
aaa(lp350
I355
aI358
ag348
a(lp351
g330
ag348
aaa(lp352
I355
aI358
ag348
a(lp353
g321
ag348
aaa(lp354
I355
aI358
ag348
a(lp355
g312
ag348
aaa(lp356
I367
aI375
aS'locations'
p357
a(lp358
g348
ag357
aaa(lp359
I367
aI375
ag357
a(lp360
g339
ag357
aaa(lp361
I367
aI375
ag357
a(lp362
g330
ag357
aaa(lp363
I367
aI375
ag357
a(lp364
g321
ag357
aaa(lp365
I377
aI379
aS'add'
p366
a(lp367
g357
ag366
aaa(lp368
I377
aI379
ag366
a(lp369
g348
ag366
aaa(lp370
I377
aI379
ag366
a(lp371
g339
ag366
aaa(lp372
I377
aI379
ag366
a(lp373
g330
ag366
aaa(lp374
I383
aI390
aS'location'
p375
a(lp376
g366
ag375
aaa(lp377
I383
aI390
ag375
a(lp378
g357
ag375
aaa(lp379
I383
aI390
ag375
a(lp380
g348
ag375
aaa(lp381
I383
aI390
ag375
a(lp382
g339
ag375
aaa(lp383
I392
aI397
aS'credit'
p384
a(lp385
g375
ag384
aaa(lp386
I392
aI397
ag384
a(lp387
g366
ag384
aaa(lp388
I392
aI397
ag384
a(lp389
g357
ag384
aaa(lp390
I392
aI397
ag384
a(lp391
g348
ag384
aaa(lp392
I407
aI410
aS'book'
p393
a(lp394
g384
ag393
aaa(lp395
I407
aI410
ag393
a(lp396
g375
ag393
aaa(lp397
I407
aI410
ag393
a(lp398
g366
ag393
aaa(lp399
I407
aI410
ag393
a(lp400
g357
ag393
aaa(lp401
I412
aI417
aS'search'
p402
a(lp403
g393
ag402
aaa(lp404
I412
aI417
ag402
a(lp405
g384
ag402
aaa(lp406
I412
aI417
ag402
a(lp407
g375
ag402
aaa(lp408
I412
aI417
ag402
a(lp409
g366
ag402
aaa(lp410
I425
aI432
aS'location'
p411
a(lp412
g402
ag411
aaa(lp413
I425
aI432
ag411
a(lp414
g393
ag411
aaa(lp415
I425
aI432
ag411
a(lp416
g384
ag411
aaa(lp417
I425
aI432
ag411
a(lp418
g375
ag411
aaa(lp419
I437
aI441
aS'dont'
p420
a(lp421
g411
ag420
aaa(lp422
I437
aI441
ag420
a(lp423
g402
ag420
aaa(lp424
I437
aI441
ag420
a(lp425
g393
ag420
aaa(lp426
I437
aI441
ag420
a(lp427
g384
ag420
aaa(lp428
I452
aI460
aS'locations'
p429
a(lp430
g420
ag429
aaa(lp431
I452
aI460
ag429
a(lp432
g411
ag429
aaa(lp433
I452
aI460
ag429
a(lp434
g402
ag429
aaa(lp435
I452
aI460
ag429
a(lp436
g393
ag429
aaa(lp437
I462
aI469
aS'attached'
p438
a(lp439
g429
ag438
aaa(lp440
I462
aI469
ag438
a(lp441
g420
ag438
aaa(lp442
I462
aI469
ag438
a(lp443
g411
ag438
aaa(lp444
I462
aI469
ag438
a(lp445
g402
ag438
aaa(lp446
I479
aI482
aS'book'
p447
a(lp448
g438
ag447
aaa(lp449
I479
aI482
ag447
a(lp450
g429
ag447
aaa(lp451
I479
aI482
ag447
a(lp452
g420
ag447
aaa(lp453
I479
aI482
ag447
a(lp454
g411
ag447
aaa(lp455
I485
aI488
aS'help'
p456
a(lp457
g447
ag456
aaa(lp458
I485
aI488
ag456
a(lp459
g438
ag456
aaa(lp460
I485
aI488
ag456
a(lp461
g429
ag456
aaa(lp462
I485
aI488
ag456
a(lp463
g420
ag456
aaa(lp464
I490
aI491
aS'us'
p465
a(lp466
g456
ag465
aaa(lp467
I490
aI491
ag465
a(lp468
g447
ag465
aaa(lp469
I490
aI491
ag465
a(lp470
g438
ag465
aaa(lp471
I490
aI491
ag465
a(lp472
g429
ag465
aaa(lp473
I493
aI496
aS'fill'
p474
a(lp475
g465
ag474
aaa(lp476
I493
aI496
ag474
a(lp477
g456
ag474
aaa(lp478
I493
aI496
ag474
a(lp479
g447
ag474
aaa(lp480
I493
aI496
ag474
a(lp481
g438
ag474
aaa(lp482
I505
aI512
aS'concepts'
p483
a(lp484
g474
ag483
aaa(lp485
I505
aI512
ag483
a(lp486
g465
ag483
aaa(lp487
I505
aI512
ag483
a(lp488
g456
ag483
aaa(lp489
I505
aI512
ag483
a(lp490
g447
ag483
aaa(lp491
I514
aI516
aS'add'
p492
a(lp493
g483
ag492
aaa(lp494
I514
aI516
ag492
a(lp495
g474
ag492
aaa(lp496
I514
aI516
ag492
a(lp497
g465
ag492
aaa(lp498
I514
aI516
ag492
a(lp499
g456
ag492
aaa(lp500
I520
aI526
aS'concept'
p501
a(lp502
g492
ag501
aaa(lp503
I520
aI526
ag501
a(lp504
g483
ag501
aaa(lp505
I520
aI526
ag501
a(lp506
g474
ag501
aaa(lp507
I520
aI526
ag501
a(lp508
g465
ag501
aaa(lp509
I528
aI533
aS'credit'
p510
a(lp511
g501
ag510
aaa(lp512
I528
aI533
ag510
a(lp513
g492
ag510
aaa(lp514
I528
aI533
ag510
a(lp515
g483
ag510
aaa(lp516
I528
aI533
ag510
a(lp517
g474
ag510
aaa(lp518
I543
aI546
aS'book'
p519
a(lp520
g510
ag519
aaa(lp521
I543
aI546
ag519
a(lp522
g501
ag519
aaa(lp523
I543
aI546
ag519
a(lp524
g492
ag519
aaa(lp525
I543
aI546
ag519
a(lp526
g483
ag519
aaa(lp527
I548
aI553
aS'search'
p528
a(lp529
g519
ag528
aaa(lp530
I548
aI553
ag528
a(lp531
g510
ag528
aaa(lp532
I548
aI553
ag528
a(lp533
g501
ag528
aaa(lp534
I548
aI553
ag528
a(lp535
g492
ag528
aaa(lp536
I561
aI567
aS'concept'
p537
a(lp538
g528
ag537
aaa(lp539
I561
aI567
ag537
a(lp540
g519
ag537
aaa(lp541
I561
aI567
ag537
a(lp542
g510
ag537
aaa(lp543
I561
aI567
ag537
a(lp544
g501
ag537
aaa(lp545
I572
aI576
aS'dont'
p546
a(lp547
g537
ag546
aaa(lp548
I572
aI576
ag546
a(lp549
g528
ag546
aaa(lp550
I572
aI576
ag546
a(lp551
g519
ag546
aaa(lp552
I572
aI576
ag546
a(lp553
g510
ag546
aaa(lp554
I587
aI594
aS'concepts'
p555
a(lp556
g546
ag555
aaa(lp557
I587
aI594
ag555
a(lp558
g537
ag555
aaa(lp559
I587
aI594
ag555
a(lp560
g528
ag555
aaa(lp561
I587
aI594
ag555
a(lp562
g519
ag555
aaa(lp563
I596
aI603
aS'attached'
p564
a(lp565
g555
ag564
aaa(lp566
I596
aI603
ag564
a(lp567
g546
ag564
aaa(lp568
I596
aI603
ag564
a(lp569
g537
ag564
aaa(lp570
I596
aI603
ag564
a(lp571
g528
ag564
aaa(lp572
I613
aI616
aS'book'
p573
a(lp574
g564
ag573
aaa(lp575
I613
aI616
ag573
a(lp576
g555
ag573
aaa(lp577
I613
aI616
ag573
a(lp578
g546
ag573
aaa(lp579
I613
aI616
ag573
a(lp580
g537
ag573
aaa(lp581
I619
aI622
aS'help'
p582
a(lp583
g573
ag582
aaa(lp584
I619
aI622
ag582
a(lp585
g564
ag582
aaa(lp586
I619
aI622
ag582
a(lp587
g555
ag582
aaa(lp588
I619
aI622
ag582
a(lp589
g546
ag582
aaa(lp590
I624
aI625
aS'us'
p591
a(lp592
g582
ag591
aaa(lp593
I624
aI625
ag591
a(lp594
g573
ag591
aaa(lp595
I624
aI625
ag591
a(lp596
g564
ag591
aaa(lp597
I624
aI625
ag591
a(lp598
g555
ag591
aaa(lp599
I627
aI630
aS'fill'
p600
a(lp601
g591
ag600
aaa(lp602
I627
aI630
ag600
a(lp603
g582
ag600
aaa(lp604
I627
aI630
ag600
a(lp605
g573
ag600
aaa(lp606
I627
aI630
ag600
a(lp607
g564
ag600
aaa(lp608
I639
aI645
aS'objects'
p609
a(lp610
g600
ag609
aaa(lp611
I639
aI645
ag609
a(lp612
g591
ag609
aaa(lp613
I639
aI645
ag609
a(lp614
g582
ag609
aaa(lp615
I639
aI645
ag609
a(lp616
g573
ag609
aaa(lp617
I647
aI649
aS'add'
p618
a(lp619
g609
ag618
aaa(lp620
I647
aI649
ag618
a(lp621
g600
ag618
aaa(lp622
I647
aI649
ag618
a(lp623
g591
ag618
aaa(lp624
I647
aI649
ag618
a(lp625
g582
ag618
aaa(lp626
I654
aI659
aS'object'
p627
a(lp628
g618
ag627
aaa(lp629
I654
aI659
ag627
a(lp630
g609
ag627
aaa(lp631
I654
aI659
ag627
a(lp632
g600
ag627
aaa(lp633
I654
aI659
ag627
a(lp634
g591
ag627
aaa(lp635
I661
aI666
aS'credit'
p636
a(lp637
g627
ag636
aaa(lp638
I661
aI666
ag636
a(lp639
g618
ag636
aaa(lp640
I661
aI666
ag636
a(lp641
g609
ag636
aaa(lp642
I661
aI666
ag636
a(lp643
g600
ag636
aaa(lp644
I676
aI679
aS'book'
p645
a(lp646
g636
ag645
aaa(lp647
I676
aI679
ag645
a(lp648
g627
ag645
aaa(lp649
I676
aI679
ag645
a(lp650
g618
ag645
aaa(lp651
I676
aI679
ag645
a(lp652
g609
ag645
aaa(lp653
I681
aI686
aS'search'
p654
a(lp655
g645
ag654
aaa(lp656
I681
aI686
ag654
a(lp657
g636
ag654
aaa(lp658
I681
aI686
ag654
a(lp659
g627
ag654
aaa(lp660
I681
aI686
ag654
a(lp661
g618
ag654
aaa(lp662
I692
aI693
aS'object'
p663
a(lp664
g654
ag663
aaa(lp665
I692
aI693
ag663
a(lp666
g645
ag663
aaa(lp667
I692
aI693
ag663
a(lp668
g636
ag663
aaa(lp669
I692
aI693
ag663
a(lp670
g627
ag663
aaasS'wordMap'
p671
(lp672
(lp673
I0
aI3
aS'this'
p674
a(lp675
(lp676
I0
aS't'
p677
aa(lp678
I1
aS'h'
p679
aa(lp680
I2
aS'i'
p681
aa(lp682
I3
aS's'
p683
aaaa(lp684
I5
aI8
ag5
a(lp685
(lp686
I5
aS'p'
p687
aa(lp688
I6
aS'a'
p689
aa(lp690
I7
aS'g'
p691
aa(lp692
I8
aS'e'
p693
aaaa(lp694
I10
aI11
aS'is'
p695
a(lp696
(lp697
I10
ag681
aa(lp698
I11
ag683
aaaa(lp699
I13
aI17
ag15
a(lp700
(lp701
I13
ag693
aa(lp702
I14
aS'm'
p703
aa(lp704
I15
ag687
aa(lp705
I16
ag677
aa(lp706
I17
aS'y'
p707
aaaa(lp708
I20
aI22
ag24
a(lp709
(lp710
I20
aS'u'
p711
aa(lp712
I21
ag683
aa(lp713
I22
ag693
aaaa(lp714
I24
aI26
aS'the'
p715
a(lp716
(lp717
I24
ag677
aa(lp718
I25
ag679
aa(lp719
I26
ag693
aaaa(lp720
I28
aI31
ag33
a(lp721
(lp722
I28
ag693
aa(lp723
I29
aS'd'
p724
aa(lp725
I30
ag681
aa(lp726
I31
ag677
aaaa(lp727
I33
aI39
ag42
a(lp728
(lp729
I33
ag689
aa(lp730
I34
aS'r'
p731
aa(lp732
I35
ag677
aa(lp733
I36
ag681
aa(lp734
I37
aS'c'
p735
aa(lp736
I38
aS'l'
p737
aa(lp738
I39
ag693
aaaa(lp739
I41
aI44
ag51
a(lp740
(lp741
I41
ag737
aa(lp742
I42
ag681
aa(lp743
I43
aS'n'
p744
aa(lp745
I44
aS'k'
p746
aaaa(lp747
I46
aI47
aS'in'
p748
a(lp749
(lp750
I46
ag681
aa(lp751
I47
ag744
aaaa(lp752
I49
aI51
aS'the'
p753
a(lp754
(lp755
I49
ag677
aa(lp756
I50
ag679
aa(lp757
I51
ag693
aaaa(lp758
I53
aI55
ag60
a(lp759
(lp760
I53
ag677
aa(lp761
I54
aS'o'
p762
aa(lp763
I55
ag687
aaaa(lp764
I57
aI61
ag69
a(lp765
(lp766
I57
ag731
aa(lp767
I58
ag681
aa(lp768
I59
ag691
aa(lp769
I60
ag679
aa(lp770
I61
ag677
aaaa(lp771
I63
aI64
aS'of'
p772
a(lp773
(lp774
I63
ag762
aa(lp775
I64
aS'f'
p776
aaaa(lp777
I66
aI69
aS'this'
p778
a(lp779
(lp780
I66
ag677
aa(lp781
I67
ag679
aa(lp782
I68
ag681
aa(lp783
I69
ag683
aaaa(lp784
I71
aI74
ag78
a(lp785
(lp786
I71
ag687
aa(lp787
I72
ag689
aa(lp788
I73
ag691
aa(lp789
I74
ag693
aaaa(lp790
I76
aI77
aS'to'
p791
a(lp792
(lp793
I76
ag677
aa(lp794
I77
ag762
aaaa(lp795
I79
aI82
ag87
a(lp796
(lp797
I79
ag693
aa(lp798
I80
ag724
aa(lp799
I81
ag681
aa(lp800
I82
ag677
aaaa(lp801
I85
aI88
ag96
a(lp802
(lp803
I85
ag687
aa(lp804
I86
ag737
aa(lp805
I87
ag762
aa(lp806
I88
ag677
aaaa(lp807
I90
aI96
ag105
a(lp808
(lp809
I90
ag683
aa(lp810
I91
ag711
aa(lp811
I92
ag703
aa(lp812
I93
ag703
aa(lp813
I94
ag689
aa(lp814
I95
ag731
aa(lp815
I96
ag707
aaaa(lp816
I98
aI100
ag114
a(lp817
(lp818
I98
ag689
aa(lp819
I99
ag724
aa(lp820
I100
ag724
aaaa(lp821
I102
aI102
ag689
a(lp822
(lp823
I102
ag689
aaaa(lp824
I104
aI110
ag123
a(lp825
(lp826
I104
ag735
aa(lp827
I105
ag731
aa(lp828
I106
ag693
aa(lp829
I107
ag689
aa(lp830
I108
ag677
aa(lp831
I109
ag762
aa(lp832
I110
ag731
aaaa(lp833
I112
aI117
ag132
a(lp834
(lp835
I112
ag735
aa(lp836
I113
ag731
aa(lp837
I114
ag693
aa(lp838
I115
ag724
aa(lp839
I116
ag681
aa(lp840
I117
ag677
aaaa(lp841
I119
aI120
aS'to'
p842
a(lp843
(lp844
I119
ag677
aa(lp845
I120
ag762
aaaa(lp846
I122
aI125
aS'this'
p847
a(lp848
(lp849
I122
ag677
aa(lp850
I123
ag679
aa(lp851
I124
ag681
aa(lp852
I125
ag683
aaaa(lp853
I127
aI131
ag141
a(lp854
(lp855
I127
ag681
aa(lp856
I128
ag683
aa(lp857
I129
ag683
aa(lp858
I130
ag711
aa(lp859
I131
ag693
aaaa(lp860
I133
aI138
ag150
a(lp861
(lp862
I133
ag683
aa(lp863
I134
ag693
aa(lp864
I135
ag689
aa(lp865
I136
ag731
aa(lp866
I137
ag735
aa(lp867
I138
ag679
aaaa(lp868
I140
aI142
aS'for'
p869
a(lp870
(lp871
I140
ag776
aa(lp872
I141
ag762
aa(lp873
I142
ag731
aaaa(lp874
I144
aI144
ag689
a(lp875
(lp876
I144
ag689
aaaa(lp877
I146
aI152
ag159
a(lp878
(lp879
I146
ag735
aa(lp880
I147
ag731
aa(lp881
I148
ag693
aa(lp882
I149
ag689
aa(lp883
I150
ag677
aa(lp884
I151
ag762
aa(lp885
I152
ag731
aaaa(lp886
I154
aI155
aS'we'
p887
a(lp888
(lp889
I154
aS'w'
p890
aa(lp891
I155
ag693
aaaa(lp892
I157
aI161
ag168
a(lp893
(lp894
I157
ag724
aa(lp895
I158
ag762
aa(lp896
I159
ag744
aa(lp897
I161
ag677
aaaa(lp898
I163
aI166
aS'have'
p899
a(lp900
(lp901
I163
ag679
aa(lp902
I164
ag689
aa(lp903
I165
aS'v'
p904
aa(lp905
I166
ag693
aaaa(lp906
I168
aI170
aS'any'
p907
a(lp908
(lp909
I168
ag689
aa(lp910
I169
ag744
aa(lp911
I170
ag707
aaaa(lp912
I172
aI179
ag177
a(lp913
(lp914
I172
ag735
aa(lp915
I173
ag731
aa(lp916
I174
ag693
aa(lp917
I175
ag689
aa(lp918
I176
ag677
aa(lp919
I177
ag762
aa(lp920
I178
ag731
aa(lp921
I179
ag683
aaaa(lp922
I181
aI188
ag186
a(lp923
(lp924
I181
ag689
aa(lp925
I182
ag677
aa(lp926
I183
ag677
aa(lp927
I184
ag689
aa(lp928
I185
ag735
aa(lp929
I186
ag679
aa(lp930
I187
ag693
aa(lp931
I188
ag724
aaaa(lp932
I190
aI191
aS'to'
p933
a(lp934
(lp935
I190
ag677
aa(lp936
I191
ag762
aaaa(lp937
I193
aI196
aS'this'
p938
a(lp939
(lp940
I193
ag677
aa(lp941
I194
ag679
aa(lp942
I195
ag681
aa(lp943
I196
ag683
aaaa(lp944
I198
aI202
ag195
a(lp945
(lp946
I198
ag681
aa(lp947
I199
ag683
aa(lp948
I200
ag683
aa(lp949
I201
ag711
aa(lp950
I202
ag693
aaaa(lp951
I205
aI208
ag204
a(lp952
(lp953
I205
ag679
aa(lp954
I206
ag693
aa(lp955
I207
ag737
aa(lp956
I208
ag687
aaaa(lp957
I210
aI211
ag213
a(lp958
(lp959
I210
ag711
aa(lp960
I211
ag683
aaaa(lp961
I213
aI216
ag222
a(lp962
(lp963
I213
ag776
aa(lp964
I214
ag681
aa(lp965
I215
ag737
aa(lp966
I216
ag737
aaaa(lp967
I218
aI219
aS'it'
p968
a(lp969
(lp970
I218
ag681
aa(lp971
I219
ag677
aaaa(lp972
I221
aI222
aS'in'
p973
a(lp974
(lp975
I221
ag681
aa(lp976
I222
ag744
aaaa(lp977
I225
aI234
ag231
a(lp978
(lp979
I225
ag735
aa(lp980
I226
ag679
aa(lp981
I227
ag689
aa(lp982
I228
ag731
aa(lp983
I229
ag689
aa(lp984
I230
ag735
aa(lp985
I231
ag677
aa(lp986
I232
ag693
aa(lp987
I233
ag731
aa(lp988
I234
ag683
aaaa(lp989
I236
aI238
ag240
a(lp990
(lp991
I236
ag689
aa(lp992
I237
ag724
aa(lp993
I238
ag724
aaaa(lp994
I240
aI240
ag689
a(lp995
(lp996
I240
ag689
aaaa(lp997
I242
aI250
ag249
a(lp998
(lp999
I242
ag735
aa(lp1000
I243
ag679
aa(lp1001
I244
ag689
aa(lp1002
I245
ag731
aa(lp1003
I246
ag689
aa(lp1004
I247
ag735
aa(lp1005
I248
ag677
aa(lp1006
I249
ag693
aa(lp1007
I250
ag731
aaaa(lp1008
I252
aI257
ag258
a(lp1009
(lp1010
I252
ag735
aa(lp1011
I253
ag731
aa(lp1012
I254
ag693
aa(lp1013
I255
ag724
aa(lp1014
I256
ag681
aa(lp1015
I257
ag677
aaaa(lp1016
I259
aI260
aS'to'
p1017
a(lp1018
(lp1019
I259
ag677
aa(lp1020
I260
ag762
aaaa(lp1021
I262
aI265
aS'this'
p1022
a(lp1023
(lp1024
I262
ag677
aa(lp1025
I263
ag679
aa(lp1026
I264
ag681
aa(lp1027
I265
ag683
aaaa(lp1028
I267
aI270
ag267
a(lp1029
(lp1030
I267
aS'b'
p1031
aa(lp1032
I268
ag762
aa(lp1033
I269
ag762
aa(lp1034
I270
ag746
aaaa(lp1035
I272
aI277
ag276
a(lp1036
(lp1037
I272
ag683
aa(lp1038
I273
ag693
aa(lp1039
I274
ag689
aa(lp1040
I275
ag731
aa(lp1041
I276
ag735
aa(lp1042
I277
ag679
aaaa(lp1043
I279
aI281
aS'for'
p1044
a(lp1045
(lp1046
I279
ag776
aa(lp1047
I280
ag762
aa(lp1048
I281
ag731
aaaa(lp1049
I283
aI283
ag689
a(lp1050
(lp1051
I283
ag689
aaaa(lp1052
I285
aI293
ag285
a(lp1053
(lp1054
I285
ag735
aa(lp1055
I286
ag679
aa(lp1056
I287
ag689
aa(lp1057
I288
ag731
aa(lp1058
I289
ag689
aa(lp1059
I290
ag735
aa(lp1060
I291
ag677
aa(lp1061
I292
ag693
aa(lp1062
I293
ag731
aaaa(lp1063
I295
aI296
aS'we'
p1064
a(lp1065
(lp1066
I295
ag890
aa(lp1067
I296
ag693
aaaa(lp1068
I298
aI302
ag294
a(lp1069
(lp1070
I298
ag724
aa(lp1071
I299
ag762
aa(lp1072
I300
ag744
aa(lp1073
I302
ag677
aaaa(lp1074
I304
aI307
aS'have'
p1075
a(lp1076
(lp1077
I304
ag679
aa(lp1078
I305
ag689
aa(lp1079
I306
ag904
aa(lp1080
I307
ag693
aaaa(lp1081
I309
aI311
aS'any'
p1082
a(lp1083
(lp1084
I309
ag689
aa(lp1085
I310
ag744
aa(lp1086
I311
ag707
aaaa(lp1087
I313
aI322
ag303
a(lp1088
(lp1089
I313
ag735
aa(lp1090
I314
ag679
aa(lp1091
I315
ag689
aa(lp1092
I316
ag731
aa(lp1093
I317
ag689
aa(lp1094
I318
ag735
aa(lp1095
I319
ag677
aa(lp1096
I320
ag693
aa(lp1097
I321
ag731
aa(lp1098
I322
ag683
aaaa(lp1099
I324
aI331
ag312
a(lp1100
(lp1101
I324
ag689
aa(lp1102
I325
ag677
aa(lp1103
I326
ag677
aa(lp1104
I327
ag689
aa(lp1105
I328
ag735
aa(lp1106
I329
ag679
aa(lp1107
I330
ag693
aa(lp1108
I331
ag724
aaaa(lp1109
I333
aI334
aS'to'
p1110
a(lp1111
(lp1112
I333
ag677
aa(lp1113
I334
ag762
aaaa(lp1114
I336
aI339
aS'this'
p1115
a(lp1116
(lp1117
I336
ag677
aa(lp1118
I337
ag679
aa(lp1119
I338
ag681
aa(lp1120
I339
ag683
aaaa(lp1121
I341
aI344
ag321
a(lp1122
(lp1123
I341
ag1031
aa(lp1124
I342
ag762
aa(lp1125
I343
ag762
aa(lp1126
I344
ag746
aaaa(lp1127
I347
aI350
ag330
a(lp1128
(lp1129
I347
ag679
aa(lp1130
I348
ag693
aa(lp1131
I349
ag737
aa(lp1132
I350
ag687
aaaa(lp1133
I352
aI353
ag339
a(lp1134
(lp1135
I352
ag711
aa(lp1136
I353
ag683
aaaa(lp1137
I355
aI358
ag348
a(lp1138
(lp1139
I355
ag776
aa(lp1140
I356
ag681
aa(lp1141
I357
ag737
aa(lp1142
I358
ag737
aaaa(lp1143
I360
aI361
aS'it'
p1144
a(lp1145
(lp1146
I360
ag681
aa(lp1147
I361
ag677
aaaa(lp1148
I363
aI364
aS'in'
p1149
a(lp1150
(lp1151
I363
ag681
aa(lp1152
I364
ag744
aaaa(lp1153
I367
aI375
ag357
a(lp1154
(lp1155
I367
ag737
aa(lp1156
I368
ag762
aa(lp1157
I369
ag735
aa(lp1158
I370
ag689
aa(lp1159
I371
ag677
aa(lp1160
I372
ag681
aa(lp1161
I373
ag762
aa(lp1162
I374
ag744
aa(lp1163
I375
ag683
aaaa(lp1164
I377
aI379
ag366
a(lp1165
(lp1166
I377
ag689
aa(lp1167
I378
ag724
aa(lp1168
I379
ag724
aaaa(lp1169
I381
aI381
ag689
a(lp1170
(lp1171
I381
ag689
aaaa(lp1172
I383
aI390
ag375
a(lp1173
(lp1174
I383
ag737
aa(lp1175
I384
ag762
aa(lp1176
I385
ag735
aa(lp1177
I386
ag689
aa(lp1178
I387
ag677
aa(lp1179
I388
ag681
aa(lp1180
I389
ag762
aa(lp1181
I390
ag744
aaaa(lp1182
I392
aI397
ag384
a(lp1183
(lp1184
I392
ag735
aa(lp1185
I393
ag731
aa(lp1186
I394
ag693
aa(lp1187
I395
ag724
aa(lp1188
I396
ag681
aa(lp1189
I397
ag677
aaaa(lp1190
I399
aI400
aS'to'
p1191
a(lp1192
(lp1193
I399
ag677
aa(lp1194
I400
ag762
aaaa(lp1195
I402
aI405
aS'this'
p1196
a(lp1197
(lp1198
I402
ag677
aa(lp1199
I403
ag679
aa(lp1200
I404
ag681
aa(lp1201
I405
ag683
aaaa(lp1202
I407
aI410
ag393
a(lp1203
(lp1204
I407
ag1031
aa(lp1205
I408
ag762
aa(lp1206
I409
ag762
aa(lp1207
I410
ag746
aaaa(lp1208
I412
aI417
ag402
a(lp1209
(lp1210
I412
ag683
aa(lp1211
I413
ag693
aa(lp1212
I414
ag689
aa(lp1213
I415
ag731
aa(lp1214
I416
ag735
aa(lp1215
I417
ag679
aaaa(lp1216
I419
aI421
aS'for'
p1217
a(lp1218
(lp1219
I419
ag776
aa(lp1220
I420
ag762
aa(lp1221
I421
ag731
aaaa(lp1222
I423
aI423
ag689
a(lp1223
(lp1224
I423
ag689
aaaa(lp1225
I425
aI432
ag411
a(lp1226
(lp1227
I425
ag737
aa(lp1228
I426
ag762
aa(lp1229
I427
ag735
aa(lp1230
I428
ag689
aa(lp1231
I429
ag677
aa(lp1232
I430
ag681
aa(lp1233
I431
ag762
aa(lp1234
I432
ag744
aaaa(lp1235
I434
aI435
aS'we'
p1236
a(lp1237
(lp1238
I434
ag890
aa(lp1239
I435
ag693
aaaa(lp1240
I437
aI441
ag420
a(lp1241
(lp1242
I437
ag724
aa(lp1243
I438
ag762
aa(lp1244
I439
ag744
aa(lp1245
I441
ag677
aaaa(lp1246
I443
aI446
aS'have'
p1247
a(lp1248
(lp1249
I443
ag679
aa(lp1250
I444
ag689
aa(lp1251
I445
ag904
aa(lp1252
I446
ag693
aaaa(lp1253
I448
aI450
aS'any'
p1254
a(lp1255
(lp1256
I448
ag689
aa(lp1257
I449
ag744
aa(lp1258
I450
ag707
aaaa(lp1259
I452
aI460
ag429
a(lp1260
(lp1261
I452
ag737
aa(lp1262
I453
ag762
aa(lp1263
I454
ag735
aa(lp1264
I455
ag689
aa(lp1265
I456
ag677
aa(lp1266
I457
ag681
aa(lp1267
I458
ag762
aa(lp1268
I459
ag744
aa(lp1269
I460
ag683
aaaa(lp1270
I462
aI469
ag438
a(lp1271
(lp1272
I462
ag689
aa(lp1273
I463
ag677
aa(lp1274
I464
ag677
aa(lp1275
I465
ag689
aa(lp1276
I466
ag735
aa(lp1277
I467
ag679
aa(lp1278
I468
ag693
aa(lp1279
I469
ag724
aaaa(lp1280
I471
aI472
aS'to'
p1281
a(lp1282
(lp1283
I471
ag677
aa(lp1284
I472
ag762
aaaa(lp1285
I474
aI477
aS'this'
p1286
a(lp1287
(lp1288
I474
ag677
aa(lp1289
I475
ag679
aa(lp1290
I476
ag681
aa(lp1291
I477
ag683
aaaa(lp1292
I479
aI482
ag447
a(lp1293
(lp1294
I479
ag1031
aa(lp1295
I480
ag762
aa(lp1296
I481
ag762
aa(lp1297
I482
ag746
aaaa(lp1298
I485
aI488
ag456
a(lp1299
(lp1300
I485
ag679
aa(lp1301
I486
ag693
aa(lp1302
I487
ag737
aa(lp1303
I488
ag687
aaaa(lp1304
I490
aI491
ag465
a(lp1305
(lp1306
I490
ag711
aa(lp1307
I491
ag683
aaaa(lp1308
I493
aI496
ag474
a(lp1309
(lp1310
I493
ag776
aa(lp1311
I494
ag681
aa(lp1312
I495
ag737
aa(lp1313
I496
ag737
aaaa(lp1314
I498
aI499
aS'it'
p1315
a(lp1316
(lp1317
I498
ag681
aa(lp1318
I499
ag677
aaaa(lp1319
I501
aI502
aS'in'
p1320
a(lp1321
(lp1322
I501
ag681
aa(lp1323
I502
ag744
aaaa(lp1324
I505
aI512
ag483
a(lp1325
(lp1326
I505
ag735
aa(lp1327
I506
ag762
aa(lp1328
I507
ag744
aa(lp1329
I508
ag735
aa(lp1330
I509
ag693
aa(lp1331
I510
ag687
aa(lp1332
I511
ag677
aa(lp1333
I512
ag683
aaaa(lp1334
I514
aI516
ag492
a(lp1335
(lp1336
I514
ag689
aa(lp1337
I515
ag724
aa(lp1338
I516
ag724
aaaa(lp1339
I518
aI518
ag689
a(lp1340
(lp1341
I518
ag689
aaaa(lp1342
I520
aI526
ag501
a(lp1343
(lp1344
I520
ag735
aa(lp1345
I521
ag762
aa(lp1346
I522
ag744
aa(lp1347
I523
ag735
aa(lp1348
I524
ag693
aa(lp1349
I525
ag687
aa(lp1350
I526
ag677
aaaa(lp1351
I528
aI533
ag510
a(lp1352
(lp1353
I528
ag735
aa(lp1354
I529
ag731
aa(lp1355
I530
ag693
aa(lp1356
I531
ag724
aa(lp1357
I532
ag681
aa(lp1358
I533
ag677
aaaa(lp1359
I535
aI536
aS'to'
p1360
a(lp1361
(lp1362
I535
ag677
aa(lp1363
I536
ag762
aaaa(lp1364
I538
aI541
aS'this'
p1365
a(lp1366
(lp1367
I538
ag677
aa(lp1368
I539
ag679
aa(lp1369
I540
ag681
aa(lp1370
I541
ag683
aaaa(lp1371
I543
aI546
ag519
a(lp1372
(lp1373
I543
ag1031
aa(lp1374
I544
ag762
aa(lp1375
I545
ag762
aa(lp1376
I546
ag746
aaaa(lp1377
I548
aI553
ag528
a(lp1378
(lp1379
I548
ag683
aa(lp1380
I549
ag693
aa(lp1381
I550
ag689
aa(lp1382
I551
ag731
aa(lp1383
I552
ag735
aa(lp1384
I553
ag679
aaaa(lp1385
I555
aI557
aS'for'
p1386
a(lp1387
(lp1388
I555
ag776
aa(lp1389
I556
ag762
aa(lp1390
I557
ag731
aaaa(lp1391
I559
aI559
ag689
a(lp1392
(lp1393
I559
ag689
aaaa(lp1394
I561
aI567
ag537
a(lp1395
(lp1396
I561
ag735
aa(lp1397
I562
ag762
aa(lp1398
I563
ag744
aa(lp1399
I564
ag735
aa(lp1400
I565
ag693
aa(lp1401
I566
ag687
aa(lp1402
I567
ag677
aaaa(lp1403
I569
aI570
aS'we'
p1404
a(lp1405
(lp1406
I569
ag890
aa(lp1407
I570
ag693
aaaa(lp1408
I572
aI576
ag546
a(lp1409
(lp1410
I572
ag724
aa(lp1411
I573
ag762
aa(lp1412
I574
ag744
aa(lp1413
I576
ag677
aaaa(lp1414
I578
aI581
aS'have'
p1415
a(lp1416
(lp1417
I578
ag679
aa(lp1418
I579
ag689
aa(lp1419
I580
ag904
aa(lp1420
I581
ag693
aaaa(lp1421
I583
aI585
aS'any'
p1422
a(lp1423
(lp1424
I583
ag689
aa(lp1425
I584
ag744
aa(lp1426
I585
ag707
aaaa(lp1427
I587
aI594
ag555
a(lp1428
(lp1429
I587
ag735
aa(lp1430
I588
ag762
aa(lp1431
I589
ag744
aa(lp1432
I590
ag735
aa(lp1433
I591
ag693
aa(lp1434
I592
ag687
aa(lp1435
I593
ag677
aa(lp1436
I594
ag683
aaaa(lp1437
I596
aI603
ag564
a(lp1438
(lp1439
I596
ag689
aa(lp1440
I597
ag677
aa(lp1441
I598
ag677
aa(lp1442
I599
ag689
aa(lp1443
I600
ag735
aa(lp1444
I601
ag679
aa(lp1445
I602
ag693
aa(lp1446
I603
ag724
aaaa(lp1447
I605
aI606
aS'to'
p1448
a(lp1449
(lp1450
I605
ag677
aa(lp1451
I606
ag762
aaaa(lp1452
I608
aI611
aS'this'
p1453
a(lp1454
(lp1455
I608
ag677
aa(lp1456
I609
ag679
aa(lp1457
I610
ag681
aa(lp1458
I611
ag683
aaaa(lp1459
I613
aI616
ag573
a(lp1460
(lp1461
I613
ag1031
aa(lp1462
I614
ag762
aa(lp1463
I615
ag762
aa(lp1464
I616
ag746
aaaa(lp1465
I619
aI622
ag582
a(lp1466
(lp1467
I619
ag679
aa(lp1468
I620
ag693
aa(lp1469
I621
ag737
aa(lp1470
I622
ag687
aaaa(lp1471
I624
aI625
ag591
a(lp1472
(lp1473
I624
ag711
aa(lp1474
I625
ag683
aaaa(lp1475
I627
aI630
ag600
a(lp1476
(lp1477
I627
ag776
aa(lp1478
I628
ag681
aa(lp1479
I629
ag737
aa(lp1480
I630
ag737
aaaa(lp1481
I632
aI633
aS'it'
p1482
a(lp1483
(lp1484
I632
ag681
aa(lp1485
I633
ag677
aaaa(lp1486
I635
aI636
aS'in'
p1487
a(lp1488
(lp1489
I635
ag681
aa(lp1490
I636
ag744
aaaa(lp1491
I639
aI645
ag609
a(lp1492
(lp1493
I639
ag762
aa(lp1494
I640
ag1031
aa(lp1495
I641
aS'j'
p1496
aa(lp1497
I642
ag693
aa(lp1498
I643
ag735
aa(lp1499
I644
ag677
aa(lp1500
I645
ag683
aaaa(lp1501
I647
aI649
ag618
a(lp1502
(lp1503
I647
ag689
aa(lp1504
I648
ag724
aa(lp1505
I649
ag724
aaaa(lp1506
I651
aI652
aS'an'
p1507
a(lp1508
(lp1509
I651
ag689
aa(lp1510
I652
ag744
aaaa(lp1511
I654
aI659
ag627
a(lp1512
(lp1513
I654
ag762
aa(lp1514
I655
ag1031
aa(lp1515
I656
ag1496
aa(lp1516
I657
ag693
aa(lp1517
I658
ag735
aa(lp1518
I659
ag677
aaaa(lp1519
I661
aI666
ag636
a(lp1520
(lp1521
I661
ag735
aa(lp1522
I662
ag731
aa(lp1523
I663
ag693
aa(lp1524
I664
ag724
aa(lp1525
I665
ag681
aa(lp1526
I666
ag677
aaaa(lp1527
I668
aI669
aS'to'
p1528
a(lp1529
(lp1530
I668
ag677
aa(lp1531
I669
ag762
aaaa(lp1532
I671
aI674
aS'this'
p1533
a(lp1534
(lp1535
I671
ag677
aa(lp1536
I672
ag679
aa(lp1537
I673
ag681
aa(lp1538
I674
ag683
aaaa(lp1539
I676
aI679
ag645
a(lp1540
(lp1541
I676
ag1031
aa(lp1542
I677
ag762
aa(lp1543
I678
ag762
aa(lp1544
I679
ag746
aaaa(lp1545
I681
aI686
ag654
a(lp1546
(lp1547
I681
ag683
aa(lp1548
I682
ag693
aa(lp1549
I683
ag689
aa(lp1550
I684
ag731
aa(lp1551
I685
ag735
aa(lp1552
I686
ag679
aaaa(lp1553
I688
aI690
aS'for'
p1554
a(lp1555
(lp1556
I688
ag776
aa(lp1557
I689
ag762
aa(lp1558
I690
ag731
aaaa(lp1559
I692
aI693
aS'an'
p1560
a(lp1561
(lp1562
I692
ag689
aa(lp1563
I693
ag744
aaaa(lp1564
I692
aI693
ag663
a(lp1565
(lp1566
I695
ag762
aa(lp1567
I696
ag1031
aa(lp1568
I697
ag1496
aa(lp1569
I698
ag693
aa(lp1570
I699
ag735
aa(lp1571
I700
ag677
aaaasS'cleanCharacterMap'
p1572
(lp1573
g676
ag678
ag680
ag682
a(lp1574
I4
aS' '
p1575
aag686
ag688
ag690
ag692
a(lp1576
I9
ag1575
aag697
ag698
a(lp1577
I12
ag1575
aag701
ag702
ag704
ag705
ag706
a(lp1578
I19
ag1575
aag710
ag712
ag713
a(lp1579
I23
ag1575
aag717
ag718
ag719
a(lp1580
I27
ag1575
aag722
ag723
ag725
ag726
a(lp1581
I32
ag1575
aag729
ag730
ag732
ag733
ag734
ag736
ag738
a(lp1582
I40
ag1575
aag741
ag742
ag743
ag745
a(lp1583
I45
ag1575
aag750
ag751
a(lp1584
I48
ag1575
aag755
ag756
ag757
a(lp1585
I52
ag1575
aag760
ag761
ag763
a(lp1586
I56
ag1575
aag766
ag767
ag768
ag769
ag770
a(lp1587
I62
ag1575
aag774
ag775
a(lp1588
I65
ag1575
aag780
ag781
ag782
ag783
a(lp1589
I70
ag1575
aag786
ag787
ag788
ag789
a(lp1590
I75
ag1575
aag793
ag794
a(lp1591
I78
ag1575
aag797
ag798
ag799
ag800
a(lp1592
I84
ag1575
aag803
ag804
ag805
ag806
a(lp1593
I89
ag1575
aag809
ag810
ag811
ag812
ag813
ag814
ag815
a(lp1594
I97
ag1575
aag818
ag819
ag820
a(lp1595
I101
ag1575
aag823
a(lp1596
I103
ag1575
aag826
ag827
ag828
ag829
ag830
ag831
ag832
a(lp1597
I111
ag1575
aag835
ag836
ag837
ag838
ag839
ag840
a(lp1598
I118
ag1575
aag844
ag845
a(lp1599
I121
ag1575
aag849
ag850
ag851
ag852
a(lp1600
I126
ag1575
aag855
ag856
ag857
ag858
ag859
a(lp1601
I132
ag1575
aag862
ag863
ag864
ag865
ag866
ag867
a(lp1602
I139
ag1575
aag871
ag872
ag873
a(lp1603
I143
ag1575
aag876
a(lp1604
I145
ag1575
aag879
ag880
ag881
ag882
ag883
ag884
ag885
a(lp1605
I153
ag1575
aag889
ag891
a(lp1606
I156
ag1575
aag894
ag895
ag896
ag897
a(lp1607
I162
ag1575
aag901
ag902
ag903
ag905
a(lp1608
I167
ag1575
aag909
ag910
ag911
a(lp1609
I171
ag1575
aag914
ag915
ag916
ag917
ag918
ag919
ag920
ag921
a(lp1610
I180
ag1575
aag924
ag925
ag926
ag927
ag928
ag929
ag930
ag931
a(lp1611
I189
ag1575
aag935
ag936
a(lp1612
I192
ag1575
aag940
ag941
ag942
ag943
a(lp1613
I197
ag1575
aag946
ag947
ag948
ag949
ag950
a(lp1614
I204
ag1575
aag953
ag954
ag955
ag956
a(lp1615
I209
ag1575
aag959
ag960
a(lp1616
I212
ag1575
aag963
ag964
ag965
ag966
a(lp1617
I217
ag1575
aag970
ag971
a(lp1618
I220
ag1575
aag975
ag976
a(lp1619
I224
ag1575
aag979
ag980
ag981
ag982
ag983
ag984
ag985
ag986
ag987
ag988
a(lp1620
I235
ag1575
aag991
ag992
ag993
a(lp1621
I239
ag1575
aag996
a(lp1622
I241
ag1575
aag999
ag1000
ag1001
ag1002
ag1003
ag1004
ag1005
ag1006
ag1007
a(lp1623
I251
ag1575
aag1010
ag1011
ag1012
ag1013
ag1014
ag1015
a(lp1624
I258
ag1575
aag1019
ag1020
a(lp1625
I261
ag1575
aag1024
ag1025
ag1026
ag1027
a(lp1626
I266
ag1575
aag1030
ag1032
ag1033
ag1034
a(lp1627
I271
ag1575
aag1037
ag1038
ag1039
ag1040
ag1041
ag1042
a(lp1628
I278
ag1575
aag1046
ag1047
ag1048
a(lp1629
I282
ag1575
aag1051
a(lp1630
I284
ag1575
aag1054
ag1055
ag1056
ag1057
ag1058
ag1059
ag1060
ag1061
ag1062
a(lp1631
I294
ag1575
aag1066
ag1067
a(lp1632
I297
ag1575
aag1070
ag1071
ag1072
ag1073
a(lp1633
I303
ag1575
aag1077
ag1078
ag1079
ag1080
a(lp1634
I308
ag1575
aag1084
ag1085
ag1086
a(lp1635
I312
ag1575
aag1089
ag1090
ag1091
ag1092
ag1093
ag1094
ag1095
ag1096
ag1097
ag1098
a(lp1636
I323
ag1575
aag1101
ag1102
ag1103
ag1104
ag1105
ag1106
ag1107
ag1108
a(lp1637
I332
ag1575
aag1112
ag1113
a(lp1638
I335
ag1575
aag1117
ag1118
ag1119
ag1120
a(lp1639
I340
ag1575
aag1123
ag1124
ag1125
ag1126
a(lp1640
I346
ag1575
aag1129
ag1130
ag1131
ag1132
a(lp1641
I351
ag1575
aag1135
ag1136
a(lp1642
I354
ag1575
aag1139
ag1140
ag1141
ag1142
a(lp1643
I359
ag1575
aag1146
ag1147
a(lp1644
I362
ag1575
aag1151
ag1152
a(lp1645
I366
ag1575
aag1155
ag1156
ag1157
ag1158
ag1159
ag1160
ag1161
ag1162
ag1163
a(lp1646
I376
ag1575
aag1166
ag1167
ag1168
a(lp1647
I380
ag1575
aag1171
a(lp1648
I382
ag1575
aag1174
ag1175
ag1176
ag1177
ag1178
ag1179
ag1180
ag1181
a(lp1649
I391
ag1575
aag1184
ag1185
ag1186
ag1187
ag1188
ag1189
a(lp1650
I398
ag1575
aag1193
ag1194
a(lp1651
I401
ag1575
aag1198
ag1199
ag1200
ag1201
a(lp1652
I406
ag1575
aag1204
ag1205
ag1206
ag1207
a(lp1653
I411
ag1575
aag1210
ag1211
ag1212
ag1213
ag1214
ag1215
a(lp1654
I418
ag1575
aag1219
ag1220
ag1221
a(lp1655
I422
ag1575
aag1224
a(lp1656
I424
ag1575
aag1227
ag1228
ag1229
ag1230
ag1231
ag1232
ag1233
ag1234
a(lp1657
I433
ag1575
aag1238
ag1239
a(lp1658
I436
ag1575
aag1242
ag1243
ag1244
ag1245
a(lp1659
I442
ag1575
aag1249
ag1250
ag1251
ag1252
a(lp1660
I447
ag1575
aag1256
ag1257
ag1258
a(lp1661
I451
ag1575
aag1261
ag1262
ag1263
ag1264
ag1265
ag1266
ag1267
ag1268
ag1269
a(lp1662
I461
ag1575
aag1272
ag1273
ag1274
ag1275
ag1276
ag1277
ag1278
ag1279
a(lp1663
I470
ag1575
aag1283
ag1284
a(lp1664
I473
ag1575
aag1288
ag1289
ag1290
ag1291
a(lp1665
I478
ag1575
aag1294
ag1295
ag1296
ag1297
a(lp1666
I484
ag1575
aag1300
ag1301
ag1302
ag1303
a(lp1667
I489
ag1575
aag1306
ag1307
a(lp1668
I492
ag1575
aag1310
ag1311
ag1312
ag1313
a(lp1669
I497
ag1575
aag1317
ag1318
a(lp1670
I500
ag1575
aag1322
ag1323
a(lp1671
I504
ag1575
aag1326
ag1327
ag1328
ag1329
ag1330
ag1331
ag1332
ag1333
a(lp1672
I513
ag1575
aag1336
ag1337
ag1338
a(lp1673
I517
ag1575
aag1341
a(lp1674
I519
ag1575
aag1344
ag1345
ag1346
ag1347
ag1348
ag1349
ag1350
a(lp1675
I527
ag1575
aag1353
ag1354
ag1355
ag1356
ag1357
ag1358
a(lp1676
I534
ag1575
aag1362
ag1363
a(lp1677
I537
ag1575
aag1367
ag1368
ag1369
ag1370
a(lp1678
I542
ag1575
aag1373
ag1374
ag1375
ag1376
a(lp1679
I547
ag1575
aag1379
ag1380
ag1381
ag1382
ag1383
ag1384
a(lp1680
I554
ag1575
aag1388
ag1389
ag1390
a(lp1681
I558
ag1575
aag1393
a(lp1682
I560
ag1575
aag1396
ag1397
ag1398
ag1399
ag1400
ag1401
ag1402
a(lp1683
I568
ag1575
aag1406
ag1407
a(lp1684
I571
ag1575
aag1410
ag1411
ag1412
ag1413
a(lp1685
I577
ag1575
aag1417
ag1418
ag1419
ag1420
a(lp1686
I582
ag1575
aag1424
ag1425
ag1426
a(lp1687
I586
ag1575
aag1429
ag1430
ag1431
ag1432
ag1433
ag1434
ag1435
ag1436
a(lp1688
I595
ag1575
aag1439
ag1440
ag1441
ag1442
ag1443
ag1444
ag1445
ag1446
a(lp1689
I604
ag1575
aag1450
ag1451
a(lp1690
I607
ag1575
aag1455
ag1456
ag1457
ag1458
a(lp1691
I612
ag1575
aag1461
ag1462
ag1463
ag1464
a(lp1692
I618
ag1575
aag1467
ag1468
ag1469
ag1470
a(lp1693
I623
ag1575
aag1473
ag1474
a(lp1694
I626
ag1575
aag1477
ag1478
ag1479
ag1480
a(lp1695
I631
ag1575
aag1484
ag1485
a(lp1696
I634
ag1575
aag1489
ag1490
a(lp1697
I638
ag1575
aag1493
ag1494
ag1495
ag1497
ag1498
ag1499
ag1500
a(lp1698
I646
ag1575
aag1503
ag1504
ag1505
a(lp1699
I650
ag1575
aag1509
ag1510
a(lp1700
I653
ag1575
aag1513
ag1514
ag1515
ag1516
ag1517
ag1518
a(lp1701
I660
ag1575
aag1521
ag1522
ag1523
ag1524
ag1525
ag1526
a(lp1702
I667
ag1575
aag1530
ag1531
a(lp1703
I670
ag1575
aag1535
ag1536
ag1537
ag1538
a(lp1704
I675
ag1575
aag1541
ag1542
ag1543
ag1544
a(lp1705
I680
ag1575
aag1547
ag1548
ag1549
ag1550
ag1551
ag1552
a(lp1706
I687
ag1575
aag1556
ag1557
ag1558
a(lp1707
I691
ag1575
aag1562
ag1563
a(lp1708
I694
ag1575
aag1566
ag1567
ag1568
ag1569
ag1570
ag1571
asS'text'
p1709
S"this page is empty. use the edit article link in the top right of this page to edit. plot summary add a creator credit to this issue search for a creator we don't have any creators attached to this issue. help us fill it in! characters add a character credit to this book search for a character we don't have any characters attached to this book. help us fill it in! locations add a location credit to this book search for a location we don't have any locations attached to this book. help us fill it in! concepts add a concept credit to this book search for a concept we don't have any concepts attached to this book. help us fill it in! objects add an object credit to this book search for an object"
p1710
sS'cleanWordMap'
p1711
(lp1712
g684
ag699
ag708
ag720
ag727
ag739
ag758
ag764
ag784
ag795
ag801
ag807
ag816
ag824
ag833
ag853
ag860
ag877
ag892
ag912
ag922
ag944
ag951
ag957
ag961
ag977
ag989
ag997
ag1008
ag1028
ag1035
ag1052
ag1068
ag1087
ag1099
ag1121
ag1127
ag1133
ag1137
ag1153
ag1164
ag1172
ag1182
ag1202
ag1208
ag1225
ag1240
ag1259
ag1270
ag1292
ag1298
ag1304
ag1308
ag1324
ag1334
ag1342
ag1351
ag1371
ag1377
ag1394
ag1408
ag1427
ag1437
ag1459
ag1465
ag1471
ag1475
ag1491
ag1501
ag1511
ag1519
ag1539
ag1545
ag1564
asS'lines'
p1713
(lp1714
VThis page is empty. Use the edit article link in the top right of this page to edit.\u000a
p1715
aVPlot Summary\u000a
p1716
aVAdd a creator credit to this issue\u000a
p1717
aVSearch for a creator\u000a
p1718
aVWe don't have any creators attached to this issue. Help us fill it in!\u000a
p1719
aVCharacters\u000a
p1720
aVAdd a character credit to this book\u000a
p1721
aVSearch for a character\u000a
p1722
aVWe don't have any characters attached to this book. Help us fill it in!\u000a
p1723
aVLocations\u000a
p1724
aVAdd a location credit to this book\u000a
p1725
aVSearch for a location\u000a
p1726
aVWe don't have any locations attached to this book. Help us fill it in!\u000a
p1727
aVConcepts\u000a
p1728
aVAdd a concept credit to this book\u000a
p1729
aVSearch for a concept\u000a
p1730
aVWe don't have any concepts attached to this book. Help us fill it in!\u000a
p1731
aVObjects\u000a
p1732
aVAdd an object credit to this book\u000a
p1733
aVSearch for an object
p1734
asS'docType'
p1735
S'src'
p1736
sS'newfmap'
p1737
(lp1738
g4
ag8
ag10
ag12
ag14
ag17
ag19
ag21
ag23
ag26
ag28
ag30
ag32
ag35
ag37
ag39
ag41
ag44
ag46
ag48
ag50
ag53
ag55
ag57
ag59
ag62
ag64
ag66
ag68
ag71
ag73
ag75
ag77
ag80
ag82
ag84
ag86
ag89
ag91
ag93
ag95
ag98
ag100
ag102
ag104
ag107
ag109
ag111
ag113
ag116
ag118
ag120
ag122
ag125
ag127
ag129
ag131
ag136
ag138
ag140
ag143
ag145
ag147
ag149
ag154
ag158
ag161
ag163
ag165
ag167
ag170
ag172
ag174
ag176
ag179
ag181
ag183
ag185
ag188
ag190
ag192
ag194
ag197
ag199
ag201
ag203
ag206
ag208
ag210
ag212
ag215
ag217
ag219
ag221
ag224
ag226
ag228
ag230
ag233
ag235
ag237
ag239
ag242
ag244
ag246
ag248
ag251
ag253
ag255
ag257
ag262
ag264
ag266
ag269
ag271
ag273
ag275
ag280
ag284
ag287
ag289
ag291
ag293
ag296
ag298
ag300
ag302
ag305
ag307
ag309
ag311
ag314
ag316
ag318
ag320
ag323
ag325
ag327
ag329
ag332
ag334
ag336
ag338
ag341
ag343
ag345
ag347
ag350
ag352
ag354
ag356
ag359
ag361
ag363
ag365
ag368
ag370
ag372
ag374
ag377
ag379
ag381
ag383
ag388
ag390
ag392
ag395
ag397
ag399
ag401
ag406
ag410
ag413
ag415
ag417
ag419
ag422
ag424
ag426
ag428
ag431
ag433
ag435
ag437
ag440
ag442
ag444
ag446
ag449
ag451
ag453
ag455
ag458
ag460
ag462
ag464
ag467
ag469
ag471
ag473
ag476
ag478
ag480
ag482
ag485
ag487
ag489
ag491
ag494
ag496
ag498
ag500
ag503
ag505
ag507
ag509
ag514
ag516
ag518
ag521
ag523
ag525
ag527
ag532
ag536
ag539
ag541
ag543
ag545
ag548
ag550
ag552
ag554
ag557
ag559
ag561
ag563
ag566
ag568
ag570
ag572
ag575
ag577
ag579
ag581
ag584
ag586
ag588
ag590
ag593
ag595
ag597
ag599
ag602
ag604
ag606
ag608
ag611
ag613
ag615
ag617
ag620
ag622
ag624
ag626
ag629
ag631
ag633
ag635
ag640
ag642
ag644
ag647
ag649
ag651
ag653
ag658
ag662
ag665
ag667
ag669
asS'featureMap'
p1739
(lp1740
(lp1741
I5
aI8
ag5
ag6
ag9
ag11
ag13
aa(lp1742
I13
aI17
ag15
ag16
ag18
ag20
ag22
aa(lp1743
I20
aI22
ag24
ag25
ag27
ag29
ag31
aa(lp1744
I28
aI31
ag33
ag34
ag36
ag38
ag40
aa(lp1745
I33
aI39
ag42
ag43
ag45
ag47
ag49
aa(lp1746
I41
aI44
ag51
ag52
ag54
ag56
ag58
aa(lp1747
I53
aI55
ag60
ag61
ag63
ag65
ag67
aa(lp1748
I57
aI61
ag69
ag70
ag72
ag74
ag76
aa(lp1749
I71
aI74
ag78
ag79
ag81
ag83
ag85
aa(lp1750
I79
aI82
ag87
ag88
ag90
ag92
ag94
aa(lp1751
I85
aI88
ag96
ag97
ag99
ag101
ag103
aa(lp1752
I90
aI96
ag105
ag106
ag108
ag110
ag112
aa(lp1753
I98
aI100
ag114
ag115
ag117
ag119
ag121
aa(lp1754
I104
aI110
ag123
ag124
ag126
ag128
ag130
aa(lp1755
I112
aI117
ag132
ag133
ag135
ag137
ag139
aa(lp1756
I127
aI131
ag141
ag142
ag144
ag146
ag148
aa(lp1757
I133
aI138
ag150
ag151
ag153
ag155
ag157
aa(lp1758
I146
aI152
ag159
ag160
ag162
ag164
ag166
aa(lp1759
I157
aI161
ag168
ag169
ag171
ag173
ag175
aa(lp1760
I172
aI179
ag177
ag178
ag180
ag182
ag184
aa(lp1761
I181
aI188
ag186
ag187
ag189
ag191
ag193
aa(lp1762
I198
aI202
ag195
ag196
ag198
ag200
ag202
aa(lp1763
I205
aI208
ag204
ag205
ag207
ag209
ag211
aa(lp1764
I210
aI211
ag213
ag214
ag216
ag218
ag220
aa(lp1765
I213
aI216
ag222
ag223
ag225
ag227
ag229
aa(lp1766
I225
aI234
ag231
ag232
ag234
ag236
ag238
aa(lp1767
I236
aI238
ag240
ag241
ag243
ag245
ag247
aa(lp1768
I242
aI250
ag249
ag250
ag252
ag254
ag256
aa(lp1769
I252
aI257
ag258
ag259
ag261
ag263
ag265
aa(lp1770
I267
aI270
ag267
ag268
ag270
ag272
ag274
aa(lp1771
I272
aI277
ag276
ag277
ag279
ag281
ag283
aa(lp1772
I285
aI293
ag285
ag286
ag288
ag290
ag292
aa(lp1773
I298
aI302
ag294
ag295
ag297
ag299
ag301
aa(lp1774
I313
aI322
ag303
ag304
ag306
ag308
ag310
aa(lp1775
I324
aI331
ag312
ag313
ag315
ag317
ag319
aa(lp1776
I341
aI344
ag321
ag322
ag324
ag326
ag328
aa(lp1777
I347
aI350
ag330
ag331
ag333
ag335
ag337
aa(lp1778
I352
aI353
ag339
ag340
ag342
ag344
ag346
aa(lp1779
I355
aI358
ag348
ag349
ag351
ag353
ag355
aa(lp1780
I367
aI375
ag357
ag358
ag360
ag362
ag364
aa(lp1781
I377
aI379
ag366
ag367
ag369
ag371
ag373
aa(lp1782
I383
aI390
ag375
ag376
ag378
ag380
ag382
aa(lp1783
I392
aI397
ag384
ag385
ag387
ag389
ag391
aa(lp1784
I407
aI410
ag393
ag394
ag396
ag398
ag400
aa(lp1785
I412
aI417
ag402
ag403
ag405
ag407
ag409
aa(lp1786
I425
aI432
ag411
ag412
ag414
ag416
ag418
aa(lp1787
I437
aI441
ag420
ag421
ag423
ag425
ag427
aa(lp1788
I452
aI460
ag429
ag430
ag432
ag434
ag436
aa(lp1789
I462
aI469
ag438
ag439
ag441
ag443
ag445
aa(lp1790
I479
aI482
ag447
ag448
ag450
ag452
ag454
aa(lp1791
I485
aI488
ag456
ag457
ag459
ag461
ag463
aa(lp1792
I490
aI491
ag465
ag466
ag468
ag470
ag472
aa(lp1793
I493
aI496
ag474
ag475
ag477
ag479
ag481
aa(lp1794
I505
aI512
ag483
ag484
ag486
ag488
ag490
aa(lp1795
I514
aI516
ag492
ag493
ag495
ag497
ag499
aa(lp1796
I520
aI526
ag501
ag502
ag504
ag506
ag508
aa(lp1797
I528
aI533
ag510
ag511
ag513
ag515
ag517
aa(lp1798
I543
aI546
ag519
ag520
ag522
ag524
ag526
aa(lp1799
I548
aI553
ag528
ag529
ag531
ag533
ag535
aa(lp1800
I561
aI567
ag537
ag538
ag540
ag542
ag544
aa(lp1801
I572
aI576
ag546
ag547
ag549
ag551
ag553
aa(lp1802
I587
aI594
ag555
ag556
ag558
ag560
ag562
aa(lp1803
I596
aI603
ag564
ag565
ag567
ag569
ag571
aa(lp1804
I613
aI616
ag573
ag574
ag576
ag578
ag580
aa(lp1805
I619
aI622
ag582
ag583
ag585
ag587
ag589
aa(lp1806
I624
aI625
ag591
ag592
ag594
ag596
ag598
aa(lp1807
I627
aI630
ag600
ag601
ag603
ag605
ag607
aa(lp1808
I639
aI645
ag609
ag610
ag612
ag614
ag616
aa(lp1809
I647
aI649
ag618
ag619
ag621
ag623
ag625
aa(lp1810
I654
aI659
ag627
ag628
ag630
ag632
ag634
aa(lp1811
I661
aI666
ag636
ag637
ag639
ag641
ag643
aa(lp1812
I676
aI679
ag645
ag646
ag648
ag650
ag652
aa(lp1813
I681
aI686
ag654
ag655
ag657
ag659
ag661
aa(lp1814
I692
aI693
ag663
ag664
ag666
ag668
ag670
aasS'characterMap'
p1815
(lp1816
g676
ag678
ag680
ag682
ag1574
ag686
ag688
ag690
ag692
ag1576
ag697
ag698
ag1577
ag701
ag702
ag704
ag705
ag706
a(lp1817
I18
aS'.'
p1818
aag1578
ag710
ag712
ag713
ag1579
ag717
ag718
ag719
ag1580
ag722
ag723
ag725
ag726
ag1581
ag729
ag730
ag732
ag733
ag734
ag736
ag738
ag1582
ag741
ag742
ag743
ag745
ag1583
ag750
ag751
ag1584
ag755
ag756
ag757
ag1585
ag760
ag761
ag763
ag1586
ag766
ag767
ag768
ag769
ag770
ag1587
ag774
ag775
ag1588
ag780
ag781
ag782
ag783
ag1589
ag786
ag787
ag788
ag789
ag1590
ag793
ag794
ag1591
ag797
ag798
ag799
ag800
a(lp1819
I83
ag1818
aag1592
ag803
ag804
ag805
ag806
ag1593
ag809
ag810
ag811
ag812
ag813
ag814
ag815
ag1594
ag818
ag819
ag820
ag1595
ag823
ag1596
ag826
ag827
ag828
ag829
ag830
ag831
ag832
ag1597
ag835
ag836
ag837
ag838
ag839
ag840
ag1598
ag844
ag845
ag1599
ag849
ag850
ag851
ag852
ag1600
ag855
ag856
ag857
ag858
ag859
ag1601
ag862
ag863
ag864
ag865
ag866
ag867
ag1602
ag871
ag872
ag873
ag1603
ag876
ag1604
ag879
ag880
ag881
ag882
ag883
ag884
ag885
ag1605
ag889
ag891
ag1606
ag894
ag895
ag896
a(lp1820
I160
aS"'"
p1821
aag897
ag1607
ag901
ag902
ag903
ag905
ag1608
ag909
ag910
ag911
ag1609
ag914
ag915
ag916
ag917
ag918
ag919
ag920
ag921
ag1610
ag924
ag925
ag926
ag927
ag928
ag929
ag930
ag931
ag1611
ag935
ag936
ag1612
ag940
ag941
ag942
ag943
ag1613
ag946
ag947
ag948
ag949
ag950
a(lp1822
I203
ag1818
aag1614
ag953
ag954
ag955
ag956
ag1615
ag959
ag960
ag1616
ag963
ag964
ag965
ag966
ag1617
ag970
ag971
ag1618
ag975
ag976
a(lp1823
I223
aS'!'
p1824
aag1619
ag979
ag980
ag981
ag982
ag983
ag984
ag985
ag986
ag987
ag988
ag1620
ag991
ag992
ag993
ag1621
ag996
ag1622
ag999
ag1000
ag1001
ag1002
ag1003
ag1004
ag1005
ag1006
ag1007
ag1623
ag1010
ag1011
ag1012
ag1013
ag1014
ag1015
ag1624
ag1019
ag1020
ag1625
ag1024
ag1025
ag1026
ag1027
ag1626
ag1030
ag1032
ag1033
ag1034
ag1627
ag1037
ag1038
ag1039
ag1040
ag1041
ag1042
ag1628
ag1046
ag1047
ag1048
ag1629
ag1051
ag1630
ag1054
ag1055
ag1056
ag1057
ag1058
ag1059
ag1060
ag1061
ag1062
ag1631
ag1066
ag1067
ag1632
ag1070
ag1071
ag1072
a(lp1825
I301
ag1821
aag1073
ag1633
ag1077
ag1078
ag1079
ag1080
ag1634
ag1084
ag1085
ag1086
ag1635
ag1089
ag1090
ag1091
ag1092
ag1093
ag1094
ag1095
ag1096
ag1097
ag1098
ag1636
ag1101
ag1102
ag1103
ag1104
ag1105
ag1106
ag1107
ag1108
ag1637
ag1112
ag1113
ag1638
ag1117
ag1118
ag1119
ag1120
ag1639
ag1123
ag1124
ag1125
ag1126
a(lp1826
I345
ag1818
aag1640
ag1129
ag1130
ag1131
ag1132
ag1641
ag1135
ag1136
ag1642
ag1139
ag1140
ag1141
ag1142
ag1643
ag1146
ag1147
ag1644
ag1151
ag1152
a(lp1827
I365
ag1824
aag1645
ag1155
ag1156
ag1157
ag1158
ag1159
ag1160
ag1161
ag1162
ag1163
ag1646
ag1166
ag1167
ag1168
ag1647
ag1171
ag1648
ag1174
ag1175
ag1176
ag1177
ag1178
ag1179
ag1180
ag1181
ag1649
ag1184
ag1185
ag1186
ag1187
ag1188
ag1189
ag1650
ag1193
ag1194
ag1651
ag1198
ag1199
ag1200
ag1201
ag1652
ag1204
ag1205
ag1206
ag1207
ag1653
ag1210
ag1211
ag1212
ag1213
ag1214
ag1215
ag1654
ag1219
ag1220
ag1221
ag1655
ag1224
ag1656
ag1227
ag1228
ag1229
ag1230
ag1231
ag1232
ag1233
ag1234
ag1657
ag1238
ag1239
ag1658
ag1242
ag1243
ag1244
a(lp1828
I440
ag1821
aag1245
ag1659
ag1249
ag1250
ag1251
ag1252
ag1660
ag1256
ag1257
ag1258
ag1661
ag1261
ag1262
ag1263
ag1264
ag1265
ag1266
ag1267
ag1268
ag1269
ag1662
ag1272
ag1273
ag1274
ag1275
ag1276
ag1277
ag1278
ag1279
ag1663
ag1283
ag1284
ag1664
ag1288
ag1289
ag1290
ag1291
ag1665
ag1294
ag1295
ag1296
ag1297
a(lp1829
I483
ag1818
aag1666
ag1300
ag1301
ag1302
ag1303
ag1667
ag1306
ag1307
ag1668
ag1310
ag1311
ag1312
ag1313
ag1669
ag1317
ag1318
ag1670
ag1322
ag1323
a(lp1830
I503
ag1824
aag1671
ag1326
ag1327
ag1328
ag1329
ag1330
ag1331
ag1332
ag1333
ag1672
ag1336
ag1337
ag1338
ag1673
ag1341
ag1674
ag1344
ag1345
ag1346
ag1347
ag1348
ag1349
ag1350
ag1675
ag1353
ag1354
ag1355
ag1356
ag1357
ag1358
ag1676
ag1362
ag1363
ag1677
ag1367
ag1368
ag1369
ag1370
ag1678
ag1373
ag1374
ag1375
ag1376
ag1679
ag1379
ag1380
ag1381
ag1382
ag1383
ag1384
ag1680
ag1388
ag1389
ag1390
ag1681
ag1393
ag1682
ag1396
ag1397
ag1398
ag1399
ag1400
ag1401
ag1402
ag1683
ag1406
ag1407
ag1684
ag1410
ag1411
ag1412
a(lp1831
I575
ag1821
aag1413
ag1685
ag1417
ag1418
ag1419
ag1420
ag1686
ag1424
ag1425
ag1426
ag1687
ag1429
ag1430
ag1431
ag1432
ag1433
ag1434
ag1435
ag1436
ag1688
ag1439
ag1440
ag1441
ag1442
ag1443
ag1444
ag1445
ag1446
ag1689
ag1450
ag1451
ag1690
ag1455
ag1456
ag1457
ag1458
ag1691
ag1461
ag1462
ag1463
ag1464
a(lp1832
I617
ag1818
aag1692
ag1467
ag1468
ag1469
ag1470
ag1693
ag1473
ag1474
ag1694
ag1477
ag1478
ag1479
ag1480
ag1695
ag1484
ag1485
ag1696
ag1489
ag1490
a(lp1833
I637
ag1824
aag1697
ag1493
ag1494
ag1495
ag1497
ag1498
ag1499
ag1500
ag1698
ag1503
ag1504
ag1505
ag1699
ag1509
ag1510
ag1700
ag1513
ag1514
ag1515
ag1516
ag1517
ag1518
ag1701
ag1521
ag1522
ag1523
ag1524
ag1525
ag1526
ag1702
ag1530
ag1531
ag1703
ag1535
ag1536
ag1537
ag1538
ag1704
ag1541
ag1542
ag1543
ag1544
ag1705
ag1547
ag1548
ag1549
ag1550
ag1551
ag1552
ag1706
ag1556
ag1557
ag1558
ag1707
ag1562
ag1563
ag1708
ag1566
ag1567
ag1568
ag1569
ag1570
ag1571
asS'docName'
p1834
S'source-document02269.txt'
p1835
sb.