(iModel.Document
Document
p0
(dp1
S'fmap'
p2
(lp3
(lp4
I0
aI2
aS'ask'
p5
a(lp6
S'*'
p7
ag5
aaa(lp8
I0
aI2
ag5
a(lp9
g7
ag5
aaa(lp10
I0
aI2
ag5
a(lp11
g7
ag5
aaa(lp12
I0
aI2
ag5
a(lp13
g7
ag5
aaa(lp14
I7
aI16
aS'astronomer'
p15
a(lp16
g5
ag15
aaa(lp17
I7
aI16
ag15
a(lp18
g7
ag15
aaa(lp19
I7
aI16
ag15
a(lp20
g7
ag15
aaa(lp21
I7
aI16
ag15
a(lp22
g7
ag15
aaa(lp23
I22
aI25
aS'kids'
p24
a(lp25
g15
ag24
aaa(lp26
I22
aI25
ag24
a(lp27
g5
ag24
aaa(lp28
I22
aI25
ag24
a(lp29
g7
ag24
aaa(lp30
I22
aI25
ag24
a(lp31
g7
ag24
aaa(lp32
I37
aI39
aS'sun'
p33
a(lp34
g24
ag33
aaa(lp35
I37
aI39
ag33
a(lp36
g15
ag33
aaa(lp37
I37
aI39
ag33
a(lp38
g5
ag33
aaa(lp39
I37
aI39
ag33
a(lp40
g7
ag33
aaa(lp41
I45
aI51
aS'largest'
p42
a(lp43
g33
ag42
aaa(lp44
I45
aI51
ag42
a(lp45
g24
ag42
aaa(lp46
I45
aI51
ag42
a(lp47
g15
ag42
aaa(lp48
I45
aI51
ag42
a(lp49
g5
ag42
aaa(lp50
I53
aI56
aS'star'
p51
a(lp52
g42
ag51
aaa(lp53
I53
aI56
ag51
a(lp54
g33
ag51
aaa(lp55
I53
aI56
ag51
a(lp56
g24
ag51
aaa(lp57
I53
aI56
ag51
a(lp58
g15
ag51
aaa(lp59
I66
aI68
aS'sun'
p60
a(lp61
g51
ag60
aaa(lp62
I66
aI68
ag60
a(lp63
g42
ag60
aaa(lp64
I66
aI68
ag60
a(lp65
g33
ag60
aaa(lp66
I66
aI68
ag60
a(lp67
g24
ag60
aaa(lp68
I74
aI80
aS'largest'
p69
a(lp70
g60
ag69
aaa(lp71
I74
aI80
ag69
a(lp72
g51
ag69
aaa(lp73
I74
aI80
ag69
a(lp74
g42
ag69
aaa(lp75
I74
aI80
ag69
a(lp76
g33
ag69
aaa(lp77
I82
aI85
aS'star'
p78
a(lp79
g69
ag78
aaa(lp80
I82
aI85
ag78
a(lp81
g60
ag78
aaa(lp82
I82
aI85
ag78
a(lp83
g51
ag78
aaa(lp84
I82
aI85
ag78
a(lp85
g42
ag78
aaa(lp86
I88
aI95
aS'although'
p87
a(lp88
g78
ag87
aaa(lp89
I88
aI95
ag87
a(lp90
g69
ag87
aaa(lp91
I88
aI95
ag87
a(lp92
g60
ag87
aaa(lp93
I88
aI95
ag87
a(lp94
g51
ag87
aaa(lp95
I101
aI103
aS'sun'
p96
a(lp97
g87
ag96
aaa(lp98
I101
aI103
ag96
a(lp99
g78
ag96
aaa(lp100
I101
aI103
ag96
a(lp101
g69
ag96
aaa(lp102
I101
aI103
ag96
a(lp103
g60
ag96
aaa(lp104
I105
aI110
aS'appear'
p105
a(lp106
g96
ag105
aaa(lp107
I105
aI110
ag105
a(lp108
g87
ag105
aaa(lp109
I105
aI110
ag105
a(lp110
g78
ag105
aaa(lp111
I105
aI110
ag105
a(lp112
g69
ag105
aaa(lp113
I112
aI117
aS'larger'
p114
a(lp115
g105
ag114
aaa(lp116
I112
aI117
ag114
a(lp117
g96
ag114
aaa(lp118
I112
aI117
ag114
a(lp119
g87
ag114
aaa(lp120
I112
aI117
ag114
a(lp121
g78
ag114
aaa(lp122
I122
aI123
aS'us'
p123
a(lp124
g114
ag123
aaa(lp125
I122
aI123
ag123
a(lp126
g105
ag123
aaa(lp127
I122
aI123
ag123
a(lp128
g96
ag123
aaa(lp129
I122
aI123
ag123
a(lp130
g87
ag123
aaa(lp131
I140
aI143
aS'star'
p132
a(lp133
g123
ag132
aaa(lp134
I140
aI143
ag132
a(lp135
g114
ag132
aaa(lp136
I140
aI143
ag132
a(lp137
g105
ag132
aaa(lp138
I140
aI143
ag132
a(lp139
g96
ag132
aaa(lp140
I156
aI159
aS'many'
p141
a(lp142
g132
ag141
aaa(lp143
I156
aI159
ag141
a(lp144
g123
ag141
aaa(lp145
I156
aI159
ag141
a(lp146
g114
ag141
aaa(lp147
I156
aI159
ag141
a(lp148
g105
ag141
aaa(lp149
I161
aI165
aS'stars'
p150
a(lp151
g141
ag150
aaa(lp152
I161
aI165
ag150
a(lp153
g132
ag150
aaa(lp154
I161
aI165
ag150
a(lp155
g123
ag150
aaa(lp156
I161
aI165
ag150
a(lp157
g114
ag150
aaa(lp158
I177
aI180
aS'much'
p159
a(lp160
g150
ag159
aaa(lp161
I177
aI180
ag159
a(lp162
g141
ag159
aaa(lp163
I177
aI180
ag159
a(lp164
g132
ag159
aaa(lp165
I177
aI180
ag159
a(lp166
g123
ag159
aaa(lp167
I182
aI187
aS'larger'
p168
a(lp169
g159
ag168
aaa(lp170
I182
aI187
ag168
a(lp171
g150
ag168
aaa(lp172
I182
aI187
ag168
a(lp173
g141
ag168
aaa(lp174
I182
aI187
ag168
a(lp175
g132
ag168
aaa(lp176
I194
aI196
aS'sun'
p177
a(lp178
g168
ag177
aaa(lp179
I194
aI196
ag177
a(lp180
g159
ag177
aaa(lp181
I194
aI196
ag177
a(lp182
g150
ag177
aaa(lp183
I194
aI196
ag177
a(lp184
g141
ag177
aaa(lp185
I198
aI204
aS'appears'
p186
a(lp187
g177
ag186
aaa(lp188
I198
aI204
ag186
a(lp189
g168
ag186
aaa(lp190
I198
aI204
ag186
a(lp191
g159
ag186
aaa(lp192
I198
aI204
ag186
a(lp193
g150
ag186
aaa(lp194
I209
aI213
aS'large'
p195
a(lp196
g186
ag195
aaa(lp197
I209
aI213
ag195
a(lp198
g177
ag195
aaa(lp199
I209
aI213
ag195
a(lp200
g168
ag195
aaa(lp201
I209
aI213
ag195
a(lp202
g159
ag195
aaa(lp203
I215
aI222
aS'compared'
p204
a(lp205
g195
ag204
aaa(lp206
I215
aI222
ag204
a(lp207
g186
ag204
aaa(lp208
I215
aI222
ag204
a(lp209
g177
ag204
aaa(lp210
I215
aI222
ag204
a(lp211
g168
ag204
aaa(lp212
I237
aI241
aS'stars'
p213
a(lp214
g204
ag213
aaa(lp215
I237
aI241
ag213
a(lp216
g195
ag213
aaa(lp217
I237
aI241
ag213
a(lp218
g186
ag213
aaa(lp219
I237
aI241
ag213
a(lp220
g177
ag213
aaa(lp221
I260
aI263
aS'much'
p222
a(lp223
g213
ag222
aaa(lp224
I260
aI263
ag222
a(lp225
g204
ag222
aaa(lp226
I260
aI263
ag222
a(lp227
g195
ag222
aaa(lp228
I260
aI263
ag222
a(lp229
g186
ag222
aaa(lp230
I265
aI270
aS'closer'
p231
a(lp232
g222
ag231
aaa(lp233
I265
aI270
ag231
a(lp234
g213
ag231
aaa(lp235
I265
aI270
ag231
a(lp236
g204
ag231
aaa(lp237
I265
aI270
ag231
a(lp238
g195
ag231
aaa(lp239
I275
aI276
aS'us'
p240
a(lp241
g231
ag240
aaa(lp242
I275
aI276
ag240
a(lp243
g222
ag240
aaa(lp244
I275
aI276
ag240
a(lp245
g213
ag240
aaa(lp246
I275
aI276
ag240
a(lp247
g204
ag240
aaa(lp248
I293
aI296
aS'star'
p249
a(lp250
g240
ag249
aaa(lp251
I293
aI296
ag249
a(lp252
g231
ag249
aaa(lp253
I293
aI296
ag249
a(lp254
g222
ag249
aaa(lp255
I293
aI296
ag249
a(lp256
g213
ag249
aaa(lp257
I303
aI305
aS'sun'
p258
a(lp259
g249
ag258
aaa(lp260
I303
aI305
ag258
a(lp261
g240
ag258
aaa(lp262
I303
aI305
ag258
a(lp263
g231
ag258
aaa(lp264
I303
aI305
ag258
a(lp265
g222
ag258
aaa(lp266
I318
aI324
aS'average'
p267
a(lp268
g258
ag267
aaa(lp269
I318
aI324
ag267
a(lp270
g249
ag267
aaa(lp271
I318
aI324
ag267
a(lp272
g240
ag267
aaa(lp273
I318
aI324
ag267
a(lp274
g231
ag267
aaa(lp275
I326
aI330
aS'sized'
p276
a(lp277
g267
ag276
aaa(lp278
I326
aI330
ag276
a(lp279
g258
ag276
aaa(lp280
I326
aI330
ag276
a(lp281
g249
ag276
aaa(lp282
I326
aI330
ag276
a(lp283
g240
ag276
aaa(lp284
I332
aI335
aS'star'
p285
a(lp286
g276
ag285
aaa(lp287
I332
aI335
ag285
a(lp288
g267
ag285
aaa(lp289
I332
aI335
ag285
a(lp290
g258
ag285
aaa(lp291
I332
aI335
ag285
a(lp292
g249
ag285
aaa(lp293
I342
aI348
aS'example'
p294
a(lp295
g285
ag294
aaa(lp296
I342
aI348
ag294
a(lp297
g276
ag294
aaa(lp298
I342
aI348
ag294
a(lp299
g267
ag294
aaa(lp300
I342
aI348
ag294
a(lp301
g258
ag294
aaa(lp302
I362
aI365
aS'list'
p303
a(lp304
g294
ag303
aaa(lp305
I362
aI365
ag303
a(lp306
g285
ag303
aaa(lp307
I362
aI365
ag303
a(lp308
g276
ag303
aaa(lp309
I362
aI365
ag303
a(lp310
g267
ag303
aaa(lp311
I382
aI388
aS'largest'
p312
a(lp313
g303
ag312
aaa(lp314
I382
aI388
ag312
a(lp315
g294
ag312
aaa(lp316
I382
aI388
ag312
a(lp317
g285
ag312
aaa(lp318
I382
aI388
ag312
a(lp319
g276
ag312
aaa(lp320
I390
aI394
aS'stars'
p321
a(lp322
g312
ag321
aaa(lp323
I390
aI394
ag321
a(lp324
g303
ag321
aaa(lp325
I390
aI394
ag321
a(lp326
g294
ag321
aaa(lp327
I390
aI394
ag321
a(lp328
g285
ag321
aaa(lp329
I403
aI408
aS'galaxy'
p330
a(lp331
g321
ag330
aaa(lp332
I403
aI408
ag330
a(lp333
g312
ag330
aaa(lp334
I403
aI408
ag330
a(lp335
g303
ag330
aaa(lp336
I403
aI408
ag330
a(lp337
g294
ag330
aaa(lp338
I423
aI429
aS'compare'
p339
a(lp340
g330
ag339
aaa(lp341
I423
aI429
ag339
a(lp342
g321
ag339
aaa(lp343
I423
aI429
ag339
a(lp344
g312
ag339
aaa(lp345
I423
aI429
ag339
a(lp346
g303
ag339
aaa(lp347
I438
aI440
aS'sun'
p348
a(lp349
g339
ag348
aaa(lp350
I438
aI440
ag348
a(lp351
g330
ag348
aaa(lp352
I438
aI440
ag348
a(lp353
g321
ag348
aaa(lp354
I438
aI440
ag348
a(lp355
g312
ag348
aaa(lp356
I443
aI444
aS'mu'
p357
a(lp358
g348
ag357
aaa(lp359
I443
aI444
ag357
a(lp360
g339
ag357
aaa(lp361
I443
aI444
ag357
a(lp362
g330
ag357
aaa(lp363
I443
aI444
ag357
a(lp364
g321
ag357
aaa(lp365
I446
aI450
aS'cephi'
p366
a(lp367
g357
ag366
aaa(lp368
I446
aI450
ag366
a(lp369
g348
ag366
aaa(lp370
I446
aI450
ag366
a(lp371
g339
ag366
aaa(lp372
I446
aI450
ag366
a(lp373
g330
ag366
aaa(lp374
I460
aI463
aS'1500'
p375
a(lp376
g366
ag375
aaa(lp377
I460
aI463
ag375
a(lp378
g357
ag375
aaa(lp379
I460
aI463
ag375
a(lp380
g348
ag375
aaa(lp381
I460
aI463
ag375
a(lp382
g339
ag375
aaa(lp383
I465
aI469
aS'times'
p384
a(lp385
g375
ag384
aaa(lp386
I465
aI469
ag384
a(lp387
g366
ag384
aaa(lp388
I465
aI469
ag384
a(lp389
g357
ag384
aaa(lp390
I465
aI469
ag384
a(lp391
g348
ag384
aaa(lp392
I475
aI478
aS'size'
p393
a(lp394
g384
ag393
aaa(lp395
I475
aI478
ag393
a(lp396
g375
ag393
aaa(lp397
I475
aI478
ag393
a(lp398
g366
ag393
aaa(lp399
I475
aI478
ag393
a(lp400
g357
ag393
aaa(lp401
I487
aI489
aS'sun'
p402
a(lp403
g393
ag402
aaa(lp404
I487
aI489
ag402
a(lp405
g384
ag402
aaa(lp406
I487
aI489
ag402
a(lp407
g375
ag402
aaa(lp408
I487
aI489
ag402
a(lp409
g366
ag402
aaa(lp410
I491
aI500
aS'betelgeuse'
p411
a(lp412
g402
ag411
aaa(lp413
I491
aI500
ag411
a(lp414
g393
ag411
aaa(lp415
I491
aI500
ag411
a(lp416
g384
ag411
aaa(lp417
I491
aI500
ag411
a(lp418
g375
ag411
aaa(lp419
I510
aI512
aS'900'
p420
a(lp421
g411
ag420
aaa(lp422
I510
aI512
ag420
a(lp423
g402
ag420
aaa(lp424
I510
aI512
ag420
a(lp425
g393
ag420
aaa(lp426
I510
aI512
ag420
a(lp427
g384
ag420
aaa(lp428
I514
aI518
aS'times'
p429
a(lp430
g420
ag429
aaa(lp431
I514
aI518
ag429
a(lp432
g411
ag429
aaa(lp433
I514
aI518
ag429
a(lp434
g402
ag429
aaa(lp435
I514
aI518
ag429
a(lp436
g393
ag429
aaa(lp437
I524
aI527
aS'size'
p438
a(lp439
g429
ag438
aaa(lp440
I524
aI527
ag438
a(lp441
g420
ag438
aaa(lp442
I524
aI527
ag438
a(lp443
g411
ag438
aaa(lp444
I524
aI527
ag438
a(lp445
g402
ag438
aaa(lp446
I536
aI538
aS'sun'
p447
a(lp448
g438
ag447
aaa(lp449
I536
aI538
ag447
a(lp450
g429
ag447
aaa(lp451
I536
aI538
ag447
a(lp452
g420
ag447
aaa(lp453
I536
aI538
ag447
a(lp454
g411
ag447
aaa(lp455
I540
aI546
aS'antares'
p456
a(lp457
g447
ag456
aaa(lp458
I540
aI546
ag456
a(lp459
g438
ag456
aaa(lp460
I540
aI546
ag456
a(lp461
g429
ag456
aaa(lp462
I540
aI546
ag456
a(lp463
g420
ag456
aaa(lp464
I556
aI558
aS'530'
p465
a(lp466
g456
ag465
aaa(lp467
I556
aI558
ag465
a(lp468
g447
ag465
aaa(lp469
I556
aI558
ag465
a(lp470
g438
ag465
aaa(lp471
I556
aI558
ag465
a(lp472
g429
ag465
aaa(lp473
I560
aI564
aS'times'
p474
a(lp475
g465
ag474
aaa(lp476
I560
aI564
ag474
a(lp477
g456
ag474
aaa(lp478
I560
aI564
ag474
a(lp479
g447
ag474
aaa(lp480
I560
aI564
ag474
a(lp481
g438
ag474
aaa(lp482
I570
aI573
aS'size'
p483
a(lp484
g474
ag483
aaa(lp485
I570
aI573
ag483
a(lp486
g465
ag483
aaa(lp487
I570
aI573
ag483
a(lp488
g456
ag483
aaa(lp489
I570
aI573
ag483
a(lp490
g447
ag483
aaa(lp491
I582
aI584
aS'sun'
p492
a(lp493
g483
ag492
aaa(lp494
I582
aI584
ag492
a(lp495
g474
ag492
aaa(lp496
I582
aI584
ag492
a(lp497
g465
ag492
aaa(lp498
I582
aI584
ag492
a(lp499
g456
ag492
aaa(lp500
I586
aI590
aS'deneb'
p501
a(lp502
g492
ag501
aaa(lp503
I586
aI590
ag501
a(lp504
g483
ag501
aaa(lp505
I586
aI590
ag501
a(lp506
g474
ag501
aaa(lp507
I586
aI590
ag501
a(lp508
g465
ag501
aaa(lp509
I600
aI602
aS'145'
p510
a(lp511
g501
ag510
aaa(lp512
I600
aI602
ag510
a(lp513
g492
ag510
aaa(lp514
I600
aI602
ag510
a(lp515
g483
ag510
aaa(lp516
I600
aI602
ag510
a(lp517
g474
ag510
aaa(lp518
I604
aI608
aS'times'
p519
a(lp520
g510
ag519
aaa(lp521
I604
aI608
ag519
a(lp522
g501
ag519
aaa(lp523
I604
aI608
ag519
a(lp524
g492
ag519
aaa(lp525
I604
aI608
ag519
a(lp526
g483
ag519
aaa(lp527
I614
aI617
aS'size'
p528
a(lp529
g519
ag528
aaa(lp530
I614
aI617
ag528
a(lp531
g510
ag528
aaa(lp532
I614
aI617
ag528
a(lp533
g501
ag528
aaa(lp534
I614
aI617
ag528
a(lp535
g492
ag528
aaa(lp536
I622
aI624
aS'sun'
p537
a(lp538
g528
ag537
aaa(lp539
I622
aI624
ag537
a(lp540
g519
ag537
aaa(lp541
I622
aI624
ag537
a(lp542
g510
ag537
aaa(lp543
I622
aI624
ag537
a(lp544
g501
ag537
aaasS'wordMap'
p545
(lp546
(lp547
I0
aI2
ag5
a(lp548
(lp549
I0
aS'a'
p550
aa(lp551
I1
aS's'
p552
aa(lp553
I2
aS'k'
p554
aaaa(lp555
I4
aI5
aS'an'
p556
a(lp557
(lp558
I4
ag550
aa(lp559
I5
aS'n'
p560
aaaa(lp561
I7
aI16
ag15
a(lp562
(lp563
I7
ag550
aa(lp564
I8
ag552
aa(lp565
I9
aS't'
p566
aa(lp567
I10
aS'r'
p568
aa(lp569
I11
aS'o'
p570
aa(lp571
I12
ag560
aa(lp572
I13
ag570
aa(lp573
I14
aS'm'
p574
aa(lp575
I15
aS'e'
p576
aa(lp577
I16
ag568
aaaa(lp578
I18
aI20
aS'for'
p579
a(lp580
(lp581
I18
aS'f'
p582
aa(lp583
I19
ag570
aa(lp584
I20
ag568
aaaa(lp585
I22
aI25
ag24
a(lp586
(lp587
I22
ag554
aa(lp588
I23
aS'i'
p589
aa(lp590
I24
aS'd'
p591
aa(lp592
I25
ag552
aaaa(lp593
I30
aI31
aS'is'
p594
a(lp595
(lp596
I30
ag589
aa(lp597
I31
ag552
aaaa(lp598
I33
aI35
aS'the'
p599
a(lp600
(lp601
I33
ag566
aa(lp602
I34
aS'h'
p603
aa(lp604
I35
ag576
aaaa(lp605
I37
aI39
ag33
a(lp606
(lp607
I37
ag552
aa(lp608
I38
aS'u'
p609
aa(lp610
I39
ag560
aaaa(lp611
I41
aI43
aS'the'
p612
a(lp613
(lp614
I41
ag566
aa(lp615
I42
ag603
aa(lp616
I43
ag576
aaaa(lp617
I45
aI51
ag42
a(lp618
(lp619
I45
aS'l'
p620
aa(lp621
I46
ag550
aa(lp622
I47
ag568
aa(lp623
I48
aS'g'
p624
aa(lp625
I49
ag576
aa(lp626
I50
ag552
aa(lp627
I51
ag566
aaaa(lp628
I53
aI56
ag51
a(lp629
(lp630
I53
ag552
aa(lp631
I54
ag566
aa(lp632
I55
ag550
aa(lp633
I56
ag568
aaaa(lp634
I59
aI60
aS'is'
p635
a(lp636
(lp637
I59
ag589
aa(lp638
I60
ag552
aaaa(lp639
I62
aI64
aS'the'
p640
a(lp641
(lp642
I62
ag566
aa(lp643
I63
ag603
aa(lp644
I64
ag576
aaaa(lp645
I66
aI68
ag60
a(lp646
(lp647
I66
ag552
aa(lp648
I67
ag609
aa(lp649
I68
ag560
aaaa(lp650
I70
aI72
aS'the'
p651
a(lp652
(lp653
I70
ag566
aa(lp654
I71
ag603
aa(lp655
I72
ag576
aaaa(lp656
I74
aI80
ag69
a(lp657
(lp658
I74
ag620
aa(lp659
I75
ag550
aa(lp660
I76
ag568
aa(lp661
I77
ag624
aa(lp662
I78
ag576
aa(lp663
I79
ag552
aa(lp664
I80
ag566
aaaa(lp665
I82
aI85
ag78
a(lp666
(lp667
I82
ag552
aa(lp668
I83
ag566
aa(lp669
I84
ag550
aa(lp670
I85
ag568
aaaa(lp671
I88
aI95
ag87
a(lp672
(lp673
I88
ag550
aa(lp674
I89
ag620
aa(lp675
I90
ag566
aa(lp676
I91
ag603
aa(lp677
I92
ag570
aa(lp678
I93
ag609
aa(lp679
I94
ag624
aa(lp680
I95
ag603
aaaa(lp681
I97
aI99
aS'the'
p682
a(lp683
(lp684
I97
ag566
aa(lp685
I98
ag603
aa(lp686
I99
ag576
aaaa(lp687
I101
aI103
ag96
a(lp688
(lp689
I101
ag552
aa(lp690
I102
ag609
aa(lp691
I103
ag560
aaaa(lp692
I105
aI110
ag105
a(lp693
(lp694
I105
ag550
aa(lp695
I106
aS'p'
p696
aa(lp697
I107
ag696
aa(lp698
I108
ag576
aa(lp699
I109
ag550
aa(lp700
I110
ag568
aaaa(lp701
I112
aI117
ag114
a(lp702
(lp703
I112
ag620
aa(lp704
I113
ag550
aa(lp705
I114
ag568
aa(lp706
I115
ag624
aa(lp707
I116
ag576
aa(lp708
I117
ag568
aaaa(lp709
I119
aI120
aS'to'
p710
a(lp711
(lp712
I119
ag566
aa(lp713
I120
ag570
aaaa(lp714
I122
aI123
ag123
a(lp715
(lp716
I122
ag609
aa(lp717
I123
ag552
aaaa(lp718
I125
aI128
aS'than'
p719
a(lp720
(lp721
I125
ag566
aa(lp722
I126
ag603
aa(lp723
I127
ag550
aa(lp724
I128
ag560
aaaa(lp725
I130
aI132
aS'any'
p726
a(lp727
(lp728
I130
ag550
aa(lp729
I131
ag560
aa(lp730
I132
aS'y'
p731
aaaa(lp732
I134
aI138
aS'other'
p733
a(lp734
(lp735
I134
ag570
aa(lp736
I135
ag566
aa(lp737
I136
ag603
aa(lp738
I137
ag576
aa(lp739
I138
ag568
aaaa(lp740
I140
aI143
ag132
a(lp741
(lp742
I140
ag552
aa(lp743
I141
ag566
aa(lp744
I142
ag550
aa(lp745
I143
ag568
aaaa(lp746
I146
aI150
aS'there'
p747
a(lp748
(lp749
I146
ag566
aa(lp750
I147
ag603
aa(lp751
I148
ag576
aa(lp752
I149
ag568
aa(lp753
I150
ag576
aaaa(lp754
I152
aI154
aS'are'
p755
a(lp756
(lp757
I152
ag550
aa(lp758
I153
ag568
aa(lp759
I154
ag576
aaaa(lp760
I156
aI159
ag141
a(lp761
(lp762
I156
ag574
aa(lp763
I157
ag550
aa(lp764
I158
ag560
aa(lp765
I159
ag731
aaaa(lp766
I161
aI165
ag150
a(lp767
(lp768
I161
ag552
aa(lp769
I162
ag566
aa(lp770
I163
ag550
aa(lp771
I164
ag568
aa(lp772
I165
ag552
aaaa(lp773
I167
aI171
aS'which'
p774
a(lp775
(lp776
I167
aS'w'
p777
aa(lp778
I168
ag603
aa(lp779
I169
ag589
aa(lp780
I170
aS'c'
p781
aa(lp782
I171
ag603
aaaa(lp783
I173
aI175
aS'are'
p784
a(lp785
(lp786
I173
ag550
aa(lp787
I174
ag568
aa(lp788
I175
ag576
aaaa(lp789
I177
aI180
ag159
a(lp790
(lp791
I177
ag574
aa(lp792
I178
ag609
aa(lp793
I179
ag781
aa(lp794
I180
ag603
aaaa(lp795
I182
aI187
ag168
a(lp796
(lp797
I182
ag620
aa(lp798
I183
ag550
aa(lp799
I184
ag568
aa(lp800
I185
ag624
aa(lp801
I186
ag576
aa(lp802
I187
ag568
aaaa(lp803
I190
aI192
aS'the'
p804
a(lp805
(lp806
I190
ag566
aa(lp807
I191
ag603
aa(lp808
I192
ag576
aaaa(lp809
I194
aI196
ag177
a(lp810
(lp811
I194
ag552
aa(lp812
I195
ag609
aa(lp813
I196
ag560
aaaa(lp814
I198
aI204
ag186
a(lp815
(lp816
I198
ag550
aa(lp817
I199
ag696
aa(lp818
I200
ag696
aa(lp819
I201
ag576
aa(lp820
I202
ag550
aa(lp821
I203
ag568
aa(lp822
I204
ag552
aaaa(lp823
I206
aI207
aS'so'
p824
a(lp825
(lp826
I206
ag552
aa(lp827
I207
ag570
aaaa(lp828
I209
aI213
ag195
a(lp829
(lp830
I209
ag620
aa(lp831
I210
ag550
aa(lp832
I211
ag568
aa(lp833
I212
ag624
aa(lp834
I213
ag576
aaaa(lp835
I215
aI222
ag204
a(lp836
(lp837
I215
ag781
aa(lp838
I216
ag570
aa(lp839
I217
ag574
aa(lp840
I218
ag696
aa(lp841
I219
ag550
aa(lp842
I220
ag568
aa(lp843
I221
ag576
aa(lp844
I222
ag591
aaaa(lp845
I224
aI225
aS'to'
p846
a(lp847
(lp848
I224
ag566
aa(lp849
I225
ag570
aaaa(lp850
I227
aI229
aS'the'
p851
a(lp852
(lp853
I227
ag566
aa(lp854
I228
ag603
aa(lp855
I229
ag576
aaaa(lp856
I231
aI235
aS'other'
p857
a(lp858
(lp859
I231
ag570
aa(lp860
I232
ag566
aa(lp861
I233
ag603
aa(lp862
I234
ag576
aa(lp863
I235
ag568
aaaa(lp864
I237
aI241
ag213
a(lp865
(lp866
I237
ag552
aa(lp867
I238
ag566
aa(lp868
I239
ag550
aa(lp869
I240
ag568
aa(lp870
I241
ag552
aaaa(lp871
I243
aI249
aS'because'
p872
a(lp873
(lp874
I243
aS'b'
p875
aa(lp876
I244
ag576
aa(lp877
I245
ag781
aa(lp878
I246
ag550
aa(lp879
I247
ag609
aa(lp880
I248
ag552
aa(lp881
I249
ag576
aaaa(lp882
I251
aI252
aS'it'
p883
a(lp884
(lp885
I251
ag589
aa(lp886
I252
ag566
aaaa(lp887
I254
aI255
aS'is'
p888
a(lp889
(lp890
I254
ag589
aa(lp891
I255
ag552
aaaa(lp892
I257
aI258
aS'so'
p893
a(lp894
(lp895
I257
ag552
aa(lp896
I258
ag570
aaaa(lp897
I260
aI263
ag222
a(lp898
(lp899
I260
ag574
aa(lp900
I261
ag609
aa(lp901
I262
ag781
aa(lp902
I263
ag603
aaaa(lp903
I265
aI270
ag231
a(lp904
(lp905
I265
ag781
aa(lp906
I266
ag620
aa(lp907
I267
ag570
aa(lp908
I268
ag552
aa(lp909
I269
ag576
aa(lp910
I270
ag568
aaaa(lp911
I272
aI273
aS'to'
p912
a(lp913
(lp914
I272
ag566
aa(lp915
I273
ag570
aaaa(lp916
I275
aI276
ag240
a(lp917
(lp918
I275
ag609
aa(lp919
I276
ag552
aaaa(lp920
I278
aI281
aS'than'
p921
a(lp922
(lp923
I278
ag566
aa(lp924
I279
ag603
aa(lp925
I280
ag550
aa(lp926
I281
ag560
aaaa(lp927
I283
aI285
aS'any'
p928
a(lp929
(lp930
I283
ag550
aa(lp931
I284
ag560
aa(lp932
I285
ag731
aaaa(lp933
I287
aI291
aS'other'
p934
a(lp935
(lp936
I287
ag570
aa(lp937
I288
ag566
aa(lp938
I289
ag603
aa(lp939
I290
ag576
aa(lp940
I291
ag568
aaaa(lp941
I293
aI296
ag249
a(lp942
(lp943
I293
ag552
aa(lp944
I294
ag566
aa(lp945
I295
ag550
aa(lp946
I296
ag568
aaaa(lp947
I299
aI301
aS'the'
p948
a(lp949
(lp950
I299
ag566
aa(lp951
I300
ag603
aa(lp952
I301
ag576
aaaa(lp953
I303
aI305
ag258
a(lp954
(lp955
I303
ag552
aa(lp956
I304
ag609
aa(lp957
I305
ag560
aaaa(lp958
I307
aI308
aS'is'
p959
a(lp960
(lp961
I307
ag589
aa(lp962
I308
ag552
aaaa(lp963
I310
aI313
aS'just'
p964
a(lp965
(lp966
I310
aS'j'
p967
aa(lp968
I311
ag609
aa(lp969
I312
ag552
aa(lp970
I313
ag566
aaaa(lp971
I315
aI316
aS'an'
p972
a(lp973
(lp974
I315
ag550
aa(lp975
I316
ag560
aaaa(lp976
I318
aI324
ag267
a(lp977
(lp978
I318
ag550
aa(lp979
I319
aS'v'
p980
aa(lp981
I320
ag576
aa(lp982
I321
ag568
aa(lp983
I322
ag550
aa(lp984
I323
ag624
aa(lp985
I324
ag576
aaaa(lp986
I326
aI330
ag276
a(lp987
(lp988
I326
ag552
aa(lp989
I327
ag589
aa(lp990
I328
aS'z'
p991
aa(lp992
I329
ag576
aa(lp993
I330
ag591
aaaa(lp994
I332
aI335
ag285
a(lp995
(lp996
I332
ag552
aa(lp997
I333
ag566
aa(lp998
I334
ag550
aa(lp999
I335
ag568
aaaa(lp1000
I338
aI340
aS'for'
p1001
a(lp1002
(lp1003
I338
ag582
aa(lp1004
I339
ag570
aa(lp1005
I340
ag568
aaaa(lp1006
I342
aI348
ag294
a(lp1007
(lp1008
I342
ag576
aa(lp1009
I343
aS'x'
p1010
aa(lp1011
I344
ag550
aa(lp1012
I345
ag574
aa(lp1013
I346
ag696
aa(lp1014
I347
ag620
aa(lp1015
I348
ag576
aaaa(lp1016
I351
aI355
aS'below'
p1017
a(lp1018
(lp1019
I351
ag875
aa(lp1020
I352
ag576
aa(lp1021
I353
ag620
aa(lp1022
I354
ag570
aa(lp1023
I355
ag777
aaaa(lp1024
I357
aI358
aS'is'
p1025
a(lp1026
(lp1027
I357
ag589
aa(lp1028
I358
ag552
aaaa(lp1029
I360
aI360
ag550
a(lp1030
(lp1031
I360
ag550
aaaa(lp1032
I362
aI365
ag303
a(lp1033
(lp1034
I362
ag620
aa(lp1035
I363
ag589
aa(lp1036
I364
ag552
aa(lp1037
I365
ag566
aaaa(lp1038
I367
aI368
aS'of'
p1039
a(lp1040
(lp1041
I367
ag570
aa(lp1042
I368
ag582
aaaa(lp1043
I370
aI373
aS'some'
p1044
a(lp1045
(lp1046
I370
ag552
aa(lp1047
I371
ag570
aa(lp1048
I372
ag574
aa(lp1049
I373
ag576
aaaa(lp1050
I375
aI376
aS'of'
p1051
a(lp1052
(lp1053
I375
ag570
aa(lp1054
I376
ag582
aaaa(lp1055
I378
aI380
aS'the'
p1056
a(lp1057
(lp1058
I378
ag566
aa(lp1059
I379
ag603
aa(lp1060
I380
ag576
aaaa(lp1061
I382
aI388
ag312
a(lp1062
(lp1063
I382
ag620
aa(lp1064
I383
ag550
aa(lp1065
I384
ag568
aa(lp1066
I385
ag624
aa(lp1067
I386
ag576
aa(lp1068
I387
ag552
aa(lp1069
I388
ag566
aaaa(lp1070
I390
aI394
ag321
a(lp1071
(lp1072
I390
ag552
aa(lp1073
I391
ag566
aa(lp1074
I392
ag550
aa(lp1075
I393
ag568
aa(lp1076
I394
ag552
aaaa(lp1077
I396
aI397
aS'in'
p1078
a(lp1079
(lp1080
I396
ag589
aa(lp1081
I397
ag560
aaaa(lp1082
I399
aI401
aS'our'
p1083
a(lp1084
(lp1085
I399
ag570
aa(lp1086
I400
ag609
aa(lp1087
I401
ag568
aaaa(lp1088
I403
aI408
ag330
a(lp1089
(lp1090
I403
ag624
aa(lp1091
I404
ag550
aa(lp1092
I405
ag620
aa(lp1093
I406
ag550
aa(lp1094
I407
ag1010
aa(lp1095
I408
ag731
aaaa(lp1096
I410
aI412
aS'and'
p1097
a(lp1098
(lp1099
I410
ag550
aa(lp1100
I411
ag560
aa(lp1101
I412
ag591
aaaa(lp1102
I414
aI416
aS'how'
p1103
a(lp1104
(lp1105
I414
ag603
aa(lp1106
I415
ag570
aa(lp1107
I416
ag777
aaaa(lp1108
I418
aI421
aS'they'
p1109
a(lp1110
(lp1111
I418
ag566
aa(lp1112
I419
ag603
aa(lp1113
I420
ag576
aa(lp1114
I421
ag731
aaaa(lp1115
I423
aI429
ag339
a(lp1116
(lp1117
I423
ag781
aa(lp1118
I424
ag570
aa(lp1119
I425
ag574
aa(lp1120
I426
ag696
aa(lp1121
I427
ag550
aa(lp1122
I428
ag568
aa(lp1123
I429
ag576
aaaa(lp1124
I431
aI432
aS'to'
p1125
a(lp1126
(lp1127
I431
ag566
aa(lp1128
I432
ag570
aaaa(lp1129
I434
aI436
aS'our'
p1130
a(lp1131
(lp1132
I434
ag570
aa(lp1133
I435
ag609
aa(lp1134
I436
ag568
aaaa(lp1135
I438
aI440
ag348
a(lp1136
(lp1137
I438
ag552
aa(lp1138
I439
ag609
aa(lp1139
I440
ag560
aaaa(lp1140
I443
aI444
ag357
a(lp1141
(lp1142
I443
ag574
aa(lp1143
I444
ag609
aaaa(lp1144
I446
aI450
ag366
a(lp1145
(lp1146
I446
ag781
aa(lp1147
I447
ag576
aa(lp1148
I448
ag696
aa(lp1149
I449
ag603
aa(lp1150
I450
ag589
aaaa(lp1151
I454
aI458
aS'about'
p1152
a(lp1153
(lp1154
I454
ag550
aa(lp1155
I455
ag875
aa(lp1156
I456
ag570
aa(lp1157
I457
ag609
aa(lp1158
I458
ag566
aaaa(lp1159
I460
aI463
ag375
a(lp1160
(lp1161
I460
aS'1'
p1162
aa(lp1163
I461
aS'5'
p1164
aa(lp1165
I462
aS'0'
p1166
aa(lp1167
I463
ag1166
aaaa(lp1168
I465
aI469
ag384
a(lp1169
(lp1170
I465
ag566
aa(lp1171
I466
ag589
aa(lp1172
I467
ag574
aa(lp1173
I468
ag576
aa(lp1174
I469
ag552
aaaa(lp1175
I471
aI473
aS'the'
p1176
a(lp1177
(lp1178
I471
ag566
aa(lp1179
I472
ag603
aa(lp1180
I473
ag576
aaaa(lp1181
I475
aI478
ag393
a(lp1182
(lp1183
I475
ag552
aa(lp1184
I476
ag589
aa(lp1185
I477
ag991
aa(lp1186
I478
ag576
aaaa(lp1187
I480
aI481
aS'of'
p1188
a(lp1189
(lp1190
I480
ag570
aa(lp1191
I481
ag582
aaaa(lp1192
I483
aI485
aS'our'
p1193
a(lp1194
(lp1195
I483
ag570
aa(lp1196
I484
ag609
aa(lp1197
I485
ag568
aaaa(lp1198
I487
aI489
ag402
a(lp1199
(lp1200
I487
ag552
aa(lp1201
I488
ag609
aa(lp1202
I489
ag560
aaaa(lp1203
I491
aI500
ag411
a(lp1204
(lp1205
I491
ag875
aa(lp1206
I492
ag576
aa(lp1207
I493
ag566
aa(lp1208
I494
ag576
aa(lp1209
I495
ag620
aa(lp1210
I496
ag624
aa(lp1211
I497
ag576
aa(lp1212
I498
ag609
aa(lp1213
I499
ag552
aa(lp1214
I500
ag576
aaaa(lp1215
I504
aI508
aS'about'
p1216
a(lp1217
(lp1218
I504
ag550
aa(lp1219
I505
ag875
aa(lp1220
I506
ag570
aa(lp1221
I507
ag609
aa(lp1222
I508
ag566
aaaa(lp1223
I510
aI512
ag420
a(lp1224
(lp1225
I510
aS'9'
p1226
aa(lp1227
I511
ag1166
aa(lp1228
I512
ag1166
aaaa(lp1229
I514
aI518
ag429
a(lp1230
(lp1231
I514
ag566
aa(lp1232
I515
ag589
aa(lp1233
I516
ag574
aa(lp1234
I517
ag576
aa(lp1235
I518
ag552
aaaa(lp1236
I520
aI522
aS'the'
p1237
a(lp1238
(lp1239
I520
ag566
aa(lp1240
I521
ag603
aa(lp1241
I522
ag576
aaaa(lp1242
I524
aI527
ag438
a(lp1243
(lp1244
I524
ag552
aa(lp1245
I525
ag589
aa(lp1246
I526
ag991
aa(lp1247
I527
ag576
aaaa(lp1248
I529
aI530
aS'of'
p1249
a(lp1250
(lp1251
I529
ag570
aa(lp1252
I530
ag582
aaaa(lp1253
I532
aI534
aS'our'
p1254
a(lp1255
(lp1256
I532
ag570
aa(lp1257
I533
ag609
aa(lp1258
I534
ag568
aaaa(lp1259
I536
aI538
ag447
a(lp1260
(lp1261
I536
ag552
aa(lp1262
I537
ag609
aa(lp1263
I538
ag560
aaaa(lp1264
I540
aI546
ag456
a(lp1265
(lp1266
I540
ag550
aa(lp1267
I541
ag560
aa(lp1268
I542
ag566
aa(lp1269
I543
ag550
aa(lp1270
I544
ag568
aa(lp1271
I545
ag576
aa(lp1272
I546
ag552
aaaa(lp1273
I550
aI554
aS'about'
p1274
a(lp1275
(lp1276
I550
ag550
aa(lp1277
I551
ag875
aa(lp1278
I552
ag570
aa(lp1279
I553
ag609
aa(lp1280
I554
ag566
aaaa(lp1281
I556
aI558
ag465
a(lp1282
(lp1283
I556
ag1164
aa(lp1284
I557
aS'3'
p1285
aa(lp1286
I558
ag1166
aaaa(lp1287
I560
aI564
ag474
a(lp1288
(lp1289
I560
ag566
aa(lp1290
I561
ag589
aa(lp1291
I562
ag574
aa(lp1292
I563
ag576
aa(lp1293
I564
ag552
aaaa(lp1294
I566
aI568
aS'the'
p1295
a(lp1296
(lp1297
I566
ag566
aa(lp1298
I567
ag603
aa(lp1299
I568
ag576
aaaa(lp1300
I570
aI573
ag483
a(lp1301
(lp1302
I570
ag552
aa(lp1303
I571
ag589
aa(lp1304
I572
ag991
aa(lp1305
I573
ag576
aaaa(lp1306
I575
aI576
aS'of'
p1307
a(lp1308
(lp1309
I575
ag570
aa(lp1310
I576
ag582
aaaa(lp1311
I578
aI580
aS'our'
p1312
a(lp1313
(lp1314
I578
ag570
aa(lp1315
I579
ag609
aa(lp1316
I580
ag568
aaaa(lp1317
I582
aI584
ag492
a(lp1318
(lp1319
I582
ag552
aa(lp1320
I583
ag609
aa(lp1321
I584
ag560
aaaa(lp1322
I586
aI590
ag501
a(lp1323
(lp1324
I586
ag591
aa(lp1325
I587
ag576
aa(lp1326
I588
ag560
aa(lp1327
I589
ag576
aa(lp1328
I590
ag875
aaaa(lp1329
I594
aI598
aS'about'
p1330
a(lp1331
(lp1332
I594
ag550
aa(lp1333
I595
ag875
aa(lp1334
I596
ag570
aa(lp1335
I597
ag609
aa(lp1336
I598
ag566
aaaa(lp1337
I600
aI602
ag510
a(lp1338
(lp1339
I600
ag1162
aa(lp1340
I601
aS'4'
p1341
aa(lp1342
I602
ag1164
aaaa(lp1343
I604
aI608
ag519
a(lp1344
(lp1345
I604
ag566
aa(lp1346
I605
ag589
aa(lp1347
I606
ag574
aa(lp1348
I607
ag576
aa(lp1349
I608
ag552
aaaa(lp1350
I610
aI612
aS'the'
p1351
a(lp1352
(lp1353
I610
ag566
aa(lp1354
I611
ag603
aa(lp1355
I612
ag576
aaaa(lp1356
I614
aI617
ag528
a(lp1357
(lp1358
I614
ag552
aa(lp1359
I615
ag589
aa(lp1360
I616
ag991
aa(lp1361
I617
ag576
aaaa(lp1362
I619
aI620
aS'of'
p1363
a(lp1364
(lp1365
I619
ag570
aa(lp1366
I620
ag582
aaaa(lp1367
I622
aI624
aS'our'
p1368
a(lp1369
(lp1370
I622
ag570
aa(lp1371
I623
ag609
aa(lp1372
I624
ag568
aaaa(lp1373
I622
aI624
ag537
a(lp1374
(lp1375
I626
ag552
aa(lp1376
I627
ag609
aa(lp1377
I628
ag560
aaaasS'cleanCharacterMap'
p1378
(lp1379
g549
ag551
ag553
a(lp1380
I3
aS' '
p1381
aag558
ag559
a(lp1382
I6
ag1381
aag563
ag564
ag565
ag567
ag569
ag571
ag572
ag573
ag575
ag577
a(lp1383
I17
ag1381
aag581
ag583
ag584
a(lp1384
I21
ag1381
aag587
ag588
ag590
ag592
a(lp1385
I27
ag1381
aa(lp1386
I29
ag1381
aag596
ag597
a(lp1387
I32
ag1381
aag601
ag602
ag604
a(lp1388
I36
ag1381
aag607
ag608
ag610
a(lp1389
I40
ag1381
aag614
ag615
ag616
a(lp1390
I44
ag1381
aag619
ag621
ag622
ag623
ag625
ag626
ag627
a(lp1391
I52
ag1381
aag630
ag631
ag632
ag633
a(lp1392
I58
ag1381
aag637
ag638
a(lp1393
I61
ag1381
aag642
ag643
ag644
a(lp1394
I65
ag1381
aag647
ag648
ag649
a(lp1395
I69
ag1381
aag653
ag654
ag655
a(lp1396
I73
ag1381
aag658
ag659
ag660
ag661
ag662
ag663
ag664
a(lp1397
I81
ag1381
aag667
ag668
ag669
ag670
a(lp1398
I87
ag1381
aag673
ag674
ag675
ag676
ag677
ag678
ag679
ag680
a(lp1399
I96
ag1381
aag684
ag685
ag686
a(lp1400
I100
ag1381
aag689
ag690
ag691
a(lp1401
I104
ag1381
aag694
ag695
ag697
ag698
ag699
ag700
a(lp1402
I111
ag1381
aag703
ag704
ag705
ag706
ag707
ag708
a(lp1403
I118
ag1381
aag712
ag713
a(lp1404
I121
ag1381
aag716
ag717
a(lp1405
I124
ag1381
aag721
ag722
ag723
ag724
a(lp1406
I129
ag1381
aag728
ag729
ag730
a(lp1407
I133
ag1381
aag735
ag736
ag737
ag738
ag739
a(lp1408
I139
ag1381
aag742
ag743
ag744
ag745
a(lp1409
I145
ag1381
aag749
ag750
ag751
ag752
ag753
a(lp1410
I151
ag1381
aag757
ag758
ag759
a(lp1411
I155
ag1381
aag762
ag763
ag764
ag765
a(lp1412
I160
ag1381
aag768
ag769
ag770
ag771
ag772
a(lp1413
I166
ag1381
aag776
ag778
ag779
ag780
ag782
a(lp1414
I172
ag1381
aag786
ag787
ag788
a(lp1415
I176
ag1381
aag791
ag792
ag793
ag794
a(lp1416
I181
ag1381
aag797
ag798
ag799
ag800
ag801
ag802
a(lp1417
I189
ag1381
aag806
ag807
ag808
a(lp1418
I193
ag1381
aag811
ag812
ag813
a(lp1419
I197
ag1381
aag816
ag817
ag818
ag819
ag820
ag821
ag822
a(lp1420
I205
ag1381
aag826
ag827
a(lp1421
I208
ag1381
aag830
ag831
ag832
ag833
ag834
a(lp1422
I214
ag1381
aag837
ag838
ag839
ag840
ag841
ag842
ag843
ag844
a(lp1423
I223
ag1381
aag848
ag849
a(lp1424
I226
ag1381
aag853
ag854
ag855
a(lp1425
I230
ag1381
aag859
ag860
ag861
ag862
ag863
a(lp1426
I236
ag1381
aag866
ag867
ag868
ag869
ag870
a(lp1427
I242
ag1381
aag874
ag876
ag877
ag878
ag879
ag880
ag881
a(lp1428
I250
ag1381
aag885
ag886
a(lp1429
I253
ag1381
aag890
ag891
a(lp1430
I256
ag1381
aag895
ag896
a(lp1431
I259
ag1381
aag899
ag900
ag901
ag902
a(lp1432
I264
ag1381
aag905
ag906
ag907
ag908
ag909
ag910
a(lp1433
I271
ag1381
aag914
ag915
a(lp1434
I274
ag1381
aag918
ag919
a(lp1435
I277
ag1381
aag923
ag924
ag925
ag926
a(lp1436
I282
ag1381
aag930
ag931
ag932
a(lp1437
I286
ag1381
aag936
ag937
ag938
ag939
ag940
a(lp1438
I292
ag1381
aag943
ag944
ag945
ag946
a(lp1439
I298
ag1381
aag950
ag951
ag952
a(lp1440
I302
ag1381
aag955
ag956
ag957
a(lp1441
I306
ag1381
aag961
ag962
a(lp1442
I309
ag1381
aag966
ag968
ag969
ag970
a(lp1443
I314
ag1381
aag974
ag975
a(lp1444
I317
ag1381
aag978
ag979
ag981
ag982
ag983
ag984
ag985
a(lp1445
I325
ag1381
aag988
ag989
ag990
ag992
ag993
a(lp1446
I331
ag1381
aag996
ag997
ag998
ag999
a(lp1447
I337
ag1381
aag1003
ag1004
ag1005
a(lp1448
I341
ag1381
aag1008
ag1009
ag1011
ag1012
ag1013
ag1014
ag1015
a(lp1449
I350
ag1381
aag1019
ag1020
ag1021
ag1022
ag1023
a(lp1450
I356
ag1381
aag1027
ag1028
a(lp1451
I359
ag1381
aag1031
a(lp1452
I361
ag1381
aag1034
ag1035
ag1036
ag1037
a(lp1453
I366
ag1381
aag1041
ag1042
a(lp1454
I369
ag1381
aag1046
ag1047
ag1048
ag1049
a(lp1455
I374
ag1381
aag1053
ag1054
a(lp1456
I377
ag1381
aag1058
ag1059
ag1060
a(lp1457
I381
ag1381
aag1063
ag1064
ag1065
ag1066
ag1067
ag1068
ag1069
a(lp1458
I389
ag1381
aag1072
ag1073
ag1074
ag1075
ag1076
a(lp1459
I395
ag1381
aag1080
ag1081
a(lp1460
I398
ag1381
aag1085
ag1086
ag1087
a(lp1461
I402
ag1381
aag1090
ag1091
ag1092
ag1093
ag1094
ag1095
a(lp1462
I409
ag1381
aag1099
ag1100
ag1101
a(lp1463
I413
ag1381
aag1105
ag1106
ag1107
a(lp1464
I417
ag1381
aag1111
ag1112
ag1113
ag1114
a(lp1465
I422
ag1381
aag1117
ag1118
ag1119
ag1120
ag1121
ag1122
ag1123
a(lp1466
I430
ag1381
aag1127
ag1128
a(lp1467
I433
ag1381
aag1132
ag1133
ag1134
a(lp1468
I437
ag1381
aag1137
ag1138
ag1139
a(lp1469
I442
ag1381
aag1142
ag1143
a(lp1470
I445
ag1381
aag1146
ag1147
ag1148
ag1149
ag1150
a(lp1471
I451
ag1381
aa(lp1472
I453
ag1381
aag1154
ag1155
ag1156
ag1157
ag1158
a(lp1473
I459
ag1381
aag1161
ag1163
ag1165
ag1167
a(lp1474
I464
ag1381
aag1170
ag1171
ag1172
ag1173
ag1174
a(lp1475
I470
ag1381
aag1178
ag1179
ag1180
a(lp1476
I474
ag1381
aag1183
ag1184
ag1185
ag1186
a(lp1477
I479
ag1381
aag1190
ag1191
a(lp1478
I482
ag1381
aag1195
ag1196
ag1197
a(lp1479
I486
ag1381
aag1200
ag1201
ag1202
a(lp1480
I490
ag1381
aag1205
ag1206
ag1207
ag1208
ag1209
ag1210
ag1211
ag1212
ag1213
ag1214
a(lp1481
I501
ag1381
aa(lp1482
I503
ag1381
aag1218
ag1219
ag1220
ag1221
ag1222
a(lp1483
I509
ag1381
aag1225
ag1227
ag1228
a(lp1484
I513
ag1381
aag1231
ag1232
ag1233
ag1234
ag1235
a(lp1485
I519
ag1381
aag1239
ag1240
ag1241
a(lp1486
I523
ag1381
aag1244
ag1245
ag1246
ag1247
a(lp1487
I528
ag1381
aag1251
ag1252
a(lp1488
I531
ag1381
aag1256
ag1257
ag1258
a(lp1489
I535
ag1381
aag1261
ag1262
ag1263
a(lp1490
I539
ag1381
aag1266
ag1267
ag1268
ag1269
ag1270
ag1271
ag1272
a(lp1491
I547
ag1381
aa(lp1492
I549
ag1381
aag1276
ag1277
ag1278
ag1279
ag1280
a(lp1493
I555
ag1381
aag1283
ag1284
ag1286
a(lp1494
I559
ag1381
aag1289
ag1290
ag1291
ag1292
ag1293
a(lp1495
I565
ag1381
aag1297
ag1298
ag1299
a(lp1496
I569
ag1381
aag1302
ag1303
ag1304
ag1305
a(lp1497
I574
ag1381
aag1309
ag1310
a(lp1498
I577
ag1381
aag1314
ag1315
ag1316
a(lp1499
I581
ag1381
aag1319
ag1320
ag1321
a(lp1500
I585
ag1381
aag1324
ag1325
ag1326
ag1327
ag1328
a(lp1501
I591
ag1381
aa(lp1502
I593
ag1381
aag1332
ag1333
ag1334
ag1335
ag1336
a(lp1503
I599
ag1381
aag1339
ag1340
ag1342
a(lp1504
I603
ag1381
aag1345
ag1346
ag1347
ag1348
ag1349
a(lp1505
I609
ag1381
aag1353
ag1354
ag1355
a(lp1506
I613
ag1381
aag1358
ag1359
ag1360
ag1361
a(lp1507
I618
ag1381
aag1365
ag1366
a(lp1508
I621
ag1381
aag1370
ag1371
ag1372
a(lp1509
I625
ag1381
aag1375
ag1376
ag1377
asS'text'
p1510
S'ask an astronomer for kids! - is the sun the largest star? is the sun the largest star? although the sun appear larger to us than any other star, there are many stars which are much larger. the sun appears so large compared to the other stars because it is so much closer to us than any other star. the sun is just an average sized star. for example, below is a list of some of the largest stars in our galaxy and how they compare to our sun: mu cephi - about 1500 times the size of our sun betelgeuse - about 900 times the size of our sun antares - about 530 times the size of our sun deneb - about 145 times the size of our sun'
p1511
sS'cleanWordMap'
p1512
(lp1513
g547
ag561
ag585
ag605
ag617
ag628
ag645
ag656
ag665
ag671
ag687
ag692
ag701
ag714
ag740
ag760
ag766
ag789
ag795
ag809
ag814
ag828
ag835
ag864
ag897
ag903
ag916
ag941
ag953
ag976
ag986
ag994
ag1006
ag1032
ag1061
ag1070
ag1088
ag1115
ag1135
ag1140
ag1144
ag1159
ag1168
ag1181
ag1198
ag1203
ag1223
ag1229
ag1242
ag1259
ag1264
ag1281
ag1287
ag1300
ag1317
ag1322
ag1337
ag1343
ag1356
ag1373
asS'lines'
p1514
(lp1515
VAsk an Astronomer for KIDS! - Is the sun the largest star?\u000a
p1516
aVIs the sun the largest star?\u000a
p1517
aVAlthough the sun appear larger to us than any other star, there are many stars which are much larger. The sun appears so large compared to the other stars because it is so much closer to us than any other star. The sun is just an average sized star. For example, below is a list of some of the largest stars in our galaxy and how they compare to our sun:\u000a
p1518
aVMu Cephi - about 1500 times the size of our sun Betelgeuse - about 900 times the size of our sun Antares - about 530 times the size of our sun Deneb - about 145 times the size of our sun
p1519
asS'docType'
p1520
S'src'
p1521
sS'newfmap'
p1522
(lp1523
g4
ag8
ag10
ag12
ag14
ag17
ag19
ag21
ag23
ag26
ag28
ag30
ag32
ag35
ag37
ag39
ag41
ag44
ag46
ag48
ag50
ag53
ag55
ag57
ag59
ag62
ag64
ag66
ag68
ag71
ag73
ag75
ag77
ag80
ag82
ag84
ag86
ag89
ag91
ag93
ag95
ag98
ag100
ag102
ag104
ag107
ag109
ag111
ag113
ag116
ag118
ag120
ag122
ag125
ag127
ag129
ag131
ag134
ag136
ag138
ag140
ag143
ag145
ag147
ag149
ag152
ag154
ag156
ag158
ag161
ag163
ag165
ag167
ag170
ag172
ag174
ag176
ag179
ag181
ag183
ag185
ag188
ag190
ag192
ag194
ag197
ag199
ag201
ag203
ag206
ag208
ag210
ag212
ag215
ag217
ag219
ag221
ag224
ag226
ag228
ag230
ag233
ag235
ag237
ag239
ag242
ag244
ag246
ag248
ag251
ag253
ag255
ag257
ag260
ag262
ag264
ag266
ag269
ag271
ag273
ag275
ag278
ag280
ag282
ag284
ag287
ag289
ag291
ag293
ag296
ag298
ag300
ag302
ag305
ag307
ag309
ag311
ag314
ag316
ag318
ag320
ag323
ag325
ag327
ag329
ag332
ag334
ag336
ag338
ag341
ag343
ag345
ag347
ag350
ag352
ag354
ag356
ag359
ag361
ag363
ag365
ag368
ag370
ag372
ag374
ag377
ag379
ag381
ag383
ag386
ag388
ag390
ag392
ag395
ag397
ag399
ag401
ag404
ag406
ag408
ag410
ag413
ag415
ag417
ag419
ag422
ag424
ag426
ag428
ag431
ag433
ag435
ag437
ag440
ag442
ag444
ag446
ag449
ag451
ag453
ag455
ag458
ag460
ag462
ag464
ag467
ag469
ag471
ag473
ag476
ag478
ag480
ag482
ag485
ag487
ag489
ag491
ag494
ag496
ag498
ag500
ag503
ag505
ag507
ag509
ag512
ag514
ag516
ag518
ag521
ag523
ag525
ag527
ag530
ag532
ag534
ag536
ag539
ag541
ag543
asS'featureMap'
p1524
(lp1525
(lp1526
I0
aI2
ag5
ag6
ag9
ag11
ag13
aa(lp1527
I7
aI16
ag15
ag16
ag18
ag20
ag22
aa(lp1528
I22
aI25
ag24
ag25
ag27
ag29
ag31
aa(lp1529
I37
aI39
ag33
ag34
ag36
ag38
ag40
aa(lp1530
I45
aI51
ag42
ag43
ag45
ag47
ag49
aa(lp1531
I53
aI56
ag51
ag52
ag54
ag56
ag58
aa(lp1532
I66
aI68
ag60
ag61
ag63
ag65
ag67
aa(lp1533
I74
aI80
ag69
ag70
ag72
ag74
ag76
aa(lp1534
I82
aI85
ag78
ag79
ag81
ag83
ag85
aa(lp1535
I88
aI95
ag87
ag88
ag90
ag92
ag94
aa(lp1536
I101
aI103
ag96
ag97
ag99
ag101
ag103
aa(lp1537
I105
aI110
ag105
ag106
ag108
ag110
ag112
aa(lp1538
I112
aI117
ag114
ag115
ag117
ag119
ag121
aa(lp1539
I122
aI123
ag123
ag124
ag126
ag128
ag130
aa(lp1540
I140
aI143
ag132
ag133
ag135
ag137
ag139
aa(lp1541
I156
aI159
ag141
ag142
ag144
ag146
ag148
aa(lp1542
I161
aI165
ag150
ag151
ag153
ag155
ag157
aa(lp1543
I177
aI180
ag159
ag160
ag162
ag164
ag166
aa(lp1544
I182
aI187
ag168
ag169
ag171
ag173
ag175
aa(lp1545
I194
aI196
ag177
ag178
ag180
ag182
ag184
aa(lp1546
I198
aI204
ag186
ag187
ag189
ag191
ag193
aa(lp1547
I209
aI213
ag195
ag196
ag198
ag200
ag202
aa(lp1548
I215
aI222
ag204
ag205
ag207
ag209
ag211
aa(lp1549
I237
aI241
ag213
ag214
ag216
ag218
ag220
aa(lp1550
I260
aI263
ag222
ag223
ag225
ag227
ag229
aa(lp1551
I265
aI270
ag231
ag232
ag234
ag236
ag238
aa(lp1552
I275
aI276
ag240
ag241
ag243
ag245
ag247
aa(lp1553
I293
aI296
ag249
ag250
ag252
ag254
ag256
aa(lp1554
I303
aI305
ag258
ag259
ag261
ag263
ag265
aa(lp1555
I318
aI324
ag267
ag268
ag270
ag272
ag274
aa(lp1556
I326
aI330
ag276
ag277
ag279
ag281
ag283
aa(lp1557
I332
aI335
ag285
ag286
ag288
ag290
ag292
aa(lp1558
I342
aI348
ag294
ag295
ag297
ag299
ag301
aa(lp1559
I362
aI365
ag303
ag304
ag306
ag308
ag310
aa(lp1560
I382
aI388
ag312
ag313
ag315
ag317
ag319
aa(lp1561
I390
aI394
ag321
ag322
ag324
ag326
ag328
aa(lp1562
I403
aI408
ag330
ag331
ag333
ag335
ag337
aa(lp1563
I423
aI429
ag339
ag340
ag342
ag344
ag346
aa(lp1564
I438
aI440
ag348
ag349
ag351
ag353
ag355
aa(lp1565
I443
aI444
ag357
ag358
ag360
ag362
ag364
aa(lp1566
I446
aI450
ag366
ag367
ag369
ag371
ag373
aa(lp1567
I460
aI463
ag375
ag376
ag378
ag380
ag382
aa(lp1568
I465
aI469
ag384
ag385
ag387
ag389
ag391
aa(lp1569
I475
aI478
ag393
ag394
ag396
ag398
ag400
aa(lp1570
I487
aI489
ag402
ag403
ag405
ag407
ag409
aa(lp1571
I491
aI500
ag411
ag412
ag414
ag416
ag418
aa(lp1572
I510
aI512
ag420
ag421
ag423
ag425
ag427
aa(lp1573
I514
aI518
ag429
ag430
ag432
ag434
ag436
aa(lp1574
I524
aI527
ag438
ag439
ag441
ag443
ag445
aa(lp1575
I536
aI538
ag447
ag448
ag450
ag452
ag454
aa(lp1576
I540
aI546
ag456
ag457
ag459
ag461
ag463
aa(lp1577
I556
aI558
ag465
ag466
ag468
ag470
ag472
aa(lp1578
I560
aI564
ag474
ag475
ag477
ag479
ag481
aa(lp1579
I570
aI573
ag483
ag484
ag486
ag488
ag490
aa(lp1580
I582
aI584
ag492
ag493
ag495
ag497
ag499
aa(lp1581
I586
aI590
ag501
ag502
ag504
ag506
ag508
aa(lp1582
I600
aI602
ag510
ag511
ag513
ag515
ag517
aa(lp1583
I604
aI608
ag519
ag520
ag522
ag524
ag526
aa(lp1584
I614
aI617
ag528
ag529
ag531
ag533
ag535
aa(lp1585
I622
aI624
ag537
ag538
ag540
ag542
ag544
aasS'characterMap'
p1586
(lp1587
g549
ag551
ag553
ag1380
ag558
ag559
ag1382
ag563
ag564
ag565
ag567
ag569
ag571
ag572
ag573
ag575
ag577
ag1383
ag581
ag583
ag584
ag1384
ag587
ag588
ag590
ag592
a(lp1588
I26
aS'!'
p1589
aag1385
a(lp1590
I28
aS'-'
p1591
aag1386
ag596
ag597
ag1387
ag601
ag602
ag604
ag1388
ag607
ag608
ag610
ag1389
ag614
ag615
ag616
ag1390
ag619
ag621
ag622
ag623
ag625
ag626
ag627
ag1391
ag630
ag631
ag632
ag633
a(lp1592
I57
aS'?'
p1593
aag1392
ag637
ag638
ag1393
ag642
ag643
ag644
ag1394
ag647
ag648
ag649
ag1395
ag653
ag654
ag655
ag1396
ag658
ag659
ag660
ag661
ag662
ag663
ag664
ag1397
ag667
ag668
ag669
ag670
a(lp1594
I86
ag1593
aag1398
ag673
ag674
ag675
ag676
ag677
ag678
ag679
ag680
ag1399
ag684
ag685
ag686
ag1400
ag689
ag690
ag691
ag1401
ag694
ag695
ag697
ag698
ag699
ag700
ag1402
ag703
ag704
ag705
ag706
ag707
ag708
ag1403
ag712
ag713
ag1404
ag716
ag717
ag1405
ag721
ag722
ag723
ag724
ag1406
ag728
ag729
ag730
ag1407
ag735
ag736
ag737
ag738
ag739
ag1408
ag742
ag743
ag744
ag745
a(lp1595
I144
aS','
p1596
aag1409
ag749
ag750
ag751
ag752
ag753
ag1410
ag757
ag758
ag759
ag1411
ag762
ag763
ag764
ag765
ag1412
ag768
ag769
ag770
ag771
ag772
ag1413
ag776
ag778
ag779
ag780
ag782
ag1414
ag786
ag787
ag788
ag1415
ag791
ag792
ag793
ag794
ag1416
ag797
ag798
ag799
ag800
ag801
ag802
a(lp1597
I188
aS'.'
p1598
aag1417
ag806
ag807
ag808
ag1418
ag811
ag812
ag813
ag1419
ag816
ag817
ag818
ag819
ag820
ag821
ag822
ag1420
ag826
ag827
ag1421
ag830
ag831
ag832
ag833
ag834
ag1422
ag837
ag838
ag839
ag840
ag841
ag842
ag843
ag844
ag1423
ag848
ag849
ag1424
ag853
ag854
ag855
ag1425
ag859
ag860
ag861
ag862
ag863
ag1426
ag866
ag867
ag868
ag869
ag870
ag1427
ag874
ag876
ag877
ag878
ag879
ag880
ag881
ag1428
ag885
ag886
ag1429
ag890
ag891
ag1430
ag895
ag896
ag1431
ag899
ag900
ag901
ag902
ag1432
ag905
ag906
ag907
ag908
ag909
ag910
ag1433
ag914
ag915
ag1434
ag918
ag919
ag1435
ag923
ag924
ag925
ag926
ag1436
ag930
ag931
ag932
ag1437
ag936
ag937
ag938
ag939
ag940
ag1438
ag943
ag944
ag945
ag946
a(lp1599
I297
ag1598
aag1439
ag950
ag951
ag952
ag1440
ag955
ag956
ag957
ag1441
ag961
ag962
ag1442
ag966
ag968
ag969
ag970
ag1443
ag974
ag975
ag1444
ag978
ag979
ag981
ag982
ag983
ag984
ag985
ag1445
ag988
ag989
ag990
ag992
ag993
ag1446
ag996
ag997
ag998
ag999
a(lp1600
I336
ag1598
aag1447
ag1003
ag1004
ag1005
ag1448
ag1008
ag1009
ag1011
ag1012
ag1013
ag1014
ag1015
a(lp1601
I349
ag1596
aag1449
ag1019
ag1020
ag1021
ag1022
ag1023
ag1450
ag1027
ag1028
ag1451
ag1031
ag1452
ag1034
ag1035
ag1036
ag1037
ag1453
ag1041
ag1042
ag1454
ag1046
ag1047
ag1048
ag1049
ag1455
ag1053
ag1054
ag1456
ag1058
ag1059
ag1060
ag1457
ag1063
ag1064
ag1065
ag1066
ag1067
ag1068
ag1069
ag1458
ag1072
ag1073
ag1074
ag1075
ag1076
ag1459
ag1080
ag1081
ag1460
ag1085
ag1086
ag1087
ag1461
ag1090
ag1091
ag1092
ag1093
ag1094
ag1095
ag1462
ag1099
ag1100
ag1101
ag1463
ag1105
ag1106
ag1107
ag1464
ag1111
ag1112
ag1113
ag1114
ag1465
ag1117
ag1118
ag1119
ag1120
ag1121
ag1122
ag1123
ag1466
ag1127
ag1128
ag1467
ag1132
ag1133
ag1134
ag1468
ag1137
ag1138
ag1139
a(lp1602
I441
aS':'
p1603
aag1469
ag1142
ag1143
ag1470
ag1146
ag1147
ag1148
ag1149
ag1150
ag1471
a(lp1604
I452
ag1591
aag1472
ag1154
ag1155
ag1156
ag1157
ag1158
ag1473
ag1161
ag1163
ag1165
ag1167
ag1474
ag1170
ag1171
ag1172
ag1173
ag1174
ag1475
ag1178
ag1179
ag1180
ag1476
ag1183
ag1184
ag1185
ag1186
ag1477
ag1190
ag1191
ag1478
ag1195
ag1196
ag1197
ag1479
ag1200
ag1201
ag1202
ag1480
ag1205
ag1206
ag1207
ag1208
ag1209
ag1210
ag1211
ag1212
ag1213
ag1214
ag1481
a(lp1605
I502
ag1591
aag1482
ag1218
ag1219
ag1220
ag1221
ag1222
ag1483
ag1225
ag1227
ag1228
ag1484
ag1231
ag1232
ag1233
ag1234
ag1235
ag1485
ag1239
ag1240
ag1241
ag1486
ag1244
ag1245
ag1246
ag1247
ag1487
ag1251
ag1252
ag1488
ag1256
ag1257
ag1258
ag1489
ag1261
ag1262
ag1263
ag1490
ag1266
ag1267
ag1268
ag1269
ag1270
ag1271
ag1272
ag1491
a(lp1606
I548
ag1591
aag1492
ag1276
ag1277
ag1278
ag1279
ag1280
ag1493
ag1283
ag1284
ag1286
ag1494
ag1289
ag1290
ag1291
ag1292
ag1293
ag1495
ag1297
ag1298
ag1299
ag1496
ag1302
ag1303
ag1304
ag1305
ag1497
ag1309
ag1310
ag1498
ag1314
ag1315
ag1316
ag1499
ag1319
ag1320
ag1321
ag1500
ag1324
ag1325
ag1326
ag1327
ag1328
ag1501
a(lp1607
I592
ag1591
aag1502
ag1332
ag1333
ag1334
ag1335
ag1336
ag1503
ag1339
ag1340
ag1342
ag1504
ag1345
ag1346
ag1347
ag1348
ag1349
ag1505
ag1353
ag1354
ag1355
ag1506
ag1358
ag1359
ag1360
ag1361
ag1507
ag1365
ag1366
ag1508
ag1370
ag1371
ag1372
ag1509
ag1375
ag1376
ag1377
asS'docName'
p1608
S'source-document02375.txt'
p1609
sb.