(iModel.Document
Document
p0
(dp1
S'fmap'
p2
(lp3
sS'wordMap'
p4
(lp5
sS'cleanCharacterMap'
p6
(lp7
(lp8
I1
aS' '
p9
aa(lp10
I2
aS't'
p11
aa(lp12
I3
aS'a'
p13
aa(lp14
I4
aS'b'
p15
aa(lp16
I5
aS'l'
p17
aa(lp18
I6
aS'e'
p19
aa(lp20
I7
aS's'
p21
aa(lp22
I8
ag9
aa(lp23
I9
aS'f'
p24
aa(lp25
I10
aS'o'
p26
aa(lp27
I11
aS'r'
p28
aa(lp29
I12
ag9
aa(lp30
I13
aS'5'
p31
aa(lp32
I14
aS'3'
p33
aa(lp34
I15
aS'9'
p35
aa(lp36
I16
ag9
aa(lp37
I17
aS'i'
p38
aa(lp39
I18
aS'n'
p40
aa(lp41
I19
aS'd'
p42
aa(lp43
I20
ag38
aa(lp44
I21
aS'v'
p45
aa(lp46
I22
ag38
aa(lp47
I23
ag42
aa(lp48
I24
aS'u'
p49
aa(lp50
I25
ag13
aa(lp51
I26
ag17
aa(lp52
I27
ag9
aa(lp53
I28
ag11
aa(lp54
I29
ag28
aa(lp55
I30
ag38
aa(lp56
I31
ag15
aa(lp57
I32
ag19
aa(lp58
I33
ag21
aa(lp59
I34
ag9
aa(lp60
I35
ag24
aa(lp61
I36
ag28
aa(lp62
I37
ag26
aa(lp63
I38
aS'm'
p64
aa(lp65
I39
ag9
aa(lp66
I40
ag11
aa(lp67
I41
aS'h'
p68
aa(lp69
I42
ag19
aa(lp70
I43
ag9
aa(lp71
I44
ag13
aa(lp72
I45
ag38
aa(lp73
I46
ag13
aa(lp74
I47
ag40
aa(lp75
I48
ag9
aa(lp76
I49
ag21
aa(lp77
I50
ag49
aa(lp78
I51
ag64
aa(lp79
I52
ag64
aa(lp80
I53
ag13
aa(lp81
I54
ag28
aa(lp82
I55
aS'y'
p83
aa(lp84
I56
ag9
aa(lp85
I57
ag24
aa(lp86
I58
ag38
aa(lp87
I59
ag17
aa(lp88
I60
ag19
aa(lp89
I61
ag9
aa(lp90
I62
ag13
aa(lp91
I63
ag38
aa(lp92
I64
ag13
aa(lp93
I65
ag40
aa(lp94
I66
ag9
aa(lp95
I67
ag11
aa(lp96
I68
ag28
aa(lp97
I69
ag38
aa(lp98
I70
ag15
aa(lp99
I71
ag19
aa(lp100
I72
ag21
aa(lp101
I73
ag9
aa(lp102
I75
ag9
aa(lp103
I76
ag11
aa(lp104
I77
ag13
aa(lp105
I78
ag15
aa(lp106
I79
ag17
aa(lp107
I80
ag19
aa(lp108
I81
ag21
aa(lp109
I82
ag9
aa(lp110
I83
ag13
aa(lp111
I84
ag40
aa(lp112
I85
ag42
aa(lp113
I86
ag9
aa(lp114
I87
ag64
aa(lp115
I88
ag13
aa(lp116
I89
aS'p'
p117
aa(lp118
I90
ag21
aa(lp119
I91
ag9
aa(lp120
I92
ag24
aa(lp121
I93
ag26
aa(lp122
I94
ag28
aa(lp123
I95
ag9
aa(lp124
I96
ag33
aa(lp125
I97
ag35
aa(lp126
I98
ag9
aa(lp127
I99
ag11
aa(lp128
I100
ag28
aa(lp129
I101
ag38
aa(lp130
I102
ag15
aa(lp131
I103
ag13
aa(lp132
I104
ag17
aa(lp133
I105
ag9
aa(lp134
I106
aS'g'
p135
aa(lp136
I107
ag28
aa(lp137
I108
ag26
aa(lp138
I109
ag49
aa(lp139
I110
ag117
aa(lp140
I111
ag21
aa(lp141
I112
ag9
aa(lp142
I113
ag24
aa(lp143
I114
ag28
aa(lp144
I115
ag26
aa(lp145
I116
ag64
aa(lp146
I117
ag9
aa(lp147
I118
ag21
aa(lp148
I119
ag49
aa(lp149
I120
ag64
aa(lp150
I121
ag64
aa(lp151
I122
ag13
aa(lp152
I123
ag28
aa(lp153
I124
ag83
aa(lp154
I125
ag9
aa(lp155
I126
ag24
aa(lp156
I127
ag38
aa(lp157
I128
ag17
aa(lp158
I129
ag19
aa(lp159
I130
ag21
aa(lp160
I131
ag9
aa(lp161
I132
aS'2'
p162
aa(lp163
I133
ag9
aa(lp164
I134
ag13
aa(lp165
I135
ag40
aa(lp166
I136
ag42
aa(lp167
I137
ag9
aa(lp168
I138
aS'4'
p169
aa(lp170
I139
ag9
aa(lp171
I140
ag13
aa(lp172
I141
ag38
aa(lp173
I142
ag13
aa(lp174
I143
ag40
aa(lp175
I144
ag9
aa(lp176
I145
ag11
aa(lp177
I146
ag28
aa(lp178
I147
ag38
aa(lp179
I148
ag15
aa(lp180
I149
ag13
aa(lp181
I150
ag17
aa(lp182
I151
ag9
aa(lp183
I152
ag135
aa(lp184
I153
ag28
aa(lp185
I154
ag26
aa(lp186
I155
ag49
aa(lp187
I156
ag117
aa(lp188
I157
ag21
aa(lp189
I158
ag9
aa(lp190
I160
ag9
aa(lp191
I161
ag13
aa(lp192
I162
ag9
aa(lp193
I163
ag11
aa(lp194
I164
aS'w'
p195
aa(lp196
I165
ag26
aa(lp197
I167
ag45
aa(lp198
I168
ag26
aa(lp199
I169
ag17
aa(lp200
I170
ag49
aa(lp201
I171
ag64
aa(lp202
I172
ag19
aa(lp203
I173
ag9
aa(lp204
I174
ag28
aa(lp205
I175
ag19
aa(lp206
I176
ag117
aa(lp207
I177
ag26
aa(lp208
I178
ag28
aa(lp209
I179
ag11
aa(lp210
I180
ag9
aa(lp211
I181
ag195
aa(lp212
I182
ag38
aa(lp213
I183
ag11
aa(lp214
I184
ag68
aa(lp215
I185
ag9
aa(lp216
I186
ag42
aa(lp217
I187
ag13
aa(lp218
I188
ag11
aa(lp219
I189
ag13
aa(lp220
I190
ag9
aa(lp221
I191
ag24
aa(lp222
I192
ag26
aa(lp223
I193
ag28
aa(lp224
I194
ag9
aa(lp225
I195
ag11
aa(lp226
I196
ag68
aa(lp227
I197
ag19
aa(lp228
I198
ag9
aa(lp229
I199
ag49
aa(lp230
I200
ag40
aa(lp231
I201
ag38
aa(lp232
I202
ag11
aa(lp233
I203
ag19
aa(lp234
I204
ag42
aa(lp235
I205
ag9
aa(lp236
I206
ag21
aa(lp237
I207
ag11
aa(lp238
I208
ag13
aa(lp239
I209
ag11
aa(lp240
I210
ag19
aa(lp241
I211
ag21
aa(lp242
I213
ag9
aa(lp243
I214
ag28
aa(lp244
I215
ag19
aa(lp245
I216
ag135
aa(lp246
I217
ag38
aa(lp247
I218
ag26
aa(lp248
I219
ag40
aa(lp249
I220
ag21
aa(lp250
I222
ag9
aa(lp251
I223
ag42
aa(lp252
I224
ag38
aa(lp253
I225
ag45
aa(lp254
I226
ag38
aa(lp255
I227
ag21
aa(lp256
I228
ag38
aa(lp257
I229
ag26
aa(lp258
I230
ag40
aa(lp259
I231
ag21
aa(lp260
I233
ag9
aa(lp261
I234
ag21
aa(lp262
I235
ag11
aa(lp263
I236
ag13
aa(lp264
I237
ag11
aa(lp265
I238
ag19
aa(lp266
I239
ag21
aa(lp267
I241
ag9
aa(lp268
I242
ag13
aa(lp269
I243
ag40
aa(lp270
I244
ag42
aa(lp271
I245
ag9
aa(lp272
I246
ag21
aa(lp273
I247
ag19
aa(lp274
I248
ag17
aa(lp275
I249
ag19
aa(lp276
I250
aS'c'
p277
aa(lp278
I251
ag11
aa(lp279
I252
ag19
aa(lp280
I253
ag42
aa(lp281
I254
ag9
aa(lp282
I255
ag64
aa(lp283
I256
ag19
aa(lp284
I257
ag11
aa(lp285
I258
ag28
aa(lp286
I259
ag26
aa(lp287
I260
ag117
aa(lp288
I261
ag26
aa(lp289
I262
ag17
aa(lp290
I263
ag38
aa(lp291
I264
ag11
aa(lp292
I265
ag13
aa(lp293
I266
ag40
aa(lp294
I267
ag9
aa(lp295
I268
ag13
aa(lp296
I269
ag28
aa(lp297
I270
ag19
aa(lp298
I271
ag13
aa(lp299
I272
ag21
aa(lp300
I273
ag9
aa(lp301
I274
ag277
aa(lp302
I275
ag68
aa(lp303
I276
ag13
aa(lp304
I277
ag28
aa(lp305
I278
ag13
aa(lp306
I279
ag277
aa(lp307
I280
ag11
aa(lp308
I281
ag19
aa(lp309
I282
ag28
aa(lp310
I283
ag38
aa(lp311
I284
ag21
aa(lp312
I285
ag11
aa(lp313
I286
ag38
aa(lp314
I287
ag277
aa(lp315
I288
ag21
aa(lp316
I289
ag9
aa(lp317
I290
ag26
aa(lp318
I291
ag24
aa(lp319
I292
ag9
aa(lp320
I293
ag13
aa(lp321
I294
ag64
aa(lp322
I295
ag19
aa(lp323
I296
ag28
aa(lp324
I297
ag38
aa(lp325
I298
ag277
aa(lp326
I299
ag13
aa(lp327
I300
ag40
aa(lp328
I301
ag9
aa(lp329
I302
ag38
aa(lp330
I303
ag40
aa(lp331
I304
ag42
aa(lp332
I305
ag38
aa(lp333
I306
ag13
aa(lp334
I307
ag40
aa(lp335
I308
ag21
aa(lp336
I309
ag9
aa(lp337
I310
ag13
aa(lp338
I311
ag40
aa(lp339
I312
ag42
aa(lp340
I313
ag9
aa(lp341
I314
ag13
aa(lp342
I315
ag17
aa(lp343
I316
ag13
aa(lp344
I317
ag21
aa(lp345
I318
aS'k'
p346
aa(lp347
I319
ag13
aa(lp348
I320
ag9
aa(lp349
I321
ag40
aa(lp350
I322
ag13
aa(lp351
I323
ag11
aa(lp352
I324
ag38
aa(lp353
I325
ag45
aa(lp354
I326
ag19
aa(lp355
I327
ag21
aa(lp356
I328
ag9
aa(lp357
I329
ag15
aa(lp358
I330
ag83
aa(lp359
I331
ag9
aa(lp360
I332
ag11
aa(lp361
I333
ag28
aa(lp362
I334
ag38
aa(lp363
I335
ag15
aa(lp364
I336
ag19
aa(lp365
I337
ag9
aa(lp366
I338
ag13
aa(lp367
I339
ag40
aa(lp368
I340
ag42
aa(lp369
I341
ag9
aa(lp370
I342
ag17
aa(lp371
I343
ag13
aa(lp372
I344
ag40
aa(lp373
I345
ag135
aa(lp374
I346
ag49
aa(lp375
I347
ag13
aa(lp376
I348
ag135
aa(lp377
I349
ag19
aa(lp378
I351
ag9
aa(lp379
I352
ag162
aa(lp380
I353
aS'0'
p381
aa(lp382
I354
ag381
aa(lp383
I355
ag381
aa(lp384
I356
ag9
aa(lp385
I357
ag28
aa(lp386
I358
ag19
aa(lp387
I359
ag21
aa(lp388
I360
ag19
aa(lp389
I361
ag28
aa(lp390
I362
ag45
aa(lp391
I363
ag13
aa(lp392
I364
ag11
aa(lp393
I365
ag38
aa(lp394
I366
ag26
aa(lp395
I367
ag40
aa(lp396
I368
ag21
aa(lp397
I369
ag9
aa(lp398
I370
ag13
aa(lp399
I371
ag40
aa(lp400
I372
ag42
aa(lp401
I373
ag9
aa(lp402
I374
ag26
aa(lp403
I375
ag11
aa(lp404
I376
ag68
aa(lp405
I377
ag19
aa(lp406
I378
ag28
aa(lp407
I379
ag9
aa(lp408
I380
ag13
aa(lp409
I381
ag38
aa(lp410
I382
ag13
aa(lp411
I383
ag40
aa(lp412
I384
ag9
aa(lp413
I385
ag13
aa(lp414
I386
ag28
aa(lp415
I387
ag19
aa(lp416
I388
ag13
aa(lp417
I389
ag21
aa(lp418
I390
ag9
aa(lp419
I391
ag24
aa(lp420
I392
ag26
aa(lp421
I393
ag28
aa(lp422
I394
ag9
aa(lp423
I395
ag13
aa(lp424
I396
ag38
aa(lp425
I397
ag13
aa(lp426
I398
ag40
aa(lp427
I399
ag9
aa(lp428
I400
ag13
aa(lp429
I401
ag28
aa(lp430
I402
ag19
aa(lp431
I403
ag13
aa(lp432
I404
ag21
aa(lp433
I406
ag9
aa(lp434
I407
ag11
aa(lp435
I408
ag28
aa(lp436
I409
ag38
aa(lp437
I410
ag15
aa(lp438
I411
ag13
aa(lp439
I412
ag17
aa(lp440
I413
ag9
aa(lp441
I414
ag277
aa(lp442
I415
ag19
aa(lp443
I416
ag40
aa(lp444
I417
ag21
aa(lp445
I418
ag49
aa(lp446
I419
ag21
aa(lp447
I420
ag9
aa(lp448
I421
ag11
aa(lp449
I422
ag28
aa(lp450
I423
ag13
aa(lp451
I424
ag277
aa(lp452
I425
ag11
aa(lp453
I426
ag21
aa(lp454
I428
ag9
aa(lp455
I429
ag11
aa(lp456
I430
ag28
aa(lp457
I431
ag38
aa(lp458
I432
ag15
aa(lp459
I433
ag13
aa(lp460
I434
ag17
aa(lp461
I435
ag9
aa(lp462
I436
ag21
aa(lp463
I437
ag49
aa(lp464
I438
ag15
aa(lp465
I439
ag42
aa(lp466
I440
ag38
aa(lp467
I441
ag45
aa(lp468
I442
ag38
aa(lp469
I443
ag21
aa(lp470
I444
ag38
aa(lp471
I445
ag26
aa(lp472
I446
ag40
aa(lp473
I447
ag21
aa(lp474
I448
ag9
aa(lp475
I449
ag13
aa(lp476
I450
ag40
aa(lp477
I451
ag42
aa(lp478
I452
ag9
aa(lp479
I453
ag64
aa(lp480
I454
ag26
aa(lp481
I455
ag28
aa(lp482
I456
ag19
aa(lp483
I458
ag9
aa(lp484
I459
ag24
aa(lp485
I460
ag28
aa(lp486
I461
ag26
aa(lp487
I462
ag64
aa(lp488
I463
ag9
aa(lp489
I464
ag21
aa(lp490
I465
ag49
aa(lp491
I466
ag64
aa(lp492
I467
ag64
aa(lp493
I468
ag13
aa(lp494
I469
ag28
aa(lp495
I470
ag83
aa(lp496
I471
ag9
aa(lp497
I472
ag24
aa(lp498
I473
ag38
aa(lp499
I474
ag17
aa(lp500
I475
ag19
aa(lp501
I476
ag21
aa(lp502
I477
ag9
aa(lp503
I478
aS'1'
p504
aa(lp505
I479
ag9
aa(lp506
I480
ag13
aa(lp507
I481
ag40
aa(lp508
I482
ag42
aa(lp509
I483
ag9
aa(lp510
I484
ag33
aa(lp511
I485
ag9
aa(lp512
I486
ag11
aa(lp513
I487
ag13
aa(lp514
I488
ag15
aa(lp515
I489
ag17
aa(lp516
I490
ag19
aa(lp517
I491
ag21
aa(lp518
I492
ag9
aa(lp519
I493
ag13
aa(lp520
I494
ag40
aa(lp521
I495
ag42
aa(lp522
I496
ag9
aa(lp523
I497
ag64
aa(lp524
I498
ag13
aa(lp525
I499
ag117
aa(lp526
I500
ag21
aa(lp527
I501
ag9
aa(lp528
I502
ag13
aa(lp529
I503
ag40
aa(lp530
I504
ag42
aa(lp531
I505
ag9
aa(lp532
I506
ag13
aa(lp533
I507
ag40
aa(lp534
I508
ag9
aa(lp535
I509
ag24
aa(lp536
I510
ag26
aa(lp537
I511
ag28
aa(lp538
I512
ag9
aa(lp539
I513
ag24
aa(lp540
I514
ag19
aa(lp541
I515
ag42
aa(lp542
I516
ag19
aa(lp543
I517
ag28
aa(lp544
I518
ag13
aa(lp545
I519
ag17
aa(lp546
I520
ag9
aa(lp547
I521
ag13
aa(lp548
I522
ag40
aa(lp549
I523
ag42
aa(lp550
I524
ag9
aa(lp551
I525
ag21
aa(lp552
I526
ag11
aa(lp553
I527
ag13
aa(lp554
I528
ag11
aa(lp555
I529
ag19
aa(lp556
I530
ag9
aa(lp557
I532
ag17
aa(lp558
I533
ag19
aa(lp559
I534
ag135
aa(lp560
I535
ag13
aa(lp561
I536
ag17
aa(lp562
I537
ag9
aa(lp563
I538
ag13
aa(lp564
I539
ag40
aa(lp565
I540
ag42
aa(lp566
I541
ag9
aa(lp567
I542
ag21
aa(lp568
I543
ag11
aa(lp569
I544
ag13
aa(lp570
I545
ag11
aa(lp571
I546
ag38
aa(lp572
I547
ag21
aa(lp573
I548
ag11
aa(lp574
I549
ag38
aa(lp575
I550
ag277
aa(lp576
I551
ag13
aa(lp577
I552
ag17
aa(lp578
I554
ag9
aa(lp579
I555
ag13
aa(lp580
I556
ag28
aa(lp581
I557
ag19
aa(lp582
I558
ag13
aa(lp583
I559
ag21
aa(lp584
I560
ag9
aa(lp585
I561
ag28
aa(lp586
I562
ag19
aa(lp587
I563
ag277
aa(lp588
I564
ag26
aa(lp589
I565
ag135
aa(lp590
I566
ag40
aa(lp591
I567
ag38
aa(lp592
I568
aS'z'
p593
aa(lp594
I569
ag19
aa(lp595
I570
ag42
aa(lp596
I571
ag9
aa(lp597
I572
ag24
aa(lp598
I573
ag26
aa(lp599
I574
ag28
aa(lp600
I575
ag9
aa(lp601
I576
ag277
aa(lp602
I577
ag19
aa(lp603
I578
ag40
aa(lp604
I579
ag21
aa(lp605
I580
ag49
aa(lp606
I581
ag21
aa(lp607
I582
ag9
aa(lp608
I583
ag162
aa(lp609
I584
ag381
aa(lp610
I585
ag381
aa(lp611
I586
ag381
aa(lp612
I588
ag9
aa(lp613
I589
ag17
aa(lp614
I590
ag38
aa(lp615
I591
ag21
aa(lp616
I592
ag11
aa(lp617
I593
ag9
aa(lp618
I594
ag26
aa(lp619
I595
ag24
aa(lp620
I596
ag9
aa(lp621
I597
ag40
aa(lp622
I598
ag13
aa(lp623
I599
ag64
aa(lp624
I600
ag19
aa(lp625
I601
ag21
aa(lp626
I602
ag9
aa(lp627
I603
ag13
aa(lp628
I604
ag40
aa(lp629
I605
ag42
aa(lp630
I606
ag9
aa(lp631
I607
ag277
aa(lp632
I608
ag26
aa(lp633
I609
ag42
aa(lp634
I610
ag19
aa(lp635
I611
ag21
aa(lp636
I612
ag9
aa(lp637
I614
ag64
aa(lp638
I615
ag38
aa(lp639
I616
ag277
aa(lp640
I617
ag28
aa(lp641
I618
ag26
aa(lp642
I619
ag21
aa(lp643
I620
ag26
aa(lp644
I621
ag24
aa(lp645
I622
ag11
aa(lp646
I623
ag9
aa(lp647
I624
ag19
aa(lp648
I625
aS'x'
p649
aa(lp650
I626
ag277
aa(lp651
I627
ag19
aa(lp652
I628
ag17
aa(lp653
I629
ag9
aa(lp654
I630
ag24
aa(lp655
I631
ag26
aa(lp656
I632
ag28
aa(lp657
I633
ag64
aa(lp658
I634
ag13
aa(lp659
I635
ag11
aa(lp660
I637
ag9
aa(lp661
I638
ag19
aa(lp662
I639
ag649
aa(lp663
I640
ag117
aa(lp664
I641
ag17
aa(lp665
I642
ag13
aa(lp666
I643
ag40
aa(lp667
I644
ag13
aa(lp668
I645
ag11
aa(lp669
I646
ag38
aa(lp670
I647
ag26
aa(lp671
I648
ag40
aa(lp672
I649
ag9
aa(lp673
I650
ag26
aa(lp674
I651
ag24
aa(lp675
I652
ag9
aa(lp676
I653
ag135
aa(lp677
I654
ag19
aa(lp678
I655
ag26
aa(lp679
I656
ag135
aa(lp680
I657
ag28
aa(lp681
I658
ag13
aa(lp682
I659
ag117
aa(lp683
I660
ag68
aa(lp684
I661
ag38
aa(lp685
I662
ag277
aa(lp686
I663
ag9
aa(lp687
I664
ag277
aa(lp688
I665
ag26
aa(lp689
I666
ag42
aa(lp690
I667
ag19
aa(lp691
I668
ag21
aa(lp692
I669
ag9
aa(lp693
I671
ag117
aa(lp694
I672
ag42
aa(lp695
I673
ag24
aa(lp696
I674
ag9
aa(lp697
I676
ag9
aa(lp698
I677
ag169
aa(lp699
I678
ag9
aa(lp700
I679
ag346
aa(lp701
I680
ag15
aa(lp702
I682
ag9
aa(lp703
I683
ag28
aa(lp704
I684
ag13
aa(lp705
I685
ag40
aa(lp706
I686
ag346
aa(lp707
I687
ag38
aa(lp708
I688
ag40
aa(lp709
I689
ag135
aa(lp710
I690
ag21
aa(lp711
I691
ag9
aa(lp712
I692
ag13
aa(lp713
I693
ag40
aa(lp714
I694
ag42
aa(lp715
I695
ag9
aa(lp716
I696
ag277
aa(lp717
I697
ag26
aa(lp718
I698
ag64
aa(lp719
I699
ag117
aa(lp720
I700
ag13
aa(lp721
I701
ag28
aa(lp722
I702
ag38
aa(lp723
I703
ag21
aa(lp724
I704
ag26
aa(lp725
I705
ag40
aa(lp726
I706
ag21
aasS'text'
p727
S'- tables for 539 individual tribes from the aian summary file aian tribes - tables and maps for 39 tribal groups from summary files 2 and 4 aian tribal groups - a two-volume report with data for the united states, regions, divisions, states, and selected metropolitan areas characteristics of american indians and alaska natives by tribe and language: 2000 reservations and other aian areas for aian areas, tribal census tracts, tribal subdivisions and more, from summary files 1 and 3 tables and maps and an for federal and state (legal and statistical) areas recognized for census 2000. list of names and codes (microsoft excel format) explanation of geographic codes (pdf - 4 kb) rankings and comparisons'
p728
sS'cleanWordMap'
p729
(lp730
sS'lines'
p731
(lp732
V- tables for 539 individual tribes from the AIAN Summary File AIAN Tribes\u000a
p733
aV- tables and maps for 39 tribal groups from Summary Files 2 and 4 AIAN Tribal Groups\u000a
p734
aV- a two-volume report with data for the United States, regions, divisions, states, and selected metropolitan areas Characteristics of American Indians and Alaska Natives by Tribe and Language: 2000\u000a
p735
aVReservations and other AIAN areas\u000a
p736
aVfor AIAN areas, tribal census tracts, tribal subdivisions and more, from Summary Files 1 and 3 Tables and maps\u000a
p737
aVand an for Federal and state (legal and statistical) areas recognized for Census 2000. List of names and codes (Microsoft Excel format) explanation of geographic codes (PDF - 4 KB)\u000a
p738
aVRankings and Comparisons
p739
asS'docType'
p740
S'src'
p741
sS'newfmap'
p742
(lp743
sS'featureMap'
p744
(lp745
sS'characterMap'
p746
(lp747
(lp748
I0
aS'-'
p749
aag8
ag10
ag12
ag14
ag16
ag18
ag20
ag22
ag23
ag25
ag27
ag29
ag30
ag32
ag34
ag36
ag37
ag39
ag41
ag43
ag44
ag46
ag47
ag48
ag50
ag51
ag52
ag53
ag54
ag55
ag56
ag57
ag58
ag59
ag60
ag61
ag62
ag63
ag65
ag66
ag67
ag69
ag70
ag71
ag72
ag73
ag74
ag75
ag76
ag77
ag78
ag79
ag80
ag81
ag82
ag84
ag85
ag86
ag87
ag88
ag89
ag90
ag91
ag92
ag93
ag94
ag95
ag96
ag97
ag98
ag99
ag100
ag101
a(lp750
I74
ag749
aag102
ag103
ag104
ag105
ag106
ag107
ag108
ag109
ag110
ag111
ag112
ag113
ag114
ag115
ag116
ag118
ag119
ag120
ag121
ag122
ag123
ag124
ag125
ag126
ag127
ag128
ag129
ag130
ag131
ag132
ag133
ag134
ag136
ag137
ag138
ag139
ag140
ag141
ag142
ag143
ag144
ag145
ag146
ag147
ag148
ag149
ag150
ag151
ag152
ag153
ag154
ag155
ag156
ag157
ag158
ag159
ag160
ag161
ag163
ag164
ag165
ag166
ag167
ag168
ag170
ag171
ag172
ag173
ag174
ag175
ag176
ag177
ag178
ag179
ag180
ag181
ag182
ag183
ag184
ag185
ag186
ag187
ag188
ag189
a(lp751
I159
ag749
aag190
ag191
ag192
ag193
ag194
ag196
a(lp752
I166
ag749
aag197
ag198
ag199
ag200
ag201
ag202
ag203
ag204
ag205
ag206
ag207
ag208
ag209
ag210
ag211
ag212
ag213
ag214
ag215
ag216
ag217
ag218
ag219
ag220
ag221
ag222
ag223
ag224
ag225
ag226
ag227
ag228
ag229
ag230
ag231
ag232
ag233
ag234
ag235
ag236
ag237
ag238
ag239
ag240
ag241
a(lp753
I212
aS','
p754
aag242
ag243
ag244
ag245
ag246
ag247
ag248
ag249
a(lp755
I221
ag754
aag250
ag251
ag252
ag253
ag254
ag255
ag256
ag257
ag258
ag259
a(lp756
I232
ag754
aag260
ag261
ag262
ag263
ag264
ag265
ag266
a(lp757
I240
ag754
aag267
ag268
ag269
ag270
ag271
ag272
ag273
ag274
ag275
ag276
ag278
ag279
ag280
ag281
ag282
ag283
ag284
ag285
ag286
ag287
ag288
ag289
ag290
ag291
ag292
ag293
ag294
ag295
ag296
ag297
ag298
ag299
ag300
ag301
ag302
ag303
ag304
ag305
ag306
ag307
ag308
ag309
ag310
ag311
ag312
ag313
ag314
ag315
ag316
ag317
ag318
ag319
ag320
ag321
ag322
ag323
ag324
ag325
ag326
ag327
ag328
ag329
ag330
ag331
ag332
ag333
ag334
ag335
ag336
ag337
ag338
ag339
ag340
ag341
ag342
ag343
ag344
ag345
ag347
ag348
ag349
ag350
ag351
ag352
ag353
ag354
ag355
ag356
ag357
ag358
ag359
ag360
ag361
ag362
ag363
ag364
ag365
ag366
ag367
ag368
ag369
ag370
ag371
ag372
ag373
ag374
ag375
ag376
ag377
a(lp758
I350
aS':'
p759
aag378
ag379
ag380
ag382
ag383
ag384
ag385
ag386
ag387
ag388
ag389
ag390
ag391
ag392
ag393
ag394
ag395
ag396
ag397
ag398
ag399
ag400
ag401
ag402
ag403
ag404
ag405
ag406
ag407
ag408
ag409
ag410
ag411
ag412
ag413
ag414
ag415
ag416
ag417
ag418
ag419
ag420
ag421
ag422
ag423
ag424
ag425
ag426
ag427
ag428
ag429
ag430
ag431
ag432
a(lp760
I405
ag754
aag433
ag434
ag435
ag436
ag437
ag438
ag439
ag440
ag441
ag442
ag443
ag444
ag445
ag446
ag447
ag448
ag449
ag450
ag451
ag452
ag453
a(lp761
I427
ag754
aag454
ag455
ag456
ag457
ag458
ag459
ag460
ag461
ag462
ag463
ag464
ag465
ag466
ag467
ag468
ag469
ag470
ag471
ag472
ag473
ag474
ag475
ag476
ag477
ag478
ag479
ag480
ag481
ag482
a(lp762
I457
ag754
aag483
ag484
ag485
ag486
ag487
ag488
ag489
ag490
ag491
ag492
ag493
ag494
ag495
ag496
ag497
ag498
ag499
ag500
ag501
ag502
ag503
ag505
ag506
ag507
ag508
ag509
ag510
ag511
ag512
ag513
ag514
ag515
ag516
ag517
ag518
ag519
ag520
ag521
ag522
ag523
ag524
ag525
ag526
ag527
ag528
ag529
ag530
ag531
ag532
ag533
ag534
ag535
ag536
ag537
ag538
ag539
ag540
ag541
ag542
ag543
ag544
ag545
ag546
ag547
ag548
ag549
ag550
ag551
ag552
ag553
ag554
ag555
ag556
a(lp763
I531
aS'('
p764
aag557
ag558
ag559
ag560
ag561
ag562
ag563
ag564
ag565
ag566
ag567
ag568
ag569
ag570
ag571
ag572
ag573
ag574
ag575
ag576
ag577
a(lp765
I553
aS')'
p766
aag578
ag579
ag580
ag581
ag582
ag583
ag584
ag585
ag586
ag587
ag588
ag589
ag590
ag591
ag592
ag594
ag595
ag596
ag597
ag598
ag599
ag600
ag601
ag602
ag603
ag604
ag605
ag606
ag607
ag608
ag609
ag610
ag611
a(lp767
I587
aS'.'
p768
aag612
ag613
ag614
ag615
ag616
ag617
ag618
ag619
ag620
ag621
ag622
ag623
ag624
ag625
ag626
ag627
ag628
ag629
ag630
ag631
ag632
ag633
ag634
ag635
ag636
a(lp769
I613
ag764
aag637
ag638
ag639
ag640
ag641
ag642
ag643
ag644
ag645
ag646
ag647
ag648
ag650
ag651
ag652
ag653
ag654
ag655
ag656
ag657
ag658
ag659
a(lp770
I636
ag766
aag660
ag661
ag662
ag663
ag664
ag665
ag666
ag667
ag668
ag669
ag670
ag671
ag672
ag673
ag674
ag675
ag676
ag677
ag678
ag679
ag680
ag681
ag682
ag683
ag684
ag685
ag686
ag687
ag688
ag689
ag690
ag691
ag692
a(lp771
I670
ag764
aag693
ag694
ag695
ag696
a(lp772
I675
ag749
aag697
ag698
ag699
ag700
ag701
a(lp773
I681
ag766
aag702
ag703
ag704
ag705
ag706
ag707
ag708
ag709
ag710
ag711
ag712
ag713
ag714
ag715
ag716
ag717
ag718
ag719
ag720
ag721
ag722
ag723
ag724
ag725
ag726
asS'docName'
p774
S'source-document00452.txt'
p775
sb.