(iModel.Document
Document
p0
(dp1
S'fmap'
p2
(lp3
(lp4
I4
aI13
aS'collection'
p5
a(lp6
S'*'
p7
ag5
aaa(lp8
I4
aI13
ag5
a(lp9
g7
ag5
aaa(lp10
I4
aI13
ag5
a(lp11
g7
ag5
aaa(lp12
I4
aI13
ag5
a(lp13
g7
ag5
aaa(lp14
I18
aI26
aS'favourite'
p15
a(lp16
g5
ag15
aaa(lp17
I18
aI26
ag15
a(lp18
g7
ag15
aaa(lp19
I18
aI26
ag15
a(lp20
g7
ag15
aaa(lp21
I18
aI26
ag15
a(lp22
g7
ag15
aaa(lp23
I28
aI34
aS'hotbodz'
p24
a(lp25
g15
ag24
aaa(lp26
I28
aI34
ag24
a(lp27
g5
ag24
aaa(lp28
I28
aI34
ag24
a(lp29
g7
ag24
aaa(lp30
I28
aI34
ag24
a(lp31
g7
ag24
aaa(lp32
I39
aI42
aS'well'
p33
a(lp34
g24
ag33
aaa(lp35
I39
aI42
ag33
a(lp36
g15
ag33
aaa(lp37
I39
aI42
ag33
a(lp38
g5
ag33
aaa(lp39
I39
aI42
ag33
a(lp40
g7
ag33
aaa(lp41
I47
aI51
aS'links'
p42
a(lp43
g33
ag42
aaa(lp44
I47
aI51
ag42
a(lp45
g24
ag42
aaa(lp46
I47
aI51
ag42
a(lp47
g15
ag42
aaa(lp48
I47
aI51
ag42
a(lp49
g5
ag42
aaa(lp50
I56
aI60
aS'enjoy'
p51
a(lp52
g42
ag51
aaa(lp53
I56
aI60
ag51
a(lp54
g33
ag51
aaa(lp55
I56
aI60
ag51
a(lp56
g24
ag51
aaa(lp57
I56
aI60
ag51
a(lp58
g15
ag51
aaa(lp59
I63
aI68
aS'monday'
p60
a(lp61
g51
ag60
aaa(lp62
I63
aI68
ag60
a(lp63
g42
ag60
aaa(lp64
I63
aI68
ag60
a(lp65
g33
ag60
aaa(lp66
I63
aI68
ag60
a(lp67
g24
ag60
aaa(lp68
I71
aI77
aS'january'
p69
a(lp70
g60
ag69
aaa(lp71
I71
aI77
ag69
a(lp72
g51
ag69
aaa(lp73
I71
aI77
ag69
a(lp74
g42
ag69
aaa(lp75
I71
aI77
ag69
a(lp76
g33
ag69
aaa(lp77
I79
aI80
aS'19'
p78
a(lp79
g69
ag78
aaa(lp80
I79
aI80
ag78
a(lp81
g60
ag78
aaa(lp82
I79
aI80
ag78
a(lp83
g51
ag78
aaa(lp84
I79
aI80
ag78
a(lp85
g42
ag78
aaa(lp86
I83
aI86
aS'2009'
p87
a(lp88
g78
ag87
aaa(lp89
I83
aI86
ag87
a(lp90
g69
ag87
aaa(lp91
I83
aI86
ag87
a(lp92
g60
ag87
aaa(lp93
I83
aI86
ag87
a(lp94
g51
ag87
aaa(lp95
I88
aI92
aS'blast'
p96
a(lp97
g87
ag96
aaa(lp98
I88
aI92
ag96
a(lp99
g78
ag96
aaa(lp100
I88
aI92
ag96
a(lp101
g69
ag96
aaa(lp102
I88
aI92
ag96
a(lp103
g60
ag96
aaa(lp104
I99
aI102
aS'2009'
p105
a(lp106
g96
ag105
aaa(lp107
I99
aI102
ag105
a(lp108
g87
ag105
aaa(lp109
I99
aI102
ag105
a(lp110
g78
ag105
aaa(lp111
I99
aI102
ag105
a(lp112
g69
ag105
aaa(lp113
I104
aI109
aS'heres'
p114
a(lp115
g105
ag114
aaa(lp116
I104
aI109
ag114
a(lp117
g96
ag114
aaa(lp118
I104
aI109
ag114
a(lp119
g87
ag114
aaa(lp120
I104
aI109
ag114
a(lp121
g78
ag114
aaa(lp122
I114
aI117
aS'2009'
p123
a(lp124
g114
ag123
aaa(lp125
I114
aI117
ag123
a(lp126
g105
ag123
aaa(lp127
I114
aI117
ag123
a(lp128
g96
ag123
aaa(lp129
I114
aI117
ag123
a(lp130
g87
ag123
aaa(lp131
I125
aI129
aS'blast'
p132
a(lp133
g123
ag132
aaa(lp134
I125
aI129
ag132
a(lp135
g114
ag132
aaa(lp136
I125
aI129
ag132
a(lp137
g105
ag132
aaa(lp138
I125
aI129
ag132
a(lp139
g96
ag132
aaa(lp140
I138
aI141
aS'2008'
p141
a(lp142
g132
ag141
aaa(lp143
I138
aI141
ag141
a(lp144
g123
ag141
aaa(lp145
I138
aI141
ag141
a(lp146
g114
ag141
aaa(lp147
I138
aI141
ag141
a(lp148
g105
ag141
aaa(lp149
I144
aI149
aS'thanks'
p150
a(lp151
g141
ag150
aaa(lp152
I144
aI149
ag150
a(lp153
g132
ag150
aaa(lp154
I144
aI149
ag150
a(lp155
g123
ag150
aaa(lp156
I144
aI149
ag150
a(lp157
g114
ag150
aaa(lp158
I165
aI171
aS'readers'
p159
a(lp160
g150
ag159
aaa(lp161
I165
aI171
ag159
a(lp162
g141
ag159
aaa(lp163
I165
aI171
ag159
a(lp164
g132
ag159
aaa(lp165
I165
aI171
ag159
a(lp166
g123
ag159
aaa(lp167
I177
aI182
aS'helped'
p168
a(lp169
g159
ag168
aaa(lp170
I177
aI182
ag168
a(lp171
g150
ag168
aaa(lp172
I177
aI182
ag168
a(lp173
g141
ag168
aaa(lp174
I177
aI182
ag168
a(lp175
g132
ag168
aaa(lp176
I184
aI185
aS'us'
p177
a(lp178
g168
ag177
aaa(lp179
I184
aI185
ag177
a(lp180
g159
ag177
aaa(lp181
I184
aI185
ag177
a(lp182
g150
ag177
aaa(lp183
I184
aI185
ag177
a(lp184
g141
ag177
aaa(lp185
I187
aI189
aS'top'
p186
a(lp187
g177
ag186
aaa(lp188
I187
aI189
ag186
a(lp189
g168
ag186
aaa(lp190
I187
aI189
ag186
a(lp191
g159
ag186
aaa(lp192
I187
aI189
ag186
a(lp193
g150
ag186
aaa(lp194
I195
aI197
aS'100'
p195
a(lp196
g186
ag195
aaa(lp197
I195
aI197
ag195
a(lp198
g177
ag195
aaa(lp199
I195
aI197
ag195
a(lp200
g168
ag195
aaa(lp201
I195
aI197
ag195
a(lp202
g159
ag195
aaa(lp203
I199
aI201
aS'000'
p204
a(lp205
g195
ag204
aaa(lp206
I199
aI201
ag204
a(lp207
g186
ag204
aaa(lp208
I199
aI201
ag204
a(lp209
g177
ag204
aaa(lp210
I199
aI201
ag204
a(lp211
g168
ag204
aaa(lp212
I203
aI206
aS'mark'
p213
a(lp214
g204
ag213
aaa(lp215
I203
aI206
ag213
a(lp216
g195
ag213
aaa(lp217
I203
aI206
ag213
a(lp218
g186
ag213
aaa(lp219
I203
aI206
ag213
a(lp220
g177
ag213
aaa(lp221
I213
aI216
aS'year'
p222
a(lp223
g213
ag222
aaa(lp224
I213
aI216
ag222
a(lp225
g204
ag222
aaa(lp226
I213
aI216
ag222
a(lp227
g195
ag222
aaa(lp228
I213
aI216
ag222
a(lp229
g186
ag222
aaa(lp230
I222
aI228
aS'promise'
p231
a(lp232
g222
ag231
aaa(lp233
I222
aI228
ag231
a(lp234
g213
ag231
aaa(lp235
I222
aI228
ag231
a(lp236
g204
ag231
aaa(lp237
I222
aI228
ag231
a(lp238
g195
ag231
aaa(lp239
I234
aI239
aS'plenty'
p240
a(lp241
g231
ag240
aaa(lp242
I234
aI239
ag240
a(lp243
g222
ag240
aaa(lp244
I234
aI239
ag240
a(lp245
g213
ag240
aaa(lp246
I234
aI239
ag240
a(lp247
g204
ag240
aaa(lp248
I246
aI248
aS'hot'
p249
a(lp250
g240
ag249
aaa(lp251
I246
aI248
ag249
a(lp252
g231
ag249
aaa(lp253
I246
aI248
ag249
a(lp254
g222
ag249
aaa(lp255
I246
aI248
ag249
a(lp256
g213
ag249
aaa(lp257
I250
aI253
aS'bodz'
p258
a(lp259
g249
ag258
aaa(lp260
I250
aI253
ag258
a(lp261
g240
ag258
aaa(lp262
I250
aI253
ag258
a(lp263
g231
ag258
aaa(lp264
I250
aI253
ag258
a(lp265
g222
ag258
aaa(lp266
I258
aI261
aS'2009'
p267
a(lp268
g258
ag267
aaa(lp269
I258
aI261
ag267
a(lp270
g249
ag267
aaa(lp271
I258
aI261
ag267
a(lp272
g240
ag267
aaa(lp273
I258
aI261
ag267
a(lp274
g231
ag267
aaa(lp275
I267
aI270
aS'stay'
p276
a(lp277
g267
ag276
aaa(lp278
I267
aI270
ag276
a(lp279
g258
ag276
aaa(lp280
I267
aI270
ag276
a(lp281
g249
ag276
aaa(lp282
I267
aI270
ag276
a(lp283
g240
ag276
aaa(lp284
I277
aI278
aS'us'
p285
a(lp286
g276
ag285
aaa(lp287
I277
aI278
ag285
a(lp288
g267
ag285
aaa(lp289
I277
aI278
ag285
a(lp290
g258
ag285
aaa(lp291
I277
aI278
ag285
a(lp292
g249
ag285
aaa(lp293
I281
aI290
aS'everything'
p294
a(lp295
g285
ag294
aaa(lp296
I281
aI290
ag294
a(lp297
g276
ag294
aaa(lp298
I281
aI290
ag294
a(lp299
g267
ag294
aaa(lp300
I281
aI290
ag294
a(lp301
g258
ag294
aaa(lp302
I299
aI302
aS'best'
p303
a(lp304
g294
ag303
aaa(lp305
I299
aI302
ag303
a(lp306
g285
ag303
aaa(lp307
I299
aI302
ag303
a(lp308
g276
ag303
aaa(lp309
I299
aI302
ag303
a(lp310
g267
ag303
aaa(lp311
I311
aI317
aS'awesome'
p312
a(lp313
g303
ag312
aaa(lp314
I311
aI317
ag312
a(lp315
g294
ag312
aaa(lp316
I311
aI317
ag312
a(lp317
g285
ag312
aaa(lp318
I311
aI317
ag312
a(lp319
g276
ag312
aaa(lp320
I319
aI322
aS'2009'
p321
a(lp322
g312
ag321
aaa(lp323
I319
aI322
ag321
a(lp324
g303
ag321
aaa(lp325
I319
aI322
ag321
a(lp326
g294
ag321
aaa(lp327
I319
aI322
ag321
a(lp328
g285
ag321
aaa(lp329
I326
aI329
aS'dave'
p330
a(lp331
g321
ag330
aaa(lp332
I326
aI329
ag330
a(lp333
g312
ag330
aaa(lp334
I326
aI329
ag330
a(lp335
g303
ag330
aaa(lp336
I326
aI329
ag330
a(lp337
g294
ag330
aaa(lp338
I331
aI338
aS'treasure'
p339
a(lp340
g330
ag339
aaa(lp341
I331
aI338
ag339
a(lp342
g321
ag339
aaa(lp343
I331
aI338
ag339
a(lp344
g312
ag339
aaa(lp345
I331
aI338
ag339
a(lp346
g303
ag339
aaa(lp347
I340
aI344
aS'trail'
p348
a(lp349
g339
ag348
aaa(lp350
I340
aI344
ag348
a(lp351
g330
ag348
aaa(lp352
I340
aI344
ag348
a(lp353
g321
ag348
aaa(lp354
I340
aI344
ag348
a(lp355
g312
ag348
aaa(lp356
I351
aI355
aS'yummy'
p357
a(lp358
g348
ag357
aaa(lp359
I351
aI355
ag357
a(lp360
g339
ag357
aaa(lp361
I351
aI355
ag357
a(lp362
g330
ag357
aaa(lp363
I351
aI355
ag357
a(lp364
g321
ag357
aaa(lp365
I357
aI364
aS'treasure'
p366
a(lp367
g357
ag366
aaa(lp368
I357
aI364
ag366
a(lp369
g348
ag366
aaa(lp370
I357
aI364
ag366
a(lp371
g339
ag366
aaa(lp372
I357
aI364
ag366
a(lp373
g330
ag366
aaa(lp374
I366
aI370
aS'trail'
p375
a(lp376
g366
ag375
aaa(lp377
I366
aI370
ag375
a(lp378
g357
ag375
aaa(lp379
I366
aI370
ag375
a(lp380
g348
ag375
aaa(lp381
I366
aI370
ag375
a(lp382
g339
ag375
aaa(lp383
I374
aI378
aS'found'
p384
a(lp385
g375
ag384
aaa(lp386
I374
aI378
ag384
a(lp387
g366
ag384
aaa(lp388
I374
aI378
ag384
a(lp389
g357
ag384
aaa(lp390
I374
aI378
ag384
a(lp391
g348
ag384
aaa(lp392
I385
aI388
aS'blog'
p393
a(lp394
g384
ag393
aaa(lp395
I385
aI388
ag393
a(lp396
g375
ag393
aaa(lp397
I385
aI388
ag393
a(lp398
g366
ag393
aaa(lp399
I385
aI388
ag393
a(lp400
g357
ag393
aaa(lp401
I398
aI403
aS'linked'
p402
a(lp403
g393
ag402
aaa(lp404
I398
aI403
ag402
a(lp405
g384
ag402
aaa(lp406
I398
aI403
ag402
a(lp407
g375
ag402
aaa(lp408
I398
aI403
ag402
a(lp409
g366
ag402
aaa(lp410
I413
aI415
aS'boy'
p411
a(lp412
g402
ag411
aaa(lp413
I413
aI415
ag411
a(lp414
g393
ag411
aaa(lp415
I413
aI415
ag411
a(lp416
g384
ag411
aaa(lp417
I413
aI415
ag411
a(lp418
g375
ag411
aaa(lp419
I417
aI419
aS'box'
p420
a(lp421
g411
ag420
aaa(lp422
I417
aI419
ag420
a(lp423
g402
ag420
aaa(lp424
I417
aI419
ag420
a(lp425
g393
ag420
aaa(lp426
I417
aI419
ag420
a(lp427
g384
ag420
aaa(lp428
I423
aI425
aS'see'
p429
a(lp430
g420
ag429
aaa(lp431
I423
aI425
ag429
a(lp432
g411
ag429
aaa(lp433
I423
aI425
ag429
a(lp434
g402
ag429
aaa(lp435
I423
aI425
ag429
a(lp436
g393
ag429
aaa(lp437
I431
aI435
aS'links'
p438
a(lp439
g429
ag438
aaa(lp440
I431
aI435
ag438
a(lp441
g420
ag438
aaa(lp442
I431
aI435
ag438
a(lp443
g411
ag438
aaa(lp444
I431
aI435
ag438
a(lp445
g402
ag438
aaa(lp446
I446
aI448
aS'hot'
p447
a(lp448
g438
ag447
aaa(lp449
I446
aI448
ag447
a(lp450
g429
ag447
aaa(lp451
I446
aI448
ag447
a(lp452
g420
ag447
aaa(lp453
I446
aI448
ag447
a(lp454
g411
ag447
aaa(lp455
I450
aI454
aS'sites'
p456
a(lp457
g447
ag456
aaa(lp458
I450
aI454
ag456
a(lp459
g438
ag456
aaa(lp460
I450
aI454
ag456
a(lp461
g429
ag456
aaa(lp462
I450
aI454
ag456
a(lp463
g420
ag456
aaa(lp464
I459
aI463
aS'enjoy'
p465
a(lp466
g456
ag465
aaa(lp467
I459
aI463
ag465
a(lp468
g447
ag465
aaa(lp469
I459
aI463
ag465
a(lp470
g438
ag465
aaa(lp471
I459
aI463
ag465
a(lp472
g429
ag465
aaa(lp473
I472
aI480
aS'sideblog'
p474
a(lp475
g465
ag474
aaa(lp476
I472
aI480
ag474
a(lp477
g456
ag474
aaa(lp478
I472
aI480
ag474
a(lp479
g447
ag474
aaa(lp480
I472
aI480
ag474
a(lp481
g438
ag474
aaa(lp482
I489
aI493
aS'right'
p483
a(lp484
g474
ag483
aaa(lp485
I489
aI493
ag483
a(lp486
g465
ag483
aaa(lp487
I489
aI493
ag483
a(lp488
g456
ag483
aaa(lp489
I489
aI493
ag483
a(lp490
g447
ag483
aaa(lp491
I496
aI502
aS'another'
p492
a(lp493
g483
ag492
aaa(lp494
I496
aI502
ag492
a(lp495
g474
ag492
aaa(lp496
I496
aI502
ag492
a(lp497
g465
ag492
aaa(lp498
I496
aI502
ag492
a(lp499
g456
ag492
aaa(lp500
I504
aI506
aS'new'
p501
a(lp502
g492
ag501
aaa(lp503
I504
aI506
ag501
a(lp504
g483
ag501
aaa(lp505
I504
aI506
ag501
a(lp506
g474
ag501
aaa(lp507
I504
aI506
ag501
a(lp508
g465
ag501
aaa(lp509
I508
aI511
aS'link'
p510
a(lp511
g501
ag510
aaa(lp512
I508
aI511
ag510
a(lp513
g492
ag510
aaa(lp514
I508
aI511
ag510
a(lp515
g483
ag510
aaa(lp516
I508
aI511
ag510
a(lp517
g474
ag510
aaa(lp518
I519
aI521
aS'bad'
p519
a(lp520
g510
ag519
aaa(lp521
I519
aI521
ag519
a(lp522
g501
ag519
aaa(lp523
I519
aI521
ag519
a(lp524
g492
ag519
aaa(lp525
I519
aI521
ag519
a(lp526
g483
ag519
aaa(lp527
I523
aI527
aS'puppy'
p528
a(lp529
g519
ag528
aaa(lp530
I523
aI527
ag528
a(lp531
g510
ag528
aaa(lp532
I523
aI527
ag528
a(lp533
g501
ag528
aaa(lp534
I523
aI527
ag528
a(lp535
g492
ag528
aaa(lp536
I540
aI548
aS'selection'
p537
a(lp538
g528
ag537
aaa(lp539
I540
aI548
ag537
a(lp540
g519
ag537
aaa(lp541
I540
aI548
ag537
a(lp542
g510
ag537
aaa(lp543
I540
aI548
ag537
a(lp544
g501
ag537
aaa(lp545
I553
aI558
aS'models'
p546
a(lp547
g537
ag546
aaa(lp548
I553
aI558
ag546
a(lp549
g528
ag546
aaa(lp550
I553
aI558
ag546
a(lp551
g519
ag546
aaa(lp552
I553
aI558
ag546
a(lp553
g510
ag546
aaa(lp554
I566
aI569
aS'free'
p555
a(lp556
g546
ag555
aaa(lp557
I566
aI569
ag555
a(lp558
g537
ag555
aaa(lp559
I566
aI569
ag555
a(lp560
g528
ag555
aaa(lp561
I566
aI569
ag555
a(lp562
g519
ag555
aaa(lp563
I574
aI577
aS'view'
p564
a(lp565
g555
ag564
aaa(lp566
I574
aI577
ag564
a(lp567
g546
ag564
aaa(lp568
I574
aI577
ag564
a(lp569
g537
ag564
aaa(lp570
I574
aI577
ag564
a(lp571
g528
ag564
aaa(lp572
I582
aI582
aS'guest'
p573
a(lp574
g564
ag573
aaa(lp575
I582
aI582
ag573
a(lp576
g555
ag573
aaa(lp577
I582
aI582
ag573
a(lp578
g546
ag573
aaa(lp579
I582
aI582
ag573
a(lp580
g537
ag573
aaasS'wordMap'
p581
(lp582
(lp583
I0
aI2
aS'our'
p584
a(lp585
(lp586
I0
aS'o'
p587
aa(lp588
I1
aS'u'
p589
aa(lp590
I2
aS'r'
p591
aaaa(lp592
I4
aI13
ag5
a(lp593
(lp594
I4
aS'c'
p595
aa(lp596
I5
ag587
aa(lp597
I6
aS'l'
p598
aa(lp599
I7
ag598
aa(lp600
I8
aS'e'
p601
aa(lp602
I9
ag595
aa(lp603
I10
aS't'
p604
aa(lp605
I11
aS'i'
p606
aa(lp607
I12
ag587
aa(lp608
I13
aS'n'
p609
aaaa(lp610
I15
aI16
aS'of'
p611
a(lp612
(lp613
I15
ag587
aa(lp614
I16
aS'f'
p615
aaaa(lp616
I18
aI26
ag15
a(lp617
(lp618
I18
ag615
aa(lp619
I19
aS'a'
p620
aa(lp621
I20
aS'v'
p622
aa(lp623
I21
ag587
aa(lp624
I22
ag589
aa(lp625
I23
ag591
aa(lp626
I24
ag606
aa(lp627
I25
ag604
aa(lp628
I26
ag601
aaaa(lp629
I28
aI34
ag24
a(lp630
(lp631
I28
aS'h'
p632
aa(lp633
I29
ag587
aa(lp634
I30
ag604
aa(lp635
I31
aS'b'
p636
aa(lp637
I32
ag587
aa(lp638
I33
aS'd'
p639
aa(lp640
I34
aS'z'
p641
aaaa(lp642
I36
aI37
aS'as'
p643
a(lp644
(lp645
I36
ag620
aa(lp646
I37
aS's'
p647
aaaa(lp648
I39
aI42
ag33
a(lp649
(lp650
I39
aS'w'
p651
aa(lp652
I40
ag601
aa(lp653
I41
ag598
aa(lp654
I42
ag598
aaaa(lp655
I44
aI45
aS'as'
p656
a(lp657
(lp658
I44
ag620
aa(lp659
I45
ag647
aaaa(lp660
I47
aI51
ag42
a(lp661
(lp662
I47
ag598
aa(lp663
I48
ag606
aa(lp664
I49
ag609
aa(lp665
I50
aS'k'
p666
aa(lp667
I51
ag647
aaaa(lp668
I53
aI54
aS'we'
p669
a(lp670
(lp671
I53
ag651
aa(lp672
I54
ag601
aaaa(lp673
I56
aI60
ag51
a(lp674
(lp675
I56
ag601
aa(lp676
I57
ag609
aa(lp677
I58
aS'j'
p678
aa(lp679
I59
ag587
aa(lp680
I60
aS'y'
p681
aaaa(lp682
I63
aI68
ag60
a(lp683
(lp684
I63
aS'm'
p685
aa(lp686
I64
ag587
aa(lp687
I65
ag609
aa(lp688
I66
ag639
aa(lp689
I67
ag620
aa(lp690
I68
ag681
aaaa(lp691
I71
aI77
ag69
a(lp692
(lp693
I71
ag678
aa(lp694
I72
ag620
aa(lp695
I73
ag609
aa(lp696
I74
ag589
aa(lp697
I75
ag620
aa(lp698
I76
ag591
aa(lp699
I77
ag681
aaaa(lp700
I79
aI80
ag78
a(lp701
(lp702
I79
aS'1'
p703
aa(lp704
I80
aS'9'
p705
aaaa(lp706
I83
aI86
ag87
a(lp707
(lp708
I83
aS'2'
p709
aa(lp710
I84
aS'0'
p711
aa(lp712
I85
ag711
aa(lp713
I86
ag705
aaaa(lp714
I88
aI92
ag96
a(lp715
(lp716
I88
ag636
aa(lp717
I89
ag598
aa(lp718
I90
ag620
aa(lp719
I91
ag647
aa(lp720
I92
ag604
aaaa(lp721
I94
aI97
aS'into'
p722
a(lp723
(lp724
I94
ag606
aa(lp725
I95
ag609
aa(lp726
I96
ag604
aa(lp727
I97
ag587
aaaa(lp728
I99
aI102
ag105
a(lp729
(lp730
I99
ag709
aa(lp731
I100
ag711
aa(lp732
I101
ag711
aa(lp733
I102
ag705
aaaa(lp734
I104
aI109
ag114
a(lp735
(lp736
I104
ag632
aa(lp737
I105
ag601
aa(lp738
I106
ag591
aa(lp739
I107
ag601
aa(lp740
I109
ag647
aaaa(lp741
I111
aI112
aS'to'
p742
a(lp743
(lp744
I111
ag604
aa(lp745
I112
ag587
aaaa(lp746
I114
aI117
ag123
a(lp747
(lp748
I114
ag709
aa(lp749
I115
ag711
aa(lp750
I116
ag711
aa(lp751
I117
ag705
aaaa(lp752
I119
aI120
aS'as'
p753
a(lp754
(lp755
I119
ag620
aa(lp756
I120
ag647
aaaa(lp757
I122
aI123
aS'we'
p758
a(lp759
(lp760
I122
ag651
aa(lp761
I123
ag601
aaaa(lp762
I125
aI129
ag132
a(lp763
(lp764
I125
ag636
aa(lp765
I126
ag598
aa(lp766
I127
ag620
aa(lp767
I128
ag647
aa(lp768
I129
ag604
aaaa(lp769
I131
aI133
aS'out'
p770
a(lp771
(lp772
I131
ag587
aa(lp773
I132
ag589
aa(lp774
I133
ag604
aaaa(lp775
I135
aI136
aS'of'
p776
a(lp777
(lp778
I135
ag587
aa(lp779
I136
ag615
aaaa(lp780
I138
aI141
ag141
a(lp781
(lp782
I138
ag709
aa(lp783
I139
ag711
aa(lp784
I140
ag711
aa(lp785
I141
aS'8'
p786
aaaa(lp787
I144
aI149
ag150
a(lp788
(lp789
I144
ag604
aa(lp790
I145
ag632
aa(lp791
I146
ag620
aa(lp792
I147
ag609
aa(lp793
I148
ag666
aa(lp794
I149
ag647
aaaa(lp795
I151
aI152
aS'to'
p796
a(lp797
(lp798
I151
ag604
aa(lp799
I152
ag587
aaaa(lp800
I154
aI156
aS'all'
p801
a(lp802
(lp803
I154
ag620
aa(lp804
I155
ag598
aa(lp805
I156
ag598
aaaa(lp806
I158
aI159
aS'of'
p807
a(lp808
(lp809
I158
ag587
aa(lp810
I159
ag615
aaaa(lp811
I161
aI163
aS'our'
p812
a(lp813
(lp814
I161
ag587
aa(lp815
I162
ag589
aa(lp816
I163
ag591
aaaa(lp817
I165
aI171
ag159
a(lp818
(lp819
I165
ag591
aa(lp820
I166
ag601
aa(lp821
I167
ag620
aa(lp822
I168
ag639
aa(lp823
I169
ag601
aa(lp824
I170
ag591
aa(lp825
I171
ag647
aaaa(lp826
I173
aI175
aS'who'
p827
a(lp828
(lp829
I173
ag651
aa(lp830
I174
ag632
aa(lp831
I175
ag587
aaaa(lp832
I177
aI182
ag168
a(lp833
(lp834
I177
ag632
aa(lp835
I178
ag601
aa(lp836
I179
ag598
aa(lp837
I180
aS'p'
p838
aa(lp839
I181
ag601
aa(lp840
I182
ag639
aaaa(lp841
I184
aI185
ag177
a(lp842
(lp843
I184
ag589
aa(lp844
I185
ag647
aaaa(lp845
I187
aI189
ag186
a(lp846
(lp847
I187
ag604
aa(lp848
I188
ag587
aa(lp849
I189
ag838
aaaa(lp850
I191
aI193
aS'the'
p851
a(lp852
(lp853
I191
ag604
aa(lp854
I192
ag632
aa(lp855
I193
ag601
aaaa(lp856
I195
aI197
ag195
a(lp857
(lp858
I195
ag703
aa(lp859
I196
ag711
aa(lp860
I197
ag711
aaaa(lp861
I199
aI201
ag204
a(lp862
(lp863
I199
ag711
aa(lp864
I200
ag711
aa(lp865
I201
ag711
aaaa(lp866
I203
aI206
ag213
a(lp867
(lp868
I203
ag685
aa(lp869
I204
ag620
aa(lp870
I205
ag591
aa(lp871
I206
ag666
aaaa(lp872
I208
aI211
aS'this'
p873
a(lp874
(lp875
I208
ag604
aa(lp876
I209
ag632
aa(lp877
I210
ag606
aa(lp878
I211
ag647
aaaa(lp879
I213
aI216
ag222
a(lp880
(lp881
I213
ag681
aa(lp882
I214
ag601
aa(lp883
I215
ag620
aa(lp884
I216
ag591
aaaa(lp885
I219
aI220
aS'we'
p886
a(lp887
(lp888
I219
ag651
aa(lp889
I220
ag601
aaaa(lp890
I222
aI228
ag231
a(lp891
(lp892
I222
ag838
aa(lp893
I223
ag591
aa(lp894
I224
ag587
aa(lp895
I225
ag685
aa(lp896
I226
ag606
aa(lp897
I227
ag647
aa(lp898
I228
ag601
aaaa(lp899
I230
aI232
aS'you'
p900
a(lp901
(lp902
I230
ag681
aa(lp903
I231
ag587
aa(lp904
I232
ag589
aaaa(lp905
I234
aI239
ag240
a(lp906
(lp907
I234
ag838
aa(lp908
I235
ag598
aa(lp909
I236
ag601
aa(lp910
I237
ag609
aa(lp911
I238
ag604
aa(lp912
I239
ag681
aaaa(lp913
I241
aI244
aS'more'
p914
a(lp915
(lp916
I241
ag685
aa(lp917
I242
ag587
aa(lp918
I243
ag591
aa(lp919
I244
ag601
aaaa(lp920
I246
aI248
ag249
a(lp921
(lp922
I246
ag632
aa(lp923
I247
ag587
aa(lp924
I248
ag604
aaaa(lp925
I250
aI253
ag258
a(lp926
(lp927
I250
ag636
aa(lp928
I251
ag587
aa(lp929
I252
ag639
aa(lp930
I253
ag641
aaaa(lp931
I255
aI256
aS'in'
p932
a(lp933
(lp934
I255
ag606
aa(lp935
I256
ag609
aaaa(lp936
I258
aI261
ag267
a(lp937
(lp938
I258
ag709
aa(lp939
I259
ag711
aa(lp940
I260
ag711
aa(lp941
I261
ag705
aaaa(lp942
I264
aI265
aS'so'
p943
a(lp944
(lp945
I264
ag647
aa(lp946
I265
ag587
aaaa(lp947
I267
aI270
ag276
a(lp948
(lp949
I267
ag647
aa(lp950
I268
ag604
aa(lp951
I269
ag620
aa(lp952
I270
ag681
aaaa(lp953
I272
aI275
aS'with'
p954
a(lp955
(lp956
I272
ag651
aa(lp957
I273
ag606
aa(lp958
I274
ag604
aa(lp959
I275
ag632
aaaa(lp960
I277
aI278
ag285
a(lp961
(lp962
I277
ag589
aa(lp963
I278
ag647
aaaa(lp964
I281
aI290
ag294
a(lp965
(lp966
I281
ag601
aa(lp967
I282
ag622
aa(lp968
I283
ag601
aa(lp969
I284
ag591
aa(lp970
I285
ag681
aa(lp971
I286
ag604
aa(lp972
I287
ag632
aa(lp973
I288
ag606
aa(lp974
I289
ag609
aa(lp975
I290
aS'g'
p976
aaaa(lp977
I292
aI293
aS'of'
p978
a(lp979
(lp980
I292
ag587
aa(lp981
I293
ag615
aaaa(lp982
I295
aI297
aS'the'
p983
a(lp984
(lp985
I295
ag604
aa(lp986
I296
ag632
aa(lp987
I297
ag601
aaaa(lp988
I299
aI302
ag303
a(lp989
(lp990
I299
ag636
aa(lp991
I300
ag601
aa(lp992
I301
ag647
aa(lp993
I302
ag604
aaaa(lp994
I304
aI306
aS'for'
p995
a(lp996
(lp997
I304
ag615
aa(lp998
I305
ag587
aa(lp999
I306
ag591
aaaa(lp1000
I308
aI309
aS'an'
p1001
a(lp1002
(lp1003
I308
ag620
aa(lp1004
I309
ag609
aaaa(lp1005
I311
aI317
ag312
a(lp1006
(lp1007
I311
ag620
aa(lp1008
I312
ag651
aa(lp1009
I313
ag601
aa(lp1010
I314
ag647
aa(lp1011
I315
ag587
aa(lp1012
I316
ag685
aa(lp1013
I317
ag601
aaaa(lp1014
I319
aI322
ag321
a(lp1015
(lp1016
I319
ag709
aa(lp1017
I320
ag711
aa(lp1018
I321
ag711
aa(lp1019
I322
ag705
aaaa(lp1020
I326
aI329
ag330
a(lp1021
(lp1022
I326
ag639
aa(lp1023
I327
ag620
aa(lp1024
I328
ag622
aa(lp1025
I329
ag601
aaaa(lp1026
I331
aI338
ag339
a(lp1027
(lp1028
I331
ag604
aa(lp1029
I332
ag591
aa(lp1030
I333
ag601
aa(lp1031
I334
ag620
aa(lp1032
I335
ag647
aa(lp1033
I336
ag589
aa(lp1034
I337
ag591
aa(lp1035
I338
ag601
aaaa(lp1036
I340
aI344
ag348
a(lp1037
(lp1038
I340
ag604
aa(lp1039
I341
ag591
aa(lp1040
I342
ag620
aa(lp1041
I343
ag606
aa(lp1042
I344
ag598
aaaa(lp1043
I346
aI349
aS'this'
p1044
a(lp1045
(lp1046
I346
ag604
aa(lp1047
I347
ag632
aa(lp1048
I348
ag606
aa(lp1049
I349
ag647
aaaa(lp1050
I351
aI355
ag357
a(lp1051
(lp1052
I351
ag681
aa(lp1053
I352
ag589
aa(lp1054
I353
ag685
aa(lp1055
I354
ag685
aa(lp1056
I355
ag681
aaaa(lp1057
I357
aI364
ag366
a(lp1058
(lp1059
I357
ag604
aa(lp1060
I358
ag591
aa(lp1061
I359
ag601
aa(lp1062
I360
ag620
aa(lp1063
I361
ag647
aa(lp1064
I362
ag589
aa(lp1065
I363
ag591
aa(lp1066
I364
ag601
aaaa(lp1067
I366
aI370
ag375
a(lp1068
(lp1069
I366
ag604
aa(lp1070
I367
ag591
aa(lp1071
I368
ag620
aa(lp1072
I369
ag606
aa(lp1073
I370
ag598
aaaa(lp1074
I372
aI372
ag606
a(lp1075
(lp1076
I372
ag606
aaaa(lp1077
I374
aI378
ag384
a(lp1078
(lp1079
I374
ag615
aa(lp1080
I375
ag587
aa(lp1081
I376
ag589
aa(lp1082
I377
ag609
aa(lp1083
I378
ag639
aaaa(lp1084
I380
aI381
aS'on'
p1085
a(lp1086
(lp1087
I380
ag587
aa(lp1088
I381
ag609
aaaa(lp1089
I383
aI383
ag620
a(lp1090
(lp1091
I383
ag620
aaaa(lp1092
I385
aI388
ag393
a(lp1093
(lp1094
I385
ag636
aa(lp1095
I386
ag598
aa(lp1096
I387
ag587
aa(lp1097
I388
ag976
aaaa(lp1098
I390
aI393
aS'that'
p1099
a(lp1100
(lp1101
I390
ag604
aa(lp1102
I391
ag632
aa(lp1103
I392
ag620
aa(lp1104
I393
ag604
aaaa(lp1105
I395
aI396
aS'is'
p1106
a(lp1107
(lp1108
I395
ag606
aa(lp1109
I396
ag647
aaaa(lp1110
I398
aI403
ag402
a(lp1111
(lp1112
I398
ag598
aa(lp1113
I399
ag606
aa(lp1114
I400
ag609
aa(lp1115
I401
ag666
aa(lp1116
I402
ag601
aa(lp1117
I403
ag639
aaaa(lp1118
I405
aI408
aS'here'
p1119
a(lp1120
(lp1121
I405
ag632
aa(lp1122
I406
ag601
aa(lp1123
I407
ag591
aa(lp1124
I408
ag601
aaaa(lp1125
I413
aI415
ag411
a(lp1126
(lp1127
I413
ag636
aa(lp1128
I414
ag587
aa(lp1129
I415
ag681
aaaa(lp1130
I417
aI419
ag420
a(lp1131
(lp1132
I417
ag636
aa(lp1133
I418
ag587
aa(lp1134
I419
aS'x'
p1135
aaaa(lp1136
I423
aI425
ag429
a(lp1137
(lp1138
I423
ag647
aa(lp1139
I424
ag601
aa(lp1140
I425
ag601
aaaa(lp1141
I427
aI429
aS'the'
p1142
a(lp1143
(lp1144
I427
ag604
aa(lp1145
I428
ag632
aa(lp1146
I429
ag601
aaaa(lp1147
I431
aI435
ag438
a(lp1148
(lp1149
I431
ag598
aa(lp1150
I432
ag606
aa(lp1151
I433
ag609
aa(lp1152
I434
ag666
aa(lp1153
I435
ag647
aaaa(lp1154
I437
aI438
aS'to'
p1155
a(lp1156
(lp1157
I437
ag604
aa(lp1158
I438
ag587
aaaa(lp1159
I440
aI444
aS'other'
p1160
a(lp1161
(lp1162
I440
ag587
aa(lp1163
I441
ag604
aa(lp1164
I442
ag632
aa(lp1165
I443
ag601
aa(lp1166
I444
ag591
aaaa(lp1167
I446
aI448
ag447
a(lp1168
(lp1169
I446
ag632
aa(lp1170
I447
ag587
aa(lp1171
I448
ag604
aaaa(lp1172
I450
aI454
ag456
a(lp1173
(lp1174
I450
ag647
aa(lp1175
I451
ag606
aa(lp1176
I452
ag604
aa(lp1177
I453
ag601
aa(lp1178
I454
ag647
aaaa(lp1179
I456
aI457
aS'we'
p1180
a(lp1181
(lp1182
I456
ag651
aa(lp1183
I457
ag601
aaaa(lp1184
I459
aI463
ag465
a(lp1185
(lp1186
I459
ag601
aa(lp1187
I460
ag609
aa(lp1188
I461
ag678
aa(lp1189
I462
ag587
aa(lp1190
I463
ag681
aaaa(lp1191
I465
aI466
aS'on'
p1192
a(lp1193
(lp1194
I465
ag587
aa(lp1195
I466
ag609
aaaa(lp1196
I468
aI470
aS'the'
p1197
a(lp1198
(lp1199
I468
ag604
aa(lp1200
I469
ag632
aa(lp1201
I470
ag601
aaaa(lp1202
I472
aI480
ag474
a(lp1203
(lp1204
I472
ag647
aa(lp1205
I473
ag606
aa(lp1206
I474
ag639
aa(lp1207
I475
ag601
aa(lp1208
I477
ag636
aa(lp1209
I478
ag598
aa(lp1210
I479
ag587
aa(lp1211
I480
ag976
aaaa(lp1212
I482
aI483
aS'to'
p1213
a(lp1214
(lp1215
I482
ag604
aa(lp1216
I483
ag587
aaaa(lp1217
I485
aI487
aS'the'
p1218
a(lp1219
(lp1220
I485
ag604
aa(lp1221
I486
ag632
aa(lp1222
I487
ag601
aaaa(lp1223
I489
aI493
ag483
a(lp1224
(lp1225
I489
ag591
aa(lp1226
I490
ag606
aa(lp1227
I491
ag976
aa(lp1228
I492
ag632
aa(lp1229
I493
ag604
aaaa(lp1230
I496
aI502
ag492
a(lp1231
(lp1232
I496
ag620
aa(lp1233
I497
ag609
aa(lp1234
I498
ag587
aa(lp1235
I499
ag604
aa(lp1236
I500
ag632
aa(lp1237
I501
ag601
aa(lp1238
I502
ag591
aaaa(lp1239
I504
aI506
ag501
a(lp1240
(lp1241
I504
ag609
aa(lp1242
I505
ag601
aa(lp1243
I506
ag651
aaaa(lp1244
I508
aI511
ag510
a(lp1245
(lp1246
I508
ag598
aa(lp1247
I509
ag606
aa(lp1248
I510
ag609
aa(lp1249
I511
ag666
aaaa(lp1250
I513
aI514
aS'is'
p1251
a(lp1252
(lp1253
I513
ag606
aa(lp1254
I514
ag647
aaaa(lp1255
I516
aI517
aS'to'
p1256
a(lp1257
(lp1258
I516
ag604
aa(lp1259
I517
ag587
aaaa(lp1260
I519
aI521
ag519
a(lp1261
(lp1262
I519
ag636
aa(lp1263
I520
ag620
aa(lp1264
I521
ag639
aaaa(lp1265
I523
aI527
ag528
a(lp1266
(lp1267
I523
ag838
aa(lp1268
I524
ag589
aa(lp1269
I525
ag838
aa(lp1270
I526
ag838
aa(lp1271
I527
ag681
aaaa(lp1272
I529
aI532
aS'with'
p1273
a(lp1274
(lp1275
I529
ag651
aa(lp1276
I530
ag606
aa(lp1277
I531
ag604
aa(lp1278
I532
ag632
aaaa(lp1279
I534
aI538
aS'their'
p1280
a(lp1281
(lp1282
I534
ag604
aa(lp1283
I535
ag632
aa(lp1284
I536
ag601
aa(lp1285
I537
ag606
aa(lp1286
I538
ag591
aaaa(lp1287
I540
aI548
ag537
a(lp1288
(lp1289
I540
ag647
aa(lp1290
I541
ag601
aa(lp1291
I542
ag598
aa(lp1292
I543
ag601
aa(lp1293
I544
ag595
aa(lp1294
I545
ag604
aa(lp1295
I546
ag606
aa(lp1296
I547
ag587
aa(lp1297
I548
ag609
aaaa(lp1298
I550
aI551
aS'of'
p1299
a(lp1300
(lp1301
I550
ag587
aa(lp1302
I551
ag615
aaaa(lp1303
I553
aI558
ag546
a(lp1304
(lp1305
I553
ag685
aa(lp1306
I554
ag587
aa(lp1307
I555
ag639
aa(lp1308
I556
ag601
aa(lp1309
I557
ag598
aa(lp1310
I558
ag647
aaaa(lp1311
I561
aI564
aS'most'
p1312
a(lp1313
(lp1314
I561
ag685
aa(lp1315
I562
ag587
aa(lp1316
I563
ag647
aa(lp1317
I564
ag604
aaaa(lp1318
I566
aI569
ag555
a(lp1319
(lp1320
I566
ag615
aa(lp1321
I567
ag591
aa(lp1322
I568
ag601
aa(lp1323
I569
ag601
aaaa(lp1324
I571
aI572
aS'to'
p1325
a(lp1326
(lp1327
I571
ag604
aa(lp1328
I572
ag587
aaaa(lp1329
I574
aI577
ag564
a(lp1330
(lp1331
I574
ag622
aa(lp1332
I575
ag606
aa(lp1333
I576
ag601
aa(lp1334
I577
ag651
aaaa(lp1335
I579
aI580
aS'as'
p1336
a(lp1337
(lp1338
I579
ag620
aa(lp1339
I580
ag647
aaaa(lp1340
I582
aI582
ag620
a(lp1341
(lp1342
I582
ag620
aaaa(lp1343
I582
aI582
ag573
a(lp1344
(lp1345
I584
ag976
aa(lp1346
I585
ag589
aa(lp1347
I586
ag601
aa(lp1348
I587
ag647
aa(lp1349
I588
ag604
aaaasS'cleanCharacterMap'
p1350
(lp1351
g586
ag588
ag590
a(lp1352
I3
aS' '
p1353
aag594
ag596
ag597
ag599
ag600
ag602
ag603
ag605
ag607
ag608
a(lp1354
I14
ag1353
aag613
ag614
a(lp1355
I17
ag1353
aag618
ag619
ag621
ag623
ag624
ag625
ag626
ag627
ag628
a(lp1356
I27
ag1353
aag631
ag633
ag634
ag635
ag637
ag638
ag640
a(lp1357
I35
ag1353
aag645
ag646
a(lp1358
I38
ag1353
aag650
ag652
ag653
ag654
a(lp1359
I43
ag1353
aag658
ag659
a(lp1360
I46
ag1353
aag662
ag663
ag664
ag665
ag667
a(lp1361
I52
ag1353
aag671
ag672
a(lp1362
I55
ag1353
aag675
ag676
ag677
ag679
ag680
a(lp1363
I62
ag1353
aag684
ag686
ag687
ag688
ag689
ag690
a(lp1364
I70
ag1353
aag693
ag694
ag695
ag696
ag697
ag698
ag699
a(lp1365
I78
ag1353
aag702
ag704
a(lp1366
I82
ag1353
aag708
ag710
ag712
ag713
a(lp1367
I87
ag1353
aag716
ag717
ag718
ag719
ag720
a(lp1368
I93
ag1353
aag724
ag725
ag726
ag727
a(lp1369
I98
ag1353
aag730
ag731
ag732
ag733
a(lp1370
I103
ag1353
aag736
ag737
ag738
ag739
ag740
a(lp1371
I110
ag1353
aag744
ag745
a(lp1372
I113
ag1353
aag748
ag749
ag750
ag751
a(lp1373
I118
ag1353
aag755
ag756
a(lp1374
I121
ag1353
aag760
ag761
a(lp1375
I124
ag1353
aag764
ag765
ag766
ag767
ag768
a(lp1376
I130
ag1353
aag772
ag773
ag774
a(lp1377
I134
ag1353
aag778
ag779
a(lp1378
I137
ag1353
aag782
ag783
ag784
ag785
a(lp1379
I143
ag1353
aag789
ag790
ag791
ag792
ag793
ag794
a(lp1380
I150
ag1353
aag798
ag799
a(lp1381
I153
ag1353
aag803
ag804
ag805
a(lp1382
I157
ag1353
aag809
ag810
a(lp1383
I160
ag1353
aag814
ag815
ag816
a(lp1384
I164
ag1353
aag819
ag820
ag821
ag822
ag823
ag824
ag825
a(lp1385
I172
ag1353
aag829
ag830
ag831
a(lp1386
I176
ag1353
aag834
ag835
ag836
ag837
ag839
ag840
a(lp1387
I183
ag1353
aag843
ag844
a(lp1388
I186
ag1353
aag847
ag848
ag849
a(lp1389
I190
ag1353
aag853
ag854
ag855
a(lp1390
I194
ag1353
aag858
ag859
ag860
a(lp1391
I198
ag1353
aag863
ag864
ag865
a(lp1392
I202
ag1353
aag868
ag869
ag870
ag871
a(lp1393
I207
ag1353
aag875
ag876
ag877
ag878
a(lp1394
I212
ag1353
aag881
ag882
ag883
ag884
a(lp1395
I218
ag1353
aag888
ag889
a(lp1396
I221
ag1353
aag892
ag893
ag894
ag895
ag896
ag897
ag898
a(lp1397
I229
ag1353
aag902
ag903
ag904
a(lp1398
I233
ag1353
aag907
ag908
ag909
ag910
ag911
ag912
a(lp1399
I240
ag1353
aag916
ag917
ag918
ag919
a(lp1400
I245
ag1353
aag922
ag923
ag924
a(lp1401
I249
ag1353
aag927
ag928
ag929
ag930
a(lp1402
I254
ag1353
aag934
ag935
a(lp1403
I257
ag1353
aag938
ag939
ag940
ag941
a(lp1404
I263
ag1353
aag945
ag946
a(lp1405
I266
ag1353
aag949
ag950
ag951
ag952
a(lp1406
I271
ag1353
aag956
ag957
ag958
ag959
a(lp1407
I276
ag1353
aag962
ag963
a(lp1408
I280
ag1353
aag966
ag967
ag968
ag969
ag970
ag971
ag972
ag973
ag974
ag975
a(lp1409
I291
ag1353
aag980
ag981
a(lp1410
I294
ag1353
aag985
ag986
ag987
a(lp1411
I298
ag1353
aag990
ag991
ag992
ag993
a(lp1412
I303
ag1353
aag997
ag998
ag999
a(lp1413
I307
ag1353
aag1003
ag1004
a(lp1414
I310
ag1353
aag1007
ag1008
ag1009
ag1010
ag1011
ag1012
ag1013
a(lp1415
I318
ag1353
aag1016
ag1017
ag1018
ag1019
a(lp1416
I325
ag1353
aag1022
ag1023
ag1024
ag1025
a(lp1417
I330
ag1353
aag1028
ag1029
ag1030
ag1031
ag1032
ag1033
ag1034
ag1035
a(lp1418
I339
ag1353
aag1038
ag1039
ag1040
ag1041
ag1042
a(lp1419
I345
ag1353
aag1046
ag1047
ag1048
ag1049
a(lp1420
I350
ag1353
aag1052
ag1053
ag1054
ag1055
ag1056
a(lp1421
I356
ag1353
aag1059
ag1060
ag1061
ag1062
ag1063
ag1064
ag1065
ag1066
a(lp1422
I365
ag1353
aag1069
ag1070
ag1071
ag1072
ag1073
a(lp1423
I371
ag1353
aag1076
a(lp1424
I373
ag1353
aag1079
ag1080
ag1081
ag1082
ag1083
a(lp1425
I379
ag1353
aag1087
ag1088
a(lp1426
I382
ag1353
aag1091
a(lp1427
I384
ag1353
aag1094
ag1095
ag1096
ag1097
a(lp1428
I389
ag1353
aag1101
ag1102
ag1103
ag1104
a(lp1429
I394
ag1353
aag1108
ag1109
a(lp1430
I397
ag1353
aag1112
ag1113
ag1114
ag1115
ag1116
ag1117
a(lp1431
I404
ag1353
aag1121
ag1122
ag1123
ag1124
a(lp1432
I412
ag1353
aag1127
ag1128
ag1129
a(lp1433
I416
ag1353
aag1132
ag1133
ag1134
a(lp1434
I420
ag1353
aa(lp1435
I422
ag1353
aag1138
ag1139
ag1140
a(lp1436
I426
ag1353
aag1144
ag1145
ag1146
a(lp1437
I430
ag1353
aag1149
ag1150
ag1151
ag1152
ag1153
a(lp1438
I436
ag1353
aag1157
ag1158
a(lp1439
I439
ag1353
aag1162
ag1163
ag1164
ag1165
ag1166
a(lp1440
I445
ag1353
aag1169
ag1170
ag1171
a(lp1441
I449
ag1353
aag1174
ag1175
ag1176
ag1177
ag1178
a(lp1442
I455
ag1353
aag1182
ag1183
a(lp1443
I458
ag1353
aag1186
ag1187
ag1188
ag1189
ag1190
a(lp1444
I464
ag1353
aag1194
ag1195
a(lp1445
I467
ag1353
aag1199
ag1200
ag1201
a(lp1446
I471
ag1353
aag1204
ag1205
ag1206
ag1207
ag1208
ag1209
ag1210
ag1211
a(lp1447
I481
ag1353
aag1215
ag1216
a(lp1448
I484
ag1353
aag1220
ag1221
ag1222
a(lp1449
I488
ag1353
aag1225
ag1226
ag1227
ag1228
ag1229
a(lp1450
I495
ag1353
aag1232
ag1233
ag1234
ag1235
ag1236
ag1237
ag1238
a(lp1451
I503
ag1353
aag1241
ag1242
ag1243
a(lp1452
I507
ag1353
aag1246
ag1247
ag1248
ag1249
a(lp1453
I512
ag1353
aag1253
ag1254
a(lp1454
I515
ag1353
aag1258
ag1259
a(lp1455
I518
ag1353
aag1262
ag1263
ag1264
a(lp1456
I522
ag1353
aag1267
ag1268
ag1269
ag1270
ag1271
a(lp1457
I528
ag1353
aag1275
ag1276
ag1277
ag1278
a(lp1458
I533
ag1353
aag1282
ag1283
ag1284
ag1285
ag1286
a(lp1459
I539
ag1353
aag1289
ag1290
ag1291
ag1292
ag1293
ag1294
ag1295
ag1296
ag1297
a(lp1460
I549
ag1353
aag1301
ag1302
a(lp1461
I552
ag1353
aag1305
ag1306
ag1307
ag1308
ag1309
ag1310
a(lp1462
I560
ag1353
aag1314
ag1315
ag1316
ag1317
a(lp1463
I565
ag1353
aag1320
ag1321
ag1322
ag1323
a(lp1464
I570
ag1353
aag1327
ag1328
a(lp1465
I573
ag1353
aag1331
ag1332
ag1333
ag1334
a(lp1466
I578
ag1353
aag1338
ag1339
a(lp1467
I581
ag1353
aag1342
a(lp1468
I583
ag1353
aag1345
ag1346
ag1347
ag1348
ag1349
asS'text'
p1469
S"our collection of favourite hotbodz as well as links we enjoy. monday, january 19, 2009 blast into 2009 here's to 2009 as we blast out of 2008. thanks to all of our readers who helped us top the 100 000 mark this year. we promise you plenty more hot bodz in 2009, so stay with us. everything of the best for an awesome 2009!! dave treasure trail this yummy treasure trail i found on a blog that is linked here... boy box - see the links to other hot sites we enjoy on the side-blog to the right. another new link is to bad puppy with their selection of models, most free to view as a guest."
p1470
sS'cleanWordMap'
p1471
(lp1472
g592
ag616
ag629
ag648
ag660
ag673
ag682
ag691
ag700
ag706
ag714
ag728
ag734
ag746
ag762
ag780
ag787
ag817
ag832
ag841
ag845
ag856
ag861
ag866
ag879
ag890
ag905
ag920
ag925
ag936
ag947
ag960
ag964
ag988
ag1005
ag1014
ag1020
ag1026
ag1036
ag1050
ag1057
ag1067
ag1077
ag1092
ag1110
ag1125
ag1130
ag1136
ag1147
ag1167
ag1172
ag1184
ag1202
ag1223
ag1230
ag1239
ag1244
ag1260
ag1265
ag1287
ag1303
ag1318
ag1329
ag1343
asS'lines'
p1473
(lp1474
VOur collection of favourite HotBodz as well as links we enjoy.\u000a
p1475
aVMonday, January 19, 2009\u000a
p1476
aVBlast into 2009\u000a
p1477
aVHere's to 2009 as we blast out of 2008. Thanks to all of our readers who helped us top the 100 000 mark this year. We promise you plenty more hot bodz in 2009, so stay with us. Everything of the best for an awesome 2009!! Dave\u000a
p1478
aVTreasure trail\u000a
p1479
aVThis yummy treasure trail I found on a blog that is linked here... Boy Box - see the links to other hot sites we enjoy on the side-blog to the right. Another new link is to Bad Puppy with their selection of models, most free to view as a guest.
p1480
asS'docType'
p1481
S'src'
p1482
sS'newfmap'
p1483
(lp1484
g4
ag8
ag10
ag12
ag14
ag17
ag19
ag21
ag23
ag26
ag28
ag30
ag32
ag35
ag37
ag39
ag41
ag44
ag46
ag48
ag50
ag53
ag55
ag57
ag59
ag62
ag64
ag66
ag68
ag71
ag73
ag75
ag77
ag80
ag82
ag84
ag86
ag89
ag91
ag93
ag95
ag98
ag100
ag102
ag104
ag107
ag109
ag111
ag113
ag116
ag118
ag120
ag122
ag125
ag127
ag129
ag131
ag134
ag136
ag138
ag140
ag143
ag145
ag147
ag149
ag152
ag154
ag156
ag158
ag161
ag163
ag165
ag167
ag170
ag172
ag174
ag176
ag179
ag181
ag183
ag185
ag188
ag190
ag192
ag194
ag197
ag199
ag201
ag203
ag206
ag208
ag210
ag212
ag215
ag217
ag219
ag221
ag224
ag226
ag228
ag230
ag233
ag235
ag237
ag239
ag242
ag244
ag246
ag248
ag251
ag253
ag255
ag257
ag260
ag262
ag264
ag266
ag269
ag271
ag273
ag275
ag278
ag280
ag282
ag284
ag287
ag289
ag291
ag293
ag296
ag298
ag300
ag302
ag305
ag307
ag309
ag311
ag314
ag316
ag318
ag320
ag323
ag325
ag327
ag329
ag332
ag334
ag336
ag338
ag341
ag343
ag345
ag347
ag350
ag352
ag354
ag356
ag359
ag361
ag363
ag365
ag368
ag370
ag372
ag374
ag377
ag379
ag381
ag383
ag386
ag388
ag390
ag392
ag395
ag397
ag399
ag401
ag404
ag406
ag408
ag410
ag413
ag415
ag417
ag419
ag422
ag424
ag426
ag428
ag431
ag433
ag435
ag437
ag440
ag442
ag444
ag446
ag449
ag451
ag453
ag455
ag458
ag460
ag462
ag464
ag467
ag469
ag471
ag473
ag476
ag478
ag480
ag482
ag485
ag487
ag489
ag491
ag494
ag496
ag498
ag500
ag503
ag505
ag507
ag509
ag512
ag514
ag516
ag518
ag521
ag523
ag525
ag527
ag530
ag532
ag534
ag536
ag539
ag541
ag543
ag545
ag548
ag550
ag552
ag554
ag557
ag559
ag561
ag563
ag566
ag568
ag570
ag572
ag575
ag577
ag579
asS'featureMap'
p1485
(lp1486
(lp1487
I4
aI13
ag5
ag6
ag9
ag11
ag13
aa(lp1488
I18
aI26
ag15
ag16
ag18
ag20
ag22
aa(lp1489
I28
aI34
ag24
ag25
ag27
ag29
ag31
aa(lp1490
I39
aI42
ag33
ag34
ag36
ag38
ag40
aa(lp1491
I47
aI51
ag42
ag43
ag45
ag47
ag49
aa(lp1492
I56
aI60
ag51
ag52
ag54
ag56
ag58
aa(lp1493
I63
aI68
ag60
ag61
ag63
ag65
ag67
aa(lp1494
I71
aI77
ag69
ag70
ag72
ag74
ag76
aa(lp1495
I79
aI80
ag78
ag79
ag81
ag83
ag85
aa(lp1496
I83
aI86
ag87
ag88
ag90
ag92
ag94
aa(lp1497
I88
aI92
ag96
ag97
ag99
ag101
ag103
aa(lp1498
I99
aI102
ag105
ag106
ag108
ag110
ag112
aa(lp1499
I104
aI109
ag114
ag115
ag117
ag119
ag121
aa(lp1500
I114
aI117
ag123
ag124
ag126
ag128
ag130
aa(lp1501
I125
aI129
ag132
ag133
ag135
ag137
ag139
aa(lp1502
I138
aI141
ag141
ag142
ag144
ag146
ag148
aa(lp1503
I144
aI149
ag150
ag151
ag153
ag155
ag157
aa(lp1504
I165
aI171
ag159
ag160
ag162
ag164
ag166
aa(lp1505
I177
aI182
ag168
ag169
ag171
ag173
ag175
aa(lp1506
I184
aI185
ag177
ag178
ag180
ag182
ag184
aa(lp1507
I187
aI189
ag186
ag187
ag189
ag191
ag193
aa(lp1508
I195
aI197
ag195
ag196
ag198
ag200
ag202
aa(lp1509
I199
aI201
ag204
ag205
ag207
ag209
ag211
aa(lp1510
I203
aI206
ag213
ag214
ag216
ag218
ag220
aa(lp1511
I213
aI216
ag222
ag223
ag225
ag227
ag229
aa(lp1512
I222
aI228
ag231
ag232
ag234
ag236
ag238
aa(lp1513
I234
aI239
ag240
ag241
ag243
ag245
ag247
aa(lp1514
I246
aI248
ag249
ag250
ag252
ag254
ag256
aa(lp1515
I250
aI253
ag258
ag259
ag261
ag263
ag265
aa(lp1516
I258
aI261
ag267
ag268
ag270
ag272
ag274
aa(lp1517
I267
aI270
ag276
ag277
ag279
ag281
ag283
aa(lp1518
I277
aI278
ag285
ag286
ag288
ag290
ag292
aa(lp1519
I281
aI290
ag294
ag295
ag297
ag299
ag301
aa(lp1520
I299
aI302
ag303
ag304
ag306
ag308
ag310
aa(lp1521
I311
aI317
ag312
ag313
ag315
ag317
ag319
aa(lp1522
I319
aI322
ag321
ag322
ag324
ag326
ag328
aa(lp1523
I326
aI329
ag330
ag331
ag333
ag335
ag337
aa(lp1524
I331
aI338
ag339
ag340
ag342
ag344
ag346
aa(lp1525
I340
aI344
ag348
ag349
ag351
ag353
ag355
aa(lp1526
I351
aI355
ag357
ag358
ag360
ag362
ag364
aa(lp1527
I357
aI364
ag366
ag367
ag369
ag371
ag373
aa(lp1528
I366
aI370
ag375
ag376
ag378
ag380
ag382
aa(lp1529
I374
aI378
ag384
ag385
ag387
ag389
ag391
aa(lp1530
I385
aI388
ag393
ag394
ag396
ag398
ag400
aa(lp1531
I398
aI403
ag402
ag403
ag405
ag407
ag409
aa(lp1532
I413
aI415
ag411
ag412
ag414
ag416
ag418
aa(lp1533
I417
aI419
ag420
ag421
ag423
ag425
ag427
aa(lp1534
I423
aI425
ag429
ag430
ag432
ag434
ag436
aa(lp1535
I431
aI435
ag438
ag439
ag441
ag443
ag445
aa(lp1536
I446
aI448
ag447
ag448
ag450
ag452
ag454
aa(lp1537
I450
aI454
ag456
ag457
ag459
ag461
ag463
aa(lp1538
I459
aI463
ag465
ag466
ag468
ag470
ag472
aa(lp1539
I472
aI480
ag474
ag475
ag477
ag479
ag481
aa(lp1540
I489
aI493
ag483
ag484
ag486
ag488
ag490
aa(lp1541
I496
aI502
ag492
ag493
ag495
ag497
ag499
aa(lp1542
I504
aI506
ag501
ag502
ag504
ag506
ag508
aa(lp1543
I508
aI511
ag510
ag511
ag513
ag515
ag517
aa(lp1544
I519
aI521
ag519
ag520
ag522
ag524
ag526
aa(lp1545
I523
aI527
ag528
ag529
ag531
ag533
ag535
aa(lp1546
I540
aI548
ag537
ag538
ag540
ag542
ag544
aa(lp1547
I553
aI558
ag546
ag547
ag549
ag551
ag553
aa(lp1548
I566
aI569
ag555
ag556
ag558
ag560
ag562
aa(lp1549
I574
aI577
ag564
ag565
ag567
ag569
ag571
aa(lp1550
I582
aI582
ag573
ag574
ag576
ag578
ag580
aasS'characterMap'
p1551
(lp1552
g586
ag588
ag590
ag1352
ag594
ag596
ag597
ag599
ag600
ag602
ag603
ag605
ag607
ag608
ag1354
ag613
ag614
ag1355
ag618
ag619
ag621
ag623
ag624
ag625
ag626
ag627
ag628
ag1356
ag631
ag633
ag634
ag635
ag637
ag638
ag640
ag1357
ag645
ag646
ag1358
ag650
ag652
ag653
ag654
ag1359
ag658
ag659
ag1360
ag662
ag663
ag664
ag665
ag667
ag1361
ag671
ag672
ag1362
ag675
ag676
ag677
ag679
ag680
a(lp1553
I61
aS'.'
p1554
aag1363
ag684
ag686
ag687
ag688
ag689
ag690
a(lp1555
I69
aS','
p1556
aag1364
ag693
ag694
ag695
ag696
ag697
ag698
ag699
ag1365
ag702
ag704
a(lp1557
I81
ag1556
aag1366
ag708
ag710
ag712
ag713
ag1367
ag716
ag717
ag718
ag719
ag720
ag1368
ag724
ag725
ag726
ag727
ag1369
ag730
ag731
ag732
ag733
ag1370
ag736
ag737
ag738
ag739
a(lp1558
I108
aS"'"
p1559
aag740
ag1371
ag744
ag745
ag1372
ag748
ag749
ag750
ag751
ag1373
ag755
ag756
ag1374
ag760
ag761
ag1375
ag764
ag765
ag766
ag767
ag768
ag1376
ag772
ag773
ag774
ag1377
ag778
ag779
ag1378
ag782
ag783
ag784
ag785
a(lp1560
I142
ag1554
aag1379
ag789
ag790
ag791
ag792
ag793
ag794
ag1380
ag798
ag799
ag1381
ag803
ag804
ag805
ag1382
ag809
ag810
ag1383
ag814
ag815
ag816
ag1384
ag819
ag820
ag821
ag822
ag823
ag824
ag825
ag1385
ag829
ag830
ag831
ag1386
ag834
ag835
ag836
ag837
ag839
ag840
ag1387
ag843
ag844
ag1388
ag847
ag848
ag849
ag1389
ag853
ag854
ag855
ag1390
ag858
ag859
ag860
ag1391
ag863
ag864
ag865
ag1392
ag868
ag869
ag870
ag871
ag1393
ag875
ag876
ag877
ag878
ag1394
ag881
ag882
ag883
ag884
a(lp1561
I217
ag1554
aag1395
ag888
ag889
ag1396
ag892
ag893
ag894
ag895
ag896
ag897
ag898
ag1397
ag902
ag903
ag904
ag1398
ag907
ag908
ag909
ag910
ag911
ag912
ag1399
ag916
ag917
ag918
ag919
ag1400
ag922
ag923
ag924
ag1401
ag927
ag928
ag929
ag930
ag1402
ag934
ag935
ag1403
ag938
ag939
ag940
ag941
a(lp1562
I262
ag1556
aag1404
ag945
ag946
ag1405
ag949
ag950
ag951
ag952
ag1406
ag956
ag957
ag958
ag959
ag1407
ag962
ag963
a(lp1563
I279
ag1554
aag1408
ag966
ag967
ag968
ag969
ag970
ag971
ag972
ag973
ag974
ag975
ag1409
ag980
ag981
ag1410
ag985
ag986
ag987
ag1411
ag990
ag991
ag992
ag993
ag1412
ag997
ag998
ag999
ag1413
ag1003
ag1004
ag1414
ag1007
ag1008
ag1009
ag1010
ag1011
ag1012
ag1013
ag1415
ag1016
ag1017
ag1018
ag1019
a(lp1564
I323
aS'!'
p1565
aa(lp1566
I324
ag1565
aag1416
ag1022
ag1023
ag1024
ag1025
ag1417
ag1028
ag1029
ag1030
ag1031
ag1032
ag1033
ag1034
ag1035
ag1418
ag1038
ag1039
ag1040
ag1041
ag1042
ag1419
ag1046
ag1047
ag1048
ag1049
ag1420
ag1052
ag1053
ag1054
ag1055
ag1056
ag1421
ag1059
ag1060
ag1061
ag1062
ag1063
ag1064
ag1065
ag1066
ag1422
ag1069
ag1070
ag1071
ag1072
ag1073
ag1423
ag1076
ag1424
ag1079
ag1080
ag1081
ag1082
ag1083
ag1425
ag1087
ag1088
ag1426
ag1091
ag1427
ag1094
ag1095
ag1096
ag1097
ag1428
ag1101
ag1102
ag1103
ag1104
ag1429
ag1108
ag1109
ag1430
ag1112
ag1113
ag1114
ag1115
ag1116
ag1117
ag1431
ag1121
ag1122
ag1123
ag1124
a(lp1567
I409
ag1554
aa(lp1568
I410
ag1554
aa(lp1569
I411
ag1554
aag1432
ag1127
ag1128
ag1129
ag1433
ag1132
ag1133
ag1134
ag1434
a(lp1570
I421
aS'-'
p1571
aag1435
ag1138
ag1139
ag1140
ag1436
ag1144
ag1145
ag1146
ag1437
ag1149
ag1150
ag1151
ag1152
ag1153
ag1438
ag1157
ag1158
ag1439
ag1162
ag1163
ag1164
ag1165
ag1166
ag1440
ag1169
ag1170
ag1171
ag1441
ag1174
ag1175
ag1176
ag1177
ag1178
ag1442
ag1182
ag1183
ag1443
ag1186
ag1187
ag1188
ag1189
ag1190
ag1444
ag1194
ag1195
ag1445
ag1199
ag1200
ag1201
ag1446
ag1204
ag1205
ag1206
ag1207
a(lp1572
I476
ag1571
aag1208
ag1209
ag1210
ag1211
ag1447
ag1215
ag1216
ag1448
ag1220
ag1221
ag1222
ag1449
ag1225
ag1226
ag1227
ag1228
ag1229
a(lp1573
I494
ag1554
aag1450
ag1232
ag1233
ag1234
ag1235
ag1236
ag1237
ag1238
ag1451
ag1241
ag1242
ag1243
ag1452
ag1246
ag1247
ag1248
ag1249
ag1453
ag1253
ag1254
ag1454
ag1258
ag1259
ag1455
ag1262
ag1263
ag1264
ag1456
ag1267
ag1268
ag1269
ag1270
ag1271
ag1457
ag1275
ag1276
ag1277
ag1278
ag1458
ag1282
ag1283
ag1284
ag1285
ag1286
ag1459
ag1289
ag1290
ag1291
ag1292
ag1293
ag1294
ag1295
ag1296
ag1297
ag1460
ag1301
ag1302
ag1461
ag1305
ag1306
ag1307
ag1308
ag1309
ag1310
a(lp1574
I559
ag1556
aag1462
ag1314
ag1315
ag1316
ag1317
ag1463
ag1320
ag1321
ag1322
ag1323
ag1464
ag1327
ag1328
ag1465
ag1331
ag1332
ag1333
ag1334
ag1466
ag1338
ag1339
ag1467
ag1342
ag1468
ag1345
ag1346
ag1347
ag1348
ag1349
a(lp1575
I589
ag1554
aasS'docName'
p1576
S'source-document00757.txt'
p1577
sb.