(iModel.Document
Document
p0
(dp1
S'fmap'
p2
(lp3
(lp4
I0
aI5
aS'posted'
p5
a(lp6
S'*'
p7
ag5
aaa(lp8
I0
aI5
ag5
a(lp9
g7
ag5
aaa(lp10
I0
aI5
ag5
a(lp11
g7
ag5
aaa(lp12
I0
aI5
ag5
a(lp13
g7
ag5
aaa(lp14
I10
aI11
aS'hr'
p15
a(lp16
g5
ag15
aaa(lp17
I10
aI11
ag15
a(lp18
g7
ag15
aaa(lp19
I10
aI11
ag15
a(lp20
g7
ag15
aaa(lp21
I10
aI11
ag15
a(lp22
g7
ag15
aaa(lp23
I17
aI25
aS'preparing'
p24
a(lp25
g15
ag24
aaa(lp26
I17
aI25
ag24
a(lp27
g5
ag24
aaa(lp28
I17
aI25
ag24
a(lp29
g7
ag24
aaa(lp30
I17
aI25
ag24
a(lp31
g7
ag24
aaa(lp32
I33
aI35
aS'job'
p33
a(lp34
g24
ag33
aaa(lp35
I33
aI35
ag33
a(lp36
g15
ag33
aaa(lp37
I33
aI35
ag33
a(lp38
g5
ag33
aaa(lp39
I33
aI35
ag33
a(lp40
g7
ag33
aaa(lp41
I37
aI45
aS'interview'
p42
a(lp43
g33
ag42
aaa(lp44
I37
aI45
ag42
a(lp45
g24
ag42
aaa(lp46
I37
aI45
ag42
a(lp47
g15
ag42
aaa(lp48
I37
aI45
ag42
a(lp49
g5
ag42
aaa(lp50
I55
aI60
aS'people'
p51
a(lp52
g42
ag51
aaa(lp53
I55
aI60
ag51
a(lp54
g33
ag51
aaa(lp55
I55
aI60
ag51
a(lp56
g24
ag51
aaa(lp57
I55
aI60
ag51
a(lp58
g15
ag51
aaa(lp59
I62
aI63
aS'go'
p60
a(lp61
g51
ag60
aaa(lp62
I62
aI63
ag60
a(lp63
g42
ag60
aaa(lp64
I62
aI63
ag60
a(lp65
g33
ag60
aaa(lp66
I62
aI63
ag60
a(lp67
g24
ag60
aaa(lp68
I68
aI73
aS'school'
p69
a(lp70
g60
ag69
aaa(lp71
I68
aI73
ag69
a(lp72
g51
ag69
aaa(lp73
I68
aI73
ag69
a(lp74
g42
ag69
aaa(lp75
I68
aI73
ag69
a(lp76
g33
ag69
aaa(lp77
I78
aI88
aS'preparation'
p78
a(lp79
g69
ag78
aaa(lp80
I78
aI88
ag78
a(lp81
g60
ag78
aaa(lp82
I78
aI88
ag78
a(lp83
g51
ag78
aaa(lp84
I78
aI88
ag78
a(lp85
g42
ag78
aaa(lp86
I96
aI101
aS'career'
p87
a(lp88
g78
ag87
aaa(lp89
I96
aI101
ag87
a(lp90
g69
ag87
aaa(lp91
I96
aI101
ag87
a(lp92
g60
ag87
aaa(lp93
I96
aI101
ag87
a(lp94
g51
ag87
aaa(lp95
I109
aI112
aS'also'
p96
a(lp97
g87
ag96
aaa(lp98
I109
aI112
ag96
a(lp99
g78
ag96
aaa(lp100
I109
aI112
ag96
a(lp101
g69
ag96
aaa(lp102
I109
aI112
ag96
a(lp103
g60
ag96
aaa(lp104
I114
aI117
aS'need'
p105
a(lp106
g96
ag105
aaa(lp107
I114
aI117
ag105
a(lp108
g87
ag105
aaa(lp109
I114
aI117
ag105
a(lp110
g78
ag105
aaa(lp111
I114
aI117
ag105
a(lp112
g69
ag105
aaa(lp113
I122
aI124
aS'put'
p114
a(lp115
g105
ag114
aaa(lp116
I122
aI124
ag114
a(lp117
g96
ag114
aaa(lp118
I122
aI124
ag114
a(lp119
g87
ag114
aaa(lp120
I122
aI124
ag114
a(lp121
g78
ag114
aaa(lp122
I126
aI131
aS'effort'
p123
a(lp124
g114
ag123
aaa(lp125
I126
aI131
ag123
a(lp126
g105
ag123
aaa(lp127
I126
aI131
ag123
a(lp128
g96
ag123
aaa(lp129
I126
aI131
ag123
a(lp130
g87
ag123
aaa(lp131
I138
aI146
aS'preparing'
p132
a(lp133
g123
ag132
aaa(lp134
I138
aI146
ag132
a(lp135
g114
ag132
aaa(lp136
I138
aI146
ag132
a(lp137
g105
ag132
aaa(lp138
I138
aI146
ag132
a(lp139
g96
ag132
aaa(lp140
I154
aI156
aS'job'
p141
a(lp142
g132
ag141
aaa(lp143
I154
aI156
ag141
a(lp144
g123
ag141
aaa(lp145
I154
aI156
ag141
a(lp146
g114
ag141
aaa(lp147
I154
aI156
ag141
a(lp148
g105
ag141
aaa(lp149
I158
aI166
aS'interview'
p150
a(lp151
g141
ag150
aaa(lp152
I158
aI166
ag150
a(lp153
g132
ag150
aaa(lp154
I158
aI166
ag150
a(lp155
g123
ag150
aaa(lp156
I158
aI166
ag150
a(lp157
g114
ag150
aaa(lp158
I169
aI173
aS'think'
p159
a(lp160
g150
ag159
aaa(lp161
I169
aI173
ag159
a(lp162
g141
ag159
aaa(lp163
I169
aI173
ag159
a(lp164
g132
ag159
aaa(lp165
I169
aI173
ag159
a(lp166
g123
ag159
aaa(lp167
I190
aI195
aS'moment'
p168
a(lp169
g159
ag168
aaa(lp170
I190
aI195
ag168
a(lp171
g150
ag168
aaa(lp172
I190
aI195
ag168
a(lp173
g141
ag168
aaa(lp174
I190
aI195
ag168
a(lp175
g132
ag168
aaa(lp176
I205
aI210
aS'people'
p177
a(lp178
g168
ag177
aaa(lp179
I205
aI210
ag177
a(lp180
g159
ag177
aaa(lp181
I205
aI210
ag177
a(lp182
g150
ag177
aaa(lp183
I205
aI210
ag177
a(lp184
g141
ag177
aaa(lp185
I212
aI213
aS'go'
p186
a(lp187
g177
ag186
aaa(lp188
I212
aI213
ag186
a(lp189
g168
ag186
aaa(lp190
I212
aI213
ag186
a(lp191
g159
ag186
aaa(lp192
I212
aI213
ag186
a(lp193
g150
ag186
aaa(lp194
I218
aI223
aS'school'
p195
a(lp196
g186
ag195
aaa(lp197
I218
aI223
ag195
a(lp198
g177
ag195
aaa(lp199
I218
aI223
ag195
a(lp200
g168
ag195
aaa(lp201
I218
aI223
ag195
a(lp202
g159
ag195
aaa(lp203
I233
aI236
aS'know'
p204
a(lp205
g195
ag204
aaa(lp206
I233
aI236
ag204
a(lp207
g186
ag204
aaa(lp208
I233
aI236
ag204
a(lp209
g177
ag204
aaa(lp210
I233
aI236
ag204
a(lp211
g168
ag204
aaa(lp212
I247
aI253
aS'primary'
p213
a(lp214
g204
ag213
aaa(lp215
I247
aI253
ag213
a(lp216
g195
ag213
aaa(lp217
I247
aI253
ag213
a(lp218
g186
ag213
aaa(lp219
I247
aI253
ag213
a(lp220
g177
ag213
aaa(lp221
I255
aI260
aS'reason'
p222
a(lp223
g213
ag222
aaa(lp224
I255
aI260
ag222
a(lp225
g204
ag222
aaa(lp226
I255
aI260
ag222
a(lp227
g195
ag222
aaa(lp228
I255
aI260
ag222
a(lp229
g186
ag222
aaa(lp230
I265
aI269
aS'basic'
p231
a(lp232
g222
ag231
aaa(lp233
I265
aI269
ag231
a(lp234
g213
ag231
aaa(lp235
I265
aI269
ag231
a(lp236
g204
ag231
aaa(lp237
I265
aI269
ag231
a(lp238
g195
ag231
aaa(lp239
I271
aI279
aS'education'
p240
a(lp241
g231
ag240
aaa(lp242
I271
aI279
ag240
a(lp243
g222
ag240
aaa(lp244
I271
aI279
ag240
a(lp245
g213
ag240
aaa(lp246
I271
aI279
ag240
a(lp247
g204
ag240
aaa(lp248
I285
aI292
aS'personal'
p249
a(lp250
g240
ag249
aaa(lp251
I285
aI292
ag249
a(lp252
g231
ag249
aaa(lp253
I285
aI292
ag249
a(lp254
g222
ag249
aaa(lp255
I285
aI292
ag249
a(lp256
g213
ag249
aaa(lp257
I294
aI299
aS'growth'
p258
a(lp259
g249
ag258
aaa(lp260
I294
aI299
ag258
a(lp261
g240
ag258
aaa(lp262
I294
aI299
ag258
a(lp263
g231
ag258
aaa(lp264
I294
aI299
ag258
a(lp265
g222
ag258
aaa(lp266
I305
aI315
aS'development'
p267
a(lp268
g258
ag267
aaa(lp269
I305
aI315
ag267
a(lp270
g249
ag267
aaa(lp271
I305
aI315
ag267
a(lp272
g240
ag267
aaa(lp273
I305
aI315
ag267
a(lp274
g231
ag267
aaa(lp275
I326
aI330
aS'still'
p276
a(lp277
g267
ag276
aaa(lp278
I326
aI330
ag276
a(lp279
g258
ag276
aaa(lp280
I326
aI330
ag276
a(lp281
g249
ag276
aaa(lp282
I326
aI330
ag276
a(lp283
g240
ag276
aaa(lp284
I336
aI338
aS'top'
p285
a(lp286
g276
ag285
aaa(lp287
I336
aI338
ag285
a(lp288
g267
ag285
aaa(lp289
I336
aI338
ag285
a(lp290
g258
ag285
aaa(lp291
I336
aI338
ag285
a(lp292
g249
ag285
aaa(lp293
I340
aI345
aS'reason'
p294
a(lp295
g285
ag294
aaa(lp296
I340
aI345
ag294
a(lp297
g276
ag294
aaa(lp298
I340
aI345
ag294
a(lp299
g267
ag294
aaa(lp300
I340
aI345
ag294
a(lp301
g258
ag294
aaa(lp302
I347
aI350
aS'even'
p303
a(lp304
g294
ag303
aaa(lp305
I347
aI350
ag303
a(lp306
g285
ag303
aaa(lp307
I347
aI350
ag303
a(lp308
g276
ag303
aaa(lp309
I347
aI350
ag303
a(lp310
g267
ag303
aaa(lp311
I358
aI361
aS'days'
p312
a(lp313
g303
ag312
aaa(lp314
I358
aI361
ag312
a(lp315
g294
ag312
aaa(lp316
I358
aI361
ag312
a(lp317
g285
ag312
aaa(lp318
I358
aI361
ag312
a(lp319
g276
ag312
aaa(lp320
I373
aI381
aS'practical'
p321
a(lp322
g312
ag321
aaa(lp323
I373
aI381
ag321
a(lp324
g303
ag321
aaa(lp325
I373
aI381
ag321
a(lp326
g294
ag321
aaa(lp327
I373
aI381
ag321
a(lp328
g285
ag321
aaa(lp329
I383
aI386
aS'days'
p330
a(lp331
g321
ag330
aaa(lp332
I383
aI386
ag330
a(lp333
g312
ag330
aaa(lp334
I383
aI386
ag330
a(lp335
g303
ag330
aaa(lp336
I383
aI386
ag330
a(lp337
g294
ag330
aaa(lp338
I388
aI394
aS'however'
p339
a(lp340
g330
ag339
aaa(lp341
I388
aI394
ag339
a(lp342
g321
ag339
aaa(lp343
I388
aI394
ag339
a(lp344
g312
ag339
aaa(lp345
I388
aI394
ag339
a(lp346
g303
ag339
aaa(lp347
I397
aI401
aS'going'
p348
a(lp349
g339
ag348
aaa(lp350
I397
aI401
ag348
a(lp351
g330
ag348
aaa(lp352
I397
aI401
ag348
a(lp353
g321
ag348
aaa(lp354
I397
aI401
ag348
a(lp355
g312
ag348
aaa(lp356
I406
aI411
aS'school'
p357
a(lp358
g348
ag357
aaa(lp359
I406
aI411
ag357
a(lp360
g339
ag357
aaa(lp361
I406
aI411
ag357
a(lp362
g330
ag357
aaa(lp363
I406
aI411
ag357
a(lp364
g321
ag357
aaa(lp365
I426
aI436
aS'preparation'
p366
a(lp367
g357
ag366
aaa(lp368
I426
aI436
ag366
a(lp369
g348
ag366
aaa(lp370
I426
aI436
ag366
a(lp371
g339
ag366
aaa(lp372
I426
aI436
ag366
a(lp373
g330
ag366
aaa(lp374
I446
aI451
aS'future'
p375
a(lp376
g366
ag375
aaa(lp377
I446
aI451
ag375
a(lp378
g357
ag375
aaa(lp379
I446
aI451
ag375
a(lp380
g348
ag375
aaa(lp381
I446
aI451
ag375
a(lp382
g339
ag375
aaa(lp383
I456
aI461
aS'future'
p384
a(lp385
g375
ag384
aaa(lp386
I456
aI461
ag384
a(lp387
g366
ag384
aaa(lp388
I456
aI461
ag384
a(lp389
g357
ag384
aaa(lp390
I456
aI461
ag384
a(lp391
g348
ag384
aaa(lp392
I471
aI480
aS'envisioned'
p393
a(lp394
g384
ag393
aaa(lp395
I471
aI480
ag393
a(lp396
g375
ag393
aaa(lp397
I471
aI480
ag393
a(lp398
g366
ag393
aaa(lp399
I471
aI480
ag393
a(lp400
g357
ag393
aaa(lp401
I488
aI493
aS'better'
p402
a(lp403
g393
ag402
aaa(lp404
I488
aI493
ag402
a(lp405
g384
ag402
aaa(lp406
I488
aI493
ag402
a(lp407
g375
ag402
aaa(lp408
I488
aI493
ag402
a(lp409
g366
ag402
aaa(lp410
I518
aI524
aS'parents'
p411
a(lp412
g402
ag411
aaa(lp413
I518
aI524
ag411
a(lp414
g393
ag411
aaa(lp415
I518
aI524
ag411
a(lp416
g384
ag411
aaa(lp417
I518
aI524
ag411
a(lp418
g375
ag411
aaa(lp419
I526
aI529
aS'want'
p420
a(lp421
g411
ag420
aaa(lp422
I526
aI529
ag420
a(lp423
g402
ag420
aaa(lp424
I526
aI529
ag420
a(lp425
g393
ag420
aaa(lp426
I526
aI529
ag420
a(lp427
g384
ag420
aaa(lp428
I541
aI548
aS'children'
p429
a(lp430
g420
ag429
aaa(lp431
I541
aI548
ag429
a(lp432
g411
ag429
aaa(lp433
I541
aI548
ag429
a(lp434
g402
ag429
aaa(lp435
I541
aI548
ag429
a(lp436
g393
ag429
aaa(lp437
I551
aI557
aS'getting'
p438
a(lp439
g429
ag438
aaa(lp440
I551
aI557
ag438
a(lp441
g420
ag438
aaa(lp442
I551
aI557
ag438
a(lp443
g411
ag438
aaa(lp444
I551
aI557
ag438
a(lp445
g402
ag438
aaa(lp446
I561
aI567
aS'college'
p447
a(lp448
g438
ag447
aaa(lp449
I561
aI567
ag447
a(lp450
g429
ag447
aaa(lp451
I561
aI567
ag447
a(lp452
g420
ag447
aaa(lp453
I561
aI567
ag447
a(lp454
g411
ag447
aaa(lp455
I569
aI574
aS'degree'
p456
a(lp457
g447
ag456
aaa(lp458
I569
aI574
ag456
a(lp459
g438
ag456
aaa(lp460
I569
aI574
ag456
a(lp461
g429
ag456
aaa(lp462
I569
aI574
ag456
a(lp463
g420
ag456
aaa(lp464
I580
aI586
aS'landing'
p465
a(lp466
g456
ag465
aaa(lp467
I580
aI586
ag465
a(lp468
g447
ag465
aaa(lp469
I580
aI586
ag465
a(lp470
g438
ag465
aaa(lp471
I580
aI586
ag465
a(lp472
g429
ag465
aaa(lp473
I590
aI595
aS'stable'
p474
a(lp475
g465
ag474
aaa(lp476
I590
aI595
ag474
a(lp477
g456
ag474
aaa(lp478
I590
aI595
ag474
a(lp479
g447
ag474
aaa(lp480
I590
aI595
ag474
a(lp481
g438
ag474
aaa(lp482
I597
aI599
aS'job'
p483
a(lp484
g474
ag483
aaa(lp485
I597
aI599
ag483
a(lp486
g465
ag483
aaa(lp487
I597
aI599
ag483
a(lp488
g456
ag483
aaa(lp489
I597
aI599
ag483
a(lp490
g447
ag483
aaa(lp491
I614
aI618
aS'dream'
p492
a(lp493
g483
ag492
aaa(lp494
I614
aI618
ag492
a(lp495
g474
ag492
aaa(lp496
I614
aI618
ag492
a(lp497
g465
ag492
aaa(lp498
I614
aI618
ag492
a(lp499
g456
ag492
aaasS'wordMap'
p500
(lp501
(lp502
I0
aI5
ag5
a(lp503
(lp504
I0
aS'p'
p505
aa(lp506
I1
aS'o'
p507
aa(lp508
I2
aS's'
p509
aa(lp510
I3
aS't'
p511
aa(lp512
I4
aS'e'
p513
aa(lp514
I5
aS'd'
p515
aaaa(lp516
I7
aI8
aS'by'
p517
a(lp518
(lp519
I7
aS'b'
p520
aa(lp521
I8
aS'y'
p522
aaaa(lp523
I10
aI11
ag15
a(lp524
(lp525
I10
aS'h'
p526
aa(lp527
I11
aS'r'
p528
aaaa(lp529
I17
aI25
ag24
a(lp530
(lp531
I17
ag505
aa(lp532
I18
ag528
aa(lp533
I19
ag513
aa(lp534
I20
ag505
aa(lp535
I21
aS'a'
p536
aa(lp537
I22
ag528
aa(lp538
I23
aS'i'
p539
aa(lp540
I24
aS'n'
p541
aa(lp542
I25
aS'g'
p543
aaaa(lp544
I27
aI29
aS'for'
p545
a(lp546
(lp547
I27
aS'f'
p548
aa(lp549
I28
ag507
aa(lp550
I29
ag528
aaaa(lp551
I31
aI31
ag536
a(lp552
(lp553
I31
ag536
aaaa(lp554
I33
aI35
ag33
a(lp555
(lp556
I33
aS'j'
p557
aa(lp558
I34
ag507
aa(lp559
I35
ag520
aaaa(lp560
I37
aI45
ag42
a(lp561
(lp562
I37
ag539
aa(lp563
I38
ag541
aa(lp564
I39
ag511
aa(lp565
I40
ag513
aa(lp566
I41
ag528
aa(lp567
I42
aS'v'
p568
aa(lp569
I43
ag539
aa(lp570
I44
ag513
aa(lp571
I45
aS'w'
p572
aaaa(lp573
I47
aI50
aS'just'
p574
a(lp575
(lp576
I47
ag557
aa(lp577
I48
aS'u'
p578
aa(lp579
I49
ag509
aa(lp580
I50
ag511
aaaa(lp581
I52
aI53
aS'as'
p582
a(lp583
(lp584
I52
ag536
aa(lp585
I53
ag509
aaaa(lp586
I55
aI60
ag51
a(lp587
(lp588
I55
ag505
aa(lp589
I56
ag513
aa(lp590
I57
ag507
aa(lp591
I58
ag505
aa(lp592
I59
aS'l'
p593
aa(lp594
I60
ag513
aaaa(lp595
I62
aI63
ag60
a(lp596
(lp597
I62
ag543
aa(lp598
I63
ag507
aaaa(lp599
I65
aI66
aS'to'
p600
a(lp601
(lp602
I65
ag511
aa(lp603
I66
ag507
aaaa(lp604
I68
aI73
ag69
a(lp605
(lp606
I68
ag509
aa(lp607
I69
aS'c'
p608
aa(lp609
I70
ag526
aa(lp610
I71
ag507
aa(lp611
I72
ag507
aa(lp612
I73
ag593
aaaa(lp613
I75
aI76
aS'as'
p614
a(lp615
(lp616
I75
ag536
aa(lp617
I76
ag509
aaaa(lp618
I78
aI88
ag78
a(lp619
(lp620
I78
ag505
aa(lp621
I79
ag528
aa(lp622
I80
ag513
aa(lp623
I81
ag505
aa(lp624
I82
ag536
aa(lp625
I83
ag528
aa(lp626
I84
ag536
aa(lp627
I85
ag511
aa(lp628
I86
ag539
aa(lp629
I87
ag507
aa(lp630
I88
ag541
aaaa(lp631
I90
aI92
aS'for'
p632
a(lp633
(lp634
I90
ag548
aa(lp635
I91
ag507
aa(lp636
I92
ag528
aaaa(lp637
I94
aI94
ag536
a(lp638
(lp639
I94
ag536
aaaa(lp640
I96
aI101
ag87
a(lp641
(lp642
I96
ag608
aa(lp643
I97
ag536
aa(lp644
I98
ag528
aa(lp645
I99
ag513
aa(lp646
I100
ag513
aa(lp647
I101
ag528
aaaa(lp648
I104
aI107
aS'they'
p649
a(lp650
(lp651
I104
ag511
aa(lp652
I105
ag526
aa(lp653
I106
ag513
aa(lp654
I107
ag522
aaaa(lp655
I109
aI112
ag96
a(lp656
(lp657
I109
ag536
aa(lp658
I110
ag593
aa(lp659
I111
ag509
aa(lp660
I112
ag507
aaaa(lp661
I114
aI117
ag105
a(lp662
(lp663
I114
ag541
aa(lp664
I115
ag513
aa(lp665
I116
ag513
aa(lp666
I117
ag515
aaaa(lp667
I119
aI120
aS'to'
p668
a(lp669
(lp670
I119
ag511
aa(lp671
I120
ag507
aaaa(lp672
I122
aI124
ag114
a(lp673
(lp674
I122
ag505
aa(lp675
I123
ag578
aa(lp676
I124
ag511
aaaa(lp677
I126
aI131
ag123
a(lp678
(lp679
I126
ag513
aa(lp680
I127
ag548
aa(lp681
I128
ag548
aa(lp682
I129
ag507
aa(lp683
I130
ag528
aa(lp684
I131
ag511
aaaa(lp685
I133
aI136
aS'into'
p686
a(lp687
(lp688
I133
ag539
aa(lp689
I134
ag541
aa(lp690
I135
ag511
aa(lp691
I136
ag507
aaaa(lp692
I138
aI146
ag132
a(lp693
(lp694
I138
ag505
aa(lp695
I139
ag528
aa(lp696
I140
ag513
aa(lp697
I141
ag505
aa(lp698
I142
ag536
aa(lp699
I143
ag528
aa(lp700
I144
ag539
aa(lp701
I145
ag541
aa(lp702
I146
ag543
aaaa(lp703
I148
aI150
aS'for'
p704
a(lp705
(lp706
I148
ag548
aa(lp707
I149
ag507
aa(lp708
I150
ag528
aaaa(lp709
I152
aI152
ag536
a(lp710
(lp711
I152
ag536
aaaa(lp712
I154
aI156
ag141
a(lp713
(lp714
I154
ag557
aa(lp715
I155
ag507
aa(lp716
I156
ag520
aaaa(lp717
I158
aI166
ag150
a(lp718
(lp719
I158
ag539
aa(lp720
I159
ag541
aa(lp721
I160
ag511
aa(lp722
I161
ag513
aa(lp723
I162
ag528
aa(lp724
I163
ag568
aa(lp725
I164
ag539
aa(lp726
I165
ag513
aa(lp727
I166
ag572
aaaa(lp728
I169
aI173
ag159
a(lp729
(lp730
I169
ag511
aa(lp731
I170
ag526
aa(lp732
I171
ag539
aa(lp733
I172
ag541
aa(lp734
I173
aS'k'
p735
aaaa(lp736
I175
aI179
aS'about'
p737
a(lp738
(lp739
I175
ag536
aa(lp740
I176
ag520
aa(lp741
I177
ag507
aa(lp742
I178
ag578
aa(lp743
I179
ag511
aaaa(lp744
I181
aI182
aS'it'
p745
a(lp746
(lp747
I181
ag539
aa(lp748
I182
ag511
aaaa(lp749
I184
aI186
aS'for'
p750
a(lp751
(lp752
I184
ag548
aa(lp753
I185
ag507
aa(lp754
I186
ag528
aaaa(lp755
I188
aI188
ag536
a(lp756
(lp757
I188
ag536
aaaa(lp758
I190
aI195
ag168
a(lp759
(lp760
I190
aS'm'
p761
aa(lp762
I191
ag507
aa(lp763
I192
ag761
aa(lp764
I193
ag513
aa(lp765
I194
ag541
aa(lp766
I195
ag511
aaaa(lp767
I198
aI200
aS'why'
p768
a(lp769
(lp770
I198
ag572
aa(lp771
I199
ag526
aa(lp772
I200
ag522
aaaa(lp773
I202
aI203
aS'do'
p774
a(lp775
(lp776
I202
ag515
aa(lp777
I203
ag507
aaaa(lp778
I205
aI210
ag177
a(lp779
(lp780
I205
ag505
aa(lp781
I206
ag513
aa(lp782
I207
ag507
aa(lp783
I208
ag505
aa(lp784
I209
ag593
aa(lp785
I210
ag513
aaaa(lp786
I212
aI213
ag186
a(lp787
(lp788
I212
ag543
aa(lp789
I213
ag507
aaaa(lp790
I215
aI216
aS'to'
p791
a(lp792
(lp793
I215
ag511
aa(lp794
I216
ag507
aaaa(lp795
I218
aI223
ag195
a(lp796
(lp797
I218
ag509
aa(lp798
I219
ag608
aa(lp799
I220
ag526
aa(lp800
I221
ag507
aa(lp801
I222
ag507
aa(lp802
I223
ag593
aaaa(lp803
I226
aI227
aS'we'
p804
a(lp805
(lp806
I226
ag572
aa(lp807
I227
ag513
aaaa(lp808
I229
aI231
aS'all'
p809
a(lp810
(lp811
I229
ag536
aa(lp812
I230
ag593
aa(lp813
I231
ag593
aaaa(lp814
I233
aI236
ag204
a(lp815
(lp816
I233
ag735
aa(lp817
I234
ag541
aa(lp818
I235
ag507
aa(lp819
I236
ag572
aaaa(lp820
I238
aI241
aS'that'
p821
a(lp822
(lp823
I238
ag511
aa(lp824
I239
ag526
aa(lp825
I240
ag536
aa(lp826
I241
ag511
aaaa(lp827
I243
aI245
aS'the'
p828
a(lp829
(lp830
I243
ag511
aa(lp831
I244
ag526
aa(lp832
I245
ag513
aaaa(lp833
I247
aI253
ag213
a(lp834
(lp835
I247
ag505
aa(lp836
I248
ag528
aa(lp837
I249
ag539
aa(lp838
I250
ag761
aa(lp839
I251
ag536
aa(lp840
I252
ag528
aa(lp841
I253
ag522
aaaa(lp842
I255
aI260
ag222
a(lp843
(lp844
I255
ag528
aa(lp845
I256
ag513
aa(lp846
I257
ag536
aa(lp847
I258
ag509
aa(lp848
I259
ag507
aa(lp849
I260
ag541
aaaa(lp850
I262
aI263
aS'is'
p851
a(lp852
(lp853
I262
ag539
aa(lp854
I263
ag509
aaaa(lp855
I265
aI269
ag231
a(lp856
(lp857
I265
ag520
aa(lp858
I266
ag536
aa(lp859
I267
ag509
aa(lp860
I268
ag539
aa(lp861
I269
ag608
aaaa(lp862
I271
aI279
ag240
a(lp863
(lp864
I271
ag513
aa(lp865
I272
ag515
aa(lp866
I273
ag578
aa(lp867
I274
ag608
aa(lp868
I275
ag536
aa(lp869
I276
ag511
aa(lp870
I277
ag539
aa(lp871
I278
ag507
aa(lp872
I279
ag541
aaaa(lp873
I281
aI283
aS'for'
p874
a(lp875
(lp876
I281
ag548
aa(lp877
I282
ag507
aa(lp878
I283
ag528
aaaa(lp879
I285
aI292
ag249
a(lp880
(lp881
I285
ag505
aa(lp882
I286
ag513
aa(lp883
I287
ag528
aa(lp884
I288
ag509
aa(lp885
I289
ag507
aa(lp886
I290
ag541
aa(lp887
I291
ag536
aa(lp888
I292
ag593
aaaa(lp889
I294
aI299
ag258
a(lp890
(lp891
I294
ag543
aa(lp892
I295
ag528
aa(lp893
I296
ag507
aa(lp894
I297
ag572
aa(lp895
I298
ag511
aa(lp896
I299
ag526
aaaa(lp897
I301
aI303
aS'and'
p898
a(lp899
(lp900
I301
ag536
aa(lp901
I302
ag541
aa(lp902
I303
ag515
aaaa(lp903
I305
aI315
ag267
a(lp904
(lp905
I305
ag515
aa(lp906
I306
ag513
aa(lp907
I307
ag568
aa(lp908
I308
ag513
aa(lp909
I309
ag593
aa(lp910
I310
ag507
aa(lp911
I311
ag505
aa(lp912
I312
ag761
aa(lp913
I313
ag513
aa(lp914
I314
ag541
aa(lp915
I315
ag511
aaaa(lp916
I318
aI321
aS'this'
p917
a(lp918
(lp919
I318
ag511
aa(lp920
I319
ag526
aa(lp921
I320
ag539
aa(lp922
I321
ag509
aaaa(lp923
I323
aI324
aS'is'
p924
a(lp925
(lp926
I323
ag539
aa(lp927
I324
ag509
aaaa(lp928
I326
aI330
ag276
a(lp929
(lp930
I326
ag509
aa(lp931
I327
ag511
aa(lp932
I328
ag539
aa(lp933
I329
ag593
aa(lp934
I330
ag593
aaaa(lp935
I332
aI334
aS'the'
p936
a(lp937
(lp938
I332
ag511
aa(lp939
I333
ag526
aa(lp940
I334
ag513
aaaa(lp941
I336
aI338
ag285
a(lp942
(lp943
I336
ag511
aa(lp944
I337
ag507
aa(lp945
I338
ag505
aaaa(lp946
I340
aI345
ag294
a(lp947
(lp948
I340
ag528
aa(lp949
I341
ag513
aa(lp950
I342
ag536
aa(lp951
I343
ag509
aa(lp952
I344
ag507
aa(lp953
I345
ag541
aaaa(lp954
I347
aI350
ag303
a(lp955
(lp956
I347
ag513
aa(lp957
I348
ag568
aa(lp958
I349
ag513
aa(lp959
I350
ag541
aaaa(lp960
I352
aI356
aS'these'
p961
a(lp962
(lp963
I352
ag511
aa(lp964
I353
ag526
aa(lp965
I354
ag513
aa(lp966
I355
ag509
aa(lp967
I356
ag513
aaaa(lp968
I358
aI361
ag312
a(lp969
(lp970
I358
ag515
aa(lp971
I359
ag536
aa(lp972
I360
ag522
aa(lp973
I361
ag509
aaaa(lp974
I364
aI365
aS'in'
p975
a(lp976
(lp977
I364
ag539
aa(lp978
I365
ag541
aaaa(lp979
I367
aI371
aS'these'
p980
a(lp981
(lp982
I367
ag511
aa(lp983
I368
ag526
aa(lp984
I369
ag513
aa(lp985
I370
ag509
aa(lp986
I371
ag513
aaaa(lp987
I373
aI381
ag321
a(lp988
(lp989
I373
ag505
aa(lp990
I374
ag528
aa(lp991
I375
ag536
aa(lp992
I376
ag608
aa(lp993
I377
ag511
aa(lp994
I378
ag539
aa(lp995
I379
ag608
aa(lp996
I380
ag536
aa(lp997
I381
ag593
aaaa(lp998
I383
aI386
ag330
a(lp999
(lp1000
I383
ag515
aa(lp1001
I384
ag536
aa(lp1002
I385
ag522
aa(lp1003
I386
ag509
aaaa(lp1004
I388
aI394
ag339
a(lp1005
(lp1006
I388
ag526
aa(lp1007
I389
ag507
aa(lp1008
I390
ag572
aa(lp1009
I391
ag513
aa(lp1010
I392
ag568
aa(lp1011
I393
ag513
aa(lp1012
I394
ag528
aaaa(lp1013
I397
aI401
ag348
a(lp1014
(lp1015
I397
ag543
aa(lp1016
I398
ag507
aa(lp1017
I399
ag539
aa(lp1018
I400
ag541
aa(lp1019
I401
ag543
aaaa(lp1020
I403
aI404
aS'to'
p1021
a(lp1022
(lp1023
I403
ag511
aa(lp1024
I404
ag507
aaaa(lp1025
I406
aI411
ag357
a(lp1026
(lp1027
I406
ag509
aa(lp1028
I407
ag608
aa(lp1029
I408
ag526
aa(lp1030
I409
ag507
aa(lp1031
I410
ag507
aa(lp1032
I411
ag593
aaaa(lp1033
I413
aI414
aS'is'
p1034
a(lp1035
(lp1036
I413
ag539
aa(lp1037
I414
ag509
aaaa(lp1038
I416
aI419
aS'more'
p1039
a(lp1040
(lp1041
I416
ag761
aa(lp1042
I417
ag507
aa(lp1043
I418
ag528
aa(lp1044
I419
ag513
aaaa(lp1045
I421
aI422
aS'of'
p1046
a(lp1047
(lp1048
I421
ag507
aa(lp1049
I422
ag548
aaaa(lp1050
I424
aI424
ag536
a(lp1051
(lp1052
I424
ag536
aaaa(lp1053
I426
aI436
ag366
a(lp1054
(lp1055
I426
ag505
aa(lp1056
I427
ag528
aa(lp1057
I428
ag513
aa(lp1058
I429
ag505
aa(lp1059
I430
ag536
aa(lp1060
I431
ag528
aa(lp1061
I432
ag536
aa(lp1062
I433
ag511
aa(lp1063
I434
ag539
aa(lp1064
I435
ag507
aa(lp1065
I436
ag541
aaaa(lp1066
I438
aI440
aS'for'
p1067
a(lp1068
(lp1069
I438
ag548
aa(lp1070
I439
ag507
aa(lp1071
I440
ag528
aaaa(lp1072
I442
aI444
aS'the'
p1073
a(lp1074
(lp1075
I442
ag511
aa(lp1076
I443
ag526
aa(lp1077
I444
ag513
aaaa(lp1078
I446
aI451
ag375
a(lp1079
(lp1080
I446
ag548
aa(lp1081
I447
ag578
aa(lp1082
I448
ag511
aa(lp1083
I449
ag578
aa(lp1084
I450
ag528
aa(lp1085
I451
ag513
aaaa(lp1086
I454
aI454
ag536
a(lp1087
(lp1088
I454
ag536
aaaa(lp1089
I456
aI461
ag384
a(lp1090
(lp1091
I456
ag548
aa(lp1092
I457
ag578
aa(lp1093
I458
ag511
aa(lp1094
I459
ag578
aa(lp1095
I460
ag528
aa(lp1096
I461
ag513
aaaa(lp1097
I463
aI466
aS'that'
p1098
a(lp1099
(lp1100
I463
ag511
aa(lp1101
I464
ag526
aa(lp1102
I465
ag536
aa(lp1103
I466
ag511
aaaa(lp1104
I468
aI469
aS'is'
p1105
a(lp1106
(lp1107
I468
ag539
aa(lp1108
I469
ag509
aaaa(lp1109
I471
aI480
ag393
a(lp1110
(lp1111
I471
ag513
aa(lp1112
I472
ag541
aa(lp1113
I473
ag568
aa(lp1114
I474
ag539
aa(lp1115
I475
ag509
aa(lp1116
I476
ag539
aa(lp1117
I477
ag507
aa(lp1118
I478
ag541
aa(lp1119
I479
ag513
aa(lp1120
I480
ag515
aaaa(lp1121
I482
aI483
aS'to'
p1122
a(lp1123
(lp1124
I482
ag511
aa(lp1125
I483
ag507
aaaa(lp1126
I485
aI486
aS'be'
p1127
a(lp1128
(lp1129
I485
ag520
aa(lp1130
I486
ag513
aaaa(lp1131
I488
aI493
ag402
a(lp1132
(lp1133
I488
ag520
aa(lp1134
I489
ag513
aa(lp1135
I490
ag511
aa(lp1136
I491
ag511
aa(lp1137
I492
ag513
aa(lp1138
I493
ag528
aaaa(lp1139
I495
aI498
aS'than'
p1140
a(lp1141
(lp1142
I495
ag511
aa(lp1143
I496
ag526
aa(lp1144
I497
ag536
aa(lp1145
I498
ag541
aaaa(lp1146
I500
aI504
aS'their'
p1147
a(lp1148
(lp1149
I500
ag511
aa(lp1150
I501
ag526
aa(lp1151
I502
ag513
aa(lp1152
I503
ag539
aa(lp1153
I504
ag528
aaaa(lp1154
I506
aI508
aS'own'
p1155
a(lp1156
(lp1157
I506
ag507
aa(lp1158
I507
ag572
aa(lp1159
I508
ag541
aaaa(lp1160
I510
aI511
aS'is'
p1161
a(lp1162
(lp1163
I510
ag539
aa(lp1164
I511
ag509
aaaa(lp1165
I513
aI516
aS'what'
p1166
a(lp1167
(lp1168
I513
ag572
aa(lp1169
I514
ag526
aa(lp1170
I515
ag536
aa(lp1171
I516
ag511
aaaa(lp1172
I518
aI524
ag411
a(lp1173
(lp1174
I518
ag505
aa(lp1175
I519
ag536
aa(lp1176
I520
ag528
aa(lp1177
I521
ag513
aa(lp1178
I522
ag541
aa(lp1179
I523
ag511
aa(lp1180
I524
ag509
aaaa(lp1181
I526
aI529
ag420
a(lp1182
(lp1183
I526
ag572
aa(lp1184
I527
ag536
aa(lp1185
I528
ag541
aa(lp1186
I529
ag511
aaaa(lp1187
I531
aI533
aS'for'
p1188
a(lp1189
(lp1190
I531
ag548
aa(lp1191
I532
ag507
aa(lp1192
I533
ag528
aaaa(lp1193
I535
aI539
aS'their'
p1194
a(lp1195
(lp1196
I535
ag511
aa(lp1197
I536
ag526
aa(lp1198
I537
ag513
aa(lp1199
I538
ag539
aa(lp1200
I539
ag528
aaaa(lp1201
I541
aI548
ag429
a(lp1202
(lp1203
I541
ag608
aa(lp1204
I542
ag526
aa(lp1205
I543
ag539
aa(lp1206
I544
ag593
aa(lp1207
I545
ag515
aa(lp1208
I546
ag528
aa(lp1209
I547
ag513
aa(lp1210
I548
ag541
aaaa(lp1211
I551
aI557
ag438
a(lp1212
(lp1213
I551
ag543
aa(lp1214
I552
ag513
aa(lp1215
I553
ag511
aa(lp1216
I554
ag511
aa(lp1217
I555
ag539
aa(lp1218
I556
ag541
aa(lp1219
I557
ag543
aaaa(lp1220
I559
aI559
ag536
a(lp1221
(lp1222
I559
ag536
aaaa(lp1223
I561
aI567
ag447
a(lp1224
(lp1225
I561
ag608
aa(lp1226
I562
ag507
aa(lp1227
I563
ag593
aa(lp1228
I564
ag593
aa(lp1229
I565
ag513
aa(lp1230
I566
ag543
aa(lp1231
I567
ag513
aaaa(lp1232
I569
aI574
ag456
a(lp1233
(lp1234
I569
ag515
aa(lp1235
I570
ag513
aa(lp1236
I571
ag543
aa(lp1237
I572
ag528
aa(lp1238
I573
ag513
aa(lp1239
I574
ag513
aaaa(lp1240
I576
aI578
aS'and'
p1241
a(lp1242
(lp1243
I576
ag536
aa(lp1244
I577
ag541
aa(lp1245
I578
ag515
aaaa(lp1246
I580
aI586
ag465
a(lp1247
(lp1248
I580
ag593
aa(lp1249
I581
ag536
aa(lp1250
I582
ag541
aa(lp1251
I583
ag515
aa(lp1252
I584
ag539
aa(lp1253
I585
ag541
aa(lp1254
I586
ag543
aaaa(lp1255
I588
aI588
ag536
a(lp1256
(lp1257
I588
ag536
aaaa(lp1258
I590
aI595
ag474
a(lp1259
(lp1260
I590
ag509
aa(lp1261
I591
ag511
aa(lp1262
I592
ag536
aa(lp1263
I593
ag520
aa(lp1264
I594
ag593
aa(lp1265
I595
ag513
aaaa(lp1266
I597
aI599
ag483
a(lp1267
(lp1268
I597
ag557
aa(lp1269
I598
ag507
aa(lp1270
I599
ag520
aaaa(lp1271
I601
aI602
aS'is'
p1272
a(lp1273
(lp1274
I601
ag539
aa(lp1275
I602
ag509
aaaa(lp1276
I604
aI607
aS'what'
p1277
a(lp1278
(lp1279
I604
ag572
aa(lp1280
I605
ag526
aa(lp1281
I606
ag536
aa(lp1282
I607
ag511
aaaa(lp1283
I609
aI612
aS'they'
p1284
a(lp1285
(lp1286
I609
ag511
aa(lp1287
I610
ag526
aa(lp1288
I611
ag513
aa(lp1289
I612
ag522
aaaa(lp1290
I614
aI618
ag492
a(lp1291
(lp1292
I614
ag515
aa(lp1293
I615
ag528
aa(lp1294
I616
ag513
aa(lp1295
I617
ag536
aa(lp1296
I618
ag761
aaaa(lp1297
I614
aI618
aS'of'
p1298
a(lp1299
(lp1300
I620
ag507
aa(lp1301
I621
ag548
aaaasS'cleanCharacterMap'
p1302
(lp1303
g504
ag506
ag508
ag510
ag512
ag514
a(lp1304
I6
aS' '
p1305
aag519
ag521
a(lp1306
I9
ag1305
aag525
ag527
a(lp1307
I12
ag1305
aa(lp1308
I14
ag1305
aa(lp1309
I16
ag1305
aag531
ag532
ag533
ag534
ag535
ag537
ag538
ag540
ag542
a(lp1310
I26
ag1305
aag547
ag549
ag550
a(lp1311
I30
ag1305
aag553
a(lp1312
I32
ag1305
aag556
ag558
ag559
a(lp1313
I36
ag1305
aag562
ag563
ag564
ag565
ag566
ag567
ag569
ag570
ag571
a(lp1314
I46
ag1305
aag576
ag577
ag579
ag580
a(lp1315
I51
ag1305
aag584
ag585
a(lp1316
I54
ag1305
aag588
ag589
ag590
ag591
ag592
ag594
a(lp1317
I61
ag1305
aag597
ag598
a(lp1318
I64
ag1305
aag602
ag603
a(lp1319
I67
ag1305
aag606
ag607
ag609
ag610
ag611
ag612
a(lp1320
I74
ag1305
aag616
ag617
a(lp1321
I77
ag1305
aag620
ag621
ag622
ag623
ag624
ag625
ag626
ag627
ag628
ag629
ag630
a(lp1322
I89
ag1305
aag634
ag635
ag636
a(lp1323
I93
ag1305
aag639
a(lp1324
I95
ag1305
aag642
ag643
ag644
ag645
ag646
ag647
a(lp1325
I103
ag1305
aag651
ag652
ag653
ag654
a(lp1326
I108
ag1305
aag657
ag658
ag659
ag660
a(lp1327
I113
ag1305
aag663
ag664
ag665
ag666
a(lp1328
I118
ag1305
aag670
ag671
a(lp1329
I121
ag1305
aag674
ag675
ag676
a(lp1330
I125
ag1305
aag679
ag680
ag681
ag682
ag683
ag684
a(lp1331
I132
ag1305
aag688
ag689
ag690
ag691
a(lp1332
I137
ag1305
aag694
ag695
ag696
ag697
ag698
ag699
ag700
ag701
ag702
a(lp1333
I147
ag1305
aag706
ag707
ag708
a(lp1334
I151
ag1305
aag711
a(lp1335
I153
ag1305
aag714
ag715
ag716
a(lp1336
I157
ag1305
aag719
ag720
ag721
ag722
ag723
ag724
ag725
ag726
ag727
a(lp1337
I168
ag1305
aag730
ag731
ag732
ag733
ag734
a(lp1338
I174
ag1305
aag739
ag740
ag741
ag742
ag743
a(lp1339
I180
ag1305
aag747
ag748
a(lp1340
I183
ag1305
aag752
ag753
ag754
a(lp1341
I187
ag1305
aag757
a(lp1342
I189
ag1305
aag760
ag762
ag763
ag764
ag765
ag766
a(lp1343
I197
ag1305
aag770
ag771
ag772
a(lp1344
I201
ag1305
aag776
ag777
a(lp1345
I204
ag1305
aag780
ag781
ag782
ag783
ag784
ag785
a(lp1346
I211
ag1305
aag788
ag789
a(lp1347
I214
ag1305
aag793
ag794
a(lp1348
I217
ag1305
aag797
ag798
ag799
ag800
ag801
ag802
a(lp1349
I225
ag1305
aag806
ag807
a(lp1350
I228
ag1305
aag811
ag812
ag813
a(lp1351
I232
ag1305
aag816
ag817
ag818
ag819
a(lp1352
I237
ag1305
aag823
ag824
ag825
ag826
a(lp1353
I242
ag1305
aag830
ag831
ag832
a(lp1354
I246
ag1305
aag835
ag836
ag837
ag838
ag839
ag840
ag841
a(lp1355
I254
ag1305
aag844
ag845
ag846
ag847
ag848
ag849
a(lp1356
I261
ag1305
aag853
ag854
a(lp1357
I264
ag1305
aag857
ag858
ag859
ag860
ag861
a(lp1358
I270
ag1305
aag864
ag865
ag866
ag867
ag868
ag869
ag870
ag871
ag872
a(lp1359
I280
ag1305
aag876
ag877
ag878
a(lp1360
I284
ag1305
aag881
ag882
ag883
ag884
ag885
ag886
ag887
ag888
a(lp1361
I293
ag1305
aag891
ag892
ag893
ag894
ag895
ag896
a(lp1362
I300
ag1305
aag900
ag901
ag902
a(lp1363
I304
ag1305
aag905
ag906
ag907
ag908
ag909
ag910
ag911
ag912
ag913
ag914
ag915
a(lp1364
I317
ag1305
aag919
ag920
ag921
ag922
a(lp1365
I322
ag1305
aag926
ag927
a(lp1366
I325
ag1305
aag930
ag931
ag932
ag933
ag934
a(lp1367
I331
ag1305
aag938
ag939
ag940
a(lp1368
I335
ag1305
aag943
ag944
ag945
a(lp1369
I339
ag1305
aag948
ag949
ag950
ag951
ag952
ag953
a(lp1370
I346
ag1305
aag956
ag957
ag958
ag959
a(lp1371
I351
ag1305
aag963
ag964
ag965
ag966
ag967
a(lp1372
I357
ag1305
aag970
ag971
ag972
ag973
a(lp1373
I363
ag1305
aag977
ag978
a(lp1374
I366
ag1305
aag982
ag983
ag984
ag985
ag986
a(lp1375
I372
ag1305
aag989
ag990
ag991
ag992
ag993
ag994
ag995
ag996
ag997
a(lp1376
I382
ag1305
aag1000
ag1001
ag1002
ag1003
a(lp1377
I387
ag1305
aag1006
ag1007
ag1008
ag1009
ag1010
ag1011
ag1012
a(lp1378
I396
ag1305
aag1015
ag1016
ag1017
ag1018
ag1019
a(lp1379
I402
ag1305
aag1023
ag1024
a(lp1380
I405
ag1305
aag1027
ag1028
ag1029
ag1030
ag1031
ag1032
a(lp1381
I412
ag1305
aag1036
ag1037
a(lp1382
I415
ag1305
aag1041
ag1042
ag1043
ag1044
a(lp1383
I420
ag1305
aag1048
ag1049
a(lp1384
I423
ag1305
aag1052
a(lp1385
I425
ag1305
aag1055
ag1056
ag1057
ag1058
ag1059
ag1060
ag1061
ag1062
ag1063
ag1064
ag1065
a(lp1386
I437
ag1305
aag1069
ag1070
ag1071
a(lp1387
I441
ag1305
aag1075
ag1076
ag1077
a(lp1388
I445
ag1305
aag1080
ag1081
ag1082
ag1083
ag1084
ag1085
a(lp1389
I453
ag1305
aag1088
a(lp1390
I455
ag1305
aag1091
ag1092
ag1093
ag1094
ag1095
ag1096
a(lp1391
I462
ag1305
aag1100
ag1101
ag1102
ag1103
a(lp1392
I467
ag1305
aag1107
ag1108
a(lp1393
I470
ag1305
aag1111
ag1112
ag1113
ag1114
ag1115
ag1116
ag1117
ag1118
ag1119
ag1120
a(lp1394
I481
ag1305
aag1124
ag1125
a(lp1395
I484
ag1305
aag1129
ag1130
a(lp1396
I487
ag1305
aag1133
ag1134
ag1135
ag1136
ag1137
ag1138
a(lp1397
I494
ag1305
aag1142
ag1143
ag1144
ag1145
a(lp1398
I499
ag1305
aag1149
ag1150
ag1151
ag1152
ag1153
a(lp1399
I505
ag1305
aag1157
ag1158
ag1159
a(lp1400
I509
ag1305
aag1163
ag1164
a(lp1401
I512
ag1305
aag1168
ag1169
ag1170
ag1171
a(lp1402
I517
ag1305
aag1174
ag1175
ag1176
ag1177
ag1178
ag1179
ag1180
a(lp1403
I525
ag1305
aag1183
ag1184
ag1185
ag1186
a(lp1404
I530
ag1305
aag1190
ag1191
ag1192
a(lp1405
I534
ag1305
aag1196
ag1197
ag1198
ag1199
ag1200
a(lp1406
I540
ag1305
aag1203
ag1204
ag1205
ag1206
ag1207
ag1208
ag1209
ag1210
a(lp1407
I550
ag1305
aag1213
ag1214
ag1215
ag1216
ag1217
ag1218
ag1219
a(lp1408
I558
ag1305
aag1222
a(lp1409
I560
ag1305
aag1225
ag1226
ag1227
ag1228
ag1229
ag1230
ag1231
a(lp1410
I568
ag1305
aag1234
ag1235
ag1236
ag1237
ag1238
ag1239
a(lp1411
I575
ag1305
aag1243
ag1244
ag1245
a(lp1412
I579
ag1305
aag1248
ag1249
ag1250
ag1251
ag1252
ag1253
ag1254
a(lp1413
I587
ag1305
aag1257
a(lp1414
I589
ag1305
aag1260
ag1261
ag1262
ag1263
ag1264
ag1265
a(lp1415
I596
ag1305
aag1268
ag1269
ag1270
a(lp1416
I600
ag1305
aag1274
ag1275
a(lp1417
I603
ag1305
aag1279
ag1280
ag1281
ag1282
a(lp1418
I608
ag1305
aag1286
ag1287
ag1288
ag1289
a(lp1419
I613
ag1305
aag1292
ag1293
ag1294
ag1295
ag1296
a(lp1420
I619
ag1305
aag1300
ag1301
asS'text'
p1421
S'posted by hr | | preparing for a job interview just as people go to school as preparation for a career, they also need to put effort into preparing for a job interview. think about it for a moment. why do people go to school? we all know that the primary reason is basic education for personal growth and development. this is still the top reason even these days. in these practical days however, going to school is more of a preparation for the future. a future that is envisioned to be better than their own is what parents want for their children. getting a college degree and landing a stable job is what they dream of.'
p1422
sS'cleanWordMap'
p1423
(lp1424
g502
ag523
ag529
ag554
ag560
ag586
ag595
ag604
ag618
ag640
ag655
ag661
ag672
ag677
ag692
ag712
ag717
ag728
ag758
ag778
ag786
ag795
ag814
ag833
ag842
ag855
ag862
ag879
ag889
ag903
ag928
ag941
ag946
ag954
ag968
ag987
ag998
ag1004
ag1013
ag1025
ag1053
ag1078
ag1089
ag1109
ag1131
ag1172
ag1181
ag1201
ag1211
ag1223
ag1232
ag1246
ag1258
ag1266
ag1290
asS'lines'
p1425
(lp1426
VPosted by HR | | Preparing for a job interview\u000a
p1427
aVJust as people go to school as preparation for a career, they also need to put effort into preparing for a job interview. Think about it for a moment. Why do people go to school? We all know that the primary reason is basic education for personal growth and development. This is still the top reason even these days. In these practical days however, going to school is more of a preparation for the future. A future that is envisioned to be better than their own is what parents want for their children. Getting a college degree and landing a stable job is what they dream of.
p1428
asS'docType'
p1429
S'src'
p1430
sS'newfmap'
p1431
(lp1432
g4
ag8
ag10
ag12
ag14
ag17
ag19
ag21
ag23
ag26
ag28
ag30
ag32
ag35
ag37
ag39
ag41
ag44
ag46
ag48
ag50
ag53
ag55
ag57
ag59
ag62
ag64
ag66
ag68
ag71
ag73
ag75
ag77
ag80
ag82
ag84
ag86
ag89
ag91
ag93
ag95
ag98
ag100
ag102
ag104
ag107
ag109
ag111
ag113
ag116
ag118
ag120
ag122
ag125
ag127
ag129
ag131
ag134
ag136
ag138
ag140
ag143
ag145
ag147
ag149
ag152
ag154
ag156
ag158
ag161
ag163
ag165
ag167
ag170
ag172
ag174
ag176
ag179
ag181
ag183
ag185
ag188
ag190
ag192
ag194
ag197
ag199
ag201
ag203
ag206
ag208
ag210
ag212
ag215
ag217
ag219
ag221
ag224
ag226
ag228
ag230
ag233
ag235
ag237
ag239
ag242
ag244
ag246
ag248
ag251
ag253
ag255
ag257
ag260
ag262
ag264
ag266
ag269
ag271
ag273
ag275
ag278
ag280
ag282
ag284
ag287
ag289
ag291
ag293
ag296
ag298
ag300
ag302
ag305
ag307
ag309
ag311
ag314
ag316
ag318
ag320
ag323
ag325
ag327
ag329
ag332
ag334
ag336
ag338
ag341
ag343
ag345
ag347
ag350
ag352
ag354
ag356
ag359
ag361
ag363
ag365
ag368
ag370
ag372
ag374
ag377
ag379
ag381
ag383
ag386
ag388
ag390
ag392
ag395
ag397
ag399
ag401
ag404
ag406
ag408
ag410
ag413
ag415
ag417
ag419
ag422
ag424
ag426
ag428
ag431
ag433
ag435
ag437
ag440
ag442
ag444
ag446
ag449
ag451
ag453
ag455
ag458
ag460
ag462
ag464
ag467
ag469
ag471
ag473
ag476
ag478
ag480
ag482
ag485
ag487
ag489
ag491
ag494
ag496
ag498
asS'featureMap'
p1433
(lp1434
(lp1435
I0
aI5
ag5
ag6
ag9
ag11
ag13
aa(lp1436
I10
aI11
ag15
ag16
ag18
ag20
ag22
aa(lp1437
I17
aI25
ag24
ag25
ag27
ag29
ag31
aa(lp1438
I33
aI35
ag33
ag34
ag36
ag38
ag40
aa(lp1439
I37
aI45
ag42
ag43
ag45
ag47
ag49
aa(lp1440
I55
aI60
ag51
ag52
ag54
ag56
ag58
aa(lp1441
I62
aI63
ag60
ag61
ag63
ag65
ag67
aa(lp1442
I68
aI73
ag69
ag70
ag72
ag74
ag76
aa(lp1443
I78
aI88
ag78
ag79
ag81
ag83
ag85
aa(lp1444
I96
aI101
ag87
ag88
ag90
ag92
ag94
aa(lp1445
I109
aI112
ag96
ag97
ag99
ag101
ag103
aa(lp1446
I114
aI117
ag105
ag106
ag108
ag110
ag112
aa(lp1447
I122
aI124
ag114
ag115
ag117
ag119
ag121
aa(lp1448
I126
aI131
ag123
ag124
ag126
ag128
ag130
aa(lp1449
I138
aI146
ag132
ag133
ag135
ag137
ag139
aa(lp1450
I154
aI156
ag141
ag142
ag144
ag146
ag148
aa(lp1451
I158
aI166
ag150
ag151
ag153
ag155
ag157
aa(lp1452
I169
aI173
ag159
ag160
ag162
ag164
ag166
aa(lp1453
I190
aI195
ag168
ag169
ag171
ag173
ag175
aa(lp1454
I205
aI210
ag177
ag178
ag180
ag182
ag184
aa(lp1455
I212
aI213
ag186
ag187
ag189
ag191
ag193
aa(lp1456
I218
aI223
ag195
ag196
ag198
ag200
ag202
aa(lp1457
I233
aI236
ag204
ag205
ag207
ag209
ag211
aa(lp1458
I247
aI253
ag213
ag214
ag216
ag218
ag220
aa(lp1459
I255
aI260
ag222
ag223
ag225
ag227
ag229
aa(lp1460
I265
aI269
ag231
ag232
ag234
ag236
ag238
aa(lp1461
I271
aI279
ag240
ag241
ag243
ag245
ag247
aa(lp1462
I285
aI292
ag249
ag250
ag252
ag254
ag256
aa(lp1463
I294
aI299
ag258
ag259
ag261
ag263
ag265
aa(lp1464
I305
aI315
ag267
ag268
ag270
ag272
ag274
aa(lp1465
I326
aI330
ag276
ag277
ag279
ag281
ag283
aa(lp1466
I336
aI338
ag285
ag286
ag288
ag290
ag292
aa(lp1467
I340
aI345
ag294
ag295
ag297
ag299
ag301
aa(lp1468
I347
aI350
ag303
ag304
ag306
ag308
ag310
aa(lp1469
I358
aI361
ag312
ag313
ag315
ag317
ag319
aa(lp1470
I373
aI381
ag321
ag322
ag324
ag326
ag328
aa(lp1471
I383
aI386
ag330
ag331
ag333
ag335
ag337
aa(lp1472
I388
aI394
ag339
ag340
ag342
ag344
ag346
aa(lp1473
I397
aI401
ag348
ag349
ag351
ag353
ag355
aa(lp1474
I406
aI411
ag357
ag358
ag360
ag362
ag364
aa(lp1475
I426
aI436
ag366
ag367
ag369
ag371
ag373
aa(lp1476
I446
aI451
ag375
ag376
ag378
ag380
ag382
aa(lp1477
I456
aI461
ag384
ag385
ag387
ag389
ag391
aa(lp1478
I471
aI480
ag393
ag394
ag396
ag398
ag400
aa(lp1479
I488
aI493
ag402
ag403
ag405
ag407
ag409
aa(lp1480
I518
aI524
ag411
ag412
ag414
ag416
ag418
aa(lp1481
I526
aI529
ag420
ag421
ag423
ag425
ag427
aa(lp1482
I541
aI548
ag429
ag430
ag432
ag434
ag436
aa(lp1483
I551
aI557
ag438
ag439
ag441
ag443
ag445
aa(lp1484
I561
aI567
ag447
ag448
ag450
ag452
ag454
aa(lp1485
I569
aI574
ag456
ag457
ag459
ag461
ag463
aa(lp1486
I580
aI586
ag465
ag466
ag468
ag470
ag472
aa(lp1487
I590
aI595
ag474
ag475
ag477
ag479
ag481
aa(lp1488
I597
aI599
ag483
ag484
ag486
ag488
ag490
aa(lp1489
I614
aI618
ag492
ag493
ag495
ag497
ag499
aasS'characterMap'
p1490
(lp1491
g504
ag506
ag508
ag510
ag512
ag514
ag1304
ag519
ag521
ag1306
ag525
ag527
ag1307
a(lp1492
I13
aS'|'
p1493
aag1308
a(lp1494
I15
ag1493
aag1309
ag531
ag532
ag533
ag534
ag535
ag537
ag538
ag540
ag542
ag1310
ag547
ag549
ag550
ag1311
ag553
ag1312
ag556
ag558
ag559
ag1313
ag562
ag563
ag564
ag565
ag566
ag567
ag569
ag570
ag571
ag1314
ag576
ag577
ag579
ag580
ag1315
ag584
ag585
ag1316
ag588
ag589
ag590
ag591
ag592
ag594
ag1317
ag597
ag598
ag1318
ag602
ag603
ag1319
ag606
ag607
ag609
ag610
ag611
ag612
ag1320
ag616
ag617
ag1321
ag620
ag621
ag622
ag623
ag624
ag625
ag626
ag627
ag628
ag629
ag630
ag1322
ag634
ag635
ag636
ag1323
ag639
ag1324
ag642
ag643
ag644
ag645
ag646
ag647
a(lp1495
I102
aS','
p1496
aag1325
ag651
ag652
ag653
ag654
ag1326
ag657
ag658
ag659
ag660
ag1327
ag663
ag664
ag665
ag666
ag1328
ag670
ag671
ag1329
ag674
ag675
ag676
ag1330
ag679
ag680
ag681
ag682
ag683
ag684
ag1331
ag688
ag689
ag690
ag691
ag1332
ag694
ag695
ag696
ag697
ag698
ag699
ag700
ag701
ag702
ag1333
ag706
ag707
ag708
ag1334
ag711
ag1335
ag714
ag715
ag716
ag1336
ag719
ag720
ag721
ag722
ag723
ag724
ag725
ag726
ag727
a(lp1497
I167
aS'.'
p1498
aag1337
ag730
ag731
ag732
ag733
ag734
ag1338
ag739
ag740
ag741
ag742
ag743
ag1339
ag747
ag748
ag1340
ag752
ag753
ag754
ag1341
ag757
ag1342
ag760
ag762
ag763
ag764
ag765
ag766
a(lp1499
I196
ag1498
aag1343
ag770
ag771
ag772
ag1344
ag776
ag777
ag1345
ag780
ag781
ag782
ag783
ag784
ag785
ag1346
ag788
ag789
ag1347
ag793
ag794
ag1348
ag797
ag798
ag799
ag800
ag801
ag802
a(lp1500
I224
aS'?'
p1501
aag1349
ag806
ag807
ag1350
ag811
ag812
ag813
ag1351
ag816
ag817
ag818
ag819
ag1352
ag823
ag824
ag825
ag826
ag1353
ag830
ag831
ag832
ag1354
ag835
ag836
ag837
ag838
ag839
ag840
ag841
ag1355
ag844
ag845
ag846
ag847
ag848
ag849
ag1356
ag853
ag854
ag1357
ag857
ag858
ag859
ag860
ag861
ag1358
ag864
ag865
ag866
ag867
ag868
ag869
ag870
ag871
ag872
ag1359
ag876
ag877
ag878
ag1360
ag881
ag882
ag883
ag884
ag885
ag886
ag887
ag888
ag1361
ag891
ag892
ag893
ag894
ag895
ag896
ag1362
ag900
ag901
ag902
ag1363
ag905
ag906
ag907
ag908
ag909
ag910
ag911
ag912
ag913
ag914
ag915
a(lp1502
I316
ag1498
aag1364
ag919
ag920
ag921
ag922
ag1365
ag926
ag927
ag1366
ag930
ag931
ag932
ag933
ag934
ag1367
ag938
ag939
ag940
ag1368
ag943
ag944
ag945
ag1369
ag948
ag949
ag950
ag951
ag952
ag953
ag1370
ag956
ag957
ag958
ag959
ag1371
ag963
ag964
ag965
ag966
ag967
ag1372
ag970
ag971
ag972
ag973
a(lp1503
I362
ag1498
aag1373
ag977
ag978
ag1374
ag982
ag983
ag984
ag985
ag986
ag1375
ag989
ag990
ag991
ag992
ag993
ag994
ag995
ag996
ag997
ag1376
ag1000
ag1001
ag1002
ag1003
ag1377
ag1006
ag1007
ag1008
ag1009
ag1010
ag1011
ag1012
a(lp1504
I395
ag1496
aag1378
ag1015
ag1016
ag1017
ag1018
ag1019
ag1379
ag1023
ag1024
ag1380
ag1027
ag1028
ag1029
ag1030
ag1031
ag1032
ag1381
ag1036
ag1037
ag1382
ag1041
ag1042
ag1043
ag1044
ag1383
ag1048
ag1049
ag1384
ag1052
ag1385
ag1055
ag1056
ag1057
ag1058
ag1059
ag1060
ag1061
ag1062
ag1063
ag1064
ag1065
ag1386
ag1069
ag1070
ag1071
ag1387
ag1075
ag1076
ag1077
ag1388
ag1080
ag1081
ag1082
ag1083
ag1084
ag1085
a(lp1505
I452
ag1498
aag1389
ag1088
ag1390
ag1091
ag1092
ag1093
ag1094
ag1095
ag1096
ag1391
ag1100
ag1101
ag1102
ag1103
ag1392
ag1107
ag1108
ag1393
ag1111
ag1112
ag1113
ag1114
ag1115
ag1116
ag1117
ag1118
ag1119
ag1120
ag1394
ag1124
ag1125
ag1395
ag1129
ag1130
ag1396
ag1133
ag1134
ag1135
ag1136
ag1137
ag1138
ag1397
ag1142
ag1143
ag1144
ag1145
ag1398
ag1149
ag1150
ag1151
ag1152
ag1153
ag1399
ag1157
ag1158
ag1159
ag1400
ag1163
ag1164
ag1401
ag1168
ag1169
ag1170
ag1171
ag1402
ag1174
ag1175
ag1176
ag1177
ag1178
ag1179
ag1180
ag1403
ag1183
ag1184
ag1185
ag1186
ag1404
ag1190
ag1191
ag1192
ag1405
ag1196
ag1197
ag1198
ag1199
ag1200
ag1406
ag1203
ag1204
ag1205
ag1206
ag1207
ag1208
ag1209
ag1210
a(lp1506
I549
ag1498
aag1407
ag1213
ag1214
ag1215
ag1216
ag1217
ag1218
ag1219
ag1408
ag1222
ag1409
ag1225
ag1226
ag1227
ag1228
ag1229
ag1230
ag1231
ag1410
ag1234
ag1235
ag1236
ag1237
ag1238
ag1239
ag1411
ag1243
ag1244
ag1245
ag1412
ag1248
ag1249
ag1250
ag1251
ag1252
ag1253
ag1254
ag1413
ag1257
ag1414
ag1260
ag1261
ag1262
ag1263
ag1264
ag1265
ag1415
ag1268
ag1269
ag1270
ag1416
ag1274
ag1275
ag1417
ag1279
ag1280
ag1281
ag1282
ag1418
ag1286
ag1287
ag1288
ag1289
ag1419
ag1292
ag1293
ag1294
ag1295
ag1296
ag1420
ag1300
ag1301
a(lp1507
I622
ag1498
aasS'docName'
p1508
S'source-document02447.txt'
p1509
sb.