(iModel.Document
Document
p0
(dp1
S'fmap'
p2
(lp3
(lp4
I0
aI5
aS'retail'
p5
a(lp6
S'*'
p7
ag5
aaa(lp8
I0
aI5
ag5
a(lp9
g7
ag5
aaa(lp10
I0
aI5
ag5
a(lp11
g7
ag5
aaa(lp12
I0
aI5
ag5
a(lp13
g7
ag5
aaa(lp14
I7
aI11
aS'price'
p15
a(lp16
g5
ag15
aaa(lp17
I7
aI11
ag15
a(lp18
g7
ag15
aaa(lp19
I7
aI11
ag15
a(lp20
g7
ag15
aaa(lp21
I7
aI11
ag15
a(lp22
g7
ag15
aaa(lp23
I15
aI19
aS'1699'
p24
a(lp25
g15
ag24
aaa(lp26
I15
aI19
ag24
a(lp27
g5
ag24
aaa(lp28
I15
aI19
ag24
a(lp29
g7
ag24
aaa(lp30
I15
aI19
ag24
a(lp31
g7
ag24
aaa(lp32
I25
aI28
aS'save'
p33
a(lp34
g24
ag33
aaa(lp35
I25
aI28
ag33
a(lp36
g15
ag33
aaa(lp37
I25
aI28
ag33
a(lp38
g5
ag33
aaa(lp39
I25
aI28
ag33
a(lp40
g7
ag33
aaa(lp41
I32
aI35
aS'340'
p42
a(lp43
g33
ag42
aaa(lp44
I32
aI35
ag42
a(lp45
g24
ag42
aaa(lp46
I32
aI35
ag42
a(lp47
g15
ag42
aaa(lp48
I32
aI35
ag42
a(lp49
g5
ag42
aaa(lp50
I38
aI39
aS'20'
p51
a(lp52
g42
ag51
aaa(lp53
I38
aI39
ag51
a(lp54
g33
ag51
aaa(lp55
I38
aI39
ag51
a(lp56
g24
ag51
aaa(lp57
I38
aI39
ag51
a(lp58
g15
ag51
aaa(lp59
I46
aI51
aS'spirit'
p60
a(lp61
g51
ag60
aaa(lp62
I46
aI51
ag60
a(lp63
g42
ag60
aaa(lp64
I46
aI51
ag60
a(lp65
g33
ag60
aaa(lp66
I46
aI51
ag60
a(lp67
g24
ag60
aaa(lp68
I56
aI58
aS'god'
p69
a(lp70
g60
ag69
aaa(lp71
I56
aI58
ag69
a(lp72
g51
ag69
aaa(lp73
I56
aI58
ag69
a(lp74
g42
ag69
aaa(lp75
I56
aI58
ag69
a(lp76
g33
ag69
aaa(lp77
I60
aI63
aS'uses'
p78
a(lp79
g69
ag78
aaa(lp80
I60
aI63
ag78
a(lp81
g60
ag78
aaa(lp82
I60
aI63
ag78
a(lp83
g51
ag78
aaa(lp84
I60
aI63
ag78
a(lp85
g42
ag78
aaa(lp86
I69
aI72
aS'word'
p87
a(lp88
g78
ag87
aaa(lp89
I69
aI72
ag87
a(lp90
g69
ag87
aaa(lp91
I69
aI72
ag87
a(lp92
g60
ag87
aaa(lp93
I69
aI72
ag87
a(lp94
g51
ag87
aaa(lp95
I77
aI79
aS'god'
p96
a(lp97
g87
ag96
aaa(lp98
I77
aI79
ag96
a(lp99
g78
ag96
aaa(lp100
I77
aI79
ag96
a(lp101
g69
ag96
aaa(lp102
I77
aI79
ag96
a(lp103
g60
ag96
aaa(lp104
I84
aI87
aS'make'
p105
a(lp106
g96
ag105
aaa(lp107
I84
aI87
ag105
a(lp108
g87
ag105
aaa(lp109
I84
aI87
ag105
a(lp110
g78
ag105
aaa(lp111
I84
aI87
ag105
a(lp112
g69
ag105
aaa(lp113
I89
aI90
aS'us'
p114
a(lp115
g105
ag114
aaa(lp116
I89
aI90
ag114
a(lp117
g96
ag114
aaa(lp118
I89
aI90
ag114
a(lp119
g87
ag114
aaa(lp120
I89
aI90
ag114
a(lp121
g78
ag114
aaa(lp122
I92
aI95
aS'like'
p123
a(lp124
g114
ag123
aaa(lp125
I92
aI95
ag123
a(lp126
g105
ag123
aaa(lp127
I92
aI95
ag123
a(lp128
g96
ag123
aaa(lp129
I92
aI95
ag123
a(lp130
g87
ag123
aaa(lp131
I101
aI103
aS'son'
p132
a(lp133
g123
ag132
aaa(lp134
I101
aI103
ag132
a(lp135
g114
ag132
aaa(lp136
I101
aI103
ag132
a(lp137
g105
ag132
aaa(lp138
I101
aI103
ag132
a(lp139
g96
ag132
aaa(lp140
I108
aI115
aS'godrick'
p141
a(lp142
g132
ag141
aaa(lp143
I108
aI115
ag141
a(lp144
g123
ag141
aaa(lp145
I108
aI115
ag141
a(lp146
g114
ag141
aaa(lp147
I108
aI115
ag141
a(lp148
g105
ag141
aaa(lp149
I117
aI122
aS'warren'
p150
a(lp151
g141
ag150
aaa(lp152
I117
aI122
ag150
a(lp153
g132
ag150
aaa(lp154
I117
aI122
ag150
a(lp155
g123
ag150
aaa(lp156
I117
aI122
ag150
a(lp157
g114
ag150
aaa(lp158
I131
aI137
aS'purpose'
p159
a(lp160
g150
ag159
aaa(lp161
I131
aI137
ag159
a(lp162
g141
ag159
aaa(lp163
I131
aI137
ag159
a(lp164
g132
ag159
aaa(lp165
I131
aI137
ag159
a(lp166
g123
ag159
aaa(lp167
I139
aI148
aS'drivenlife'
p168
a(lp169
g159
ag168
aaa(lp170
I139
aI148
ag168
a(lp171
g150
ag168
aaa(lp172
I139
aI148
ag168
a(lp173
g141
ag168
aaa(lp174
I139
aI148
ag168
a(lp175
g132
ag168
aaa(lp176
I159
aI165
aS'created'
p177
a(lp178
g168
ag177
aaa(lp179
I159
aI165
ag177
a(lp180
g159
ag177
aaa(lp181
I159
aI165
ag177
a(lp182
g150
ag177
aaa(lp183
I159
aI165
ag177
a(lp184
g141
ag177
aaa(lp185
I170
aI175
aS'become'
p186
a(lp187
g177
ag186
aaa(lp188
I170
aI175
ag186
a(lp189
g168
ag186
aaa(lp190
I170
aI175
ag186
a(lp191
g159
ag186
aaa(lp192
I170
aI175
ag186
a(lp193
g150
ag186
aaa(lp194
I177
aI180
aS'like'
p195
a(lp196
g186
ag195
aaa(lp197
I177
aI180
ag195
a(lp198
g177
ag195
aaa(lp199
I177
aI180
ag195
a(lp200
g168
ag195
aaa(lp201
I177
aI180
ag195
a(lp202
g159
ag195
aaa(lp203
I182
aI187
aS'christ'
p204
a(lp205
g195
ag204
aaa(lp206
I182
aI187
ag204
a(lp207
g186
ag204
aaa(lp208
I182
aI187
ag204
a(lp209
g177
ag204
aaa(lp210
I182
aI187
ag204
a(lp211
g168
ag204
aaa(lp212
I198
aI200
aS'one'
p213
a(lp214
g204
ag213
aaa(lp215
I198
aI200
ag213
a(lp216
g195
ag213
aaa(lp217
I198
aI200
ag213
a(lp218
g186
ag213
aaa(lp219
I198
aI200
ag213
a(lp220
g177
ag213
aaa(lp221
I209
aI212
aS'five'
p222
a(lp223
g213
ag222
aaa(lp224
I209
aI212
ag222
a(lp225
g204
ag222
aaa(lp226
I209
aI212
ag222
a(lp227
g195
ag222
aaa(lp228
I209
aI212
ag222
a(lp229
g186
ag222
aaa(lp230
I214
aI225
aS'godordained'
p231
a(lp232
g222
ag231
aaa(lp233
I214
aI225
ag231
a(lp234
g213
ag231
aaa(lp235
I214
aI225
ag231
a(lp236
g204
ag231
aaa(lp237
I214
aI225
ag231
a(lp238
g195
ag231
aaa(lp239
I227
aI234
aS'purposes'
p240
a(lp241
g231
ag240
aaa(lp242
I227
aI234
ag240
a(lp243
g222
ag240
aaa(lp244
I227
aI234
ag240
a(lp245
g213
ag240
aaa(lp246
I227
aI234
ag240
a(lp247
g204
ag240
aaa(lp248
I245
aI248
aS'life'
p249
a(lp250
g240
ag249
aaa(lp251
I245
aI248
ag249
a(lp252
g231
ag249
aaa(lp253
I245
aI248
ag249
a(lp254
g222
ag249
aaa(lp255
I245
aI248
ag249
a(lp256
g213
ag249
aaa(lp257
I250
aI258
aS'described'
p258
a(lp259
g249
ag258
aaa(lp260
I250
aI258
ag258
a(lp261
g240
ag258
aaa(lp262
I250
aI258
ag258
a(lp263
g231
ag258
aaa(lp264
I250
aI258
ag258
a(lp265
g222
ag258
aaa(lp266
I267
aI273
aS'purpose'
p267
a(lp268
g258
ag267
aaa(lp269
I267
aI273
ag267
a(lp270
g249
ag267
aaa(lp271
I267
aI273
ag267
a(lp272
g240
ag267
aaa(lp273
I267
aI273
ag267
a(lp274
g231
ag267
aaa(lp275
I275
aI284
aS'drivenlife'
p276
a(lp277
g267
ag276
aaa(lp278
I275
aI284
ag276
a(lp279
g258
ag276
aaa(lp280
I275
aI284
ag276
a(lp281
g249
ag276
aaa(lp282
I275
aI284
ag276
a(lp283
g240
ag276
aaa(lp284
I289
aI292
aS'rick'
p285
a(lp286
g276
ag285
aaa(lp287
I289
aI292
ag285
a(lp288
g267
ag285
aaa(lp289
I289
aI292
ag285
a(lp290
g258
ag285
aaa(lp291
I289
aI292
ag285
a(lp292
g249
ag285
aaa(lp293
I294
aI299
aS'warren'
p294
a(lp295
g285
ag294
aaa(lp296
I294
aI299
ag294
a(lp297
g276
ag294
aaa(lp298
I294
aI299
ag294
a(lp299
g267
ag294
aaa(lp300
I294
aI299
ag294
a(lp301
g258
ag294
aaa(lp302
I313
aI320
aS'studying'
p303
a(lp304
g294
ag303
aaa(lp305
I313
aI320
ag303
a(lp306
g285
ag303
aaa(lp307
I313
aI320
ag303
a(lp308
g276
ag303
aaa(lp309
I313
aI320
ag303
a(lp310
g267
ag303
aaa(lp311
I326
aI330
aS'bible'
p312
a(lp313
g303
ag312
aaa(lp314
I326
aI330
ag312
a(lp315
g294
ag312
aaa(lp316
I326
aI330
ag312
a(lp317
g285
ag312
aaa(lp318
I326
aI330
ag312
a(lp319
g276
ag312
aaa(lp320
I338
aI346
aS'important'
p321
a(lp322
g312
ag321
aaa(lp323
I338
aI346
ag321
a(lp324
g303
ag321
aaa(lp325
I338
aI346
ag321
a(lp326
g294
ag321
aaa(lp327
I338
aI346
ag321
a(lp328
g285
ag321
aaa(lp329
I353
aI357
aS'bible'
p330
a(lp331
g321
ag330
aaa(lp332
I353
aI357
ag330
a(lp333
g312
ag330
aaa(lp334
I353
aI357
ag330
a(lp335
g303
ag330
aaa(lp336
I353
aI357
ag330
a(lp337
g294
ag330
aaa(lp338
I359
aI364
aS'truths'
p339
a(lp340
g330
ag339
aaa(lp341
I359
aI364
ag339
a(lp342
g321
ag339
aaa(lp343
I359
aI364
ag339
a(lp344
g312
ag339
aaa(lp345
I359
aI364
ag339
a(lp346
g303
ag339
aaa(lp347
I371
aI379
aS'transform'
p348
a(lp349
g339
ag348
aaa(lp350
I371
aI379
ag348
a(lp351
g330
ag348
aaa(lp352
I371
aI379
ag348
a(lp353
g321
ag348
aaa(lp354
I371
aI379
ag348
a(lp355
g312
ag348
aaa(lp356
I386
aI393
aS'aligning'
p357
a(lp358
g348
ag357
aaa(lp359
I386
aI393
ag357
a(lp360
g339
ag357
aaa(lp361
I386
aI393
ag357
a(lp362
g330
ag357
aaa(lp363
I386
aI393
ag357
a(lp364
g321
ag357
aaa(lp365
I408
aI416
aS'character'
p366
a(lp367
g357
ag366
aaa(lp368
I408
aI416
ag366
a(lp369
g348
ag366
aaa(lp370
I408
aI416
ag366
a(lp371
g339
ag366
aaa(lp372
I408
aI416
ag366
a(lp373
g330
ag366
aaa(lp374
I422
aI425
aS'ways'
p375
a(lp376
g366
ag375
aaa(lp377
I422
aI425
ag375
a(lp378
g357
ag375
aaa(lp379
I422
aI425
ag375
a(lp380
g348
ag375
aaa(lp381
I422
aI425
ag375
a(lp382
g339
ag375
aaa(lp383
I430
aI434
aS'jesus'
p384
a(lp385
g375
ag384
aaa(lp386
I430
aI434
ag384
a(lp387
g366
ag384
aaa(lp388
I430
aI434
ag384
a(lp389
g357
ag384
aaa(lp390
I430
aI434
ag384
a(lp391
g348
ag384
aaa(lp392
I443
aI451
aS'encounter'
p393
a(lp394
g384
ag393
aaa(lp395
I443
aI451
ag393
a(lp396
g375
ag393
aaa(lp397
I443
aI451
ag393
a(lp398
g366
ag393
aaa(lp399
I443
aI451
ag393
a(lp400
g357
ag393
aaa(lp401
I464
aI473
aS'scriptures'
p402
a(lp403
g393
ag402
aaa(lp404
I464
aI473
ag402
a(lp405
g384
ag402
aaa(lp406
I464
aI473
ag402
a(lp407
g375
ag402
aaa(lp408
I464
aI473
ag402
a(lp409
g366
ag402
aaa(lp410
I481
aI498
aS'easytounderstand'
p411
a(lp412
g402
ag411
aaa(lp413
I481
aI498
ag411
a(lp414
g393
ag411
aaa(lp415
I481
aI498
ag411
a(lp416
g384
ag411
aaa(lp417
I481
aI498
ag411
a(lp418
g375
ag411
aaa(lp419
I500
aI503
aS'book'
p420
a(lp421
g411
ag420
aaa(lp422
I500
aI503
ag420
a(lp423
g402
ag420
aaa(lp424
I500
aI503
ag420
a(lp425
g393
ag420
aaa(lp426
I500
aI503
ag420
a(lp427
g384
ag420
aaa(lp428
I505
aI509
aS'shows'
p429
a(lp430
g420
ag429
aaa(lp431
I505
aI509
ag429
a(lp432
g411
ag429
aaa(lp433
I505
aI509
ag429
a(lp434
g402
ag429
aaa(lp435
I505
aI509
ag429
a(lp436
g393
ag429
aaa(lp437
I522
aI526
aS'study'
p438
a(lp439
g429
ag438
aaa(lp440
I522
aI526
ag438
a(lp441
g420
ag438
aaa(lp442
I522
aI526
ag438
a(lp443
g411
ag438
aaa(lp444
I522
aI526
ag438
a(lp445
g402
ag438
aaa(lp446
I532
aI536
aS'bible'
p447
a(lp448
g438
ag447
aaa(lp449
I532
aI536
ag447
a(lp450
g429
ag447
aaa(lp451
I532
aI536
ag447
a(lp452
g420
ag447
aaa(lp453
I532
aI536
ag447
a(lp454
g411
ag447
aaa(lp455
I538
aI541
aS'rick'
p456
a(lp457
g447
ag456
aaa(lp458
I538
aI541
ag456
a(lp459
g438
ag456
aaa(lp460
I538
aI541
ag456
a(lp461
g429
ag456
aaa(lp462
I538
aI541
ag456
a(lp463
g420
ag456
aaa(lp464
I543
aI548
aS'warren'
p465
a(lp466
g456
ag465
aaa(lp467
I543
aI548
ag465
a(lp468
g447
ag465
aaa(lp469
I543
aI548
ag465
a(lp470
g438
ag465
aaa(lp471
I543
aI548
ag465
a(lp472
g429
ag465
aaa(lp473
I550
aI552
aS'way'
p474
a(lp475
g465
ag474
aaa(lp476
I550
aI552
ag474
a(lp477
g456
ag474
aaa(lp478
I550
aI552
ag474
a(lp479
g447
ag474
aaa(lp480
I550
aI552
ag474
a(lp481
g438
ag474
aaa(lp482
I558
aI562
aS'gives'
p483
a(lp484
g474
ag483
aaa(lp485
I558
aI562
ag483
a(lp486
g465
ag483
aaa(lp487
I558
aI562
ag483
a(lp488
g456
ag483
aaa(lp489
I558
aI562
ag483
a(lp490
g447
ag483
aaa(lp491
I577
aI579
aS'one'
p492
a(lp493
g483
ag492
aaa(lp494
I577
aI579
ag492
a(lp495
g474
ag492
aaa(lp496
I577
aI579
ag492
a(lp497
g465
ag492
aaa(lp498
I577
aI579
ag492
a(lp499
g456
ag492
aaa(lp500
I586
aI591
aS'twelve'
p501
a(lp502
g492
ag501
aaa(lp503
I586
aI591
ag501
a(lp504
g483
ag501
aaa(lp505
I586
aI591
ag501
a(lp506
g474
ag501
aaa(lp507
I586
aI591
ag501
a(lp508
g465
ag501
aaa(lp509
I593
aI599
aS'methods'
p510
a(lp511
g501
ag510
aaa(lp512
I593
aI599
ag510
a(lp513
g492
ag510
aaa(lp514
I593
aI599
ag510
a(lp515
g483
ag510
aaa(lp516
I593
aI599
ag510
a(lp517
g474
ag510
aaa(lp518
I605
aI613
aS'exploring'
p519
a(lp520
g510
ag519
aaa(lp521
I605
aI613
ag519
a(lp522
g501
ag519
aaa(lp523
I605
aI613
ag519
a(lp524
g492
ag519
aaa(lp525
I605
aI613
ag519
a(lp526
g483
ag519
aaa(lp527
I619
aI624
aS'riches'
p528
a(lp529
g519
ag528
aaa(lp530
I619
aI624
ag528
a(lp531
g510
ag528
aaa(lp532
I619
aI624
ag528
a(lp533
g501
ag528
aaa(lp534
I619
aI624
ag528
a(lp535
g492
ag528
aaa(lp536
I629
aI631
aS'god'
p537
a(lp538
g528
ag537
aaa(lp539
I629
aI631
ag537
a(lp540
g519
ag537
aaa(lp541
I629
aI631
ag537
a(lp542
g510
ag537
aaa(lp543
I629
aI631
ag537
a(lp544
g501
ag537
aaa(lp545
I633
aI636
aS'word'
p546
a(lp547
g537
ag546
aaa(lp548
I633
aI636
ag546
a(lp549
g528
ag546
aaa(lp550
I633
aI636
ag546
a(lp551
g519
ag546
aaa(lp552
I633
aI636
ag546
a(lp553
g510
ag546
aaa(lp554
I642
aI646
aS'least'
p555
a(lp556
g546
ag555
aaa(lp557
I642
aI646
ag555
a(lp558
g537
ag555
aaa(lp559
I642
aI646
ag555
a(lp560
g528
ag555
aaa(lp561
I642
aI646
ag555
a(lp562
g519
ag555
aaa(lp563
I648
aI650
aS'one'
p564
a(lp565
g555
ag564
aaa(lp566
I648
aI650
ag564
a(lp567
g546
ag564
aaa(lp568
I648
aI650
ag564
a(lp569
g537
ag564
aaa(lp570
I648
aI650
ag564
a(lp571
g528
ag564
aaa(lp572
I663
aI669
aS'exactly'
p573
a(lp574
g564
ag573
aaa(lp575
I663
aI669
ag573
a(lp576
g555
ag573
aaa(lp577
I663
aI669
ag573
a(lp578
g546
ag573
aaa(lp579
I663
aI669
ag573
a(lp580
g537
ag573
aaa(lp581
I676
aI679
aS'youe'
p582
a(lp583
g573
ag582
aaa(lp584
I676
aI679
ag582
a(lp585
g564
ag582
aaa(lp586
I676
aI679
ag582
a(lp587
g555
ag582
aaa(lp588
I676
aI679
ag582
a(lp589
g546
ag582
aaa(lp590
I681
aI687
aS'looking'
p591
a(lp592
g582
ag591
aaa(lp593
I681
aI687
ag591
a(lp594
g573
ag591
aaa(lp595
I681
aI687
ag591
a(lp596
g564
ag591
aaa(lp597
I681
aI687
ag591
a(lp598
g555
ag591
aaa(lp599
I689
aI692
aS'forn'
p600
a(lp601
g591
ag600
aaa(lp602
I689
aI692
ag600
a(lp603
g582
ag600
aaa(lp604
I689
aI692
ag600
a(lp605
g573
ag600
aaa(lp606
I689
aI692
ag600
a(lp607
g564
ag600
aaa(lp608
I694
aI701
aS'approach'
p609
a(lp610
g600
ag609
aaa(lp611
I694
aI701
ag609
a(lp612
g591
ag609
aaa(lp613
I694
aI701
ag609
a(lp614
g582
ag609
aaa(lp615
I694
aI701
ag609
a(lp616
g573
ag609
aaa(lp617
I708
aI712
aS'right'
p618
a(lp619
g609
ag618
aaa(lp620
I708
aI712
ag618
a(lp621
g600
ag618
aaa(lp622
I708
aI712
ag618
a(lp623
g591
ag618
aaa(lp624
I708
aI712
ag618
a(lp625
g582
ag618
aaa(lp626
I723
aI727
aS'right'
p627
a(lp628
g618
ag627
aaa(lp629
I723
aI727
ag627
a(lp630
g609
ag627
aaa(lp631
I723
aI727
ag627
a(lp632
g600
ag627
aaa(lp633
I723
aI727
ag627
a(lp634
g591
ag627
aaa(lp635
I735
aI738
aS'youe'
p636
a(lp637
g627
ag636
aaa(lp638
I735
aI738
ag636
a(lp639
g618
ag636
aaa(lp640
I735
aI738
ag636
a(lp641
g609
ag636
aaa(lp642
I735
aI738
ag636
a(lp643
g600
ag636
aaa(lp644
I744
aI749
aS'simple'
p645
a(lp646
g636
ag645
aaa(lp647
I744
aI749
ag645
a(lp648
g627
ag645
aaa(lp649
I744
aI749
ag645
a(lp650
g618
ag645
aaa(lp651
I744
aI749
ag645
a(lp652
g609
ag645
aaa(lp653
I751
aI762
aS'stepbystep'
p654
a(lp655
g645
ag654
aaa(lp656
I751
aI762
ag654
a(lp657
g636
ag654
aaa(lp658
I751
aI762
ag654
a(lp659
g627
ag654
aaa(lp660
I751
aI762
ag654
a(lp661
g618
ag654
aaa(lp662
I764
aI775
aS'instructions'
p663
a(lp664
g654
ag663
aaa(lp665
I764
aI775
ag663
a(lp666
g645
ag663
aaa(lp667
I764
aI775
ag663
a(lp668
g636
ag663
aaa(lp669
I764
aI775
ag663
a(lp670
g627
ag663
aaa(lp671
I777
aI781
aS'guide'
p672
a(lp673
g663
ag672
aaa(lp674
I777
aI781
ag672
a(lp675
g654
ag672
aaa(lp676
I777
aI781
ag672
a(lp677
g645
ag672
aaa(lp678
I777
aI781
ag672
a(lp679
g636
ag672
aaa(lp680
I799
aI805
aS'howtos'
p681
a(lp682
g672
ag681
aaa(lp683
I799
aI805
ag681
a(lp684
g663
ag681
aaa(lp685
I799
aI805
ag681
a(lp686
g654
ag681
aaa(lp687
I799
aI805
ag681
a(lp688
g645
ag681
aaa(lp689
I814
aI822
aS'following'
p690
a(lp691
g681
ag690
aaa(lp692
I814
aI822
ag690
a(lp693
g672
ag690
aaa(lp694
I814
aI822
ag690
a(lp695
g663
ag690
aaa(lp696
I814
aI822
ag690
a(lp697
g654
ag690
aaa(lp698
I824
aI830
aS'methods'
p699
a(lp700
g690
ag699
aaa(lp701
I824
aI830
ag699
a(lp702
g681
ag699
aaa(lp703
I824
aI830
ag699
a(lp704
g672
ag699
aaa(lp705
I824
aI830
ag699
a(lp706
g663
ag699
aaa(lp707
I824
aI830
aS'devotional'
p708
a(lp709
g699
ag708
aaa(lp710
I824
aI830
ag708
a(lp711
g690
ag708
aaa(lp712
I824
aI830
ag708
a(lp713
g681
ag708
aaa(lp714
I824
aI830
ag708
a(lp715
g672
ag708
aaasS'wordMap'
p716
(lp717
(lp718
I0
aI5
ag5
a(lp719
(lp720
I0
aS'r'
p721
aa(lp722
I1
aS'e'
p723
aa(lp724
I2
aS't'
p725
aa(lp726
I3
aS'a'
p727
aa(lp728
I4
aS'i'
p729
aa(lp730
I5
aS'l'
p731
aaaa(lp732
I7
aI11
ag15
a(lp733
(lp734
I7
aS'p'
p735
aa(lp736
I8
ag721
aa(lp737
I9
ag729
aa(lp738
I10
aS'c'
p739
aa(lp740
I11
ag723
aaaa(lp741
I15
aI19
ag24
a(lp742
(lp743
I15
aS'1'
p744
aa(lp745
I16
aS'6'
p746
aa(lp747
I18
aS'9'
p748
aa(lp749
I19
ag748
aaaa(lp750
I21
aI23
aS'you'
p751
a(lp752
(lp753
I21
aS'y'
p754
aa(lp755
I22
aS'o'
p756
aa(lp757
I23
aS'u'
p758
aaaa(lp759
I25
aI28
ag33
a(lp760
(lp761
I25
aS's'
p762
aa(lp763
I26
ag727
aa(lp764
I27
aS'v'
p765
aa(lp766
I28
ag723
aaaa(lp767
I32
aI35
ag42
a(lp768
(lp769
I32
aS'3'
p770
aa(lp771
I34
aS'4'
p772
aa(lp773
I35
aS'0'
p774
aaaa(lp775
I38
aI39
ag51
a(lp776
(lp777
I38
aS'2'
p778
aa(lp779
I39
ag774
aaaa(lp780
I43
aI44
aS'he'
p781
a(lp782
(lp783
I43
aS'h'
p784
aa(lp785
I44
ag723
aaaa(lp786
I46
aI51
ag60
a(lp787
(lp788
I46
ag762
aa(lp789
I47
ag735
aa(lp790
I48
ag729
aa(lp791
I49
ag721
aa(lp792
I50
ag729
aa(lp793
I51
ag725
aaaa(lp794
I53
aI54
aS'of'
p795
a(lp796
(lp797
I53
ag756
aa(lp798
I54
aS'f'
p799
aaaa(lp800
I56
aI58
ag69
a(lp801
(lp802
I56
aS'g'
p803
aa(lp804
I57
ag756
aa(lp805
I58
aS'd'
p806
aaaa(lp807
I60
aI63
ag78
a(lp808
(lp809
I60
ag758
aa(lp810
I61
ag762
aa(lp811
I62
ag723
aa(lp812
I63
ag762
aaaa(lp813
I65
aI67
aS'the'
p814
a(lp815
(lp816
I65
ag725
aa(lp817
I66
ag784
aa(lp818
I67
ag723
aaaa(lp819
I69
aI72
ag87
a(lp820
(lp821
I69
aS'w'
p822
aa(lp823
I70
ag756
aa(lp824
I71
ag721
aa(lp825
I72
ag806
aaaa(lp826
I74
aI75
aS'of'
p827
a(lp828
(lp829
I74
ag756
aa(lp830
I75
ag799
aaaa(lp831
I77
aI79
ag96
a(lp832
(lp833
I77
ag803
aa(lp834
I78
ag756
aa(lp835
I79
ag806
aaaa(lp836
I81
aI82
aS'to'
p837
a(lp838
(lp839
I81
ag725
aa(lp840
I82
ag756
aaaa(lp841
I84
aI87
ag105
a(lp842
(lp843
I84
aS'm'
p844
aa(lp845
I85
ag727
aa(lp846
I86
aS'k'
p847
aa(lp848
I87
ag723
aaaa(lp849
I89
aI90
ag114
a(lp850
(lp851
I89
ag758
aa(lp852
I90
ag762
aaaa(lp853
I92
aI95
ag123
a(lp854
(lp855
I92
ag731
aa(lp856
I93
ag729
aa(lp857
I94
ag847
aa(lp858
I95
ag723
aaaa(lp859
I97
aI99
aS'the'
p860
a(lp861
(lp862
I97
ag725
aa(lp863
I98
ag784
aa(lp864
I99
ag723
aaaa(lp865
I101
aI103
ag132
a(lp866
(lp867
I101
ag762
aa(lp868
I102
ag756
aa(lp869
I103
aS'n'
p870
aaaa(lp871
I105
aI106
aS'of'
p872
a(lp873
(lp874
I105
ag756
aa(lp875
I106
ag799
aaaa(lp876
I108
aI115
ag141
a(lp877
(lp878
I108
ag803
aa(lp879
I109
ag756
aa(lp880
I110
ag806
aa(lp881
I112
ag721
aa(lp882
I113
ag729
aa(lp883
I114
ag739
aa(lp884
I115
ag847
aaaa(lp885
I117
aI122
ag150
a(lp886
(lp887
I117
ag822
aa(lp888
I118
ag727
aa(lp889
I119
ag721
aa(lp890
I120
ag721
aa(lp891
I121
ag723
aa(lp892
I122
ag870
aaaa(lp893
I124
aI125
aS'in'
p894
a(lp895
(lp896
I124
ag729
aa(lp897
I125
ag870
aaaa(lp898
I127
aI129
aS'the'
p899
a(lp900
(lp901
I127
ag725
aa(lp902
I128
ag784
aa(lp903
I129
ag723
aaaa(lp904
I131
aI137
ag159
a(lp905
(lp906
I131
ag735
aa(lp907
I132
ag758
aa(lp908
I133
ag721
aa(lp909
I134
ag735
aa(lp910
I135
ag756
aa(lp911
I136
ag762
aa(lp912
I137
ag723
aaaa(lp913
I139
aI148
ag168
a(lp914
(lp915
I139
ag806
aa(lp916
I140
ag721
aa(lp917
I141
ag729
aa(lp918
I142
ag765
aa(lp919
I143
ag723
aa(lp920
I144
ag870
aa(lp921
I145
ag731
aa(lp922
I146
ag729
aa(lp923
I147
ag799
aa(lp924
I148
ag723
aaaa(lp925
I150
aI152
aS'you'
p926
a(lp927
(lp928
I150
ag754
aa(lp929
I151
ag756
aa(lp930
I152
ag758
aaaa(lp931
I154
aI157
aS'were'
p932
a(lp933
(lp934
I154
ag822
aa(lp935
I155
ag723
aa(lp936
I156
ag721
aa(lp937
I157
ag723
aaaa(lp938
I159
aI165
ag177
a(lp939
(lp940
I159
ag739
aa(lp941
I160
ag721
aa(lp942
I161
ag723
aa(lp943
I162
ag727
aa(lp944
I163
ag725
aa(lp945
I164
ag723
aa(lp946
I165
ag806
aaaa(lp947
I167
aI168
aS'to'
p948
a(lp949
(lp950
I167
ag725
aa(lp951
I168
ag756
aaaa(lp952
I170
aI175
ag186
a(lp953
(lp954
I170
aS'b'
p955
aa(lp956
I171
ag723
aa(lp957
I172
ag739
aa(lp958
I173
ag756
aa(lp959
I174
ag844
aa(lp960
I175
ag723
aaaa(lp961
I177
aI180
ag195
a(lp962
(lp963
I177
ag731
aa(lp964
I178
ag729
aa(lp965
I179
ag847
aa(lp966
I180
ag723
aaaa(lp967
I182
aI187
ag204
a(lp968
(lp969
I182
ag739
aa(lp970
I183
ag784
aa(lp971
I184
ag721
aa(lp972
I185
ag729
aa(lp973
I186
ag762
aa(lp974
I187
ag725
aaaa(lp975
I190
aI193
aS'this'
p976
a(lp977
(lp978
I190
ag725
aa(lp979
I191
ag784
aa(lp980
I192
ag729
aa(lp981
I193
ag762
aaaa(lp982
I195
aI196
aS'is'
p983
a(lp984
(lp985
I195
ag729
aa(lp986
I196
ag762
aaaa(lp987
I198
aI200
ag213
a(lp988
(lp989
I198
ag756
aa(lp990
I199
ag870
aa(lp991
I200
ag723
aaaa(lp992
I202
aI203
aS'of'
p993
a(lp994
(lp995
I202
ag756
aa(lp996
I203
ag799
aaaa(lp997
I205
aI207
aS'the'
p998
a(lp999
(lp1000
I205
ag725
aa(lp1001
I206
ag784
aa(lp1002
I207
ag723
aaaa(lp1003
I209
aI212
ag222
a(lp1004
(lp1005
I209
ag799
aa(lp1006
I210
ag729
aa(lp1007
I211
ag765
aa(lp1008
I212
ag723
aaaa(lp1009
I214
aI225
ag231
a(lp1010
(lp1011
I214
ag803
aa(lp1012
I215
ag756
aa(lp1013
I216
ag806
aa(lp1014
I218
ag756
aa(lp1015
I219
ag721
aa(lp1016
I220
ag806
aa(lp1017
I221
ag727
aa(lp1018
I222
ag729
aa(lp1019
I223
ag870
aa(lp1020
I224
ag723
aa(lp1021
I225
ag806
aaaa(lp1022
I227
aI234
ag240
a(lp1023
(lp1024
I227
ag735
aa(lp1025
I228
ag758
aa(lp1026
I229
ag721
aa(lp1027
I230
ag735
aa(lp1028
I231
ag756
aa(lp1029
I232
ag762
aa(lp1030
I233
ag723
aa(lp1031
I234
ag762
aaaa(lp1032
I236
aI238
aS'for'
p1033
a(lp1034
(lp1035
I236
ag799
aa(lp1036
I237
ag756
aa(lp1037
I238
ag721
aaaa(lp1038
I240
aI243
aS'your'
p1039
a(lp1040
(lp1041
I240
ag754
aa(lp1042
I241
ag756
aa(lp1043
I242
ag758
aa(lp1044
I243
ag721
aaaa(lp1045
I245
aI248
ag249
a(lp1046
(lp1047
I245
ag731
aa(lp1048
I246
ag729
aa(lp1049
I247
ag799
aa(lp1050
I248
ag723
aaaa(lp1051
I250
aI258
ag258
a(lp1052
(lp1053
I250
ag806
aa(lp1054
I251
ag723
aa(lp1055
I252
ag762
aa(lp1056
I253
ag739
aa(lp1057
I254
ag721
aa(lp1058
I255
ag729
aa(lp1059
I256
ag955
aa(lp1060
I257
ag723
aa(lp1061
I258
ag806
aaaa(lp1062
I260
aI261
aS'in'
p1063
a(lp1064
(lp1065
I260
ag729
aa(lp1066
I261
ag870
aaaa(lp1067
I263
aI265
aS'the'
p1068
a(lp1069
(lp1070
I263
ag725
aa(lp1071
I264
ag784
aa(lp1072
I265
ag723
aaaa(lp1073
I267
aI273
ag267
a(lp1074
(lp1075
I267
ag735
aa(lp1076
I268
ag758
aa(lp1077
I269
ag721
aa(lp1078
I270
ag735
aa(lp1079
I271
ag756
aa(lp1080
I272
ag762
aa(lp1081
I273
ag723
aaaa(lp1082
I275
aI284
ag276
a(lp1083
(lp1084
I275
ag806
aa(lp1085
I276
ag721
aa(lp1086
I277
ag729
aa(lp1087
I278
ag765
aa(lp1088
I279
ag723
aa(lp1089
I280
ag870
aa(lp1090
I281
ag731
aa(lp1091
I282
ag729
aa(lp1092
I283
ag799
aa(lp1093
I284
ag723
aaaa(lp1094
I286
aI287
aS'by'
p1095
a(lp1096
(lp1097
I286
ag955
aa(lp1098
I287
ag754
aaaa(lp1099
I289
aI292
ag285
a(lp1100
(lp1101
I289
ag721
aa(lp1102
I290
ag729
aa(lp1103
I291
ag739
aa(lp1104
I292
ag847
aaaa(lp1105
I294
aI299
ag294
a(lp1106
(lp1107
I294
ag822
aa(lp1108
I295
ag727
aa(lp1109
I296
ag721
aa(lp1110
I297
ag721
aa(lp1111
I298
ag723
aa(lp1112
I299
ag870
aaaa(lp1113
I302
aI304
aS'and'
p1114
a(lp1115
(lp1116
I302
ag727
aa(lp1117
I303
ag870
aa(lp1118
I304
ag806
aaaa(lp1119
I306
aI307
aS'it'
p1120
a(lp1121
(lp1122
I306
ag729
aa(lp1123
I307
ag725
aaaa(lp1124
I309
aI311
aS'why'
p1125
a(lp1126
(lp1127
I309
ag822
aa(lp1128
I310
ag784
aa(lp1129
I311
ag754
aaaa(lp1130
I313
aI320
ag303
a(lp1131
(lp1132
I313
ag762
aa(lp1133
I314
ag725
aa(lp1134
I315
ag758
aa(lp1135
I316
ag806
aa(lp1136
I317
ag754
aa(lp1137
I318
ag729
aa(lp1138
I319
ag870
aa(lp1139
I320
ag803
aaaa(lp1140
I322
aI324
aS'the'
p1141
a(lp1142
(lp1143
I322
ag725
aa(lp1144
I323
ag784
aa(lp1145
I324
ag723
aaaa(lp1146
I326
aI330
ag312
a(lp1147
(lp1148
I326
ag955
aa(lp1149
I327
ag729
aa(lp1150
I328
ag955
aa(lp1151
I329
ag731
aa(lp1152
I330
ag723
aaaa(lp1153
I332
aI333
aS'is'
p1154
a(lp1155
(lp1156
I332
ag729
aa(lp1157
I333
ag762
aaaa(lp1158
I335
aI336
aS'so'
p1159
a(lp1160
(lp1161
I335
ag762
aa(lp1162
I336
ag756
aaaa(lp1163
I338
aI346
ag321
a(lp1164
(lp1165
I338
ag729
aa(lp1166
I339
ag844
aa(lp1167
I340
ag735
aa(lp1168
I341
ag756
aa(lp1169
I342
ag721
aa(lp1170
I343
ag725
aa(lp1171
I344
ag727
aa(lp1172
I345
ag870
aa(lp1173
I346
ag725
aaaa(lp1174
I349
aI351
aS'the'
p1175
a(lp1176
(lp1177
I349
ag725
aa(lp1178
I350
ag784
aa(lp1179
I351
ag723
aaaa(lp1180
I353
aI357
ag330
a(lp1181
(lp1182
I353
ag955
aa(lp1183
I354
ag729
aa(lp1184
I355
ag955
aa(lp1185
I356
ag731
aa(lp1186
I357
ag723
aaaa(lp1187
I359
aI364
ag339
a(lp1188
(lp1189
I359
ag725
aa(lp1190
I360
ag721
aa(lp1191
I361
ag758
aa(lp1192
I362
ag725
aa(lp1193
I363
ag784
aa(lp1194
I364
ag762
aaaa(lp1195
I366
aI369
aS'will'
p1196
a(lp1197
(lp1198
I366
ag822
aa(lp1199
I367
ag729
aa(lp1200
I368
ag731
aa(lp1201
I369
ag731
aaaa(lp1202
I371
aI379
ag348
a(lp1203
(lp1204
I371
ag725
aa(lp1205
I372
ag721
aa(lp1206
I373
ag727
aa(lp1207
I374
ag870
aa(lp1208
I375
ag762
aa(lp1209
I376
ag799
aa(lp1210
I377
ag756
aa(lp1211
I378
ag721
aa(lp1212
I379
ag844
aaaa(lp1213
I381
aI383
aS'you'
p1214
a(lp1215
(lp1216
I381
ag754
aa(lp1217
I382
ag756
aa(lp1218
I383
ag758
aaaa(lp1219
I386
aI393
ag357
a(lp1220
(lp1221
I386
ag727
aa(lp1222
I387
ag731
aa(lp1223
I388
ag729
aa(lp1224
I389
ag803
aa(lp1225
I390
ag870
aa(lp1226
I391
ag729
aa(lp1227
I392
ag870
aa(lp1228
I393
ag803
aaaa(lp1229
I395
aI397
aS'you'
p1230
a(lp1231
(lp1232
I395
ag754
aa(lp1233
I396
ag756
aa(lp1234
I397
ag758
aaaa(lp1235
I399
aI402
aS'with'
p1236
a(lp1237
(lp1238
I399
ag822
aa(lp1239
I400
ag729
aa(lp1240
I401
ag725
aa(lp1241
I402
ag784
aaaa(lp1242
I404
aI406
aS'the'
p1243
a(lp1244
(lp1245
I404
ag725
aa(lp1246
I405
ag784
aa(lp1247
I406
ag723
aaaa(lp1248
I408
aI416
ag366
a(lp1249
(lp1250
I408
ag739
aa(lp1251
I409
ag784
aa(lp1252
I410
ag727
aa(lp1253
I411
ag721
aa(lp1254
I412
ag727
aa(lp1255
I413
ag739
aa(lp1256
I414
ag725
aa(lp1257
I415
ag723
aa(lp1258
I416
ag721
aaaa(lp1259
I418
aI420
aS'and'
p1260
a(lp1261
(lp1262
I418
ag727
aa(lp1263
I419
ag870
aa(lp1264
I420
ag806
aaaa(lp1265
I422
aI425
ag375
a(lp1266
(lp1267
I422
ag822
aa(lp1268
I423
ag727
aa(lp1269
I424
ag754
aa(lp1270
I425
ag762
aaaa(lp1271
I427
aI428
aS'of'
p1272
a(lp1273
(lp1274
I427
ag756
aa(lp1275
I428
ag799
aaaa(lp1276
I430
aI434
ag384
a(lp1277
(lp1278
I430
aS'j'
p1279
aa(lp1280
I431
ag723
aa(lp1281
I432
ag762
aa(lp1282
I433
ag758
aa(lp1283
I434
ag762
aaaa(lp1284
I436
aI437
aS'as'
p1285
a(lp1286
(lp1287
I436
ag727
aa(lp1288
I437
ag762
aaaa(lp1289
I439
aI441
aS'you'
p1290
a(lp1291
(lp1292
I439
ag754
aa(lp1293
I440
ag756
aa(lp1294
I441
ag758
aaaa(lp1295
I443
aI451
ag393
a(lp1296
(lp1297
I443
ag723
aa(lp1298
I444
ag870
aa(lp1299
I445
ag739
aa(lp1300
I446
ag756
aa(lp1301
I447
ag758
aa(lp1302
I448
ag870
aa(lp1303
I449
ag725
aa(lp1304
I450
ag723
aa(lp1305
I451
ag721
aaaa(lp1306
I453
aI455
aS'him'
p1307
a(lp1308
(lp1309
I453
ag784
aa(lp1310
I454
ag729
aa(lp1311
I455
ag844
aaaa(lp1312
I457
aI458
aS'in'
p1313
a(lp1314
(lp1315
I457
ag729
aa(lp1316
I458
ag870
aaaa(lp1317
I460
aI462
aS'the'
p1318
a(lp1319
(lp1320
I460
ag725
aa(lp1321
I461
ag784
aa(lp1322
I462
ag723
aaaa(lp1323
I464
aI473
ag402
a(lp1324
(lp1325
I464
ag762
aa(lp1326
I465
ag739
aa(lp1327
I466
ag721
aa(lp1328
I467
ag729
aa(lp1329
I468
ag735
aa(lp1330
I469
ag725
aa(lp1331
I470
ag758
aa(lp1332
I471
ag721
aa(lp1333
I472
ag723
aa(lp1334
I473
ag762
aaaa(lp1335
I476
aI479
aS'this'
p1336
a(lp1337
(lp1338
I476
ag725
aa(lp1339
I477
ag784
aa(lp1340
I478
ag729
aa(lp1341
I479
ag762
aaaa(lp1342
I481
aI498
ag411
a(lp1343
(lp1344
I481
ag723
aa(lp1345
I482
ag727
aa(lp1346
I483
ag762
aa(lp1347
I484
ag754
aa(lp1348
I486
ag725
aa(lp1349
I487
ag756
aa(lp1350
I489
ag758
aa(lp1351
I490
ag870
aa(lp1352
I491
ag806
aa(lp1353
I492
ag723
aa(lp1354
I493
ag721
aa(lp1355
I494
ag762
aa(lp1356
I495
ag725
aa(lp1357
I496
ag727
aa(lp1358
I497
ag870
aa(lp1359
I498
ag806
aaaa(lp1360
I500
aI503
ag420
a(lp1361
(lp1362
I500
ag955
aa(lp1363
I501
ag756
aa(lp1364
I502
ag756
aa(lp1365
I503
ag847
aaaa(lp1366
I505
aI509
ag429
a(lp1367
(lp1368
I505
ag762
aa(lp1369
I506
ag784
aa(lp1370
I507
ag756
aa(lp1371
I508
ag822
aa(lp1372
I509
ag762
aaaa(lp1373
I511
aI513
aS'you'
p1374
a(lp1375
(lp1376
I511
ag754
aa(lp1377
I512
ag756
aa(lp1378
I513
ag758
aaaa(lp1379
I515
aI517
aS'how'
p1380
a(lp1381
(lp1382
I515
ag784
aa(lp1383
I516
ag756
aa(lp1384
I517
ag822
aaaa(lp1385
I519
aI520
aS'to'
p1386
a(lp1387
(lp1388
I519
ag725
aa(lp1389
I520
ag756
aaaa(lp1390
I522
aI526
ag438
a(lp1391
(lp1392
I522
ag762
aa(lp1393
I523
ag725
aa(lp1394
I524
ag758
aa(lp1395
I525
ag806
aa(lp1396
I526
ag754
aaaa(lp1397
I528
aI530
aS'the'
p1398
a(lp1399
(lp1400
I528
ag725
aa(lp1401
I529
ag784
aa(lp1402
I530
ag723
aaaa(lp1403
I532
aI536
ag447
a(lp1404
(lp1405
I532
ag955
aa(lp1406
I533
ag729
aa(lp1407
I534
ag955
aa(lp1408
I535
ag731
aa(lp1409
I536
ag723
aaaa(lp1410
I538
aI541
ag456
a(lp1411
(lp1412
I538
ag721
aa(lp1413
I539
ag729
aa(lp1414
I540
ag739
aa(lp1415
I541
ag847
aaaa(lp1416
I543
aI548
ag465
a(lp1417
(lp1418
I543
ag822
aa(lp1419
I544
ag727
aa(lp1420
I545
ag721
aa(lp1421
I546
ag721
aa(lp1422
I547
ag723
aa(lp1423
I548
ag870
aaaa(lp1424
I550
aI552
ag474
a(lp1425
(lp1426
I550
ag822
aa(lp1427
I551
ag727
aa(lp1428
I552
ag754
aaaa(lp1429
I555
aI556
aS'it'
p1430
a(lp1431
(lp1432
I555
ag729
aa(lp1433
I556
ag725
aaaa(lp1434
I558
aI562
ag483
a(lp1435
(lp1436
I558
ag803
aa(lp1437
I559
ag729
aa(lp1438
I560
ag765
aa(lp1439
I561
ag723
aa(lp1440
I562
ag762
aaaa(lp1441
I564
aI566
aS'you'
p1442
a(lp1443
(lp1444
I564
ag754
aa(lp1445
I565
ag756
aa(lp1446
I566
ag758
aaaa(lp1447
I568
aI570
aS'not'
p1448
a(lp1449
(lp1450
I568
ag870
aa(lp1451
I569
ag756
aa(lp1452
I570
ag725
aaaa(lp1453
I572
aI575
aS'just'
p1454
a(lp1455
(lp1456
I572
ag1279
aa(lp1457
I573
ag758
aa(lp1458
I574
ag762
aa(lp1459
I575
ag725
aaaa(lp1460
I577
aI579
ag492
a(lp1461
(lp1462
I577
ag756
aa(lp1463
I578
ag870
aa(lp1464
I579
ag723
aaaa(lp1465
I582
aI584
aS'but'
p1466
a(lp1467
(lp1468
I582
ag955
aa(lp1469
I583
ag758
aa(lp1470
I584
ag725
aaaa(lp1471
I586
aI591
ag501
a(lp1472
(lp1473
I586
ag725
aa(lp1474
I587
ag822
aa(lp1475
I588
ag723
aa(lp1476
I589
ag731
aa(lp1477
I590
ag765
aa(lp1478
I591
ag723
aaaa(lp1479
I593
aI599
ag510
a(lp1480
(lp1481
I593
ag844
aa(lp1482
I594
ag723
aa(lp1483
I595
ag725
aa(lp1484
I596
ag784
aa(lp1485
I597
ag756
aa(lp1486
I598
ag806
aa(lp1487
I599
ag762
aaaa(lp1488
I601
aI603
aS'for'
p1489
a(lp1490
(lp1491
I601
ag799
aa(lp1492
I602
ag756
aa(lp1493
I603
ag721
aaaa(lp1494
I605
aI613
ag519
a(lp1495
(lp1496
I605
ag723
aa(lp1497
I606
aS'x'
p1498
aa(lp1499
I607
ag735
aa(lp1500
I608
ag731
aa(lp1501
I609
ag756
aa(lp1502
I610
ag721
aa(lp1503
I611
ag729
aa(lp1504
I612
ag870
aa(lp1505
I613
ag803
aaaa(lp1506
I615
aI617
aS'the'
p1507
a(lp1508
(lp1509
I615
ag725
aa(lp1510
I616
ag784
aa(lp1511
I617
ag723
aaaa(lp1512
I619
aI624
ag528
a(lp1513
(lp1514
I619
ag721
aa(lp1515
I620
ag729
aa(lp1516
I621
ag739
aa(lp1517
I622
ag784
aa(lp1518
I623
ag723
aa(lp1519
I624
ag762
aaaa(lp1520
I626
aI627
aS'of'
p1521
a(lp1522
(lp1523
I626
ag756
aa(lp1524
I627
ag799
aaaa(lp1525
I629
aI631
ag537
a(lp1526
(lp1527
I629
ag803
aa(lp1528
I630
ag756
aa(lp1529
I631
ag806
aaaa(lp1530
I633
aI636
ag546
a(lp1531
(lp1532
I633
ag822
aa(lp1533
I634
ag756
aa(lp1534
I635
ag721
aa(lp1535
I636
ag806
aaaa(lp1536
I639
aI640
aS'at'
p1537
a(lp1538
(lp1539
I639
ag727
aa(lp1540
I640
ag725
aaaa(lp1541
I642
aI646
ag555
a(lp1542
(lp1543
I642
ag731
aa(lp1544
I643
ag723
aa(lp1545
I644
ag727
aa(lp1546
I645
ag762
aa(lp1547
I646
ag725
aaaa(lp1548
I648
aI650
ag564
a(lp1549
(lp1550
I648
ag756
aa(lp1551
I649
ag870
aa(lp1552
I650
ag723
aaaa(lp1553
I652
aI653
aS'of'
p1554
a(lp1555
(lp1556
I652
ag756
aa(lp1557
I653
ag799
aaaa(lp1558
I655
aI658
aS'them'
p1559
a(lp1560
(lp1561
I655
ag725
aa(lp1562
I656
ag784
aa(lp1563
I657
ag723
aa(lp1564
I658
ag844
aaaa(lp1565
I660
aI661
aS'is'
p1566
a(lp1567
(lp1568
I660
ag729
aa(lp1569
I661
ag762
aaaa(lp1570
I663
aI669
ag573
a(lp1571
(lp1572
I663
ag723
aa(lp1573
I664
ag1498
aa(lp1574
I665
ag727
aa(lp1575
I666
ag739
aa(lp1576
I667
ag725
aa(lp1577
I668
ag731
aa(lp1578
I669
ag754
aaaa(lp1579
I671
aI674
aS'what'
p1580
a(lp1581
(lp1582
I671
ag822
aa(lp1583
I672
ag784
aa(lp1584
I673
ag727
aa(lp1585
I674
ag725
aaaa(lp1586
I676
aI679
ag582
a(lp1587
(lp1588
I676
ag754
aa(lp1589
I677
ag756
aa(lp1590
I678
ag758
aa(lp1591
I679
ag723
aaaa(lp1592
I681
aI687
ag591
a(lp1593
(lp1594
I681
ag731
aa(lp1595
I682
ag756
aa(lp1596
I683
ag756
aa(lp1597
I684
ag847
aa(lp1598
I685
ag729
aa(lp1599
I686
ag870
aa(lp1600
I687
ag803
aaaa(lp1601
I689
aI692
ag600
a(lp1602
(lp1603
I689
ag799
aa(lp1604
I690
ag756
aa(lp1605
I691
ag721
aa(lp1606
I692
ag870
aaaa(lp1607
I694
aI701
ag609
a(lp1608
(lp1609
I694
ag727
aa(lp1610
I695
ag735
aa(lp1611
I696
ag735
aa(lp1612
I697
ag721
aa(lp1613
I698
ag756
aa(lp1614
I699
ag727
aa(lp1615
I700
ag739
aa(lp1616
I701
ag784
aaaa(lp1617
I703
aI706
aS'that'
p1618
a(lp1619
(lp1620
I703
ag725
aa(lp1621
I704
ag784
aa(lp1622
I705
ag727
aa(lp1623
I706
ag725
aaaa(lp1624
I708
aI712
ag618
a(lp1625
(lp1626
I708
ag721
aa(lp1627
I709
ag729
aa(lp1628
I710
ag803
aa(lp1629
I711
ag784
aa(lp1630
I712
ag725
aaaa(lp1631
I714
aI716
aS'for'
p1632
a(lp1633
(lp1634
I714
ag799
aa(lp1635
I715
ag756
aa(lp1636
I716
ag721
aaaa(lp1637
I718
aI720
aS'you'
p1638
a(lp1639
(lp1640
I718
ag754
aa(lp1641
I719
ag756
aa(lp1642
I720
ag758
aaaa(lp1643
I723
aI727
ag627
a(lp1644
(lp1645
I723
ag721
aa(lp1646
I724
ag729
aa(lp1647
I725
ag803
aa(lp1648
I726
ag784
aa(lp1649
I727
ag725
aaaa(lp1650
I729
aI733
aS'where'
p1651
a(lp1652
(lp1653
I729
ag822
aa(lp1654
I730
ag784
aa(lp1655
I731
ag723
aa(lp1656
I732
ag721
aa(lp1657
I733
ag723
aaaa(lp1658
I735
aI738
ag636
a(lp1659
(lp1660
I735
ag754
aa(lp1661
I736
ag756
aa(lp1662
I737
ag758
aa(lp1663
I738
ag723
aaaa(lp1664
I740
aI741
aS'at'
p1665
a(lp1666
(lp1667
I740
ag727
aa(lp1668
I741
ag725
aaaa(lp1669
I744
aI749
ag645
a(lp1670
(lp1671
I744
ag762
aa(lp1672
I745
ag729
aa(lp1673
I746
ag844
aa(lp1674
I747
ag735
aa(lp1675
I748
ag731
aa(lp1676
I749
ag723
aaaa(lp1677
I751
aI762
ag654
a(lp1678
(lp1679
I751
ag762
aa(lp1680
I752
ag725
aa(lp1681
I753
ag723
aa(lp1682
I754
ag735
aa(lp1683
I756
ag955
aa(lp1684
I757
ag754
aa(lp1685
I759
ag762
aa(lp1686
I760
ag725
aa(lp1687
I761
ag723
aa(lp1688
I762
ag735
aaaa(lp1689
I764
aI775
ag663
a(lp1690
(lp1691
I764
ag729
aa(lp1692
I765
ag870
aa(lp1693
I766
ag762
aa(lp1694
I767
ag725
aa(lp1695
I768
ag721
aa(lp1696
I769
ag758
aa(lp1697
I770
ag739
aa(lp1698
I771
ag725
aa(lp1699
I772
ag729
aa(lp1700
I773
ag756
aa(lp1701
I774
ag870
aa(lp1702
I775
ag762
aaaa(lp1703
I777
aI781
ag672
a(lp1704
(lp1705
I777
ag803
aa(lp1706
I778
ag758
aa(lp1707
I779
ag729
aa(lp1708
I780
ag806
aa(lp1709
I781
ag723
aaaa(lp1710
I783
aI785
aS'you'
p1711
a(lp1712
(lp1713
I783
ag754
aa(lp1714
I784
ag756
aa(lp1715
I785
ag758
aaaa(lp1716
I787
aI793
aS'through'
p1717
a(lp1718
(lp1719
I787
ag725
aa(lp1720
I788
ag784
aa(lp1721
I789
ag721
aa(lp1722
I790
ag756
aa(lp1723
I791
ag758
aa(lp1724
I792
ag803
aa(lp1725
I793
ag784
aaaa(lp1726
I795
aI797
aS'the'
p1727
a(lp1728
(lp1729
I795
ag725
aa(lp1730
I796
ag784
aa(lp1731
I797
ag723
aaaa(lp1732
I799
aI805
ag681
a(lp1733
(lp1734
I799
ag784
aa(lp1735
I800
ag756
aa(lp1736
I801
ag822
aa(lp1737
I803
ag725
aa(lp1738
I804
ag756
aa(lp1739
I805
ag762
aaaa(lp1740
I807
aI808
aS'of'
p1741
a(lp1742
(lp1743
I807
ag756
aa(lp1744
I808
ag799
aaaa(lp1745
I810
aI812
aS'the'
p1746
a(lp1747
(lp1748
I810
ag725
aa(lp1749
I811
ag784
aa(lp1750
I812
ag723
aaaa(lp1751
I814
aI822
ag690
a(lp1752
(lp1753
I814
ag799
aa(lp1754
I815
ag756
aa(lp1755
I816
ag731
aa(lp1756
I817
ag731
aa(lp1757
I818
ag756
aa(lp1758
I819
ag822
aa(lp1759
I820
ag729
aa(lp1760
I821
ag870
aa(lp1761
I822
ag803
aaaa(lp1762
I824
aI830
ag699
a(lp1763
(lp1764
I824
ag844
aa(lp1765
I825
ag723
aa(lp1766
I826
ag725
aa(lp1767
I827
ag784
aa(lp1768
I828
ag756
aa(lp1769
I829
ag806
aa(lp1770
I830
ag762
aaaa(lp1771
I824
aI830
ag708
a(lp1772
(lp1773
I833
ag806
aa(lp1774
I834
ag723
aa(lp1775
I835
ag765
aa(lp1776
I836
ag756
aa(lp1777
I837
ag725
aa(lp1778
I838
ag729
aa(lp1779
I839
ag756
aa(lp1780
I840
ag870
aa(lp1781
I841
ag727
aa(lp1782
I842
ag731
aaaasS'cleanCharacterMap'
p1783
(lp1784
g720
ag722
ag724
ag726
ag728
ag730
a(lp1785
I6
aS' '
p1786
aag734
ag736
ag737
ag738
ag740
a(lp1787
I13
ag1786
aag743
ag745
ag747
ag749
a(lp1788
I20
ag1786
aag753
ag755
ag757
a(lp1789
I24
ag1786
aag761
ag763
ag764
ag766
a(lp1790
I30
ag1786
aag769
ag771
ag773
a(lp1791
I36
ag1786
aag777
ag779
a(lp1792
I42
ag1786
aag783
ag785
a(lp1793
I45
ag1786
aag788
ag789
ag790
ag791
ag792
ag793
a(lp1794
I52
ag1786
aag797
ag798
a(lp1795
I55
ag1786
aag802
ag804
ag805
a(lp1796
I59
ag1786
aag809
ag810
ag811
ag812
a(lp1797
I64
ag1786
aag816
ag817
ag818
a(lp1798
I68
ag1786
aag821
ag823
ag824
ag825
a(lp1799
I73
ag1786
aag829
ag830
a(lp1800
I76
ag1786
aag833
ag834
ag835
a(lp1801
I80
ag1786
aag839
ag840
a(lp1802
I83
ag1786
aag843
ag845
ag846
ag848
a(lp1803
I88
ag1786
aag851
ag852
a(lp1804
I91
ag1786
aag855
ag856
ag857
ag858
a(lp1805
I96
ag1786
aag862
ag863
ag864
a(lp1806
I100
ag1786
aag867
ag868
ag869
a(lp1807
I104
ag1786
aag874
ag875
a(lp1808
I107
ag1786
aag878
ag879
ag880
ag881
ag882
ag883
ag884
a(lp1809
I116
ag1786
aag887
ag888
ag889
ag890
ag891
ag892
a(lp1810
I123
ag1786
aag896
ag897
a(lp1811
I126
ag1786
aag901
ag902
ag903
a(lp1812
I130
ag1786
aag906
ag907
ag908
ag909
ag910
ag911
ag912
a(lp1813
I138
ag1786
aag915
ag916
ag917
ag918
ag919
ag920
ag921
ag922
ag923
ag924
a(lp1814
I149
ag1786
aag928
ag929
ag930
a(lp1815
I153
ag1786
aag934
ag935
ag936
ag937
a(lp1816
I158
ag1786
aag940
ag941
ag942
ag943
ag944
ag945
ag946
a(lp1817
I166
ag1786
aag950
ag951
a(lp1818
I169
ag1786
aag954
ag956
ag957
ag958
ag959
ag960
a(lp1819
I176
ag1786
aag963
ag964
ag965
ag966
a(lp1820
I181
ag1786
aag969
ag970
ag971
ag972
ag973
ag974
a(lp1821
I189
ag1786
aag978
ag979
ag980
ag981
a(lp1822
I194
ag1786
aag985
ag986
a(lp1823
I197
ag1786
aag989
ag990
ag991
a(lp1824
I201
ag1786
aag995
ag996
a(lp1825
I204
ag1786
aag1000
ag1001
ag1002
a(lp1826
I208
ag1786
aag1005
ag1006
ag1007
ag1008
a(lp1827
I213
ag1786
aag1011
ag1012
ag1013
ag1014
ag1015
ag1016
ag1017
ag1018
ag1019
ag1020
ag1021
a(lp1828
I226
ag1786
aag1024
ag1025
ag1026
ag1027
ag1028
ag1029
ag1030
ag1031
a(lp1829
I235
ag1786
aag1035
ag1036
ag1037
a(lp1830
I239
ag1786
aag1041
ag1042
ag1043
ag1044
a(lp1831
I244
ag1786
aag1047
ag1048
ag1049
ag1050
a(lp1832
I249
ag1786
aag1053
ag1054
ag1055
ag1056
ag1057
ag1058
ag1059
ag1060
ag1061
a(lp1833
I259
ag1786
aag1065
ag1066
a(lp1834
I262
ag1786
aag1070
ag1071
ag1072
a(lp1835
I266
ag1786
aag1075
ag1076
ag1077
ag1078
ag1079
ag1080
ag1081
a(lp1836
I274
ag1786
aag1084
ag1085
ag1086
ag1087
ag1088
ag1089
ag1090
ag1091
ag1092
ag1093
a(lp1837
I285
ag1786
aag1097
ag1098
a(lp1838
I288
ag1786
aag1101
ag1102
ag1103
ag1104
a(lp1839
I293
ag1786
aag1107
ag1108
ag1109
ag1110
ag1111
ag1112
a(lp1840
I301
ag1786
aag1116
ag1117
ag1118
a(lp1841
I305
ag1786
aag1122
ag1123
a(lp1842
I308
ag1786
aag1127
ag1128
ag1129
a(lp1843
I312
ag1786
aag1132
ag1133
ag1134
ag1135
ag1136
ag1137
ag1138
ag1139
a(lp1844
I321
ag1786
aag1143
ag1144
ag1145
a(lp1845
I325
ag1786
aag1148
ag1149
ag1150
ag1151
ag1152
a(lp1846
I331
ag1786
aag1156
ag1157
a(lp1847
I334
ag1786
aag1161
ag1162
a(lp1848
I337
ag1786
aag1165
ag1166
ag1167
ag1168
ag1169
ag1170
ag1171
ag1172
ag1173
a(lp1849
I348
ag1786
aag1177
ag1178
ag1179
a(lp1850
I352
ag1786
aag1182
ag1183
ag1184
ag1185
ag1186
a(lp1851
I358
ag1786
aag1189
ag1190
ag1191
ag1192
ag1193
ag1194
a(lp1852
I365
ag1786
aag1198
ag1199
ag1200
ag1201
a(lp1853
I370
ag1786
aag1204
ag1205
ag1206
ag1207
ag1208
ag1209
ag1210
ag1211
ag1212
a(lp1854
I380
ag1786
aag1216
ag1217
ag1218
a(lp1855
I385
ag1786
aag1221
ag1222
ag1223
ag1224
ag1225
ag1226
ag1227
ag1228
a(lp1856
I394
ag1786
aag1232
ag1233
ag1234
a(lp1857
I398
ag1786
aag1238
ag1239
ag1240
ag1241
a(lp1858
I403
ag1786
aag1245
ag1246
ag1247
a(lp1859
I407
ag1786
aag1250
ag1251
ag1252
ag1253
ag1254
ag1255
ag1256
ag1257
ag1258
a(lp1860
I417
ag1786
aag1262
ag1263
ag1264
a(lp1861
I421
ag1786
aag1267
ag1268
ag1269
ag1270
a(lp1862
I426
ag1786
aag1274
ag1275
a(lp1863
I429
ag1786
aag1278
ag1280
ag1281
ag1282
ag1283
a(lp1864
I435
ag1786
aag1287
ag1288
a(lp1865
I438
ag1786
aag1292
ag1293
ag1294
a(lp1866
I442
ag1786
aag1297
ag1298
ag1299
ag1300
ag1301
ag1302
ag1303
ag1304
ag1305
a(lp1867
I452
ag1786
aag1309
ag1310
ag1311
a(lp1868
I456
ag1786
aag1315
ag1316
a(lp1869
I459
ag1786
aag1320
ag1321
ag1322
a(lp1870
I463
ag1786
aag1325
ag1326
ag1327
ag1328
ag1329
ag1330
ag1331
ag1332
ag1333
ag1334
a(lp1871
I475
ag1786
aag1338
ag1339
ag1340
ag1341
a(lp1872
I480
ag1786
aag1344
ag1345
ag1346
ag1347
ag1348
ag1349
ag1350
ag1351
ag1352
ag1353
ag1354
ag1355
ag1356
ag1357
ag1358
ag1359
a(lp1873
I499
ag1786
aag1362
ag1363
ag1364
ag1365
a(lp1874
I504
ag1786
aag1368
ag1369
ag1370
ag1371
ag1372
a(lp1875
I510
ag1786
aag1376
ag1377
ag1378
a(lp1876
I514
ag1786
aag1382
ag1383
ag1384
a(lp1877
I518
ag1786
aag1388
ag1389
a(lp1878
I521
ag1786
aag1392
ag1393
ag1394
ag1395
ag1396
a(lp1879
I527
ag1786
aag1400
ag1401
ag1402
a(lp1880
I531
ag1786
aag1405
ag1406
ag1407
ag1408
ag1409
a(lp1881
I537
ag1786
aag1412
ag1413
ag1414
ag1415
a(lp1882
I542
ag1786
aag1418
ag1419
ag1420
ag1421
ag1422
ag1423
a(lp1883
I549
ag1786
aag1426
ag1427
ag1428
a(lp1884
I554
ag1786
aag1432
ag1433
a(lp1885
I557
ag1786
aag1436
ag1437
ag1438
ag1439
ag1440
a(lp1886
I563
ag1786
aag1444
ag1445
ag1446
a(lp1887
I567
ag1786
aag1450
ag1451
ag1452
a(lp1888
I571
ag1786
aag1456
ag1457
ag1458
ag1459
a(lp1889
I576
ag1786
aag1462
ag1463
ag1464
a(lp1890
I581
ag1786
aag1468
ag1469
ag1470
a(lp1891
I585
ag1786
aag1473
ag1474
ag1475
ag1476
ag1477
ag1478
a(lp1892
I592
ag1786
aag1481
ag1482
ag1483
ag1484
ag1485
ag1486
ag1487
a(lp1893
I600
ag1786
aag1491
ag1492
ag1493
a(lp1894
I604
ag1786
aag1496
ag1497
ag1499
ag1500
ag1501
ag1502
ag1503
ag1504
ag1505
a(lp1895
I614
ag1786
aag1509
ag1510
ag1511
a(lp1896
I618
ag1786
aag1514
ag1515
ag1516
ag1517
ag1518
ag1519
a(lp1897
I625
ag1786
aag1523
ag1524
a(lp1898
I628
ag1786
aag1527
ag1528
ag1529
a(lp1899
I632
ag1786
aag1532
ag1533
ag1534
ag1535
a(lp1900
I638
ag1786
aag1539
ag1540
a(lp1901
I641
ag1786
aag1543
ag1544
ag1545
ag1546
ag1547
a(lp1902
I647
ag1786
aag1550
ag1551
ag1552
a(lp1903
I651
ag1786
aag1556
ag1557
a(lp1904
I654
ag1786
aag1561
ag1562
ag1563
ag1564
a(lp1905
I659
ag1786
aag1568
ag1569
a(lp1906
I662
ag1786
aag1572
ag1573
ag1574
ag1575
ag1576
ag1577
ag1578
a(lp1907
I670
ag1786
aag1582
ag1583
ag1584
ag1585
a(lp1908
I675
ag1786
aag1588
ag1589
ag1590
ag1591
a(lp1909
I680
ag1786
aag1594
ag1595
ag1596
ag1597
ag1598
ag1599
ag1600
a(lp1910
I688
ag1786
aag1603
ag1604
ag1605
ag1606
a(lp1911
I693
ag1786
aag1609
ag1610
ag1611
ag1612
ag1613
ag1614
ag1615
ag1616
a(lp1912
I702
ag1786
aag1620
ag1621
ag1622
ag1623
a(lp1913
I707
ag1786
aag1626
ag1627
ag1628
ag1629
ag1630
a(lp1914
I713
ag1786
aag1634
ag1635
ag1636
a(lp1915
I717
ag1786
aag1640
ag1641
ag1642
a(lp1916
I722
ag1786
aag1645
ag1646
ag1647
ag1648
ag1649
a(lp1917
I728
ag1786
aag1653
ag1654
ag1655
ag1656
ag1657
a(lp1918
I734
ag1786
aag1660
ag1661
ag1662
ag1663
a(lp1919
I739
ag1786
aag1667
ag1668
a(lp1920
I743
ag1786
aag1671
ag1672
ag1673
ag1674
ag1675
ag1676
a(lp1921
I750
ag1786
aag1679
ag1680
ag1681
ag1682
ag1683
ag1684
ag1685
ag1686
ag1687
ag1688
a(lp1922
I763
ag1786
aag1691
ag1692
ag1693
ag1694
ag1695
ag1696
ag1697
ag1698
ag1699
ag1700
ag1701
ag1702
a(lp1923
I776
ag1786
aag1705
ag1706
ag1707
ag1708
ag1709
a(lp1924
I782
ag1786
aag1713
ag1714
ag1715
a(lp1925
I786
ag1786
aag1719
ag1720
ag1721
ag1722
ag1723
ag1724
ag1725
a(lp1926
I794
ag1786
aag1729
ag1730
ag1731
a(lp1927
I798
ag1786
aag1734
ag1735
ag1736
ag1737
ag1738
ag1739
a(lp1928
I806
ag1786
aag1743
ag1744
a(lp1929
I809
ag1786
aag1748
ag1749
ag1750
a(lp1930
I813
ag1786
aag1753
ag1754
ag1755
ag1756
ag1757
ag1758
ag1759
ag1760
ag1761
a(lp1931
I823
ag1786
aag1764
ag1765
ag1766
ag1767
ag1768
ag1769
ag1770
a(lp1932
I832
ag1786
aag1773
ag1774
ag1775
ag1776
ag1777
ag1778
ag1779
ag1780
ag1781
ag1782
asS'text'
p1933
S'retail price: $16.99 you save: $3.40 (20%) he spirit of god uses the word of god to make us like the son of god.rick warren in the purpose drivenlife you were created to become like christ. this is one of the five god-ordained purposes for your life described in the purpose drivenlife by rick warren, and it why studying the bible is so important. the bible truths will transform you, aligning you with the character and ways of jesus as you encounter him in the scriptures. this easy-to-understand book shows you how to study the bible rick warren way. it gives you not just one, but twelve methods for exploring the riches of god word. at least one of them is exactly what youe looking forn approach that right for you, right where youe at. simple step-by-step instructions guide you through the how-tos of the following methods: devotional'
p1934
sS'cleanWordMap'
p1935
(lp1936
g718
ag732
ag741
ag759
ag767
ag775
ag786
ag800
ag807
ag819
ag831
ag841
ag849
ag853
ag865
ag876
ag885
ag904
ag913
ag938
ag952
ag961
ag967
ag987
ag1003
ag1009
ag1022
ag1045
ag1051
ag1073
ag1082
ag1099
ag1105
ag1130
ag1146
ag1163
ag1180
ag1187
ag1202
ag1219
ag1248
ag1265
ag1276
ag1295
ag1323
ag1342
ag1360
ag1366
ag1390
ag1403
ag1410
ag1416
ag1424
ag1434
ag1460
ag1471
ag1479
ag1494
ag1512
ag1525
ag1530
ag1541
ag1548
ag1570
ag1586
ag1592
ag1601
ag1607
ag1624
ag1643
ag1658
ag1669
ag1677
ag1689
ag1703
ag1732
ag1751
ag1762
ag1771
asS'lines'
p1937
(lp1938
VRetail Price: $16.99\u000a
p1939
aVYou Save: $3.40 (20%)\u000a
p1940
aVhe Spirit of God uses the Word of God to make us like the Son of God.Rick Warren in The Purpose DrivenLife You were created to become like Christ. This is one of the five God-ordained purposes for your life described in The Purpose DrivenLife by Rick Warren, and it why studying the Bible is so important.\u000a
p1941
aVThe Bible truths will transform you, aligning you with the character and ways of Jesus as you encounter him in the Scriptures. This easy-to-understand book shows you how to study the Bible Rick Warren way. It gives you not just one, but twelve methods for exploring the riches of God Word. At least one of them is exactly what youe looking forn approach that right for you, right where youe at.\u000a
p1942
aVSimple step-by-step instructions guide you through the how-tos of the following methods:\u000a
p1943
aVDevotional
p1944
asS'docType'
p1945
S'src'
p1946
sS'newfmap'
p1947
(lp1948
g4
ag8
ag10
ag12
ag14
ag17
ag19
ag21
ag23
ag26
ag28
ag30
ag32
ag35
ag37
ag39
ag41
ag44
ag46
ag48
ag50
ag53
ag55
ag57
ag59
ag62
ag64
ag66
ag68
ag71
ag73
ag75
ag77
ag80
ag82
ag84
ag86
ag89
ag91
ag93
ag95
ag98
ag100
ag102
ag104
ag107
ag109
ag111
ag113
ag116
ag118
ag120
ag122
ag125
ag127
ag129
ag131
ag134
ag136
ag138
ag140
ag143
ag145
ag147
ag149
ag152
ag154
ag156
ag158
ag161
ag163
ag165
ag167
ag170
ag172
ag174
ag176
ag179
ag181
ag183
ag185
ag188
ag190
ag192
ag194
ag197
ag199
ag201
ag203
ag206
ag208
ag210
ag212
ag215
ag217
ag219
ag221
ag224
ag226
ag228
ag230
ag233
ag235
ag237
ag239
ag242
ag244
ag246
ag248
ag251
ag253
ag255
ag257
ag260
ag262
ag264
ag266
ag269
ag271
ag273
ag275
ag278
ag280
ag282
ag284
ag287
ag289
ag291
ag293
ag296
ag298
ag300
ag302
ag305
ag307
ag309
ag311
ag314
ag316
ag318
ag320
ag323
ag325
ag327
ag329
ag332
ag334
ag336
ag338
ag341
ag343
ag345
ag347
ag350
ag352
ag354
ag356
ag359
ag361
ag363
ag365
ag368
ag370
ag372
ag374
ag377
ag379
ag381
ag383
ag386
ag388
ag390
ag392
ag395
ag397
ag399
ag401
ag404
ag406
ag408
ag410
ag413
ag415
ag417
ag419
ag422
ag424
ag426
ag428
ag431
ag433
ag435
ag437
ag440
ag442
ag444
ag446
ag449
ag451
ag453
ag455
ag458
ag460
ag462
ag464
ag467
ag469
ag471
ag473
ag476
ag478
ag480
ag482
ag485
ag487
ag489
ag491
ag494
ag496
ag498
ag500
ag503
ag505
ag507
ag509
ag512
ag514
ag516
ag518
ag521
ag523
ag525
ag527
ag530
ag532
ag534
ag536
ag539
ag541
ag543
ag545
ag548
ag550
ag552
ag554
ag557
ag559
ag561
ag563
ag566
ag568
ag570
ag572
ag575
ag577
ag579
ag581
ag584
ag586
ag588
ag590
ag593
ag595
ag597
ag599
ag602
ag604
ag606
ag608
ag611
ag613
ag615
ag617
ag620
ag622
ag624
ag626
ag629
ag631
ag633
ag635
ag638
ag640
ag642
ag644
ag647
ag649
ag651
ag653
ag656
ag658
ag660
ag662
ag665
ag667
ag669
ag671
ag674
ag676
ag678
ag680
ag683
ag685
ag687
ag689
ag692
ag694
ag696
ag698
ag701
ag703
ag705
ag707
ag710
ag712
ag714
asS'featureMap'
p1949
(lp1950
(lp1951
I0
aI5
ag5
ag6
ag9
ag11
ag13
aa(lp1952
I7
aI11
ag15
ag16
ag18
ag20
ag22
aa(lp1953
I15
aI19
ag24
ag25
ag27
ag29
ag31
aa(lp1954
I25
aI28
ag33
ag34
ag36
ag38
ag40
aa(lp1955
I32
aI35
ag42
ag43
ag45
ag47
ag49
aa(lp1956
I38
aI39
ag51
ag52
ag54
ag56
ag58
aa(lp1957
I46
aI51
ag60
ag61
ag63
ag65
ag67
aa(lp1958
I56
aI58
ag69
ag70
ag72
ag74
ag76
aa(lp1959
I60
aI63
ag78
ag79
ag81
ag83
ag85
aa(lp1960
I69
aI72
ag87
ag88
ag90
ag92
ag94
aa(lp1961
I77
aI79
ag96
ag97
ag99
ag101
ag103
aa(lp1962
I84
aI87
ag105
ag106
ag108
ag110
ag112
aa(lp1963
I89
aI90
ag114
ag115
ag117
ag119
ag121
aa(lp1964
I92
aI95
ag123
ag124
ag126
ag128
ag130
aa(lp1965
I101
aI103
ag132
ag133
ag135
ag137
ag139
aa(lp1966
I108
aI115
ag141
ag142
ag144
ag146
ag148
aa(lp1967
I117
aI122
ag150
ag151
ag153
ag155
ag157
aa(lp1968
I131
aI137
ag159
ag160
ag162
ag164
ag166
aa(lp1969
I139
aI148
ag168
ag169
ag171
ag173
ag175
aa(lp1970
I159
aI165
ag177
ag178
ag180
ag182
ag184
aa(lp1971
I170
aI175
ag186
ag187
ag189
ag191
ag193
aa(lp1972
I177
aI180
ag195
ag196
ag198
ag200
ag202
aa(lp1973
I182
aI187
ag204
ag205
ag207
ag209
ag211
aa(lp1974
I198
aI200
ag213
ag214
ag216
ag218
ag220
aa(lp1975
I209
aI212
ag222
ag223
ag225
ag227
ag229
aa(lp1976
I214
aI225
ag231
ag232
ag234
ag236
ag238
aa(lp1977
I227
aI234
ag240
ag241
ag243
ag245
ag247
aa(lp1978
I245
aI248
ag249
ag250
ag252
ag254
ag256
aa(lp1979
I250
aI258
ag258
ag259
ag261
ag263
ag265
aa(lp1980
I267
aI273
ag267
ag268
ag270
ag272
ag274
aa(lp1981
I275
aI284
ag276
ag277
ag279
ag281
ag283
aa(lp1982
I289
aI292
ag285
ag286
ag288
ag290
ag292
aa(lp1983
I294
aI299
ag294
ag295
ag297
ag299
ag301
aa(lp1984
I313
aI320
ag303
ag304
ag306
ag308
ag310
aa(lp1985
I326
aI330
ag312
ag313
ag315
ag317
ag319
aa(lp1986
I338
aI346
ag321
ag322
ag324
ag326
ag328
aa(lp1987
I353
aI357
ag330
ag331
ag333
ag335
ag337
aa(lp1988
I359
aI364
ag339
ag340
ag342
ag344
ag346
aa(lp1989
I371
aI379
ag348
ag349
ag351
ag353
ag355
aa(lp1990
I386
aI393
ag357
ag358
ag360
ag362
ag364
aa(lp1991
I408
aI416
ag366
ag367
ag369
ag371
ag373
aa(lp1992
I422
aI425
ag375
ag376
ag378
ag380
ag382
aa(lp1993
I430
aI434
ag384
ag385
ag387
ag389
ag391
aa(lp1994
I443
aI451
ag393
ag394
ag396
ag398
ag400
aa(lp1995
I464
aI473
ag402
ag403
ag405
ag407
ag409
aa(lp1996
I481
aI498
ag411
ag412
ag414
ag416
ag418
aa(lp1997
I500
aI503
ag420
ag421
ag423
ag425
ag427
aa(lp1998
I505
aI509
ag429
ag430
ag432
ag434
ag436
aa(lp1999
I522
aI526
ag438
ag439
ag441
ag443
ag445
aa(lp2000
I532
aI536
ag447
ag448
ag450
ag452
ag454
aa(lp2001
I538
aI541
ag456
ag457
ag459
ag461
ag463
aa(lp2002
I543
aI548
ag465
ag466
ag468
ag470
ag472
aa(lp2003
I550
aI552
ag474
ag475
ag477
ag479
ag481
aa(lp2004
I558
aI562
ag483
ag484
ag486
ag488
ag490
aa(lp2005
I577
aI579
ag492
ag493
ag495
ag497
ag499
aa(lp2006
I586
aI591
ag501
ag502
ag504
ag506
ag508
aa(lp2007
I593
aI599
ag510
ag511
ag513
ag515
ag517
aa(lp2008
I605
aI613
ag519
ag520
ag522
ag524
ag526
aa(lp2009
I619
aI624
ag528
ag529
ag531
ag533
ag535
aa(lp2010
I629
aI631
ag537
ag538
ag540
ag542
ag544
aa(lp2011
I633
aI636
ag546
ag547
ag549
ag551
ag553
aa(lp2012
I642
aI646
ag555
ag556
ag558
ag560
ag562
aa(lp2013
I648
aI650
ag564
ag565
ag567
ag569
ag571
aa(lp2014
I663
aI669
ag573
ag574
ag576
ag578
ag580
aa(lp2015
I676
aI679
ag582
ag583
ag585
ag587
ag589
aa(lp2016
I681
aI687
ag591
ag592
ag594
ag596
ag598
aa(lp2017
I689
aI692
ag600
ag601
ag603
ag605
ag607
aa(lp2018
I694
aI701
ag609
ag610
ag612
ag614
ag616
aa(lp2019
I708
aI712
ag618
ag619
ag621
ag623
ag625
aa(lp2020
I723
aI727
ag627
ag628
ag630
ag632
ag634
aa(lp2021
I735
aI738
ag636
ag637
ag639
ag641
ag643
aa(lp2022
I744
aI749
ag645
ag646
ag648
ag650
ag652
aa(lp2023
I751
aI762
ag654
ag655
ag657
ag659
ag661
aa(lp2024
I764
aI775
ag663
ag664
ag666
ag668
ag670
aa(lp2025
I777
aI781
ag672
ag673
ag675
ag677
ag679
aa(lp2026
I799
aI805
ag681
ag682
ag684
ag686
ag688
aa(lp2027
I814
aI822
ag690
ag691
ag693
ag695
ag697
aa(lp2028
I824
aI830
ag699
ag700
ag702
ag704
ag706
aa(lp2029
I824
aI830
ag708
ag709
ag711
ag713
ag715
aasS'characterMap'
p2030
(lp2031
g720
ag722
ag724
ag726
ag728
ag730
ag1785
ag734
ag736
ag737
ag738
ag740
a(lp2032
I12
aS':'
p2033
aag1787
a(lp2034
I14
aS'$'
p2035
aag743
ag745
a(lp2036
I17
aS'.'
p2037
aag747
ag749
ag1788
ag753
ag755
ag757
ag1789
ag761
ag763
ag764
ag766
a(lp2038
I29
ag2033
aag1790
a(lp2039
I31
ag2035
aag769
a(lp2040
I33
ag2037
aag771
ag773
ag1791
a(lp2041
I37
aS'('
p2042
aag777
ag779
a(lp2043
I40
aS'%'
p2044
aa(lp2045
I41
aS')'
p2046
aag1792
ag783
ag785
ag1793
ag788
ag789
ag790
ag791
ag792
ag793
ag1794
ag797
ag798
ag1795
ag802
ag804
ag805
ag1796
ag809
ag810
ag811
ag812
ag1797
ag816
ag817
ag818
ag1798
ag821
ag823
ag824
ag825
ag1799
ag829
ag830
ag1800
ag833
ag834
ag835
ag1801
ag839
ag840
ag1802
ag843
ag845
ag846
ag848
ag1803
ag851
ag852
ag1804
ag855
ag856
ag857
ag858
ag1805
ag862
ag863
ag864
ag1806
ag867
ag868
ag869
ag1807
ag874
ag875
ag1808
ag878
ag879
ag880
a(lp2047
I111
ag2037
aag881
ag882
ag883
ag884
ag1809
ag887
ag888
ag889
ag890
ag891
ag892
ag1810
ag896
ag897
ag1811
ag901
ag902
ag903
ag1812
ag906
ag907
ag908
ag909
ag910
ag911
ag912
ag1813
ag915
ag916
ag917
ag918
ag919
ag920
ag921
ag922
ag923
ag924
ag1814
ag928
ag929
ag930
ag1815
ag934
ag935
ag936
ag937
ag1816
ag940
ag941
ag942
ag943
ag944
ag945
ag946
ag1817
ag950
ag951
ag1818
ag954
ag956
ag957
ag958
ag959
ag960
ag1819
ag963
ag964
ag965
ag966
ag1820
ag969
ag970
ag971
ag972
ag973
ag974
a(lp2048
I188
ag2037
aag1821
ag978
ag979
ag980
ag981
ag1822
ag985
ag986
ag1823
ag989
ag990
ag991
ag1824
ag995
ag996
ag1825
ag1000
ag1001
ag1002
ag1826
ag1005
ag1006
ag1007
ag1008
ag1827
ag1011
ag1012
ag1013
a(lp2049
I217
aS'-'
p2050
aag1014
ag1015
ag1016
ag1017
ag1018
ag1019
ag1020
ag1021
ag1828
ag1024
ag1025
ag1026
ag1027
ag1028
ag1029
ag1030
ag1031
ag1829
ag1035
ag1036
ag1037
ag1830
ag1041
ag1042
ag1043
ag1044
ag1831
ag1047
ag1048
ag1049
ag1050
ag1832
ag1053
ag1054
ag1055
ag1056
ag1057
ag1058
ag1059
ag1060
ag1061
ag1833
ag1065
ag1066
ag1834
ag1070
ag1071
ag1072
ag1835
ag1075
ag1076
ag1077
ag1078
ag1079
ag1080
ag1081
ag1836
ag1084
ag1085
ag1086
ag1087
ag1088
ag1089
ag1090
ag1091
ag1092
ag1093
ag1837
ag1097
ag1098
ag1838
ag1101
ag1102
ag1103
ag1104
ag1839
ag1107
ag1108
ag1109
ag1110
ag1111
ag1112
a(lp2051
I300
aS','
p2052
aag1840
ag1116
ag1117
ag1118
ag1841
ag1122
ag1123
ag1842
ag1127
ag1128
ag1129
ag1843
ag1132
ag1133
ag1134
ag1135
ag1136
ag1137
ag1138
ag1139
ag1844
ag1143
ag1144
ag1145
ag1845
ag1148
ag1149
ag1150
ag1151
ag1152
ag1846
ag1156
ag1157
ag1847
ag1161
ag1162
ag1848
ag1165
ag1166
ag1167
ag1168
ag1169
ag1170
ag1171
ag1172
ag1173
a(lp2053
I347
ag2037
aag1849
ag1177
ag1178
ag1179
ag1850
ag1182
ag1183
ag1184
ag1185
ag1186
ag1851
ag1189
ag1190
ag1191
ag1192
ag1193
ag1194
ag1852
ag1198
ag1199
ag1200
ag1201
ag1853
ag1204
ag1205
ag1206
ag1207
ag1208
ag1209
ag1210
ag1211
ag1212
ag1854
ag1216
ag1217
ag1218
a(lp2054
I384
ag2052
aag1855
ag1221
ag1222
ag1223
ag1224
ag1225
ag1226
ag1227
ag1228
ag1856
ag1232
ag1233
ag1234
ag1857
ag1238
ag1239
ag1240
ag1241
ag1858
ag1245
ag1246
ag1247
ag1859
ag1250
ag1251
ag1252
ag1253
ag1254
ag1255
ag1256
ag1257
ag1258
ag1860
ag1262
ag1263
ag1264
ag1861
ag1267
ag1268
ag1269
ag1270
ag1862
ag1274
ag1275
ag1863
ag1278
ag1280
ag1281
ag1282
ag1283
ag1864
ag1287
ag1288
ag1865
ag1292
ag1293
ag1294
ag1866
ag1297
ag1298
ag1299
ag1300
ag1301
ag1302
ag1303
ag1304
ag1305
ag1867
ag1309
ag1310
ag1311
ag1868
ag1315
ag1316
ag1869
ag1320
ag1321
ag1322
ag1870
ag1325
ag1326
ag1327
ag1328
ag1329
ag1330
ag1331
ag1332
ag1333
ag1334
a(lp2055
I474
ag2037
aag1871
ag1338
ag1339
ag1340
ag1341
ag1872
ag1344
ag1345
ag1346
ag1347
a(lp2056
I485
ag2050
aag1348
ag1349
a(lp2057
I488
ag2050
aag1350
ag1351
ag1352
ag1353
ag1354
ag1355
ag1356
ag1357
ag1358
ag1359
ag1873
ag1362
ag1363
ag1364
ag1365
ag1874
ag1368
ag1369
ag1370
ag1371
ag1372
ag1875
ag1376
ag1377
ag1378
ag1876
ag1382
ag1383
ag1384
ag1877
ag1388
ag1389
ag1878
ag1392
ag1393
ag1394
ag1395
ag1396
ag1879
ag1400
ag1401
ag1402
ag1880
ag1405
ag1406
ag1407
ag1408
ag1409
ag1881
ag1412
ag1413
ag1414
ag1415
ag1882
ag1418
ag1419
ag1420
ag1421
ag1422
ag1423
ag1883
ag1426
ag1427
ag1428
a(lp2058
I553
ag2037
aag1884
ag1432
ag1433
ag1885
ag1436
ag1437
ag1438
ag1439
ag1440
ag1886
ag1444
ag1445
ag1446
ag1887
ag1450
ag1451
ag1452
ag1888
ag1456
ag1457
ag1458
ag1459
ag1889
ag1462
ag1463
ag1464
a(lp2059
I580
ag2052
aag1890
ag1468
ag1469
ag1470
ag1891
ag1473
ag1474
ag1475
ag1476
ag1477
ag1478
ag1892
ag1481
ag1482
ag1483
ag1484
ag1485
ag1486
ag1487
ag1893
ag1491
ag1492
ag1493
ag1894
ag1496
ag1497
ag1499
ag1500
ag1501
ag1502
ag1503
ag1504
ag1505
ag1895
ag1509
ag1510
ag1511
ag1896
ag1514
ag1515
ag1516
ag1517
ag1518
ag1519
ag1897
ag1523
ag1524
ag1898
ag1527
ag1528
ag1529
ag1899
ag1532
ag1533
ag1534
ag1535
a(lp2060
I637
ag2037
aag1900
ag1539
ag1540
ag1901
ag1543
ag1544
ag1545
ag1546
ag1547
ag1902
ag1550
ag1551
ag1552
ag1903
ag1556
ag1557
ag1904
ag1561
ag1562
ag1563
ag1564
ag1905
ag1568
ag1569
ag1906
ag1572
ag1573
ag1574
ag1575
ag1576
ag1577
ag1578
ag1907
ag1582
ag1583
ag1584
ag1585
ag1908
ag1588
ag1589
ag1590
ag1591
ag1909
ag1594
ag1595
ag1596
ag1597
ag1598
ag1599
ag1600
ag1910
ag1603
ag1604
ag1605
ag1606
ag1911
ag1609
ag1610
ag1611
ag1612
ag1613
ag1614
ag1615
ag1616
ag1912
ag1620
ag1621
ag1622
ag1623
ag1913
ag1626
ag1627
ag1628
ag1629
ag1630
ag1914
ag1634
ag1635
ag1636
ag1915
ag1640
ag1641
ag1642
a(lp2061
I721
ag2052
aag1916
ag1645
ag1646
ag1647
ag1648
ag1649
ag1917
ag1653
ag1654
ag1655
ag1656
ag1657
ag1918
ag1660
ag1661
ag1662
ag1663
ag1919
ag1667
ag1668
a(lp2062
I742
ag2037
aag1920
ag1671
ag1672
ag1673
ag1674
ag1675
ag1676
ag1921
ag1679
ag1680
ag1681
ag1682
a(lp2063
I755
ag2050
aag1683
ag1684
a(lp2064
I758
ag2050
aag1685
ag1686
ag1687
ag1688
ag1922
ag1691
ag1692
ag1693
ag1694
ag1695
ag1696
ag1697
ag1698
ag1699
ag1700
ag1701
ag1702
ag1923
ag1705
ag1706
ag1707
ag1708
ag1709
ag1924
ag1713
ag1714
ag1715
ag1925
ag1719
ag1720
ag1721
ag1722
ag1723
ag1724
ag1725
ag1926
ag1729
ag1730
ag1731
ag1927
ag1734
ag1735
ag1736
a(lp2065
I802
ag2050
aag1737
ag1738
ag1739
ag1928
ag1743
ag1744
ag1929
ag1748
ag1749
ag1750
ag1930
ag1753
ag1754
ag1755
ag1756
ag1757
ag1758
ag1759
ag1760
ag1761
ag1931
ag1764
ag1765
ag1766
ag1767
ag1768
ag1769
ag1770
a(lp2066
I831
ag2033
aag1932
ag1773
ag1774
ag1775
ag1776
ag1777
ag1778
ag1779
ag1780
ag1781
ag1782
asS'docName'
p2067
S'source-document01988.txt'
p2068
sb.