(iModel.Document
Document
p0
(dp1
S'fmap'
p2
(lp3
(lp4
I0
aI2
aS'ask'
p5
a(lp6
S'*'
p7
ag5
aaa(lp8
I0
aI2
ag5
a(lp9
g7
ag5
aaa(lp10
I0
aI2
ag5
a(lp11
g7
ag5
aaa(lp12
I0
aI2
ag5
a(lp13
g7
ag5
aaa(lp14
I7
aI16
aS'astronomer'
p15
a(lp16
g5
ag15
aaa(lp17
I7
aI16
ag15
a(lp18
g7
ag15
aaa(lp19
I7
aI16
ag15
a(lp20
g7
ag15
aaa(lp21
I7
aI16
ag15
a(lp22
g7
ag15
aaa(lp23
I22
aI25
aS'kids'
p24
a(lp25
g15
ag24
aaa(lp26
I22
aI25
ag24
a(lp27
g5
ag24
aaa(lp28
I22
aI25
ag24
a(lp29
g7
ag24
aaa(lp30
I22
aI25
ag24
a(lp31
g7
ag24
aaa(lp32
I41
aI47
aS'planets'
p33
a(lp34
g24
ag33
aaa(lp35
I41
aI47
ag33
a(lp36
g15
ag33
aaa(lp37
I41
aI47
ag33
a(lp38
g5
ag33
aaa(lp39
I41
aI47
ag33
a(lp40
g7
ag33
aaa(lp41
I49
aI52
aS'stay'
p42
a(lp43
g33
ag42
aaa(lp44
I49
aI52
ag42
a(lp45
g24
ag42
aaa(lp46
I49
aI52
ag42
a(lp47
g15
ag42
aaa(lp48
I49
aI52
ag42
a(lp49
g5
ag42
aaa(lp50
I57
aI61
aS'orbit'
p51
a(lp52
g42
ag51
aaa(lp53
I57
aI61
ag51
a(lp54
g33
ag51
aaa(lp55
I57
aI61
ag51
a(lp56
g24
ag51
aaa(lp57
I57
aI61
ag51
a(lp58
g15
ag51
aaa(lp59
I63
aI68
aS'around'
p60
a(lp61
g51
ag60
aaa(lp62
I63
aI68
ag60
a(lp63
g42
ag60
aaa(lp64
I63
aI68
ag60
a(lp65
g33
ag60
aaa(lp66
I63
aI68
ag60
a(lp67
g24
ag60
aaa(lp68
I74
aI76
aS'sun'
p69
a(lp70
g60
ag69
aaa(lp71
I74
aI76
ag69
a(lp72
g51
ag69
aaa(lp73
I74
aI76
ag69
a(lp74
g42
ag69
aaa(lp75
I74
aI76
ag69
a(lp76
g33
ag69
aaa(lp77
I90
aI96
aS'planets'
p78
a(lp79
g69
ag78
aaa(lp80
I90
aI96
ag78
a(lp81
g60
ag78
aaa(lp82
I90
aI96
ag78
a(lp83
g51
ag78
aaa(lp84
I90
aI96
ag78
a(lp85
g42
ag78
aaa(lp86
I98
aI101
aS'stay'
p87
a(lp88
g78
ag87
aaa(lp89
I98
aI101
ag87
a(lp90
g69
ag87
aaa(lp91
I98
aI101
ag87
a(lp92
g60
ag87
aaa(lp93
I98
aI101
ag87
a(lp94
g51
ag87
aaa(lp95
I106
aI110
aS'orbit'
p96
a(lp97
g87
ag96
aaa(lp98
I106
aI110
ag96
a(lp99
g78
ag96
aaa(lp100
I106
aI110
ag96
a(lp101
g69
ag96
aaa(lp102
I106
aI110
ag96
a(lp103
g60
ag96
aaa(lp104
I112
aI117
aS'around'
p105
a(lp106
g96
ag105
aaa(lp107
I112
aI117
ag105
a(lp108
g87
ag105
aaa(lp109
I112
aI117
ag105
a(lp110
g78
ag105
aaa(lp111
I112
aI117
ag105
a(lp112
g69
ag105
aaa(lp113
I123
aI125
aS'sun'
p114
a(lp115
g105
ag114
aaa(lp116
I123
aI125
ag114
a(lp117
g96
ag114
aaa(lp118
I123
aI125
ag114
a(lp119
g87
ag114
aaa(lp120
I123
aI125
ag114
a(lp121
g78
ag114
aaa(lp122
I132
aI136
aS'solar'
p123
a(lp124
g114
ag123
aaa(lp125
I132
aI136
ag123
a(lp126
g105
ag123
aaa(lp127
I132
aI136
ag123
a(lp128
g96
ag123
aaa(lp129
I132
aI136
ag123
a(lp130
g87
ag123
aaa(lp131
I138
aI143
aS'system'
p132
a(lp133
g123
ag132
aaa(lp134
I138
aI143
ag132
a(lp135
g114
ag132
aaa(lp136
I138
aI143
ag132
a(lp137
g105
ag132
aaa(lp138
I138
aI143
ag132
a(lp139
g96
ag132
aaa(lp140
I149
aI154
aS'formed'
p141
a(lp142
g132
ag141
aaa(lp143
I149
aI154
ag141
a(lp144
g123
ag141
aaa(lp145
I149
aI154
ag141
a(lp146
g114
ag141
aaa(lp147
I149
aI154
ag141
a(lp148
g105
ag141
aaa(lp149
I163
aI170
aS'rotating'
p150
a(lp151
g141
ag150
aaa(lp152
I163
aI170
ag150
a(lp153
g132
ag150
aaa(lp154
I163
aI170
ag150
a(lp155
g123
ag150
aaa(lp156
I163
aI170
ag150
a(lp157
g114
ag150
aaa(lp158
I172
aI176
aS'cloud'
p159
a(lp160
g150
ag159
aaa(lp161
I172
aI176
ag159
a(lp162
g141
ag159
aaa(lp163
I172
aI176
ag159
a(lp164
g132
ag159
aaa(lp165
I172
aI176
ag159
a(lp166
g123
ag159
aaa(lp167
I181
aI183
aS'gas'
p168
a(lp169
g159
ag168
aaa(lp170
I181
aI183
ag168
a(lp171
g150
ag168
aaa(lp172
I181
aI183
ag168
a(lp173
g141
ag168
aaa(lp174
I181
aI183
ag168
a(lp175
g132
ag168
aaa(lp176
I189
aI192
aS'dust'
p177
a(lp178
g168
ag177
aaa(lp179
I189
aI192
ag177
a(lp180
g159
ag177
aaa(lp181
I189
aI192
ag177
a(lp182
g150
ag177
aaa(lp183
I189
aI192
ag177
a(lp184
g141
ag177
aaa(lp185
I200
aI203
aS'spun'
p186
a(lp187
g177
ag186
aaa(lp188
I200
aI203
ag186
a(lp189
g168
ag186
aaa(lp190
I200
aI203
ag186
a(lp191
g159
ag186
aaa(lp192
I200
aI203
ag186
a(lp193
g150
ag186
aaa(lp194
I205
aI210
aS'around'
p195
a(lp196
g186
ag195
aaa(lp197
I205
aI210
ag195
a(lp198
g177
ag195
aaa(lp199
I205
aI210
ag195
a(lp200
g168
ag195
aaa(lp201
I205
aI210
ag195
a(lp202
g159
ag195
aaa(lp203
I214
aI218
aS'newly'
p204
a(lp205
g195
ag204
aaa(lp206
I214
aI218
ag204
a(lp207
g186
ag204
aaa(lp208
I214
aI218
ag204
a(lp209
g177
ag204
aaa(lp210
I214
aI218
ag204
a(lp211
g168
ag204
aaa(lp212
I220
aI226
aS'forming'
p213
a(lp214
g204
ag213
aaa(lp215
I220
aI226
ag213
a(lp216
g195
ag213
aaa(lp217
I220
aI226
ag213
a(lp218
g186
ag213
aaa(lp219
I220
aI226
ag213
a(lp220
g177
ag213
aaa(lp221
I228
aI231
aS'star'
p222
a(lp223
g213
ag222
aaa(lp224
I228
aI231
ag222
a(lp225
g204
ag222
aaa(lp226
I228
aI231
ag222
a(lp227
g195
ag222
aaa(lp228
I228
aI231
ag222
a(lp229
g186
ag222
aaa(lp230
I238
aI240
aS'sun'
p231
a(lp232
g222
ag231
aaa(lp233
I238
aI240
ag231
a(lp234
g213
ag231
aaa(lp235
I238
aI240
ag231
a(lp236
g204
ag231
aaa(lp237
I238
aI240
ag231
a(lp238
g195
ag231
aaa(lp239
I250
aI255
aS'center'
p240
a(lp241
g231
ag240
aaa(lp242
I250
aI255
ag240
a(lp243
g222
ag240
aaa(lp244
I250
aI255
ag240
a(lp245
g213
ag240
aaa(lp246
I250
aI255
ag240
a(lp247
g204
ag240
aaa(lp248
I262
aI268
aS'planets'
p249
a(lp250
g240
ag249
aaa(lp251
I262
aI268
ag249
a(lp252
g231
ag249
aaa(lp253
I262
aI268
ag249
a(lp254
g222
ag249
aaa(lp255
I262
aI268
ag249
a(lp256
g213
ag249
aaa(lp257
I274
aI279
aS'formed'
p258
a(lp259
g249
ag258
aaa(lp260
I274
aI279
ag258
a(lp261
g240
ag258
aaa(lp262
I274
aI279
ag258
a(lp263
g231
ag258
aaa(lp264
I274
aI279
ag258
a(lp265
g222
ag258
aaa(lp266
I291
aI298
aS'spinning'
p267
a(lp268
g258
ag267
aaa(lp269
I291
aI298
ag267
a(lp270
g249
ag267
aaa(lp271
I291
aI298
ag267
a(lp272
g240
ag267
aaa(lp273
I291
aI298
ag267
a(lp274
g231
ag267
aaa(lp275
I300
aI310
aS'diskshaped'
p276
a(lp277
g267
ag276
aaa(lp278
I300
aI310
ag276
a(lp279
g258
ag276
aaa(lp280
I300
aI310
ag276
a(lp281
g249
ag276
aaa(lp282
I300
aI310
ag276
a(lp283
g240
ag276
aaa(lp284
I312
aI316
aS'cloud'
p285
a(lp286
g276
ag285
aaa(lp287
I312
aI316
ag285
a(lp288
g267
ag285
aaa(lp289
I312
aI316
ag285
a(lp290
g258
ag285
aaa(lp291
I312
aI316
ag285
a(lp292
g249
ag285
aaa(lp293
I323
aI331
aS'continued'
p294
a(lp295
g285
ag294
aaa(lp296
I323
aI331
ag294
a(lp297
g276
ag294
aaa(lp298
I323
aI331
ag294
a(lp299
g267
ag294
aaa(lp300
I323
aI331
ag294
a(lp301
g258
ag294
aaa(lp302
I338
aI345
aS'rotating'
p303
a(lp304
g294
ag303
aaa(lp305
I338
aI345
ag303
a(lp306
g285
ag303
aaa(lp307
I338
aI345
ag303
a(lp308
g276
ag303
aaa(lp309
I338
aI345
ag303
a(lp310
g267
ag303
aaa(lp311
I347
aI352
aS'course'
p312
a(lp313
g303
ag312
aaa(lp314
I347
aI352
ag312
a(lp315
g294
ag312
aaa(lp316
I347
aI352
ag312
a(lp317
g285
ag312
aaa(lp318
I347
aI352
ag312
a(lp319
g276
ag312
aaa(lp320
I354
aI359
aS'around'
p321
a(lp322
g312
ag321
aaa(lp323
I354
aI359
ag321
a(lp324
g303
ag321
aaa(lp325
I354
aI359
ag321
a(lp326
g294
ag321
aaa(lp327
I354
aI359
ag321
a(lp328
g285
ag321
aaa(lp329
I365
aI367
aS'sun'
p330
a(lp331
g321
ag330
aaa(lp332
I365
aI367
ag330
a(lp333
g312
ag330
aaa(lp334
I365
aI367
ag330
a(lp335
g303
ag330
aaa(lp336
I365
aI367
ag330
a(lp337
g294
ag330
aaa(lp338
I385
aI390
aS'formed'
p339
a(lp340
g330
ag339
aaa(lp341
I385
aI390
ag339
a(lp342
g321
ag339
aaa(lp343
I385
aI390
ag339
a(lp344
g312
ag339
aaa(lp345
I385
aI390
ag339
a(lp346
g303
ag339
aaa(lp347
I397
aI403
aS'gravity'
p348
a(lp349
g339
ag348
aaa(lp350
I397
aI403
ag348
a(lp351
g330
ag348
aaa(lp352
I397
aI403
ag348
a(lp353
g321
ag348
aaa(lp354
I397
aI403
ag348
a(lp355
g312
ag348
aaa(lp356
I412
aI414
aS'sun'
p357
a(lp358
g348
ag357
aaa(lp359
I412
aI414
ag357
a(lp360
g339
ag357
aaa(lp361
I412
aI414
ag357
a(lp362
g330
ag357
aaa(lp363
I412
aI414
ag357
a(lp364
g321
ag357
aaa(lp365
I416
aI420
aS'keeps'
p366
a(lp367
g357
ag366
aaa(lp368
I416
aI420
ag366
a(lp369
g348
ag366
aaa(lp370
I416
aI420
ag366
a(lp371
g339
ag366
aaa(lp372
I416
aI420
ag366
a(lp373
g330
ag366
aaa(lp374
I426
aI432
aS'planets'
p375
a(lp376
g366
ag375
aaa(lp377
I426
aI432
ag375
a(lp378
g357
ag375
aaa(lp379
I426
aI432
ag375
a(lp380
g348
ag375
aaa(lp381
I426
aI432
ag375
a(lp382
g339
ag375
aaa(lp383
I443
aI448
aS'orbits'
p384
a(lp385
g375
ag384
aaa(lp386
I443
aI448
ag384
a(lp387
g366
ag384
aaa(lp388
I443
aI448
ag384
a(lp389
g357
ag384
aaa(lp390
I443
aI448
ag384
a(lp391
g348
ag384
aaa(lp392
I455
aI458
aS'stay'
p393
a(lp394
g384
ag393
aaa(lp395
I455
aI458
ag393
a(lp396
g375
ag393
aaa(lp397
I455
aI458
ag393
a(lp398
g366
ag393
aaa(lp399
I455
aI458
ag393
a(lp400
g357
ag393
aaa(lp401
I469
aI474
aS'orbits'
p402
a(lp403
g393
ag402
aaa(lp404
I469
aI474
ag402
a(lp405
g384
ag402
aaa(lp406
I469
aI474
ag402
a(lp407
g375
ag402
aaa(lp408
I469
aI474
ag402
a(lp409
g366
ag402
aaa(lp410
I502
aI506
aS'force'
p411
a(lp412
g402
ag411
aaa(lp413
I502
aI506
ag411
a(lp414
g393
ag411
aaa(lp415
I502
aI506
ag411
a(lp416
g384
ag411
aaa(lp417
I502
aI506
ag411
a(lp418
g375
ag411
aaa(lp419
I515
aI519
aS'solar'
p420
a(lp421
g411
ag420
aaa(lp422
I515
aI519
ag420
a(lp423
g402
ag420
aaa(lp424
I515
aI519
ag420
a(lp425
g393
ag420
aaa(lp426
I515
aI519
ag420
a(lp427
g384
ag420
aaa(lp428
I521
aI526
aS'system'
p429
a(lp430
g420
ag429
aaa(lp431
I521
aI526
ag429
a(lp432
g411
ag429
aaa(lp433
I521
aI526
ag429
a(lp434
g402
ag429
aaa(lp435
I521
aI526
ag429
a(lp436
g393
ag429
aaa(lp437
I538
aI541
aS'stop'
p438
a(lp439
g429
ag438
aaa(lp440
I538
aI541
ag438
a(lp441
g420
ag438
aaa(lp442
I538
aI541
ag438
a(lp443
g411
ag438
aaa(lp444
I538
aI541
ag438
a(lp445
g402
ag438
aaasS'wordMap'
p446
(lp447
(lp448
I0
aI2
ag5
a(lp449
(lp450
I0
aS'a'
p451
aa(lp452
I1
aS's'
p453
aa(lp454
I2
aS'k'
p455
aaaa(lp456
I4
aI5
aS'an'
p457
a(lp458
(lp459
I4
ag451
aa(lp460
I5
aS'n'
p461
aaaa(lp462
I7
aI16
ag15
a(lp463
(lp464
I7
ag451
aa(lp465
I8
ag453
aa(lp466
I9
aS't'
p467
aa(lp468
I10
aS'r'
p469
aa(lp470
I11
aS'o'
p471
aa(lp472
I12
ag461
aa(lp473
I13
ag471
aa(lp474
I14
aS'm'
p475
aa(lp476
I15
aS'e'
p477
aa(lp478
I16
ag469
aaaa(lp479
I18
aI20
aS'for'
p480
a(lp481
(lp482
I18
aS'f'
p483
aa(lp484
I19
ag471
aa(lp485
I20
ag469
aaaa(lp486
I22
aI25
ag24
a(lp487
(lp488
I22
ag455
aa(lp489
I23
aS'i'
p490
aa(lp491
I24
aS'd'
p492
aa(lp493
I25
ag453
aaaa(lp494
I30
aI32
aS'how'
p495
a(lp496
(lp497
I30
aS'h'
p498
aa(lp499
I31
ag471
aa(lp500
I32
aS'w'
p501
aaaa(lp502
I34
aI35
aS'do'
p503
a(lp504
(lp505
I34
ag492
aa(lp506
I35
ag471
aaaa(lp507
I37
aI39
aS'the'
p508
a(lp509
(lp510
I37
ag467
aa(lp511
I38
ag498
aa(lp512
I39
ag477
aaaa(lp513
I41
aI47
ag33
a(lp514
(lp515
I41
aS'p'
p516
aa(lp517
I42
aS'l'
p518
aa(lp519
I43
ag451
aa(lp520
I44
ag461
aa(lp521
I45
ag477
aa(lp522
I46
ag467
aa(lp523
I47
ag453
aaaa(lp524
I49
aI52
ag42
a(lp525
(lp526
I49
ag453
aa(lp527
I50
ag467
aa(lp528
I51
ag451
aa(lp529
I52
aS'y'
p530
aaaa(lp531
I54
aI55
aS'in'
p532
a(lp533
(lp534
I54
ag490
aa(lp535
I55
ag461
aaaa(lp536
I57
aI61
ag51
a(lp537
(lp538
I57
ag471
aa(lp539
I58
ag469
aa(lp540
I59
aS'b'
p541
aa(lp542
I60
ag490
aa(lp543
I61
ag467
aaaa(lp544
I63
aI68
ag60
a(lp545
(lp546
I63
ag451
aa(lp547
I64
ag469
aa(lp548
I65
ag471
aa(lp549
I66
aS'u'
p550
aa(lp551
I67
ag461
aa(lp552
I68
ag492
aaaa(lp553
I70
aI72
aS'the'
p554
a(lp555
(lp556
I70
ag467
aa(lp557
I71
ag498
aa(lp558
I72
ag477
aaaa(lp559
I74
aI76
ag69
a(lp560
(lp561
I74
ag453
aa(lp562
I75
ag550
aa(lp563
I76
ag461
aaaa(lp564
I79
aI81
aS'how'
p565
a(lp566
(lp567
I79
ag498
aa(lp568
I80
ag471
aa(lp569
I81
ag501
aaaa(lp570
I83
aI84
aS'do'
p571
a(lp572
(lp573
I83
ag492
aa(lp574
I84
ag471
aaaa(lp575
I86
aI88
aS'the'
p576
a(lp577
(lp578
I86
ag467
aa(lp579
I87
ag498
aa(lp580
I88
ag477
aaaa(lp581
I90
aI96
ag78
a(lp582
(lp583
I90
ag516
aa(lp584
I91
ag518
aa(lp585
I92
ag451
aa(lp586
I93
ag461
aa(lp587
I94
ag477
aa(lp588
I95
ag467
aa(lp589
I96
ag453
aaaa(lp590
I98
aI101
ag87
a(lp591
(lp592
I98
ag453
aa(lp593
I99
ag467
aa(lp594
I100
ag451
aa(lp595
I101
ag530
aaaa(lp596
I103
aI104
aS'in'
p597
a(lp598
(lp599
I103
ag490
aa(lp600
I104
ag461
aaaa(lp601
I106
aI110
ag96
a(lp602
(lp603
I106
ag471
aa(lp604
I107
ag469
aa(lp605
I108
ag541
aa(lp606
I109
ag490
aa(lp607
I110
ag467
aaaa(lp608
I112
aI117
ag105
a(lp609
(lp610
I112
ag451
aa(lp611
I113
ag469
aa(lp612
I114
ag471
aa(lp613
I115
ag550
aa(lp614
I116
ag461
aa(lp615
I117
ag492
aaaa(lp616
I119
aI121
aS'the'
p617
a(lp618
(lp619
I119
ag467
aa(lp620
I120
ag498
aa(lp621
I121
ag477
aaaa(lp622
I123
aI125
ag114
a(lp623
(lp624
I123
ag453
aa(lp625
I124
ag550
aa(lp626
I125
ag461
aaaa(lp627
I128
aI130
aS'the'
p628
a(lp629
(lp630
I128
ag467
aa(lp631
I129
ag498
aa(lp632
I130
ag477
aaaa(lp633
I132
aI136
ag123
a(lp634
(lp635
I132
ag453
aa(lp636
I133
ag471
aa(lp637
I134
ag518
aa(lp638
I135
ag451
aa(lp639
I136
ag469
aaaa(lp640
I138
aI143
ag132
a(lp641
(lp642
I138
ag453
aa(lp643
I139
ag530
aa(lp644
I140
ag453
aa(lp645
I141
ag467
aa(lp646
I142
ag477
aa(lp647
I143
ag475
aaaa(lp648
I145
aI147
aS'was'
p649
a(lp650
(lp651
I145
ag501
aa(lp652
I146
ag451
aa(lp653
I147
ag453
aaaa(lp654
I149
aI154
ag141
a(lp655
(lp656
I149
ag483
aa(lp657
I150
ag471
aa(lp658
I151
ag469
aa(lp659
I152
ag475
aa(lp660
I153
ag477
aa(lp661
I154
ag492
aaaa(lp662
I156
aI159
aS'from'
p663
a(lp664
(lp665
I156
ag483
aa(lp666
I157
ag469
aa(lp667
I158
ag471
aa(lp668
I159
ag475
aaaa(lp669
I161
aI161
ag451
a(lp670
(lp671
I161
ag451
aaaa(lp672
I163
aI170
ag150
a(lp673
(lp674
I163
ag469
aa(lp675
I164
ag471
aa(lp676
I165
ag467
aa(lp677
I166
ag451
aa(lp678
I167
ag467
aa(lp679
I168
ag490
aa(lp680
I169
ag461
aa(lp681
I170
aS'g'
p682
aaaa(lp683
I172
aI176
ag159
a(lp684
(lp685
I172
aS'c'
p686
aa(lp687
I173
ag518
aa(lp688
I174
ag471
aa(lp689
I175
ag550
aa(lp690
I176
ag492
aaaa(lp691
I178
aI179
aS'of'
p692
a(lp693
(lp694
I178
ag471
aa(lp695
I179
ag483
aaaa(lp696
I181
aI183
ag168
a(lp697
(lp698
I181
ag682
aa(lp699
I182
ag451
aa(lp700
I183
ag453
aaaa(lp701
I185
aI187
aS'and'
p702
a(lp703
(lp704
I185
ag451
aa(lp705
I186
ag461
aa(lp706
I187
ag492
aaaa(lp707
I189
aI192
ag177
a(lp708
(lp709
I189
ag492
aa(lp710
I190
ag550
aa(lp711
I191
ag453
aa(lp712
I192
ag467
aaaa(lp713
I194
aI198
aS'which'
p714
a(lp715
(lp716
I194
ag501
aa(lp717
I195
ag498
aa(lp718
I196
ag490
aa(lp719
I197
ag686
aa(lp720
I198
ag498
aaaa(lp721
I200
aI203
ag186
a(lp722
(lp723
I200
ag453
aa(lp724
I201
ag516
aa(lp725
I202
ag550
aa(lp726
I203
ag461
aaaa(lp727
I205
aI210
ag195
a(lp728
(lp729
I205
ag451
aa(lp730
I206
ag469
aa(lp731
I207
ag471
aa(lp732
I208
ag550
aa(lp733
I209
ag461
aa(lp734
I210
ag492
aaaa(lp735
I212
aI212
ag451
a(lp736
(lp737
I212
ag451
aaaa(lp738
I214
aI218
ag204
a(lp739
(lp740
I214
ag461
aa(lp741
I215
ag477
aa(lp742
I216
ag501
aa(lp743
I217
ag518
aa(lp744
I218
ag530
aaaa(lp745
I220
aI226
ag213
a(lp746
(lp747
I220
ag483
aa(lp748
I221
ag471
aa(lp749
I222
ag469
aa(lp750
I223
ag475
aa(lp751
I224
ag490
aa(lp752
I225
ag461
aa(lp753
I226
ag682
aaaa(lp754
I228
aI231
ag222
a(lp755
(lp756
I228
ag453
aa(lp757
I229
ag467
aa(lp758
I230
ag451
aa(lp759
I231
ag469
aaaa(lp760
I234
aI236
aS'our'
p761
a(lp762
(lp763
I234
ag471
aa(lp764
I235
ag550
aa(lp765
I236
ag469
aaaa(lp766
I238
aI240
ag231
a(lp767
(lp768
I238
ag453
aa(lp769
I239
ag550
aa(lp770
I240
ag461
aaaa(lp771
I243
aI244
aS'at'
p772
a(lp773
(lp774
I243
ag451
aa(lp775
I244
ag467
aaaa(lp776
I246
aI248
aS'its'
p777
a(lp778
(lp779
I246
ag490
aa(lp780
I247
ag467
aa(lp781
I248
ag453
aaaa(lp782
I250
aI255
ag240
a(lp783
(lp784
I250
ag686
aa(lp785
I251
ag477
aa(lp786
I252
ag461
aa(lp787
I253
ag467
aa(lp788
I254
ag477
aa(lp789
I255
ag469
aaaa(lp790
I258
aI260
aS'the'
p791
a(lp792
(lp793
I258
ag467
aa(lp794
I259
ag498
aa(lp795
I260
ag477
aaaa(lp796
I262
aI268
ag249
a(lp797
(lp798
I262
ag516
aa(lp799
I263
ag518
aa(lp800
I264
ag451
aa(lp801
I265
ag461
aa(lp802
I266
ag477
aa(lp803
I267
ag467
aa(lp804
I268
ag453
aaaa(lp805
I270
aI272
aS'all'
p806
a(lp807
(lp808
I270
ag451
aa(lp809
I271
ag518
aa(lp810
I272
ag518
aaaa(lp811
I274
aI279
ag258
a(lp812
(lp813
I274
ag483
aa(lp814
I275
ag471
aa(lp815
I276
ag469
aa(lp816
I277
ag475
aa(lp817
I278
ag477
aa(lp818
I279
ag492
aaaa(lp819
I281
aI284
aS'from'
p820
a(lp821
(lp822
I281
ag483
aa(lp823
I282
ag469
aa(lp824
I283
ag471
aa(lp825
I284
ag475
aaaa(lp826
I286
aI289
aS'this'
p827
a(lp828
(lp829
I286
ag467
aa(lp830
I287
ag498
aa(lp831
I288
ag490
aa(lp832
I289
ag453
aaaa(lp833
I291
aI298
ag267
a(lp834
(lp835
I291
ag453
aa(lp836
I292
ag516
aa(lp837
I293
ag490
aa(lp838
I294
ag461
aa(lp839
I295
ag461
aa(lp840
I296
ag490
aa(lp841
I297
ag461
aa(lp842
I298
ag682
aaaa(lp843
I300
aI310
ag276
a(lp844
(lp845
I300
ag492
aa(lp846
I301
ag490
aa(lp847
I302
ag453
aa(lp848
I303
ag455
aa(lp849
I305
ag453
aa(lp850
I306
ag498
aa(lp851
I307
ag451
aa(lp852
I308
ag516
aa(lp853
I309
ag477
aa(lp854
I310
ag492
aaaa(lp855
I312
aI316
ag285
a(lp856
(lp857
I312
ag686
aa(lp858
I313
ag518
aa(lp859
I314
ag471
aa(lp860
I315
ag550
aa(lp861
I316
ag492
aaaa(lp862
I319
aI321
aS'and'
p863
a(lp864
(lp865
I319
ag451
aa(lp866
I320
ag461
aa(lp867
I321
ag492
aaaa(lp868
I323
aI331
ag294
a(lp869
(lp870
I323
ag686
aa(lp871
I324
ag471
aa(lp872
I325
ag461
aa(lp873
I326
ag467
aa(lp874
I327
ag490
aa(lp875
I328
ag461
aa(lp876
I329
ag550
aa(lp877
I330
ag477
aa(lp878
I331
ag492
aaaa(lp879
I333
aI336
aS'this'
p880
a(lp881
(lp882
I333
ag467
aa(lp883
I334
ag498
aa(lp884
I335
ag490
aa(lp885
I336
ag453
aaaa(lp886
I338
aI345
ag303
a(lp887
(lp888
I338
ag469
aa(lp889
I339
ag471
aa(lp890
I340
ag467
aa(lp891
I341
ag451
aa(lp892
I342
ag467
aa(lp893
I343
ag490
aa(lp894
I344
ag461
aa(lp895
I345
ag682
aaaa(lp896
I347
aI352
ag312
a(lp897
(lp898
I347
ag686
aa(lp899
I348
ag471
aa(lp900
I349
ag550
aa(lp901
I350
ag469
aa(lp902
I351
ag453
aa(lp903
I352
ag477
aaaa(lp904
I354
aI359
ag321
a(lp905
(lp906
I354
ag451
aa(lp907
I355
ag469
aa(lp908
I356
ag471
aa(lp909
I357
ag550
aa(lp910
I358
ag461
aa(lp911
I359
ag492
aaaa(lp912
I361
aI363
aS'the'
p913
a(lp914
(lp915
I361
ag467
aa(lp916
I362
ag498
aa(lp917
I363
ag477
aaaa(lp918
I365
aI367
ag330
a(lp919
(lp920
I365
ag453
aa(lp921
I366
ag550
aa(lp922
I367
ag461
aaaa(lp923
I369
aI373
aS'after'
p924
a(lp925
(lp926
I369
ag451
aa(lp927
I370
ag483
aa(lp928
I371
ag467
aa(lp929
I372
ag477
aa(lp930
I373
ag469
aaaa(lp931
I375
aI378
aS'they'
p932
a(lp933
(lp934
I375
ag467
aa(lp935
I376
ag498
aa(lp936
I377
ag477
aa(lp937
I378
ag530
aaaa(lp938
I380
aI383
aS'were'
p939
a(lp940
(lp941
I380
ag501
aa(lp942
I381
ag477
aa(lp943
I382
ag469
aa(lp944
I383
ag477
aaaa(lp945
I385
aI390
ag339
a(lp946
(lp947
I385
ag483
aa(lp948
I386
ag471
aa(lp949
I387
ag469
aa(lp950
I388
ag475
aa(lp951
I389
ag477
aa(lp952
I390
ag492
aaaa(lp953
I393
aI395
aS'the'
p954
a(lp955
(lp956
I393
ag467
aa(lp957
I394
ag498
aa(lp958
I395
ag477
aaaa(lp959
I397
aI403
ag348
a(lp960
(lp961
I397
ag682
aa(lp962
I398
ag469
aa(lp963
I399
ag451
aa(lp964
I400
aS'v'
p965
aa(lp966
I401
ag490
aa(lp967
I402
ag467
aa(lp968
I403
ag530
aaaa(lp969
I405
aI406
aS'of'
p970
a(lp971
(lp972
I405
ag471
aa(lp973
I406
ag483
aaaa(lp974
I408
aI410
aS'the'
p975
a(lp976
(lp977
I408
ag467
aa(lp978
I409
ag498
aa(lp979
I410
ag477
aaaa(lp980
I412
aI414
ag357
a(lp981
(lp982
I412
ag453
aa(lp983
I413
ag550
aa(lp984
I414
ag461
aaaa(lp985
I416
aI420
ag366
a(lp986
(lp987
I416
ag455
aa(lp988
I417
ag477
aa(lp989
I418
ag477
aa(lp990
I419
ag516
aa(lp991
I420
ag453
aaaa(lp992
I422
aI424
aS'the'
p993
a(lp994
(lp995
I422
ag467
aa(lp996
I423
ag498
aa(lp997
I424
ag477
aaaa(lp998
I426
aI432
ag375
a(lp999
(lp1000
I426
ag516
aa(lp1001
I427
ag518
aa(lp1002
I428
ag451
aa(lp1003
I429
ag461
aa(lp1004
I430
ag477
aa(lp1005
I431
ag467
aa(lp1006
I432
ag453
aaaa(lp1007
I434
aI435
aS'in'
p1008
a(lp1009
(lp1010
I434
ag490
aa(lp1011
I435
ag461
aaaa(lp1012
I437
aI441
aS'their'
p1013
a(lp1014
(lp1015
I437
ag467
aa(lp1016
I438
ag498
aa(lp1017
I439
ag477
aa(lp1018
I440
ag490
aa(lp1019
I441
ag469
aaaa(lp1020
I443
aI448
ag384
a(lp1021
(lp1022
I443
ag471
aa(lp1023
I444
ag469
aa(lp1024
I445
ag541
aa(lp1025
I446
ag490
aa(lp1026
I447
ag467
aa(lp1027
I448
ag453
aaaa(lp1028
I451
aI453
aS'the'
p1029
a(lp1030
(lp1031
I451
ag467
aa(lp1032
I452
ag498
aa(lp1033
I453
ag477
aaaa(lp1034
I455
aI458
ag393
a(lp1035
(lp1036
I455
ag453
aa(lp1037
I456
ag467
aa(lp1038
I457
ag451
aa(lp1039
I458
ag530
aaaa(lp1040
I460
aI461
aS'in'
p1041
a(lp1042
(lp1043
I460
ag490
aa(lp1044
I461
ag461
aaaa(lp1045
I463
aI467
aS'their'
p1046
a(lp1047
(lp1048
I463
ag467
aa(lp1049
I464
ag498
aa(lp1050
I465
ag477
aa(lp1051
I466
ag490
aa(lp1052
I467
ag469
aaaa(lp1053
I469
aI474
ag402
a(lp1054
(lp1055
I469
ag471
aa(lp1056
I470
ag469
aa(lp1057
I471
ag541
aa(lp1058
I472
ag490
aa(lp1059
I473
ag467
aa(lp1060
I474
ag453
aaaa(lp1061
I476
aI482
aS'because'
p1062
a(lp1063
(lp1064
I476
ag541
aa(lp1065
I477
ag477
aa(lp1066
I478
ag686
aa(lp1067
I479
ag451
aa(lp1068
I480
ag550
aa(lp1069
I481
ag453
aa(lp1070
I482
ag477
aaaa(lp1071
I484
aI488
aS'there'
p1072
a(lp1073
(lp1074
I484
ag467
aa(lp1075
I485
ag498
aa(lp1076
I486
ag477
aa(lp1077
I487
ag469
aa(lp1078
I488
ag477
aaaa(lp1079
I490
aI491
aS'is'
p1080
a(lp1081
(lp1082
I490
ag490
aa(lp1083
I491
ag453
aaaa(lp1084
I493
aI494
aS'no'
p1085
a(lp1086
(lp1087
I493
ag461
aa(lp1088
I494
ag471
aaaa(lp1089
I496
aI500
aS'other'
p1090
a(lp1091
(lp1092
I496
ag471
aa(lp1093
I497
ag467
aa(lp1094
I498
ag498
aa(lp1095
I499
ag477
aa(lp1096
I500
ag469
aaaa(lp1097
I502
aI506
ag411
a(lp1098
(lp1099
I502
ag483
aa(lp1100
I503
ag471
aa(lp1101
I504
ag469
aa(lp1102
I505
ag686
aa(lp1103
I506
ag477
aaaa(lp1104
I508
aI509
aS'in'
p1105
a(lp1106
(lp1107
I508
ag490
aa(lp1108
I509
ag461
aaaa(lp1109
I511
aI513
aS'the'
p1110
a(lp1111
(lp1112
I511
ag467
aa(lp1113
I512
ag498
aa(lp1114
I513
ag477
aaaa(lp1115
I515
aI519
ag420
a(lp1116
(lp1117
I515
ag453
aa(lp1118
I516
ag471
aa(lp1119
I517
ag518
aa(lp1120
I518
ag451
aa(lp1121
I519
ag469
aaaa(lp1122
I521
aI526
ag429
a(lp1123
(lp1124
I521
ag453
aa(lp1125
I522
ag530
aa(lp1126
I523
ag453
aa(lp1127
I524
ag467
aa(lp1128
I525
ag477
aa(lp1129
I526
ag475
aaaa(lp1130
I528
aI532
aS'which'
p1131
a(lp1132
(lp1133
I528
ag501
aa(lp1134
I529
ag498
aa(lp1135
I530
ag490
aa(lp1136
I531
ag686
aa(lp1137
I532
ag498
aaaa(lp1138
I534
aI536
aS'can'
p1139
a(lp1140
(lp1141
I534
ag686
aa(lp1142
I535
ag451
aa(lp1143
I536
ag461
aaaa(lp1144
I538
aI541
ag438
a(lp1145
(lp1146
I538
ag453
aa(lp1147
I539
ag467
aa(lp1148
I540
ag471
aa(lp1149
I541
ag516
aaaa(lp1150
I538
aI541
aS'them'
p1151
a(lp1152
(lp1153
I543
ag467
aa(lp1154
I544
ag498
aa(lp1155
I545
ag477
aa(lp1156
I546
ag475
aaaasS'cleanCharacterMap'
p1157
(lp1158
g450
ag452
ag454
a(lp1159
I3
aS' '
p1160
aag459
ag460
a(lp1161
I6
ag1160
aag464
ag465
ag466
ag468
ag470
ag472
ag473
ag474
ag476
ag478
a(lp1162
I17
ag1160
aag482
ag484
ag485
a(lp1163
I21
ag1160
aag488
ag489
ag491
ag493
a(lp1164
I27
ag1160
aa(lp1165
I29
ag1160
aag497
ag499
ag500
a(lp1166
I33
ag1160
aag505
ag506
a(lp1167
I36
ag1160
aag510
ag511
ag512
a(lp1168
I40
ag1160
aag515
ag517
ag519
ag520
ag521
ag522
ag523
a(lp1169
I48
ag1160
aag526
ag527
ag528
ag529
a(lp1170
I53
ag1160
aag534
ag535
a(lp1171
I56
ag1160
aag538
ag539
ag540
ag542
ag543
a(lp1172
I62
ag1160
aag546
ag547
ag548
ag549
ag551
ag552
a(lp1173
I69
ag1160
aag556
ag557
ag558
a(lp1174
I73
ag1160
aag561
ag562
ag563
a(lp1175
I78
ag1160
aag567
ag568
ag569
a(lp1176
I82
ag1160
aag573
ag574
a(lp1177
I85
ag1160
aag578
ag579
ag580
a(lp1178
I89
ag1160
aag583
ag584
ag585
ag586
ag587
ag588
ag589
a(lp1179
I97
ag1160
aag592
ag593
ag594
ag595
a(lp1180
I102
ag1160
aag599
ag600
a(lp1181
I105
ag1160
aag603
ag604
ag605
ag606
ag607
a(lp1182
I111
ag1160
aag610
ag611
ag612
ag613
ag614
ag615
a(lp1183
I118
ag1160
aag619
ag620
ag621
a(lp1184
I122
ag1160
aag624
ag625
ag626
a(lp1185
I127
ag1160
aag630
ag631
ag632
a(lp1186
I131
ag1160
aag635
ag636
ag637
ag638
ag639
a(lp1187
I137
ag1160
aag642
ag643
ag644
ag645
ag646
ag647
a(lp1188
I144
ag1160
aag651
ag652
ag653
a(lp1189
I148
ag1160
aag656
ag657
ag658
ag659
ag660
ag661
a(lp1190
I155
ag1160
aag665
ag666
ag667
ag668
a(lp1191
I160
ag1160
aag671
a(lp1192
I162
ag1160
aag674
ag675
ag676
ag677
ag678
ag679
ag680
ag681
a(lp1193
I171
ag1160
aag685
ag687
ag688
ag689
ag690
a(lp1194
I177
ag1160
aag694
ag695
a(lp1195
I180
ag1160
aag698
ag699
ag700
a(lp1196
I184
ag1160
aag704
ag705
ag706
a(lp1197
I188
ag1160
aag709
ag710
ag711
ag712
a(lp1198
I193
ag1160
aag716
ag717
ag718
ag719
ag720
a(lp1199
I199
ag1160
aag723
ag724
ag725
ag726
a(lp1200
I204
ag1160
aag729
ag730
ag731
ag732
ag733
ag734
a(lp1201
I211
ag1160
aag737
a(lp1202
I213
ag1160
aag740
ag741
ag742
ag743
ag744
a(lp1203
I219
ag1160
aag747
ag748
ag749
ag750
ag751
ag752
ag753
a(lp1204
I227
ag1160
aag756
ag757
ag758
ag759
a(lp1205
I233
ag1160
aag763
ag764
ag765
a(lp1206
I237
ag1160
aag768
ag769
ag770
a(lp1207
I242
ag1160
aag774
ag775
a(lp1208
I245
ag1160
aag779
ag780
ag781
a(lp1209
I249
ag1160
aag784
ag785
ag786
ag787
ag788
ag789
a(lp1210
I257
ag1160
aag793
ag794
ag795
a(lp1211
I261
ag1160
aag798
ag799
ag800
ag801
ag802
ag803
ag804
a(lp1212
I269
ag1160
aag808
ag809
ag810
a(lp1213
I273
ag1160
aag813
ag814
ag815
ag816
ag817
ag818
a(lp1214
I280
ag1160
aag822
ag823
ag824
ag825
a(lp1215
I285
ag1160
aag829
ag830
ag831
ag832
a(lp1216
I290
ag1160
aag835
ag836
ag837
ag838
ag839
ag840
ag841
ag842
a(lp1217
I299
ag1160
aag845
ag846
ag847
ag848
ag849
ag850
ag851
ag852
ag853
ag854
a(lp1218
I311
ag1160
aag857
ag858
ag859
ag860
ag861
a(lp1219
I318
ag1160
aag865
ag866
ag867
a(lp1220
I322
ag1160
aag870
ag871
ag872
ag873
ag874
ag875
ag876
ag877
ag878
a(lp1221
I332
ag1160
aag882
ag883
ag884
ag885
a(lp1222
I337
ag1160
aag888
ag889
ag890
ag891
ag892
ag893
ag894
ag895
a(lp1223
I346
ag1160
aag898
ag899
ag900
ag901
ag902
ag903
a(lp1224
I353
ag1160
aag906
ag907
ag908
ag909
ag910
ag911
a(lp1225
I360
ag1160
aag915
ag916
ag917
a(lp1226
I364
ag1160
aag920
ag921
ag922
a(lp1227
I368
ag1160
aag926
ag927
ag928
ag929
ag930
a(lp1228
I374
ag1160
aag934
ag935
ag936
ag937
a(lp1229
I379
ag1160
aag941
ag942
ag943
ag944
a(lp1230
I384
ag1160
aag947
ag948
ag949
ag950
ag951
ag952
a(lp1231
I392
ag1160
aag956
ag957
ag958
a(lp1232
I396
ag1160
aag961
ag962
ag963
ag964
ag966
ag967
ag968
a(lp1233
I404
ag1160
aag972
ag973
a(lp1234
I407
ag1160
aag977
ag978
ag979
a(lp1235
I411
ag1160
aag982
ag983
ag984
a(lp1236
I415
ag1160
aag987
ag988
ag989
ag990
ag991
a(lp1237
I421
ag1160
aag995
ag996
ag997
a(lp1238
I425
ag1160
aag1000
ag1001
ag1002
ag1003
ag1004
ag1005
ag1006
a(lp1239
I433
ag1160
aag1010
ag1011
a(lp1240
I436
ag1160
aag1015
ag1016
ag1017
ag1018
ag1019
a(lp1241
I442
ag1160
aag1022
ag1023
ag1024
ag1025
ag1026
ag1027
a(lp1242
I450
ag1160
aag1031
ag1032
ag1033
a(lp1243
I454
ag1160
aag1036
ag1037
ag1038
ag1039
a(lp1244
I459
ag1160
aag1043
ag1044
a(lp1245
I462
ag1160
aag1048
ag1049
ag1050
ag1051
ag1052
a(lp1246
I468
ag1160
aag1055
ag1056
ag1057
ag1058
ag1059
ag1060
a(lp1247
I475
ag1160
aag1064
ag1065
ag1066
ag1067
ag1068
ag1069
ag1070
a(lp1248
I483
ag1160
aag1074
ag1075
ag1076
ag1077
ag1078
a(lp1249
I489
ag1160
aag1082
ag1083
a(lp1250
I492
ag1160
aag1087
ag1088
a(lp1251
I495
ag1160
aag1092
ag1093
ag1094
ag1095
ag1096
a(lp1252
I501
ag1160
aag1099
ag1100
ag1101
ag1102
ag1103
a(lp1253
I507
ag1160
aag1107
ag1108
a(lp1254
I510
ag1160
aag1112
ag1113
ag1114
a(lp1255
I514
ag1160
aag1117
ag1118
ag1119
ag1120
ag1121
a(lp1256
I520
ag1160
aag1124
ag1125
ag1126
ag1127
ag1128
ag1129
a(lp1257
I527
ag1160
aag1133
ag1134
ag1135
ag1136
ag1137
a(lp1258
I533
ag1160
aag1141
ag1142
ag1143
a(lp1259
I537
ag1160
aag1146
ag1147
ag1148
ag1149
a(lp1260
I542
ag1160
aag1153
ag1154
ag1155
ag1156
asS'text'
p1261
S'ask an astronomer for kids! - how do the planets stay in orbit around the sun? how do the planets stay in orbit around the sun? the solar system was formed from a rotating cloud of gas and dust which spun around a newly forming star, our sun, at its center. the planets all formed from this spinning disk-shaped cloud, and continued this rotating course around the sun after they were formed. the gravity of the sun keeps the planets in their orbits. the stay in their orbits because there is no other force in the solar system which can stop them.'
p1262
sS'cleanWordMap'
p1263
(lp1264
g448
ag462
ag486
ag513
ag524
ag536
ag544
ag559
ag581
ag590
ag601
ag608
ag622
ag633
ag640
ag654
ag672
ag683
ag696
ag707
ag721
ag727
ag738
ag745
ag754
ag766
ag782
ag796
ag811
ag833
ag843
ag855
ag868
ag886
ag896
ag904
ag918
ag945
ag959
ag980
ag985
ag998
ag1020
ag1034
ag1053
ag1097
ag1115
ag1122
ag1144
asS'lines'
p1265
(lp1266
VAsk an Astronomer for KIDS! - How do the planets stay in orbit around the sun?\u000a
p1267
aVHow do the planets stay in orbit around the sun?\u000a
p1268
aVThe solar system was formed from a rotating cloud of gas and dust which spun around a newly forming star, our sun, at its center. The planets all formed from this spinning disk-shaped cloud, and continued this rotating course around the sun after they were formed. The gravity of the sun keeps the planets in their orbits. The stay in their orbits because there is no other force in the solar system which can stop them.
p1269
asS'docType'
p1270
S'src'
p1271
sS'newfmap'
p1272
(lp1273
g4
ag8
ag10
ag12
ag14
ag17
ag19
ag21
ag23
ag26
ag28
ag30
ag32
ag35
ag37
ag39
ag41
ag44
ag46
ag48
ag50
ag53
ag55
ag57
ag59
ag62
ag64
ag66
ag71
ag73
ag75
ag77
ag80
ag82
ag84
ag86
ag89
ag91
ag93
ag95
ag98
ag100
ag102
ag104
ag107
ag109
ag111
ag116
ag118
ag120
ag122
ag125
ag127
ag129
ag131
ag134
ag136
ag138
ag140
ag143
ag145
ag147
ag149
ag152
ag154
ag156
ag158
ag161
ag163
ag165
ag167
ag170
ag172
ag174
ag176
ag179
ag181
ag183
ag185
ag188
ag190
ag192
ag194
ag197
ag199
ag201
ag203
ag206
ag208
ag210
ag212
ag215
ag217
ag219
ag221
ag224
ag226
ag228
ag230
ag233
ag235
ag239
ag242
ag244
ag246
ag248
ag251
ag253
ag255
ag257
ag260
ag262
ag264
ag266
ag269
ag271
ag273
ag275
ag278
ag280
ag282
ag284
ag287
ag289
ag291
ag293
ag296
ag298
ag300
ag302
ag305
ag307
ag309
ag311
ag314
ag316
ag318
ag320
ag323
ag325
ag327
ag332
ag334
ag336
ag338
ag341
ag343
ag345
ag347
ag350
ag352
ag354
ag356
ag359
ag361
ag365
ag368
ag370
ag372
ag374
ag377
ag379
ag381
ag383
ag386
ag388
ag390
ag392
ag395
ag397
ag399
ag401
ag404
ag406
ag408
ag410
ag413
ag415
ag417
ag419
ag422
ag424
ag426
ag428
ag431
ag433
ag435
ag437
ag440
ag442
ag444
asS'featureMap'
p1274
(lp1275
(lp1276
I0
aI2
ag5
ag6
ag9
ag11
ag13
aa(lp1277
I7
aI16
ag15
ag16
ag18
ag20
ag22
aa(lp1278
I22
aI25
ag24
ag25
ag27
ag29
ag31
aa(lp1279
I41
aI47
ag33
ag34
ag36
ag38
ag40
aa(lp1280
I49
aI52
ag42
ag43
ag45
ag47
ag49
aa(lp1281
I57
aI61
ag51
ag52
ag54
ag56
ag58
aa(lp1282
I63
aI68
ag60
ag61
ag63
ag65
ag67
aa(lp1283
I74
aI76
ag69
ag70
ag72
ag74
ag76
aa(lp1284
I90
aI96
ag78
ag79
ag81
ag83
ag85
aa(lp1285
I98
aI101
ag87
ag88
ag90
ag92
ag94
aa(lp1286
I106
aI110
ag96
ag97
ag99
ag101
ag103
aa(lp1287
I112
aI117
ag105
ag106
ag108
ag110
ag112
aa(lp1288
I123
aI125
ag114
ag115
ag117
ag119
ag121
aa(lp1289
I132
aI136
ag123
ag124
ag126
ag128
ag130
aa(lp1290
I138
aI143
ag132
ag133
ag135
ag137
ag139
aa(lp1291
I149
aI154
ag141
ag142
ag144
ag146
ag148
aa(lp1292
I163
aI170
ag150
ag151
ag153
ag155
ag157
aa(lp1293
I172
aI176
ag159
ag160
ag162
ag164
ag166
aa(lp1294
I181
aI183
ag168
ag169
ag171
ag173
ag175
aa(lp1295
I189
aI192
ag177
ag178
ag180
ag182
ag184
aa(lp1296
I200
aI203
ag186
ag187
ag189
ag191
ag193
aa(lp1297
I205
aI210
ag195
ag196
ag198
ag200
ag202
aa(lp1298
I214
aI218
ag204
ag205
ag207
ag209
ag211
aa(lp1299
I220
aI226
ag213
ag214
ag216
ag218
ag220
aa(lp1300
I228
aI231
ag222
ag223
ag225
ag227
ag229
aa(lp1301
I238
aI240
ag231
ag232
ag234
ag236
ag238
aa(lp1302
I250
aI255
ag240
ag241
ag243
ag245
ag247
aa(lp1303
I262
aI268
ag249
ag250
ag252
ag254
ag256
aa(lp1304
I274
aI279
ag258
ag259
ag261
ag263
ag265
aa(lp1305
I291
aI298
ag267
ag268
ag270
ag272
ag274
aa(lp1306
I300
aI310
ag276
ag277
ag279
ag281
ag283
aa(lp1307
I312
aI316
ag285
ag286
ag288
ag290
ag292
aa(lp1308
I323
aI331
ag294
ag295
ag297
ag299
ag301
aa(lp1309
I338
aI345
ag303
ag304
ag306
ag308
ag310
aa(lp1310
I347
aI352
ag312
ag313
ag315
ag317
ag319
aa(lp1311
I354
aI359
ag321
ag322
ag324
ag326
ag328
aa(lp1312
I365
aI367
ag330
ag331
ag333
ag335
ag337
aa(lp1313
I385
aI390
ag339
ag340
ag342
ag344
ag346
aa(lp1314
I397
aI403
ag348
ag349
ag351
ag353
ag355
aa(lp1315
I412
aI414
ag357
ag358
ag360
ag362
ag364
aa(lp1316
I416
aI420
ag366
ag367
ag369
ag371
ag373
aa(lp1317
I426
aI432
ag375
ag376
ag378
ag380
ag382
aa(lp1318
I443
aI448
ag384
ag385
ag387
ag389
ag391
aa(lp1319
I455
aI458
ag393
ag394
ag396
ag398
ag400
aa(lp1320
I469
aI474
ag402
ag403
ag405
ag407
ag409
aa(lp1321
I502
aI506
ag411
ag412
ag414
ag416
ag418
aa(lp1322
I515
aI519
ag420
ag421
ag423
ag425
ag427
aa(lp1323
I521
aI526
ag429
ag430
ag432
ag434
ag436
aa(lp1324
I538
aI541
ag438
ag439
ag441
ag443
ag445
aasS'characterMap'
p1325
(lp1326
g450
ag452
ag454
ag1159
ag459
ag460
ag1161
ag464
ag465
ag466
ag468
ag470
ag472
ag473
ag474
ag476
ag478
ag1162
ag482
ag484
ag485
ag1163
ag488
ag489
ag491
ag493
a(lp1327
I26
aS'!'
p1328
aag1164
a(lp1329
I28
aS'-'
p1330
aag1165
ag497
ag499
ag500
ag1166
ag505
ag506
ag1167
ag510
ag511
ag512
ag1168
ag515
ag517
ag519
ag520
ag521
ag522
ag523
ag1169
ag526
ag527
ag528
ag529
ag1170
ag534
ag535
ag1171
ag538
ag539
ag540
ag542
ag543
ag1172
ag546
ag547
ag548
ag549
ag551
ag552
ag1173
ag556
ag557
ag558
ag1174
ag561
ag562
ag563
a(lp1331
I77
aS'?'
p1332
aag1175
ag567
ag568
ag569
ag1176
ag573
ag574
ag1177
ag578
ag579
ag580
ag1178
ag583
ag584
ag585
ag586
ag587
ag588
ag589
ag1179
ag592
ag593
ag594
ag595
ag1180
ag599
ag600
ag1181
ag603
ag604
ag605
ag606
ag607
ag1182
ag610
ag611
ag612
ag613
ag614
ag615
ag1183
ag619
ag620
ag621
ag1184
ag624
ag625
ag626
a(lp1333
I126
ag1332
aag1185
ag630
ag631
ag632
ag1186
ag635
ag636
ag637
ag638
ag639
ag1187
ag642
ag643
ag644
ag645
ag646
ag647
ag1188
ag651
ag652
ag653
ag1189
ag656
ag657
ag658
ag659
ag660
ag661
ag1190
ag665
ag666
ag667
ag668
ag1191
ag671
ag1192
ag674
ag675
ag676
ag677
ag678
ag679
ag680
ag681
ag1193
ag685
ag687
ag688
ag689
ag690
ag1194
ag694
ag695
ag1195
ag698
ag699
ag700
ag1196
ag704
ag705
ag706
ag1197
ag709
ag710
ag711
ag712
ag1198
ag716
ag717
ag718
ag719
ag720
ag1199
ag723
ag724
ag725
ag726
ag1200
ag729
ag730
ag731
ag732
ag733
ag734
ag1201
ag737
ag1202
ag740
ag741
ag742
ag743
ag744
ag1203
ag747
ag748
ag749
ag750
ag751
ag752
ag753
ag1204
ag756
ag757
ag758
ag759
a(lp1334
I232
aS','
p1335
aag1205
ag763
ag764
ag765
ag1206
ag768
ag769
ag770
a(lp1336
I241
ag1335
aag1207
ag774
ag775
ag1208
ag779
ag780
ag781
ag1209
ag784
ag785
ag786
ag787
ag788
ag789
a(lp1337
I256
aS'.'
p1338
aag1210
ag793
ag794
ag795
ag1211
ag798
ag799
ag800
ag801
ag802
ag803
ag804
ag1212
ag808
ag809
ag810
ag1213
ag813
ag814
ag815
ag816
ag817
ag818
ag1214
ag822
ag823
ag824
ag825
ag1215
ag829
ag830
ag831
ag832
ag1216
ag835
ag836
ag837
ag838
ag839
ag840
ag841
ag842
ag1217
ag845
ag846
ag847
ag848
a(lp1339
I304
ag1330
aag849
ag850
ag851
ag852
ag853
ag854
ag1218
ag857
ag858
ag859
ag860
ag861
a(lp1340
I317
ag1335
aag1219
ag865
ag866
ag867
ag1220
ag870
ag871
ag872
ag873
ag874
ag875
ag876
ag877
ag878
ag1221
ag882
ag883
ag884
ag885
ag1222
ag888
ag889
ag890
ag891
ag892
ag893
ag894
ag895
ag1223
ag898
ag899
ag900
ag901
ag902
ag903
ag1224
ag906
ag907
ag908
ag909
ag910
ag911
ag1225
ag915
ag916
ag917
ag1226
ag920
ag921
ag922
ag1227
ag926
ag927
ag928
ag929
ag930
ag1228
ag934
ag935
ag936
ag937
ag1229
ag941
ag942
ag943
ag944
ag1230
ag947
ag948
ag949
ag950
ag951
ag952
a(lp1341
I391
ag1338
aag1231
ag956
ag957
ag958
ag1232
ag961
ag962
ag963
ag964
ag966
ag967
ag968
ag1233
ag972
ag973
ag1234
ag977
ag978
ag979
ag1235
ag982
ag983
ag984
ag1236
ag987
ag988
ag989
ag990
ag991
ag1237
ag995
ag996
ag997
ag1238
ag1000
ag1001
ag1002
ag1003
ag1004
ag1005
ag1006
ag1239
ag1010
ag1011
ag1240
ag1015
ag1016
ag1017
ag1018
ag1019
ag1241
ag1022
ag1023
ag1024
ag1025
ag1026
ag1027
a(lp1342
I449
ag1338
aag1242
ag1031
ag1032
ag1033
ag1243
ag1036
ag1037
ag1038
ag1039
ag1244
ag1043
ag1044
ag1245
ag1048
ag1049
ag1050
ag1051
ag1052
ag1246
ag1055
ag1056
ag1057
ag1058
ag1059
ag1060
ag1247
ag1064
ag1065
ag1066
ag1067
ag1068
ag1069
ag1070
ag1248
ag1074
ag1075
ag1076
ag1077
ag1078
ag1249
ag1082
ag1083
ag1250
ag1087
ag1088
ag1251
ag1092
ag1093
ag1094
ag1095
ag1096
ag1252
ag1099
ag1100
ag1101
ag1102
ag1103
ag1253
ag1107
ag1108
ag1254
ag1112
ag1113
ag1114
ag1255
ag1117
ag1118
ag1119
ag1120
ag1121
ag1256
ag1124
ag1125
ag1126
ag1127
ag1128
ag1129
ag1257
ag1133
ag1134
ag1135
ag1136
ag1137
ag1258
ag1141
ag1142
ag1143
ag1259
ag1146
ag1147
ag1148
ag1149
ag1260
ag1153
ag1154
ag1155
ag1156
a(lp1343
I547
ag1338
aasS'docName'
p1344
S'source-document01137.txt'
p1345
sb.