(iModel.Document
Document
p0
(dp1
S'fmap'
p2
(lp3
(lp4
I4
aI10
aS'nearest'
p5
a(lp6
S'*'
p7
ag5
aaa(lp8
I4
aI10
ag5
a(lp9
g7
ag5
aaa(lp10
I4
aI10
ag5
a(lp11
g7
ag5
aaa(lp12
I4
aI10
ag5
a(lp13
g7
ag5
aaa(lp14
I12
aI15
aS'star'
p15
a(lp16
g5
ag15
aaa(lp17
I12
aI15
ag15
a(lp18
g7
ag15
aaa(lp19
I12
aI15
ag15
a(lp20
g7
ag15
aaa(lp21
I12
aI15
ag15
a(lp22
g7
ag15
aaa(lp23
I20
aI24
aS'alpha'
p24
a(lp25
g15
ag24
aaa(lp26
I20
aI24
ag24
a(lp27
g5
ag24
aaa(lp28
I20
aI24
ag24
a(lp29
g7
ag24
aaa(lp30
I20
aI24
ag24
a(lp31
g7
ag24
aaa(lp32
I26
aI33
aS'centauri'
p33
a(lp34
g24
ag33
aaa(lp35
I26
aI33
ag33
a(lp36
g15
ag33
aaa(lp37
I26
aI33
ag33
a(lp38
g5
ag33
aaa(lp39
I26
aI33
ag33
a(lp40
g7
ag33
aaa(lp41
I35
aI39
aS'wrong'
p42
a(lp43
g33
ag42
aaa(lp44
I35
aI39
ag42
a(lp45
g24
ag42
aaa(lp46
I35
aI39
ag42
a(lp47
g15
ag42
aaa(lp48
I35
aI39
ag42
a(lp49
g5
ag42
aaa(lp50
I46
aI52
aS'nearest'
p51
a(lp52
g42
ag51
aaa(lp53
I46
aI52
ag51
a(lp54
g33
ag51
aaa(lp55
I46
aI52
ag51
a(lp56
g24
ag51
aaa(lp57
I46
aI52
ag51
a(lp58
g15
ag51
aaa(lp59
I54
aI57
aS'star'
p60
a(lp61
g51
ag60
aaa(lp62
I54
aI57
ag60
a(lp63
g42
ag60
aaa(lp64
I54
aI57
ag60
a(lp65
g33
ag60
aaa(lp66
I54
aI57
ag60
a(lp67
g24
ag60
aaa(lp68
I62
aI67
aS'called'
p69
a(lp70
g60
ag69
aaa(lp71
I62
aI67
ag69
a(lp72
g51
ag69
aaa(lp73
I62
aI67
ag69
a(lp74
g42
ag69
aaa(lp75
I62
aI67
ag69
a(lp76
g33
ag69
aaa(lp77
I73
aI75
aS'sun'
p78
a(lp79
g69
ag78
aaa(lp80
I73
aI75
ag78
a(lp81
g60
ag78
aaa(lp82
I73
aI75
ag78
a(lp83
g51
ag78
aaa(lp84
I73
aI75
ag78
a(lp85
g42
ag78
aaa(lp86
I86
aI90
aS'stars'
p87
a(lp88
g78
ag87
aaa(lp89
I86
aI90
ag87
a(lp90
g69
ag87
aaa(lp91
I86
aI90
ag87
a(lp92
g60
ag87
aaa(lp93
I86
aI90
ag87
a(lp94
g51
ag87
aaa(lp95
I99
aI101
aS'sky'
p96
a(lp97
g87
ag96
aaa(lp98
I99
aI101
ag96
a(lp99
g78
ag96
aaa(lp100
I99
aI101
ag96
a(lp101
g69
ag96
aaa(lp102
I99
aI101
ag96
a(lp103
g60
ag96
aaa(lp104
I116
aI118
aS'see'
p105
a(lp106
g96
ag105
aaa(lp107
I116
aI118
ag105
a(lp108
g87
ag105
aaa(lp109
I116
aI118
ag105
a(lp110
g78
ag105
aaa(lp111
I116
aI118
ag105
a(lp112
g69
ag105
aaa(lp113
I124
aI130
aS'similar'
p114
a(lp115
g105
ag114
aaa(lp116
I124
aI130
ag114
a(lp117
g96
ag114
aaa(lp118
I124
aI130
ag114
a(lp119
g87
ag114
aaa(lp120
I124
aI130
ag114
a(lp121
g78
ag114
aaa(lp122
I139
aI145
aS'sunthey'
p123
a(lp124
g114
ag123
aaa(lp125
I139
aI145
ag123
a(lp126
g105
ag123
aaa(lp127
I139
aI145
ag123
a(lp128
g96
ag123
aaa(lp129
I139
aI145
ag123
a(lp130
g87
ag123
aaa(lp131
I151
aI157
aS'massive'
p132
a(lp133
g123
ag132
aaa(lp134
I151
aI157
ag132
a(lp135
g114
ag132
aaa(lp136
I151
aI157
ag132
a(lp137
g105
ag132
aaa(lp138
I151
aI157
ag132
a(lp139
g96
ag132
aaa(lp140
I159
aI171
aS'thermonuclear'
p141
a(lp142
g132
ag141
aaa(lp143
I159
aI171
ag141
a(lp144
g123
ag141
aaa(lp145
I159
aI171
ag141
a(lp146
g114
ag141
aaa(lp147
I159
aI171
ag141
a(lp148
g105
ag141
aaa(lp149
I173
aI182
aS'explosions'
p150
a(lp151
g141
ag150
aaa(lp152
I173
aI182
ag150
a(lp153
g132
ag150
aaa(lp154
I173
aI182
ag150
a(lp155
g123
ag150
aaa(lp156
I173
aI182
ag150
a(lp157
g114
ag150
aaa(lp158
I189
aI192
aS'like'
p159
a(lp160
g150
ag159
aaa(lp161
I189
aI192
ag159
a(lp162
g141
ag159
aaa(lp163
I189
aI192
ag159
a(lp164
g132
ag159
aaa(lp165
I189
aI192
ag159
a(lp166
g123
ag159
aaa(lp167
I196
aI203
aS'hydrogen'
p168
a(lp169
g159
ag168
aaa(lp170
I196
aI203
ag168
a(lp171
g150
ag168
aaa(lp172
I196
aI203
ag168
a(lp173
g141
ag168
aaa(lp174
I196
aI203
ag168
a(lp175
g132
ag168
aaa(lp176
I205
aI208
aS'bomb'
p177
a(lp178
g168
ag177
aaa(lp179
I205
aI208
ag177
a(lp180
g159
ag177
aaa(lp181
I205
aI208
ag177
a(lp182
g150
ag177
aaa(lp183
I205
aI208
ag177
a(lp184
g141
ag177
aaa(lp185
I215
aI217
aS'sun'
p186
a(lp187
g177
ag186
aaa(lp188
I215
aI217
ag186
a(lp189
g168
ag186
aaa(lp190
I215
aI217
ag186
a(lp191
g159
ag186
aaa(lp192
I215
aI217
ag186
a(lp193
g150
ag186
aaa(lp194
I228
aI231
aS'half'
p195
a(lp196
g186
ag195
aaa(lp197
I228
aI231
ag195
a(lp198
g177
ag195
aaa(lp199
I228
aI231
ag195
a(lp200
g168
ag195
aaa(lp201
I228
aI231
ag195
a(lp202
g159
ag195
aaa(lp203
I233
aI235
aS'way'
p204
a(lp205
g195
ag204
aaa(lp206
I233
aI235
ag204
a(lp207
g186
ag204
aaa(lp208
I233
aI235
ag204
a(lp209
g177
ag204
aaa(lp210
I233
aI235
ag204
a(lp211
g168
ag204
aaa(lp212
I249
aI256
aS'lifetime'
p213
a(lp214
g204
ag213
aaa(lp215
I249
aI256
ag213
a(lp216
g195
ag213
aaa(lp217
I249
aI256
ag213
a(lp218
g186
ag213
aaa(lp219
I249
aI256
ag213
a(lp220
g177
ag213
aaa(lp221
I262
aI266
aS'still'
p222
a(lp223
g213
ag222
aaa(lp224
I262
aI266
ag222
a(lp225
g204
ag222
aaa(lp226
I262
aI266
ag222
a(lp227
g195
ag222
aaa(lp228
I262
aI266
ag222
a(lp229
g186
ag222
aaa(lp230
I272
aI277
aS'enough'
p231
a(lp232
g222
ag231
aaa(lp233
I272
aI277
ag231
a(lp234
g213
ag231
aaa(lp235
I272
aI277
ag231
a(lp236
g204
ag231
aaa(lp237
I272
aI277
ag231
a(lp238
g195
ag231
aaa(lp239
I279
aI285
aS'nuclear'
p240
a(lp241
g231
ag240
aaa(lp242
I279
aI285
ag240
a(lp243
g222
ag240
aaa(lp244
I279
aI285
ag240
a(lp245
g213
ag240
aaa(lp246
I279
aI285
ag240
a(lp247
g204
ag240
aaa(lp248
I287
aI290
aS'fuel'
p249
a(lp250
g240
ag249
aaa(lp251
I287
aI290
ag249
a(lp252
g231
ag249
aaa(lp253
I287
aI290
ag249
a(lp254
g222
ag249
aaa(lp255
I287
aI290
ag249
a(lp256
g213
ag249
aaa(lp257
I295
aI298
aS'keep'
p258
a(lp259
g249
ag258
aaa(lp260
I295
aI298
ag258
a(lp261
g240
ag258
aaa(lp262
I295
aI298
ag258
a(lp263
g231
ag258
aaa(lp264
I295
aI298
ag258
a(lp265
g222
ag258
aaa(lp266
I304
aI312
aS'explosion'
p267
a(lp268
g258
ag267
aaa(lp269
I304
aI312
ag267
a(lp270
g249
ag267
aaa(lp271
I304
aI312
ag267
a(lp272
g240
ag267
aaa(lp273
I304
aI312
ag267
a(lp274
g231
ag267
aaa(lp275
I314
aI318
aS'going'
p276
a(lp277
g267
ag276
aaa(lp278
I314
aI318
ag276
a(lp279
g258
ag276
aaa(lp280
I314
aI318
ag276
a(lp281
g249
ag276
aaa(lp282
I314
aI318
ag276
a(lp283
g240
ag276
aaa(lp284
I330
aI336
aS'another'
p285
a(lp286
g276
ag285
aaa(lp287
I330
aI336
ag285
a(lp288
g267
ag285
aaa(lp289
I330
aI336
ag285
a(lp290
g258
ag285
aaa(lp291
I330
aI336
ag285
a(lp292
g249
ag285
aaa(lp293
I338
aI345
aS'thousand'
p294
a(lp295
g285
ag294
aaa(lp296
I338
aI345
ag294
a(lp297
g276
ag294
aaa(lp298
I338
aI345
ag294
a(lp299
g267
ag294
aaa(lp300
I338
aI345
ag294
a(lp301
g258
ag294
aaa(lp302
I347
aI353
aS'million'
p303
a(lp304
g294
ag303
aaa(lp305
I347
aI353
ag303
a(lp306
g285
ag303
aaa(lp307
I347
aI353
ag303
a(lp308
g276
ag303
aaa(lp309
I347
aI353
ag303
a(lp310
g267
ag303
aaa(lp311
I355
aI359
aS'years'
p312
a(lp313
g303
ag312
aaa(lp314
I355
aI359
ag312
a(lp315
g294
ag312
aaa(lp316
I355
aI359
ag312
a(lp317
g285
ag312
aaa(lp318
I355
aI359
ag312
a(lp319
g276
ag312
aaa(lp320
I365
aI368
aS'fact'
p321
a(lp322
g312
ag321
aaa(lp323
I365
aI368
ag321
a(lp324
g303
ag321
aaa(lp325
I365
aI368
ag321
a(lp326
g294
ag321
aaa(lp327
I365
aI368
ag321
a(lp328
g285
ag321
aaa(lp329
I374
aI376
aS'sun'
p330
a(lp331
g321
ag330
aaa(lp332
I374
aI376
ag330
a(lp333
g312
ag330
aaa(lp334
I374
aI376
ag330
a(lp335
g303
ag330
aaa(lp336
I374
aI376
ag330
a(lp337
g294
ag330
aaa(lp338
I383
aI388
aS'rather'
p339
a(lp340
g330
ag339
aaa(lp341
I383
aI388
ag339
a(lp342
g321
ag339
aaa(lp343
I383
aI388
ag339
a(lp344
g312
ag339
aaa(lp345
I383
aI388
ag339
a(lp346
g303
ag339
aaa(lp347
I390
aI397
aS'boringly'
p348
a(lp349
g339
ag348
aaa(lp350
I390
aI397
ag348
a(lp351
g330
ag348
aaa(lp352
I390
aI397
ag348
a(lp353
g321
ag348
aaa(lp354
I390
aI397
ag348
a(lp355
g312
ag348
aaa(lp356
I399
aI405
aS'average'
p357
a(lp358
g348
ag357
aaa(lp359
I399
aI405
ag357
a(lp360
g339
ag357
aaa(lp361
I399
aI405
ag357
a(lp362
g330
ag357
aaa(lp363
I399
aI405
ag357
a(lp364
g321
ag357
aaa(lp365
I407
aI417
aS'starthere'
p366
a(lp367
g357
ag366
aaa(lp368
I407
aI417
ag366
a(lp369
g348
ag366
aaa(lp370
I407
aI417
ag366
a(lp371
g339
ag366
aaa(lp372
I407
aI417
ag366
a(lp373
g330
ag366
aaa(lp374
I423
aI426
aS'lots'
p375
a(lp376
g366
ag375
aaa(lp377
I423
aI426
ag375
a(lp378
g357
ag375
aaa(lp379
I423
aI426
ag375
a(lp380
g348
ag375
aaa(lp381
I423
aI426
ag375
a(lp382
g339
ag375
aaa(lp383
I428
aI431
aS'much'
p384
a(lp385
g375
ag384
aaa(lp386
I428
aI431
ag384
a(lp387
g366
ag384
aaa(lp388
I428
aI431
ag384
a(lp389
g357
ag384
aaa(lp390
I428
aI431
ag384
a(lp391
g348
ag384
aaa(lp392
I433
aI438
aS'bigger'
p393
a(lp394
g384
ag393
aaa(lp395
I433
aI438
ag393
a(lp396
g375
ag393
aaa(lp397
I433
aI438
ag393
a(lp398
g366
ag393
aaa(lp399
I433
aI438
ag393
a(lp400
g357
ag393
aaa(lp401
I444
aI450
aS'smaller'
p402
a(lp403
g393
ag402
aaa(lp404
I444
aI450
ag402
a(lp405
g384
ag402
aaa(lp406
I444
aI450
ag402
a(lp407
g375
ag402
aaa(lp408
I444
aI450
ag402
a(lp409
g366
ag402
aaa(lp410
I457
aI460
aS'lots'
p411
a(lp412
g402
ag411
aaa(lp413
I457
aI460
ag411
a(lp414
g393
ag411
aaa(lp415
I457
aI460
ag411
a(lp416
g384
ag411
aaa(lp417
I457
aI460
ag411
a(lp418
g375
ag411
aaa(lp419
I462
aI465
aS'much'
p420
a(lp421
g411
ag420
aaa(lp422
I462
aI465
ag420
a(lp423
g402
ag420
aaa(lp424
I462
aI465
ag420
a(lp425
g393
ag420
aaa(lp426
I462
aI465
ag420
a(lp427
g384
ag420
aaa(lp428
I467
aI472
aS'hotter'
p429
a(lp430
g420
ag429
aaa(lp431
I467
aI472
ag429
a(lp432
g411
ag429
aaa(lp433
I467
aI472
ag429
a(lp434
g402
ag429
aaa(lp435
I467
aI472
ag429
a(lp436
g393
ag429
aaa(lp437
I478
aI483
aS'cooler'
p438
a(lp439
g429
ag438
aaa(lp440
I478
aI483
ag438
a(lp441
g420
ag438
aaa(lp442
I478
aI483
ag438
a(lp443
g411
ag438
aaa(lp444
I478
aI483
ag438
a(lp445
g402
ag438
aaa(lp446
I495
aI497
aS'sun'
p447
a(lp448
g438
ag447
aaa(lp449
I495
aI497
ag447
a(lp450
g429
ag447
aaa(lp451
I495
aI497
ag447
a(lp452
g420
ag447
aaa(lp453
I495
aI497
ag447
a(lp454
g411
ag447
aaa(lp455
I504
aI506
aS'sun'
p456
a(lp457
g447
ag456
aaa(lp458
I504
aI506
ag456
a(lp459
g438
ag456
aaa(lp460
I504
aI506
ag456
a(lp461
g429
ag456
aaa(lp462
I504
aI506
ag456
a(lp463
g420
ag456
aaa(lp464
I513
aI519
aS'happens'
p465
a(lp466
g456
ag465
aaa(lp467
I513
aI519
ag465
a(lp468
g447
ag465
aaa(lp469
I513
aI519
ag465
a(lp470
g438
ag465
aaa(lp471
I513
aI519
ag465
a(lp472
g429
ag465
aaa(lp473
I530
aI535
aS'bright'
p474
a(lp475
g465
ag474
aaa(lp476
I530
aI535
ag474
a(lp477
g456
ag474
aaa(lp478
I530
aI535
ag474
a(lp479
g447
ag474
aaa(lp480
I530
aI535
ag474
a(lp481
g438
ag474
aaa(lp482
I540
aI541
aS'us'
p483
a(lp484
g474
ag483
aaa(lp485
I540
aI541
ag483
a(lp486
g465
ag483
aaa(lp487
I540
aI541
ag483
a(lp488
g456
ag483
aaa(lp489
I540
aI541
ag483
a(lp490
g447
ag483
aaa(lp491
I561
aI565
aS'close'
p492
a(lp493
g483
ag492
aaa(lp494
I561
aI565
ag492
a(lp495
g474
ag492
aaa(lp496
I561
aI565
ag492
a(lp497
g465
ag492
aaa(lp498
I561
aI565
ag492
a(lp499
g456
ag492
aaa(lp500
I589
aI593
aS'pluto'
p501
a(lp502
g492
ag501
aaa(lp503
I589
aI593
ag501
a(lp504
g483
ag501
aaa(lp505
I589
aI593
ag501
a(lp506
g474
ag501
aaa(lp507
I589
aI593
ag501
a(lp508
g465
ag501
aaa(lp509
I598
aI602
aS'would'
p510
a(lp511
g501
ag510
aaa(lp512
I598
aI602
ag510
a(lp513
g492
ag510
aaa(lp514
I598
aI602
ag510
a(lp515
g483
ag510
aaa(lp516
I598
aI602
ag510
a(lp517
g474
ag510
aaa(lp518
I608
aI611
aS'seem'
p519
a(lp520
g510
ag519
aaa(lp521
I608
aI611
ag519
a(lp522
g501
ag519
aaa(lp523
I608
aI611
ag519
a(lp524
g492
ag519
aaa(lp525
I608
aI611
ag519
a(lp526
g483
ag519
aaa(lp527
I613
aI616
aS'much'
p528
a(lp529
g519
ag528
aaa(lp530
I613
aI616
ag528
a(lp531
g510
ag528
aaa(lp532
I613
aI616
ag528
a(lp533
g501
ag528
aaa(lp534
I613
aI616
ag528
a(lp535
g492
ag528
aaa(lp536
I618
aI623
aS'bigger'
p537
a(lp538
g528
ag537
aaa(lp539
I618
aI623
ag537
a(lp540
g519
ag537
aaa(lp541
I618
aI623
ag537
a(lp542
g510
ag537
aaa(lp543
I618
aI623
ag537
a(lp544
g501
ag537
aaa(lp545
I634
aI637
aS'rest'
p546
a(lp547
g537
ag546
aaa(lp548
I634
aI637
ag546
a(lp549
g528
ag546
aaa(lp550
I634
aI637
ag546
a(lp551
g519
ag546
aaa(lp552
I634
aI637
ag546
a(lp553
g510
ag546
aaa(lp554
I646
aI650
aS'stars'
p555
a(lp556
g546
ag555
aaa(lp557
I646
aI650
ag555
a(lp558
g537
ag555
aaa(lp559
I646
aI650
ag555
a(lp560
g528
ag555
aaa(lp561
I646
aI650
ag555
a(lp562
g519
ag555
aaa(lp563
I657
aI661
aS'would'
p564
a(lp565
g555
ag564
aaa(lp566
I657
aI661
ag564
a(lp567
g546
ag564
aaa(lp568
I657
aI661
ag564
a(lp569
g537
ag564
aaa(lp570
I657
aI661
ag564
a(lp571
g528
ag564
aaa(lp572
I663
aI669
aS'however'
p573
a(lp574
g564
ag573
aaa(lp575
I663
aI669
ag573
a(lp576
g555
ag573
aaa(lp577
I663
aI669
ag573
a(lp578
g546
ag573
aaa(lp579
I663
aI669
ag573
a(lp580
g537
ag573
aaa(lp581
I676
aI678
aS'lot'
p582
a(lp583
g573
ag582
aaa(lp584
I676
aI678
ag582
a(lp585
g564
ag582
aaa(lp586
I676
aI678
ag582
a(lp587
g555
ag582
aaa(lp588
I676
aI678
ag582
a(lp589
g546
ag582
aaa(lp590
I680
aI687
aS'brighter'
p591
a(lp592
g582
ag591
aaa(lp593
I680
aI687
ag591
a(lp594
g573
ag591
aaa(lp595
I680
aI687
ag591
a(lp596
g564
ag591
aaa(lp597
I680
aI687
ag591
a(lp598
g555
ag591
aaa(lp599
I708
aI713
aS'enough'
p600
a(lp601
g591
ag600
aaa(lp602
I708
aI713
ag600
a(lp603
g582
ag600
aaa(lp604
I708
aI713
ag600
a(lp605
g573
ag600
aaa(lp606
I708
aI713
ag600
a(lp607
g564
ag600
aaa(lp608
I718
aI721
aS'warm'
p609
a(lp610
g600
ag609
aaa(lp611
I718
aI721
ag609
a(lp612
g591
ag609
aaa(lp613
I718
aI721
ag609
a(lp614
g582
ag609
aaa(lp615
I718
aI721
ag609
a(lp616
g573
ag609
aaasS'wordMap'
p617
(lp618
(lp619
I0
aI2
aS'our'
p620
a(lp621
(lp622
I0
aS'o'
p623
aa(lp624
I1
aS'u'
p625
aa(lp626
I2
aS'r'
p627
aaaa(lp628
I4
aI10
ag5
a(lp629
(lp630
I4
aS'n'
p631
aa(lp632
I5
aS'e'
p633
aa(lp634
I6
aS'a'
p635
aa(lp636
I7
ag627
aa(lp637
I8
ag633
aa(lp638
I9
aS's'
p639
aa(lp640
I10
aS't'
p641
aaaa(lp642
I12
aI15
ag15
a(lp643
(lp644
I12
ag639
aa(lp645
I13
ag641
aa(lp646
I14
ag635
aa(lp647
I15
ag627
aaaa(lp648
I17
aI18
aS'is'
p649
a(lp650
(lp651
I17
aS'i'
p652
aa(lp653
I18
ag639
aaaa(lp654
I20
aI24
ag24
a(lp655
(lp656
I20
ag635
aa(lp657
I21
aS'l'
p658
aa(lp659
I22
aS'p'
p660
aa(lp661
I23
aS'h'
p662
aa(lp663
I24
ag635
aaaa(lp664
I26
aI33
ag33
a(lp665
(lp666
I26
aS'c'
p667
aa(lp668
I27
ag633
aa(lp669
I28
ag631
aa(lp670
I29
ag641
aa(lp671
I30
ag635
aa(lp672
I31
ag625
aa(lp673
I32
ag627
aa(lp674
I33
ag652
aaaa(lp675
I35
aI39
ag42
a(lp676
(lp677
I35
aS'w'
p678
aa(lp679
I36
ag627
aa(lp680
I37
ag623
aa(lp681
I38
ag631
aa(lp682
I39
aS'g'
p683
aaaa(lp684
I42
aI44
aS'our'
p685
a(lp686
(lp687
I42
ag623
aa(lp688
I43
ag625
aa(lp689
I44
ag627
aaaa(lp690
I46
aI52
ag51
a(lp691
(lp692
I46
ag631
aa(lp693
I47
ag633
aa(lp694
I48
ag635
aa(lp695
I49
ag627
aa(lp696
I50
ag633
aa(lp697
I51
ag639
aa(lp698
I52
ag641
aaaa(lp699
I54
aI57
ag60
a(lp700
(lp701
I54
ag639
aa(lp702
I55
ag641
aa(lp703
I56
ag635
aa(lp704
I57
ag627
aaaa(lp705
I59
aI60
aS'is'
p706
a(lp707
(lp708
I59
ag652
aa(lp709
I60
ag639
aaaa(lp710
I62
aI67
ag69
a(lp711
(lp712
I62
ag667
aa(lp713
I63
ag635
aa(lp714
I64
ag658
aa(lp715
I65
ag658
aa(lp716
I66
ag633
aa(lp717
I67
aS'd'
p718
aaaa(lp719
I69
aI71
aS'the'
p720
a(lp721
(lp722
I69
ag641
aa(lp723
I70
ag662
aa(lp724
I71
ag633
aaaa(lp725
I73
aI75
ag78
a(lp726
(lp727
I73
ag639
aa(lp728
I74
ag625
aa(lp729
I75
ag631
aaaa(lp730
I78
aI80
aS'all'
p731
a(lp732
(lp733
I78
ag635
aa(lp734
I79
ag658
aa(lp735
I80
ag658
aaaa(lp736
I82
aI84
aS'the'
p737
a(lp738
(lp739
I82
ag641
aa(lp740
I83
ag662
aa(lp741
I84
ag633
aaaa(lp742
I86
aI90
ag87
a(lp743
(lp744
I86
ag639
aa(lp745
I87
ag641
aa(lp746
I88
ag635
aa(lp747
I89
ag627
aa(lp748
I90
ag639
aaaa(lp749
I92
aI93
aS'in'
p750
a(lp751
(lp752
I92
ag652
aa(lp753
I93
ag631
aaaa(lp754
I95
aI97
aS'the'
p755
a(lp756
(lp757
I95
ag641
aa(lp758
I96
ag662
aa(lp759
I97
ag633
aaaa(lp760
I99
aI101
ag96
a(lp761
(lp762
I99
ag639
aa(lp763
I100
aS'k'
p764
aa(lp765
I101
aS'y'
p766
aaaa(lp767
I103
aI107
aS'which'
p768
a(lp769
(lp770
I103
ag678
aa(lp771
I104
ag662
aa(lp772
I105
ag652
aa(lp773
I106
ag667
aa(lp774
I107
ag662
aaaa(lp775
I109
aI110
aS'we'
p776
a(lp777
(lp778
I109
ag678
aa(lp779
I110
ag633
aaaa(lp780
I112
aI114
aS'can'
p781
a(lp782
(lp783
I112
ag667
aa(lp784
I113
ag635
aa(lp785
I114
ag631
aaaa(lp786
I116
aI118
ag105
a(lp787
(lp788
I116
ag639
aa(lp789
I117
ag633
aa(lp790
I118
ag633
aaaa(lp791
I120
aI122
aS'are'
p792
a(lp793
(lp794
I120
ag635
aa(lp795
I121
ag627
aa(lp796
I122
ag633
aaaa(lp797
I124
aI130
ag114
a(lp798
(lp799
I124
ag639
aa(lp800
I125
ag652
aa(lp801
I126
aS'm'
p802
aa(lp803
I127
ag652
aa(lp804
I128
ag658
aa(lp805
I129
ag635
aa(lp806
I130
ag627
aaaa(lp807
I132
aI133
aS'to'
p808
a(lp809
(lp810
I132
ag641
aa(lp811
I133
ag623
aaaa(lp812
I135
aI137
aS'the'
p813
a(lp814
(lp815
I135
ag641
aa(lp816
I136
ag662
aa(lp817
I137
ag633
aaaa(lp818
I139
aI145
ag123
a(lp819
(lp820
I139
ag639
aa(lp821
I140
ag625
aa(lp822
I141
ag631
aa(lp823
I142
ag641
aa(lp824
I143
ag662
aa(lp825
I144
ag633
aa(lp826
I145
ag766
aaaa(lp827
I147
aI149
aS'are'
p828
a(lp829
(lp830
I147
ag635
aa(lp831
I148
ag627
aa(lp832
I149
ag633
aaaa(lp833
I151
aI157
ag132
a(lp834
(lp835
I151
ag802
aa(lp836
I152
ag635
aa(lp837
I153
ag639
aa(lp838
I154
ag639
aa(lp839
I155
ag652
aa(lp840
I156
aS'v'
p841
aa(lp842
I157
ag633
aaaa(lp843
I159
aI171
ag141
a(lp844
(lp845
I159
ag641
aa(lp846
I160
ag662
aa(lp847
I161
ag633
aa(lp848
I162
ag627
aa(lp849
I163
ag802
aa(lp850
I164
ag623
aa(lp851
I165
ag631
aa(lp852
I166
ag625
aa(lp853
I167
ag667
aa(lp854
I168
ag658
aa(lp855
I169
ag633
aa(lp856
I170
ag635
aa(lp857
I171
ag627
aaaa(lp858
I173
aI182
ag150
a(lp859
(lp860
I173
ag633
aa(lp861
I174
aS'x'
p862
aa(lp863
I175
ag660
aa(lp864
I176
ag658
aa(lp865
I177
ag623
aa(lp866
I178
ag639
aa(lp867
I179
ag652
aa(lp868
I180
ag623
aa(lp869
I181
ag631
aa(lp870
I182
ag639
aaaa(lp871
I184
aI187
aS'just'
p872
a(lp873
(lp874
I184
aS'j'
p875
aa(lp876
I185
ag625
aa(lp877
I186
ag639
aa(lp878
I187
ag641
aaaa(lp879
I189
aI192
ag159
a(lp880
(lp881
I189
ag658
aa(lp882
I190
ag652
aa(lp883
I191
ag764
aa(lp884
I192
ag633
aaaa(lp885
I194
aI194
ag635
a(lp886
(lp887
I194
ag635
aaaa(lp888
I196
aI203
ag168
a(lp889
(lp890
I196
ag662
aa(lp891
I197
ag766
aa(lp892
I198
ag718
aa(lp893
I199
ag627
aa(lp894
I200
ag623
aa(lp895
I201
ag683
aa(lp896
I202
ag633
aa(lp897
I203
ag631
aaaa(lp898
I205
aI208
ag177
a(lp899
(lp900
I205
aS'b'
p901
aa(lp902
I206
ag623
aa(lp903
I207
ag802
aa(lp904
I208
ag901
aaaa(lp905
I211
aI213
aS'our'
p906
a(lp907
(lp908
I211
ag623
aa(lp909
I212
ag625
aa(lp910
I213
ag627
aaaa(lp911
I215
aI217
ag186
a(lp912
(lp913
I215
ag639
aa(lp914
I216
ag625
aa(lp915
I217
ag631
aaaa(lp916
I219
aI220
aS'is'
p917
a(lp918
(lp919
I219
ag652
aa(lp920
I220
ag639
aaaa(lp921
I222
aI226
aS'about'
p922
a(lp923
(lp924
I222
ag635
aa(lp925
I223
ag901
aa(lp926
I224
ag623
aa(lp927
I225
ag625
aa(lp928
I226
ag641
aaaa(lp929
I228
aI231
ag195
a(lp930
(lp931
I228
ag662
aa(lp932
I229
ag635
aa(lp933
I230
ag658
aa(lp934
I231
aS'f'
p935
aaaa(lp936
I233
aI235
ag204
a(lp937
(lp938
I233
ag678
aa(lp939
I234
ag635
aa(lp940
I235
ag766
aaaa(lp941
I237
aI243
aS'through'
p942
a(lp943
(lp944
I237
ag641
aa(lp945
I238
ag662
aa(lp946
I239
ag627
aa(lp947
I240
ag623
aa(lp948
I241
ag625
aa(lp949
I242
ag683
aa(lp950
I243
ag662
aaaa(lp951
I245
aI247
aS'its'
p952
a(lp953
(lp954
I245
ag652
aa(lp955
I246
ag641
aa(lp956
I247
ag639
aaaa(lp957
I249
aI256
ag213
a(lp958
(lp959
I249
ag658
aa(lp960
I250
ag652
aa(lp961
I251
ag935
aa(lp962
I252
ag633
aa(lp963
I253
ag641
aa(lp964
I254
ag652
aa(lp965
I255
ag802
aa(lp966
I256
ag633
aaaa(lp967
I258
aI260
aS'but'
p968
a(lp969
(lp970
I258
ag901
aa(lp971
I259
ag625
aa(lp972
I260
ag641
aaaa(lp973
I262
aI266
ag222
a(lp974
(lp975
I262
ag639
aa(lp976
I263
ag641
aa(lp977
I264
ag652
aa(lp978
I265
ag658
aa(lp979
I266
ag658
aaaa(lp980
I268
aI270
aS'has'
p981
a(lp982
(lp983
I268
ag662
aa(lp984
I269
ag635
aa(lp985
I270
ag639
aaaa(lp986
I272
aI277
ag231
a(lp987
(lp988
I272
ag633
aa(lp989
I273
ag631
aa(lp990
I274
ag623
aa(lp991
I275
ag625
aa(lp992
I276
ag683
aa(lp993
I277
ag662
aaaa(lp994
I279
aI285
ag240
a(lp995
(lp996
I279
ag631
aa(lp997
I280
ag625
aa(lp998
I281
ag667
aa(lp999
I282
ag658
aa(lp1000
I283
ag633
aa(lp1001
I284
ag635
aa(lp1002
I285
ag627
aaaa(lp1003
I287
aI290
ag249
a(lp1004
(lp1005
I287
ag935
aa(lp1006
I288
ag625
aa(lp1007
I289
ag633
aa(lp1008
I290
ag658
aaaa(lp1009
I292
aI293
aS'to'
p1010
a(lp1011
(lp1012
I292
ag641
aa(lp1013
I293
ag623
aaaa(lp1014
I295
aI298
ag258
a(lp1015
(lp1016
I295
ag764
aa(lp1017
I296
ag633
aa(lp1018
I297
ag633
aa(lp1019
I298
ag660
aaaa(lp1020
I300
aI302
aS'the'
p1021
a(lp1022
(lp1023
I300
ag641
aa(lp1024
I301
ag662
aa(lp1025
I302
ag633
aaaa(lp1026
I304
aI312
ag267
a(lp1027
(lp1028
I304
ag633
aa(lp1029
I305
ag862
aa(lp1030
I306
ag660
aa(lp1031
I307
ag658
aa(lp1032
I308
ag623
aa(lp1033
I309
ag639
aa(lp1034
I310
ag652
aa(lp1035
I311
ag623
aa(lp1036
I312
ag631
aaaa(lp1037
I314
aI318
ag276
a(lp1038
(lp1039
I314
ag683
aa(lp1040
I315
ag623
aa(lp1041
I316
ag652
aa(lp1042
I317
ag631
aa(lp1043
I318
ag683
aaaa(lp1044
I320
aI322
aS'for'
p1045
a(lp1046
(lp1047
I320
ag935
aa(lp1048
I321
ag623
aa(lp1049
I322
ag627
aaaa(lp1050
I324
aI328
aS'about'
p1051
a(lp1052
(lp1053
I324
ag635
aa(lp1054
I325
ag901
aa(lp1055
I326
ag623
aa(lp1056
I327
ag625
aa(lp1057
I328
ag641
aaaa(lp1058
I330
aI336
ag285
a(lp1059
(lp1060
I330
ag635
aa(lp1061
I331
ag631
aa(lp1062
I332
ag623
aa(lp1063
I333
ag641
aa(lp1064
I334
ag662
aa(lp1065
I335
ag633
aa(lp1066
I336
ag627
aaaa(lp1067
I338
aI345
ag294
a(lp1068
(lp1069
I338
ag641
aa(lp1070
I339
ag662
aa(lp1071
I340
ag623
aa(lp1072
I341
ag625
aa(lp1073
I342
ag639
aa(lp1074
I343
ag635
aa(lp1075
I344
ag631
aa(lp1076
I345
ag718
aaaa(lp1077
I347
aI353
ag303
a(lp1078
(lp1079
I347
ag802
aa(lp1080
I348
ag652
aa(lp1081
I349
ag658
aa(lp1082
I350
ag658
aa(lp1083
I351
ag652
aa(lp1084
I352
ag623
aa(lp1085
I353
ag631
aaaa(lp1086
I355
aI359
ag312
a(lp1087
(lp1088
I355
ag766
aa(lp1089
I356
ag633
aa(lp1090
I357
ag635
aa(lp1091
I358
ag627
aa(lp1092
I359
ag639
aaaa(lp1093
I362
aI363
aS'in'
p1094
a(lp1095
(lp1096
I362
ag652
aa(lp1097
I363
ag631
aaaa(lp1098
I365
aI368
ag321
a(lp1099
(lp1100
I365
ag935
aa(lp1101
I366
ag635
aa(lp1102
I367
ag667
aa(lp1103
I368
ag641
aaaa(lp1104
I370
aI372
aS'our'
p1105
a(lp1106
(lp1107
I370
ag623
aa(lp1108
I371
ag625
aa(lp1109
I372
ag627
aaaa(lp1110
I374
aI376
ag330
a(lp1111
(lp1112
I374
ag639
aa(lp1113
I375
ag625
aa(lp1114
I376
ag631
aaaa(lp1115
I378
aI379
aS'is'
p1116
a(lp1117
(lp1118
I378
ag652
aa(lp1119
I379
ag639
aaaa(lp1120
I381
aI381
ag635
a(lp1121
(lp1122
I381
ag635
aaaa(lp1123
I383
aI388
ag339
a(lp1124
(lp1125
I383
ag627
aa(lp1126
I384
ag635
aa(lp1127
I385
ag641
aa(lp1128
I386
ag662
aa(lp1129
I387
ag633
aa(lp1130
I388
ag627
aaaa(lp1131
I390
aI397
ag348
a(lp1132
(lp1133
I390
ag901
aa(lp1134
I391
ag623
aa(lp1135
I392
ag627
aa(lp1136
I393
ag652
aa(lp1137
I394
ag631
aa(lp1138
I395
ag683
aa(lp1139
I396
ag658
aa(lp1140
I397
ag766
aaaa(lp1141
I399
aI405
ag357
a(lp1142
(lp1143
I399
ag635
aa(lp1144
I400
ag841
aa(lp1145
I401
ag633
aa(lp1146
I402
ag627
aa(lp1147
I403
ag635
aa(lp1148
I404
ag683
aa(lp1149
I405
ag633
aaaa(lp1150
I407
aI417
ag366
a(lp1151
(lp1152
I407
ag639
aa(lp1153
I408
ag641
aa(lp1154
I409
ag635
aa(lp1155
I410
ag627
aa(lp1156
I413
ag641
aa(lp1157
I414
ag662
aa(lp1158
I415
ag633
aa(lp1159
I416
ag627
aa(lp1160
I417
ag633
aaaa(lp1161
I419
aI421
aS'are'
p1162
a(lp1163
(lp1164
I419
ag635
aa(lp1165
I420
ag627
aa(lp1166
I421
ag633
aaaa(lp1167
I423
aI426
ag375
a(lp1168
(lp1169
I423
ag658
aa(lp1170
I424
ag623
aa(lp1171
I425
ag641
aa(lp1172
I426
ag639
aaaa(lp1173
I428
aI431
ag384
a(lp1174
(lp1175
I428
ag802
aa(lp1176
I429
ag625
aa(lp1177
I430
ag667
aa(lp1178
I431
ag662
aaaa(lp1179
I433
aI438
ag393
a(lp1180
(lp1181
I433
ag901
aa(lp1182
I434
ag652
aa(lp1183
I435
ag683
aa(lp1184
I436
ag683
aa(lp1185
I437
ag633
aa(lp1186
I438
ag627
aaaa(lp1187
I441
aI442
aS'or'
p1188
a(lp1189
(lp1190
I441
ag623
aa(lp1191
I442
ag627
aaaa(lp1192
I444
aI450
ag402
a(lp1193
(lp1194
I444
ag639
aa(lp1195
I445
ag802
aa(lp1196
I446
ag635
aa(lp1197
I447
ag658
aa(lp1198
I448
ag658
aa(lp1199
I449
ag633
aa(lp1200
I450
ag627
aaaa(lp1201
I453
aI455
aS'and'
p1202
a(lp1203
(lp1204
I453
ag635
aa(lp1205
I454
ag631
aa(lp1206
I455
ag718
aaaa(lp1207
I457
aI460
ag411
a(lp1208
(lp1209
I457
ag658
aa(lp1210
I458
ag623
aa(lp1211
I459
ag641
aa(lp1212
I460
ag639
aaaa(lp1213
I462
aI465
ag420
a(lp1214
(lp1215
I462
ag802
aa(lp1216
I463
ag625
aa(lp1217
I464
ag667
aa(lp1218
I465
ag662
aaaa(lp1219
I467
aI472
ag429
a(lp1220
(lp1221
I467
ag662
aa(lp1222
I468
ag623
aa(lp1223
I469
ag641
aa(lp1224
I470
ag641
aa(lp1225
I471
ag633
aa(lp1226
I472
ag627
aaaa(lp1227
I475
aI476
aS'or'
p1228
a(lp1229
(lp1230
I475
ag623
aa(lp1231
I476
ag627
aaaa(lp1232
I478
aI483
ag438
a(lp1233
(lp1234
I478
ag667
aa(lp1235
I479
ag623
aa(lp1236
I480
ag623
aa(lp1237
I481
ag658
aa(lp1238
I482
ag633
aa(lp1239
I483
ag627
aaaa(lp1240
I486
aI489
aS'than'
p1241
a(lp1242
(lp1243
I486
ag641
aa(lp1244
I487
ag662
aa(lp1245
I488
ag635
aa(lp1246
I489
ag631
aaaa(lp1247
I491
aI493
aS'the'
p1248
a(lp1249
(lp1250
I491
ag641
aa(lp1251
I492
ag662
aa(lp1252
I493
ag633
aaaa(lp1253
I495
aI497
ag447
a(lp1254
(lp1255
I495
ag639
aa(lp1256
I496
ag625
aa(lp1257
I497
ag631
aaaa(lp1258
I500
aI502
aS'the'
p1259
a(lp1260
(lp1261
I500
ag641
aa(lp1262
I501
ag662
aa(lp1263
I502
ag633
aaaa(lp1264
I504
aI506
ag456
a(lp1265
(lp1266
I504
ag639
aa(lp1267
I505
ag625
aa(lp1268
I506
ag631
aaaa(lp1269
I508
aI511
aS'just'
p1270
a(lp1271
(lp1272
I508
ag875
aa(lp1273
I509
ag625
aa(lp1274
I510
ag639
aa(lp1275
I511
ag641
aaaa(lp1276
I513
aI519
ag465
a(lp1277
(lp1278
I513
ag662
aa(lp1279
I514
ag635
aa(lp1280
I515
ag660
aa(lp1281
I516
ag660
aa(lp1282
I517
ag633
aa(lp1283
I518
ag631
aa(lp1284
I519
ag639
aaaa(lp1285
I521
aI522
aS'to'
p1286
a(lp1287
(lp1288
I521
ag641
aa(lp1289
I522
ag623
aaaa(lp1290
I524
aI525
aS'be'
p1291
a(lp1292
(lp1293
I524
ag901
aa(lp1294
I525
ag633
aaaa(lp1295
I527
aI528
aS'so'
p1296
a(lp1297
(lp1298
I527
ag639
aa(lp1299
I528
ag623
aaaa(lp1300
I530
aI535
ag474
a(lp1301
(lp1302
I530
ag901
aa(lp1303
I531
ag627
aa(lp1304
I532
ag652
aa(lp1305
I533
ag683
aa(lp1306
I534
ag662
aa(lp1307
I535
ag641
aaaa(lp1308
I537
aI538
aS'to'
p1309
a(lp1310
(lp1311
I537
ag641
aa(lp1312
I538
ag623
aaaa(lp1313
I540
aI541
ag483
a(lp1314
(lp1315
I540
ag625
aa(lp1316
I541
ag639
aaaa(lp1317
I543
aI549
aS'because'
p1318
a(lp1319
(lp1320
I543
ag901
aa(lp1321
I544
ag633
aa(lp1322
I545
ag667
aa(lp1323
I546
ag635
aa(lp1324
I547
ag625
aa(lp1325
I548
ag639
aa(lp1326
I549
ag633
aaaa(lp1327
I551
aI552
aS'we'
p1328
a(lp1329
(lp1330
I551
ag678
aa(lp1331
I552
ag633
aaaa(lp1332
I554
aI556
aS'are'
p1333
a(lp1334
(lp1335
I554
ag635
aa(lp1336
I555
ag627
aa(lp1337
I556
ag633
aaaa(lp1338
I558
aI559
aS'so'
p1339
a(lp1340
(lp1341
I558
ag639
aa(lp1342
I559
ag623
aaaa(lp1343
I561
aI565
ag492
a(lp1344
(lp1345
I561
ag667
aa(lp1346
I562
ag658
aa(lp1347
I563
ag623
aa(lp1348
I564
ag639
aa(lp1349
I565
ag633
aaaa(lp1350
I567
aI568
aS'to'
p1351
a(lp1352
(lp1353
I567
ag641
aa(lp1354
I568
ag623
aaaa(lp1355
I570
aI571
aS'it'
p1356
a(lp1357
(lp1358
I570
ag652
aa(lp1359
I571
ag641
aaaa(lp1360
I574
aI575
aS'if'
p1361
a(lp1362
(lp1363
I574
ag652
aa(lp1364
I575
ag935
aaaa(lp1365
I577
aI579
aS'you'
p1366
a(lp1367
(lp1368
I577
ag766
aa(lp1369
I578
ag623
aa(lp1370
I579
ag625
aaaa(lp1371
I581
aI584
aS'were'
p1372
a(lp1373
(lp1374
I581
ag678
aa(lp1375
I582
ag633
aa(lp1376
I583
ag627
aa(lp1377
I584
ag633
aaaa(lp1378
I586
aI587
aS'on'
p1379
a(lp1380
(lp1381
I586
ag623
aa(lp1382
I587
ag631
aaaa(lp1383
I589
aI593
ag501
a(lp1384
(lp1385
I589
ag660
aa(lp1386
I590
ag658
aa(lp1387
I591
ag625
aa(lp1388
I592
ag641
aa(lp1389
I593
ag623
aaaa(lp1390
I595
aI596
aS'it'
p1391
a(lp1392
(lp1393
I595
ag652
aa(lp1394
I596
ag641
aaaa(lp1395
I598
aI602
ag510
a(lp1396
(lp1397
I598
ag678
aa(lp1398
I599
ag623
aa(lp1399
I600
ag625
aa(lp1400
I601
ag658
aa(lp1401
I602
ag718
aaaa(lp1402
I604
aI606
aS'not'
p1403
a(lp1404
(lp1405
I604
ag631
aa(lp1406
I605
ag623
aa(lp1407
I606
ag641
aaaa(lp1408
I608
aI611
ag519
a(lp1409
(lp1410
I608
ag639
aa(lp1411
I609
ag633
aa(lp1412
I610
ag633
aa(lp1413
I611
ag802
aaaa(lp1414
I613
aI616
ag528
a(lp1415
(lp1416
I613
ag802
aa(lp1417
I614
ag625
aa(lp1418
I615
ag667
aa(lp1419
I616
ag662
aaaa(lp1420
I618
aI623
ag537
a(lp1421
(lp1422
I618
ag901
aa(lp1423
I619
ag652
aa(lp1424
I620
ag683
aa(lp1425
I621
ag683
aa(lp1426
I622
ag633
aa(lp1427
I623
ag627
aaaa(lp1428
I625
aI628
aS'than'
p1429
a(lp1430
(lp1431
I625
ag641
aa(lp1432
I626
ag662
aa(lp1433
I627
ag635
aa(lp1434
I628
ag631
aaaa(lp1435
I630
aI632
aS'the'
p1436
a(lp1437
(lp1438
I630
ag641
aa(lp1439
I631
ag662
aa(lp1440
I632
ag633
aaaa(lp1441
I634
aI637
ag546
a(lp1442
(lp1443
I634
ag627
aa(lp1444
I635
ag633
aa(lp1445
I636
ag639
aa(lp1446
I637
ag641
aaaa(lp1447
I639
aI640
aS'of'
p1448
a(lp1449
(lp1450
I639
ag623
aa(lp1451
I640
ag935
aaaa(lp1452
I642
aI644
aS'the'
p1453
a(lp1454
(lp1455
I642
ag641
aa(lp1456
I643
ag662
aa(lp1457
I644
ag633
aaaa(lp1458
I646
aI650
ag555
a(lp1459
(lp1460
I646
ag639
aa(lp1461
I647
ag641
aa(lp1462
I648
ag635
aa(lp1463
I649
ag627
aa(lp1464
I650
ag639
aaaa(lp1465
I654
aI655
aS'it'
p1466
a(lp1467
(lp1468
I654
ag652
aa(lp1469
I655
ag641
aaaa(lp1470
I657
aI661
ag564
a(lp1471
(lp1472
I657
ag678
aa(lp1473
I658
ag623
aa(lp1474
I659
ag625
aa(lp1475
I660
ag658
aa(lp1476
I661
ag718
aaaa(lp1477
I663
aI669
ag573
a(lp1478
(lp1479
I663
ag662
aa(lp1480
I664
ag623
aa(lp1481
I665
ag678
aa(lp1482
I666
ag633
aa(lp1483
I667
ag841
aa(lp1484
I668
ag633
aa(lp1485
I669
ag627
aaaa(lp1486
I671
aI672
aS'be'
p1487
a(lp1488
(lp1489
I671
ag901
aa(lp1490
I672
ag633
aaaa(lp1491
I674
aI674
ag635
a(lp1492
(lp1493
I674
ag635
aaaa(lp1494
I676
aI678
ag582
a(lp1495
(lp1496
I676
ag658
aa(lp1497
I677
ag623
aa(lp1498
I678
ag641
aaaa(lp1499
I680
aI687
ag591
a(lp1500
(lp1501
I680
ag901
aa(lp1502
I681
ag627
aa(lp1503
I682
ag652
aa(lp1504
I683
ag683
aa(lp1505
I684
ag662
aa(lp1506
I685
ag641
aa(lp1507
I686
ag633
aa(lp1508
I687
ag627
aaaa(lp1509
I689
aI692
aS'than'
p1510
a(lp1511
(lp1512
I689
ag641
aa(lp1513
I690
ag662
aa(lp1514
I691
ag635
aa(lp1515
I692
ag631
aaaa(lp1516
I694
aI697
aS'them'
p1517
a(lp1518
(lp1519
I694
ag641
aa(lp1520
I695
ag662
aa(lp1521
I696
ag633
aa(lp1522
I697
ag802
aaaa(lp1523
I700
aI702
aS'but'
p1524
a(lp1525
(lp1526
I700
ag901
aa(lp1527
I701
ag625
aa(lp1528
I702
ag641
aaaa(lp1529
I704
aI706
aS'not'
p1530
a(lp1531
(lp1532
I704
ag631
aa(lp1533
I705
ag623
aa(lp1534
I706
ag641
aaaa(lp1535
I708
aI713
ag600
a(lp1536
(lp1537
I708
ag633
aa(lp1538
I709
ag631
aa(lp1539
I710
ag623
aa(lp1540
I711
ag625
aa(lp1541
I712
ag683
aa(lp1542
I713
ag662
aaaa(lp1543
I715
aI716
aS'to'
p1544
a(lp1545
(lp1546
I715
ag641
aa(lp1547
I716
ag623
aaaa(lp1548
I718
aI721
ag609
a(lp1549
(lp1550
I718
ag678
aa(lp1551
I719
ag635
aa(lp1552
I720
ag627
aa(lp1553
I721
ag802
aaaa(lp1554
I723
aI725
aS'you'
p1555
a(lp1556
(lp1557
I723
ag766
aa(lp1558
I724
ag623
aa(lp1559
I725
ag625
aaaa(lp1560
I723
aI725
aS'up'
p1561
a(lp1562
(lp1563
I727
ag625
aa(lp1564
I728
ag660
aaaasS'cleanCharacterMap'
p1565
(lp1566
g622
ag624
ag626
a(lp1567
I3
aS' '
p1568
aag630
ag632
ag634
ag636
ag637
ag638
ag640
a(lp1569
I11
ag1568
aag644
ag645
ag646
ag647
a(lp1570
I16
ag1568
aag651
ag653
a(lp1571
I19
ag1568
aag656
ag657
ag659
ag661
ag663
a(lp1572
I25
ag1568
aag666
ag668
ag669
ag670
ag671
ag672
ag673
ag674
a(lp1573
I34
ag1568
aag677
ag679
ag680
ag681
ag682
a(lp1574
I41
ag1568
aag687
ag688
ag689
a(lp1575
I45
ag1568
aag692
ag693
ag694
ag695
ag696
ag697
ag698
a(lp1576
I53
ag1568
aag701
ag702
ag703
ag704
a(lp1577
I58
ag1568
aag708
ag709
a(lp1578
I61
ag1568
aag712
ag713
ag714
ag715
ag716
ag717
a(lp1579
I68
ag1568
aag722
ag723
ag724
a(lp1580
I72
ag1568
aag727
ag728
ag729
a(lp1581
I77
ag1568
aag733
ag734
ag735
a(lp1582
I81
ag1568
aag739
ag740
ag741
a(lp1583
I85
ag1568
aag744
ag745
ag746
ag747
ag748
a(lp1584
I91
ag1568
aag752
ag753
a(lp1585
I94
ag1568
aag757
ag758
ag759
a(lp1586
I98
ag1568
aag762
ag763
ag765
a(lp1587
I102
ag1568
aag770
ag771
ag772
ag773
ag774
a(lp1588
I108
ag1568
aag778
ag779
a(lp1589
I111
ag1568
aag783
ag784
ag785
a(lp1590
I115
ag1568
aag788
ag789
ag790
a(lp1591
I119
ag1568
aag794
ag795
ag796
a(lp1592
I123
ag1568
aag799
ag800
ag801
ag803
ag804
ag805
ag806
a(lp1593
I131
ag1568
aag810
ag811
a(lp1594
I134
ag1568
aag815
ag816
ag817
a(lp1595
I138
ag1568
aag820
ag821
ag822
ag823
ag824
ag825
ag826
a(lp1596
I146
ag1568
aag830
ag831
ag832
a(lp1597
I150
ag1568
aag835
ag836
ag837
ag838
ag839
ag840
ag842
a(lp1598
I158
ag1568
aag845
ag846
ag847
ag848
ag849
ag850
ag851
ag852
ag853
ag854
ag855
ag856
ag857
a(lp1599
I172
ag1568
aag860
ag861
ag863
ag864
ag865
ag866
ag867
ag868
ag869
ag870
a(lp1600
I183
ag1568
aag874
ag876
ag877
ag878
a(lp1601
I188
ag1568
aag881
ag882
ag883
ag884
a(lp1602
I193
ag1568
aag887
a(lp1603
I195
ag1568
aag890
ag891
ag892
ag893
ag894
ag895
ag896
ag897
a(lp1604
I204
ag1568
aag900
ag902
ag903
ag904
a(lp1605
I210
ag1568
aag908
ag909
ag910
a(lp1606
I214
ag1568
aag913
ag914
ag915
a(lp1607
I218
ag1568
aag919
ag920
a(lp1608
I221
ag1568
aag924
ag925
ag926
ag927
ag928
a(lp1609
I227
ag1568
aag931
ag932
ag933
ag934
a(lp1610
I232
ag1568
aag938
ag939
ag940
a(lp1611
I236
ag1568
aag944
ag945
ag946
ag947
ag948
ag949
ag950
a(lp1612
I244
ag1568
aag954
ag955
ag956
a(lp1613
I248
ag1568
aag959
ag960
ag961
ag962
ag963
ag964
ag965
ag966
a(lp1614
I257
ag1568
aag970
ag971
ag972
a(lp1615
I261
ag1568
aag975
ag976
ag977
ag978
ag979
a(lp1616
I267
ag1568
aag983
ag984
ag985
a(lp1617
I271
ag1568
aag988
ag989
ag990
ag991
ag992
ag993
a(lp1618
I278
ag1568
aag996
ag997
ag998
ag999
ag1000
ag1001
ag1002
a(lp1619
I286
ag1568
aag1005
ag1006
ag1007
ag1008
a(lp1620
I291
ag1568
aag1012
ag1013
a(lp1621
I294
ag1568
aag1016
ag1017
ag1018
ag1019
a(lp1622
I299
ag1568
aag1023
ag1024
ag1025
a(lp1623
I303
ag1568
aag1028
ag1029
ag1030
ag1031
ag1032
ag1033
ag1034
ag1035
ag1036
a(lp1624
I313
ag1568
aag1039
ag1040
ag1041
ag1042
ag1043
a(lp1625
I319
ag1568
aag1047
ag1048
ag1049
a(lp1626
I323
ag1568
aag1053
ag1054
ag1055
ag1056
ag1057
a(lp1627
I329
ag1568
aag1060
ag1061
ag1062
ag1063
ag1064
ag1065
ag1066
a(lp1628
I337
ag1568
aag1069
ag1070
ag1071
ag1072
ag1073
ag1074
ag1075
ag1076
a(lp1629
I346
ag1568
aag1079
ag1080
ag1081
ag1082
ag1083
ag1084
ag1085
a(lp1630
I354
ag1568
aag1088
ag1089
ag1090
ag1091
ag1092
a(lp1631
I361
ag1568
aag1096
ag1097
a(lp1632
I364
ag1568
aag1100
ag1101
ag1102
ag1103
a(lp1633
I369
ag1568
aag1107
ag1108
ag1109
a(lp1634
I373
ag1568
aag1112
ag1113
ag1114
a(lp1635
I377
ag1568
aag1118
ag1119
a(lp1636
I380
ag1568
aag1122
a(lp1637
I382
ag1568
aag1125
ag1126
ag1127
ag1128
ag1129
ag1130
a(lp1638
I389
ag1568
aag1133
ag1134
ag1135
ag1136
ag1137
ag1138
ag1139
ag1140
a(lp1639
I398
ag1568
aag1143
ag1144
ag1145
ag1146
ag1147
ag1148
ag1149
a(lp1640
I406
ag1568
aag1152
ag1153
ag1154
ag1155
ag1156
ag1157
ag1158
ag1159
ag1160
a(lp1641
I418
ag1568
aag1164
ag1165
ag1166
a(lp1642
I422
ag1568
aag1169
ag1170
ag1171
ag1172
a(lp1643
I427
ag1568
aag1175
ag1176
ag1177
ag1178
a(lp1644
I432
ag1568
aag1181
ag1182
ag1183
ag1184
ag1185
ag1186
a(lp1645
I439
ag1568
aag1190
ag1191
a(lp1646
I443
ag1568
aag1194
ag1195
ag1196
ag1197
ag1198
ag1199
ag1200
a(lp1647
I452
ag1568
aag1204
ag1205
ag1206
a(lp1648
I456
ag1568
aag1209
ag1210
ag1211
ag1212
a(lp1649
I461
ag1568
aag1215
ag1216
ag1217
ag1218
a(lp1650
I466
ag1568
aag1221
ag1222
ag1223
ag1224
ag1225
ag1226
a(lp1651
I473
ag1568
aag1230
ag1231
a(lp1652
I477
ag1568
aag1234
ag1235
ag1236
ag1237
ag1238
ag1239
a(lp1653
I485
ag1568
aag1243
ag1244
ag1245
ag1246
a(lp1654
I490
ag1568
aag1250
ag1251
ag1252
a(lp1655
I494
ag1568
aag1255
ag1256
ag1257
a(lp1656
I499
ag1568
aag1261
ag1262
ag1263
a(lp1657
I503
ag1568
aag1266
ag1267
ag1268
a(lp1658
I507
ag1568
aag1272
ag1273
ag1274
ag1275
a(lp1659
I512
ag1568
aag1278
ag1279
ag1280
ag1281
ag1282
ag1283
ag1284
a(lp1660
I520
ag1568
aag1288
ag1289
a(lp1661
I523
ag1568
aag1293
ag1294
a(lp1662
I526
ag1568
aag1298
ag1299
a(lp1663
I529
ag1568
aag1302
ag1303
ag1304
ag1305
ag1306
ag1307
a(lp1664
I536
ag1568
aag1311
ag1312
a(lp1665
I539
ag1568
aag1315
ag1316
a(lp1666
I542
ag1568
aag1320
ag1321
ag1322
ag1323
ag1324
ag1325
ag1326
a(lp1667
I550
ag1568
aag1330
ag1331
a(lp1668
I553
ag1568
aag1335
ag1336
ag1337
a(lp1669
I557
ag1568
aag1341
ag1342
a(lp1670
I560
ag1568
aag1345
ag1346
ag1347
ag1348
ag1349
a(lp1671
I566
ag1568
aag1353
ag1354
a(lp1672
I569
ag1568
aag1358
ag1359
a(lp1673
I573
ag1568
aag1363
ag1364
a(lp1674
I576
ag1568
aag1368
ag1369
ag1370
a(lp1675
I580
ag1568
aag1374
ag1375
ag1376
ag1377
a(lp1676
I585
ag1568
aag1381
ag1382
a(lp1677
I588
ag1568
aag1385
ag1386
ag1387
ag1388
ag1389
a(lp1678
I594
ag1568
aag1393
ag1394
a(lp1679
I597
ag1568
aag1397
ag1398
ag1399
ag1400
ag1401
a(lp1680
I603
ag1568
aag1405
ag1406
ag1407
a(lp1681
I607
ag1568
aag1410
ag1411
ag1412
ag1413
a(lp1682
I612
ag1568
aag1416
ag1417
ag1418
ag1419
a(lp1683
I617
ag1568
aag1422
ag1423
ag1424
ag1425
ag1426
ag1427
a(lp1684
I624
ag1568
aag1431
ag1432
ag1433
ag1434
a(lp1685
I629
ag1568
aag1438
ag1439
ag1440
a(lp1686
I633
ag1568
aag1443
ag1444
ag1445
ag1446
a(lp1687
I638
ag1568
aag1450
ag1451
a(lp1688
I641
ag1568
aag1455
ag1456
ag1457
a(lp1689
I645
ag1568
aag1460
ag1461
ag1462
ag1463
ag1464
a(lp1690
I651
ag1568
aa(lp1691
I653
ag1568
aag1468
ag1469
a(lp1692
I656
ag1568
aag1472
ag1473
ag1474
ag1475
ag1476
a(lp1693
I662
ag1568
aag1479
ag1480
ag1481
ag1482
ag1483
ag1484
ag1485
a(lp1694
I670
ag1568
aag1489
ag1490
a(lp1695
I673
ag1568
aag1493
a(lp1696
I675
ag1568
aag1496
ag1497
ag1498
a(lp1697
I679
ag1568
aag1501
ag1502
ag1503
ag1504
ag1505
ag1506
ag1507
ag1508
a(lp1698
I688
ag1568
aag1512
ag1513
ag1514
ag1515
a(lp1699
I693
ag1568
aag1519
ag1520
ag1521
ag1522
a(lp1700
I698
ag1568
aag1526
ag1527
ag1528
a(lp1701
I703
ag1568
aag1532
ag1533
ag1534
a(lp1702
I707
ag1568
aag1537
ag1538
ag1539
ag1540
ag1541
ag1542
a(lp1703
I714
ag1568
aag1546
ag1547
a(lp1704
I717
ag1568
aag1550
ag1551
ag1552
ag1553
a(lp1705
I722
ag1568
aag1557
ag1558
ag1559
a(lp1706
I726
ag1568
aag1563
ag1564
asS'text'
p1707
S'our nearest star is alpha centauri wrong! our nearest star is called the sun. all the stars in the sky which we can see are similar to the sunthey are massive thermonuclear explosions just like a hydrogen bomb. our sun is about half way through its lifetime but still has enough nuclear fuel to keep the explosion going for about another thousand million years! in fact our sun is a rather boringly average star..there are lots much bigger (or smaller) and lots much hotter (or cooler) than the sun. the sun just happens to be so bright to us because we are so close to it. if you were on pluto it would not seem much bigger than the rest of the stars - it would however be a lot brighter than them (but not enough to warm you up!)'
p1708
sS'cleanWordMap'
p1709
(lp1710
g628
ag642
ag654
ag664
ag675
ag690
ag699
ag710
ag725
ag742
ag760
ag786
ag797
ag818
ag833
ag843
ag858
ag879
ag888
ag898
ag911
ag929
ag936
ag957
ag973
ag986
ag994
ag1003
ag1014
ag1026
ag1037
ag1058
ag1067
ag1077
ag1086
ag1098
ag1110
ag1123
ag1131
ag1141
ag1150
ag1167
ag1173
ag1179
ag1192
ag1207
ag1213
ag1219
ag1232
ag1253
ag1264
ag1276
ag1300
ag1313
ag1343
ag1383
ag1395
ag1408
ag1414
ag1420
ag1441
ag1458
ag1470
ag1477
ag1494
ag1499
ag1535
ag1548
asS'lines'
p1711
(lp1712
VOUR NEAREST STAR IS ALPHA CENTAURI\u000a
p1713
aVWRONG!\u000a
p1714
aVOur nearest star is called the Sun. All the stars in the sky which we can see are similar to the Sunthey are massive thermonuclear explosions just like a hydrogen bomb. Our Sun is about half way through its lifetime but still has enough nuclear fuel to keep the explosion going for about another thousand million years! In fact our Sun is a rather boringly average star..there are lots much bigger (or smaller) and lots much hotter (or cooler) than the Sun. The Sun just happens to be so bright to us because we are so close to it. If you were on Pluto it would not seem much bigger than the rest of the stars - it would however be a lot brighter than them (but not enough to warm you up!)
p1715
asS'docType'
p1716
S'src'
p1717
sS'newfmap'
p1718
(lp1719
g4
ag8
ag10
ag12
ag14
ag17
ag19
ag21
ag23
ag26
ag28
ag30
ag32
ag35
ag37
ag39
ag41
ag44
ag46
ag48
ag50
ag53
ag55
ag57
ag59
ag62
ag64
ag66
ag68
ag71
ag73
ag75
ag77
ag80
ag82
ag84
ag86
ag89
ag91
ag93
ag95
ag98
ag100
ag102
ag104
ag107
ag109
ag111
ag113
ag116
ag118
ag120
ag122
ag125
ag127
ag129
ag131
ag134
ag136
ag138
ag140
ag143
ag145
ag147
ag149
ag152
ag154
ag156
ag158
ag161
ag163
ag165
ag167
ag170
ag172
ag174
ag176
ag179
ag181
ag183
ag185
ag188
ag190
ag192
ag194
ag197
ag199
ag201
ag203
ag206
ag208
ag210
ag212
ag215
ag217
ag219
ag221
ag224
ag226
ag228
ag230
ag233
ag235
ag237
ag239
ag242
ag244
ag246
ag248
ag251
ag253
ag255
ag257
ag260
ag262
ag264
ag266
ag269
ag271
ag273
ag275
ag278
ag280
ag282
ag284
ag287
ag289
ag291
ag293
ag296
ag298
ag300
ag302
ag305
ag307
ag309
ag311
ag314
ag316
ag318
ag320
ag323
ag325
ag327
ag329
ag332
ag334
ag336
ag338
ag341
ag343
ag345
ag347
ag350
ag352
ag354
ag356
ag359
ag361
ag363
ag365
ag368
ag370
ag372
ag374
ag377
ag379
ag381
ag383
ag386
ag388
ag390
ag392
ag395
ag397
ag399
ag401
ag404
ag406
ag408
ag410
ag413
ag415
ag417
ag419
ag422
ag424
ag426
ag428
ag431
ag433
ag435
ag437
ag440
ag442
ag444
ag446
ag449
ag451
ag453
ag455
ag458
ag460
ag462
ag464
ag467
ag469
ag471
ag473
ag476
ag478
ag480
ag482
ag485
ag487
ag489
ag491
ag494
ag496
ag498
ag500
ag503
ag505
ag507
ag509
ag512
ag514
ag516
ag518
ag521
ag523
ag525
ag527
ag530
ag532
ag534
ag536
ag539
ag541
ag543
ag545
ag548
ag550
ag552
ag554
ag557
ag559
ag561
ag563
ag566
ag568
ag570
ag572
ag575
ag577
ag579
ag581
ag584
ag586
ag588
ag590
ag593
ag595
ag597
ag599
ag602
ag604
ag606
ag608
ag611
ag613
ag615
asS'featureMap'
p1720
(lp1721
(lp1722
I4
aI10
ag5
ag6
ag9
ag11
ag13
aa(lp1723
I12
aI15
ag15
ag16
ag18
ag20
ag22
aa(lp1724
I20
aI24
ag24
ag25
ag27
ag29
ag31
aa(lp1725
I26
aI33
ag33
ag34
ag36
ag38
ag40
aa(lp1726
I35
aI39
ag42
ag43
ag45
ag47
ag49
aa(lp1727
I46
aI52
ag51
ag52
ag54
ag56
ag58
aa(lp1728
I54
aI57
ag60
ag61
ag63
ag65
ag67
aa(lp1729
I62
aI67
ag69
ag70
ag72
ag74
ag76
aa(lp1730
I73
aI75
ag78
ag79
ag81
ag83
ag85
aa(lp1731
I86
aI90
ag87
ag88
ag90
ag92
ag94
aa(lp1732
I99
aI101
ag96
ag97
ag99
ag101
ag103
aa(lp1733
I116
aI118
ag105
ag106
ag108
ag110
ag112
aa(lp1734
I124
aI130
ag114
ag115
ag117
ag119
ag121
aa(lp1735
I139
aI145
ag123
ag124
ag126
ag128
ag130
aa(lp1736
I151
aI157
ag132
ag133
ag135
ag137
ag139
aa(lp1737
I159
aI171
ag141
ag142
ag144
ag146
ag148
aa(lp1738
I173
aI182
ag150
ag151
ag153
ag155
ag157
aa(lp1739
I189
aI192
ag159
ag160
ag162
ag164
ag166
aa(lp1740
I196
aI203
ag168
ag169
ag171
ag173
ag175
aa(lp1741
I205
aI208
ag177
ag178
ag180
ag182
ag184
aa(lp1742
I215
aI217
ag186
ag187
ag189
ag191
ag193
aa(lp1743
I228
aI231
ag195
ag196
ag198
ag200
ag202
aa(lp1744
I233
aI235
ag204
ag205
ag207
ag209
ag211
aa(lp1745
I249
aI256
ag213
ag214
ag216
ag218
ag220
aa(lp1746
I262
aI266
ag222
ag223
ag225
ag227
ag229
aa(lp1747
I272
aI277
ag231
ag232
ag234
ag236
ag238
aa(lp1748
I279
aI285
ag240
ag241
ag243
ag245
ag247
aa(lp1749
I287
aI290
ag249
ag250
ag252
ag254
ag256
aa(lp1750
I295
aI298
ag258
ag259
ag261
ag263
ag265
aa(lp1751
I304
aI312
ag267
ag268
ag270
ag272
ag274
aa(lp1752
I314
aI318
ag276
ag277
ag279
ag281
ag283
aa(lp1753
I330
aI336
ag285
ag286
ag288
ag290
ag292
aa(lp1754
I338
aI345
ag294
ag295
ag297
ag299
ag301
aa(lp1755
I347
aI353
ag303
ag304
ag306
ag308
ag310
aa(lp1756
I355
aI359
ag312
ag313
ag315
ag317
ag319
aa(lp1757
I365
aI368
ag321
ag322
ag324
ag326
ag328
aa(lp1758
I374
aI376
ag330
ag331
ag333
ag335
ag337
aa(lp1759
I383
aI388
ag339
ag340
ag342
ag344
ag346
aa(lp1760
I390
aI397
ag348
ag349
ag351
ag353
ag355
aa(lp1761
I399
aI405
ag357
ag358
ag360
ag362
ag364
aa(lp1762
I407
aI417
ag366
ag367
ag369
ag371
ag373
aa(lp1763
I423
aI426
ag375
ag376
ag378
ag380
ag382
aa(lp1764
I428
aI431
ag384
ag385
ag387
ag389
ag391
aa(lp1765
I433
aI438
ag393
ag394
ag396
ag398
ag400
aa(lp1766
I444
aI450
ag402
ag403
ag405
ag407
ag409
aa(lp1767
I457
aI460
ag411
ag412
ag414
ag416
ag418
aa(lp1768
I462
aI465
ag420
ag421
ag423
ag425
ag427
aa(lp1769
I467
aI472
ag429
ag430
ag432
ag434
ag436
aa(lp1770
I478
aI483
ag438
ag439
ag441
ag443
ag445
aa(lp1771
I495
aI497
ag447
ag448
ag450
ag452
ag454
aa(lp1772
I504
aI506
ag456
ag457
ag459
ag461
ag463
aa(lp1773
I513
aI519
ag465
ag466
ag468
ag470
ag472
aa(lp1774
I530
aI535
ag474
ag475
ag477
ag479
ag481
aa(lp1775
I540
aI541
ag483
ag484
ag486
ag488
ag490
aa(lp1776
I561
aI565
ag492
ag493
ag495
ag497
ag499
aa(lp1777
I589
aI593
ag501
ag502
ag504
ag506
ag508
aa(lp1778
I598
aI602
ag510
ag511
ag513
ag515
ag517
aa(lp1779
I608
aI611
ag519
ag520
ag522
ag524
ag526
aa(lp1780
I613
aI616
ag528
ag529
ag531
ag533
ag535
aa(lp1781
I618
aI623
ag537
ag538
ag540
ag542
ag544
aa(lp1782
I634
aI637
ag546
ag547
ag549
ag551
ag553
aa(lp1783
I646
aI650
ag555
ag556
ag558
ag560
ag562
aa(lp1784
I657
aI661
ag564
ag565
ag567
ag569
ag571
aa(lp1785
I663
aI669
ag573
ag574
ag576
ag578
ag580
aa(lp1786
I676
aI678
ag582
ag583
ag585
ag587
ag589
aa(lp1787
I680
aI687
ag591
ag592
ag594
ag596
ag598
aa(lp1788
I708
aI713
ag600
ag601
ag603
ag605
ag607
aa(lp1789
I718
aI721
ag609
ag610
ag612
ag614
ag616
aasS'characterMap'
p1790
(lp1791
g622
ag624
ag626
ag1567
ag630
ag632
ag634
ag636
ag637
ag638
ag640
ag1569
ag644
ag645
ag646
ag647
ag1570
ag651
ag653
ag1571
ag656
ag657
ag659
ag661
ag663
ag1572
ag666
ag668
ag669
ag670
ag671
ag672
ag673
ag674
ag1573
ag677
ag679
ag680
ag681
ag682
a(lp1792
I40
aS'!'
p1793
aag1574
ag687
ag688
ag689
ag1575
ag692
ag693
ag694
ag695
ag696
ag697
ag698
ag1576
ag701
ag702
ag703
ag704
ag1577
ag708
ag709
ag1578
ag712
ag713
ag714
ag715
ag716
ag717
ag1579
ag722
ag723
ag724
ag1580
ag727
ag728
ag729
a(lp1794
I76
aS'.'
p1795
aag1581
ag733
ag734
ag735
ag1582
ag739
ag740
ag741
ag1583
ag744
ag745
ag746
ag747
ag748
ag1584
ag752
ag753
ag1585
ag757
ag758
ag759
ag1586
ag762
ag763
ag765
ag1587
ag770
ag771
ag772
ag773
ag774
ag1588
ag778
ag779
ag1589
ag783
ag784
ag785
ag1590
ag788
ag789
ag790
ag1591
ag794
ag795
ag796
ag1592
ag799
ag800
ag801
ag803
ag804
ag805
ag806
ag1593
ag810
ag811
ag1594
ag815
ag816
ag817
ag1595
ag820
ag821
ag822
ag823
ag824
ag825
ag826
ag1596
ag830
ag831
ag832
ag1597
ag835
ag836
ag837
ag838
ag839
ag840
ag842
ag1598
ag845
ag846
ag847
ag848
ag849
ag850
ag851
ag852
ag853
ag854
ag855
ag856
ag857
ag1599
ag860
ag861
ag863
ag864
ag865
ag866
ag867
ag868
ag869
ag870
ag1600
ag874
ag876
ag877
ag878
ag1601
ag881
ag882
ag883
ag884
ag1602
ag887
ag1603
ag890
ag891
ag892
ag893
ag894
ag895
ag896
ag897
ag1604
ag900
ag902
ag903
ag904
a(lp1796
I209
ag1795
aag1605
ag908
ag909
ag910
ag1606
ag913
ag914
ag915
ag1607
ag919
ag920
ag1608
ag924
ag925
ag926
ag927
ag928
ag1609
ag931
ag932
ag933
ag934
ag1610
ag938
ag939
ag940
ag1611
ag944
ag945
ag946
ag947
ag948
ag949
ag950
ag1612
ag954
ag955
ag956
ag1613
ag959
ag960
ag961
ag962
ag963
ag964
ag965
ag966
ag1614
ag970
ag971
ag972
ag1615
ag975
ag976
ag977
ag978
ag979
ag1616
ag983
ag984
ag985
ag1617
ag988
ag989
ag990
ag991
ag992
ag993
ag1618
ag996
ag997
ag998
ag999
ag1000
ag1001
ag1002
ag1619
ag1005
ag1006
ag1007
ag1008
ag1620
ag1012
ag1013
ag1621
ag1016
ag1017
ag1018
ag1019
ag1622
ag1023
ag1024
ag1025
ag1623
ag1028
ag1029
ag1030
ag1031
ag1032
ag1033
ag1034
ag1035
ag1036
ag1624
ag1039
ag1040
ag1041
ag1042
ag1043
ag1625
ag1047
ag1048
ag1049
ag1626
ag1053
ag1054
ag1055
ag1056
ag1057
ag1627
ag1060
ag1061
ag1062
ag1063
ag1064
ag1065
ag1066
ag1628
ag1069
ag1070
ag1071
ag1072
ag1073
ag1074
ag1075
ag1076
ag1629
ag1079
ag1080
ag1081
ag1082
ag1083
ag1084
ag1085
ag1630
ag1088
ag1089
ag1090
ag1091
ag1092
a(lp1797
I360
ag1793
aag1631
ag1096
ag1097
ag1632
ag1100
ag1101
ag1102
ag1103
ag1633
ag1107
ag1108
ag1109
ag1634
ag1112
ag1113
ag1114
ag1635
ag1118
ag1119
ag1636
ag1122
ag1637
ag1125
ag1126
ag1127
ag1128
ag1129
ag1130
ag1638
ag1133
ag1134
ag1135
ag1136
ag1137
ag1138
ag1139
ag1140
ag1639
ag1143
ag1144
ag1145
ag1146
ag1147
ag1148
ag1149
ag1640
ag1152
ag1153
ag1154
ag1155
a(lp1798
I411
ag1795
aa(lp1799
I412
ag1795
aag1156
ag1157
ag1158
ag1159
ag1160
ag1641
ag1164
ag1165
ag1166
ag1642
ag1169
ag1170
ag1171
ag1172
ag1643
ag1175
ag1176
ag1177
ag1178
ag1644
ag1181
ag1182
ag1183
ag1184
ag1185
ag1186
ag1645
a(lp1800
I440
aS'('
p1801
aag1190
ag1191
ag1646
ag1194
ag1195
ag1196
ag1197
ag1198
ag1199
ag1200
a(lp1802
I451
aS')'
p1803
aag1647
ag1204
ag1205
ag1206
ag1648
ag1209
ag1210
ag1211
ag1212
ag1649
ag1215
ag1216
ag1217
ag1218
ag1650
ag1221
ag1222
ag1223
ag1224
ag1225
ag1226
ag1651
a(lp1804
I474
ag1801
aag1230
ag1231
ag1652
ag1234
ag1235
ag1236
ag1237
ag1238
ag1239
a(lp1805
I484
ag1803
aag1653
ag1243
ag1244
ag1245
ag1246
ag1654
ag1250
ag1251
ag1252
ag1655
ag1255
ag1256
ag1257
a(lp1806
I498
ag1795
aag1656
ag1261
ag1262
ag1263
ag1657
ag1266
ag1267
ag1268
ag1658
ag1272
ag1273
ag1274
ag1275
ag1659
ag1278
ag1279
ag1280
ag1281
ag1282
ag1283
ag1284
ag1660
ag1288
ag1289
ag1661
ag1293
ag1294
ag1662
ag1298
ag1299
ag1663
ag1302
ag1303
ag1304
ag1305
ag1306
ag1307
ag1664
ag1311
ag1312
ag1665
ag1315
ag1316
ag1666
ag1320
ag1321
ag1322
ag1323
ag1324
ag1325
ag1326
ag1667
ag1330
ag1331
ag1668
ag1335
ag1336
ag1337
ag1669
ag1341
ag1342
ag1670
ag1345
ag1346
ag1347
ag1348
ag1349
ag1671
ag1353
ag1354
ag1672
ag1358
ag1359
a(lp1807
I572
ag1795
aag1673
ag1363
ag1364
ag1674
ag1368
ag1369
ag1370
ag1675
ag1374
ag1375
ag1376
ag1377
ag1676
ag1381
ag1382
ag1677
ag1385
ag1386
ag1387
ag1388
ag1389
ag1678
ag1393
ag1394
ag1679
ag1397
ag1398
ag1399
ag1400
ag1401
ag1680
ag1405
ag1406
ag1407
ag1681
ag1410
ag1411
ag1412
ag1413
ag1682
ag1416
ag1417
ag1418
ag1419
ag1683
ag1422
ag1423
ag1424
ag1425
ag1426
ag1427
ag1684
ag1431
ag1432
ag1433
ag1434
ag1685
ag1438
ag1439
ag1440
ag1686
ag1443
ag1444
ag1445
ag1446
ag1687
ag1450
ag1451
ag1688
ag1455
ag1456
ag1457
ag1689
ag1460
ag1461
ag1462
ag1463
ag1464
ag1690
a(lp1808
I652
aS'-'
p1809
aag1691
ag1468
ag1469
ag1692
ag1472
ag1473
ag1474
ag1475
ag1476
ag1693
ag1479
ag1480
ag1481
ag1482
ag1483
ag1484
ag1485
ag1694
ag1489
ag1490
ag1695
ag1493
ag1696
ag1496
ag1497
ag1498
ag1697
ag1501
ag1502
ag1503
ag1504
ag1505
ag1506
ag1507
ag1508
ag1698
ag1512
ag1513
ag1514
ag1515
ag1699
ag1519
ag1520
ag1521
ag1522
ag1700
a(lp1810
I699
ag1801
aag1526
ag1527
ag1528
ag1701
ag1532
ag1533
ag1534
ag1702
ag1537
ag1538
ag1539
ag1540
ag1541
ag1542
ag1703
ag1546
ag1547
ag1704
ag1550
ag1551
ag1552
ag1553
ag1705
ag1557
ag1558
ag1559
ag1706
ag1563
ag1564
a(lp1811
I729
ag1793
aa(lp1812
I730
ag1803
aasS'docName'
p1813
S'source-document00573.txt'
p1814
sb.