(iModel.Document
Document
p0
(dp1
S'fmap'
p2
(lp3
sS'wordMap'
p4
(lp5
sS'cleanCharacterMap'
p6
(lp7
(lp8
I4
aS' '
p9
aa(lp10
I5
aS'b'
p11
aa(lp12
I6
aS'e'
p13
aa(lp14
I7
aS'g'
p15
aa(lp16
I8
aS'i'
p17
aa(lp18
I9
aS'n'
p19
aa(lp20
I10
ag9
aa(lp21
I11
aS'm'
p22
aa(lp23
I12
ag13
aa(lp24
I13
aS't'
p25
aa(lp26
I14
aS'a'
p27
aa(lp28
I15
ag9
aa(lp29
I16
ag25
aa(lp30
I17
ag27
aa(lp31
I18
ag15
aa(lp32
I19
aS's'
p33
aa(lp34
I20
ag9
aa(lp35
I21
ag15
aa(lp36
I22
ag13
aa(lp37
I23
ag19
aa(lp38
I24
ag13
aa(lp39
I25
aS'r'
p40
aa(lp41
I26
ag27
aa(lp42
I27
ag25
aa(lp43
I28
ag13
aa(lp44
I29
aS'd'
p45
aa(lp46
I30
ag9
aa(lp47
I31
ag11
aa(lp48
I32
aS'y'
p49
aa(lp50
I33
ag9
aa(lp51
I34
aS'o'
p52
aa(lp53
I35
ag40
aa(lp54
I36
ag11
aa(lp55
I37
aS'l'
p56
aa(lp57
I38
ag52
aa(lp58
I39
ag15
aa(lp59
I40
ag33
aa(lp60
I41
ag9
aa(lp61
I45
ag9
aa(lp62
I48
ag22
aa(lp63
I49
ag13
aa(lp64
I50
ag25
aa(lp65
I51
ag27
aa(lp66
I52
ag9
aa(lp67
I53
ag19
aa(lp68
I54
ag27
aa(lp69
I55
ag22
aa(lp70
I56
ag13
aa(lp71
I59
aS'k'
p72
aa(lp73
I60
ag13
aa(lp74
I61
ag49
aa(lp75
I62
aS'w'
p76
aa(lp77
I63
ag52
aa(lp78
I64
ag40
aa(lp79
I65
ag45
aa(lp80
I66
ag33
aa(lp81
I68
ag9
aa(lp82
I69
aS'c'
p83
aa(lp84
I70
ag52
aa(lp85
I71
ag19
aa(lp86
I72
ag25
aa(lp87
I73
ag13
aa(lp88
I74
ag19
aa(lp89
I75
ag25
aa(lp90
I78
aS'p'
p91
aa(lp92
I79
ag40
aa(lp93
I80
ag52
aa(lp94
I81
ag15
aa(lp95
I82
ag40
aa(lp96
I83
ag13
aa(lp97
I84
ag33
aa(lp98
I85
ag33
aa(lp99
I86
ag17
aa(lp100
I87
aS'v'
p101
aa(lp102
I88
ag13
aa(lp103
I90
ag9
aa(lp104
I91
ag56
aa(lp105
I92
ag17
aa(lp106
I93
ag11
aa(lp107
I94
ag13
aa(lp108
I95
ag40
aa(lp109
I96
ag27
aa(lp110
I97
ag56
aa(lp111
I99
ag9
aa(lp112
I100
ag91
aa(lp113
I101
ag52
aa(lp114
I102
ag56
aa(lp115
I103
ag17
aa(lp116
I104
ag25
aa(lp117
I105
ag17
aa(lp118
I106
ag83
aa(lp119
I107
ag33
aa(lp120
I109
ag9
aa(lp121
I110
ag15
aa(lp122
I111
ag52
aa(lp123
I112
ag101
aa(lp124
I113
ag13
aa(lp125
I114
ag40
aa(lp126
I115
ag19
aa(lp127
I116
ag22
aa(lp128
I117
ag13
aa(lp129
I118
ag19
aa(lp130
I119
ag25
aa(lp131
I121
ag9
aa(lp132
I122
ag13
aa(lp133
I123
ag45
aa(lp134
I124
ag17
aa(lp135
I125
ag25
aa(lp136
I127
ag9
aa(lp137
I128
ag56
aa(lp138
I129
ag27
aa(lp139
I130
ag19
aa(lp140
I131
ag15
aa(lp141
I132
aS'u'
p142
aa(lp143
I133
ag27
aa(lp144
I134
ag15
aa(lp145
I135
ag13
aa(lp146
I137
ag9
aa(lp147
I138
ag15
aa(lp148
I139
ag40
aa(lp149
I140
ag27
aa(lp150
I141
ag22
aa(lp151
I142
ag22
aa(lp152
I143
ag27
aa(lp153
I144
ag40
aa(lp154
I146
ag9
aa(lp155
I147
ag27
aa(lp156
I148
ag83
aa(lp157
I149
ag83
aa(lp158
I150
ag142
aa(lp159
I151
ag40
aa(lp160
I152
ag27
aa(lp161
I153
ag83
aa(lp162
I154
ag49
aa(lp163
I156
ag9
aa(lp164
I157
aS'h'
p165
aa(lp166
I158
ag52
aa(lp167
I159
ag19
aa(lp168
I160
ag13
aa(lp169
I161
ag33
aa(lp170
I162
ag25
aa(lp171
I163
ag49
aa(lp172
I165
ag9
aa(lp173
I166
ag83
aa(lp174
I167
ag56
aa(lp175
I168
ag27
aa(lp176
I169
ag40
aa(lp177
I170
ag17
aa(lp178
I171
ag25
aa(lp179
I172
ag49
aa(lp180
I174
ag9
aa(lp181
I175
ag76
aa(lp182
I176
ag52
aa(lp183
I177
ag40
aa(lp184
I178
ag56
aa(lp185
I179
ag45
aa(lp186
I181
ag9
aa(lp187
I182
ag19
aa(lp188
I183
ag13
aa(lp189
I184
ag76
aa(lp190
I185
ag33
aa(lp191
I187
ag9
aa(lp192
I188
ag22
aa(lp193
I189
ag13
aa(lp194
I190
ag45
aa(lp195
I191
ag17
aa(lp196
I192
ag27
aa(lp197
I194
ag9
aa(lp198
I197
ag9
aa(lp199
I201
ag9
aa(lp200
I206
ag9
aa(lp201
I207
ag13
aa(lp202
I208
ag19
aa(lp203
I209
ag45
aa(lp204
I210
ag9
aa(lp205
I211
ag22
aa(lp206
I212
ag13
aa(lp207
I213
ag25
aa(lp208
I214
ag27
aa(lp209
I215
ag9
aa(lp210
I216
ag25
aa(lp211
I217
ag27
aa(lp212
I218
ag15
aa(lp213
I219
ag33
aa(lp214
I220
ag9
aa(lp215
I221
ag15
aa(lp216
I222
ag13
aa(lp217
I223
ag19
aa(lp218
I224
ag13
aa(lp219
I225
ag40
aa(lp220
I226
ag27
aa(lp221
I227
ag25
aa(lp222
I228
ag13
aa(lp223
I229
ag45
aa(lp224
I230
ag9
aa(lp225
I231
ag11
aa(lp226
I232
ag49
aa(lp227
I233
ag9
aa(lp228
I234
ag52
aa(lp229
I235
ag40
aa(lp230
I236
ag11
aa(lp231
I237
ag56
aa(lp232
I238
ag52
aa(lp233
I239
ag15
aa(lp234
I240
ag33
aa(lp235
I241
ag9
aa(lp236
I246
ag9
aa(lp237
I247
ag13
aa(lp238
I248
ag45
aa(lp239
I249
ag17
aa(lp240
I250
ag25
aa(lp241
I251
ag52
aa(lp242
I252
ag40
aa(lp243
I253
ag9
aa(lp244
I254
ag27
aa(lp245
I255
ag25
aa(lp246
I256
ag9
aa(lp247
I257
ag56
aa(lp248
I258
ag27
aa(lp249
I259
ag40
aa(lp250
I260
ag15
aa(lp251
I261
ag13
aa(lp252
I263
ag9
aa(lp253
I264
ag40
aa(lp254
I265
ag17
aa(lp255
I266
ag83
aa(lp256
I267
ag72
aa(lp257
I268
ag9
aa(lp258
I269
ag76
aa(lp259
I270
ag27
aa(lp260
I271
ag40
aa(lp261
I272
ag40
aa(lp262
I273
ag13
aa(lp263
I274
ag19
aa(lp264
I275
ag9
aa(lp265
I276
ag25
aa(lp266
I277
ag27
aa(lp267
I278
ag72
aa(lp268
I279
ag13
aa(lp269
I280
ag33
aa(lp270
I281
ag9
aa(lp271
I282
ag27
aa(lp272
I283
ag19
aa(lp273
I284
ag52
aa(lp274
I285
ag25
aa(lp275
I286
ag165
aa(lp276
I287
ag13
aa(lp277
I288
ag40
aa(lp278
I289
ag9
aa(lp279
I290
ag11
aa(lp280
I291
ag27
aa(lp281
I292
ag11
aa(lp282
I293
ag49
aa(lp283
I294
ag9
aa(lp284
I295
ag33
aa(lp285
I296
ag25
aa(lp286
I297
ag13
aa(lp287
I298
ag91
aa(lp288
I299
ag9
aa(lp289
I300
ag45
aa(lp290
I301
ag52
aa(lp291
I302
ag19
aa(lp292
I304
ag25
aa(lp293
I305
ag9
aa(lp294
I306
ag11
aa(lp295
I307
ag13
aa(lp296
I308
ag56
aa(lp297
I309
ag17
aa(lp298
I310
ag13
aa(lp299
I311
ag101
aa(lp300
I312
ag13
aa(lp301
I313
ag9
aa(lp302
I314
ag27
aa(lp303
I315
ag19
aa(lp304
I316
ag49
aa(lp305
I317
ag25
aa(lp306
I318
ag165
aa(lp307
I319
ag17
aa(lp308
I320
ag19
aa(lp309
I321
ag15
aa(lp310
I322
ag9
aa(lp311
I323
ag49
aa(lp312
I324
ag52
aa(lp313
I325
ag142
aa(lp314
I326
ag9
aa(lp315
I327
ag40
aa(lp316
I328
ag13
aa(lp317
I329
ag27
aa(lp318
I330
ag45
aa(lp319
I332
ag9
aa(lp320
I333
ag13
aa(lp321
I334
aS'x'
p322
aa(lp323
I335
ag83
aa(lp324
I336
ag13
aa(lp325
I337
ag91
aa(lp326
I338
ag25
aa(lp327
I339
ag9
aa(lp328
I340
aS'f'
p329
aa(lp330
I341
ag52
aa(lp331
I342
ag40
aa(lp332
I343
ag9
aa(lp333
I344
ag25
aa(lp334
I345
ag165
aa(lp335
I346
ag17
aa(lp336
I347
ag33
aa(lp337
I348
ag9
aa(lp338
I349
ag11
aa(lp339
I350
ag56
aa(lp340
I351
ag52
aa(lp341
I352
ag15
aa(lp342
I354
ag9
aa(lp343
I355
ag25
aa(lp344
I356
ag142
aa(lp345
I357
ag13
aa(lp346
I358
ag33
aa(lp347
I359
ag45
aa(lp348
I360
ag27
aa(lp349
I361
ag49
aa(lp350
I363
ag9
aa(lp351
I364
ag45
aa(lp352
I365
ag13
aa(lp353
I366
ag83
aa(lp354
I367
ag13
aa(lp355
I368
ag22
aa(lp356
I369
ag11
aa(lp357
I370
ag13
aa(lp358
I371
ag40
aa(lp359
I372
ag9
aa(lp360
I373
aS'2'
p361
aa(lp362
I374
aS'3'
p363
aa(lp364
I376
ag9
aa(lp365
I377
ag361
aa(lp366
I378
aS'0'
p367
aa(lp368
I379
ag367
aa(lp369
I380
aS'8'
p370
aa(lp371
I381
ag9
aa(lp372
I382
ag40
aa(lp373
I383
ag17
aa(lp374
I384
ag83
aa(lp375
I385
ag72
aa(lp376
I386
ag9
aa(lp377
I387
ag76
aa(lp378
I388
ag27
aa(lp379
I389
ag40
aa(lp380
I390
ag40
aa(lp381
I391
ag13
aa(lp382
I392
ag19
aa(lp383
I393
ag9
aa(lp384
I394
ag25
aa(lp385
I395
ag27
aa(lp386
I396
ag72
aa(lp387
I397
ag13
aa(lp388
I398
ag33
aa(lp389
I399
ag9
aa(lp390
I400
ag27
aa(lp391
I401
ag19
aa(lp392
I402
ag52
aa(lp393
I403
ag25
aa(lp394
I404
ag165
aa(lp395
I405
ag13
aa(lp396
I406
ag40
aa(lp397
I407
ag9
aa(lp398
I408
ag11
aa(lp399
I409
ag27
aa(lp400
I410
ag11
aa(lp401
I411
ag49
aa(lp402
I412
ag9
aa(lp403
I413
ag33
aa(lp404
I414
ag25
aa(lp405
I415
ag13
aa(lp406
I416
ag91
aa(lp407
I417
ag9
aa(lp408
I418
ag142
aa(lp409
I419
ag19
aa(lp410
I420
ag25
aa(lp411
I421
ag17
aa(lp412
I422
ag56
aa(lp413
I423
ag9
aa(lp414
I424
ag49
aa(lp415
I425
ag13
aa(lp416
I426
ag33
aa(lp417
I427
ag25
aa(lp418
I428
ag13
aa(lp419
I429
ag40
aa(lp420
I430
ag45
aa(lp421
I431
ag27
aa(lp422
I432
ag49
aa(lp423
I434
ag9
aa(lp424
I435
ag25
aa(lp425
I436
ag165
aa(lp426
I437
ag13
aa(lp427
I438
ag9
aa(lp428
I439
ag76
aa(lp429
I440
ag13
aa(lp430
I441
ag11
aa(lp431
I442
ag9
aa(lp432
I443
ag33
aa(lp433
I444
ag17
aa(lp434
I445
ag25
aa(lp435
I446
ag13
aa(lp436
I447
ag9
aa(lp437
I448
ag329
aa(lp438
I449
ag52
aa(lp439
I450
ag40
aa(lp440
I451
ag9
aa(lp441
I452
ag25
aa(lp442
I453
ag165
aa(lp443
I454
ag13
aa(lp444
I455
ag9
aa(lp445
I456
ag40
aa(lp446
I457
ag13
aa(lp447
I458
ag101
aa(lp448
I460
ag9
aa(lp449
I461
ag40
aa(lp450
I462
ag17
aa(lp451
I463
ag83
aa(lp452
I464
ag72
aa(lp453
I465
ag9
aa(lp454
I466
ag76
aa(lp455
I467
ag27
aa(lp456
I468
ag40
aa(lp457
I469
ag40
aa(lp458
I470
ag13
aa(lp459
I471
ag19
aa(lp460
I473
ag33
aa(lp461
I474
ag9
aa(lp462
I475
ag33
aa(lp463
I476
ag27
aa(lp464
I477
ag45
aa(lp465
I478
ag45
aa(lp466
I479
ag56
aa(lp467
I480
ag13
aa(lp468
I481
ag11
aa(lp469
I482
ag27
aa(lp470
I483
ag83
aa(lp471
I484
ag72
aa(lp472
I485
ag9
aa(lp473
I486
ag83
aa(lp474
I487
ag165
aa(lp475
I488
ag142
aa(lp476
I489
ag40
aa(lp477
I490
ag83
aa(lp478
I491
ag165
aa(lp479
I492
ag9
aa(lp480
I493
ag33
aa(lp481
I494
ag25
aa(lp482
I495
ag27
aa(lp483
I496
ag25
aa(lp484
I497
ag13
aa(lp485
I498
ag45
aa(lp486
I499
ag9
aa(lp487
I500
ag25
aa(lp488
I501
ag165
aa(lp489
I502
ag27
aa(lp490
I503
ag25
aa(lp491
I504
ag9
aa(lp492
I506
ag33
aa(lp493
I507
ag52
aa(lp494
I508
ag22
aa(lp495
I509
ag13
aa(lp496
I510
ag52
aa(lp497
I511
ag19
aa(lp498
I512
ag13
aa(lp499
I513
ag9
aa(lp500
I514
ag142
aa(lp501
I515
ag19
aa(lp502
I516
ag76
aa(lp503
I517
ag17
aa(lp504
I518
ag56
aa(lp505
I519
ag56
aa(lp506
I520
ag17
aa(lp507
I521
ag19
aa(lp508
I522
ag15
aa(lp509
I523
ag9
aa(lp510
I524
ag25
aa(lp511
I525
ag52
aa(lp512
I526
ag9
aa(lp513
I527
ag40
aa(lp514
I528
ag13
aa(lp515
I529
ag91
aa(lp516
I530
ag13
aa(lp517
I531
ag19
aa(lp518
I532
ag25
aa(lp519
I533
ag9
aa(lp520
I534
ag329
aa(lp521
I535
ag52
aa(lp522
I536
ag40
aa(lp523
I537
ag9
aa(lp524
I538
ag25
aa(lp525
I539
ag165
aa(lp526
I540
ag13
aa(lp527
I541
ag17
aa(lp528
I542
ag40
aa(lp529
I543
ag9
aa(lp530
I544
ag165
aa(lp531
I545
ag52
aa(lp532
I546
ag22
aa(lp533
I547
ag52
aa(lp534
I548
ag33
aa(lp535
I549
ag13
aa(lp536
I550
ag322
aa(lp537
I551
ag142
aa(lp538
I552
ag27
aa(lp539
I553
ag56
aa(lp540
I554
ag9
aa(lp541
I555
ag56
aa(lp542
I556
ag17
aa(lp543
I557
ag329
aa(lp544
I558
ag13
aa(lp545
I559
ag33
aa(lp546
I560
ag25
aa(lp547
I561
ag49
aa(lp548
I562
ag56
aa(lp549
I563
ag13
aa(lp550
I564
ag9
aa(lp551
I565
ag76
aa(lp552
I566
ag52
aa(lp553
I567
ag142
aa(lp554
I568
ag56
aa(lp555
I569
ag45
aa(lp556
I570
ag9
aa(lp557
I571
ag19
aa(lp558
I572
ag52
aa(lp559
I573
ag25
aa(lp560
I574
ag9
aa(lp561
I575
ag11
aa(lp562
I576
ag13
aa(lp563
I577
ag9
aa(lp564
I578
ag27
aa(lp565
I579
ag83
aa(lp566
I580
ag83
aa(lp567
I581
ag13
aa(lp568
I582
ag91
aa(lp569
I583
ag25
aa(lp570
I584
ag13
aa(lp571
I585
ag45
aa(lp572
I586
ag9
aa(lp573
I587
ag27
aa(lp574
I588
ag33
aa(lp575
I589
ag9
aa(lp576
I590
ag27
aa(lp577
I591
ag9
aa(lp578
I592
ag22
aa(lp579
I593
ag13
aa(lp580
I594
ag22
aa(lp581
I595
ag11
aa(lp582
I596
ag13
aa(lp583
I597
ag40
aa(lp584
I598
ag9
aa(lp585
I599
ag27
aa(lp586
I600
ag25
aa(lp587
I601
ag9
aa(lp588
I602
ag33
aa(lp589
I603
ag27
aa(lp590
I604
ag45
aa(lp591
I605
ag45
aa(lp592
I606
ag56
aa(lp593
I607
ag13
aa(lp594
I608
ag11
aa(lp595
I609
ag27
aa(lp596
I610
ag83
aa(lp597
I611
ag72
aa(lp598
I613
ag9
aa(lp599
I615
ag33
aa(lp600
I616
ag13
aa(lp601
I617
ag13
aa(lp602
I618
ag9
aa(lp603
I619
ag33
aa(lp604
I620
ag83
aa(lp605
I621
ag40
aa(lp606
I622
ag13
aa(lp607
I623
ag13
aa(lp608
I624
ag19
aa(lp609
I625
ag33
aa(lp610
I626
ag165
aa(lp611
I627
ag52
aa(lp612
I628
ag25
aa(lp613
I629
ag9
aa(lp614
I630
ag11
aa(lp615
I631
ag13
aa(lp616
I632
ag56
aa(lp617
I633
ag52
aa(lp618
I634
ag76
aa(lp619
I637
ag9
aa(lp620
I638
ag19
aa(lp621
I639
ag52
aa(lp622
I640
ag76
aa(lp623
I641
ag9
aa(lp624
I642
ag25
aa(lp625
I643
ag165
aa(lp626
I644
ag27
aa(lp627
I645
ag25
aa(lp628
I646
ag9
aa(lp629
I647
ag56
aa(lp630
I648
ag27
aa(lp631
I649
ag19
aa(lp632
I650
ag15
aa(lp633
I651
ag142
aa(lp634
I652
ag27
aa(lp635
I653
ag15
aa(lp636
I654
ag13
aa(lp637
I655
ag9
aa(lp638
I656
ag17
aa(lp639
I657
ag33
aa(lp640
I658
ag9
aa(lp641
I659
ag15
aa(lp642
I660
ag52
aa(lp643
I661
ag19
aa(lp644
I662
ag13
aa(lp645
I664
ag9
aa(lp646
I665
ag17
aa(lp647
I666
ag33
aa(lp648
I667
ag9
aa(lp649
I668
ag40
aa(lp650
I669
ag17
aa(lp651
I670
ag83
aa(lp652
I671
ag72
aa(lp653
I672
ag9
aa(lp654
I673
ag76
aa(lp655
I674
ag27
aa(lp656
I675
ag40
aa(lp657
I676
ag40
aa(lp658
I677
ag13
aa(lp659
I678
ag19
aa(lp660
I679
ag9
aa(lp661
I680
ag329
aa(lp662
I681
ag17
aa(lp663
I682
ag19
aa(lp664
I683
ag27
aa(lp665
I684
ag56
aa(lp666
I685
ag56
aa(lp667
I686
ag49
aa(lp668
I687
ag9
aa(lp669
I688
ag15
aa(lp670
I689
ag13
aa(lp671
I690
ag25
aa(lp672
I691
ag25
aa(lp673
I692
ag17
aa(lp674
I693
ag19
aa(lp675
I694
ag15
aa(lp676
I695
ag9
aa(lp677
I696
ag17
aa(lp678
I697
ag25
aa(lp679
I699
ag9
aa(lp680
I700
ag52
aa(lp681
I701
ag40
aa(lp682
I702
ag9
aa(lp683
I703
ag17
aa(lp684
I704
ag33
aa(lp685
I705
ag9
aa(lp686
I706
ag165
aa(lp687
I707
ag13
aa(lp688
I708
ag9
aa(lp689
I709
aS'j'
p690
aa(lp691
I710
ag142
aa(lp692
I711
ag33
aa(lp693
I712
ag25
aa(lp694
I713
ag9
aa(lp695
I714
ag25
aa(lp696
I715
ag40
aa(lp697
I716
ag49
aa(lp698
I717
ag17
aa(lp699
I718
ag19
aa(lp700
I719
ag15
aa(lp701
I720
ag9
aa(lp702
I721
ag25
aa(lp703
I722
ag52
aa(lp704
I723
ag9
aa(lp705
I724
ag11
aa(lp706
I725
ag13
aa(lp707
I726
ag9
aa(lp708
I727
ag22
aa(lp709
I728
ag52
aa(lp710
I729
ag40
aa(lp711
I730
ag13
aa(lp712
I731
ag9
aa(lp713
I732
ag91
aa(lp714
I733
ag52
aa(lp715
I734
ag56
aa(lp716
I735
ag17
aa(lp717
I736
ag25
aa(lp718
I737
ag17
aa(lp719
I738
ag83
aa(lp720
I739
ag27
aa(lp721
I740
ag56
aa(lp722
I741
ag56
aa(lp723
I742
ag49
aa(lp724
I743
ag9
aa(lp725
I744
ag83
aa(lp726
I745
ag52
aa(lp727
I746
ag40
aa(lp728
I747
ag40
aa(lp729
I748
ag13
aa(lp730
I749
ag83
aa(lp731
I750
ag25
aa(lp732
I752
ag9
aa(lp733
I753
ag27
aa(lp734
I754
ag33
aa(lp735
I755
ag9
aa(lp736
I756
ag17
aa(lp737
I757
ag19
aa(lp738
I758
ag27
aa(lp739
I759
ag142
aa(lp740
I760
ag15
aa(lp741
I761
ag142
aa(lp742
I762
ag40
aa(lp743
I763
ag27
aa(lp744
I764
ag25
aa(lp745
I765
ag17
aa(lp746
I766
ag52
aa(lp747
I767
ag19
aa(lp748
I768
ag9
aa(lp749
I769
ag45
aa(lp750
I770
ag27
aa(lp751
I771
ag49
aa(lp752
I772
ag9
aa(lp753
I773
ag19
aa(lp754
I774
ag13
aa(lp755
I775
ag27
aa(lp756
I776
ag40
aa(lp757
I777
ag33
aasS'text'
p758
S'<!-- begin meta tags generated by orblogs --> </meta name="keywords" content="progressive, liberal, politics, government, edit, language, grammar, accuracy, honesty, clarity, world, news, media" /> </> <!-- end meta tags generated by orblogs -->> editor at large: rick warren takes another baby step don\'t believe anything you read. except for this blog. tuesday, december 23, 2008 rick warren takes another baby step until yesterday, the web site for the rev. rick warren\'s saddleback church stated that "someone unwilling to repent for their homosexual lifestyle would not be accepted as a member at saddleback" (see screenshot below). now that language is gone. is rick warren finally getting it? or is he just trying to be more politically correct, as inauguration day nears?'
p759
sS'cleanWordMap'
p760
(lp761
sS'lines'
p762
(lp763
V<!-- Begin meta tags generated by ORblogs --> </meta name="keywords" content="progressive, liberal, politics, government, edit, language, grammar, accuracy, honesty, clarity, world, news, media" /> </> <!-- End meta tags generated by ORblogs -->>\u000a
p764
aVEditor at Large: Rick Warren takes another baby step\u000a
p765
aVDon't believe anything you read. Except for this blog.\u000a
p766
aVTuesday, December 23, 2008\u000a
p767
aVRick Warren takes another baby step\u000a
p768
aVUntil yesterday, the Web site for the Rev. Rick Warren's Saddleback Church stated that "someone unwilling to repent for their homosexual lifestyle would not be accepted as a member at Saddleback" (see screenshot below). Now that language is gone. Is Rick Warren finally getting it? Or is he just trying to be more politically correct, as inauguration day nears?
p769
asS'docType'
p770
S'src'
p771
sS'newfmap'
p772
(lp773
sS'featureMap'
p774
(lp775
sS'characterMap'
p776
(lp777
(lp778
I0
aS'<'
p779
aa(lp780
I1
aS'!'
p781
aa(lp782
I2
aS'-'
p783
aa(lp784
I3
ag783
aag8
ag10
ag12
ag14
ag16
ag18
ag20
ag21
ag23
ag24
ag26
ag28
ag29
ag30
ag31
ag32
ag34
ag35
ag36
ag37
ag38
ag39
ag41
ag42
ag43
ag44
ag46
ag47
ag48
ag50
ag51
ag53
ag54
ag55
ag57
ag58
ag59
ag60
a(lp785
I42
ag783
aa(lp786
I43
ag783
aa(lp787
I44
aS'>'
p788
aag61
a(lp789
I46
ag779
aa(lp790
I47
aS'/'
p791
aag62
ag63
ag64
ag65
ag66
ag67
ag68
ag69
ag70
a(lp792
I57
aS'='
p793
aa(lp794
I58
aS'"'
p795
aag71
ag73
ag74
ag75
ag77
ag78
ag79
ag80
a(lp796
I67
ag795
aag81
ag82
ag84
ag85
ag86
ag87
ag88
ag89
a(lp797
I76
ag793
aa(lp798
I77
ag795
aag90
ag92
ag93
ag94
ag95
ag96
ag97
ag98
ag99
ag100
ag102
a(lp799
I89
aS','
p800
aag103
ag104
ag105
ag106
ag107
ag108
ag109
ag110
a(lp801
I98
ag800
aag111
ag112
ag113
ag114
ag115
ag116
ag117
ag118
ag119
a(lp802
I108
ag800
aag120
ag121
ag122
ag123
ag124
ag125
ag126
ag127
ag128
ag129
ag130
a(lp803
I120
ag800
aag131
ag132
ag133
ag134
ag135
a(lp804
I126
ag800
aag136
ag137
ag138
ag139
ag140
ag141
ag143
ag144
ag145
a(lp805
I136
ag800
aag146
ag147
ag148
ag149
ag150
ag151
ag152
ag153
a(lp806
I145
ag800
aag154
ag155
ag156
ag157
ag158
ag159
ag160
ag161
ag162
a(lp807
I155
ag800
aag163
ag164
ag166
ag167
ag168
ag169
ag170
ag171
a(lp808
I164
ag800
aag172
ag173
ag174
ag175
ag176
ag177
ag178
ag179
a(lp809
I173
ag800
aag180
ag181
ag182
ag183
ag184
ag185
a(lp810
I180
ag800
aag186
ag187
ag188
ag189
ag190
a(lp811
I186
ag800
aag191
ag192
ag193
ag194
ag195
ag196
a(lp812
I193
ag795
aag197
a(lp813
I195
ag791
aa(lp814
I196
ag788
aag198
a(lp815
I198
ag779
aa(lp816
I199
ag791
aa(lp817
I200
ag788
aag199
a(lp818
I202
ag779
aa(lp819
I203
ag781
aa(lp820
I204
ag783
aa(lp821
I205
ag783
aag200
ag201
ag202
ag203
ag204
ag205
ag206
ag207
ag208
ag209
ag210
ag211
ag212
ag213
ag214
ag215
ag216
ag217
ag218
ag219
ag220
ag221
ag222
ag223
ag224
ag225
ag226
ag227
ag228
ag229
ag230
ag231
ag232
ag233
ag234
ag235
a(lp822
I242
ag783
aa(lp823
I243
ag783
aa(lp824
I244
ag788
aa(lp825
I245
ag788
aag236
ag237
ag238
ag239
ag240
ag241
ag242
ag243
ag244
ag245
ag246
ag247
ag248
ag249
ag250
ag251
a(lp826
I262
aS':'
p827
aag252
ag253
ag254
ag255
ag256
ag257
ag258
ag259
ag260
ag261
ag262
ag263
ag264
ag265
ag266
ag267
ag268
ag269
ag270
ag271
ag272
ag273
ag274
ag275
ag276
ag277
ag278
ag279
ag280
ag281
ag282
ag283
ag284
ag285
ag286
ag287
ag288
ag289
ag290
ag291
a(lp828
I303
aS"'"
p829
aag292
ag293
ag294
ag295
ag296
ag297
ag298
ag299
ag300
ag301
ag302
ag303
ag304
ag305
ag306
ag307
ag308
ag309
ag310
ag311
ag312
ag313
ag314
ag315
ag316
ag317
ag318
a(lp830
I331
aS'.'
p831
aag319
ag320
ag321
ag323
ag324
ag325
ag326
ag327
ag328
ag330
ag331
ag332
ag333
ag334
ag335
ag336
ag337
ag338
ag339
ag340
ag341
a(lp832
I353
ag831
aag342
ag343
ag344
ag345
ag346
ag347
ag348
ag349
a(lp833
I362
ag800
aag350
ag351
ag352
ag353
ag354
ag355
ag356
ag357
ag358
ag359
ag360
ag362
a(lp834
I375
ag800
aag364
ag365
ag366
ag368
ag369
ag371
ag372
ag373
ag374
ag375
ag376
ag377
ag378
ag379
ag380
ag381
ag382
ag383
ag384
ag385
ag386
ag387
ag388
ag389
ag390
ag391
ag392
ag393
ag394
ag395
ag396
ag397
ag398
ag399
ag400
ag401
ag402
ag403
ag404
ag405
ag406
ag407
ag408
ag409
ag410
ag411
ag412
ag413
ag414
ag415
ag416
ag417
ag418
ag419
ag420
ag421
ag422
a(lp835
I433
ag800
aag423
ag424
ag425
ag426
ag427
ag428
ag429
ag430
ag431
ag432
ag433
ag434
ag435
ag436
ag437
ag438
ag439
ag440
ag441
ag442
ag443
ag444
ag445
ag446
ag447
a(lp836
I459
ag831
aag448
ag449
ag450
ag451
ag452
ag453
ag454
ag455
ag456
ag457
ag458
ag459
a(lp837
I472
ag829
aag460
ag461
ag462
ag463
ag464
ag465
ag466
ag467
ag468
ag469
ag470
ag471
ag472
ag473
ag474
ag475
ag476
ag477
ag478
ag479
ag480
ag481
ag482
ag483
ag484
ag485
ag486
ag487
ag488
ag489
ag490
ag491
a(lp838
I505
ag795
aag492
ag493
ag494
ag495
ag496
ag497
ag498
ag499
ag500
ag501
ag502
ag503
ag504
ag505
ag506
ag507
ag508
ag509
ag510
ag511
ag512
ag513
ag514
ag515
ag516
ag517
ag518
ag519
ag520
ag521
ag522
ag523
ag524
ag525
ag526
ag527
ag528
ag529
ag530
ag531
ag532
ag533
ag534
ag535
ag536
ag537
ag538
ag539
ag540
ag541
ag542
ag543
ag544
ag545
ag546
ag547
ag548
ag549
ag550
ag551
ag552
ag553
ag554
ag555
ag556
ag557
ag558
ag559
ag560
ag561
ag562
ag563
ag564
ag565
ag566
ag567
ag568
ag569
ag570
ag571
ag572
ag573
ag574
ag575
ag576
ag577
ag578
ag579
ag580
ag581
ag582
ag583
ag584
ag585
ag586
ag587
ag588
ag589
ag590
ag591
ag592
ag593
ag594
ag595
ag596
ag597
a(lp839
I612
ag795
aag598
a(lp840
I614
aS'('
p841
aag599
ag600
ag601
ag602
ag603
ag604
ag605
ag606
ag607
ag608
ag609
ag610
ag611
ag612
ag613
ag614
ag615
ag616
ag617
ag618
a(lp842
I635
aS')'
p843
aa(lp844
I636
ag831
aag619
ag620
ag621
ag622
ag623
ag624
ag625
ag626
ag627
ag628
ag629
ag630
ag631
ag632
ag633
ag634
ag635
ag636
ag637
ag638
ag639
ag640
ag641
ag642
ag643
ag644
a(lp845
I663
ag831
aag645
ag646
ag647
ag648
ag649
ag650
ag651
ag652
ag653
ag654
ag655
ag656
ag657
ag658
ag659
ag660
ag661
ag662
ag663
ag664
ag665
ag666
ag667
ag668
ag669
ag670
ag671
ag672
ag673
ag674
ag675
ag676
ag677
ag678
a(lp846
I698
aS'?'
p847
aag679
ag680
ag681
ag682
ag683
ag684
ag685
ag686
ag687
ag688
ag689
ag691
ag692
ag693
ag694
ag695
ag696
ag697
ag698
ag699
ag700
ag701
ag702
ag703
ag704
ag705
ag706
ag707
ag708
ag709
ag710
ag711
ag712
ag713
ag714
ag715
ag716
ag717
ag718
ag719
ag720
ag721
ag722
ag723
ag724
ag725
ag726
ag727
ag728
ag729
ag730
ag731
a(lp848
I751
ag800
aag732
ag733
ag734
ag735
ag736
ag737
ag738
ag739
ag740
ag741
ag742
ag743
ag744
ag745
ag746
ag747
ag748
ag749
ag750
ag751
ag752
ag753
ag754
ag755
ag756
ag757
a(lp849
I778
ag847
aasS'docName'
p850
S'source-document00878.txt'
p851
sb.