(iModel.Document
Document
p0
(dp1
S'fmap'
p2
(lp3
(lp4
I0
aI0
aS'6'
p5
a(lp6
S'*'
p7
ag5
aaa(lp8
I0
aI0
ag5
a(lp9
g7
ag5
aaa(lp10
I0
aI0
ag5
a(lp11
g7
ag5
aaa(lp12
I0
aI0
ag5
a(lp13
g7
ag5
aaa(lp14
I2
aI7
aS'extras'
p15
a(lp16
g5
ag15
aaa(lp17
I2
aI7
ag15
a(lp18
g7
ag15
aaa(lp19
I2
aI7
ag15
a(lp20
g7
ag15
aaa(lp21
I2
aI7
ag15
a(lp22
g7
ag15
aaa(lp23
I16
aI23
aS'watching'
p24
a(lp25
g15
ag24
aaa(lp26
I16
aI23
ag24
a(lp27
g5
ag24
aaa(lp28
I16
aI23
ag24
a(lp29
g7
ag24
aaa(lp30
I16
aI23
ag24
a(lp31
g7
ag24
aaa(lp32
I25
aI28
aS'live'
p33
a(lp34
g24
ag33
aaa(lp35
I25
aI28
ag33
a(lp36
g15
ag33
aaa(lp37
I25
aI28
ag33
a(lp38
g5
ag33
aaa(lp39
I25
aI28
ag33
a(lp40
g7
ag33
aaa(lp41
I30
aI37
aS'football'
p42
a(lp43
g33
ag42
aaa(lp44
I30
aI37
ag42
a(lp45
g24
ag42
aaa(lp46
I30
aI37
ag42
a(lp47
g15
ag42
aaa(lp48
I30
aI37
ag42
a(lp49
g5
ag42
aaa(lp50
I39
aI46
aS'possible'
p51
a(lp52
g42
ag51
aaa(lp53
I39
aI46
ag51
a(lp54
g33
ag51
aaa(lp55
I39
aI46
ag51
a(lp56
g24
ag51
aaa(lp57
I39
aI46
ag51
a(lp58
g15
ag51
aaa(lp59
I59
aI63
aS'still'
p60
a(lp61
g51
ag60
aaa(lp62
I59
aI63
ag60
a(lp63
g42
ag60
aaa(lp64
I59
aI63
ag60
a(lp65
g33
ag60
aaa(lp66
I59
aI63
ag60
a(lp67
g24
ag60
aaa(lp68
I81
aI89
aS'countries'
p69
a(lp70
g60
ag69
aaa(lp71
I81
aI89
ag69
a(lp72
g51
ag69
aaa(lp73
I81
aI89
ag69
a(lp74
g42
ag69
aaa(lp75
I81
aI89
ag69
a(lp76
g33
ag69
aaa(lp77
I91
aI96
aS'around'
p78
a(lp79
g69
ag78
aaa(lp80
I91
aI96
ag78
a(lp81
g60
ag78
aaa(lp82
I91
aI96
ag78
a(lp83
g51
ag78
aaa(lp84
I91
aI96
ag78
a(lp85
g42
ag78
aaa(lp86
I102
aI106
aS'world'
p87
a(lp88
g78
ag87
aaa(lp89
I102
aI106
ag87
a(lp90
g69
ag87
aaa(lp91
I102
aI106
ag87
a(lp92
g60
ag87
aaa(lp93
I102
aI106
ag87
a(lp94
g51
ag87
aaa(lp95
I114
aI116
aS'ppv'
p96
a(lp97
g87
ag96
aaa(lp98
I114
aI116
ag96
a(lp99
g78
ag96
aaa(lp100
I114
aI116
ag96
a(lp101
g69
ag96
aaa(lp102
I114
aI116
ag96
a(lp103
g60
ag96
aaa(lp104
I126
aI128
aS'yet'
p105
a(lp106
g96
ag105
aaa(lp107
I126
aI128
ag105
a(lp108
g87
ag105
aaa(lp109
I126
aI128
ag105
a(lp110
g78
ag105
aaa(lp111
I126
aI128
ag105
a(lp112
g69
ag105
aaa(lp113
I135
aI145
aS'established'
p114
a(lp115
g105
ag114
aaa(lp116
I135
aI145
ag114
a(lp117
g96
ag114
aaa(lp118
I135
aI145
ag114
a(lp119
g87
ag114
aaa(lp120
I135
aI145
ag114
a(lp121
g78
ag114
aaa(lp122
I152
aI159
aS'football'
p123
a(lp124
g114
ag123
aaa(lp125
I152
aI159
ag123
a(lp126
g105
ag123
aaa(lp127
I152
aI159
ag123
a(lp128
g96
ag123
aaa(lp129
I152
aI159
ag123
a(lp130
g87
ag123
aaa(lp131
I164
aI172
aS'televised'
p132
a(lp133
g123
ag132
aaa(lp134
I164
aI172
ag132
a(lp135
g114
ag132
aaa(lp136
I164
aI172
ag132
a(lp137
g105
ag132
aaa(lp138
I164
aI172
ag132
a(lp139
g96
ag132
aaa(lp140
I178
aI181
aS'free'
p141
a(lp142
g132
ag141
aaa(lp143
I178
aI181
ag141
a(lp144
g123
ag141
aaa(lp145
I178
aI181
ag141
a(lp146
g114
ag141
aaa(lp147
I178
aI181
ag141
a(lp148
g105
ag141
aaa(lp149
I184
aI193
aS'broadcasts'
p150
a(lp151
g141
ag150
aaa(lp152
I184
aI193
ag150
a(lp153
g132
ag150
aaa(lp154
I184
aI193
ag150
a(lp155
g123
ag150
aaa(lp156
I184
aI193
ag150
a(lp157
g114
ag150
aaa(lp158
I210
aI211
aS'tv'
p159
a(lp160
g150
ag159
aaa(lp161
I210
aI211
ag159
a(lp162
g141
ag159
aaa(lp163
I210
aI211
ag159
a(lp164
g132
ag159
aaa(lp165
I210
aI211
ag159
a(lp166
g123
ag159
aaa(lp167
I213
aI220
aS'stations'
p168
a(lp169
g159
ag168
aaa(lp170
I213
aI220
ag168
a(lp171
g150
ag168
aaa(lp172
I213
aI220
ag168
a(lp173
g141
ag168
aaa(lp174
I213
aI220
ag168
a(lp175
g132
ag168
aaa(lp176
I231
aI239
aS'countries'
p177
a(lp178
g168
ag177
aaa(lp179
I231
aI239
ag177
a(lp180
g159
ag177
aaa(lp181
I231
aI239
ag177
a(lp182
g150
ag177
aaa(lp183
I231
aI239
ag177
a(lp184
g141
ag177
aaa(lp185
I245
aI253
aS'available'
p186
a(lp187
g177
ag186
aaa(lp188
I245
aI253
ag186
a(lp189
g168
ag186
aaa(lp190
I245
aI253
ag186
a(lp191
g159
ag186
aaa(lp192
I245
aI253
ag186
a(lp193
g150
ag186
aaa(lp194
I255
aI257
aS'via'
p195
a(lp196
g186
ag195
aaa(lp197
I255
aI257
ag195
a(lp198
g177
ag195
aaa(lp199
I255
aI257
ag195
a(lp200
g168
ag195
aaa(lp201
I255
aI257
ag195
a(lp202
g159
ag195
aaa(lp203
I259
aI263
aS'video'
p204
a(lp205
g195
ag204
aaa(lp206
I259
aI263
ag204
a(lp207
g186
ag204
aaa(lp208
I259
aI263
ag204
a(lp209
g177
ag204
aaa(lp210
I259
aI263
ag204
a(lp211
g168
ag204
aaa(lp212
I265
aI271
aS'streams'
p213
a(lp214
g204
ag213
aaa(lp215
I265
aI271
ag213
a(lp216
g195
ag213
aaa(lp217
I265
aI271
ag213
a(lp218
g186
ag213
aaa(lp219
I265
aI271
ag213
a(lp220
g177
ag213
aaa(lp221
I280
aI287
aS'internet'
p222
a(lp223
g213
ag222
aaa(lp224
I280
aI287
ag222
a(lp225
g204
ag222
aaa(lp226
I280
aI287
ag222
a(lp227
g195
ag222
aaa(lp228
I280
aI287
ag222
a(lp229
g186
ag222
aaa(lp230
I294
aI297
aS'good'
p231
a(lp232
g222
ag231
aaa(lp233
I294
aI297
ag231
a(lp234
g213
ag231
aaa(lp235
I294
aI297
ag231
a(lp236
g204
ag231
aaa(lp237
I294
aI297
ag231
a(lp238
g195
ag231
aaa(lp239
I306
aI312
aS'quality'
p240
a(lp241
g231
ag240
aaa(lp242
I306
aI312
ag240
a(lp243
g222
ag240
aaa(lp244
I306
aI312
ag240
a(lp245
g213
ag240
aaa(lp246
I306
aI312
ag240
a(lp247
g204
ag240
aaa(lp248
I321
aI324
aS'live'
p249
a(lp250
g240
ag249
aaa(lp251
I321
aI324
ag249
a(lp252
g231
ag249
aaa(lp253
I321
aI324
ag249
a(lp254
g222
ag249
aaa(lp255
I321
aI324
ag249
a(lp256
g213
ag249
aaa(lp257
I326
aI332
aS'streams'
p258
a(lp259
g249
ag258
aaa(lp260
I326
aI332
ag258
a(lp261
g240
ag258
aaa(lp262
I326
aI332
ag258
a(lp263
g231
ag258
aaa(lp264
I326
aI332
ag258
a(lp265
g222
ag258
aaa(lp266
I339
aI345
aS'quality'
p267
a(lp268
g258
ag267
aaa(lp269
I339
aI345
ag267
a(lp270
g249
ag267
aaa(lp271
I339
aI345
ag267
a(lp272
g240
ag267
aaa(lp273
I339
aI345
ag267
a(lp274
g231
ag267
aaa(lp275
I347
aI353
aS'depends'
p276
a(lp277
g267
ag276
aaa(lp278
I347
aI353
ag276
a(lp279
g258
ag276
aaa(lp280
I347
aI353
ag276
a(lp281
g249
ag276
aaa(lp282
I347
aI353
ag276
a(lp283
g240
ag276
aaa(lp284
I362
aI365
aS'rate'
p285
a(lp286
g276
ag285
aaa(lp287
I362
aI365
ag285
a(lp288
g267
ag285
aaa(lp289
I362
aI365
ag285
a(lp290
g258
ag285
aaa(lp291
I362
aI365
ag285
a(lp292
g249
ag285
aaa(lp293
I376
aI380
aS'video'
p294
a(lp295
g285
ag294
aaa(lp296
I376
aI380
ag294
a(lp297
g276
ag294
aaa(lp298
I376
aI380
ag294
a(lp299
g267
ag294
aaa(lp300
I376
aI380
ag294
a(lp301
g258
ag294
aaa(lp302
I382
aI388
aS'streams'
p303
a(lp304
g294
ag303
aaa(lp305
I382
aI388
ag303
a(lp306
g285
ag303
aaa(lp307
I382
aI388
ag303
a(lp308
g276
ag303
aaa(lp309
I382
aI388
ag303
a(lp310
g267
ag303
aaa(lp311
I394
aI404
aS'transmitted'
p312
a(lp313
g303
ag312
aaa(lp314
I394
aI404
ag312
a(lp315
g294
ag312
aaa(lp316
I394
aI404
ag312
a(lp317
g285
ag312
aaa(lp318
I394
aI404
ag312
a(lp319
g276
ag312
aaa(lp320
I412
aI418
aS'quality'
p321
a(lp322
g312
ag321
aaa(lp323
I412
aI418
ag321
a(lp324
g303
ag321
aaa(lp325
I412
aI418
ag321
a(lp326
g294
ag321
aaa(lp327
I412
aI418
ag321
a(lp328
g285
ag321
aaa(lp329
I423
aI430
aS'measured'
p330
a(lp331
g321
ag330
aaa(lp332
I423
aI430
ag330
a(lp333
g312
ag330
aaa(lp334
I423
aI430
ag330
a(lp335
g303
ag330
aaa(lp336
I423
aI430
ag330
a(lp337
g294
ag330
aaa(lp338
I444
aI448
aS'units'
p339
a(lp340
g330
ag339
aaa(lp341
I444
aI448
ag339
a(lp342
g321
ag339
aaa(lp343
I444
aI448
ag339
a(lp344
g312
ag339
aaa(lp345
I444
aI448
ag339
a(lp346
g303
ag339
aaa(lp347
I450
aI458
aS'measuring'
p348
a(lp349
g339
ag348
aaa(lp350
I450
aI458
ag348
a(lp351
g330
ag348
aaa(lp352
I450
aI458
ag348
a(lp353
g321
ag348
aaa(lp354
I450
aI458
ag348
a(lp355
g312
ag348
aaa(lp356
I464
aI468
aS'broad'
p357
a(lp358
g348
ag357
aaa(lp359
I464
aI468
ag357
a(lp360
g339
ag357
aaa(lp361
I464
aI468
ag357
a(lp362
g330
ag357
aaa(lp363
I464
aI468
ag357
a(lp364
g321
ag357
aaa(lp365
I474
aI481
aS'internet'
p366
a(lp367
g357
ag366
aaa(lp368
I474
aI481
ag366
a(lp369
g348
ag366
aaa(lp370
I474
aI481
ag366
a(lp371
g339
ag366
aaa(lp372
I474
aI481
ag366
a(lp373
g330
ag366
aaa(lp374
I483
aI492
aS'connection'
p375
a(lp376
g366
ag375
aaa(lp377
I483
aI492
ag375
a(lp378
g357
ag375
aaa(lp379
I483
aI492
ag375
a(lp380
g348
ag375
aaa(lp381
I483
aI492
ag375
a(lp382
g339
ag375
aaa(lp383
I498
aI503
aS'kbsec'
p384
a(lp385
g375
ag384
aaa(lp386
I498
aI503
ag384
a(lp387
g366
ag384
aaa(lp388
I498
aI503
ag384
a(lp389
g357
ag384
aaa(lp390
I498
aI503
ag384
a(lp391
g348
ag384
aaa(lp392
I511
aI517
aS'streams'
p393
a(lp394
g384
ag393
aaa(lp395
I511
aI517
ag393
a(lp396
g375
ag393
aaa(lp397
I511
aI517
ag393
a(lp398
g366
ag393
aaa(lp399
I511
aI517
ag393
a(lp400
g357
ag393
aaa(lp401
I523
aI533
aS'transmitted'
p402
a(lp403
g393
ag402
aaa(lp404
I523
aI533
ag402
a(lp405
g384
ag402
aaa(lp406
I523
aI533
ag402
a(lp407
g375
ag402
aaa(lp408
I523
aI533
ag402
a(lp409
g366
ag402
aaa(lp410
I540
aI546
aS'quality'
p411
a(lp412
g402
ag411
aaa(lp413
I540
aI546
ag411
a(lp414
g393
ag411
aaa(lp415
I540
aI546
ag411
a(lp416
g384
ag411
aaa(lp417
I540
aI546
ag411
a(lp418
g375
ag411
aaa(lp419
I559
aI567
aS'100kbsec'
p420
a(lp421
g411
ag420
aaa(lp422
I559
aI567
ag420
a(lp423
g402
ag420
aaa(lp424
I559
aI567
ag420
a(lp425
g393
ag420
aaa(lp426
I559
aI567
ag420
a(lp427
g384
ag420
aaa(lp428
I573
aI575
aS'400'
p429
a(lp430
g420
ag429
aaa(lp431
I573
aI575
ag429
a(lp432
g411
ag429
aaa(lp433
I573
aI575
ag429
a(lp434
g402
ag429
aaa(lp435
I573
aI575
ag429
a(lp436
g393
ag429
aaa(lp437
I577
aI582
aS'kbsec'
p438
a(lp439
g429
ag438
aaa(lp440
I577
aI582
ag438
a(lp441
g420
ag438
aaa(lp442
I577
aI582
ag438
a(lp443
g411
ag438
aaa(lp444
I577
aI582
ag438
a(lp445
g402
ag438
aaa(lp446
I596
aI605
aS'connection'
p447
a(lp448
g438
ag447
aaa(lp449
I596
aI605
ag447
a(lp450
g429
ag447
aaa(lp451
I596
aI605
ag447
a(lp452
g420
ag447
aaa(lp453
I596
aI605
ag447
a(lp454
g411
ag447
aaa(lp455
I610
aI618
aS'somewhere'
p456
a(lp457
g447
ag456
aaa(lp458
I610
aI618
ag456
a(lp459
g438
ag456
aaa(lp460
I610
aI618
ag456
a(lp461
g429
ag456
aaa(lp462
I610
aI618
ag456
a(lp463
g420
ag456
aaa(lp464
I620
aI625
aS'around'
p465
a(lp466
g456
ag465
aaa(lp467
I620
aI625
ag465
a(lp468
g447
ag465
aaa(lp469
I620
aI625
ag465
a(lp470
g438
ag465
aaa(lp471
I620
aI625
ag465
a(lp472
g429
ag465
aaa(lp473
I627
aI632
aS'750kbs'
p474
a(lp475
g465
ag474
aaa(lp476
I627
aI632
ag474
a(lp477
g456
ag474
aaa(lp478
I627
aI632
ag474
a(lp479
g447
ag474
aaa(lp480
I627
aI632
ag474
a(lp481
g438
ag474
aaa(lp482
I646
aI649
aS'need'
p483
a(lp484
g474
ag483
aaa(lp485
I646
aI649
ag483
a(lp486
g465
ag483
aaa(lp487
I646
aI649
ag483
a(lp488
g456
ag483
aaa(lp489
I646
aI649
ag483
a(lp490
g447
ag483
aaa(lp491
I654
aI657
aS'rush'
p492
a(lp493
g483
ag492
aaa(lp494
I654
aI657
ag492
a(lp495
g474
ag492
aaa(lp496
I654
aI657
ag492
a(lp497
g465
ag492
aaa(lp498
I654
aI657
ag492
a(lp499
g456
ag492
aaa(lp500
I667
aI669
aS'pay'
p501
a(lp502
g492
ag501
aaa(lp503
I667
aI669
ag501
a(lp504
g483
ag501
aaa(lp505
I667
aI669
ag501
a(lp506
g474
ag501
aaa(lp507
I667
aI669
ag501
a(lp508
g465
ag501
aaa(lp509
I677
aI683
aS'broader'
p510
a(lp511
g501
ag510
aaa(lp512
I677
aI683
ag510
a(lp513
g492
ag510
aaa(lp514
I677
aI683
ag510
a(lp515
g483
ag510
aaa(lp516
I677
aI683
ag510
a(lp517
g474
ag510
aaa(lp518
I685
aI694
aS'connection'
p519
a(lp520
g510
ag519
aaa(lp521
I685
aI694
ag519
a(lp522
g501
ag519
aaa(lp523
I685
aI694
ag519
a(lp524
g492
ag519
aaa(lp525
I685
aI694
ag519
a(lp526
g483
ag519
aaa(lp527
I696
aI702
aS'package'
p528
a(lp529
g519
ag528
aaa(lp530
I696
aI702
ag528
a(lp531
g510
ag528
aaa(lp532
I696
aI702
ag528
a(lp533
g501
ag528
aaa(lp534
I696
aI702
ag528
a(lp535
g492
ag528
aaa(lp536
I705
aI713
aS'400kbsec'
p537
a(lp538
g528
ag537
aaa(lp539
I705
aI713
ag537
a(lp540
g519
ag537
aaa(lp541
I705
aI713
ag537
a(lp542
g510
ag537
aaa(lp543
I705
aI713
ag537
a(lp544
g501
ag537
aaa(lp545
I726
aI729
aS'less'
p546
a(lp547
g537
ag546
aaa(lp548
I726
aI729
ag546
a(lp549
g528
ag546
aaa(lp550
I726
aI729
ag546
a(lp551
g519
ag546
aaa(lp552
I726
aI729
ag546
a(lp553
g510
ag546
aaa(lp554
I735
aI738
aS'rate'
p555
a(lp556
g546
ag555
aaa(lp557
I735
aI738
ag555
a(lp558
g537
ag555
aaa(lp559
I735
aI738
ag555
a(lp560
g528
ag555
aaa(lp561
I735
aI738
ag555
a(lp562
g519
ag555
aaa(lp563
I755
aI762
aS'possible'
p564
a(lp565
g555
ag564
aaa(lp566
I755
aI762
ag564
a(lp567
g546
ag564
aaa(lp568
I755
aI762
ag564
a(lp569
g537
ag564
aaa(lp570
I755
aI762
ag564
a(lp571
g528
ag564
aaa(lp572
I767
aI771
aS'watch'
p573
a(lp574
g564
ag573
aaa(lp575
I767
aI771
ag573
a(lp576
g555
ag573
aaa(lp577
I767
aI771
ag573
a(lp578
g546
ag573
aaa(lp579
I767
aI771
ag573
a(lp580
g537
ag573
aaa(lp581
I777
aI781
aS'video'
p582
a(lp583
g573
ag582
aaa(lp584
I777
aI781
ag582
a(lp585
g564
ag582
aaa(lp586
I777
aI781
ag582
a(lp587
g555
ag582
aaa(lp588
I777
aI781
ag582
a(lp589
g546
ag582
aaa(lp590
I783
aI788
aS'stream'
p591
a(lp592
g582
ag591
aaa(lp593
I783
aI788
ag591
a(lp594
g573
ag591
aaa(lp595
I783
aI788
ag591
a(lp596
g564
ag591
aaa(lp597
I783
aI788
ag591
a(lp598
g555
ag591
aaa(lp599
I795
aI798
aS'full'
p600
a(lp601
g591
ag600
aaa(lp602
I795
aI798
ag600
a(lp603
g582
ag600
aaa(lp604
I795
aI798
ag600
a(lp605
g573
ag600
aaa(lp606
I795
aI798
ag600
a(lp607
g564
ag600
aaa(lp608
I800
aI805
aS'screen'
p609
a(lp610
g600
ag609
aaa(lp611
I800
aI805
ag609
a(lp612
g591
ag609
aaa(lp613
I800
aI805
ag609
a(lp614
g582
ag609
aaa(lp615
I800
aI805
ag609
a(lp616
g573
ag609
aaa(lp617
I810
aI819
aS'reasonable'
p618
a(lp619
g609
ag618
aaa(lp620
I810
aI819
ag618
a(lp621
g600
ag618
aaa(lp622
I810
aI819
ag618
a(lp623
g591
ag618
aaa(lp624
I810
aI819
ag618
a(lp625
g582
ag618
aaa(lp626
I821
aI827
aS'quality'
p627
a(lp628
g618
ag627
aaa(lp629
I821
aI827
ag627
a(lp630
g609
ag627
aaa(lp631
I821
aI827
ag627
a(lp632
g600
ag627
aaa(lp633
I821
aI827
ag627
a(lp634
g591
ag627
aaa(lp635
I834
aI840
aS'quality'
p636
a(lp637
g627
ag636
aaa(lp638
I834
aI840
ag636
a(lp639
g618
ag636
aaa(lp640
I834
aI840
ag636
a(lp641
g609
ag636
aaa(lp642
I834
aI840
ag636
a(lp643
g600
ag636
aaa(lp644
I842
aI847
aS'lesser'
p645
a(lp646
g636
ag645
aaa(lp647
I842
aI847
ag645
a(lp648
g627
ag645
aaa(lp649
I842
aI847
ag645
a(lp650
g618
ag645
aaa(lp651
I842
aI847
ag645
a(lp652
g609
ag645
aaa(lp653
I864
aI867
aS'size'
p654
a(lp655
g645
ag654
aaa(lp656
I864
aI867
ag654
a(lp657
g636
ag654
aaa(lp658
I864
aI867
ag654
a(lp659
g627
ag654
aaa(lp660
I864
aI867
ag654
a(lp661
g618
ag654
aaa(lp662
I876
aI880
aS'media'
p663
a(lp664
g654
ag663
aaa(lp665
I876
aI880
ag663
a(lp666
g645
ag663
aaa(lp667
I876
aI880
ag663
a(lp668
g636
ag663
aaa(lp669
I876
aI880
ag663
a(lp670
g627
ag663
aaa(lp671
I882
aI889
aS'players'
p672
a(lp673
g663
ag672
aaa(lp674
I882
aI889
ag672
a(lp675
g654
ag672
aaa(lp676
I882
aI889
ag672
a(lp677
g645
ag672
aaa(lp678
I882
aI889
ag672
a(lp679
g636
ag672
aaa(lp680
I891
aI896
aS'window'
p681
a(lp682
g672
ag681
aaa(lp683
I891
aI896
ag681
a(lp684
g663
ag681
aaa(lp685
I891
aI896
ag681
a(lp686
g654
ag681
aaa(lp687
I891
aI896
ag681
a(lp688
g645
ag681
aaa(lp689
I908
aI914
aS'reduced'
p690
a(lp691
g681
ag690
aaa(lp692
I908
aI914
ag690
a(lp693
g672
ag690
aaa(lp694
I908
aI914
ag690
a(lp695
g663
ag690
aaa(lp696
I908
aI914
ag690
a(lp697
g654
ag690
aaa(lp698
I917
aI922
aS'sounds'
p699
a(lp700
g690
ag699
aaa(lp701
I917
aI922
ag699
a(lp702
g681
ag699
aaa(lp703
I917
aI922
ag699
a(lp704
g672
ag699
aaa(lp705
I917
aI922
ag699
a(lp706
g663
ag699
aaa(lp707
I928
aI931
aS'good'
p708
a(lp709
g699
ag708
aaa(lp710
I928
aI931
ag708
a(lp711
g690
ag708
aaa(lp712
I928
aI931
ag708
a(lp713
g681
ag708
aaa(lp714
I928
aI931
ag708
a(lp715
g672
ag708
aaa(lp716
I939
aI942
aS'true'
p717
a(lp718
g708
ag717
aaa(lp719
I939
aI942
ag717
a(lp720
g699
ag717
aaa(lp721
I939
aI942
ag717
a(lp722
g690
ag717
aaa(lp723
I939
aI942
ag717
a(lp724
g681
ag717
aaa(lp725
I956
aI961
aS'method'
p726
a(lp727
g717
ag726
aaa(lp728
I956
aI961
ag726
a(lp729
g708
ag726
aaa(lp730
I956
aI961
ag726
a(lp731
g699
ag726
aaa(lp732
I956
aI961
ag726
a(lp733
g690
ag726
aaa(lp734
I963
aI967
aS'might'
p735
a(lp736
g726
ag735
aaa(lp737
I963
aI967
ag735
a(lp738
g717
ag735
aaa(lp739
I963
aI967
ag735
a(lp740
g708
ag735
aaa(lp741
I963
aI967
ag735
a(lp742
g699
ag735
aaa(lp743
I974
aI977
aS'good'
p744
a(lp745
g735
ag744
aaa(lp746
I974
aI977
ag744
a(lp747
g726
ag744
aaa(lp748
I974
aI977
ag744
a(lp749
g717
ag744
aaa(lp750
I974
aI977
ag744
a(lp751
g708
ag744
aaa(lp752
I979
aI989
aS'alternative'
p753
a(lp754
g744
ag753
aaa(lp755
I979
aI989
ag753
a(lp756
g735
ag753
aaa(lp757
I979
aI989
ag753
a(lp758
g726
ag753
aaa(lp759
I979
aI989
ag753
a(lp760
g717
ag753
aaa(lp761
I998
aI1001
aS'good'
p762
a(lp763
g753
ag762
aaa(lp764
I998
aI1001
ag762
a(lp765
g744
ag762
aaa(lp766
I998
aI1001
ag762
a(lp767
g735
ag762
aaa(lp768
I998
aI1001
ag762
a(lp769
g726
ag762
aaa(lp770
I1003
aI1005
aS'old'
p771
a(lp772
g762
ag771
aaa(lp773
I1003
aI1005
ag771
a(lp774
g753
ag771
aaa(lp775
I1003
aI1005
ag771
a(lp776
g744
ag771
aaa(lp777
I1003
aI1005
ag771
a(lp778
g735
ag771
aaa(lp779
I1007
aI1008
aS'tv'
p780
a(lp781
g771
ag780
aaa(lp782
I1007
aI1008
ag780
a(lp783
g762
ag780
aaa(lp784
I1007
aI1008
ag780
a(lp785
g753
ag780
aaa(lp786
I1007
aI1008
ag780
a(lp787
g744
ag780
aaa(lp788
I1010
aI1012
aS'set'
p789
a(lp790
g780
ag789
aaa(lp791
I1010
aI1012
ag789
a(lp792
g771
ag789
aaa(lp793
I1010
aI1012
ag789
a(lp794
g762
ag789
aaa(lp795
I1010
aI1012
ag789
a(lp796
g753
ag789
aaa(lp797
I1025
aI1029
aS'still'
p798
a(lp799
g789
ag798
aaa(lp800
I1025
aI1029
ag798
a(lp801
g780
ag798
aaa(lp802
I1025
aI1029
ag798
a(lp803
g771
ag798
aaa(lp804
I1025
aI1029
ag798
a(lp805
g762
ag798
aaa(lp806
I1036
aI1043
aS'problems'
p807
a(lp808
g798
ag807
aaa(lp809
I1036
aI1043
ag807
a(lp810
g789
ag807
aaa(lp811
I1036
aI1043
ag807
a(lp812
g780
ag807
aaa(lp813
I1036
aI1043
ag807
a(lp814
g771
ag807
aaa(lp815
I1045
aI1054
aS'associated'
p816
a(lp817
g807
ag816
aaa(lp818
I1045
aI1054
ag816
a(lp819
g798
ag816
aaa(lp820
I1045
aI1054
ag816
a(lp821
g789
ag816
aaa(lp822
I1045
aI1054
ag816
a(lp823
g780
ag816
aaa(lp824
I1065
aI1072
aS'millions'
p825
a(lp826
g816
ag825
aaa(lp827
I1065
aI1072
ag825
a(lp828
g807
ag825
aaa(lp829
I1065
aI1072
ag825
a(lp830
g798
ag825
aaa(lp831
I1065
aI1072
ag825
a(lp832
g789
ag825
aaa(lp833
I1077
aI1082
aS'people'
p834
a(lp835
g825
ag834
aaa(lp836
I1077
aI1082
ag834
a(lp837
g816
ag834
aaa(lp838
I1077
aI1082
ag834
a(lp839
g807
ag834
aaa(lp840
I1077
aI1082
ag834
a(lp841
g798
ag834
aaa(lp842
I1084
aI1089
aS'around'
p843
a(lp844
g834
ag843
aaa(lp845
I1084
aI1089
ag843
a(lp846
g825
ag843
aaa(lp847
I1084
aI1089
ag843
a(lp848
g816
ag843
aaa(lp849
I1084
aI1089
ag843
a(lp850
g807
ag843
aaa(lp851
I1095
aI1099
aS'world'
p852
a(lp853
g843
ag852
aaa(lp854
I1095
aI1099
ag852
a(lp855
g834
ag852
aaa(lp856
I1095
aI1099
ag852
a(lp857
g825
ag852
aaa(lp858
I1095
aI1099
ag852
a(lp859
g816
ag852
aaa(lp860
I1105
aI1110
aS'trying'
p861
a(lp862
g852
ag861
aaa(lp863
I1105
aI1110
ag861
a(lp864
g843
ag861
aaa(lp865
I1105
aI1110
ag861
a(lp866
g834
ag861
aaa(lp867
I1105
aI1110
ag861
a(lp868
g825
ag861
aaa(lp869
I1115
aI1121
aS'connect'
p870
a(lp871
g861
ag870
aaa(lp872
I1115
aI1121
ag870
a(lp873
g852
ag870
aaa(lp874
I1115
aI1121
ag870
a(lp875
g843
ag870
aaa(lp876
I1115
aI1121
ag870
a(lp877
g834
ag870
aaa(lp878
I1130
aI1136
aS'servers'
p879
a(lp880
g870
ag879
aaa(lp881
I1130
aI1136
ag879
a(lp882
g861
ag879
aaa(lp883
I1130
aI1136
ag879
a(lp884
g852
ag879
aaa(lp885
I1130
aI1136
ag879
a(lp886
g843
ag879
aaa(lp887
I1138
aI1149
aS'broadcasting'
p888
a(lp889
g879
ag888
aaa(lp890
I1138
aI1149
ag888
a(lp891
g870
ag888
aaa(lp892
I1138
aI1149
ag888
a(lp893
g861
ag888
aaa(lp894
I1138
aI1149
ag888
a(lp895
g852
ag888
aaa(lp896
I1155
aI1161
aS'streams'
p897
a(lp898
g888
ag897
aaa(lp899
I1155
aI1161
ag897
a(lp900
g879
ag897
aaa(lp901
I1155
aI1161
ag897
a(lp902
g870
ag897
aaa(lp903
I1155
aI1161
ag897
a(lp904
g861
ag897
aaa(lp905
I1187
aI1193
aS'servers'
p906
a(lp907
g897
ag906
aaa(lp908
I1187
aI1193
ag906
a(lp909
g888
ag906
aaa(lp910
I1187
aI1193
ag906
a(lp911
g879
ag906
aaa(lp912
I1187
aI1193
ag906
a(lp913
g870
ag906
aaa(lp914
I1203
aI1210
aS'designed'
p915
a(lp916
g906
ag915
aaa(lp917
I1203
aI1210
ag915
a(lp918
g897
ag915
aaa(lp919
I1203
aI1210
ag915
a(lp920
g888
ag915
aaa(lp921
I1203
aI1210
ag915
a(lp922
g879
ag915
aaa(lp923
I1215
aI1221
aS'support'
p924
a(lp925
g915
ag924
aaa(lp926
I1215
aI1221
ag924
a(lp927
g906
ag924
aaa(lp928
I1215
aI1221
ag924
a(lp929
g897
ag924
aaa(lp930
I1215
aI1221
ag924
a(lp931
g888
ag924
aaa(lp932
I1230
aI1234
aS'large'
p933
a(lp934
g924
ag933
aaa(lp935
I1230
aI1234
ag933
a(lp936
g915
ag933
aaa(lp937
I1230
aI1234
ag933
a(lp938
g906
ag933
aaa(lp939
I1230
aI1234
ag933
a(lp940
g897
ag933
aaa(lp941
I1236
aI1241
aS'number'
p942
a(lp943
g933
ag942
aaa(lp944
I1236
aI1241
ag942
a(lp945
g924
ag942
aaa(lp946
I1236
aI1241
ag942
a(lp947
g915
ag942
aaa(lp948
I1236
aI1241
ag942
a(lp949
g906
ag942
aaa(lp950
I1246
aI1250
aS'users'
p951
a(lp952
g942
ag951
aaa(lp953
I1246
aI1250
ag951
a(lp954
g933
ag951
aaa(lp955
I1246
aI1250
ag951
a(lp956
g924
ag951
aaa(lp957
I1246
aI1250
ag951
a(lp958
g915
ag951
aaa(lp959
I1260
aI1263
aS'load'
p960
a(lp961
g951
ag960
aaa(lp962
I1260
aI1263
ag960
a(lp963
g942
ag960
aaa(lp964
I1260
aI1263
ag960
a(lp965
g933
ag960
aaa(lp966
I1260
aI1263
ag960
a(lp967
g924
ag960
aaa(lp968
I1276
aI1281
aS'imense'
p969
a(lp970
g960
ag969
aaa(lp971
I1276
aI1281
ag969
a(lp972
g951
ag969
aaa(lp973
I1276
aI1281
ag969
a(lp974
g942
ag969
aaa(lp975
I1276
aI1281
ag969
a(lp976
g933
ag969
aaa(lp977
I1288
aI1293
aS'number'
p978
a(lp979
g969
ag978
aaa(lp980
I1288
aI1293
ag978
a(lp981
g960
ag978
aaa(lp982
I1288
aI1293
ag978
a(lp983
g951
ag978
aaa(lp984
I1288
aI1293
ag978
a(lp985
g942
ag978
aaa(lp986
I1298
aI1302
aS'users'
p987
a(lp988
g978
ag987
aaa(lp989
I1298
aI1302
ag987
a(lp990
g969
ag987
aaa(lp991
I1298
aI1302
ag987
a(lp992
g960
ag987
aaa(lp993
I1298
aI1302
ag987
a(lp994
g951
ag987
aaa(lp995
I1318
aI1324
aS'servers'
p996
a(lp997
g987
ag996
aaa(lp998
I1318
aI1324
ag996
a(lp999
g978
ag996
aaa(lp1000
I1318
aI1324
ag996
a(lp1001
g969
ag996
aaa(lp1002
I1318
aI1324
ag996
a(lp1003
g960
ag996
aaa(lp1004
I1330
aI1336
aS'support'
p1005
a(lp1006
g996
ag1005
aaa(lp1007
I1330
aI1336
ag1005
a(lp1008
g987
ag1005
aaa(lp1009
I1330
aI1336
ag1005
a(lp1010
g978
ag1005
aaa(lp1011
I1330
aI1336
ag1005
a(lp1012
g969
ag1005
aaa(lp1013
I1341
aI1347
aS'limited'
p1014
a(lp1015
g1005
ag1014
aaa(lp1016
I1341
aI1347
ag1014
a(lp1017
g996
ag1014
aaa(lp1018
I1341
aI1347
ag1014
a(lp1019
g987
ag1014
aaa(lp1020
I1341
aI1347
ag1014
a(lp1021
g978
ag1014
aaa(lp1022
I1354
aI1362
aS'sometimes'
p1023
a(lp1024
g1014
ag1023
aaa(lp1025
I1354
aI1362
ag1023
a(lp1026
g1005
ag1023
aaa(lp1027
I1354
aI1362
ag1023
a(lp1028
g996
ag1023
aaa(lp1029
I1354
aI1362
ag1023
a(lp1030
g987
ag1023
aaa(lp1031
I1364
aI1367
aS'even'
p1032
a(lp1033
g1023
ag1032
aaa(lp1034
I1364
aI1367
ag1032
a(lp1035
g1014
ag1032
aaa(lp1036
I1364
aI1367
ag1032
a(lp1037
g1005
ag1032
aaa(lp1038
I1364
aI1367
ag1032
a(lp1039
g996
ag1032
aaa(lp1040
I1376
aI1381
aS'manage'
p1041
a(lp1042
g1032
ag1041
aaa(lp1043
I1376
aI1381
ag1041
a(lp1044
g1023
ag1041
aaa(lp1045
I1376
aI1381
ag1041
a(lp1046
g1014
ag1041
aaa(lp1047
I1376
aI1381
ag1041
a(lp1048
g1005
ag1041
aaa(lp1049
I1386
aI1392
aS'connect'
p1050
a(lp1051
g1041
ag1050
aaa(lp1052
I1386
aI1392
ag1050
a(lp1053
g1032
ag1050
aaa(lp1054
I1386
aI1392
ag1050
a(lp1055
g1023
ag1050
aaa(lp1056
I1386
aI1392
ag1050
a(lp1057
g1014
ag1050
aaa(lp1058
I1397
aI1399
aS'one'
p1059
a(lp1060
g1050
ag1059
aaa(lp1061
I1397
aI1399
ag1059
a(lp1062
g1041
ag1059
aaa(lp1063
I1397
aI1399
ag1059
a(lp1064
g1032
ag1059
aaa(lp1065
I1397
aI1399
ag1059
a(lp1066
g1023
ag1059
aaa(lp1067
I1406
aI1409
aS'high'
p1068
a(lp1069
g1059
ag1068
aaa(lp1070
I1406
aI1409
ag1068
a(lp1071
g1050
ag1068
aaa(lp1072
I1406
aI1409
ag1068
a(lp1073
g1041
ag1068
aaa(lp1074
I1406
aI1409
ag1068
a(lp1075
g1032
ag1068
aaa(lp1076
I1411
aI1417
aS'traffic'
p1077
a(lp1078
g1068
ag1077
aaa(lp1079
I1411
aI1417
ag1077
a(lp1080
g1059
ag1077
aaa(lp1081
I1411
aI1417
ag1077
a(lp1082
g1050
ag1077
aaa(lp1083
I1411
aI1417
ag1077
a(lp1084
g1041
ag1077
aaa(lp1085
I1419
aI1423
aS'might'
p1086
a(lp1087
g1077
ag1086
aaa(lp1088
I1419
aI1423
ag1086
a(lp1089
g1068
ag1086
aaa(lp1090
I1419
aI1423
ag1086
a(lp1091
g1059
ag1086
aaa(lp1092
I1419
aI1423
ag1086
a(lp1093
g1050
ag1086
aaa(lp1094
I1425
aI1430
aS'impair'
p1095
a(lp1096
g1086
ag1095
aaa(lp1097
I1425
aI1430
ag1095
a(lp1098
g1077
ag1095
aaa(lp1099
I1425
aI1430
ag1095
a(lp1100
g1068
ag1095
aaa(lp1101
I1425
aI1430
ag1095
a(lp1102
g1059
ag1095
aaa(lp1103
I1436
aI1448
aS'functionality'
p1104
a(lp1105
g1095
ag1104
aaa(lp1106
I1436
aI1448
ag1104
a(lp1107
g1086
ag1104
aaa(lp1108
I1436
aI1448
ag1104
a(lp1109
g1077
ag1104
aaa(lp1110
I1436
aI1448
ag1104
a(lp1111
g1068
ag1104
aaa(lp1112
I1459
aI1463
aS'cases'
p1113
a(lp1114
g1104
ag1113
aaa(lp1115
I1459
aI1463
ag1113
a(lp1116
g1095
ag1113
aaa(lp1117
I1459
aI1463
ag1113
a(lp1118
g1086
ag1113
aaa(lp1119
I1459
aI1463
ag1113
a(lp1120
g1077
ag1113
aaa(lp1121
I1465
aI1471
aS'causing'
p1122
a(lp1123
g1113
ag1122
aaa(lp1124
I1465
aI1471
ag1122
a(lp1125
g1104
ag1122
aaa(lp1126
I1465
aI1471
ag1122
a(lp1127
g1095
ag1122
aaa(lp1128
I1465
aI1471
ag1122
a(lp1129
g1086
ag1122
aaa(lp1130
I1476
aI1477
aS'crash'
p1131
a(lp1132
g1122
ag1131
aaa(lp1133
I1476
aI1477
ag1131
a(lp1134
g1113
ag1131
aaa(lp1135
I1476
aI1477
ag1131
a(lp1136
g1104
ag1131
aaa(lp1137
I1476
aI1477
ag1131
a(lp1138
g1095
ag1131
aaasS'wordMap'
p1139
(lp1140
(lp1141
I0
aI0
ag5
a(lp1142
(lp1143
I0
ag5
aaaa(lp1144
I2
aI7
ag15
a(lp1145
(lp1146
I2
aS'e'
p1147
aa(lp1148
I3
aS'x'
p1149
aa(lp1150
I4
aS't'
p1151
aa(lp1152
I5
aS'r'
p1153
aa(lp1154
I6
aS'a'
p1155
aa(lp1156
I7
aS's'
p1157
aaaa(lp1158
I9
aI11
aS'how'
p1159
a(lp1160
(lp1161
I9
aS'h'
p1162
aa(lp1163
I10
aS'o'
p1164
aa(lp1165
I11
aS'w'
p1166
aaaa(lp1167
I13
aI14
aS'is'
p1168
a(lp1169
(lp1170
I13
aS'i'
p1171
aa(lp1172
I14
ag1157
aaaa(lp1173
I16
aI23
ag24
a(lp1174
(lp1175
I16
ag1166
aa(lp1176
I17
ag1155
aa(lp1177
I18
ag1151
aa(lp1178
I19
aS'c'
p1179
aa(lp1180
I20
ag1162
aa(lp1181
I21
ag1171
aa(lp1182
I22
aS'n'
p1183
aa(lp1184
I23
aS'g'
p1185
aaaa(lp1186
I25
aI28
ag33
a(lp1187
(lp1188
I25
aS'l'
p1189
aa(lp1190
I26
ag1171
aa(lp1191
I27
aS'v'
p1192
aa(lp1193
I28
ag1147
aaaa(lp1194
I30
aI37
ag42
a(lp1195
(lp1196
I30
aS'f'
p1197
aa(lp1198
I31
ag1164
aa(lp1199
I32
ag1164
aa(lp1200
I33
ag1151
aa(lp1201
I34
aS'b'
p1202
aa(lp1203
I35
ag1155
aa(lp1204
I36
ag1189
aa(lp1205
I37
ag1189
aaaa(lp1206
I39
aI46
ag51
a(lp1207
(lp1208
I39
aS'p'
p1209
aa(lp1210
I40
ag1164
aa(lp1211
I41
ag1157
aa(lp1212
I42
ag1157
aa(lp1213
I43
ag1171
aa(lp1214
I44
ag1202
aa(lp1215
I45
ag1189
aa(lp1216
I46
ag1147
aaaa(lp1217
I49
aI53
aS'there'
p1218
a(lp1219
(lp1220
I49
ag1151
aa(lp1221
I50
ag1162
aa(lp1222
I51
ag1147
aa(lp1223
I52
ag1153
aa(lp1224
I53
ag1147
aaaa(lp1225
I55
aI57
aS'are'
p1226
a(lp1227
(lp1228
I55
ag1155
aa(lp1229
I56
ag1153
aa(lp1230
I57
ag1147
aaaa(lp1231
I59
aI63
ag60
a(lp1232
(lp1233
I59
ag1157
aa(lp1234
I60
ag1151
aa(lp1235
I61
ag1171
aa(lp1236
I62
ag1189
aa(lp1237
I63
ag1189
aaaa(lp1238
I65
aI68
aS'more'
p1239
a(lp1240
(lp1241
I65
aS'm'
p1242
aa(lp1243
I66
ag1164
aa(lp1244
I67
ag1153
aa(lp1245
I68
ag1147
aaaa(lp1246
I70
aI73
aS'then'
p1247
a(lp1248
(lp1249
I70
ag1151
aa(lp1250
I71
ag1162
aa(lp1251
I72
ag1147
aa(lp1252
I73
ag1183
aaaa(lp1253
I75
aI75
ag1155
a(lp1254
(lp1255
I75
ag1155
aaaa(lp1256
I77
aI79
aS'few'
p1257
a(lp1258
(lp1259
I77
ag1197
aa(lp1260
I78
ag1147
aa(lp1261
I79
ag1166
aaaa(lp1262
I81
aI89
ag69
a(lp1263
(lp1264
I81
ag1179
aa(lp1265
I82
ag1164
aa(lp1266
I83
aS'u'
p1267
aa(lp1268
I84
ag1183
aa(lp1269
I85
ag1151
aa(lp1270
I86
ag1153
aa(lp1271
I87
ag1171
aa(lp1272
I88
ag1147
aa(lp1273
I89
ag1157
aaaa(lp1274
I91
aI96
ag78
a(lp1275
(lp1276
I91
ag1155
aa(lp1277
I92
ag1153
aa(lp1278
I93
ag1164
aa(lp1279
I94
ag1267
aa(lp1280
I95
ag1183
aa(lp1281
I96
aS'd'
p1282
aaaa(lp1283
I98
aI100
aS'the'
p1284
a(lp1285
(lp1286
I98
ag1151
aa(lp1287
I99
ag1162
aa(lp1288
I100
ag1147
aaaa(lp1289
I102
aI106
ag87
a(lp1290
(lp1291
I102
ag1166
aa(lp1292
I103
ag1164
aa(lp1293
I104
ag1153
aa(lp1294
I105
ag1189
aa(lp1295
I106
ag1282
aaaa(lp1296
I108
aI112
aS'where'
p1297
a(lp1298
(lp1299
I108
ag1166
aa(lp1300
I109
ag1162
aa(lp1301
I110
ag1147
aa(lp1302
I111
ag1153
aa(lp1303
I112
ag1147
aaaa(lp1304
I114
aI116
ag96
a(lp1305
(lp1306
I114
ag1209
aa(lp1307
I115
ag1209
aa(lp1308
I116
ag1192
aaaa(lp1309
I118
aI120
aS'has'
p1310
a(lp1311
(lp1312
I118
ag1162
aa(lp1313
I119
ag1155
aa(lp1314
I120
ag1157
aaaa(lp1315
I122
aI124
aS'not'
p1316
a(lp1317
(lp1318
I122
ag1183
aa(lp1319
I123
ag1164
aa(lp1320
I124
ag1151
aaaa(lp1321
I126
aI128
ag105
a(lp1322
(lp1323
I126
aS'y'
p1324
aa(lp1325
I127
ag1147
aa(lp1326
I128
ag1151
aaaa(lp1327
I130
aI133
aS'been'
p1328
a(lp1329
(lp1330
I130
ag1202
aa(lp1331
I131
ag1147
aa(lp1332
I132
ag1147
aa(lp1333
I133
ag1183
aaaa(lp1334
I135
aI145
ag114
a(lp1335
(lp1336
I135
ag1147
aa(lp1337
I136
ag1157
aa(lp1338
I137
ag1151
aa(lp1339
I138
ag1155
aa(lp1340
I139
ag1202
aa(lp1341
I140
ag1189
aa(lp1342
I141
ag1171
aa(lp1343
I142
ag1157
aa(lp1344
I143
ag1162
aa(lp1345
I144
ag1147
aa(lp1346
I145
ag1282
aaaa(lp1347
I148
aI150
aS'and'
p1348
a(lp1349
(lp1350
I148
ag1155
aa(lp1351
I149
ag1183
aa(lp1352
I150
ag1282
aaaa(lp1353
I152
aI159
ag123
a(lp1354
(lp1355
I152
ag1197
aa(lp1356
I153
ag1164
aa(lp1357
I154
ag1164
aa(lp1358
I155
ag1151
aa(lp1359
I156
ag1202
aa(lp1360
I157
ag1155
aa(lp1361
I158
ag1189
aa(lp1362
I159
ag1189
aaaa(lp1363
I161
aI162
aS'is'
p1364
a(lp1365
(lp1366
I161
ag1171
aa(lp1367
I162
ag1157
aaaa(lp1368
I164
aI172
ag132
a(lp1369
(lp1370
I164
ag1151
aa(lp1371
I165
ag1147
aa(lp1372
I166
ag1189
aa(lp1373
I167
ag1147
aa(lp1374
I168
ag1192
aa(lp1375
I169
ag1171
aa(lp1376
I170
ag1157
aa(lp1377
I171
ag1147
aa(lp1378
I172
ag1282
aaaa(lp1379
I174
aI176
aS'for'
p1380
a(lp1381
(lp1382
I174
ag1197
aa(lp1383
I175
ag1164
aa(lp1384
I176
ag1153
aaaa(lp1385
I178
aI181
ag141
a(lp1386
(lp1387
I178
ag1197
aa(lp1388
I179
ag1153
aa(lp1389
I180
ag1147
aa(lp1390
I181
ag1147
aaaa(lp1391
I184
aI193
ag150
a(lp1392
(lp1393
I184
ag1202
aa(lp1394
I185
ag1153
aa(lp1395
I186
ag1164
aa(lp1396
I187
ag1155
aa(lp1397
I188
ag1282
aa(lp1398
I189
ag1179
aa(lp1399
I190
ag1155
aa(lp1400
I191
ag1157
aa(lp1401
I192
ag1151
aa(lp1402
I193
ag1157
aaaa(lp1403
I195
aI196
aS'of'
p1404
a(lp1405
(lp1406
I195
ag1164
aa(lp1407
I196
ag1197
aaaa(lp1408
I198
aI201
aS'some'
p1409
a(lp1410
(lp1411
I198
ag1157
aa(lp1412
I199
ag1164
aa(lp1413
I200
ag1242
aa(lp1414
I201
ag1147
aaaa(lp1415
I203
aI204
aS'of'
p1416
a(lp1417
(lp1418
I203
ag1164
aa(lp1419
I204
ag1197
aaaa(lp1420
I206
aI208
aS'the'
p1421
a(lp1422
(lp1423
I206
ag1151
aa(lp1424
I207
ag1162
aa(lp1425
I208
ag1147
aaaa(lp1426
I210
aI211
ag159
a(lp1427
(lp1428
I210
ag1151
aa(lp1429
I211
ag1192
aaaa(lp1430
I213
aI220
ag168
a(lp1431
(lp1432
I213
ag1157
aa(lp1433
I214
ag1151
aa(lp1434
I215
ag1155
aa(lp1435
I216
ag1151
aa(lp1436
I217
ag1171
aa(lp1437
I218
ag1164
aa(lp1438
I219
ag1183
aa(lp1439
I220
ag1157
aaaa(lp1440
I222
aI223
aS'in'
p1441
a(lp1442
(lp1443
I222
ag1171
aa(lp1444
I223
ag1183
aaaa(lp1445
I225
aI229
aS'these'
p1446
a(lp1447
(lp1448
I225
ag1151
aa(lp1449
I226
ag1162
aa(lp1450
I227
ag1147
aa(lp1451
I228
ag1157
aa(lp1452
I229
ag1147
aaaa(lp1453
I231
aI239
ag177
a(lp1454
(lp1455
I231
ag1179
aa(lp1456
I232
ag1164
aa(lp1457
I233
ag1267
aa(lp1458
I234
ag1183
aa(lp1459
I235
ag1151
aa(lp1460
I236
ag1153
aa(lp1461
I237
ag1171
aa(lp1462
I238
ag1147
aa(lp1463
I239
ag1157
aaaa(lp1464
I241
aI243
aS'are'
p1465
a(lp1466
(lp1467
I241
ag1155
aa(lp1468
I242
ag1153
aa(lp1469
I243
ag1147
aaaa(lp1470
I245
aI253
ag186
a(lp1471
(lp1472
I245
ag1155
aa(lp1473
I246
ag1192
aa(lp1474
I247
ag1155
aa(lp1475
I248
ag1171
aa(lp1476
I249
ag1189
aa(lp1477
I250
ag1155
aa(lp1478
I251
ag1202
aa(lp1479
I252
ag1189
aa(lp1480
I253
ag1147
aaaa(lp1481
I255
aI257
ag195
a(lp1482
(lp1483
I255
ag1192
aa(lp1484
I256
ag1171
aa(lp1485
I257
ag1155
aaaa(lp1486
I259
aI263
ag204
a(lp1487
(lp1488
I259
ag1192
aa(lp1489
I260
ag1171
aa(lp1490
I261
ag1282
aa(lp1491
I262
ag1147
aa(lp1492
I263
ag1164
aaaa(lp1493
I265
aI271
ag213
a(lp1494
(lp1495
I265
ag1157
aa(lp1496
I266
ag1151
aa(lp1497
I267
ag1153
aa(lp1498
I268
ag1147
aa(lp1499
I269
ag1155
aa(lp1500
I270
ag1242
aa(lp1501
I271
ag1157
aaaa(lp1502
I273
aI274
aS'on'
p1503
a(lp1504
(lp1505
I273
ag1164
aa(lp1506
I274
ag1183
aaaa(lp1507
I276
aI278
aS'the'
p1508
a(lp1509
(lp1510
I276
ag1151
aa(lp1511
I277
ag1162
aa(lp1512
I278
ag1147
aaaa(lp1513
I280
aI287
ag222
a(lp1514
(lp1515
I280
ag1171
aa(lp1516
I281
ag1183
aa(lp1517
I282
ag1151
aa(lp1518
I283
ag1147
aa(lp1519
I284
ag1153
aa(lp1520
I285
ag1183
aa(lp1521
I286
ag1147
aa(lp1522
I287
ag1151
aaaa(lp1523
I290
aI292
aS'how'
p1524
a(lp1525
(lp1526
I290
ag1162
aa(lp1527
I291
ag1164
aa(lp1528
I292
ag1166
aaaa(lp1529
I294
aI297
ag231
a(lp1530
(lp1531
I294
ag1185
aa(lp1532
I295
ag1164
aa(lp1533
I296
ag1164
aa(lp1534
I297
ag1282
aaaa(lp1535
I299
aI300
aS'is'
p1536
a(lp1537
(lp1538
I299
ag1171
aa(lp1539
I300
ag1157
aaaa(lp1540
I302
aI304
aS'the'
p1541
a(lp1542
(lp1543
I302
ag1151
aa(lp1544
I303
ag1162
aa(lp1545
I304
ag1147
aaaa(lp1546
I306
aI312
ag240
a(lp1547
(lp1548
I306
aS'q'
p1549
aa(lp1550
I307
ag1267
aa(lp1551
I308
ag1155
aa(lp1552
I309
ag1189
aa(lp1553
I310
ag1171
aa(lp1554
I311
ag1151
aa(lp1555
I312
ag1324
aaaa(lp1556
I314
aI315
aS'of'
p1557
a(lp1558
(lp1559
I314
ag1164
aa(lp1560
I315
ag1197
aaaa(lp1561
I317
aI319
aS'the'
p1562
a(lp1563
(lp1564
I317
ag1151
aa(lp1565
I318
ag1162
aa(lp1566
I319
ag1147
aaaa(lp1567
I321
aI324
ag249
a(lp1568
(lp1569
I321
ag1189
aa(lp1570
I322
ag1171
aa(lp1571
I323
ag1192
aa(lp1572
I324
ag1147
aaaa(lp1573
I326
aI332
ag258
a(lp1574
(lp1575
I326
ag1157
aa(lp1576
I327
ag1151
aa(lp1577
I328
ag1153
aa(lp1578
I329
ag1147
aa(lp1579
I330
ag1155
aa(lp1580
I331
ag1242
aa(lp1581
I332
ag1157
aaaa(lp1582
I335
aI337
aS'the'
p1583
a(lp1584
(lp1585
I335
ag1151
aa(lp1586
I336
ag1162
aa(lp1587
I337
ag1147
aaaa(lp1588
I339
aI345
ag267
a(lp1589
(lp1590
I339
ag1549
aa(lp1591
I340
ag1267
aa(lp1592
I341
ag1155
aa(lp1593
I342
ag1189
aa(lp1594
I343
ag1171
aa(lp1595
I344
ag1151
aa(lp1596
I345
ag1324
aaaa(lp1597
I347
aI353
ag276
a(lp1598
(lp1599
I347
ag1282
aa(lp1600
I348
ag1147
aa(lp1601
I349
ag1209
aa(lp1602
I350
ag1147
aa(lp1603
I351
ag1183
aa(lp1604
I352
ag1282
aa(lp1605
I353
ag1157
aaaa(lp1606
I355
aI356
aS'on'
p1607
a(lp1608
(lp1609
I355
ag1164
aa(lp1610
I356
ag1183
aaaa(lp1611
I358
aI360
aS'the'
p1612
a(lp1613
(lp1614
I358
ag1151
aa(lp1615
I359
ag1162
aa(lp1616
I360
ag1147
aaaa(lp1617
I362
aI365
ag285
a(lp1618
(lp1619
I362
ag1153
aa(lp1620
I363
ag1155
aa(lp1621
I364
ag1151
aa(lp1622
I365
ag1147
aaaa(lp1623
I367
aI368
aS'at'
p1624
a(lp1625
(lp1626
I367
ag1155
aa(lp1627
I368
ag1151
aaaa(lp1628
I370
aI374
aS'which'
p1629
a(lp1630
(lp1631
I370
ag1166
aa(lp1632
I371
ag1162
aa(lp1633
I372
ag1171
aa(lp1634
I373
ag1179
aa(lp1635
I374
ag1162
aaaa(lp1636
I376
aI380
ag294
a(lp1637
(lp1638
I376
ag1192
aa(lp1639
I377
ag1171
aa(lp1640
I378
ag1282
aa(lp1641
I379
ag1147
aa(lp1642
I380
ag1164
aaaa(lp1643
I382
aI388
ag303
a(lp1644
(lp1645
I382
ag1157
aa(lp1646
I383
ag1151
aa(lp1647
I384
ag1153
aa(lp1648
I385
ag1147
aa(lp1649
I386
ag1155
aa(lp1650
I387
ag1242
aa(lp1651
I388
ag1157
aaaa(lp1652
I390
aI392
aS'are'
p1653
a(lp1654
(lp1655
I390
ag1155
aa(lp1656
I391
ag1153
aa(lp1657
I392
ag1147
aaaa(lp1658
I394
aI404
ag312
a(lp1659
(lp1660
I394
ag1151
aa(lp1661
I395
ag1153
aa(lp1662
I396
ag1155
aa(lp1663
I397
ag1183
aa(lp1664
I398
ag1157
aa(lp1665
I399
ag1242
aa(lp1666
I400
ag1171
aa(lp1667
I401
ag1151
aa(lp1668
I402
ag1151
aa(lp1669
I403
ag1147
aa(lp1670
I404
ag1282
aaaa(lp1671
I407
aI410
aS'this'
p1672
a(lp1673
(lp1674
I407
ag1151
aa(lp1675
I408
ag1162
aa(lp1676
I409
ag1171
aa(lp1677
I410
ag1157
aaaa(lp1678
I412
aI418
ag321
a(lp1679
(lp1680
I412
ag1549
aa(lp1681
I413
ag1267
aa(lp1682
I414
ag1155
aa(lp1683
I415
ag1189
aa(lp1684
I416
ag1171
aa(lp1685
I417
ag1151
aa(lp1686
I418
ag1324
aaaa(lp1687
I420
aI421
aS'is'
p1688
a(lp1689
(lp1690
I420
ag1171
aa(lp1691
I421
ag1157
aaaa(lp1692
I423
aI430
ag330
a(lp1693
(lp1694
I423
ag1242
aa(lp1695
I424
ag1147
aa(lp1696
I425
ag1155
aa(lp1697
I426
ag1157
aa(lp1698
I427
ag1267
aa(lp1699
I428
ag1153
aa(lp1700
I429
ag1147
aa(lp1701
I430
ag1282
aaaa(lp1702
I432
aI433
aS'by'
p1703
a(lp1704
(lp1705
I432
ag1202
aa(lp1706
I433
ag1324
aaaa(lp1707
I435
aI437
aS'the'
p1708
a(lp1709
(lp1710
I435
ag1151
aa(lp1711
I436
ag1162
aa(lp1712
I437
ag1147
aaaa(lp1713
I439
aI442
aS'same'
p1714
a(lp1715
(lp1716
I439
ag1157
aa(lp1717
I440
ag1155
aa(lp1718
I441
ag1242
aa(lp1719
I442
ag1147
aaaa(lp1720
I444
aI448
ag339
a(lp1721
(lp1722
I444
ag1267
aa(lp1723
I445
ag1183
aa(lp1724
I446
ag1171
aa(lp1725
I447
ag1151
aa(lp1726
I448
ag1157
aaaa(lp1727
I450
aI458
ag348
a(lp1728
(lp1729
I450
ag1242
aa(lp1730
I451
ag1147
aa(lp1731
I452
ag1155
aa(lp1732
I453
ag1157
aa(lp1733
I454
ag1267
aa(lp1734
I455
ag1153
aa(lp1735
I456
ag1171
aa(lp1736
I457
ag1183
aa(lp1737
I458
ag1185
aaaa(lp1738
I460
aI462
aS'how'
p1739
a(lp1740
(lp1741
I460
ag1162
aa(lp1742
I461
ag1164
aa(lp1743
I462
ag1166
aaaa(lp1744
I464
aI468
ag357
a(lp1745
(lp1746
I464
ag1202
aa(lp1747
I465
ag1153
aa(lp1748
I466
ag1164
aa(lp1749
I467
ag1155
aa(lp1750
I468
ag1282
aaaa(lp1751
I470
aI472
aS'you'
p1752
a(lp1753
(lp1754
I470
ag1324
aa(lp1755
I471
ag1164
aa(lp1756
I472
ag1267
aaaa(lp1757
I474
aI481
ag366
a(lp1758
(lp1759
I474
ag1171
aa(lp1760
I475
ag1183
aa(lp1761
I476
ag1151
aa(lp1762
I477
ag1147
aa(lp1763
I478
ag1153
aa(lp1764
I479
ag1183
aa(lp1765
I480
ag1147
aa(lp1766
I481
ag1151
aaaa(lp1767
I483
aI492
ag375
a(lp1768
(lp1769
I483
ag1179
aa(lp1770
I484
ag1164
aa(lp1771
I485
ag1183
aa(lp1772
I486
ag1183
aa(lp1773
I487
ag1147
aa(lp1774
I488
ag1179
aa(lp1775
I489
ag1151
aa(lp1776
I490
ag1171
aa(lp1777
I491
ag1164
aa(lp1778
I492
ag1183
aaaa(lp1779
I494
aI495
aS'is'
p1780
a(lp1781
(lp1782
I494
ag1171
aa(lp1783
I495
ag1157
aaaa(lp1784
I498
aI503
ag384
a(lp1785
(lp1786
I498
aS'k'
p1787
aa(lp1788
I499
ag1202
aa(lp1789
I501
ag1157
aa(lp1790
I502
ag1147
aa(lp1791
I503
ag1179
aaaa(lp1792
I506
aI509
aS'most'
p1793
a(lp1794
(lp1795
I506
ag1242
aa(lp1796
I507
ag1164
aa(lp1797
I508
ag1157
aa(lp1798
I509
ag1151
aaaa(lp1799
I511
aI517
ag393
a(lp1800
(lp1801
I511
ag1157
aa(lp1802
I512
ag1151
aa(lp1803
I513
ag1153
aa(lp1804
I514
ag1147
aa(lp1805
I515
ag1155
aa(lp1806
I516
ag1242
aa(lp1807
I517
ag1157
aaaa(lp1808
I519
aI521
aS'are'
p1809
a(lp1810
(lp1811
I519
ag1155
aa(lp1812
I520
ag1153
aa(lp1813
I521
ag1147
aaaa(lp1814
I523
aI533
ag402
a(lp1815
(lp1816
I523
ag1151
aa(lp1817
I524
ag1153
aa(lp1818
I525
ag1155
aa(lp1819
I526
ag1183
aa(lp1820
I527
ag1157
aa(lp1821
I528
ag1242
aa(lp1822
I529
ag1171
aa(lp1823
I530
ag1151
aa(lp1824
I531
ag1151
aa(lp1825
I532
ag1147
aa(lp1826
I533
ag1282
aaaa(lp1827
I535
aI536
aS'at'
p1828
a(lp1829
(lp1830
I535
ag1155
aa(lp1831
I536
ag1151
aaaa(lp1832
I538
aI538
ag1155
a(lp1833
(lp1834
I538
ag1155
aaaa(lp1835
I540
aI546
ag411
a(lp1836
(lp1837
I540
ag1549
aa(lp1838
I541
ag1267
aa(lp1839
I542
ag1155
aa(lp1840
I543
ag1189
aa(lp1841
I544
ag1171
aa(lp1842
I545
ag1151
aa(lp1843
I546
ag1324
aaaa(lp1844
I548
aI549
aS'of'
p1845
a(lp1846
(lp1847
I548
ag1164
aa(lp1848
I549
ag1197
aaaa(lp1849
I551
aI557
aS'between'
p1850
a(lp1851
(lp1852
I551
ag1202
aa(lp1853
I552
ag1147
aa(lp1854
I553
ag1151
aa(lp1855
I554
ag1166
aa(lp1856
I555
ag1147
aa(lp1857
I556
ag1147
aa(lp1858
I557
ag1183
aaaa(lp1859
I559
aI567
ag420
a(lp1860
(lp1861
I559
aS'1'
p1862
aa(lp1863
I560
aS'0'
p1864
aa(lp1865
I561
ag1864
aa(lp1866
I562
ag1787
aa(lp1867
I563
ag1202
aa(lp1868
I565
ag1157
aa(lp1869
I566
ag1147
aa(lp1870
I567
ag1179
aaaa(lp1871
I569
aI571
aS'and'
p1872
a(lp1873
(lp1874
I569
ag1155
aa(lp1875
I570
ag1183
aa(lp1876
I571
ag1282
aaaa(lp1877
I573
aI575
ag429
a(lp1878
(lp1879
I573
aS'4'
p1880
aa(lp1881
I574
ag1864
aa(lp1882
I575
ag1864
aaaa(lp1883
I577
aI582
ag438
a(lp1884
(lp1885
I577
ag1787
aa(lp1886
I578
ag1202
aa(lp1887
I580
ag1157
aa(lp1888
I581
ag1147
aa(lp1889
I582
ag1179
aaaa(lp1890
I585
aI586
aS'so'
p1891
a(lp1892
(lp1893
I585
ag1157
aa(lp1894
I586
ag1164
aaaa(lp1895
I588
aI589
aS'if'
p1896
a(lp1897
(lp1898
I588
ag1171
aa(lp1899
I589
ag1197
aaaa(lp1900
I591
aI594
aS'your'
p1901
a(lp1902
(lp1903
I591
ag1324
aa(lp1904
I592
ag1164
aa(lp1905
I593
ag1267
aa(lp1906
I594
ag1153
aaaa(lp1907
I596
aI605
ag447
a(lp1908
(lp1909
I596
ag1179
aa(lp1910
I597
ag1164
aa(lp1911
I598
ag1183
aa(lp1912
I599
ag1183
aa(lp1913
I600
ag1147
aa(lp1914
I601
ag1179
aa(lp1915
I602
ag1151
aa(lp1916
I603
ag1171
aa(lp1917
I604
ag1164
aa(lp1918
I605
ag1183
aaaa(lp1919
I607
aI608
aS'is'
p1920
a(lp1921
(lp1922
I607
ag1171
aa(lp1923
I608
ag1157
aaaa(lp1924
I610
aI618
ag456
a(lp1925
(lp1926
I610
ag1157
aa(lp1927
I611
ag1164
aa(lp1928
I612
ag1242
aa(lp1929
I613
ag1147
aa(lp1930
I614
ag1166
aa(lp1931
I615
ag1162
aa(lp1932
I616
ag1147
aa(lp1933
I617
ag1153
aa(lp1934
I618
ag1147
aaaa(lp1935
I620
aI625
ag465
a(lp1936
(lp1937
I620
ag1155
aa(lp1938
I621
ag1153
aa(lp1939
I622
ag1164
aa(lp1940
I623
ag1267
aa(lp1941
I624
ag1183
aa(lp1942
I625
ag1282
aaaa(lp1943
I627
aI632
ag474
a(lp1944
(lp1945
I627
aS'7'
p1946
aa(lp1947
I628
aS'5'
p1948
aa(lp1949
I629
ag1864
aa(lp1950
I630
ag1787
aa(lp1951
I631
ag1202
aa(lp1952
I632
ag1157
aaaa(lp1953
I634
aI638
aS'there'
p1954
a(lp1955
(lp1956
I634
ag1151
aa(lp1957
I635
ag1162
aa(lp1958
I636
ag1147
aa(lp1959
I637
ag1153
aa(lp1960
I638
ag1147
aaaa(lp1961
I640
aI641
aS'is'
p1962
a(lp1963
(lp1964
I640
ag1171
aa(lp1965
I641
ag1157
aaaa(lp1966
I643
aI644
aS'no'
p1967
a(lp1968
(lp1969
I643
ag1183
aa(lp1970
I644
ag1164
aaaa(lp1971
I646
aI649
ag483
a(lp1972
(lp1973
I646
ag1183
aa(lp1974
I647
ag1147
aa(lp1975
I648
ag1147
aa(lp1976
I649
ag1282
aaaa(lp1977
I651
aI652
aS'to'
p1978
a(lp1979
(lp1980
I651
ag1151
aa(lp1981
I652
ag1164
aaaa(lp1982
I654
aI657
ag492
a(lp1983
(lp1984
I654
ag1153
aa(lp1985
I655
ag1267
aa(lp1986
I656
ag1157
aa(lp1987
I657
ag1162
aaaa(lp1988
I659
aI661
aS'off'
p1989
a(lp1990
(lp1991
I659
ag1164
aa(lp1992
I660
ag1197
aa(lp1993
I661
ag1197
aaaa(lp1994
I663
aI665
aS'and'
p1995
a(lp1996
(lp1997
I663
ag1155
aa(lp1998
I664
ag1183
aa(lp1999
I665
ag1282
aaaa(lp2000
I667
aI669
ag501
a(lp2001
(lp2002
I667
ag1209
aa(lp2003
I668
ag1155
aa(lp2004
I669
ag1324
aaaa(lp2005
I671
aI673
aS'for'
p2006
a(lp2007
(lp2008
I671
ag1197
aa(lp2009
I672
ag1164
aa(lp2010
I673
ag1153
aaaa(lp2011
I675
aI675
ag1155
a(lp2012
(lp2013
I675
ag1155
aaaa(lp2014
I677
aI683
ag510
a(lp2015
(lp2016
I677
ag1202
aa(lp2017
I678
ag1153
aa(lp2018
I679
ag1164
aa(lp2019
I680
ag1155
aa(lp2020
I681
ag1282
aa(lp2021
I682
ag1147
aa(lp2022
I683
ag1153
aaaa(lp2023
I685
aI694
ag519
a(lp2024
(lp2025
I685
ag1179
aa(lp2026
I686
ag1164
aa(lp2027
I687
ag1183
aa(lp2028
I688
ag1183
aa(lp2029
I689
ag1147
aa(lp2030
I690
ag1179
aa(lp2031
I691
ag1151
aa(lp2032
I692
ag1171
aa(lp2033
I693
ag1164
aa(lp2034
I694
ag1183
aaaa(lp2035
I696
aI702
ag528
a(lp2036
(lp2037
I696
ag1209
aa(lp2038
I697
ag1155
aa(lp2039
I698
ag1179
aa(lp2040
I699
ag1787
aa(lp2041
I700
ag1155
aa(lp2042
I701
ag1185
aa(lp2043
I702
ag1147
aaaa(lp2044
I705
aI713
ag537
a(lp2045
(lp2046
I705
ag1880
aa(lp2047
I706
ag1864
aa(lp2048
I707
ag1864
aa(lp2049
I708
ag1787
aa(lp2050
I709
ag1202
aa(lp2051
I711
ag1157
aa(lp2052
I712
ag1147
aa(lp2053
I713
ag1179
aaaa(lp2054
I715
aI716
aS'is'
p2055
a(lp2056
(lp2057
I715
ag1171
aa(lp2058
I716
ag1157
aaaa(lp2059
I718
aI721
aS'more'
p2060
a(lp2061
(lp2062
I718
ag1242
aa(lp2063
I719
ag1164
aa(lp2064
I720
ag1153
aa(lp2065
I721
ag1147
aaaa(lp2066
I723
aI724
aS'or'
p2067
a(lp2068
(lp2069
I723
ag1164
aa(lp2070
I724
ag1153
aaaa(lp2071
I726
aI729
ag546
a(lp2072
(lp2073
I726
ag1189
aa(lp2074
I727
ag1147
aa(lp2075
I728
ag1157
aa(lp2076
I729
ag1157
aaaa(lp2077
I731
aI733
aS'the'
p2078
a(lp2079
(lp2080
I731
ag1151
aa(lp2081
I732
ag1162
aa(lp2082
I733
ag1147
aaaa(lp2083
I735
aI738
ag555
a(lp2084
(lp2085
I735
ag1153
aa(lp2086
I736
ag1155
aa(lp2087
I737
ag1151
aa(lp2088
I738
ag1147
aaaa(lp2089
I740
aI741
aS'at'
p2090
a(lp2091
(lp2092
I740
ag1155
aa(lp2093
I741
ag1151
aaaa(lp2094
I743
aI747
aS'which'
p2095
a(lp2096
(lp2097
I743
ag1166
aa(lp2098
I744
ag1162
aa(lp2099
I745
ag1171
aa(lp2100
I746
ag1179
aa(lp2101
I747
ag1162
aaaa(lp2102
I749
aI750
aS'it'
p2103
a(lp2104
(lp2105
I749
ag1171
aa(lp2106
I750
ag1151
aaaa(lp2107
I752
aI753
aS'is'
p2108
a(lp2109
(lp2110
I752
ag1171
aa(lp2111
I753
ag1157
aaaa(lp2112
I755
aI762
ag564
a(lp2113
(lp2114
I755
ag1209
aa(lp2115
I756
ag1164
aa(lp2116
I757
ag1157
aa(lp2117
I758
ag1157
aa(lp2118
I759
ag1171
aa(lp2119
I760
ag1202
aa(lp2120
I761
ag1189
aa(lp2121
I762
ag1147
aaaa(lp2122
I764
aI765
aS'to'
p2123
a(lp2124
(lp2125
I764
ag1151
aa(lp2126
I765
ag1164
aaaa(lp2127
I767
aI771
ag573
a(lp2128
(lp2129
I767
ag1166
aa(lp2130
I768
ag1155
aa(lp2131
I769
ag1151
aa(lp2132
I770
ag1179
aa(lp2133
I771
ag1162
aaaa(lp2134
I773
aI775
aS'the'
p2135
a(lp2136
(lp2137
I773
ag1151
aa(lp2138
I774
ag1162
aa(lp2139
I775
ag1147
aaaa(lp2140
I777
aI781
ag582
a(lp2141
(lp2142
I777
ag1192
aa(lp2143
I778
ag1171
aa(lp2144
I779
ag1282
aa(lp2145
I780
ag1147
aa(lp2146
I781
ag1164
aaaa(lp2147
I783
aI788
ag591
a(lp2148
(lp2149
I783
ag1157
aa(lp2150
I784
ag1151
aa(lp2151
I785
ag1153
aa(lp2152
I786
ag1147
aa(lp2153
I787
ag1155
aa(lp2154
I788
ag1242
aaaa(lp2155
I790
aI791
aS'on'
p2156
a(lp2157
(lp2158
I790
ag1164
aa(lp2159
I791
ag1183
aaaa(lp2160
I793
aI793
ag1155
a(lp2161
(lp2162
I793
ag1155
aaaa(lp2163
I795
aI798
ag600
a(lp2164
(lp2165
I795
ag1197
aa(lp2166
I796
ag1267
aa(lp2167
I797
ag1189
aa(lp2168
I798
ag1189
aaaa(lp2169
I800
aI805
ag609
a(lp2170
(lp2171
I800
ag1157
aa(lp2172
I801
ag1179
aa(lp2173
I802
ag1153
aa(lp2174
I803
ag1147
aa(lp2175
I804
ag1147
aa(lp2176
I805
ag1183
aaaa(lp2177
I807
aI808
aS'in'
p2178
a(lp2179
(lp2180
I807
ag1171
aa(lp2181
I808
ag1183
aaaa(lp2182
I810
aI819
ag618
a(lp2183
(lp2184
I810
ag1153
aa(lp2185
I811
ag1147
aa(lp2186
I812
ag1155
aa(lp2187
I813
ag1157
aa(lp2188
I814
ag1164
aa(lp2189
I815
ag1183
aa(lp2190
I816
ag1155
aa(lp2191
I817
ag1202
aa(lp2192
I818
ag1189
aa(lp2193
I819
ag1147
aaaa(lp2194
I821
aI827
ag627
a(lp2195
(lp2196
I821
ag1549
aa(lp2197
I822
ag1267
aa(lp2198
I823
ag1155
aa(lp2199
I824
ag1189
aa(lp2200
I825
ag1171
aa(lp2201
I826
ag1151
aa(lp2202
I827
ag1324
aaaa(lp2203
I830
aI832
aS'for'
p2204
a(lp2205
(lp2206
I830
ag1197
aa(lp2207
I831
ag1164
aa(lp2208
I832
ag1153
aaaa(lp2209
I834
aI840
ag636
a(lp2210
(lp2211
I834
ag1549
aa(lp2212
I835
ag1267
aa(lp2213
I836
ag1155
aa(lp2214
I837
ag1189
aa(lp2215
I838
ag1171
aa(lp2216
I839
ag1151
aa(lp2217
I840
ag1324
aaaa(lp2218
I842
aI847
ag645
a(lp2219
(lp2220
I842
ag1189
aa(lp2221
I843
ag1147
aa(lp2222
I844
ag1157
aa(lp2223
I845
ag1157
aa(lp2224
I846
ag1147
aa(lp2225
I847
ag1153
aaaa(lp2226
I849
aI852
aS'than'
p2227
a(lp2228
(lp2229
I849
ag1151
aa(lp2230
I850
ag1162
aa(lp2231
I851
ag1155
aa(lp2232
I852
ag1183
aaaa(lp2233
I854
aI857
aS'that'
p2234
a(lp2235
(lp2236
I854
ag1151
aa(lp2237
I855
ag1162
aa(lp2238
I856
ag1155
aa(lp2239
I857
ag1151
aaaa(lp2240
I860
aI862
aS'the'
p2241
a(lp2242
(lp2243
I860
ag1151
aa(lp2244
I861
ag1162
aa(lp2245
I862
ag1147
aaaa(lp2246
I864
aI867
ag654
a(lp2247
(lp2248
I864
ag1157
aa(lp2249
I865
ag1171
aa(lp2250
I866
aS'z'
p2251
aa(lp2252
I867
ag1147
aaaa(lp2253
I869
aI870
aS'of'
p2254
a(lp2255
(lp2256
I869
ag1164
aa(lp2257
I870
ag1197
aaaa(lp2258
I872
aI874
aS'the'
p2259
a(lp2260
(lp2261
I872
ag1151
aa(lp2262
I873
ag1162
aa(lp2263
I874
ag1147
aaaa(lp2264
I876
aI880
ag663
a(lp2265
(lp2266
I876
ag1242
aa(lp2267
I877
ag1147
aa(lp2268
I878
ag1282
aa(lp2269
I879
ag1171
aa(lp2270
I880
ag1155
aaaa(lp2271
I882
aI889
ag672
a(lp2272
(lp2273
I882
ag1209
aa(lp2274
I883
ag1189
aa(lp2275
I884
ag1155
aa(lp2276
I885
ag1324
aa(lp2277
I886
ag1147
aa(lp2278
I887
ag1153
aa(lp2279
I889
ag1157
aaaa(lp2280
I891
aI896
ag681
a(lp2281
(lp2282
I891
ag1166
aa(lp2283
I892
ag1171
aa(lp2284
I893
ag1183
aa(lp2285
I894
ag1282
aa(lp2286
I895
ag1164
aa(lp2287
I896
ag1166
aaaa(lp2288
I898
aI900
aS'has'
p2289
a(lp2290
(lp2291
I898
ag1162
aa(lp2292
I899
ag1155
aa(lp2293
I900
ag1157
aaaa(lp2294
I902
aI903
aS'to'
p2295
a(lp2296
(lp2297
I902
ag1151
aa(lp2298
I903
ag1164
aaaa(lp2299
I905
aI906
aS'be'
p2300
a(lp2301
(lp2302
I905
ag1202
aa(lp2303
I906
ag1147
aaaa(lp2304
I908
aI914
ag690
a(lp2305
(lp2306
I908
ag1153
aa(lp2307
I909
ag1147
aa(lp2308
I910
ag1282
aa(lp2309
I911
ag1267
aa(lp2310
I912
ag1179
aa(lp2311
I913
ag1147
aa(lp2312
I914
ag1282
aaaa(lp2313
I917
aI922
ag699
a(lp2314
(lp2315
I917
ag1157
aa(lp2316
I918
ag1164
aa(lp2317
I919
ag1267
aa(lp2318
I920
ag1183
aa(lp2319
I921
ag1282
aa(lp2320
I922
ag1157
aaaa(lp2321
I924
aI926
aS'too'
p2322
a(lp2323
(lp2324
I924
ag1151
aa(lp2325
I925
ag1164
aa(lp2326
I926
ag1164
aaaa(lp2327
I928
aI931
ag708
a(lp2328
(lp2329
I928
ag1185
aa(lp2330
I929
ag1164
aa(lp2331
I930
ag1164
aa(lp2332
I931
ag1282
aaaa(lp2333
I933
aI934
aS'to'
p2334
a(lp2335
(lp2336
I933
ag1151
aa(lp2337
I934
ag1164
aaaa(lp2338
I936
aI937
aS'be'
p2339
a(lp2340
(lp2341
I936
ag1202
aa(lp2342
I937
ag1147
aaaa(lp2343
I939
aI942
ag717
a(lp2344
(lp2345
I939
ag1151
aa(lp2346
I940
ag1153
aa(lp2347
I941
ag1267
aa(lp2348
I942
ag1147
aaaa(lp2349
I945
aI949
aS'while'
p2350
a(lp2351
(lp2352
I945
ag1166
aa(lp2353
I946
ag1162
aa(lp2354
I947
ag1171
aa(lp2355
I948
ag1189
aa(lp2356
I949
ag1147
aaaa(lp2357
I951
aI954
aS'this'
p2358
a(lp2359
(lp2360
I951
ag1151
aa(lp2361
I952
ag1162
aa(lp2362
I953
ag1171
aa(lp2363
I954
ag1157
aaaa(lp2364
I956
aI961
ag726
a(lp2365
(lp2366
I956
ag1242
aa(lp2367
I957
ag1147
aa(lp2368
I958
ag1151
aa(lp2369
I959
ag1162
aa(lp2370
I960
ag1164
aa(lp2371
I961
ag1282
aaaa(lp2372
I963
aI967
ag735
a(lp2373
(lp2374
I963
ag1242
aa(lp2375
I964
ag1171
aa(lp2376
I965
ag1185
aa(lp2377
I966
ag1162
aa(lp2378
I967
ag1151
aaaa(lp2379
I969
aI970
aS'be'
p2380
a(lp2381
(lp2382
I969
ag1202
aa(lp2383
I970
ag1147
aaaa(lp2384
I972
aI972
ag1155
a(lp2385
(lp2386
I972
ag1155
aaaa(lp2387
I974
aI977
ag744
a(lp2388
(lp2389
I974
ag1185
aa(lp2390
I975
ag1164
aa(lp2391
I976
ag1164
aa(lp2392
I977
ag1282
aaaa(lp2393
I979
aI989
ag753
a(lp2394
(lp2395
I979
ag1155
aa(lp2396
I980
ag1189
aa(lp2397
I981
ag1151
aa(lp2398
I982
ag1147
aa(lp2399
I983
ag1153
aa(lp2400
I984
ag1183
aa(lp2401
I985
ag1155
aa(lp2402
I986
ag1151
aa(lp2403
I987
ag1171
aa(lp2404
I988
ag1192
aa(lp2405
I989
ag1147
aaaa(lp2406
I991
aI992
aS'to'
p2407
a(lp2408
(lp2409
I991
ag1151
aa(lp2410
I992
ag1164
aaaa(lp2411
I994
aI996
aS'the'
p2412
a(lp2413
(lp2414
I994
ag1151
aa(lp2415
I995
ag1162
aa(lp2416
I996
ag1147
aaaa(lp2417
I998
aI1001
ag762
a(lp2418
(lp2419
I998
ag1185
aa(lp2420
I999
ag1164
aa(lp2421
I1000
ag1164
aa(lp2422
I1001
ag1282
aaaa(lp2423
I1003
aI1005
ag771
a(lp2424
(lp2425
I1003
ag1164
aa(lp2426
I1004
ag1189
aa(lp2427
I1005
ag1282
aaaa(lp2428
I1007
aI1008
ag780
a(lp2429
(lp2430
I1007
ag1151
aa(lp2431
I1008
ag1192
aaaa(lp2432
I1010
aI1012
ag789
a(lp2433
(lp2434
I1010
ag1157
aa(lp2435
I1011
ag1147
aa(lp2436
I1012
ag1151
aaaa(lp2437
I1015
aI1019
aS'there'
p2438
a(lp2439
(lp2440
I1015
ag1151
aa(lp2441
I1016
ag1162
aa(lp2442
I1017
ag1147
aa(lp2443
I1018
ag1153
aa(lp2444
I1019
ag1147
aaaa(lp2445
I1021
aI1023
aS'are'
p2446
a(lp2447
(lp2448
I1021
ag1155
aa(lp2449
I1022
ag1153
aa(lp2450
I1023
ag1147
aaaa(lp2451
I1025
aI1029
ag798
a(lp2452
(lp2453
I1025
ag1157
aa(lp2454
I1026
ag1151
aa(lp2455
I1027
ag1171
aa(lp2456
I1028
ag1189
aa(lp2457
I1029
ag1189
aaaa(lp2458
I1031
aI1034
aS'some'
p2459
a(lp2460
(lp2461
I1031
ag1157
aa(lp2462
I1032
ag1164
aa(lp2463
I1033
ag1242
aa(lp2464
I1034
ag1147
aaaa(lp2465
I1036
aI1043
ag807
a(lp2466
(lp2467
I1036
ag1209
aa(lp2468
I1037
ag1153
aa(lp2469
I1038
ag1164
aa(lp2470
I1039
ag1202
aa(lp2471
I1040
ag1189
aa(lp2472
I1041
ag1147
aa(lp2473
I1042
ag1242
aa(lp2474
I1043
ag1157
aaaa(lp2475
I1045
aI1054
ag816
a(lp2476
(lp2477
I1045
ag1155
aa(lp2478
I1046
ag1157
aa(lp2479
I1047
ag1157
aa(lp2480
I1048
ag1164
aa(lp2481
I1049
ag1179
aa(lp2482
I1050
ag1171
aa(lp2483
I1051
ag1155
aa(lp2484
I1052
ag1151
aa(lp2485
I1053
ag1147
aa(lp2486
I1054
ag1282
aaaa(lp2487
I1056
aI1059
aS'with'
p2488
a(lp2489
(lp2490
I1056
ag1166
aa(lp2491
I1057
ag1171
aa(lp2492
I1058
ag1151
aa(lp2493
I1059
ag1162
aaaa(lp2494
I1061
aI1062
aS'it'
p2495
a(lp2496
(lp2497
I1061
ag1171
aa(lp2498
I1062
ag1151
aaaa(lp2499
I1065
aI1072
ag825
a(lp2500
(lp2501
I1065
ag1242
aa(lp2502
I1066
ag1171
aa(lp2503
I1067
ag1189
aa(lp2504
I1068
ag1189
aa(lp2505
I1069
ag1171
aa(lp2506
I1070
ag1164
aa(lp2507
I1071
ag1183
aa(lp2508
I1072
ag1157
aaaa(lp2509
I1074
aI1075
aS'of'
p2510
a(lp2511
(lp2512
I1074
ag1164
aa(lp2513
I1075
ag1197
aaaa(lp2514
I1077
aI1082
ag834
a(lp2515
(lp2516
I1077
ag1209
aa(lp2517
I1078
ag1147
aa(lp2518
I1079
ag1164
aa(lp2519
I1080
ag1209
aa(lp2520
I1081
ag1189
aa(lp2521
I1082
ag1147
aaaa(lp2522
I1084
aI1089
ag843
a(lp2523
(lp2524
I1084
ag1155
aa(lp2525
I1085
ag1153
aa(lp2526
I1086
ag1164
aa(lp2527
I1087
ag1267
aa(lp2528
I1088
ag1183
aa(lp2529
I1089
ag1282
aaaa(lp2530
I1091
aI1093
aS'the'
p2531
a(lp2532
(lp2533
I1091
ag1151
aa(lp2534
I1092
ag1162
aa(lp2535
I1093
ag1147
aaaa(lp2536
I1095
aI1099
ag852
a(lp2537
(lp2538
I1095
ag1166
aa(lp2539
I1096
ag1164
aa(lp2540
I1097
ag1153
aa(lp2541
I1098
ag1189
aa(lp2542
I1099
ag1282
aaaa(lp2543
I1101
aI1103
aS'are'
p2544
a(lp2545
(lp2546
I1101
ag1155
aa(lp2547
I1102
ag1153
aa(lp2548
I1103
ag1147
aaaa(lp2549
I1105
aI1110
ag861
a(lp2550
(lp2551
I1105
ag1151
aa(lp2552
I1106
ag1153
aa(lp2553
I1107
ag1324
aa(lp2554
I1108
ag1171
aa(lp2555
I1109
ag1183
aa(lp2556
I1110
ag1185
aaaa(lp2557
I1112
aI1113
aS'to'
p2558
a(lp2559
(lp2560
I1112
ag1151
aa(lp2561
I1113
ag1164
aaaa(lp2562
I1115
aI1121
ag870
a(lp2563
(lp2564
I1115
ag1179
aa(lp2565
I1116
ag1164
aa(lp2566
I1117
ag1183
aa(lp2567
I1118
ag1183
aa(lp2568
I1119
ag1147
aa(lp2569
I1120
ag1179
aa(lp2570
I1121
ag1151
aaaa(lp2571
I1123
aI1124
aS'to'
p2572
a(lp2573
(lp2574
I1123
ag1151
aa(lp2575
I1124
ag1164
aaaa(lp2576
I1126
aI1128
aS'the'
p2577
a(lp2578
(lp2579
I1126
ag1151
aa(lp2580
I1127
ag1162
aa(lp2581
I1128
ag1147
aaaa(lp2582
I1130
aI1136
ag879
a(lp2583
(lp2584
I1130
ag1157
aa(lp2585
I1131
ag1147
aa(lp2586
I1132
ag1153
aa(lp2587
I1133
ag1192
aa(lp2588
I1134
ag1147
aa(lp2589
I1135
ag1153
aa(lp2590
I1136
ag1157
aaaa(lp2591
I1138
aI1149
ag888
a(lp2592
(lp2593
I1138
ag1202
aa(lp2594
I1139
ag1153
aa(lp2595
I1140
ag1164
aa(lp2596
I1141
ag1155
aa(lp2597
I1142
ag1282
aa(lp2598
I1143
ag1179
aa(lp2599
I1144
ag1155
aa(lp2600
I1145
ag1157
aa(lp2601
I1146
ag1151
aa(lp2602
I1147
ag1171
aa(lp2603
I1148
ag1183
aa(lp2604
I1149
ag1185
aaaa(lp2605
I1151
aI1153
aS'the'
p2606
a(lp2607
(lp2608
I1151
ag1151
aa(lp2609
I1152
ag1162
aa(lp2610
I1153
ag1147
aaaa(lp2611
I1155
aI1161
ag897
a(lp2612
(lp2613
I1155
ag1157
aa(lp2614
I1156
ag1151
aa(lp2615
I1157
ag1153
aa(lp2616
I1158
ag1147
aa(lp2617
I1159
ag1155
aa(lp2618
I1160
ag1242
aa(lp2619
I1161
ag1157
aaaa(lp2620
I1164
aI1167
aS'just'
p2621
a(lp2622
(lp2623
I1164
aS'j'
p2624
aa(lp2625
I1165
ag1267
aa(lp2626
I1166
ag1157
aa(lp2627
I1167
ag1151
aaaa(lp2628
I1169
aI1170
aS'as'
p2629
a(lp2630
(lp2631
I1169
ag1155
aa(lp2632
I1170
ag1157
aaaa(lp2633
I1172
aI1174
aS'you'
p2634
a(lp2635
(lp2636
I1172
ag1324
aa(lp2637
I1173
ag1164
aa(lp2638
I1174
ag1267
aaaa(lp2639
I1176
aI1178
aS'are'
p2640
a(lp2641
(lp2642
I1176
ag1155
aa(lp2643
I1177
ag1153
aa(lp2644
I1178
ag1147
aaaa(lp2645
I1181
aI1185
aS'these'
p2646
a(lp2647
(lp2648
I1181
ag1151
aa(lp2649
I1182
ag1162
aa(lp2650
I1183
ag1147
aa(lp2651
I1184
ag1157
aa(lp2652
I1185
ag1147
aaaa(lp2653
I1187
aI1193
ag906
a(lp2654
(lp2655
I1187
ag1157
aa(lp2656
I1188
ag1147
aa(lp2657
I1189
ag1153
aa(lp2658
I1190
ag1192
aa(lp2659
I1191
ag1147
aa(lp2660
I1192
ag1153
aa(lp2661
I1193
ag1157
aaaa(lp2662
I1195
aI1197
aS'are'
p2663
a(lp2664
(lp2665
I1195
ag1155
aa(lp2666
I1196
ag1153
aa(lp2667
I1197
ag1147
aaaa(lp2668
I1199
aI1201
aS'not'
p2669
a(lp2670
(lp2671
I1199
ag1183
aa(lp2672
I1200
ag1164
aa(lp2673
I1201
ag1151
aaaa(lp2674
I1203
aI1210
ag915
a(lp2675
(lp2676
I1203
ag1282
aa(lp2677
I1204
ag1147
aa(lp2678
I1205
ag1157
aa(lp2679
I1206
ag1171
aa(lp2680
I1207
ag1185
aa(lp2681
I1208
ag1183
aa(lp2682
I1209
ag1147
aa(lp2683
I1210
ag1282
aaaa(lp2684
I1212
aI1213
aS'to'
p2685
a(lp2686
(lp2687
I1212
ag1151
aa(lp2688
I1213
ag1164
aaaa(lp2689
I1215
aI1221
ag924
a(lp2690
(lp2691
I1215
ag1157
aa(lp2692
I1216
ag1267
aa(lp2693
I1217
ag1209
aa(lp2694
I1218
ag1209
aa(lp2695
I1219
ag1164
aa(lp2696
I1220
ag1153
aa(lp2697
I1221
ag1151
aaaa(lp2698
I1223
aI1226
aS'such'
p2699
a(lp2700
(lp2701
I1223
ag1157
aa(lp2702
I1224
ag1267
aa(lp2703
I1225
ag1179
aa(lp2704
I1226
ag1162
aaaa(lp2705
I1228
aI1228
ag1155
a(lp2706
(lp2707
I1228
ag1155
aaaa(lp2708
I1230
aI1234
ag933
a(lp2709
(lp2710
I1230
ag1189
aa(lp2711
I1231
ag1155
aa(lp2712
I1232
ag1153
aa(lp2713
I1233
ag1185
aa(lp2714
I1234
ag1147
aaaa(lp2715
I1236
aI1241
ag942
a(lp2716
(lp2717
I1236
ag1183
aa(lp2718
I1237
ag1267
aa(lp2719
I1238
ag1242
aa(lp2720
I1239
ag1202
aa(lp2721
I1240
ag1147
aa(lp2722
I1241
ag1153
aaaa(lp2723
I1243
aI1244
aS'of'
p2724
a(lp2725
(lp2726
I1243
ag1164
aa(lp2727
I1244
ag1197
aaaa(lp2728
I1246
aI1250
ag951
a(lp2729
(lp2730
I1246
ag1267
aa(lp2731
I1247
ag1157
aa(lp2732
I1248
ag1147
aa(lp2733
I1249
ag1153
aa(lp2734
I1250
ag1157
aaaa(lp2735
I1253
aI1254
aS'so'
p2736
a(lp2737
(lp2738
I1253
ag1157
aa(lp2739
I1254
ag1164
aaaa(lp2740
I1256
aI1258
aS'the'
p2741
a(lp2742
(lp2743
I1256
ag1151
aa(lp2744
I1257
ag1162
aa(lp2745
I1258
ag1147
aaaa(lp2746
I1260
aI1263
ag960
a(lp2747
(lp2748
I1260
ag1189
aa(lp2749
I1261
ag1164
aa(lp2750
I1262
ag1155
aa(lp2751
I1263
ag1282
aaaa(lp2752
I1265
aI1266
aS'on'
p2753
a(lp2754
(lp2755
I1265
ag1164
aa(lp2756
I1266
ag1183
aaaa(lp2757
I1268
aI1271
aS'them'
p2758
a(lp2759
(lp2760
I1268
ag1151
aa(lp2761
I1269
ag1162
aa(lp2762
I1270
ag1147
aa(lp2763
I1271
ag1242
aaaa(lp2764
I1273
aI1274
aS'in'
p2765
a(lp2766
(lp2767
I1273
ag1171
aa(lp2768
I1274
ag1183
aaaa(lp2769
I1276
aI1281
ag969
a(lp2770
(lp2771
I1276
ag1171
aa(lp2772
I1277
ag1242
aa(lp2773
I1278
ag1147
aa(lp2774
I1279
ag1183
aa(lp2775
I1280
ag1157
aa(lp2776
I1281
ag1147
aaaa(lp2777
I1284
aI1286
aS'the'
p2778
a(lp2779
(lp2780
I1284
ag1151
aa(lp2781
I1285
ag1162
aa(lp2782
I1286
ag1147
aaaa(lp2783
I1288
aI1293
ag978
a(lp2784
(lp2785
I1288
ag1183
aa(lp2786
I1289
ag1267
aa(lp2787
I1290
ag1242
aa(lp2788
I1291
ag1202
aa(lp2789
I1292
ag1147
aa(lp2790
I1293
ag1153
aaaa(lp2791
I1295
aI1296
aS'of'
p2792
a(lp2793
(lp2794
I1295
ag1164
aa(lp2795
I1296
ag1197
aaaa(lp2796
I1298
aI1302
ag987
a(lp2797
(lp2798
I1298
ag1267
aa(lp2799
I1299
ag1157
aa(lp2800
I1300
ag1147
aa(lp2801
I1301
ag1153
aa(lp2802
I1302
ag1157
aaaa(lp2803
I1304
aI1307
aS'each'
p2804
a(lp2805
(lp2806
I1304
ag1147
aa(lp2807
I1305
ag1155
aa(lp2808
I1306
ag1179
aa(lp2809
I1307
ag1162
aaaa(lp2810
I1309
aI1310
aS'of'
p2811
a(lp2812
(lp2813
I1309
ag1164
aa(lp2814
I1310
ag1197
aaaa(lp2815
I1312
aI1316
aS'those'
p2816
a(lp2817
(lp2818
I1312
ag1151
aa(lp2819
I1313
ag1162
aa(lp2820
I1314
ag1164
aa(lp2821
I1315
ag1157
aa(lp2822
I1316
ag1147
aaaa(lp2823
I1318
aI1324
ag996
a(lp2824
(lp2825
I1318
ag1157
aa(lp2826
I1319
ag1147
aa(lp2827
I1320
ag1153
aa(lp2828
I1321
ag1192
aa(lp2829
I1322
ag1147
aa(lp2830
I1323
ag1153
aa(lp2831
I1324
ag1157
aaaa(lp2832
I1326
aI1328
aS'can'
p2833
a(lp2834
(lp2835
I1326
ag1179
aa(lp2836
I1327
ag1155
aa(lp2837
I1328
ag1183
aaaa(lp2838
I1330
aI1336
ag1005
a(lp2839
(lp2840
I1330
ag1157
aa(lp2841
I1331
ag1267
aa(lp2842
I1332
ag1209
aa(lp2843
I1333
ag1209
aa(lp2844
I1334
ag1164
aa(lp2845
I1335
ag1153
aa(lp2846
I1336
ag1151
aaaa(lp2847
I1338
aI1339
aS'is'
p2848
a(lp2849
(lp2850
I1338
ag1171
aa(lp2851
I1339
ag1157
aaaa(lp2852
I1341
aI1347
ag1014
a(lp2853
(lp2854
I1341
ag1189
aa(lp2855
I1342
ag1171
aa(lp2856
I1343
ag1242
aa(lp2857
I1344
ag1171
aa(lp2858
I1345
ag1151
aa(lp2859
I1346
ag1147
aa(lp2860
I1347
ag1282
aaaa(lp2861
I1350
aI1352
aS'and'
p2862
a(lp2863
(lp2864
I1350
ag1155
aa(lp2865
I1351
ag1183
aa(lp2866
I1352
ag1282
aaaa(lp2867
I1354
aI1362
ag1023
a(lp2868
(lp2869
I1354
ag1157
aa(lp2870
I1355
ag1164
aa(lp2871
I1356
ag1242
aa(lp2872
I1357
ag1147
aa(lp2873
I1358
ag1151
aa(lp2874
I1359
ag1171
aa(lp2875
I1360
ag1242
aa(lp2876
I1361
ag1147
aa(lp2877
I1362
ag1157
aaaa(lp2878
I1364
aI1367
ag1032
a(lp2879
(lp2880
I1364
ag1147
aa(lp2881
I1365
ag1192
aa(lp2882
I1366
ag1147
aa(lp2883
I1367
ag1183
aaaa(lp2884
I1369
aI1370
aS'if'
p2885
a(lp2886
(lp2887
I1369
ag1171
aa(lp2888
I1370
ag1197
aaaa(lp2889
I1372
aI1374
aS'you'
p2890
a(lp2891
(lp2892
I1372
ag1324
aa(lp2893
I1373
ag1164
aa(lp2894
I1374
ag1267
aaaa(lp2895
I1376
aI1381
ag1041
a(lp2896
(lp2897
I1376
ag1242
aa(lp2898
I1377
ag1155
aa(lp2899
I1378
ag1183
aa(lp2900
I1379
ag1155
aa(lp2901
I1380
ag1185
aa(lp2902
I1381
ag1147
aaaa(lp2903
I1383
aI1384
aS'to'
p2904
a(lp2905
(lp2906
I1383
ag1151
aa(lp2907
I1384
ag1164
aaaa(lp2908
I1386
aI1392
ag1050
a(lp2909
(lp2910
I1386
ag1179
aa(lp2911
I1387
ag1164
aa(lp2912
I1388
ag1183
aa(lp2913
I1389
ag1183
aa(lp2914
I1390
ag1147
aa(lp2915
I1391
ag1179
aa(lp2916
I1392
ag1151
aaaa(lp2917
I1394
aI1395
aS'to'
p2918
a(lp2919
(lp2920
I1394
ag1151
aa(lp2921
I1395
ag1164
aaaa(lp2922
I1397
aI1399
ag1059
a(lp2923
(lp2924
I1397
ag1164
aa(lp2925
I1398
ag1183
aa(lp2926
I1399
ag1147
aaaa(lp2927
I1402
aI1404
aS'the'
p2928
a(lp2929
(lp2930
I1402
ag1151
aa(lp2931
I1403
ag1162
aa(lp2932
I1404
ag1147
aaaa(lp2933
I1406
aI1409
ag1068
a(lp2934
(lp2935
I1406
ag1162
aa(lp2936
I1407
ag1171
aa(lp2937
I1408
ag1185
aa(lp2938
I1409
ag1162
aaaa(lp2939
I1411
aI1417
ag1077
a(lp2940
(lp2941
I1411
ag1151
aa(lp2942
I1412
ag1153
aa(lp2943
I1413
ag1155
aa(lp2944
I1414
ag1197
aa(lp2945
I1415
ag1197
aa(lp2946
I1416
ag1171
aa(lp2947
I1417
ag1179
aaaa(lp2948
I1419
aI1423
ag1086
a(lp2949
(lp2950
I1419
ag1242
aa(lp2951
I1420
ag1171
aa(lp2952
I1421
ag1185
aa(lp2953
I1422
ag1162
aa(lp2954
I1423
ag1151
aaaa(lp2955
I1425
aI1430
ag1095
a(lp2956
(lp2957
I1425
ag1171
aa(lp2958
I1426
ag1242
aa(lp2959
I1427
ag1209
aa(lp2960
I1428
ag1155
aa(lp2961
I1429
ag1171
aa(lp2962
I1430
ag1153
aaaa(lp2963
I1432
aI1434
aS'its'
p2964
a(lp2965
(lp2966
I1432
ag1171
aa(lp2967
I1433
ag1151
aa(lp2968
I1434
ag1157
aaaa(lp2969
I1436
aI1448
ag1104
a(lp2970
(lp2971
I1436
ag1197
aa(lp2972
I1437
ag1267
aa(lp2973
I1438
ag1183
aa(lp2974
I1439
ag1179
aa(lp2975
I1440
ag1151
aa(lp2976
I1441
ag1171
aa(lp2977
I1442
ag1164
aa(lp2978
I1443
ag1183
aa(lp2979
I1444
ag1155
aa(lp2980
I1445
ag1189
aa(lp2981
I1446
ag1171
aa(lp2982
I1447
ag1151
aa(lp2983
I1448
ag1324
aaaa(lp2984
I1451
aI1452
aS'in'
p2985
a(lp2986
(lp2987
I1451
ag1171
aa(lp2988
I1452
ag1183
aaaa(lp2989
I1454
aI1457
aS'some'
p2990
a(lp2991
(lp2992
I1454
ag1157
aa(lp2993
I1455
ag1164
aa(lp2994
I1456
ag1242
aa(lp2995
I1457
ag1147
aaaa(lp2996
I1459
aI1463
ag1113
a(lp2997
(lp2998
I1459
ag1179
aa(lp2999
I1460
ag1155
aa(lp3000
I1461
ag1157
aa(lp3001
I1462
ag1147
aa(lp3002
I1463
ag1157
aaaa(lp3003
I1465
aI1471
ag1122
a(lp3004
(lp3005
I1465
ag1179
aa(lp3006
I1466
ag1155
aa(lp3007
I1467
ag1267
aa(lp3008
I1468
ag1157
aa(lp3009
I1469
ag1171
aa(lp3010
I1470
ag1183
aa(lp3011
I1471
ag1185
aaaa(lp3012
I1473
aI1474
aS'it'
p3013
a(lp3014
(lp3015
I1473
ag1171
aa(lp3016
I1474
ag1151
aaaa(lp3017
I1476
aI1477
aS'to'
p3018
a(lp3019
(lp3020
I1476
ag1151
aa(lp3021
I1477
ag1164
aaaa(lp3022
I1476
aI1477
ag1131
a(lp3023
(lp3024
I1479
ag1179
aa(lp3025
I1480
ag1153
aa(lp3026
I1481
ag1155
aa(lp3027
I1482
ag1157
aa(lp3028
I1483
ag1162
aaaasS'cleanCharacterMap'
p3029
(lp3030
g1143
a(lp3031
I1
aS' '
p3032
aag1146
ag1148
ag1150
ag1152
ag1154
ag1156
a(lp3033
I8
ag3032
aag1161
ag1163
ag1165
a(lp3034
I12
ag3032
aag1170
ag1172
a(lp3035
I15
ag3032
aag1175
ag1176
ag1177
ag1178
ag1180
ag1181
ag1182
ag1184
a(lp3036
I24
ag3032
aag1188
ag1190
ag1191
ag1193
a(lp3037
I29
ag3032
aag1196
ag1198
ag1199
ag1200
ag1201
ag1203
ag1204
ag1205
a(lp3038
I38
ag3032
aag1208
ag1210
ag1211
ag1212
ag1213
ag1214
ag1215
ag1216
a(lp3039
I48
ag3032
aag1220
ag1221
ag1222
ag1223
ag1224
a(lp3040
I54
ag3032
aag1228
ag1229
ag1230
a(lp3041
I58
ag3032
aag1233
ag1234
ag1235
ag1236
ag1237
a(lp3042
I64
ag3032
aag1241
ag1243
ag1244
ag1245
a(lp3043
I69
ag3032
aag1249
ag1250
ag1251
ag1252
a(lp3044
I74
ag3032
aag1255
a(lp3045
I76
ag3032
aag1259
ag1260
ag1261
a(lp3046
I80
ag3032
aag1264
ag1265
ag1266
ag1268
ag1269
ag1270
ag1271
ag1272
ag1273
a(lp3047
I90
ag3032
aag1276
ag1277
ag1278
ag1279
ag1280
ag1281
a(lp3048
I97
ag3032
aag1286
ag1287
ag1288
a(lp3049
I101
ag3032
aag1291
ag1292
ag1293
ag1294
ag1295
a(lp3050
I107
ag3032
aag1299
ag1300
ag1301
ag1302
ag1303
a(lp3051
I113
ag3032
aag1306
ag1307
ag1308
a(lp3052
I117
ag3032
aag1312
ag1313
ag1314
a(lp3053
I121
ag3032
aag1318
ag1319
ag1320
a(lp3054
I125
ag3032
aag1323
ag1325
ag1326
a(lp3055
I129
ag3032
aag1330
ag1331
ag1332
ag1333
a(lp3056
I134
ag3032
aag1336
ag1337
ag1338
ag1339
ag1340
ag1341
ag1342
ag1343
ag1344
ag1345
ag1346
a(lp3057
I147
ag3032
aag1350
ag1351
ag1352
a(lp3058
I151
ag3032
aag1355
ag1356
ag1357
ag1358
ag1359
ag1360
ag1361
ag1362
a(lp3059
I160
ag3032
aag1366
ag1367
a(lp3060
I163
ag3032
aag1370
ag1371
ag1372
ag1373
ag1374
ag1375
ag1376
ag1377
ag1378
a(lp3061
I173
ag3032
aag1382
ag1383
ag1384
a(lp3062
I177
ag3032
aag1387
ag1388
ag1389
ag1390
a(lp3063
I183
ag3032
aag1393
ag1394
ag1395
ag1396
ag1397
ag1398
ag1399
ag1400
ag1401
ag1402
a(lp3064
I194
ag3032
aag1406
ag1407
a(lp3065
I197
ag3032
aag1411
ag1412
ag1413
ag1414
a(lp3066
I202
ag3032
aag1418
ag1419
a(lp3067
I205
ag3032
aag1423
ag1424
ag1425
a(lp3068
I209
ag3032
aag1428
ag1429
a(lp3069
I212
ag3032
aag1432
ag1433
ag1434
ag1435
ag1436
ag1437
ag1438
ag1439
a(lp3070
I221
ag3032
aag1443
ag1444
a(lp3071
I224
ag3032
aag1448
ag1449
ag1450
ag1451
ag1452
a(lp3072
I230
ag3032
aag1455
ag1456
ag1457
ag1458
ag1459
ag1460
ag1461
ag1462
ag1463
a(lp3073
I240
ag3032
aag1467
ag1468
ag1469
a(lp3074
I244
ag3032
aag1472
ag1473
ag1474
ag1475
ag1476
ag1477
ag1478
ag1479
ag1480
a(lp3075
I254
ag3032
aag1483
ag1484
ag1485
a(lp3076
I258
ag3032
aag1488
ag1489
ag1490
ag1491
ag1492
a(lp3077
I264
ag3032
aag1495
ag1496
ag1497
ag1498
ag1499
ag1500
ag1501
a(lp3078
I272
ag3032
aag1505
ag1506
a(lp3079
I275
ag3032
aag1510
ag1511
ag1512
a(lp3080
I279
ag3032
aag1515
ag1516
ag1517
ag1518
ag1519
ag1520
ag1521
ag1522
a(lp3081
I289
ag3032
aag1526
ag1527
ag1528
a(lp3082
I293
ag3032
aag1531
ag1532
ag1533
ag1534
a(lp3083
I298
ag3032
aag1538
ag1539
a(lp3084
I301
ag3032
aag1543
ag1544
ag1545
a(lp3085
I305
ag3032
aag1548
ag1550
ag1551
ag1552
ag1553
ag1554
ag1555
a(lp3086
I313
ag3032
aag1559
ag1560
a(lp3087
I316
ag3032
aag1564
ag1565
ag1566
a(lp3088
I320
ag3032
aag1569
ag1570
ag1571
ag1572
a(lp3089
I325
ag3032
aag1575
ag1576
ag1577
ag1578
ag1579
ag1580
ag1581
a(lp3090
I334
ag3032
aag1585
ag1586
ag1587
a(lp3091
I338
ag3032
aag1590
ag1591
ag1592
ag1593
ag1594
ag1595
ag1596
a(lp3092
I346
ag3032
aag1599
ag1600
ag1601
ag1602
ag1603
ag1604
ag1605
a(lp3093
I354
ag3032
aag1609
ag1610
a(lp3094
I357
ag3032
aag1614
ag1615
ag1616
a(lp3095
I361
ag3032
aag1619
ag1620
ag1621
ag1622
a(lp3096
I366
ag3032
aag1626
ag1627
a(lp3097
I369
ag3032
aag1631
ag1632
ag1633
ag1634
ag1635
a(lp3098
I375
ag3032
aag1638
ag1639
ag1640
ag1641
ag1642
a(lp3099
I381
ag3032
aag1645
ag1646
ag1647
ag1648
ag1649
ag1650
ag1651
a(lp3100
I389
ag3032
aag1655
ag1656
ag1657
a(lp3101
I393
ag3032
aag1660
ag1661
ag1662
ag1663
ag1664
ag1665
ag1666
ag1667
ag1668
ag1669
ag1670
a(lp3102
I406
ag3032
aag1674
ag1675
ag1676
ag1677
a(lp3103
I411
ag3032
aag1680
ag1681
ag1682
ag1683
ag1684
ag1685
ag1686
a(lp3104
I419
ag3032
aag1690
ag1691
a(lp3105
I422
ag3032
aag1694
ag1695
ag1696
ag1697
ag1698
ag1699
ag1700
ag1701
a(lp3106
I431
ag3032
aag1705
ag1706
a(lp3107
I434
ag3032
aag1710
ag1711
ag1712
a(lp3108
I438
ag3032
aag1716
ag1717
ag1718
ag1719
a(lp3109
I443
ag3032
aag1722
ag1723
ag1724
ag1725
ag1726
a(lp3110
I449
ag3032
aag1729
ag1730
ag1731
ag1732
ag1733
ag1734
ag1735
ag1736
ag1737
a(lp3111
I459
ag3032
aag1741
ag1742
ag1743
a(lp3112
I463
ag3032
aag1746
ag1747
ag1748
ag1749
ag1750
a(lp3113
I469
ag3032
aag1754
ag1755
ag1756
a(lp3114
I473
ag3032
aag1759
ag1760
ag1761
ag1762
ag1763
ag1764
ag1765
ag1766
a(lp3115
I482
ag3032
aag1769
ag1770
ag1771
ag1772
ag1773
ag1774
ag1775
ag1776
ag1777
ag1778
a(lp3116
I493
ag3032
aag1782
ag1783
a(lp3117
I497
ag3032
aag1786
ag1788
ag1789
ag1790
ag1791
a(lp3118
I505
ag3032
aag1795
ag1796
ag1797
ag1798
a(lp3119
I510
ag3032
aag1801
ag1802
ag1803
ag1804
ag1805
ag1806
ag1807
a(lp3120
I518
ag3032
aag1811
ag1812
ag1813
a(lp3121
I522
ag3032
aag1816
ag1817
ag1818
ag1819
ag1820
ag1821
ag1822
ag1823
ag1824
ag1825
ag1826
a(lp3122
I534
ag3032
aag1830
ag1831
a(lp3123
I537
ag3032
aag1834
a(lp3124
I539
ag3032
aag1837
ag1838
ag1839
ag1840
ag1841
ag1842
ag1843
a(lp3125
I547
ag3032
aag1847
ag1848
a(lp3126
I550
ag3032
aag1852
ag1853
ag1854
ag1855
ag1856
ag1857
ag1858
a(lp3127
I558
ag3032
aag1861
ag1863
ag1865
ag1866
ag1867
ag1868
ag1869
ag1870
a(lp3128
I568
ag3032
aag1874
ag1875
ag1876
a(lp3129
I572
ag3032
aag1879
ag1881
ag1882
a(lp3130
I576
ag3032
aag1885
ag1886
ag1887
ag1888
ag1889
a(lp3131
I584
ag3032
aag1893
ag1894
a(lp3132
I587
ag3032
aag1898
ag1899
a(lp3133
I590
ag3032
aag1903
ag1904
ag1905
ag1906
a(lp3134
I595
ag3032
aag1909
ag1910
ag1911
ag1912
ag1913
ag1914
ag1915
ag1916
ag1917
ag1918
a(lp3135
I606
ag3032
aag1922
ag1923
a(lp3136
I609
ag3032
aag1926
ag1927
ag1928
ag1929
ag1930
ag1931
ag1932
ag1933
ag1934
a(lp3137
I619
ag3032
aag1937
ag1938
ag1939
ag1940
ag1941
ag1942
a(lp3138
I626
ag3032
aag1945
ag1947
ag1949
ag1950
ag1951
ag1952
a(lp3139
I633
ag3032
aag1956
ag1957
ag1958
ag1959
ag1960
a(lp3140
I639
ag3032
aag1964
ag1965
a(lp3141
I642
ag3032
aag1969
ag1970
a(lp3142
I645
ag3032
aag1973
ag1974
ag1975
ag1976
a(lp3143
I650
ag3032
aag1980
ag1981
a(lp3144
I653
ag3032
aag1984
ag1985
ag1986
ag1987
a(lp3145
I658
ag3032
aag1991
ag1992
ag1993
a(lp3146
I662
ag3032
aag1997
ag1998
ag1999
a(lp3147
I666
ag3032
aag2002
ag2003
ag2004
a(lp3148
I670
ag3032
aag2008
ag2009
ag2010
a(lp3149
I674
ag3032
aag2013
a(lp3150
I676
ag3032
aag2016
ag2017
ag2018
ag2019
ag2020
ag2021
ag2022
a(lp3151
I684
ag3032
aag2025
ag2026
ag2027
ag2028
ag2029
ag2030
ag2031
ag2032
ag2033
ag2034
a(lp3152
I695
ag3032
aag2037
ag2038
ag2039
ag2040
ag2041
ag2042
ag2043
a(lp3153
I704
ag3032
aag2046
ag2047
ag2048
ag2049
ag2050
ag2051
ag2052
ag2053
a(lp3154
I714
ag3032
aag2057
ag2058
a(lp3155
I717
ag3032
aag2062
ag2063
ag2064
ag2065
a(lp3156
I722
ag3032
aag2069
ag2070
a(lp3157
I725
ag3032
aag2073
ag2074
ag2075
ag2076
a(lp3158
I730
ag3032
aag2080
ag2081
ag2082
a(lp3159
I734
ag3032
aag2085
ag2086
ag2087
ag2088
a(lp3160
I739
ag3032
aag2092
ag2093
a(lp3161
I742
ag3032
aag2097
ag2098
ag2099
ag2100
ag2101
a(lp3162
I748
ag3032
aag2105
ag2106
a(lp3163
I751
ag3032
aag2110
ag2111
a(lp3164
I754
ag3032
aag2114
ag2115
ag2116
ag2117
ag2118
ag2119
ag2120
ag2121
a(lp3165
I763
ag3032
aag2125
ag2126
a(lp3166
I766
ag3032
aag2129
ag2130
ag2131
ag2132
ag2133
a(lp3167
I772
ag3032
aag2137
ag2138
ag2139
a(lp3168
I776
ag3032
aag2142
ag2143
ag2144
ag2145
ag2146
a(lp3169
I782
ag3032
aag2149
ag2150
ag2151
ag2152
ag2153
ag2154
a(lp3170
I789
ag3032
aag2158
ag2159
a(lp3171
I792
ag3032
aag2162
a(lp3172
I794
ag3032
aag2165
ag2166
ag2167
ag2168
a(lp3173
I799
ag3032
aag2171
ag2172
ag2173
ag2174
ag2175
ag2176
a(lp3174
I806
ag3032
aag2180
ag2181
a(lp3175
I809
ag3032
aag2184
ag2185
ag2186
ag2187
ag2188
ag2189
ag2190
ag2191
ag2192
ag2193
a(lp3176
I820
ag3032
aag2196
ag2197
ag2198
ag2199
ag2200
ag2201
ag2202
a(lp3177
I829
ag3032
aag2206
ag2207
ag2208
a(lp3178
I833
ag3032
aag2211
ag2212
ag2213
ag2214
ag2215
ag2216
ag2217
a(lp3179
I841
ag3032
aag2220
ag2221
ag2222
ag2223
ag2224
ag2225
a(lp3180
I848
ag3032
aag2229
ag2230
ag2231
ag2232
a(lp3181
I853
ag3032
aag2236
ag2237
ag2238
ag2239
a(lp3182
I859
ag3032
aag2243
ag2244
ag2245
a(lp3183
I863
ag3032
aag2248
ag2249
ag2250
ag2252
a(lp3184
I868
ag3032
aag2256
ag2257
a(lp3185
I871
ag3032
aag2261
ag2262
ag2263
a(lp3186
I875
ag3032
aag2266
ag2267
ag2268
ag2269
ag2270
a(lp3187
I881
ag3032
aag2273
ag2274
ag2275
ag2276
ag2277
ag2278
ag2279
a(lp3188
I890
ag3032
aag2282
ag2283
ag2284
ag2285
ag2286
ag2287
a(lp3189
I897
ag3032
aag2291
ag2292
ag2293
a(lp3190
I901
ag3032
aag2297
ag2298
a(lp3191
I904
ag3032
aag2302
ag2303
a(lp3192
I907
ag3032
aag2306
ag2307
ag2308
ag2309
ag2310
ag2311
ag2312
a(lp3193
I916
ag3032
aag2315
ag2316
ag2317
ag2318
ag2319
ag2320
a(lp3194
I923
ag3032
aag2324
ag2325
ag2326
a(lp3195
I927
ag3032
aag2329
ag2330
ag2331
ag2332
a(lp3196
I932
ag3032
aag2336
ag2337
a(lp3197
I935
ag3032
aag2341
ag2342
a(lp3198
I938
ag3032
aag2345
ag2346
ag2347
ag2348
a(lp3199
I944
ag3032
aag2352
ag2353
ag2354
ag2355
ag2356
a(lp3200
I950
ag3032
aag2360
ag2361
ag2362
ag2363
a(lp3201
I955
ag3032
aag2366
ag2367
ag2368
ag2369
ag2370
ag2371
a(lp3202
I962
ag3032
aag2374
ag2375
ag2376
ag2377
ag2378
a(lp3203
I968
ag3032
aag2382
ag2383
a(lp3204
I971
ag3032
aag2386
a(lp3205
I973
ag3032
aag2389
ag2390
ag2391
ag2392
a(lp3206
I978
ag3032
aag2395
ag2396
ag2397
ag2398
ag2399
ag2400
ag2401
ag2402
ag2403
ag2404
ag2405
a(lp3207
I990
ag3032
aag2409
ag2410
a(lp3208
I993
ag3032
aag2414
ag2415
ag2416
a(lp3209
I997
ag3032
aag2419
ag2420
ag2421
ag2422
a(lp3210
I1002
ag3032
aag2425
ag2426
ag2427
a(lp3211
I1006
ag3032
aag2430
ag2431
a(lp3212
I1009
ag3032
aag2434
ag2435
ag2436
a(lp3213
I1014
ag3032
aag2440
ag2441
ag2442
ag2443
ag2444
a(lp3214
I1020
ag3032
aag2448
ag2449
ag2450
a(lp3215
I1024
ag3032
aag2453
ag2454
ag2455
ag2456
ag2457
a(lp3216
I1030
ag3032
aag2461
ag2462
ag2463
ag2464
a(lp3217
I1035
ag3032
aag2467
ag2468
ag2469
ag2470
ag2471
ag2472
ag2473
ag2474
a(lp3218
I1044
ag3032
aag2477
ag2478
ag2479
ag2480
ag2481
ag2482
ag2483
ag2484
ag2485
ag2486
a(lp3219
I1055
ag3032
aag2490
ag2491
ag2492
ag2493
a(lp3220
I1060
ag3032
aag2497
ag2498
a(lp3221
I1064
ag3032
aag2501
ag2502
ag2503
ag2504
ag2505
ag2506
ag2507
ag2508
a(lp3222
I1073
ag3032
aag2512
ag2513
a(lp3223
I1076
ag3032
aag2516
ag2517
ag2518
ag2519
ag2520
ag2521
a(lp3224
I1083
ag3032
aag2524
ag2525
ag2526
ag2527
ag2528
ag2529
a(lp3225
I1090
ag3032
aag2533
ag2534
ag2535
a(lp3226
I1094
ag3032
aag2538
ag2539
ag2540
ag2541
ag2542
a(lp3227
I1100
ag3032
aag2546
ag2547
ag2548
a(lp3228
I1104
ag3032
aag2551
ag2552
ag2553
ag2554
ag2555
ag2556
a(lp3229
I1111
ag3032
aag2560
ag2561
a(lp3230
I1114
ag3032
aag2564
ag2565
ag2566
ag2567
ag2568
ag2569
ag2570
a(lp3231
I1122
ag3032
aag2574
ag2575
a(lp3232
I1125
ag3032
aag2579
ag2580
ag2581
a(lp3233
I1129
ag3032
aag2584
ag2585
ag2586
ag2587
ag2588
ag2589
ag2590
a(lp3234
I1137
ag3032
aag2593
ag2594
ag2595
ag2596
ag2597
ag2598
ag2599
ag2600
ag2601
ag2602
ag2603
ag2604
a(lp3235
I1150
ag3032
aag2608
ag2609
ag2610
a(lp3236
I1154
ag3032
aag2613
ag2614
ag2615
ag2616
ag2617
ag2618
ag2619
a(lp3237
I1163
ag3032
aag2623
ag2625
ag2626
ag2627
a(lp3238
I1168
ag3032
aag2631
ag2632
a(lp3239
I1171
ag3032
aag2636
ag2637
ag2638
a(lp3240
I1175
ag3032
aag2642
ag2643
ag2644
a(lp3241
I1180
ag3032
aag2648
ag2649
ag2650
ag2651
ag2652
a(lp3242
I1186
ag3032
aag2655
ag2656
ag2657
ag2658
ag2659
ag2660
ag2661
a(lp3243
I1194
ag3032
aag2665
ag2666
ag2667
a(lp3244
I1198
ag3032
aag2671
ag2672
ag2673
a(lp3245
I1202
ag3032
aag2676
ag2677
ag2678
ag2679
ag2680
ag2681
ag2682
ag2683
a(lp3246
I1211
ag3032
aag2687
ag2688
a(lp3247
I1214
ag3032
aag2691
ag2692
ag2693
ag2694
ag2695
ag2696
ag2697
a(lp3248
I1222
ag3032
aag2701
ag2702
ag2703
ag2704
a(lp3249
I1227
ag3032
aag2707
a(lp3250
I1229
ag3032
aag2710
ag2711
ag2712
ag2713
ag2714
a(lp3251
I1235
ag3032
aag2717
ag2718
ag2719
ag2720
ag2721
ag2722
a(lp3252
I1242
ag3032
aag2726
ag2727
a(lp3253
I1245
ag3032
aag2730
ag2731
ag2732
ag2733
ag2734
a(lp3254
I1252
ag3032
aag2738
ag2739
a(lp3255
I1255
ag3032
aag2743
ag2744
ag2745
a(lp3256
I1259
ag3032
aag2748
ag2749
ag2750
ag2751
a(lp3257
I1264
ag3032
aag2755
ag2756
a(lp3258
I1267
ag3032
aag2760
ag2761
ag2762
ag2763
a(lp3259
I1272
ag3032
aag2767
ag2768
a(lp3260
I1275
ag3032
aag2771
ag2772
ag2773
ag2774
ag2775
ag2776
a(lp3261
I1283
ag3032
aag2780
ag2781
ag2782
a(lp3262
I1287
ag3032
aag2785
ag2786
ag2787
ag2788
ag2789
ag2790
a(lp3263
I1294
ag3032
aag2794
ag2795
a(lp3264
I1297
ag3032
aag2798
ag2799
ag2800
ag2801
ag2802
a(lp3265
I1303
ag3032
aag2806
ag2807
ag2808
ag2809
a(lp3266
I1308
ag3032
aag2813
ag2814
a(lp3267
I1311
ag3032
aag2818
ag2819
ag2820
ag2821
ag2822
a(lp3268
I1317
ag3032
aag2825
ag2826
ag2827
ag2828
ag2829
ag2830
ag2831
a(lp3269
I1325
ag3032
aag2835
ag2836
ag2837
a(lp3270
I1329
ag3032
aag2840
ag2841
ag2842
ag2843
ag2844
ag2845
ag2846
a(lp3271
I1337
ag3032
aag2850
ag2851
a(lp3272
I1340
ag3032
aag2854
ag2855
ag2856
ag2857
ag2858
ag2859
ag2860
a(lp3273
I1349
ag3032
aag2864
ag2865
ag2866
a(lp3274
I1353
ag3032
aag2869
ag2870
ag2871
ag2872
ag2873
ag2874
ag2875
ag2876
ag2877
a(lp3275
I1363
ag3032
aag2880
ag2881
ag2882
ag2883
a(lp3276
I1368
ag3032
aag2887
ag2888
a(lp3277
I1371
ag3032
aag2892
ag2893
ag2894
a(lp3278
I1375
ag3032
aag2897
ag2898
ag2899
ag2900
ag2901
ag2902
a(lp3279
I1382
ag3032
aag2906
ag2907
a(lp3280
I1385
ag3032
aag2910
ag2911
ag2912
ag2913
ag2914
ag2915
ag2916
a(lp3281
I1393
ag3032
aag2920
ag2921
a(lp3282
I1396
ag3032
aag2924
ag2925
ag2926
a(lp3283
I1401
ag3032
aag2930
ag2931
ag2932
a(lp3284
I1405
ag3032
aag2935
ag2936
ag2937
ag2938
a(lp3285
I1410
ag3032
aag2941
ag2942
ag2943
ag2944
ag2945
ag2946
ag2947
a(lp3286
I1418
ag3032
aag2950
ag2951
ag2952
ag2953
ag2954
a(lp3287
I1424
ag3032
aag2957
ag2958
ag2959
ag2960
ag2961
ag2962
a(lp3288
I1431
ag3032
aag2966
ag2967
ag2968
a(lp3289
I1435
ag3032
aag2971
ag2972
ag2973
ag2974
ag2975
ag2976
ag2977
ag2978
ag2979
ag2980
ag2981
ag2982
ag2983
a(lp3290
I1450
ag3032
aag2987
ag2988
a(lp3291
I1453
ag3032
aag2992
ag2993
ag2994
ag2995
a(lp3292
I1458
ag3032
aag2998
ag2999
ag3000
ag3001
ag3002
a(lp3293
I1464
ag3032
aag3005
ag3006
ag3007
ag3008
ag3009
ag3010
ag3011
a(lp3294
I1472
ag3032
aag3015
ag3016
a(lp3295
I1475
ag3032
aag3020
ag3021
a(lp3296
I1478
ag3032
aag3024
ag3025
ag3026
ag3027
ag3028
asS'text'
p3297
S"6 extras how is watching live football possible? there are still more then a few countries around the world where ppv has not yet been established, and football is televised for free. broadcasts of some of the tv stations in these countries are available via video streams on the internet. how good is the quality of the live streams? the quality depends on the rate at which video streams are transmitted. this quality is measured by the same units measuring how broad you internet connection is: kb/sec. most streams are transmitted at a quality of between 100kb/sec and 400 kb/sec, so if your connection is somewhere around 750kbs there is no need to rush off and pay for a broader connection package. 400kb/sec is more or less the rate at which it is possible to watch the video stream on a full screen in reasonable quality. for quality lesser than that, the size of the media player's window has to be reduced. sounds too good to be true! while this method might be a good alternative to the good old tv set, there are still some problems associated with it. millions of people around the world are trying to connect to the servers broadcasting the streams, just as you are. these servers are not designed to support such a large number of users, so the load on them in imense. the number of users each of those servers can support is limited, and sometimes even if you manage to connect to one, the high traffic might impair its functionality, in some cases causing it to crash."
p3298
sS'cleanWordMap'
p3299
(lp3300
g1141
ag1144
ag1173
ag1186
ag1194
ag1206
ag1231
ag1262
ag1274
ag1289
ag1304
ag1321
ag1334
ag1353
ag1368
ag1385
ag1391
ag1426
ag1430
ag1453
ag1470
ag1481
ag1486
ag1493
ag1513
ag1529
ag1546
ag1567
ag1573
ag1588
ag1597
ag1617
ag1636
ag1643
ag1658
ag1678
ag1692
ag1720
ag1727
ag1744
ag1757
ag1767
ag1784
ag1799
ag1814
ag1835
ag1859
ag1877
ag1883
ag1907
ag1924
ag1935
ag1943
ag1971
ag1982
ag2000
ag2014
ag2023
ag2035
ag2044
ag2071
ag2083
ag2112
ag2127
ag2140
ag2147
ag2163
ag2169
ag2182
ag2194
ag2209
ag2218
ag2246
ag2264
ag2271
ag2280
ag2304
ag2313
ag2327
ag2343
ag2364
ag2372
ag2387
ag2393
ag2417
ag2423
ag2428
ag2432
ag2451
ag2465
ag2475
ag2499
ag2514
ag2522
ag2536
ag2549
ag2562
ag2582
ag2591
ag2611
ag2653
ag2674
ag2689
ag2708
ag2715
ag2728
ag2746
ag2769
ag2783
ag2796
ag2823
ag2838
ag2852
ag2867
ag2878
ag2895
ag2908
ag2922
ag2933
ag2939
ag2948
ag2955
ag2969
ag2996
ag3003
ag3022
asS'lines'
p3301
(lp3302
V6 Extras\u000a
p3303
aVHow is watching Live football possible?\u000a
p3304
aVThere are still more then a few countries around the world where PPV has not yet been established, and football is televised for free. Broadcasts of some of the TV stations in these countries are available via video streams on the internet.\u000a
p3305
aVHow good is the Quality of the live streams?\u000a
p3306
aVThe quality depends on the rate at which video streams are transmitted. This quality is measured by the same units measuring how broad you internet connection is: Kb/Sec. Most streams are transmitted at a quality of between 100Kb/Sec and 400 Kb/sec, so if your connection is somewhere around 750Kbs there is no need to rush off and pay for a broader connection package. 400Kb/sec is more or less the rate at which it is possible to watch the video stream on a full screen in reasonable quality. For quality lesser than that, the size of the media player's window has to be reduced.\u000a
p3307
aVSounds too good to be true!\u000a
p3308
aVWhile this method might be a good alternative to the good old TV set, there are still some problems associated with it. Millions of people around the world are trying to connect to the servers broadcasting the streams, just as you are. These servers are not designed to support such a large number of users, so the load on them in imense. The number of users each of those servers can support is limited, and sometimes even if you manage to connect to one, the high traffic might impair its functionality, in some cases causing it to crash.
p3309
asS'docType'
p3310
S'src'
p3311
sS'newfmap'
p3312
(lp3313
g4
ag8
ag10
ag12
ag14
ag17
ag19
ag21
ag23
ag26
ag28
ag30
ag32
ag35
ag37
ag39
ag41
ag44
ag46
ag48
ag50
ag53
ag55
ag57
ag59
ag62
ag64
ag66
ag68
ag71
ag73
ag75
ag77
ag80
ag82
ag84
ag86
ag89
ag91
ag93
ag95
ag98
ag100
ag102
ag104
ag107
ag109
ag111
ag113
ag116
ag118
ag120
ag122
ag125
ag127
ag129
ag131
ag134
ag136
ag138
ag140
ag143
ag145
ag147
ag149
ag152
ag154
ag156
ag158
ag161
ag163
ag165
ag167
ag170
ag172
ag174
ag176
ag179
ag181
ag183
ag185
ag188
ag190
ag192
ag194
ag197
ag199
ag201
ag203
ag206
ag208
ag210
ag212
ag215
ag217
ag219
ag221
ag224
ag226
ag228
ag230
ag233
ag235
ag237
ag239
ag242
ag244
ag246
ag248
ag251
ag253
ag255
ag257
ag260
ag262
ag264
ag266
ag269
ag271
ag273
ag275
ag278
ag280
ag282
ag284
ag287
ag289
ag291
ag293
ag296
ag298
ag300
ag302
ag305
ag307
ag309
ag311
ag314
ag316
ag318
ag320
ag323
ag325
ag327
ag329
ag332
ag334
ag336
ag338
ag341
ag343
ag345
ag347
ag350
ag352
ag354
ag356
ag359
ag361
ag363
ag365
ag368
ag370
ag372
ag374
ag377
ag379
ag381
ag383
ag386
ag388
ag390
ag392
ag395
ag397
ag399
ag401
ag404
ag406
ag408
ag410
ag413
ag415
ag417
ag419
ag422
ag424
ag426
ag428
ag431
ag433
ag435
ag437
ag440
ag442
ag444
ag446
ag449
ag451
ag453
ag455
ag458
ag460
ag462
ag464
ag467
ag469
ag471
ag473
ag476
ag478
ag480
ag482
ag485
ag487
ag489
ag491
ag494
ag496
ag498
ag500
ag503
ag505
ag507
ag509
ag512
ag514
ag516
ag518
ag521
ag523
ag525
ag527
ag530
ag532
ag534
ag536
ag539
ag541
ag543
ag545
ag548
ag550
ag552
ag554
ag557
ag559
ag561
ag563
ag566
ag568
ag570
ag572
ag575
ag577
ag579
ag581
ag584
ag586
ag588
ag590
ag593
ag595
ag597
ag599
ag602
ag604
ag606
ag608
ag611
ag613
ag615
ag617
ag620
ag622
ag624
ag626
ag629
ag631
ag633
ag635
ag638
ag640
ag642
ag644
ag647
ag649
ag651
ag653
ag656
ag658
ag660
ag662
ag665
ag667
ag669
ag671
ag674
ag676
ag678
ag680
ag683
ag685
ag687
ag689
ag692
ag694
ag696
ag698
ag701
ag703
ag705
ag707
ag710
ag712
ag714
ag716
ag719
ag721
ag723
ag725
ag728
ag730
ag732
ag734
ag737
ag739
ag741
ag743
ag746
ag748
ag750
ag752
ag755
ag757
ag759
ag761
ag764
ag766
ag768
ag770
ag773
ag775
ag777
ag779
ag782
ag784
ag786
ag788
ag791
ag793
ag795
ag797
ag800
ag802
ag804
ag806
ag809
ag811
ag813
ag815
ag818
ag820
ag822
ag824
ag827
ag829
ag831
ag833
ag836
ag838
ag840
ag842
ag845
ag847
ag849
ag851
ag854
ag856
ag858
ag860
ag863
ag865
ag867
ag869
ag872
ag874
ag876
ag878
ag881
ag883
ag885
ag887
ag890
ag892
ag894
ag896
ag899
ag901
ag903
ag905
ag908
ag910
ag912
ag914
ag917
ag919
ag921
ag923
ag926
ag928
ag930
ag932
ag935
ag937
ag939
ag941
ag944
ag946
ag948
ag950
ag953
ag955
ag957
ag959
ag962
ag964
ag966
ag968
ag971
ag973
ag975
ag977
ag980
ag982
ag984
ag986
ag989
ag991
ag993
ag995
ag998
ag1000
ag1002
ag1004
ag1007
ag1009
ag1011
ag1013
ag1016
ag1018
ag1020
ag1022
ag1025
ag1027
ag1029
ag1031
ag1034
ag1036
ag1038
ag1040
ag1043
ag1045
ag1047
ag1049
ag1052
ag1054
ag1056
ag1058
ag1061
ag1063
ag1065
ag1067
ag1070
ag1072
ag1074
ag1076
ag1079
ag1081
ag1083
ag1085
ag1088
ag1090
ag1092
ag1094
ag1097
ag1099
ag1101
ag1103
ag1106
ag1108
ag1110
ag1112
ag1115
ag1117
ag1119
ag1121
ag1124
ag1126
ag1128
ag1130
ag1133
ag1135
ag1137
asS'featureMap'
p3314
(lp3315
(lp3316
I0
aI0
ag5
ag6
ag9
ag11
ag13
aa(lp3317
I2
aI7
ag15
ag16
ag18
ag20
ag22
aa(lp3318
I16
aI23
ag24
ag25
ag27
ag29
ag31
aa(lp3319
I25
aI28
ag33
ag34
ag36
ag38
ag40
aa(lp3320
I30
aI37
ag42
ag43
ag45
ag47
ag49
aa(lp3321
I39
aI46
ag51
ag52
ag54
ag56
ag58
aa(lp3322
I59
aI63
ag60
ag61
ag63
ag65
ag67
aa(lp3323
I81
aI89
ag69
ag70
ag72
ag74
ag76
aa(lp3324
I91
aI96
ag78
ag79
ag81
ag83
ag85
aa(lp3325
I102
aI106
ag87
ag88
ag90
ag92
ag94
aa(lp3326
I114
aI116
ag96
ag97
ag99
ag101
ag103
aa(lp3327
I126
aI128
ag105
ag106
ag108
ag110
ag112
aa(lp3328
I135
aI145
ag114
ag115
ag117
ag119
ag121
aa(lp3329
I152
aI159
ag123
ag124
ag126
ag128
ag130
aa(lp3330
I164
aI172
ag132
ag133
ag135
ag137
ag139
aa(lp3331
I178
aI181
ag141
ag142
ag144
ag146
ag148
aa(lp3332
I184
aI193
ag150
ag151
ag153
ag155
ag157
aa(lp3333
I210
aI211
ag159
ag160
ag162
ag164
ag166
aa(lp3334
I213
aI220
ag168
ag169
ag171
ag173
ag175
aa(lp3335
I231
aI239
ag177
ag178
ag180
ag182
ag184
aa(lp3336
I245
aI253
ag186
ag187
ag189
ag191
ag193
aa(lp3337
I255
aI257
ag195
ag196
ag198
ag200
ag202
aa(lp3338
I259
aI263
ag204
ag205
ag207
ag209
ag211
aa(lp3339
I265
aI271
ag213
ag214
ag216
ag218
ag220
aa(lp3340
I280
aI287
ag222
ag223
ag225
ag227
ag229
aa(lp3341
I294
aI297
ag231
ag232
ag234
ag236
ag238
aa(lp3342
I306
aI312
ag240
ag241
ag243
ag245
ag247
aa(lp3343
I321
aI324
ag249
ag250
ag252
ag254
ag256
aa(lp3344
I326
aI332
ag258
ag259
ag261
ag263
ag265
aa(lp3345
I339
aI345
ag267
ag268
ag270
ag272
ag274
aa(lp3346
I347
aI353
ag276
ag277
ag279
ag281
ag283
aa(lp3347
I362
aI365
ag285
ag286
ag288
ag290
ag292
aa(lp3348
I376
aI380
ag294
ag295
ag297
ag299
ag301
aa(lp3349
I382
aI388
ag303
ag304
ag306
ag308
ag310
aa(lp3350
I394
aI404
ag312
ag313
ag315
ag317
ag319
aa(lp3351
I412
aI418
ag321
ag322
ag324
ag326
ag328
aa(lp3352
I423
aI430
ag330
ag331
ag333
ag335
ag337
aa(lp3353
I444
aI448
ag339
ag340
ag342
ag344
ag346
aa(lp3354
I450
aI458
ag348
ag349
ag351
ag353
ag355
aa(lp3355
I464
aI468
ag357
ag358
ag360
ag362
ag364
aa(lp3356
I474
aI481
ag366
ag367
ag369
ag371
ag373
aa(lp3357
I483
aI492
ag375
ag376
ag378
ag380
ag382
aa(lp3358
I498
aI503
ag384
ag385
ag387
ag389
ag391
aa(lp3359
I511
aI517
ag393
ag394
ag396
ag398
ag400
aa(lp3360
I523
aI533
ag402
ag403
ag405
ag407
ag409
aa(lp3361
I540
aI546
ag411
ag412
ag414
ag416
ag418
aa(lp3362
I559
aI567
ag420
ag421
ag423
ag425
ag427
aa(lp3363
I573
aI575
ag429
ag430
ag432
ag434
ag436
aa(lp3364
I577
aI582
ag438
ag439
ag441
ag443
ag445
aa(lp3365
I596
aI605
ag447
ag448
ag450
ag452
ag454
aa(lp3366
I610
aI618
ag456
ag457
ag459
ag461
ag463
aa(lp3367
I620
aI625
ag465
ag466
ag468
ag470
ag472
aa(lp3368
I627
aI632
ag474
ag475
ag477
ag479
ag481
aa(lp3369
I646
aI649
ag483
ag484
ag486
ag488
ag490
aa(lp3370
I654
aI657
ag492
ag493
ag495
ag497
ag499
aa(lp3371
I667
aI669
ag501
ag502
ag504
ag506
ag508
aa(lp3372
I677
aI683
ag510
ag511
ag513
ag515
ag517
aa(lp3373
I685
aI694
ag519
ag520
ag522
ag524
ag526
aa(lp3374
I696
aI702
ag528
ag529
ag531
ag533
ag535
aa(lp3375
I705
aI713
ag537
ag538
ag540
ag542
ag544
aa(lp3376
I726
aI729
ag546
ag547
ag549
ag551
ag553
aa(lp3377
I735
aI738
ag555
ag556
ag558
ag560
ag562
aa(lp3378
I755
aI762
ag564
ag565
ag567
ag569
ag571
aa(lp3379
I767
aI771
ag573
ag574
ag576
ag578
ag580
aa(lp3380
I777
aI781
ag582
ag583
ag585
ag587
ag589
aa(lp3381
I783
aI788
ag591
ag592
ag594
ag596
ag598
aa(lp3382
I795
aI798
ag600
ag601
ag603
ag605
ag607
aa(lp3383
I800
aI805
ag609
ag610
ag612
ag614
ag616
aa(lp3384
I810
aI819
ag618
ag619
ag621
ag623
ag625
aa(lp3385
I821
aI827
ag627
ag628
ag630
ag632
ag634
aa(lp3386
I834
aI840
ag636
ag637
ag639
ag641
ag643
aa(lp3387
I842
aI847
ag645
ag646
ag648
ag650
ag652
aa(lp3388
I864
aI867
ag654
ag655
ag657
ag659
ag661
aa(lp3389
I876
aI880
ag663
ag664
ag666
ag668
ag670
aa(lp3390
I882
aI889
ag672
ag673
ag675
ag677
ag679
aa(lp3391
I891
aI896
ag681
ag682
ag684
ag686
ag688
aa(lp3392
I908
aI914
ag690
ag691
ag693
ag695
ag697
aa(lp3393
I917
aI922
ag699
ag700
ag702
ag704
ag706
aa(lp3394
I928
aI931
ag708
ag709
ag711
ag713
ag715
aa(lp3395
I939
aI942
ag717
ag718
ag720
ag722
ag724
aa(lp3396
I956
aI961
ag726
ag727
ag729
ag731
ag733
aa(lp3397
I963
aI967
ag735
ag736
ag738
ag740
ag742
aa(lp3398
I974
aI977
ag744
ag745
ag747
ag749
ag751
aa(lp3399
I979
aI989
ag753
ag754
ag756
ag758
ag760
aa(lp3400
I998
aI1001
ag762
ag763
ag765
ag767
ag769
aa(lp3401
I1003
aI1005
ag771
ag772
ag774
ag776
ag778
aa(lp3402
I1007
aI1008
ag780
ag781
ag783
ag785
ag787
aa(lp3403
I1010
aI1012
ag789
ag790
ag792
ag794
ag796
aa(lp3404
I1025
aI1029
ag798
ag799
ag801
ag803
ag805
aa(lp3405
I1036
aI1043
ag807
ag808
ag810
ag812
ag814
aa(lp3406
I1045
aI1054
ag816
ag817
ag819
ag821
ag823
aa(lp3407
I1065
aI1072
ag825
ag826
ag828
ag830
ag832
aa(lp3408
I1077
aI1082
ag834
ag835
ag837
ag839
ag841
aa(lp3409
I1084
aI1089
ag843
ag844
ag846
ag848
ag850
aa(lp3410
I1095
aI1099
ag852
ag853
ag855
ag857
ag859
aa(lp3411
I1105
aI1110
ag861
ag862
ag864
ag866
ag868
aa(lp3412
I1115
aI1121
ag870
ag871
ag873
ag875
ag877
aa(lp3413
I1130
aI1136
ag879
ag880
ag882
ag884
ag886
aa(lp3414
I1138
aI1149
ag888
ag889
ag891
ag893
ag895
aa(lp3415
I1155
aI1161
ag897
ag898
ag900
ag902
ag904
aa(lp3416
I1187
aI1193
ag906
ag907
ag909
ag911
ag913
aa(lp3417
I1203
aI1210
ag915
ag916
ag918
ag920
ag922
aa(lp3418
I1215
aI1221
ag924
ag925
ag927
ag929
ag931
aa(lp3419
I1230
aI1234
ag933
ag934
ag936
ag938
ag940
aa(lp3420
I1236
aI1241
ag942
ag943
ag945
ag947
ag949
aa(lp3421
I1246
aI1250
ag951
ag952
ag954
ag956
ag958
aa(lp3422
I1260
aI1263
ag960
ag961
ag963
ag965
ag967
aa(lp3423
I1276
aI1281
ag969
ag970
ag972
ag974
ag976
aa(lp3424
I1288
aI1293
ag978
ag979
ag981
ag983
ag985
aa(lp3425
I1298
aI1302
ag987
ag988
ag990
ag992
ag994
aa(lp3426
I1318
aI1324
ag996
ag997
ag999
ag1001
ag1003
aa(lp3427
I1330
aI1336
ag1005
ag1006
ag1008
ag1010
ag1012
aa(lp3428
I1341
aI1347
ag1014
ag1015
ag1017
ag1019
ag1021
aa(lp3429
I1354
aI1362
ag1023
ag1024
ag1026
ag1028
ag1030
aa(lp3430
I1364
aI1367
ag1032
ag1033
ag1035
ag1037
ag1039
aa(lp3431
I1376
aI1381
ag1041
ag1042
ag1044
ag1046
ag1048
aa(lp3432
I1386
aI1392
ag1050
ag1051
ag1053
ag1055
ag1057
aa(lp3433
I1397
aI1399
ag1059
ag1060
ag1062
ag1064
ag1066
aa(lp3434
I1406
aI1409
ag1068
ag1069
ag1071
ag1073
ag1075
aa(lp3435
I1411
aI1417
ag1077
ag1078
ag1080
ag1082
ag1084
aa(lp3436
I1419
aI1423
ag1086
ag1087
ag1089
ag1091
ag1093
aa(lp3437
I1425
aI1430
ag1095
ag1096
ag1098
ag1100
ag1102
aa(lp3438
I1436
aI1448
ag1104
ag1105
ag1107
ag1109
ag1111
aa(lp3439
I1459
aI1463
ag1113
ag1114
ag1116
ag1118
ag1120
aa(lp3440
I1465
aI1471
ag1122
ag1123
ag1125
ag1127
ag1129
aa(lp3441
I1476
aI1477
ag1131
ag1132
ag1134
ag1136
ag1138
aasS'characterMap'
p3442
(lp3443
g1143
ag3031
ag1146
ag1148
ag1150
ag1152
ag1154
ag1156
ag3033
ag1161
ag1163
ag1165
ag3034
ag1170
ag1172
ag3035
ag1175
ag1176
ag1177
ag1178
ag1180
ag1181
ag1182
ag1184
ag3036
ag1188
ag1190
ag1191
ag1193
ag3037
ag1196
ag1198
ag1199
ag1200
ag1201
ag1203
ag1204
ag1205
ag3038
ag1208
ag1210
ag1211
ag1212
ag1213
ag1214
ag1215
ag1216
a(lp3444
I47
aS'?'
p3445
aag3039
ag1220
ag1221
ag1222
ag1223
ag1224
ag3040
ag1228
ag1229
ag1230
ag3041
ag1233
ag1234
ag1235
ag1236
ag1237
ag3042
ag1241
ag1243
ag1244
ag1245
ag3043
ag1249
ag1250
ag1251
ag1252
ag3044
ag1255
ag3045
ag1259
ag1260
ag1261
ag3046
ag1264
ag1265
ag1266
ag1268
ag1269
ag1270
ag1271
ag1272
ag1273
ag3047
ag1276
ag1277
ag1278
ag1279
ag1280
ag1281
ag3048
ag1286
ag1287
ag1288
ag3049
ag1291
ag1292
ag1293
ag1294
ag1295
ag3050
ag1299
ag1300
ag1301
ag1302
ag1303
ag3051
ag1306
ag1307
ag1308
ag3052
ag1312
ag1313
ag1314
ag3053
ag1318
ag1319
ag1320
ag3054
ag1323
ag1325
ag1326
ag3055
ag1330
ag1331
ag1332
ag1333
ag3056
ag1336
ag1337
ag1338
ag1339
ag1340
ag1341
ag1342
ag1343
ag1344
ag1345
ag1346
a(lp3446
I146
aS','
p3447
aag3057
ag1350
ag1351
ag1352
ag3058
ag1355
ag1356
ag1357
ag1358
ag1359
ag1360
ag1361
ag1362
ag3059
ag1366
ag1367
ag3060
ag1370
ag1371
ag1372
ag1373
ag1374
ag1375
ag1376
ag1377
ag1378
ag3061
ag1382
ag1383
ag1384
ag3062
ag1387
ag1388
ag1389
ag1390
a(lp3448
I182
aS'.'
p3449
aag3063
ag1393
ag1394
ag1395
ag1396
ag1397
ag1398
ag1399
ag1400
ag1401
ag1402
ag3064
ag1406
ag1407
ag3065
ag1411
ag1412
ag1413
ag1414
ag3066
ag1418
ag1419
ag3067
ag1423
ag1424
ag1425
ag3068
ag1428
ag1429
ag3069
ag1432
ag1433
ag1434
ag1435
ag1436
ag1437
ag1438
ag1439
ag3070
ag1443
ag1444
ag3071
ag1448
ag1449
ag1450
ag1451
ag1452
ag3072
ag1455
ag1456
ag1457
ag1458
ag1459
ag1460
ag1461
ag1462
ag1463
ag3073
ag1467
ag1468
ag1469
ag3074
ag1472
ag1473
ag1474
ag1475
ag1476
ag1477
ag1478
ag1479
ag1480
ag3075
ag1483
ag1484
ag1485
ag3076
ag1488
ag1489
ag1490
ag1491
ag1492
ag3077
ag1495
ag1496
ag1497
ag1498
ag1499
ag1500
ag1501
ag3078
ag1505
ag1506
ag3079
ag1510
ag1511
ag1512
ag3080
ag1515
ag1516
ag1517
ag1518
ag1519
ag1520
ag1521
ag1522
a(lp3450
I288
ag3449
aag3081
ag1526
ag1527
ag1528
ag3082
ag1531
ag1532
ag1533
ag1534
ag3083
ag1538
ag1539
ag3084
ag1543
ag1544
ag1545
ag3085
ag1548
ag1550
ag1551
ag1552
ag1553
ag1554
ag1555
ag3086
ag1559
ag1560
ag3087
ag1564
ag1565
ag1566
ag3088
ag1569
ag1570
ag1571
ag1572
ag3089
ag1575
ag1576
ag1577
ag1578
ag1579
ag1580
ag1581
a(lp3451
I333
ag3445
aag3090
ag1585
ag1586
ag1587
ag3091
ag1590
ag1591
ag1592
ag1593
ag1594
ag1595
ag1596
ag3092
ag1599
ag1600
ag1601
ag1602
ag1603
ag1604
ag1605
ag3093
ag1609
ag1610
ag3094
ag1614
ag1615
ag1616
ag3095
ag1619
ag1620
ag1621
ag1622
ag3096
ag1626
ag1627
ag3097
ag1631
ag1632
ag1633
ag1634
ag1635
ag3098
ag1638
ag1639
ag1640
ag1641
ag1642
ag3099
ag1645
ag1646
ag1647
ag1648
ag1649
ag1650
ag1651
ag3100
ag1655
ag1656
ag1657
ag3101
ag1660
ag1661
ag1662
ag1663
ag1664
ag1665
ag1666
ag1667
ag1668
ag1669
ag1670
a(lp3452
I405
ag3449
aag3102
ag1674
ag1675
ag1676
ag1677
ag3103
ag1680
ag1681
ag1682
ag1683
ag1684
ag1685
ag1686
ag3104
ag1690
ag1691
ag3105
ag1694
ag1695
ag1696
ag1697
ag1698
ag1699
ag1700
ag1701
ag3106
ag1705
ag1706
ag3107
ag1710
ag1711
ag1712
ag3108
ag1716
ag1717
ag1718
ag1719
ag3109
ag1722
ag1723
ag1724
ag1725
ag1726
ag3110
ag1729
ag1730
ag1731
ag1732
ag1733
ag1734
ag1735
ag1736
ag1737
ag3111
ag1741
ag1742
ag1743
ag3112
ag1746
ag1747
ag1748
ag1749
ag1750
ag3113
ag1754
ag1755
ag1756
ag3114
ag1759
ag1760
ag1761
ag1762
ag1763
ag1764
ag1765
ag1766
ag3115
ag1769
ag1770
ag1771
ag1772
ag1773
ag1774
ag1775
ag1776
ag1777
ag1778
ag3116
ag1782
ag1783
a(lp3453
I496
aS':'
p3454
aag3117
ag1786
ag1788
a(lp3455
I500
aS'/'
p3456
aag1789
ag1790
ag1791
a(lp3457
I504
ag3449
aag3118
ag1795
ag1796
ag1797
ag1798
ag3119
ag1801
ag1802
ag1803
ag1804
ag1805
ag1806
ag1807
ag3120
ag1811
ag1812
ag1813
ag3121
ag1816
ag1817
ag1818
ag1819
ag1820
ag1821
ag1822
ag1823
ag1824
ag1825
ag1826
ag3122
ag1830
ag1831
ag3123
ag1834
ag3124
ag1837
ag1838
ag1839
ag1840
ag1841
ag1842
ag1843
ag3125
ag1847
ag1848
ag3126
ag1852
ag1853
ag1854
ag1855
ag1856
ag1857
ag1858
ag3127
ag1861
ag1863
ag1865
ag1866
ag1867
a(lp3458
I564
ag3456
aag1868
ag1869
ag1870
ag3128
ag1874
ag1875
ag1876
ag3129
ag1879
ag1881
ag1882
ag3130
ag1885
ag1886
a(lp3459
I579
ag3456
aag1887
ag1888
ag1889
a(lp3460
I583
ag3447
aag3131
ag1893
ag1894
ag3132
ag1898
ag1899
ag3133
ag1903
ag1904
ag1905
ag1906
ag3134
ag1909
ag1910
ag1911
ag1912
ag1913
ag1914
ag1915
ag1916
ag1917
ag1918
ag3135
ag1922
ag1923
ag3136
ag1926
ag1927
ag1928
ag1929
ag1930
ag1931
ag1932
ag1933
ag1934
ag3137
ag1937
ag1938
ag1939
ag1940
ag1941
ag1942
ag3138
ag1945
ag1947
ag1949
ag1950
ag1951
ag1952
ag3139
ag1956
ag1957
ag1958
ag1959
ag1960
ag3140
ag1964
ag1965
ag3141
ag1969
ag1970
ag3142
ag1973
ag1974
ag1975
ag1976
ag3143
ag1980
ag1981
ag3144
ag1984
ag1985
ag1986
ag1987
ag3145
ag1991
ag1992
ag1993
ag3146
ag1997
ag1998
ag1999
ag3147
ag2002
ag2003
ag2004
ag3148
ag2008
ag2009
ag2010
ag3149
ag2013
ag3150
ag2016
ag2017
ag2018
ag2019
ag2020
ag2021
ag2022
ag3151
ag2025
ag2026
ag2027
ag2028
ag2029
ag2030
ag2031
ag2032
ag2033
ag2034
ag3152
ag2037
ag2038
ag2039
ag2040
ag2041
ag2042
ag2043
a(lp3461
I703
ag3449
aag3153
ag2046
ag2047
ag2048
ag2049
ag2050
a(lp3462
I710
ag3456
aag2051
ag2052
ag2053
ag3154
ag2057
ag2058
ag3155
ag2062
ag2063
ag2064
ag2065
ag3156
ag2069
ag2070
ag3157
ag2073
ag2074
ag2075
ag2076
ag3158
ag2080
ag2081
ag2082
ag3159
ag2085
ag2086
ag2087
ag2088
ag3160
ag2092
ag2093
ag3161
ag2097
ag2098
ag2099
ag2100
ag2101
ag3162
ag2105
ag2106
ag3163
ag2110
ag2111
ag3164
ag2114
ag2115
ag2116
ag2117
ag2118
ag2119
ag2120
ag2121
ag3165
ag2125
ag2126
ag3166
ag2129
ag2130
ag2131
ag2132
ag2133
ag3167
ag2137
ag2138
ag2139
ag3168
ag2142
ag2143
ag2144
ag2145
ag2146
ag3169
ag2149
ag2150
ag2151
ag2152
ag2153
ag2154
ag3170
ag2158
ag2159
ag3171
ag2162
ag3172
ag2165
ag2166
ag2167
ag2168
ag3173
ag2171
ag2172
ag2173
ag2174
ag2175
ag2176
ag3174
ag2180
ag2181
ag3175
ag2184
ag2185
ag2186
ag2187
ag2188
ag2189
ag2190
ag2191
ag2192
ag2193
ag3176
ag2196
ag2197
ag2198
ag2199
ag2200
ag2201
ag2202
a(lp3463
I828
ag3449
aag3177
ag2206
ag2207
ag2208
ag3178
ag2211
ag2212
ag2213
ag2214
ag2215
ag2216
ag2217
ag3179
ag2220
ag2221
ag2222
ag2223
ag2224
ag2225
ag3180
ag2229
ag2230
ag2231
ag2232
ag3181
ag2236
ag2237
ag2238
ag2239
a(lp3464
I858
ag3447
aag3182
ag2243
ag2244
ag2245
ag3183
ag2248
ag2249
ag2250
ag2252
ag3184
ag2256
ag2257
ag3185
ag2261
ag2262
ag2263
ag3186
ag2266
ag2267
ag2268
ag2269
ag2270
ag3187
ag2273
ag2274
ag2275
ag2276
ag2277
ag2278
a(lp3465
I888
aS"'"
p3466
aag2279
ag3188
ag2282
ag2283
ag2284
ag2285
ag2286
ag2287
ag3189
ag2291
ag2292
ag2293
ag3190
ag2297
ag2298
ag3191
ag2302
ag2303
ag3192
ag2306
ag2307
ag2308
ag2309
ag2310
ag2311
ag2312
a(lp3467
I915
ag3449
aag3193
ag2315
ag2316
ag2317
ag2318
ag2319
ag2320
ag3194
ag2324
ag2325
ag2326
ag3195
ag2329
ag2330
ag2331
ag2332
ag3196
ag2336
ag2337
ag3197
ag2341
ag2342
ag3198
ag2345
ag2346
ag2347
ag2348
a(lp3468
I943
aS'!'
p3469
aag3199
ag2352
ag2353
ag2354
ag2355
ag2356
ag3200
ag2360
ag2361
ag2362
ag2363
ag3201
ag2366
ag2367
ag2368
ag2369
ag2370
ag2371
ag3202
ag2374
ag2375
ag2376
ag2377
ag2378
ag3203
ag2382
ag2383
ag3204
ag2386
ag3205
ag2389
ag2390
ag2391
ag2392
ag3206
ag2395
ag2396
ag2397
ag2398
ag2399
ag2400
ag2401
ag2402
ag2403
ag2404
ag2405
ag3207
ag2409
ag2410
ag3208
ag2414
ag2415
ag2416
ag3209
ag2419
ag2420
ag2421
ag2422
ag3210
ag2425
ag2426
ag2427
ag3211
ag2430
ag2431
ag3212
ag2434
ag2435
ag2436
a(lp3470
I1013
ag3447
aag3213
ag2440
ag2441
ag2442
ag2443
ag2444
ag3214
ag2448
ag2449
ag2450
ag3215
ag2453
ag2454
ag2455
ag2456
ag2457
ag3216
ag2461
ag2462
ag2463
ag2464
ag3217
ag2467
ag2468
ag2469
ag2470
ag2471
ag2472
ag2473
ag2474
ag3218
ag2477
ag2478
ag2479
ag2480
ag2481
ag2482
ag2483
ag2484
ag2485
ag2486
ag3219
ag2490
ag2491
ag2492
ag2493
ag3220
ag2497
ag2498
a(lp3471
I1063
ag3449
aag3221
ag2501
ag2502
ag2503
ag2504
ag2505
ag2506
ag2507
ag2508
ag3222
ag2512
ag2513
ag3223
ag2516
ag2517
ag2518
ag2519
ag2520
ag2521
ag3224
ag2524
ag2525
ag2526
ag2527
ag2528
ag2529
ag3225
ag2533
ag2534
ag2535
ag3226
ag2538
ag2539
ag2540
ag2541
ag2542
ag3227
ag2546
ag2547
ag2548
ag3228
ag2551
ag2552
ag2553
ag2554
ag2555
ag2556
ag3229
ag2560
ag2561
ag3230
ag2564
ag2565
ag2566
ag2567
ag2568
ag2569
ag2570
ag3231
ag2574
ag2575
ag3232
ag2579
ag2580
ag2581
ag3233
ag2584
ag2585
ag2586
ag2587
ag2588
ag2589
ag2590
ag3234
ag2593
ag2594
ag2595
ag2596
ag2597
ag2598
ag2599
ag2600
ag2601
ag2602
ag2603
ag2604
ag3235
ag2608
ag2609
ag2610
ag3236
ag2613
ag2614
ag2615
ag2616
ag2617
ag2618
ag2619
a(lp3472
I1162
ag3447
aag3237
ag2623
ag2625
ag2626
ag2627
ag3238
ag2631
ag2632
ag3239
ag2636
ag2637
ag2638
ag3240
ag2642
ag2643
ag2644
a(lp3473
I1179
ag3449
aag3241
ag2648
ag2649
ag2650
ag2651
ag2652
ag3242
ag2655
ag2656
ag2657
ag2658
ag2659
ag2660
ag2661
ag3243
ag2665
ag2666
ag2667
ag3244
ag2671
ag2672
ag2673
ag3245
ag2676
ag2677
ag2678
ag2679
ag2680
ag2681
ag2682
ag2683
ag3246
ag2687
ag2688
ag3247
ag2691
ag2692
ag2693
ag2694
ag2695
ag2696
ag2697
ag3248
ag2701
ag2702
ag2703
ag2704
ag3249
ag2707
ag3250
ag2710
ag2711
ag2712
ag2713
ag2714
ag3251
ag2717
ag2718
ag2719
ag2720
ag2721
ag2722
ag3252
ag2726
ag2727
ag3253
ag2730
ag2731
ag2732
ag2733
ag2734
a(lp3474
I1251
ag3447
aag3254
ag2738
ag2739
ag3255
ag2743
ag2744
ag2745
ag3256
ag2748
ag2749
ag2750
ag2751
ag3257
ag2755
ag2756
ag3258
ag2760
ag2761
ag2762
ag2763
ag3259
ag2767
ag2768
ag3260
ag2771
ag2772
ag2773
ag2774
ag2775
ag2776
a(lp3475
I1282
ag3449
aag3261
ag2780
ag2781
ag2782
ag3262
ag2785
ag2786
ag2787
ag2788
ag2789
ag2790
ag3263
ag2794
ag2795
ag3264
ag2798
ag2799
ag2800
ag2801
ag2802
ag3265
ag2806
ag2807
ag2808
ag2809
ag3266
ag2813
ag2814
ag3267
ag2818
ag2819
ag2820
ag2821
ag2822
ag3268
ag2825
ag2826
ag2827
ag2828
ag2829
ag2830
ag2831
ag3269
ag2835
ag2836
ag2837
ag3270
ag2840
ag2841
ag2842
ag2843
ag2844
ag2845
ag2846
ag3271
ag2850
ag2851
ag3272
ag2854
ag2855
ag2856
ag2857
ag2858
ag2859
ag2860
a(lp3476
I1348
ag3447
aag3273
ag2864
ag2865
ag2866
ag3274
ag2869
ag2870
ag2871
ag2872
ag2873
ag2874
ag2875
ag2876
ag2877
ag3275
ag2880
ag2881
ag2882
ag2883
ag3276
ag2887
ag2888
ag3277
ag2892
ag2893
ag2894
ag3278
ag2897
ag2898
ag2899
ag2900
ag2901
ag2902
ag3279
ag2906
ag2907
ag3280
ag2910
ag2911
ag2912
ag2913
ag2914
ag2915
ag2916
ag3281
ag2920
ag2921
ag3282
ag2924
ag2925
ag2926
a(lp3477
I1400
ag3447
aag3283
ag2930
ag2931
ag2932
ag3284
ag2935
ag2936
ag2937
ag2938
ag3285
ag2941
ag2942
ag2943
ag2944
ag2945
ag2946
ag2947
ag3286
ag2950
ag2951
ag2952
ag2953
ag2954
ag3287
ag2957
ag2958
ag2959
ag2960
ag2961
ag2962
ag3288
ag2966
ag2967
ag2968
ag3289
ag2971
ag2972
ag2973
ag2974
ag2975
ag2976
ag2977
ag2978
ag2979
ag2980
ag2981
ag2982
ag2983
a(lp3478
I1449
ag3447
aag3290
ag2987
ag2988
ag3291
ag2992
ag2993
ag2994
ag2995
ag3292
ag2998
ag2999
ag3000
ag3001
ag3002
ag3293
ag3005
ag3006
ag3007
ag3008
ag3009
ag3010
ag3011
ag3294
ag3015
ag3016
ag3295
ag3020
ag3021
ag3296
ag3024
ag3025
ag3026
ag3027
ag3028
a(lp3479
I1484
ag3449
aasS'docName'
p3480
S'source-document00089.txt'
p3481
sb.