(iModel.Document
Document
p0
(dp1
S'fmap'
p2
(lp3
(lp4
I11
aI15
aS'heart'
p5
a(lp6
S'*'
p7
ag5
aaa(lp8
I11
aI15
ag5
a(lp9
g7
ag5
aaa(lp10
I11
aI15
ag5
a(lp11
g7
ag5
aaa(lp12
I11
aI15
ag5
a(lp13
g7
ag5
aaa(lp14
I20
aI27
aS'possible'
p15
a(lp16
g5
ag15
aaa(lp17
I20
aI27
ag15
a(lp18
g7
ag15
aaa(lp19
I20
aI27
ag15
a(lp20
g7
ag15
aaa(lp21
I20
aI27
ag15
a(lp22
g7
ag15
aaa(lp23
I30
aI34
aS'apply'
p24
a(lp25
g15
ag24
aaa(lp26
I30
aI34
ag24
a(lp27
g5
ag24
aaa(lp28
I30
aI34
ag24
a(lp29
g7
ag24
aaa(lp30
I30
aI34
ag24
a(lp31
g7
ag24
aaa(lp32
I38
aI41
aS'cold'
p33
a(lp34
g24
ag33
aaa(lp35
I38
aI41
ag33
a(lp36
g15
ag33
aaa(lp37
I38
aI41
ag33
a(lp38
g5
ag33
aaa(lp39
I38
aI41
ag33
a(lp40
g7
ag33
aaa(lp41
I43
aI50
aS'compress'
p42
a(lp43
g33
ag42
aaa(lp44
I43
aI50
ag42
a(lp45
g24
ag42
aaa(lp46
I43
aI50
ag42
a(lp47
g15
ag42
aaa(lp48
I43
aI50
ag42
a(lp49
g5
ag42
aaa(lp50
I53
aI56
aS'wrap'
p51
a(lp52
g42
ag51
aaa(lp53
I53
aI56
ag51
a(lp54
g33
ag51
aaa(lp55
I53
aI56
ag51
a(lp56
g24
ag51
aaa(lp57
I53
aI56
ag51
a(lp58
g15
ag51
aaa(lp59
I58
aI60
aS'ice'
p60
a(lp61
g51
ag60
aaa(lp62
I58
aI60
ag60
a(lp63
g42
ag60
aaa(lp64
I58
aI60
ag60
a(lp65
g33
ag60
aaa(lp66
I58
aI60
ag60
a(lp67
g24
ag60
aaa(lp68
I67
aI71
aS'moist'
p69
a(lp70
g60
ag69
aaa(lp71
I67
aI71
ag69
a(lp72
g51
ag69
aaa(lp73
I67
aI71
ag69
a(lp74
g42
ag69
aaa(lp75
I67
aI71
ag69
a(lp76
g33
ag69
aaa(lp77
I73
aI76
aS'hand'
p78
a(lp79
g69
ag78
aaa(lp80
I73
aI76
ag78
a(lp81
g60
ag78
aaa(lp82
I73
aI76
ag78
a(lp83
g51
ag78
aaa(lp84
I73
aI76
ag78
a(lp85
g42
ag78
aaa(lp86
I78
aI82
aS'towel'
p87
a(lp88
g78
ag87
aaa(lp89
I78
aI82
ag87
a(lp90
g69
ag87
aaa(lp91
I78
aI82
ag87
a(lp92
g60
ag87
aaa(lp93
I78
aI82
ag87
a(lp94
g51
ag87
aaa(lp95
I92
aI96
aS'apply'
p96
a(lp97
g87
ag96
aaa(lp98
I92
aI96
ag96
a(lp99
g78
ag96
aaa(lp100
I92
aI96
ag96
a(lp101
g69
ag96
aaa(lp102
I92
aI96
ag96
a(lp103
g60
ag96
aaa(lp104
I98
aI100
aS'ice'
p105
a(lp106
g96
ag105
aaa(lp107
I98
aI100
ag105
a(lp108
g87
ag105
aaa(lp109
I98
aI100
ag105
a(lp110
g78
ag105
aaa(lp111
I98
aI100
ag105
a(lp112
g69
ag105
aaa(lp113
I102
aI109
aS'directly'
p114
a(lp115
g105
ag114
aaa(lp116
I102
aI109
ag114
a(lp117
g96
ag114
aaa(lp118
I102
aI109
ag114
a(lp119
g87
ag114
aaa(lp120
I102
aI109
ag114
a(lp121
g78
ag114
aaa(lp122
I118
aI121
aS'skin'
p123
a(lp124
g114
ag123
aaa(lp125
I118
aI121
ag123
a(lp126
g105
ag123
aaa(lp127
I118
aI121
ag123
a(lp128
g96
ag123
aaa(lp129
I118
aI121
ag123
a(lp130
g87
ag123
aaa(lp131
I124
aI128
aS'apply'
p132
a(lp133
g123
ag132
aaa(lp134
I124
aI128
ag132
a(lp135
g114
ag132
aaa(lp136
I124
aI128
ag132
a(lp137
g105
ag132
aaa(lp138
I124
aI128
ag132
a(lp139
g96
ag132
aaa(lp140
I134
aI138
aS'2030'
p141
a(lp142
g132
ag141
aaa(lp143
I134
aI138
ag141
a(lp144
g123
ag141
aaa(lp145
I134
aI138
ag141
a(lp146
g114
ag141
aaa(lp147
I134
aI138
ag141
a(lp148
g105
ag141
aaa(lp149
I140
aI146
aS'minutes'
p150
a(lp151
g141
ag150
aaa(lp152
I140
aI146
ag150
a(lp153
g132
ag150
aaa(lp154
I140
aI146
ag150
a(lp155
g123
ag150
aaa(lp156
I140
aI146
ag150
a(lp157
g114
ag150
aaa(lp158
I149
aI153
aS'every'
p159
a(lp160
g150
ag159
aaa(lp161
I149
aI153
ag159
a(lp162
g141
ag159
aaa(lp163
I149
aI153
ag159
a(lp164
g132
ag159
aaa(lp165
I149
aI153
ag159
a(lp166
g123
ag159
aaa(lp167
I155
aI157
aS'12'
p168
a(lp169
g159
ag168
aaa(lp170
I155
aI157
ag168
a(lp171
g150
ag168
aaa(lp172
I155
aI157
ag168
a(lp173
g141
ag168
aaa(lp174
I155
aI157
ag168
a(lp175
g132
ag168
aaa(lp176
I159
aI163
aS'hours'
p177
a(lp178
g168
ag177
aaa(lp179
I159
aI163
ag177
a(lp180
g159
ag177
aaa(lp181
I159
aI163
ag177
a(lp182
g150
ag177
aaa(lp183
I159
aI163
ag177
a(lp184
g141
ag177
aaa(lp185
I174
aI178
aS'first'
p186
a(lp187
g177
ag186
aaa(lp188
I174
aI178
ag186
a(lp189
g168
ag186
aaa(lp190
I174
aI178
ag186
a(lp191
g159
ag186
aaa(lp192
I174
aI178
ag186
a(lp193
g150
ag186
aaa(lp194
I184
aI187
aS'days'
p195
a(lp196
g186
ag195
aaa(lp197
I184
aI187
ag195
a(lp198
g177
ag195
aaa(lp199
I184
aI187
ag195
a(lp200
g168
ag195
aaa(lp201
I184
aI187
ag195
a(lp202
g159
ag195
aaa(lp203
I190
aI193
aS'wear'
p204
a(lp205
g195
ag204
aaa(lp206
I190
aI193
ag204
a(lp207
g186
ag204
aaa(lp208
I190
aI193
ag204
a(lp209
g177
ag204
aaa(lp210
I190
aI193
ag204
a(lp211
g168
ag204
aaa(lp212
I197
aI201
aS'sling'
p213
a(lp214
g204
ag213
aaa(lp215
I197
aI201
ag213
a(lp216
g195
ag213
aaa(lp217
I197
aI201
ag213
a(lp218
g186
ag213
aaa(lp219
I197
aI201
ag213
a(lp220
g177
ag213
aaa(lp221
I207
aI213
aS'comfort'
p222
a(lp223
g213
ag222
aaa(lp224
I207
aI213
ag222
a(lp225
g204
ag222
aaa(lp226
I207
aI213
ag222
a(lp227
g195
ag222
aaa(lp228
I207
aI213
ag222
a(lp229
g186
ag222
aaa(lp230
I216
aI219
aS'long'
p231
a(lp232
g222
ag231
aaa(lp233
I216
aI219
ag231
a(lp234
g213
ag231
aaa(lp235
I216
aI219
ag231
a(lp236
g204
ag231
aaa(lp237
I216
aI219
ag231
a(lp238
g195
ag231
aaa(lp239
I221
aI224
aS'term'
p240
a(lp241
g231
ag240
aaa(lp242
I221
aI224
ag240
a(lp243
g222
ag240
aaa(lp244
I221
aI224
ag240
a(lp245
g213
ag240
aaa(lp246
I221
aI224
ag240
a(lp247
g204
ag240
aaa(lp248
I226
aI239
aS'immobilization'
p249
a(lp250
g240
ag249
aaa(lp251
I226
aI239
ag249
a(lp252
g231
ag249
aaa(lp253
I226
aI239
ag249
a(lp254
g222
ag249
aaa(lp255
I226
aI239
ag249
a(lp256
g213
ag249
aaa(lp257
I246
aI250
aS'sling'
p258
a(lp259
g249
ag258
aaa(lp260
I246
aI250
ag258
a(lp261
g240
ag258
aaa(lp262
I246
aI250
ag258
a(lp263
g231
ag258
aaa(lp264
I246
aI250
ag258
a(lp265
g222
ag258
aaa(lp266
I256
aI259
aS'lead'
p267
a(lp268
g258
ag267
aaa(lp269
I256
aI259
ag267
a(lp270
g249
ag267
aaa(lp271
I256
aI259
ag267
a(lp272
g240
ag267
aaa(lp273
I256
aI259
ag267
a(lp274
g231
ag267
aaa(lp275
I266
aI271
aS'frozen'
p276
a(lp277
g267
ag276
aaa(lp278
I266
aI271
ag276
a(lp279
g258
ag276
aaa(lp280
I266
aI271
ag276
a(lp281
g249
ag276
aaa(lp282
I266
aI271
ag276
a(lp283
g240
ag276
aaa(lp284
I273
aI280
aS'shoulder'
p285
a(lp286
g276
ag285
aaa(lp287
I273
aI280
ag285
a(lp288
g267
ag285
aaa(lp289
I273
aI280
ag285
a(lp290
g258
ag285
aaa(lp291
I273
aI280
ag285
a(lp292
g249
ag285
aaa(lp293
I289
aI292
aS'wear'
p294
a(lp295
g285
ag294
aaa(lp296
I289
aI292
ag294
a(lp297
g276
ag294
aaa(lp298
I289
aI292
ag294
a(lp299
g267
ag294
aaa(lp300
I289
aI292
ag294
a(lp301
g258
ag294
aaa(lp302
I296
aI303
aS'shoulder'
p303
a(lp304
g294
ag303
aaa(lp305
I296
aI303
ag303
a(lp306
g285
ag303
aaa(lp307
I296
aI303
ag303
a(lp308
g276
ag303
aaa(lp309
I296
aI303
ag303
a(lp310
g267
ag303
aaa(lp311
I305
aI309
aS'sling'
p312
a(lp313
g303
ag312
aaa(lp314
I305
aI309
ag312
a(lp315
g294
ag312
aaa(lp316
I305
aI309
ag312
a(lp317
g285
ag312
aaa(lp318
I305
aI309
ag312
a(lp319
g276
ag312
aaa(lp320
I315
aI320
aS'longer'
p321
a(lp322
g312
ag321
aaa(lp323
I315
aI320
ag321
a(lp324
g303
ag321
aaa(lp325
I315
aI320
ag321
a(lp326
g294
ag321
aaa(lp327
I315
aI320
ag321
a(lp328
g285
ag321
aaa(lp329
I327
aI329
aS'two'
p330
a(lp331
g321
ag330
aaa(lp332
I327
aI329
ag330
a(lp333
g312
ag330
aaa(lp334
I327
aI329
ag330
a(lp335
g303
ag330
aaa(lp336
I327
aI329
ag330
a(lp337
g294
ag330
aaa(lp338
I331
aI335
aS'weeks'
p339
a(lp340
g330
ag339
aaa(lp341
I331
aI335
ag339
a(lp342
g321
ag339
aaa(lp343
I331
aI335
ag339
a(lp344
g312
ag339
aaa(lp345
I331
aI335
ag339
a(lp346
g303
ag339
aaa(lp347
I337
aI340
aS'make'
p348
a(lp349
g339
ag348
aaa(lp350
I337
aI340
ag348
a(lp351
g330
ag348
aaa(lp352
I337
aI340
ag348
a(lp353
g321
ag348
aaa(lp354
I337
aI340
ag348
a(lp355
g312
ag348
aaa(lp356
I342
aI345
aS'sure'
p357
a(lp358
g348
ag357
aaa(lp359
I342
aI345
ag357
a(lp360
g339
ag357
aaa(lp361
I342
aI345
ag357
a(lp362
g330
ag357
aaa(lp363
I342
aI345
ag357
a(lp364
g321
ag357
aaa(lp365
I351
aI357
aS'perform'
p366
a(lp367
g357
ag366
aaa(lp368
I351
aI357
ag366
a(lp369
g348
ag366
aaa(lp370
I351
aI357
ag366
a(lp371
g339
ag366
aaa(lp372
I351
aI357
ag366
a(lp373
g330
ag366
aaa(lp374
I359
aI366
aS'shoulder'
p375
a(lp376
g366
ag375
aaa(lp377
I359
aI366
ag375
a(lp378
g357
ag375
aaa(lp379
I359
aI366
ag375
a(lp380
g348
ag375
aaa(lp381
I359
aI366
ag375
a(lp382
g339
ag375
aaa(lp383
I368
aI372
aS'range'
p384
a(lp385
g375
ag384
aaa(lp386
I368
aI372
ag384
a(lp387
g366
ag384
aaa(lp388
I368
aI372
ag384
a(lp389
g357
ag384
aaa(lp390
I368
aI372
ag384
a(lp391
g348
ag384
aaa(lp392
I377
aI382
aS'motion'
p393
a(lp394
g384
ag393
aaa(lp395
I377
aI382
ag393
a(lp396
g375
ag393
aaa(lp397
I377
aI382
ag393
a(lp398
g366
ag393
aaa(lp399
I377
aI382
ag393
a(lp400
g357
ag393
aaa(lp401
I384
aI392
aS'exercises'
p402
a(lp403
g393
ag402
aaa(lp404
I384
aI392
ag402
a(lp405
g384
ag402
aaa(lp406
I384
aI392
ag402
a(lp407
g375
ag402
aaa(lp408
I384
aI392
ag402
a(lp409
g366
ag402
aaa(lp410
I394
aI398
aS'twice'
p411
a(lp412
g402
ag411
aaa(lp413
I394
aI398
ag411
a(lp414
g393
ag411
aaa(lp415
I394
aI398
ag411
a(lp416
g384
ag411
aaa(lp417
I394
aI398
ag411
a(lp418
g375
ag411
aaa(lp419
I402
aI404
aS'day'
p420
a(lp421
g411
ag420
aaa(lp422
I402
aI404
ag420
a(lp423
g402
ag420
aaa(lp424
I402
aI404
ag420
a(lp425
g393
ag420
aaa(lp426
I402
aI404
ag420
a(lp427
g384
ag420
aaa(lp428
I409
aI413
aS'avoid'
p429
a(lp430
g420
ag429
aaa(lp431
I409
aI413
ag429
a(lp432
g411
ag429
aaa(lp433
I409
aI413
ag429
a(lp434
g402
ag429
aaa(lp435
I409
aI413
ag429
a(lp436
g393
ag429
aaa(lp437
I417
aI422
aS'frozen'
p438
a(lp439
g429
ag438
aaa(lp440
I417
aI422
ag438
a(lp441
g420
ag438
aaa(lp442
I417
aI422
ag438
a(lp443
g411
ag438
aaa(lp444
I417
aI422
ag438
a(lp445
g402
ag438
aaa(lp446
I424
aI431
aS'shoulder'
p447
a(lp448
g438
ag447
aaa(lp449
I424
aI431
ag447
a(lp450
g429
ag447
aaa(lp451
I424
aI431
ag447
a(lp452
g420
ag447
aaa(lp453
I424
aI431
ag447
a(lp454
g411
ag447
aaa(lp455
I440
aI442
aS'use'
p456
a(lp457
g447
ag456
aaa(lp458
I440
aI442
ag456
a(lp459
g438
ag456
aaa(lp460
I440
aI442
ag456
a(lp461
g429
ag456
aaa(lp462
I440
aI442
ag456
a(lp463
g420
ag456
aaa(lp464
I449
aI451
aS'arm'
p465
a(lp466
g456
ag465
aaa(lp467
I449
aI451
ag465
a(lp468
g447
ag465
aaa(lp469
I449
aI451
ag465
a(lp470
g438
ag465
aaa(lp471
I449
aI451
ag465
a(lp472
g429
ag465
aaa(lp473
I464
aI469
aS'doctor'
p474
a(lp475
g465
ag474
aaa(lp476
I464
aI469
ag474
a(lp477
g456
ag474
aaa(lp478
I464
aI469
ag474
a(lp479
g447
ag474
aaa(lp480
I464
aI469
ag474
a(lp481
g438
ag474
aaa(lp482
I471
aI477
aS'directs'
p483
a(lp484
g474
ag483
aaa(lp485
I471
aI477
ag483
a(lp486
g465
ag483
aaa(lp487
I471
aI477
ag483
a(lp488
g456
ag483
aaa(lp489
I471
aI477
ag483
a(lp490
g447
ag483
aaa(lp491
I493
aI498
aS'follow'
p492
a(lp493
g483
ag492
aaa(lp494
I493
aI498
ag492
a(lp495
g474
ag492
aaa(lp496
I493
aI498
ag492
a(lp497
g465
ag492
aaa(lp498
I493
aI498
ag492
a(lp499
g456
ag492
aaa(lp500
I505
aI512
aS'doctors'
p501
a(lp502
g492
ag501
aaa(lp503
I505
aI512
ag501
a(lp504
g483
ag501
aaa(lp505
I505
aI512
ag501
a(lp506
g474
ag501
aaa(lp507
I505
aI512
ag501
a(lp508
g465
ag501
aaa(lp509
I514
aI517
aS'care'
p510
a(lp511
g501
ag510
aaa(lp512
I514
aI517
ag510
a(lp513
g492
ag510
aaa(lp514
I514
aI517
ag510
a(lp515
g483
ag510
aaa(lp516
I514
aI517
ag510
a(lp517
g474
ag510
aaa(lp518
I519
aI530
aS'instructions'
p519
a(lp520
g510
ag519
aaa(lp521
I519
aI530
ag519
a(lp522
g501
ag519
aaa(lp523
I519
aI530
ag519
a(lp524
g492
ag519
aaa(lp525
I519
aI530
ag519
a(lp526
g483
ag519
aaa(lp527
I541
aI544
aS'cast'
p528
a(lp529
g519
ag528
aaa(lp530
I541
aI544
ag528
a(lp531
g510
ag528
aaa(lp532
I541
aI544
ag528
a(lp533
g501
ag528
aaa(lp534
I541
aI544
ag528
a(lp535
g492
ag528
aaa(lp536
I546
aI547
aS'splint'
p537
a(lp538
g528
ag537
aaa(lp539
I546
aI547
ag537
a(lp540
g519
ag537
aaa(lp541
I546
aI547
ag537
a(lp542
g510
ag537
aaa(lp543
I546
aI547
ag537
a(lp544
g501
ag537
aaasS'wordMap'
p545
(lp546
(lp547
I0
aI4
aS'above'
p548
a(lp549
(lp550
I0
aS'a'
p551
aa(lp552
I1
aS'b'
p553
aa(lp554
I2
aS'o'
p555
aa(lp556
I3
aS'v'
p557
aa(lp558
I4
aS'e'
p559
aaaa(lp560
I6
aI9
aS'your'
p561
a(lp562
(lp563
I6
aS'y'
p564
aa(lp565
I7
ag555
aa(lp566
I8
aS'u'
p567
aa(lp568
I9
aS'r'
p569
aaaa(lp570
I11
aI15
ag5
a(lp571
(lp572
I11
aS'h'
p573
aa(lp574
I12
ag559
aa(lp575
I13
ag551
aa(lp576
I14
ag569
aa(lp577
I15
aS't'
p578
aaaa(lp579
I17
aI18
aS'if'
p580
a(lp581
(lp582
I17
aS'i'
p583
aa(lp584
I18
aS'f'
p585
aaaa(lp586
I20
aI27
ag15
a(lp587
(lp588
I20
aS'p'
p589
aa(lp590
I21
ag555
aa(lp591
I22
aS's'
p592
aa(lp593
I23
ag592
aa(lp594
I24
ag583
aa(lp595
I25
ag553
aa(lp596
I26
aS'l'
p597
aa(lp598
I27
ag559
aaaa(lp599
I30
aI34
ag24
a(lp600
(lp601
I30
ag551
aa(lp602
I31
ag589
aa(lp603
I32
ag589
aa(lp604
I33
ag597
aa(lp605
I34
ag564
aaaa(lp606
I36
aI36
ag551
a(lp607
(lp608
I36
ag551
aaaa(lp609
I38
aI41
ag33
a(lp610
(lp611
I38
aS'c'
p612
aa(lp613
I39
ag555
aa(lp614
I40
ag597
aa(lp615
I41
aS'd'
p616
aaaa(lp617
I43
aI50
ag42
a(lp618
(lp619
I43
ag612
aa(lp620
I44
ag555
aa(lp621
I45
aS'm'
p622
aa(lp623
I46
ag589
aa(lp624
I47
ag569
aa(lp625
I48
ag559
aa(lp626
I49
ag592
aa(lp627
I50
ag592
aaaa(lp628
I53
aI56
ag51
a(lp629
(lp630
I53
aS'w'
p631
aa(lp632
I54
ag569
aa(lp633
I55
ag551
aa(lp634
I56
ag589
aaaa(lp635
I58
aI60
ag60
a(lp636
(lp637
I58
ag583
aa(lp638
I59
ag612
aa(lp639
I60
ag559
aaaa(lp640
I62
aI63
aS'in'
p641
a(lp642
(lp643
I62
ag583
aa(lp644
I63
aS'n'
p645
aaaa(lp646
I65
aI65
ag551
a(lp647
(lp648
I65
ag551
aaaa(lp649
I67
aI71
ag69
a(lp650
(lp651
I67
ag622
aa(lp652
I68
ag555
aa(lp653
I69
ag583
aa(lp654
I70
ag592
aa(lp655
I71
ag578
aaaa(lp656
I73
aI76
ag78
a(lp657
(lp658
I73
ag573
aa(lp659
I74
ag551
aa(lp660
I75
ag645
aa(lp661
I76
ag616
aaaa(lp662
I78
aI82
ag87
a(lp663
(lp664
I78
ag578
aa(lp665
I79
ag555
aa(lp666
I80
ag631
aa(lp667
I81
ag559
aa(lp668
I82
ag597
aaaa(lp669
I85
aI86
aS'do'
p670
a(lp671
(lp672
I85
ag616
aa(lp673
I86
ag555
aaaa(lp674
I88
aI90
aS'not'
p675
a(lp676
(lp677
I88
ag645
aa(lp678
I89
ag555
aa(lp679
I90
ag578
aaaa(lp680
I92
aI96
ag96
a(lp681
(lp682
I92
ag551
aa(lp683
I93
ag589
aa(lp684
I94
ag589
aa(lp685
I95
ag597
aa(lp686
I96
ag564
aaaa(lp687
I98
aI100
ag105
a(lp688
(lp689
I98
ag583
aa(lp690
I99
ag612
aa(lp691
I100
ag559
aaaa(lp692
I102
aI109
ag114
a(lp693
(lp694
I102
ag616
aa(lp695
I103
ag583
aa(lp696
I104
ag569
aa(lp697
I105
ag559
aa(lp698
I106
ag612
aa(lp699
I107
ag578
aa(lp700
I108
ag597
aa(lp701
I109
ag564
aaaa(lp702
I111
aI112
aS'to'
p703
a(lp704
(lp705
I111
ag578
aa(lp706
I112
ag555
aaaa(lp707
I114
aI116
aS'the'
p708
a(lp709
(lp710
I114
ag578
aa(lp711
I115
ag573
aa(lp712
I116
ag559
aaaa(lp713
I118
aI121
ag123
a(lp714
(lp715
I118
ag592
aa(lp716
I119
aS'k'
p717
aa(lp718
I120
ag583
aa(lp719
I121
ag645
aaaa(lp720
I124
aI128
ag132
a(lp721
(lp722
I124
ag551
aa(lp723
I125
ag589
aa(lp724
I126
ag589
aa(lp725
I127
ag597
aa(lp726
I128
ag564
aaaa(lp727
I130
aI132
aS'for'
p728
a(lp729
(lp730
I130
ag585
aa(lp731
I131
ag555
aa(lp732
I132
ag569
aaaa(lp733
I134
aI138
ag141
a(lp734
(lp735
I134
aS'2'
p736
aa(lp737
I135
aS'0'
p738
aa(lp739
I137
aS'3'
p740
aa(lp741
I138
ag738
aaaa(lp742
I140
aI146
ag150
a(lp743
(lp744
I140
ag622
aa(lp745
I141
ag583
aa(lp746
I142
ag645
aa(lp747
I143
ag567
aa(lp748
I144
ag578
aa(lp749
I145
ag559
aa(lp750
I146
ag592
aaaa(lp751
I149
aI153
ag159
a(lp752
(lp753
I149
ag559
aa(lp754
I150
ag557
aa(lp755
I151
ag559
aa(lp756
I152
ag569
aa(lp757
I153
ag564
aaaa(lp758
I155
aI157
ag168
a(lp759
(lp760
I155
aS'1'
p761
aa(lp762
I157
ag736
aaaa(lp763
I159
aI163
ag177
a(lp764
(lp765
I159
ag573
aa(lp766
I160
ag555
aa(lp767
I161
ag567
aa(lp768
I162
ag569
aa(lp769
I163
ag592
aaaa(lp770
I166
aI168
aS'for'
p771
a(lp772
(lp773
I166
ag585
aa(lp774
I167
ag555
aa(lp775
I168
ag569
aaaa(lp776
I170
aI172
aS'the'
p777
a(lp778
(lp779
I170
ag578
aa(lp780
I171
ag573
aa(lp781
I172
ag559
aaaa(lp782
I174
aI178
ag186
a(lp783
(lp784
I174
ag585
aa(lp785
I175
ag583
aa(lp786
I176
ag569
aa(lp787
I177
ag592
aa(lp788
I178
ag578
aaaa(lp789
I180
aI182
aS'few'
p790
a(lp791
(lp792
I180
ag585
aa(lp793
I181
ag559
aa(lp794
I182
ag631
aaaa(lp795
I184
aI187
ag195
a(lp796
(lp797
I184
ag616
aa(lp798
I185
ag551
aa(lp799
I186
ag564
aa(lp800
I187
ag592
aaaa(lp801
I190
aI193
ag204
a(lp802
(lp803
I190
ag631
aa(lp804
I191
ag559
aa(lp805
I192
ag551
aa(lp806
I193
ag569
aaaa(lp807
I195
aI195
ag551
a(lp808
(lp809
I195
ag551
aaaa(lp810
I197
aI201
ag213
a(lp811
(lp812
I197
ag592
aa(lp813
I198
ag597
aa(lp814
I199
ag583
aa(lp815
I200
ag645
aa(lp816
I201
aS'g'
p817
aaaa(lp818
I203
aI205
aS'for'
p819
a(lp820
(lp821
I203
ag585
aa(lp822
I204
ag555
aa(lp823
I205
ag569
aaaa(lp824
I207
aI213
ag222
a(lp825
(lp826
I207
ag612
aa(lp827
I208
ag555
aa(lp828
I209
ag622
aa(lp829
I210
ag585
aa(lp830
I211
ag555
aa(lp831
I212
ag569
aa(lp832
I213
ag578
aaaa(lp833
I216
aI219
ag231
a(lp834
(lp835
I216
ag597
aa(lp836
I217
ag555
aa(lp837
I218
ag645
aa(lp838
I219
ag817
aaaa(lp839
I221
aI224
ag240
a(lp840
(lp841
I221
ag578
aa(lp842
I222
ag559
aa(lp843
I223
ag569
aa(lp844
I224
ag622
aaaa(lp845
I226
aI239
ag249
a(lp846
(lp847
I226
ag583
aa(lp848
I227
ag622
aa(lp849
I228
ag622
aa(lp850
I229
ag555
aa(lp851
I230
ag553
aa(lp852
I231
ag583
aa(lp853
I232
ag597
aa(lp854
I233
ag583
aa(lp855
I234
aS'z'
p856
aa(lp857
I235
ag551
aa(lp858
I236
ag578
aa(lp859
I237
ag583
aa(lp860
I238
ag555
aa(lp861
I239
ag645
aaaa(lp862
I241
aI242
aS'in'
p863
a(lp864
(lp865
I241
ag583
aa(lp866
I242
ag645
aaaa(lp867
I244
aI244
ag551
a(lp868
(lp869
I244
ag551
aaaa(lp870
I246
aI250
ag258
a(lp871
(lp872
I246
ag592
aa(lp873
I247
ag597
aa(lp874
I248
ag583
aa(lp875
I249
ag645
aa(lp876
I250
ag817
aaaa(lp877
I252
aI254
aS'can'
p878
a(lp879
(lp880
I252
ag612
aa(lp881
I253
ag551
aa(lp882
I254
ag645
aaaa(lp883
I256
aI259
ag267
a(lp884
(lp885
I256
ag597
aa(lp886
I257
ag559
aa(lp887
I258
ag551
aa(lp888
I259
ag616
aaaa(lp889
I261
aI262
aS'to'
p890
a(lp891
(lp892
I261
ag578
aa(lp893
I262
ag555
aaaa(lp894
I266
aI271
ag276
a(lp895
(lp896
I266
ag585
aa(lp897
I267
ag569
aa(lp898
I268
ag555
aa(lp899
I269
ag856
aa(lp900
I270
ag559
aa(lp901
I271
ag645
aaaa(lp902
I273
aI280
ag285
a(lp903
(lp904
I273
ag592
aa(lp905
I274
ag573
aa(lp906
I275
ag555
aa(lp907
I276
ag567
aa(lp908
I277
ag597
aa(lp909
I278
ag616
aa(lp910
I279
ag559
aa(lp911
I280
ag569
aaaa(lp912
I282
aI283
aS'if'
p913
a(lp914
(lp915
I282
ag583
aa(lp916
I283
ag585
aaaa(lp917
I285
aI287
aS'you'
p918
a(lp919
(lp920
I285
ag564
aa(lp921
I286
ag555
aa(lp922
I287
ag567
aaaa(lp923
I289
aI292
ag294
a(lp924
(lp925
I289
ag631
aa(lp926
I290
ag559
aa(lp927
I291
ag551
aa(lp928
I292
ag569
aaaa(lp929
I294
aI294
ag551
a(lp930
(lp931
I294
ag551
aaaa(lp932
I296
aI303
ag303
a(lp933
(lp934
I296
ag592
aa(lp935
I297
ag573
aa(lp936
I298
ag555
aa(lp937
I299
ag567
aa(lp938
I300
ag597
aa(lp939
I301
ag616
aa(lp940
I302
ag559
aa(lp941
I303
ag569
aaaa(lp942
I305
aI309
ag312
a(lp943
(lp944
I305
ag592
aa(lp945
I306
ag597
aa(lp946
I307
ag583
aa(lp947
I308
ag645
aa(lp948
I309
ag817
aaaa(lp949
I311
aI313
aS'for'
p950
a(lp951
(lp952
I311
ag585
aa(lp953
I312
ag555
aa(lp954
I313
ag569
aaaa(lp955
I315
aI320
ag321
a(lp956
(lp957
I315
ag597
aa(lp958
I316
ag555
aa(lp959
I317
ag645
aa(lp960
I318
ag817
aa(lp961
I319
ag559
aa(lp962
I320
ag569
aaaa(lp963
I322
aI325
aS'than'
p964
a(lp965
(lp966
I322
ag578
aa(lp967
I323
ag573
aa(lp968
I324
ag551
aa(lp969
I325
ag645
aaaa(lp970
I327
aI329
ag330
a(lp971
(lp972
I327
ag578
aa(lp973
I328
ag631
aa(lp974
I329
ag555
aaaa(lp975
I331
aI335
ag339
a(lp976
(lp977
I331
ag631
aa(lp978
I332
ag559
aa(lp979
I333
ag559
aa(lp980
I334
ag717
aa(lp981
I335
ag592
aaaa(lp982
I337
aI340
ag348
a(lp983
(lp984
I337
ag622
aa(lp985
I338
ag551
aa(lp986
I339
ag717
aa(lp987
I340
ag559
aaaa(lp988
I342
aI345
ag357
a(lp989
(lp990
I342
ag592
aa(lp991
I343
ag567
aa(lp992
I344
ag569
aa(lp993
I345
ag559
aaaa(lp994
I347
aI349
aS'you'
p995
a(lp996
(lp997
I347
ag564
aa(lp998
I348
ag555
aa(lp999
I349
ag567
aaaa(lp1000
I351
aI357
ag366
a(lp1001
(lp1002
I351
ag589
aa(lp1003
I352
ag559
aa(lp1004
I353
ag569
aa(lp1005
I354
ag585
aa(lp1006
I355
ag555
aa(lp1007
I356
ag569
aa(lp1008
I357
ag622
aaaa(lp1009
I359
aI366
ag375
a(lp1010
(lp1011
I359
ag592
aa(lp1012
I360
ag573
aa(lp1013
I361
ag555
aa(lp1014
I362
ag567
aa(lp1015
I363
ag597
aa(lp1016
I364
ag616
aa(lp1017
I365
ag559
aa(lp1018
I366
ag569
aaaa(lp1019
I368
aI372
ag384
a(lp1020
(lp1021
I368
ag569
aa(lp1022
I369
ag551
aa(lp1023
I370
ag645
aa(lp1024
I371
ag817
aa(lp1025
I372
ag559
aaaa(lp1026
I374
aI375
aS'of'
p1027
a(lp1028
(lp1029
I374
ag555
aa(lp1030
I375
ag585
aaaa(lp1031
I377
aI382
ag393
a(lp1032
(lp1033
I377
ag622
aa(lp1034
I378
ag555
aa(lp1035
I379
ag578
aa(lp1036
I380
ag583
aa(lp1037
I381
ag555
aa(lp1038
I382
ag645
aaaa(lp1039
I384
aI392
ag402
a(lp1040
(lp1041
I384
ag559
aa(lp1042
I385
aS'x'
p1043
aa(lp1044
I386
ag559
aa(lp1045
I387
ag569
aa(lp1046
I388
ag612
aa(lp1047
I389
ag583
aa(lp1048
I390
ag592
aa(lp1049
I391
ag559
aa(lp1050
I392
ag592
aaaa(lp1051
I394
aI398
ag411
a(lp1052
(lp1053
I394
ag578
aa(lp1054
I395
ag631
aa(lp1055
I396
ag583
aa(lp1056
I397
ag612
aa(lp1057
I398
ag559
aaaa(lp1058
I400
aI400
ag551
a(lp1059
(lp1060
I400
ag551
aaaa(lp1061
I402
aI404
ag420
a(lp1062
(lp1063
I402
ag616
aa(lp1064
I403
ag551
aa(lp1065
I404
ag564
aaaa(lp1066
I406
aI407
aS'to'
p1067
a(lp1068
(lp1069
I406
ag578
aa(lp1070
I407
ag555
aaaa(lp1071
I409
aI413
ag429
a(lp1072
(lp1073
I409
ag551
aa(lp1074
I410
ag557
aa(lp1075
I411
ag555
aa(lp1076
I412
ag583
aa(lp1077
I413
ag616
aaaa(lp1078
I417
aI422
ag438
a(lp1079
(lp1080
I417
ag585
aa(lp1081
I418
ag569
aa(lp1082
I419
ag555
aa(lp1083
I420
ag856
aa(lp1084
I421
ag559
aa(lp1085
I422
ag645
aaaa(lp1086
I424
aI431
ag447
a(lp1087
(lp1088
I424
ag592
aa(lp1089
I425
ag573
aa(lp1090
I426
ag555
aa(lp1091
I427
ag567
aa(lp1092
I428
ag597
aa(lp1093
I429
ag616
aa(lp1094
I430
ag559
aa(lp1095
I431
ag569
aaaa(lp1096
I433
aI434
aS'do'
p1097
a(lp1098
(lp1099
I433
ag616
aa(lp1100
I434
ag555
aaaa(lp1101
I436
aI438
aS'not'
p1102
a(lp1103
(lp1104
I436
ag645
aa(lp1105
I437
ag555
aa(lp1106
I438
ag578
aaaa(lp1107
I440
aI442
ag456
a(lp1108
(lp1109
I440
ag567
aa(lp1110
I441
ag592
aa(lp1111
I442
ag559
aaaa(lp1112
I444
aI447
aS'your'
p1113
a(lp1114
(lp1115
I444
ag564
aa(lp1116
I445
ag555
aa(lp1117
I446
ag567
aa(lp1118
I447
ag569
aaaa(lp1119
I449
aI451
ag465
a(lp1120
(lp1121
I449
ag551
aa(lp1122
I450
ag569
aa(lp1123
I451
ag622
aaaa(lp1124
I453
aI457
aS'until'
p1125
a(lp1126
(lp1127
I453
ag567
aa(lp1128
I454
ag645
aa(lp1129
I455
ag578
aa(lp1130
I456
ag583
aa(lp1131
I457
ag597
aaaa(lp1132
I459
aI462
aS'your'
p1133
a(lp1134
(lp1135
I459
ag564
aa(lp1136
I460
ag555
aa(lp1137
I461
ag567
aa(lp1138
I462
ag569
aaaa(lp1139
I464
aI469
ag474
a(lp1140
(lp1141
I464
ag616
aa(lp1142
I465
ag555
aa(lp1143
I466
ag612
aa(lp1144
I467
ag578
aa(lp1145
I468
ag555
aa(lp1146
I469
ag569
aaaa(lp1147
I471
aI477
ag483
a(lp1148
(lp1149
I471
ag616
aa(lp1150
I472
ag583
aa(lp1151
I473
ag569
aa(lp1152
I474
ag559
aa(lp1153
I475
ag612
aa(lp1154
I476
ag578
aa(lp1155
I477
ag592
aaaa(lp1156
I479
aI481
aS'you'
p1157
a(lp1158
(lp1159
I479
ag564
aa(lp1160
I480
ag555
aa(lp1161
I481
ag567
aaaa(lp1162
I483
aI484
aS'to'
p1163
a(lp1164
(lp1165
I483
ag578
aa(lp1166
I484
ag555
aaaa(lp1167
I486
aI487
aS'do'
p1168
a(lp1169
(lp1170
I486
ag616
aa(lp1171
I487
ag555
aaaa(lp1172
I489
aI490
aS'so'
p1173
a(lp1174
(lp1175
I489
ag592
aa(lp1176
I490
ag555
aaaa(lp1177
I493
aI498
ag492
a(lp1178
(lp1179
I493
ag585
aa(lp1180
I494
ag555
aa(lp1181
I495
ag597
aa(lp1182
I496
ag597
aa(lp1183
I497
ag555
aa(lp1184
I498
ag631
aaaa(lp1185
I500
aI503
aS'your'
p1186
a(lp1187
(lp1188
I500
ag564
aa(lp1189
I501
ag555
aa(lp1190
I502
ag567
aa(lp1191
I503
ag569
aaaa(lp1192
I505
aI512
ag501
a(lp1193
(lp1194
I505
ag616
aa(lp1195
I506
ag555
aa(lp1196
I507
ag612
aa(lp1197
I508
ag578
aa(lp1198
I509
ag555
aa(lp1199
I510
ag569
aa(lp1200
I512
ag592
aaaa(lp1201
I514
aI517
ag510
a(lp1202
(lp1203
I514
ag612
aa(lp1204
I515
ag551
aa(lp1205
I516
ag569
aa(lp1206
I517
ag559
aaaa(lp1207
I519
aI530
ag519
a(lp1208
(lp1209
I519
ag583
aa(lp1210
I520
ag645
aa(lp1211
I521
ag592
aa(lp1212
I522
ag578
aa(lp1213
I523
ag569
aa(lp1214
I524
ag567
aa(lp1215
I525
ag612
aa(lp1216
I526
ag578
aa(lp1217
I527
ag583
aa(lp1218
I528
ag555
aa(lp1219
I529
ag645
aa(lp1220
I530
ag592
aaaa(lp1221
I532
aI534
aS'for'
p1222
a(lp1223
(lp1224
I532
ag585
aa(lp1225
I533
ag555
aa(lp1226
I534
ag569
aaaa(lp1227
I536
aI539
aS'your'
p1228
a(lp1229
(lp1230
I536
ag564
aa(lp1231
I537
ag555
aa(lp1232
I538
ag567
aa(lp1233
I539
ag569
aaaa(lp1234
I541
aI544
ag528
a(lp1235
(lp1236
I541
ag612
aa(lp1237
I542
ag551
aa(lp1238
I543
ag592
aa(lp1239
I544
ag578
aaaa(lp1240
I546
aI547
aS'or'
p1241
a(lp1242
(lp1243
I546
ag555
aa(lp1244
I547
ag569
aaaa(lp1245
I546
aI547
ag537
a(lp1246
(lp1247
I549
ag592
aa(lp1248
I550
ag589
aa(lp1249
I551
ag597
aa(lp1250
I552
ag583
aa(lp1251
I553
ag645
aa(lp1252
I554
ag578
aaaasS'cleanCharacterMap'
p1253
(lp1254
g550
ag552
ag554
ag556
ag558
a(lp1255
I5
aS' '
p1256
aag563
ag565
ag566
ag568
a(lp1257
I10
ag1256
aag572
ag574
ag575
ag576
ag577
a(lp1258
I16
ag1256
aag582
ag584
a(lp1259
I19
ag1256
aag588
ag590
ag591
ag593
ag594
ag595
ag596
ag598
a(lp1260
I29
ag1256
aag601
ag602
ag603
ag604
ag605
a(lp1261
I35
ag1256
aag608
a(lp1262
I37
ag1256
aag611
ag613
ag614
ag615
a(lp1263
I42
ag1256
aag619
ag620
ag621
ag623
ag624
ag625
ag626
ag627
a(lp1264
I52
ag1256
aag630
ag632
ag633
ag634
a(lp1265
I57
ag1256
aag637
ag638
ag639
a(lp1266
I61
ag1256
aag643
ag644
a(lp1267
I64
ag1256
aag648
a(lp1268
I66
ag1256
aag651
ag652
ag653
ag654
ag655
a(lp1269
I72
ag1256
aag658
ag659
ag660
ag661
a(lp1270
I77
ag1256
aag664
ag665
ag666
ag667
ag668
a(lp1271
I84
ag1256
aag672
ag673
a(lp1272
I87
ag1256
aag677
ag678
ag679
a(lp1273
I91
ag1256
aag682
ag683
ag684
ag685
ag686
a(lp1274
I97
ag1256
aag689
ag690
ag691
a(lp1275
I101
ag1256
aag694
ag695
ag696
ag697
ag698
ag699
ag700
ag701
a(lp1276
I110
ag1256
aag705
ag706
a(lp1277
I113
ag1256
aag710
ag711
ag712
a(lp1278
I117
ag1256
aag715
ag716
ag718
ag719
a(lp1279
I123
ag1256
aag722
ag723
ag724
ag725
ag726
a(lp1280
I129
ag1256
aag730
ag731
ag732
a(lp1281
I133
ag1256
aag735
ag737
ag739
ag741
a(lp1282
I139
ag1256
aag744
ag745
ag746
ag747
ag748
ag749
ag750
a(lp1283
I148
ag1256
aag753
ag754
ag755
ag756
ag757
a(lp1284
I154
ag1256
aag760
ag762
a(lp1285
I158
ag1256
aag765
ag766
ag767
ag768
ag769
a(lp1286
I165
ag1256
aag773
ag774
ag775
a(lp1287
I169
ag1256
aag779
ag780
ag781
a(lp1288
I173
ag1256
aag784
ag785
ag786
ag787
ag788
a(lp1289
I179
ag1256
aag792
ag793
ag794
a(lp1290
I183
ag1256
aag797
ag798
ag799
ag800
a(lp1291
I189
ag1256
aag803
ag804
ag805
ag806
a(lp1292
I194
ag1256
aag809
a(lp1293
I196
ag1256
aag812
ag813
ag814
ag815
ag816
a(lp1294
I202
ag1256
aag821
ag822
ag823
a(lp1295
I206
ag1256
aag826
ag827
ag828
ag829
ag830
ag831
ag832
a(lp1296
I215
ag1256
aag835
ag836
ag837
ag838
a(lp1297
I220
ag1256
aag841
ag842
ag843
ag844
a(lp1298
I225
ag1256
aag847
ag848
ag849
ag850
ag851
ag852
ag853
ag854
ag855
ag857
ag858
ag859
ag860
ag861
a(lp1299
I240
ag1256
aag865
ag866
a(lp1300
I243
ag1256
aag869
a(lp1301
I245
ag1256
aag872
ag873
ag874
ag875
ag876
a(lp1302
I251
ag1256
aag880
ag881
ag882
a(lp1303
I255
ag1256
aag885
ag886
ag887
ag888
a(lp1304
I260
ag1256
aag892
ag893
a(lp1305
I263
ag1256
aa(lp1306
I265
ag1256
aag896
ag897
ag898
ag899
ag900
ag901
a(lp1307
I272
ag1256
aag904
ag905
ag906
ag907
ag908
ag909
ag910
ag911
a(lp1308
I281
ag1256
aag915
ag916
a(lp1309
I284
ag1256
aag920
ag921
ag922
a(lp1310
I288
ag1256
aag925
ag926
ag927
ag928
a(lp1311
I293
ag1256
aag931
a(lp1312
I295
ag1256
aag934
ag935
ag936
ag937
ag938
ag939
ag940
ag941
a(lp1313
I304
ag1256
aag944
ag945
ag946
ag947
ag948
a(lp1314
I310
ag1256
aag952
ag953
ag954
a(lp1315
I314
ag1256
aag957
ag958
ag959
ag960
ag961
ag962
a(lp1316
I321
ag1256
aag966
ag967
ag968
ag969
a(lp1317
I326
ag1256
aag972
ag973
ag974
a(lp1318
I330
ag1256
aag977
ag978
ag979
ag980
ag981
a(lp1319
I336
ag1256
aag984
ag985
ag986
ag987
a(lp1320
I341
ag1256
aag990
ag991
ag992
ag993
a(lp1321
I346
ag1256
aag997
ag998
ag999
a(lp1322
I350
ag1256
aag1002
ag1003
ag1004
ag1005
ag1006
ag1007
ag1008
a(lp1323
I358
ag1256
aag1011
ag1012
ag1013
ag1014
ag1015
ag1016
ag1017
ag1018
a(lp1324
I367
ag1256
aag1021
ag1022
ag1023
ag1024
ag1025
a(lp1325
I373
ag1256
aag1029
ag1030
a(lp1326
I376
ag1256
aag1033
ag1034
ag1035
ag1036
ag1037
ag1038
a(lp1327
I383
ag1256
aag1041
ag1042
ag1044
ag1045
ag1046
ag1047
ag1048
ag1049
ag1050
a(lp1328
I393
ag1256
aag1053
ag1054
ag1055
ag1056
ag1057
a(lp1329
I399
ag1256
aag1060
a(lp1330
I401
ag1256
aag1063
ag1064
ag1065
a(lp1331
I405
ag1256
aag1069
ag1070
a(lp1332
I408
ag1256
aag1073
ag1074
ag1075
ag1076
ag1077
a(lp1333
I414
ag1256
aa(lp1334
I416
ag1256
aag1080
ag1081
ag1082
ag1083
ag1084
ag1085
a(lp1335
I423
ag1256
aag1088
ag1089
ag1090
ag1091
ag1092
ag1093
ag1094
ag1095
a(lp1336
I432
ag1256
aag1099
ag1100
a(lp1337
I435
ag1256
aag1104
ag1105
ag1106
a(lp1338
I439
ag1256
aag1109
ag1110
ag1111
a(lp1339
I443
ag1256
aag1115
ag1116
ag1117
ag1118
a(lp1340
I448
ag1256
aag1121
ag1122
ag1123
a(lp1341
I452
ag1256
aag1127
ag1128
ag1129
ag1130
ag1131
a(lp1342
I458
ag1256
aag1135
ag1136
ag1137
ag1138
a(lp1343
I463
ag1256
aag1141
ag1142
ag1143
ag1144
ag1145
ag1146
a(lp1344
I470
ag1256
aag1149
ag1150
ag1151
ag1152
ag1153
ag1154
ag1155
a(lp1345
I478
ag1256
aag1159
ag1160
ag1161
a(lp1346
I482
ag1256
aag1165
ag1166
a(lp1347
I485
ag1256
aag1170
ag1171
a(lp1348
I488
ag1256
aag1175
ag1176
a(lp1349
I492
ag1256
aag1179
ag1180
ag1181
ag1182
ag1183
ag1184
a(lp1350
I499
ag1256
aag1188
ag1189
ag1190
ag1191
a(lp1351
I504
ag1256
aag1194
ag1195
ag1196
ag1197
ag1198
ag1199
ag1200
a(lp1352
I513
ag1256
aag1203
ag1204
ag1205
ag1206
a(lp1353
I518
ag1256
aag1209
ag1210
ag1211
ag1212
ag1213
ag1214
ag1215
ag1216
ag1217
ag1218
ag1219
ag1220
a(lp1354
I531
ag1256
aag1224
ag1225
ag1226
a(lp1355
I535
ag1256
aag1230
ag1231
ag1232
ag1233
a(lp1356
I540
ag1256
aag1236
ag1237
ag1238
ag1239
a(lp1357
I545
ag1256
aag1243
ag1244
a(lp1358
I548
ag1256
aag1247
ag1248
ag1249
ag1250
ag1251
ag1252
asS'text'
p1359
S"above your heart if possible. apply a cold compress: wrap ice in a moist hand towel. do not apply ice directly to the skin. apply for 20-30 minutes, every 1-2 hours, for the first few days. wear a sling for comfort: long term immobilization in a sling can lead to . frozen shoulder if you wear a shoulder sling for longer than two weeks make sure you perform shoulder range of motion exercises twice a day to avoid . frozen shoulder do not use your arm until your doctor directs you to do so. follow your doctor's care instructions for your cast or splint."
p1360
sS'cleanWordMap'
p1361
(lp1362
g570
ag586
ag599
ag609
ag617
ag628
ag635
ag649
ag656
ag662
ag680
ag687
ag692
ag713
ag720
ag733
ag742
ag751
ag758
ag763
ag782
ag795
ag801
ag810
ag824
ag833
ag839
ag845
ag870
ag883
ag894
ag902
ag923
ag932
ag942
ag955
ag970
ag975
ag982
ag988
ag1000
ag1009
ag1019
ag1031
ag1039
ag1051
ag1061
ag1071
ag1078
ag1086
ag1107
ag1119
ag1139
ag1147
ag1177
ag1192
ag1201
ag1207
ag1234
ag1245
asS'lines'
p1363
(lp1364
VAbove your heart if possible.\u000a
p1365
aVApply a cold compress:\u000a
p1366
aVWrap ice in a moist hand towel. Do not apply ice directly to the skin.\u000a
p1367
aVApply for 20-30 minutes, every 1-2 hours, for the first few days.\u000a
p1368
aVWear a sling for comfort:\u000a
p1369
aVLong term immobilization in a sling can lead to . frozen shoulder\u000a
p1370
aVIf you wear a shoulder sling for longer than two weeks make sure you perform shoulder range of motion exercises twice a day to avoid . frozen shoulder\u000a
p1371
aVDo not use your arm until your doctor directs you to do so.\u000a
p1372
aVFollow your doctor's care instructions for your cast or splint.
p1373
asS'docType'
p1374
S'src'
p1375
sS'newfmap'
p1376
(lp1377
g4
ag8
ag10
ag12
ag14
ag17
ag19
ag21
ag23
ag26
ag28
ag30
ag32
ag35
ag37
ag39
ag41
ag44
ag46
ag48
ag50
ag53
ag55
ag57
ag59
ag62
ag64
ag66
ag68
ag71
ag73
ag75
ag77
ag80
ag82
ag84
ag86
ag89
ag91
ag93
ag95
ag98
ag100
ag102
ag104
ag107
ag109
ag111
ag113
ag116
ag118
ag120
ag122
ag125
ag127
ag129
ag131
ag134
ag136
ag138
ag140
ag143
ag145
ag147
ag149
ag152
ag154
ag156
ag158
ag161
ag163
ag165
ag167
ag170
ag172
ag174
ag176
ag179
ag181
ag183
ag185
ag188
ag190
ag192
ag194
ag197
ag199
ag201
ag203
ag206
ag208
ag210
ag212
ag215
ag217
ag219
ag221
ag224
ag226
ag228
ag230
ag233
ag235
ag237
ag239
ag242
ag244
ag246
ag248
ag251
ag253
ag255
ag257
ag260
ag262
ag264
ag266
ag269
ag271
ag273
ag275
ag278
ag280
ag282
ag284
ag287
ag289
ag291
ag293
ag296
ag298
ag300
ag302
ag305
ag307
ag309
ag311
ag314
ag316
ag318
ag320
ag323
ag325
ag327
ag329
ag332
ag334
ag336
ag338
ag341
ag343
ag345
ag347
ag350
ag352
ag354
ag356
ag359
ag361
ag363
ag365
ag368
ag370
ag372
ag374
ag377
ag379
ag381
ag383
ag386
ag388
ag390
ag392
ag395
ag397
ag399
ag401
ag404
ag406
ag408
ag410
ag413
ag415
ag417
ag419
ag422
ag424
ag426
ag428
ag431
ag433
ag435
ag437
ag440
ag442
ag444
ag446
ag449
ag451
ag453
ag455
ag458
ag460
ag462
ag464
ag467
ag469
ag471
ag473
ag476
ag478
ag480
ag482
ag485
ag487
ag489
ag491
ag494
ag496
ag498
ag500
ag503
ag505
ag507
ag509
ag512
ag514
ag516
ag518
ag521
ag523
ag525
ag527
ag530
ag532
ag534
ag536
ag539
ag541
ag543
asS'featureMap'
p1378
(lp1379
(lp1380
I11
aI15
ag5
ag6
ag9
ag11
ag13
aa(lp1381
I20
aI27
ag15
ag16
ag18
ag20
ag22
aa(lp1382
I30
aI34
ag24
ag25
ag27
ag29
ag31
aa(lp1383
I38
aI41
ag33
ag34
ag36
ag38
ag40
aa(lp1384
I43
aI50
ag42
ag43
ag45
ag47
ag49
aa(lp1385
I53
aI56
ag51
ag52
ag54
ag56
ag58
aa(lp1386
I58
aI60
ag60
ag61
ag63
ag65
ag67
aa(lp1387
I67
aI71
ag69
ag70
ag72
ag74
ag76
aa(lp1388
I73
aI76
ag78
ag79
ag81
ag83
ag85
aa(lp1389
I78
aI82
ag87
ag88
ag90
ag92
ag94
aa(lp1390
I92
aI96
ag96
ag97
ag99
ag101
ag103
aa(lp1391
I98
aI100
ag105
ag106
ag108
ag110
ag112
aa(lp1392
I102
aI109
ag114
ag115
ag117
ag119
ag121
aa(lp1393
I118
aI121
ag123
ag124
ag126
ag128
ag130
aa(lp1394
I124
aI128
ag132
ag133
ag135
ag137
ag139
aa(lp1395
I134
aI138
ag141
ag142
ag144
ag146
ag148
aa(lp1396
I140
aI146
ag150
ag151
ag153
ag155
ag157
aa(lp1397
I149
aI153
ag159
ag160
ag162
ag164
ag166
aa(lp1398
I155
aI157
ag168
ag169
ag171
ag173
ag175
aa(lp1399
I159
aI163
ag177
ag178
ag180
ag182
ag184
aa(lp1400
I174
aI178
ag186
ag187
ag189
ag191
ag193
aa(lp1401
I184
aI187
ag195
ag196
ag198
ag200
ag202
aa(lp1402
I190
aI193
ag204
ag205
ag207
ag209
ag211
aa(lp1403
I197
aI201
ag213
ag214
ag216
ag218
ag220
aa(lp1404
I207
aI213
ag222
ag223
ag225
ag227
ag229
aa(lp1405
I216
aI219
ag231
ag232
ag234
ag236
ag238
aa(lp1406
I221
aI224
ag240
ag241
ag243
ag245
ag247
aa(lp1407
I226
aI239
ag249
ag250
ag252
ag254
ag256
aa(lp1408
I246
aI250
ag258
ag259
ag261
ag263
ag265
aa(lp1409
I256
aI259
ag267
ag268
ag270
ag272
ag274
aa(lp1410
I266
aI271
ag276
ag277
ag279
ag281
ag283
aa(lp1411
I273
aI280
ag285
ag286
ag288
ag290
ag292
aa(lp1412
I289
aI292
ag294
ag295
ag297
ag299
ag301
aa(lp1413
I296
aI303
ag303
ag304
ag306
ag308
ag310
aa(lp1414
I305
aI309
ag312
ag313
ag315
ag317
ag319
aa(lp1415
I315
aI320
ag321
ag322
ag324
ag326
ag328
aa(lp1416
I327
aI329
ag330
ag331
ag333
ag335
ag337
aa(lp1417
I331
aI335
ag339
ag340
ag342
ag344
ag346
aa(lp1418
I337
aI340
ag348
ag349
ag351
ag353
ag355
aa(lp1419
I342
aI345
ag357
ag358
ag360
ag362
ag364
aa(lp1420
I351
aI357
ag366
ag367
ag369
ag371
ag373
aa(lp1421
I359
aI366
ag375
ag376
ag378
ag380
ag382
aa(lp1422
I368
aI372
ag384
ag385
ag387
ag389
ag391
aa(lp1423
I377
aI382
ag393
ag394
ag396
ag398
ag400
aa(lp1424
I384
aI392
ag402
ag403
ag405
ag407
ag409
aa(lp1425
I394
aI398
ag411
ag412
ag414
ag416
ag418
aa(lp1426
I402
aI404
ag420
ag421
ag423
ag425
ag427
aa(lp1427
I409
aI413
ag429
ag430
ag432
ag434
ag436
aa(lp1428
I417
aI422
ag438
ag439
ag441
ag443
ag445
aa(lp1429
I424
aI431
ag447
ag448
ag450
ag452
ag454
aa(lp1430
I440
aI442
ag456
ag457
ag459
ag461
ag463
aa(lp1431
I449
aI451
ag465
ag466
ag468
ag470
ag472
aa(lp1432
I464
aI469
ag474
ag475
ag477
ag479
ag481
aa(lp1433
I471
aI477
ag483
ag484
ag486
ag488
ag490
aa(lp1434
I493
aI498
ag492
ag493
ag495
ag497
ag499
aa(lp1435
I505
aI512
ag501
ag502
ag504
ag506
ag508
aa(lp1436
I514
aI517
ag510
ag511
ag513
ag515
ag517
aa(lp1437
I519
aI530
ag519
ag520
ag522
ag524
ag526
aa(lp1438
I541
aI544
ag528
ag529
ag531
ag533
ag535
aa(lp1439
I546
aI547
ag537
ag538
ag540
ag542
ag544
aasS'characterMap'
p1440
(lp1441
g550
ag552
ag554
ag556
ag558
ag1255
ag563
ag565
ag566
ag568
ag1257
ag572
ag574
ag575
ag576
ag577
ag1258
ag582
ag584
ag1259
ag588
ag590
ag591
ag593
ag594
ag595
ag596
ag598
a(lp1442
I28
aS'.'
p1443
aag1260
ag601
ag602
ag603
ag604
ag605
ag1261
ag608
ag1262
ag611
ag613
ag614
ag615
ag1263
ag619
ag620
ag621
ag623
ag624
ag625
ag626
ag627
a(lp1444
I51
aS':'
p1445
aag1264
ag630
ag632
ag633
ag634
ag1265
ag637
ag638
ag639
ag1266
ag643
ag644
ag1267
ag648
ag1268
ag651
ag652
ag653
ag654
ag655
ag1269
ag658
ag659
ag660
ag661
ag1270
ag664
ag665
ag666
ag667
ag668
a(lp1446
I83
ag1443
aag1271
ag672
ag673
ag1272
ag677
ag678
ag679
ag1273
ag682
ag683
ag684
ag685
ag686
ag1274
ag689
ag690
ag691
ag1275
ag694
ag695
ag696
ag697
ag698
ag699
ag700
ag701
ag1276
ag705
ag706
ag1277
ag710
ag711
ag712
ag1278
ag715
ag716
ag718
ag719
a(lp1447
I122
ag1443
aag1279
ag722
ag723
ag724
ag725
ag726
ag1280
ag730
ag731
ag732
ag1281
ag735
ag737
a(lp1448
I136
aS'-'
p1449
aag739
ag741
ag1282
ag744
ag745
ag746
ag747
ag748
ag749
ag750
a(lp1450
I147
aS','
p1451
aag1283
ag753
ag754
ag755
ag756
ag757
ag1284
ag760
a(lp1452
I156
ag1449
aag762
ag1285
ag765
ag766
ag767
ag768
ag769
a(lp1453
I164
ag1451
aag1286
ag773
ag774
ag775
ag1287
ag779
ag780
ag781
ag1288
ag784
ag785
ag786
ag787
ag788
ag1289
ag792
ag793
ag794
ag1290
ag797
ag798
ag799
ag800
a(lp1454
I188
ag1443
aag1291
ag803
ag804
ag805
ag806
ag1292
ag809
ag1293
ag812
ag813
ag814
ag815
ag816
ag1294
ag821
ag822
ag823
ag1295
ag826
ag827
ag828
ag829
ag830
ag831
ag832
a(lp1455
I214
ag1445
aag1296
ag835
ag836
ag837
ag838
ag1297
ag841
ag842
ag843
ag844
ag1298
ag847
ag848
ag849
ag850
ag851
ag852
ag853
ag854
ag855
ag857
ag858
ag859
ag860
ag861
ag1299
ag865
ag866
ag1300
ag869
ag1301
ag872
ag873
ag874
ag875
ag876
ag1302
ag880
ag881
ag882
ag1303
ag885
ag886
ag887
ag888
ag1304
ag892
ag893
ag1305
a(lp1456
I264
ag1443
aag1306
ag896
ag897
ag898
ag899
ag900
ag901
ag1307
ag904
ag905
ag906
ag907
ag908
ag909
ag910
ag911
ag1308
ag915
ag916
ag1309
ag920
ag921
ag922
ag1310
ag925
ag926
ag927
ag928
ag1311
ag931
ag1312
ag934
ag935
ag936
ag937
ag938
ag939
ag940
ag941
ag1313
ag944
ag945
ag946
ag947
ag948
ag1314
ag952
ag953
ag954
ag1315
ag957
ag958
ag959
ag960
ag961
ag962
ag1316
ag966
ag967
ag968
ag969
ag1317
ag972
ag973
ag974
ag1318
ag977
ag978
ag979
ag980
ag981
ag1319
ag984
ag985
ag986
ag987
ag1320
ag990
ag991
ag992
ag993
ag1321
ag997
ag998
ag999
ag1322
ag1002
ag1003
ag1004
ag1005
ag1006
ag1007
ag1008
ag1323
ag1011
ag1012
ag1013
ag1014
ag1015
ag1016
ag1017
ag1018
ag1324
ag1021
ag1022
ag1023
ag1024
ag1025
ag1325
ag1029
ag1030
ag1326
ag1033
ag1034
ag1035
ag1036
ag1037
ag1038
ag1327
ag1041
ag1042
ag1044
ag1045
ag1046
ag1047
ag1048
ag1049
ag1050
ag1328
ag1053
ag1054
ag1055
ag1056
ag1057
ag1329
ag1060
ag1330
ag1063
ag1064
ag1065
ag1331
ag1069
ag1070
ag1332
ag1073
ag1074
ag1075
ag1076
ag1077
ag1333
a(lp1457
I415
ag1443
aag1334
ag1080
ag1081
ag1082
ag1083
ag1084
ag1085
ag1335
ag1088
ag1089
ag1090
ag1091
ag1092
ag1093
ag1094
ag1095
ag1336
ag1099
ag1100
ag1337
ag1104
ag1105
ag1106
ag1338
ag1109
ag1110
ag1111
ag1339
ag1115
ag1116
ag1117
ag1118
ag1340
ag1121
ag1122
ag1123
ag1341
ag1127
ag1128
ag1129
ag1130
ag1131
ag1342
ag1135
ag1136
ag1137
ag1138
ag1343
ag1141
ag1142
ag1143
ag1144
ag1145
ag1146
ag1344
ag1149
ag1150
ag1151
ag1152
ag1153
ag1154
ag1155
ag1345
ag1159
ag1160
ag1161
ag1346
ag1165
ag1166
ag1347
ag1170
ag1171
ag1348
ag1175
ag1176
a(lp1458
I491
ag1443
aag1349
ag1179
ag1180
ag1181
ag1182
ag1183
ag1184
ag1350
ag1188
ag1189
ag1190
ag1191
ag1351
ag1194
ag1195
ag1196
ag1197
ag1198
ag1199
a(lp1459
I511
aS"'"
p1460
aag1200
ag1352
ag1203
ag1204
ag1205
ag1206
ag1353
ag1209
ag1210
ag1211
ag1212
ag1213
ag1214
ag1215
ag1216
ag1217
ag1218
ag1219
ag1220
ag1354
ag1224
ag1225
ag1226
ag1355
ag1230
ag1231
ag1232
ag1233
ag1356
ag1236
ag1237
ag1238
ag1239
ag1357
ag1243
ag1244
ag1358
ag1247
ag1248
ag1249
ag1250
ag1251
ag1252
a(lp1461
I555
ag1443
aasS'docName'
p1462
S'source-document00947.txt'
p1463
sb.