(iModel.Document
Document
p0
(dp1
S'fmap'
p2
(lp3
(lp4
I0
aI4
aS'video'
p5
a(lp6
S'*'
p7
ag5
aaa(lp8
I0
aI4
ag5
a(lp9
g7
ag5
aaa(lp10
I0
aI4
ag5
a(lp11
g7
ag5
aaa(lp12
I0
aI4
ag5
a(lp13
g7
ag5
aaa(lp14
I6
aI11
aS'cheats'
p15
a(lp16
g5
ag15
aaa(lp17
I6
aI11
ag15
a(lp18
g7
ag15
aaa(lp19
I6
aI11
ag15
a(lp20
g7
ag15
aaa(lp21
I6
aI11
ag15
a(lp22
g7
ag15
aaa(lp23
I13
aI18
aS'boards'
p24
a(lp25
g15
ag24
aaa(lp26
I13
aI18
ag24
a(lp27
g5
ag24
aaa(lp28
I13
aI18
ag24
a(lp29
g7
ag24
aaa(lp30
I13
aI18
ag24
a(lp31
g7
ag24
aaa(lp32
I20
aI22
aS'buy'
p33
a(lp34
g24
ag33
aaa(lp35
I20
aI22
ag33
a(lp36
g15
ag33
aaa(lp37
I20
aI22
ag33
a(lp38
g5
ag33
aaa(lp39
I20
aI22
ag33
a(lp40
g7
ag33
aaa(lp41
I28
aI33
aS'guitar'
p42
a(lp43
g33
ag42
aaa(lp44
I28
aI33
ag42
a(lp45
g24
ag42
aaa(lp46
I28
aI33
ag42
a(lp47
g15
ag42
aaa(lp48
I28
aI33
ag42
a(lp49
g5
ag42
aaa(lp50
I35
aI38
aS'hero'
p51
a(lp52
g42
ag51
aaa(lp53
I35
aI38
ag51
a(lp54
g33
ag51
aaa(lp55
I35
aI38
ag51
a(lp56
g24
ag51
aaa(lp57
I35
aI38
ag51
a(lp58
g15
ag51
aaa(lp59
I41
aI45
aS'world'
p60
a(lp61
g51
ag60
aaa(lp62
I41
aI45
ag60
a(lp63
g42
ag60
aaa(lp64
I41
aI45
ag60
a(lp65
g33
ag60
aaa(lp66
I41
aI45
ag60
a(lp67
g24
ag60
aaa(lp68
I47
aI50
aS'tour'
p69
a(lp70
g60
ag69
aaa(lp71
I47
aI50
ag69
a(lp72
g51
ag69
aaa(lp73
I47
aI50
ag69
a(lp74
g42
ag69
aaa(lp75
I47
aI50
ag69
a(lp76
g33
ag69
aaa(lp77
I52
aI55
aS'sets'
p78
a(lp79
g69
ag78
aaa(lp80
I52
aI55
ag78
a(lp81
g60
ag78
aaa(lp82
I52
aI55
ag78
a(lp83
g51
ag78
aaa(lp84
I52
aI55
ag78
a(lp85
g42
ag78
aaa(lp86
I60
aI63
aS'even'
p87
a(lp88
g78
ag87
aaa(lp89
I60
aI63
ag87
a(lp90
g69
ag87
aaa(lp91
I60
aI63
ag87
a(lp92
g60
ag87
aaa(lp93
I60
aI63
ag87
a(lp94
g51
ag87
aaa(lp95
I65
aI70
aS'bigger'
p96
a(lp97
g87
ag96
aaa(lp98
I65
aI70
ag96
a(lp99
g78
ag96
aaa(lp100
I65
aI70
ag96
a(lp101
g69
ag96
aaa(lp102
I65
aI70
ag96
a(lp103
g60
ag96
aaa(lp104
I72
aI76
aS'stage'
p105
a(lp106
g96
ag105
aaa(lp107
I72
aI76
ag105
a(lp108
g87
ag105
aaa(lp109
I72
aI76
ag105
a(lp110
g78
ag105
aaa(lp111
I72
aI76
ag105
a(lp112
g69
ag105
aaa(lp113
I87
aI93
aS'players'
p114
a(lp115
g105
ag114
aaa(lp116
I87
aI93
ag114
a(lp117
g96
ag114
aaa(lp118
I87
aI93
ag114
a(lp119
g87
ag114
aaa(lp120
I87
aI93
ag114
a(lp121
g78
ag114
aaa(lp122
I99
aI104
aS'create'
p123
a(lp124
g114
ag123
aaa(lp125
I99
aI104
ag123
a(lp126
g105
ag123
aaa(lp127
I99
aI104
ag123
a(lp128
g96
ag123
aaa(lp129
I99
aI104
ag123
a(lp130
g87
ag123
aaa(lp131
I112
aI117
aS'dreams'
p132
a(lp133
g123
ag132
aaa(lp134
I112
aI117
ag132
a(lp135
g114
ag132
aaa(lp136
I112
aI117
ag132
a(lp137
g105
ag132
aaa(lp138
I112
aI117
ag132
a(lp139
g96
ag132
aaa(lp140
I122
aI128
aS'musical'
p141
a(lp142
g132
ag141
aaa(lp143
I122
aI128
ag141
a(lp144
g123
ag141
aaa(lp145
I122
aI128
ag141
a(lp146
g114
ag141
aaa(lp147
I122
aI128
ag141
a(lp148
g105
ag141
aaa(lp149
I130
aI136
aS'stardom'
p150
a(lp151
g141
ag150
aaa(lp152
I130
aI136
ag150
a(lp153
g132
ag150
aaa(lp154
I130
aI136
ag150
a(lp155
g123
ag150
aaa(lp156
I130
aI136
ag150
a(lp157
g114
ag150
aaa(lp158
I146
aI150
aS'newly'
p159
a(lp160
g150
ag159
aaa(lp161
I146
aI150
ag159
a(lp162
g141
ag159
aaa(lp163
I146
aI150
ag159
a(lp164
g132
ag159
aaa(lp165
I146
aI150
ag159
a(lp166
g123
ag159
aaa(lp167
I152
aI156
aS'added'
p168
a(lp169
g159
ag168
aaa(lp170
I152
aI156
ag168
a(lp171
g150
ag168
aaa(lp172
I152
aI156
ag168
a(lp173
g141
ag168
aaa(lp174
I152
aI156
ag168
a(lp175
g132
ag168
aaa(lp176
I158
aI163
aS'battle'
p177
a(lp178
g168
ag177
aaa(lp179
I158
aI163
ag177
a(lp180
g159
ag177
aaa(lp181
I158
aI163
ag177
a(lp182
g150
ag177
aaa(lp183
I158
aI163
ag177
a(lp184
g141
ag177
aaa(lp185
I172
aI176
aS'bands'
p186
a(lp187
g177
ag186
aaa(lp188
I172
aI176
ag186
a(lp189
g168
ag186
aaa(lp190
I172
aI176
ag186
a(lp191
g159
ag186
aaa(lp192
I172
aI176
ag186
a(lp193
g150
ag186
aaa(lp194
I178
aI181
aS'mode'
p195
a(lp196
g186
ag195
aaa(lp197
I178
aI181
ag195
a(lp198
g177
ag195
aaa(lp199
I178
aI181
ag195
a(lp200
g168
ag195
aaa(lp201
I178
aI181
ag195
a(lp202
g159
ag195
aaa(lp203
I185
aI189
aS'total'
p204
a(lp205
g195
ag204
aaa(lp206
I185
aI189
ag204
a(lp207
g186
ag204
aaa(lp208
I185
aI189
ag204
a(lp209
g177
ag204
aaa(lp210
I185
aI189
ag204
a(lp211
g168
ag204
aaa(lp212
I194
aI198
aS'eight'
p213
a(lp214
g204
ag213
aaa(lp215
I194
aI198
ag213
a(lp216
g195
ag213
aaa(lp217
I194
aI198
ag213
a(lp218
g186
ag213
aaa(lp219
I194
aI198
ag213
a(lp220
g177
ag213
aaa(lp221
I200
aI206
aS'players'
p222
a(lp223
g213
ag222
aaa(lp224
I200
aI206
ag222
a(lp225
g204
ag222
aaa(lp226
I200
aI206
ag222
a(lp227
g195
ag222
aaa(lp228
I200
aI206
ag222
a(lp229
g186
ag222
aaa(lp230
I212
aI213
aS'go'
p231
a(lp232
g222
ag231
aaa(lp233
I212
aI213
ag231
a(lp234
g213
ag231
aaa(lp235
I212
aI213
ag231
a(lp236
g204
ag231
aaa(lp237
I212
aI213
ag231
a(lp238
g195
ag231
aaa(lp239
I215
aI218
aS'head'
p240
a(lp241
g231
ag240
aaa(lp242
I215
aI218
ag240
a(lp243
g222
ag240
aaa(lp244
I215
aI218
ag240
a(lp245
g213
ag240
aaa(lp246
I215
aI218
ag240
a(lp247
g204
ag240
aaa(lp248
I223
aI226
aS'head'
p249
a(lp250
g240
ag249
aaa(lp251
I223
aI226
ag249
a(lp252
g231
ag249
aaa(lp253
I223
aI226
ag249
a(lp254
g222
ag249
aaa(lp255
I223
aI226
ag249
a(lp256
g213
ag249
aaa(lp257
I228
aI233
aS'online'
p258
a(lp259
g249
ag258
aaa(lp260
I228
aI233
ag258
a(lp261
g240
ag258
aaa(lp262
I228
aI233
ag258
a(lp263
g231
ag258
aaa(lp264
I228
aI233
ag258
a(lp265
g222
ag258
aaa(lp266
I238
aI240
aS'see'
p267
a(lp268
g258
ag267
aaa(lp269
I238
aI240
ag267
a(lp270
g249
ag267
aaa(lp271
I238
aI240
ag267
a(lp272
g240
ag267
aaa(lp273
I238
aI240
ag267
a(lp274
g231
ag267
aaa(lp275
I250
aI256
aS'produce'
p276
a(lp277
g267
ag276
aaa(lp278
I250
aI256
ag276
a(lp279
g258
ag276
aaa(lp280
I250
aI256
ag276
a(lp281
g249
ag276
aaa(lp282
I250
aI256
ag276
a(lp283
g240
ag276
aaa(lp284
I267
aI273
aS'stellar'
p285
a(lp286
g276
ag285
aaa(lp287
I267
aI273
ag285
a(lp288
g267
ag285
aaa(lp289
I267
aI273
ag285
a(lp290
g258
ag285
aaa(lp291
I267
aI273
ag285
a(lp292
g249
ag285
aaa(lp293
I275
aI279
aS'sound'
p294
a(lp295
g285
ag294
aaa(lp296
I275
aI279
ag294
a(lp297
g276
ag294
aaa(lp298
I275
aI279
ag294
a(lp299
g267
ag294
aaa(lp300
I275
aI279
ag294
a(lp301
g258
ag294
aaa(lp302
I282
aI285
aS'also'
p303
a(lp304
g294
ag303
aaa(lp305
I282
aI285
ag303
a(lp306
g285
ag303
aaa(lp307
I282
aI285
ag303
a(lp308
g276
ag303
aaa(lp309
I282
aI285
ag303
a(lp310
g267
ag303
aaa(lp311
I287
aI290
aS'four'
p312
a(lp313
g303
ag312
aaa(lp314
I287
aI290
ag312
a(lp315
g294
ag312
aaa(lp316
I287
aI290
ag312
a(lp317
g285
ag312
aaa(lp318
I287
aI290
ag312
a(lp319
g276
ag312
aaa(lp320
I292
aI298
aS'players'
p321
a(lp322
g312
ag321
aaa(lp323
I292
aI298
ag321
a(lp324
g303
ag321
aaa(lp325
I292
aI298
ag321
a(lp326
g294
ag321
aaa(lp327
I292
aI298
ag321
a(lp328
g285
ag321
aaa(lp329
I319
aI322
aS'band'
p330
a(lp331
g321
ag330
aaa(lp332
I319
aI322
ag330
a(lp333
g312
ag330
aaa(lp334
I319
aI322
ag330
a(lp335
g303
ag330
aaa(lp336
I319
aI322
ag330
a(lp337
g294
ag330
aaa(lp338
I328
aI331
aS'play'
p339
a(lp340
g330
ag339
aaa(lp341
I328
aI331
ag339
a(lp342
g321
ag339
aaa(lp343
I328
aI331
ag339
a(lp344
g312
ag339
aaa(lp345
I328
aI331
ag339
a(lp346
g303
ag339
aaa(lp347
I334
aI339
aS'either'
p348
a(lp349
g339
ag348
aaa(lp350
I334
aI339
ag348
a(lp351
g330
ag348
aaa(lp352
I334
aI339
ag348
a(lp353
g321
ag348
aaa(lp354
I334
aI339
ag348
a(lp355
g312
ag348
aaa(lp356
I347
aI353
aS'offline'
p357
a(lp358
g348
ag357
aaa(lp359
I347
aI353
ag357
a(lp360
g339
ag357
aaa(lp361
I347
aI353
ag357
a(lp362
g330
ag357
aaa(lp363
I347
aI353
ag357
a(lp364
g321
ag357
aaa(lp365
I366
aI372
aS'variety'
p366
a(lp367
g357
ag366
aaa(lp368
I366
aI372
ag366
a(lp369
g348
ag366
aaa(lp370
I366
aI372
ag366
a(lp371
g339
ag366
aaa(lp372
I366
aI372
ag366
a(lp373
g330
ag366
aaa(lp374
I377
aI383
aS'musical'
p375
a(lp376
g366
ag375
aaa(lp377
I377
aI383
ag375
a(lp378
g357
ag375
aaa(lp379
I377
aI383
ag375
a(lp380
g348
ag375
aaa(lp381
I377
aI383
ag375
a(lp382
g339
ag375
aaa(lp383
I385
aI390
aS'venues'
p384
a(lp385
g375
ag384
aaa(lp386
I385
aI390
ag384
a(lp387
g366
ag384
aaa(lp388
I385
aI390
ag384
a(lp389
g357
ag384
aaa(lp390
I385
aI390
ag384
a(lp391
g348
ag384
aaa(lp392
I402
aI407
aS'player'
p393
a(lp394
g384
ag393
aaa(lp395
I402
aI407
ag393
a(lp396
g375
ag393
aaa(lp397
I402
aI407
ag393
a(lp398
g366
ag393
aaa(lp399
I402
aI407
ag393
a(lp400
g357
ag393
aaa(lp401
I409
aI413
aS'wants'
p402
a(lp403
g393
ag402
aaa(lp404
I409
aI413
ag402
a(lp405
g384
ag402
aaa(lp406
I409
aI413
ag402
a(lp407
g375
ag402
aaa(lp408
I409
aI413
ag402
a(lp409
g366
ag402
aaa(lp410
I418
aI420
aS'try'
p411
a(lp412
g402
ag411
aaa(lp413
I418
aI420
ag411
a(lp414
g393
ag411
aaa(lp415
I418
aI420
ag411
a(lp416
g384
ag411
aaa(lp417
I418
aI420
ag411
a(lp418
g375
ag411
aaa(lp419
I432
aI435
aS'hand'
p420
a(lp421
g411
ag420
aaa(lp422
I432
aI435
ag420
a(lp423
g402
ag420
aaa(lp424
I432
aI435
ag420
a(lp425
g393
ag420
aaa(lp426
I432
aI435
ag420
a(lp427
g384
ag420
aaa(lp428
I444
aI447
aS'game'
p429
a(lp430
g420
ag429
aaa(lp431
I444
aI447
ag429
a(lp432
g411
ag429
aaa(lp433
I444
aI447
ag429
a(lp434
g402
ag429
aaa(lp435
I444
aI447
ag429
a(lp436
g393
ag429
aaa(lp437
I450
aI456
aS'however'
p438
a(lp439
g429
ag438
aaa(lp440
I450
aI456
ag438
a(lp441
g420
ag438
aaa(lp442
I450
aI456
ag438
a(lp443
g411
ag438
aaa(lp444
I450
aI456
ag438
a(lp445
g402
ag438
aaa(lp446
I472
aI476
aS'tried'
p447
a(lp448
g438
ag447
aaa(lp449
I472
aI476
ag447
a(lp450
g429
ag447
aaa(lp451
I472
aI476
ag447
a(lp452
g420
ag447
aaa(lp453
I472
aI476
ag447
a(lp454
g411
ag447
aaa(lp455
I482
aI485
aS'true'
p456
a(lp457
g447
ag456
aaa(lp458
I482
aI485
ag456
a(lp459
g438
ag456
aaa(lp460
I482
aI485
ag456
a(lp461
g429
ag456
aaa(lp462
I482
aI485
ag456
a(lp463
g420
ag456
aaa(lp464
I487
aI492
aS'single'
p465
a(lp466
g456
ag465
aaa(lp467
I487
aI492
ag465
a(lp468
g447
ag465
aaa(lp469
I487
aI492
ag465
a(lp470
g438
ag465
aaa(lp471
I487
aI492
ag465
a(lp472
g429
ag465
aaa(lp473
I494
aI499
aS'player'
p474
a(lp475
g465
ag474
aaa(lp476
I494
aI499
ag474
a(lp477
g456
ag474
aaa(lp478
I494
aI499
ag474
a(lp479
g447
ag474
aaa(lp480
I494
aI499
ag474
a(lp481
g438
ag474
aaa(lp482
I501
aI504
aS'mode'
p483
a(lp484
g474
ag483
aaa(lp485
I501
aI504
ag483
a(lp486
g465
ag483
aaa(lp487
I501
aI504
ag483
a(lp488
g456
ag483
aaa(lp489
I501
aI504
ag483
a(lp490
g447
ag483
aaa(lp491
I506
aI514
aS'available'
p492
a(lp493
g483
ag492
aaa(lp494
I506
aI514
ag492
a(lp495
g474
ag492
aaa(lp496
I506
aI514
ag492
a(lp497
g465
ag492
aaa(lp498
I506
aI514
ag492
a(lp499
g456
ag492
aaa(lp500
I522
aI528
aS'players'
p501
a(lp502
g492
ag501
aaa(lp503
I522
aI528
ag501
a(lp504
g483
ag501
aaa(lp505
I522
aI528
ag501
a(lp506
g474
ag501
aaa(lp507
I522
aI528
ag501
a(lp508
g465
ag501
aaa(lp509
I534
aI541
aS'progress'
p510
a(lp511
g501
ag510
aaa(lp512
I534
aI541
ag510
a(lp513
g492
ag510
aaa(lp514
I534
aI541
ag510
a(lp515
g483
ag510
aaa(lp516
I534
aI541
ag510
a(lp517
g474
ag510
aaa(lp518
I550
aI552
aS'way'
p519
a(lp520
g510
ag519
aaa(lp521
I550
aI552
ag519
a(lp522
g501
ag519
aaa(lp523
I550
aI552
ag519
a(lp524
g492
ag519
aaa(lp525
I550
aI552
ag519
a(lp526
g483
ag519
aaa(lp527
I559
aI562
aS'like'
p528
a(lp529
g519
ag528
aaa(lp530
I559
aI562
ag528
a(lp531
g510
ag528
aaa(lp532
I559
aI562
ag528
a(lp533
g501
ag528
aaa(lp534
I559
aI562
ag528
a(lp535
g492
ag528
aaa(lp536
I565
aI570
aS'rating'
p537
a(lp538
g528
ag537
aaa(lp539
I565
aI570
ag537
a(lp540
g519
ag537
aaa(lp541
I565
aI570
ag537
a(lp542
g510
ag537
aaa(lp543
I565
aI570
ag537
a(lp544
g501
ag537
aaa(lp545
I573
aI576
aS'100'
p546
a(lp547
g537
ag546
aaa(lp548
I573
aI576
ag546
a(lp549
g528
ag546
aaa(lp550
I573
aI576
ag546
a(lp551
g519
ag546
aaa(lp552
I573
aI576
ag546
a(lp553
g510
ag546
aaa(lp554
I579
aI583
aS'votes'
p555
a(lp556
g546
ag555
aaa(lp557
I579
aI583
ag555
a(lp558
g537
ag555
aaa(lp559
I579
aI583
ag555
a(lp560
g528
ag555
aaa(lp561
I579
aI583
ag555
a(lp562
g519
ag555
aaa(lp563
I579
aI583
aS'2'
p564
a(lp565
g555
ag564
aaa(lp566
I579
aI583
ag564
a(lp567
g546
ag564
aaa(lp568
I579
aI583
ag564
a(lp569
g537
ag564
aaa(lp570
I579
aI583
ag564
a(lp571
g528
ag564
aaasS'wordMap'
p572
(lp573
(lp574
I0
aI4
ag5
a(lp575
(lp576
I0
aS'v'
p577
aa(lp578
I1
aS'i'
p579
aa(lp580
I2
aS'd'
p581
aa(lp582
I3
aS'e'
p583
aa(lp584
I4
aS'o'
p585
aaaa(lp586
I6
aI11
ag15
a(lp587
(lp588
I6
aS'c'
p589
aa(lp590
I7
aS'h'
p591
aa(lp592
I8
ag583
aa(lp593
I9
aS'a'
p594
aa(lp595
I10
aS't'
p596
aa(lp597
I11
aS's'
p598
aaaa(lp599
I13
aI18
ag24
a(lp600
(lp601
I13
aS'b'
p602
aa(lp603
I14
ag585
aa(lp604
I15
ag594
aa(lp605
I16
aS'r'
p606
aa(lp607
I17
ag581
aa(lp608
I18
ag598
aaaa(lp609
I20
aI22
ag33
a(lp610
(lp611
I20
ag602
aa(lp612
I21
aS'u'
p613
aa(lp614
I22
aS'y'
p615
aaaa(lp616
I24
aI26
aS'now'
p617
a(lp618
(lp619
I24
aS'n'
p620
aa(lp621
I25
ag585
aa(lp622
I26
aS'w'
p623
aaaa(lp624
I28
aI33
ag42
a(lp625
(lp626
I28
aS'g'
p627
aa(lp628
I29
ag613
aa(lp629
I30
ag579
aa(lp630
I31
ag596
aa(lp631
I32
ag594
aa(lp632
I33
ag606
aaaa(lp633
I35
aI38
ag51
a(lp634
(lp635
I35
ag591
aa(lp636
I36
ag583
aa(lp637
I37
ag606
aa(lp638
I38
ag585
aaaa(lp639
I41
aI45
ag60
a(lp640
(lp641
I41
ag623
aa(lp642
I42
ag585
aa(lp643
I43
ag606
aa(lp644
I44
aS'l'
p645
aa(lp646
I45
ag581
aaaa(lp647
I47
aI50
ag69
a(lp648
(lp649
I47
ag596
aa(lp650
I48
ag585
aa(lp651
I49
ag613
aa(lp652
I50
ag606
aaaa(lp653
I52
aI55
ag78
a(lp654
(lp655
I52
ag598
aa(lp656
I53
ag583
aa(lp657
I54
ag596
aa(lp658
I55
ag598
aaaa(lp659
I57
aI58
aS'an'
p660
a(lp661
(lp662
I57
ag594
aa(lp663
I58
ag620
aaaa(lp664
I60
aI63
ag87
a(lp665
(lp666
I60
ag583
aa(lp667
I61
ag577
aa(lp668
I62
ag583
aa(lp669
I63
ag620
aaaa(lp670
I65
aI70
ag96
a(lp671
(lp672
I65
ag602
aa(lp673
I66
ag579
aa(lp674
I67
ag627
aa(lp675
I68
ag627
aa(lp676
I69
ag583
aa(lp677
I70
ag606
aaaa(lp678
I72
aI76
ag105
a(lp679
(lp680
I72
ag598
aa(lp681
I73
ag596
aa(lp682
I74
ag594
aa(lp683
I75
ag627
aa(lp684
I76
ag583
aaaa(lp685
I78
aI79
aS'on'
p686
a(lp687
(lp688
I78
ag585
aa(lp689
I79
ag620
aaaa(lp690
I81
aI85
aS'which'
p691
a(lp692
(lp693
I81
ag623
aa(lp694
I82
ag591
aa(lp695
I83
ag579
aa(lp696
I84
ag589
aa(lp697
I85
ag591
aaaa(lp698
I87
aI93
ag114
a(lp699
(lp700
I87
aS'p'
p701
aa(lp702
I88
ag645
aa(lp703
I89
ag594
aa(lp704
I90
ag615
aa(lp705
I91
ag583
aa(lp706
I92
ag606
aa(lp707
I93
ag598
aaaa(lp708
I95
aI97
aS'can'
p709
a(lp710
(lp711
I95
ag589
aa(lp712
I96
ag594
aa(lp713
I97
ag620
aaaa(lp714
I99
aI104
ag123
a(lp715
(lp716
I99
ag589
aa(lp717
I100
ag606
aa(lp718
I101
ag583
aa(lp719
I102
ag594
aa(lp720
I103
ag596
aa(lp721
I104
ag583
aaaa(lp722
I106
aI110
aS'their'
p723
a(lp724
(lp725
I106
ag596
aa(lp726
I107
ag591
aa(lp727
I108
ag583
aa(lp728
I109
ag579
aa(lp729
I110
ag606
aaaa(lp730
I112
aI117
ag132
a(lp731
(lp732
I112
ag581
aa(lp733
I113
ag606
aa(lp734
I114
ag583
aa(lp735
I115
ag594
aa(lp736
I116
aS'm'
p737
aa(lp738
I117
ag598
aaaa(lp739
I119
aI120
aS'of'
p740
a(lp741
(lp742
I119
ag585
aa(lp743
I120
aS'f'
p744
aaaa(lp745
I122
aI128
ag141
a(lp746
(lp747
I122
ag737
aa(lp748
I123
ag613
aa(lp749
I124
ag598
aa(lp750
I125
ag579
aa(lp751
I126
ag589
aa(lp752
I127
ag594
aa(lp753
I128
ag645
aaaa(lp754
I130
aI136
ag150
a(lp755
(lp756
I130
ag598
aa(lp757
I131
ag596
aa(lp758
I132
ag594
aa(lp759
I133
ag606
aa(lp760
I134
ag581
aa(lp761
I135
ag585
aa(lp762
I136
ag737
aaaa(lp763
I139
aI140
aS'in'
p764
a(lp765
(lp766
I139
ag579
aa(lp767
I140
ag620
aaaa(lp768
I142
aI144
aS'the'
p769
a(lp770
(lp771
I142
ag596
aa(lp772
I143
ag591
aa(lp773
I144
ag583
aaaa(lp774
I146
aI150
ag159
a(lp775
(lp776
I146
ag620
aa(lp777
I147
ag583
aa(lp778
I148
ag623
aa(lp779
I149
ag645
aa(lp780
I150
ag615
aaaa(lp781
I152
aI156
ag168
a(lp782
(lp783
I152
ag594
aa(lp784
I153
ag581
aa(lp785
I154
ag581
aa(lp786
I155
ag583
aa(lp787
I156
ag581
aaaa(lp788
I158
aI163
ag177
a(lp789
(lp790
I158
ag602
aa(lp791
I159
ag594
aa(lp792
I160
ag596
aa(lp793
I161
ag596
aa(lp794
I162
ag645
aa(lp795
I163
ag583
aaaa(lp796
I165
aI166
aS'of'
p797
a(lp798
(lp799
I165
ag585
aa(lp800
I166
ag744
aaaa(lp801
I168
aI170
aS'the'
p802
a(lp803
(lp804
I168
ag596
aa(lp805
I169
ag591
aa(lp806
I170
ag583
aaaa(lp807
I172
aI176
ag186
a(lp808
(lp809
I172
ag602
aa(lp810
I173
ag594
aa(lp811
I174
ag620
aa(lp812
I175
ag581
aa(lp813
I176
ag598
aaaa(lp814
I178
aI181
ag195
a(lp815
(lp816
I178
ag737
aa(lp817
I179
ag585
aa(lp818
I180
ag581
aa(lp819
I181
ag583
aaaa(lp820
I183
aI183
ag594
a(lp821
(lp822
I183
ag594
aaaa(lp823
I185
aI189
ag204
a(lp824
(lp825
I185
ag596
aa(lp826
I186
ag585
aa(lp827
I187
ag596
aa(lp828
I188
ag594
aa(lp829
I189
ag645
aaaa(lp830
I191
aI192
aS'of'
p831
a(lp832
(lp833
I191
ag585
aa(lp834
I192
ag744
aaaa(lp835
I194
aI198
ag213
a(lp836
(lp837
I194
ag583
aa(lp838
I195
ag579
aa(lp839
I196
ag627
aa(lp840
I197
ag591
aa(lp841
I198
ag596
aaaa(lp842
I200
aI206
ag222
a(lp843
(lp844
I200
ag701
aa(lp845
I201
ag645
aa(lp846
I202
ag594
aa(lp847
I203
ag615
aa(lp848
I204
ag583
aa(lp849
I205
ag606
aa(lp850
I206
ag598
aaaa(lp851
I208
aI210
aS'can'
p852
a(lp853
(lp854
I208
ag589
aa(lp855
I209
ag594
aa(lp856
I210
ag620
aaaa(lp857
I212
aI213
ag231
a(lp858
(lp859
I212
ag627
aa(lp860
I213
ag585
aaaa(lp861
I215
aI218
ag240
a(lp862
(lp863
I215
ag591
aa(lp864
I216
ag583
aa(lp865
I217
ag594
aa(lp866
I218
ag581
aaaa(lp867
I220
aI221
aS'to'
p868
a(lp869
(lp870
I220
ag596
aa(lp871
I221
ag585
aaaa(lp872
I223
aI226
ag249
a(lp873
(lp874
I223
ag591
aa(lp875
I224
ag583
aa(lp876
I225
ag594
aa(lp877
I226
ag581
aaaa(lp878
I228
aI233
ag258
a(lp879
(lp880
I228
ag585
aa(lp881
I229
ag620
aa(lp882
I230
ag645
aa(lp883
I231
ag579
aa(lp884
I232
ag620
aa(lp885
I233
ag583
aaaa(lp886
I235
aI236
aS'to'
p887
a(lp888
(lp889
I235
ag596
aa(lp890
I236
ag585
aaaa(lp891
I238
aI240
ag267
a(lp892
(lp893
I238
ag598
aa(lp894
I239
ag583
aa(lp895
I240
ag583
aaaa(lp896
I242
aI244
aS'who'
p897
a(lp898
(lp899
I242
ag623
aa(lp900
I243
ag591
aa(lp901
I244
ag585
aaaa(lp902
I246
aI248
aS'can'
p903
a(lp904
(lp905
I246
ag589
aa(lp906
I247
ag594
aa(lp907
I248
ag620
aaaa(lp908
I250
aI256
ag276
a(lp909
(lp910
I250
ag701
aa(lp911
I251
ag606
aa(lp912
I252
ag585
aa(lp913
I253
ag581
aa(lp914
I254
ag613
aa(lp915
I255
ag589
aa(lp916
I256
ag583
aaaa(lp917
I258
aI260
aS'the'
p918
a(lp919
(lp920
I258
ag596
aa(lp921
I259
ag591
aa(lp922
I260
ag583
aaaa(lp923
I262
aI265
aS'most'
p924
a(lp925
(lp926
I262
ag737
aa(lp927
I263
ag585
aa(lp928
I264
ag598
aa(lp929
I265
ag596
aaaa(lp930
I267
aI273
ag285
a(lp931
(lp932
I267
ag598
aa(lp933
I268
ag596
aa(lp934
I269
ag583
aa(lp935
I270
ag645
aa(lp936
I271
ag645
aa(lp937
I272
ag594
aa(lp938
I273
ag606
aaaa(lp939
I275
aI279
ag294
a(lp940
(lp941
I275
ag598
aa(lp942
I276
ag585
aa(lp943
I277
ag613
aa(lp944
I278
ag620
aa(lp945
I279
ag581
aaaa(lp946
I282
aI285
ag303
a(lp947
(lp948
I282
ag594
aa(lp949
I283
ag645
aa(lp950
I284
ag598
aa(lp951
I285
ag585
aaaa(lp952
I287
aI290
ag312
a(lp953
(lp954
I287
ag744
aa(lp955
I288
ag585
aa(lp956
I289
ag613
aa(lp957
I290
ag606
aaaa(lp958
I292
aI298
ag321
a(lp959
(lp960
I292
ag701
aa(lp961
I293
ag645
aa(lp962
I294
ag594
aa(lp963
I295
ag615
aa(lp964
I296
ag583
aa(lp965
I297
ag606
aa(lp966
I298
ag598
aaaa(lp967
I300
aI302
aS'can'
p968
a(lp969
(lp970
I300
ag589
aa(lp971
I301
ag594
aa(lp972
I302
ag620
aaaa(lp973
I304
aI307
aS'from'
p974
a(lp975
(lp976
I304
ag744
aa(lp977
I305
ag606
aa(lp978
I306
ag585
aa(lp979
I307
ag737
aaaa(lp980
I309
aI313
aS'their'
p981
a(lp982
(lp983
I309
ag596
aa(lp984
I310
ag591
aa(lp985
I311
ag583
aa(lp986
I312
ag579
aa(lp987
I313
ag606
aaaa(lp988
I315
aI317
aS'own'
p989
a(lp990
(lp991
I315
ag585
aa(lp992
I316
ag623
aa(lp993
I317
ag620
aaaa(lp994
I319
aI322
ag330
a(lp995
(lp996
I319
ag602
aa(lp997
I320
ag594
aa(lp998
I321
ag620
aa(lp999
I322
ag581
aaaa(lp1000
I324
aI326
aS'and'
p1001
a(lp1002
(lp1003
I324
ag594
aa(lp1004
I325
ag620
aa(lp1005
I326
ag581
aaaa(lp1006
I328
aI331
ag339
a(lp1007
(lp1008
I328
ag701
aa(lp1009
I329
ag645
aa(lp1010
I330
ag594
aa(lp1011
I331
ag615
aaaa(lp1012
I334
aI339
ag348
a(lp1013
(lp1014
I334
ag583
aa(lp1015
I335
ag579
aa(lp1016
I336
ag596
aa(lp1017
I337
ag591
aa(lp1018
I338
ag583
aa(lp1019
I339
ag606
aaaa(lp1020
I341
aI342
aS'on'
p1021
a(lp1022
(lp1023
I341
ag585
aa(lp1024
I342
ag620
aaaa(lp1025
I344
aI345
aS'or'
p1026
a(lp1027
(lp1028
I344
ag585
aa(lp1029
I345
ag606
aaaa(lp1030
I347
aI353
ag357
a(lp1031
(lp1032
I347
ag585
aa(lp1033
I348
ag744
aa(lp1034
I349
ag744
aa(lp1035
I350
ag645
aa(lp1036
I351
ag579
aa(lp1037
I352
ag620
aa(lp1038
I353
ag583
aaaa(lp1039
I356
aI362
aS'through'
p1040
a(lp1041
(lp1042
I356
ag596
aa(lp1043
I357
ag591
aa(lp1044
I358
ag606
aa(lp1045
I359
ag585
aa(lp1046
I360
ag613
aa(lp1047
I361
ag627
aa(lp1048
I362
ag591
aaaa(lp1049
I364
aI364
ag594
a(lp1050
(lp1051
I364
ag594
aaaa(lp1052
I366
aI372
ag366
a(lp1053
(lp1054
I366
ag577
aa(lp1055
I367
ag594
aa(lp1056
I368
ag606
aa(lp1057
I369
ag579
aa(lp1058
I370
ag583
aa(lp1059
I371
ag596
aa(lp1060
I372
ag615
aaaa(lp1061
I374
aI375
aS'of'
p1062
a(lp1063
(lp1064
I374
ag585
aa(lp1065
I375
ag744
aaaa(lp1066
I377
aI383
ag375
a(lp1067
(lp1068
I377
ag737
aa(lp1069
I378
ag613
aa(lp1070
I379
ag598
aa(lp1071
I380
ag579
aa(lp1072
I381
ag589
aa(lp1073
I382
ag594
aa(lp1074
I383
ag645
aaaa(lp1075
I385
aI390
ag384
a(lp1076
(lp1077
I385
ag577
aa(lp1078
I386
ag583
aa(lp1079
I387
ag620
aa(lp1080
I388
ag613
aa(lp1081
I389
ag583
aa(lp1082
I390
ag598
aaaa(lp1083
I393
aI396
aS'when'
p1084
a(lp1085
(lp1086
I393
ag623
aa(lp1087
I394
ag591
aa(lp1088
I395
ag583
aa(lp1089
I396
ag620
aaaa(lp1090
I398
aI400
aS'the'
p1091
a(lp1092
(lp1093
I398
ag596
aa(lp1094
I399
ag591
aa(lp1095
I400
ag583
aaaa(lp1096
I402
aI407
ag393
a(lp1097
(lp1098
I402
ag701
aa(lp1099
I403
ag645
aa(lp1100
I404
ag594
aa(lp1101
I405
ag615
aa(lp1102
I406
ag583
aa(lp1103
I407
ag606
aaaa(lp1104
I409
aI413
ag402
a(lp1105
(lp1106
I409
ag623
aa(lp1107
I410
ag594
aa(lp1108
I411
ag620
aa(lp1109
I412
ag596
aa(lp1110
I413
ag598
aaaa(lp1111
I415
aI416
aS'to'
p1112
a(lp1113
(lp1114
I415
ag596
aa(lp1115
I416
ag585
aaaa(lp1116
I418
aI420
ag411
a(lp1117
(lp1118
I418
ag596
aa(lp1119
I419
ag606
aa(lp1120
I420
ag615
aaaa(lp1121
I422
aI426
aS'their'
p1122
a(lp1123
(lp1124
I422
ag596
aa(lp1125
I423
ag591
aa(lp1126
I424
ag583
aa(lp1127
I425
ag579
aa(lp1128
I426
ag606
aaaa(lp1129
I428
aI430
aS'own'
p1130
a(lp1131
(lp1132
I428
ag585
aa(lp1133
I429
ag623
aa(lp1134
I430
ag620
aaaa(lp1135
I432
aI435
ag420
a(lp1136
(lp1137
I432
ag591
aa(lp1138
I433
ag594
aa(lp1139
I434
ag620
aa(lp1140
I435
ag581
aaaa(lp1141
I437
aI438
aS'at'
p1142
a(lp1143
(lp1144
I437
ag594
aa(lp1145
I438
ag596
aaaa(lp1146
I440
aI442
aS'the'
p1147
a(lp1148
(lp1149
I440
ag596
aa(lp1150
I441
ag591
aa(lp1151
I442
ag583
aaaa(lp1152
I444
aI447
ag429
a(lp1153
(lp1154
I444
ag627
aa(lp1155
I445
ag594
aa(lp1156
I446
ag737
aa(lp1157
I447
ag583
aaaa(lp1158
I450
aI456
ag438
a(lp1159
(lp1160
I450
ag591
aa(lp1161
I451
ag585
aa(lp1162
I452
ag623
aa(lp1163
I453
ag583
aa(lp1164
I454
ag577
aa(lp1165
I455
ag583
aa(lp1166
I456
ag606
aaaa(lp1167
I459
aI463
aS'there'
p1168
a(lp1169
(lp1170
I459
ag596
aa(lp1171
I460
ag591
aa(lp1172
I461
ag583
aa(lp1173
I462
ag606
aa(lp1174
I463
ag583
aaaa(lp1175
I465
aI466
aS'is'
p1176
a(lp1177
(lp1178
I465
ag579
aa(lp1179
I466
ag598
aaaa(lp1180
I468
aI470
aS'the'
p1181
a(lp1182
(lp1183
I468
ag596
aa(lp1184
I469
ag591
aa(lp1185
I470
ag583
aaaa(lp1186
I472
aI476
ag447
a(lp1187
(lp1188
I472
ag596
aa(lp1189
I473
ag606
aa(lp1190
I474
ag579
aa(lp1191
I475
ag583
aa(lp1192
I476
ag581
aaaa(lp1193
I478
aI480
aS'and'
p1194
a(lp1195
(lp1196
I478
ag594
aa(lp1197
I479
ag620
aa(lp1198
I480
ag581
aaaa(lp1199
I482
aI485
ag456
a(lp1200
(lp1201
I482
ag596
aa(lp1202
I483
ag606
aa(lp1203
I484
ag613
aa(lp1204
I485
ag583
aaaa(lp1205
I487
aI492
ag465
a(lp1206
(lp1207
I487
ag598
aa(lp1208
I488
ag579
aa(lp1209
I489
ag620
aa(lp1210
I490
ag627
aa(lp1211
I491
ag645
aa(lp1212
I492
ag583
aaaa(lp1213
I494
aI499
ag474
a(lp1214
(lp1215
I494
ag701
aa(lp1216
I495
ag645
aa(lp1217
I496
ag594
aa(lp1218
I497
ag615
aa(lp1219
I498
ag583
aa(lp1220
I499
ag606
aaaa(lp1221
I501
aI504
ag483
a(lp1222
(lp1223
I501
ag737
aa(lp1224
I502
ag585
aa(lp1225
I503
ag581
aa(lp1226
I504
ag583
aaaa(lp1227
I506
aI514
ag492
a(lp1228
(lp1229
I506
ag594
aa(lp1230
I507
ag577
aa(lp1231
I508
ag594
aa(lp1232
I509
ag579
aa(lp1233
I510
ag645
aa(lp1234
I511
ag594
aa(lp1235
I512
ag602
aa(lp1236
I513
ag645
aa(lp1237
I514
ag583
aaaa(lp1238
I516
aI520
aS'where'
p1239
a(lp1240
(lp1241
I516
ag623
aa(lp1242
I517
ag591
aa(lp1243
I518
ag583
aa(lp1244
I519
ag606
aa(lp1245
I520
ag583
aaaa(lp1246
I522
aI528
ag501
a(lp1247
(lp1248
I522
ag701
aa(lp1249
I523
ag645
aa(lp1250
I524
ag594
aa(lp1251
I525
ag615
aa(lp1252
I526
ag583
aa(lp1253
I527
ag606
aa(lp1254
I528
ag598
aaaa(lp1255
I530
aI532
aS'can'
p1256
a(lp1257
(lp1258
I530
ag589
aa(lp1259
I531
ag594
aa(lp1260
I532
ag620
aaaa(lp1261
I534
aI541
ag510
a(lp1262
(lp1263
I534
ag701
aa(lp1264
I535
ag606
aa(lp1265
I536
ag585
aa(lp1266
I537
ag627
aa(lp1267
I538
ag606
aa(lp1268
I539
ag583
aa(lp1269
I540
ag598
aa(lp1270
I541
ag598
aaaa(lp1271
I543
aI544
aS'in'
p1272
a(lp1273
(lp1274
I543
ag579
aa(lp1275
I544
ag620
aaaa(lp1276
I546
aI548
aS'any'
p1277
a(lp1278
(lp1279
I546
ag594
aa(lp1280
I547
ag620
aa(lp1281
I548
ag615
aaaa(lp1282
I550
aI552
ag519
a(lp1283
(lp1284
I550
ag623
aa(lp1285
I551
ag594
aa(lp1286
I552
ag615
aaaa(lp1287
I554
aI557
aS'they'
p1288
a(lp1289
(lp1290
I554
ag596
aa(lp1291
I555
ag591
aa(lp1292
I556
ag583
aa(lp1293
I557
ag615
aaaa(lp1294
I559
aI562
ag528
a(lp1295
(lp1296
I559
ag645
aa(lp1297
I560
ag579
aa(lp1298
I561
aS'k'
p1299
aa(lp1300
I562
ag583
aaaa(lp1301
I565
aI570
ag537
a(lp1302
(lp1303
I565
ag606
aa(lp1304
I566
ag594
aa(lp1305
I567
ag596
aa(lp1306
I568
ag579
aa(lp1307
I569
ag620
aa(lp1308
I570
ag627
aaaa(lp1309
I573
aI576
ag546
a(lp1310
(lp1311
I573
aS'1'
p1312
aa(lp1313
I574
aS'0'
p1314
aa(lp1315
I576
ag1314
aaaa(lp1316
I579
aI583
ag555
a(lp1317
(lp1318
I579
ag577
aa(lp1319
I580
ag585
aa(lp1320
I581
ag596
aa(lp1321
I582
ag583
aa(lp1322
I583
ag598
aaaa(lp1323
I579
aI583
ag564
a(lp1324
(lp1325
I586
ag564
aaaasS'cleanCharacterMap'
p1326
(lp1327
g576
ag578
ag580
ag582
ag584
a(lp1328
I5
aS' '
p1329
aag588
ag590
ag592
ag593
ag595
ag597
a(lp1330
I12
ag1329
aag601
ag603
ag604
ag605
ag607
ag608
a(lp1331
I19
ag1329
aag611
ag612
ag614
a(lp1332
I23
ag1329
aag619
ag621
ag622
a(lp1333
I27
ag1329
aag626
ag628
ag629
ag630
ag631
ag632
a(lp1334
I34
ag1329
aag635
ag636
ag637
ag638
a(lp1335
I40
ag1329
aag641
ag642
ag643
ag644
ag646
a(lp1336
I46
ag1329
aag649
ag650
ag651
ag652
a(lp1337
I51
ag1329
aag655
ag656
ag657
ag658
a(lp1338
I56
ag1329
aag662
ag663
a(lp1339
I59
ag1329
aag666
ag667
ag668
ag669
a(lp1340
I64
ag1329
aag672
ag673
ag674
ag675
ag676
ag677
a(lp1341
I71
ag1329
aag680
ag681
ag682
ag683
ag684
a(lp1342
I77
ag1329
aag688
ag689
a(lp1343
I80
ag1329
aag693
ag694
ag695
ag696
ag697
a(lp1344
I86
ag1329
aag700
ag702
ag703
ag704
ag705
ag706
ag707
a(lp1345
I94
ag1329
aag711
ag712
ag713
a(lp1346
I98
ag1329
aag716
ag717
ag718
ag719
ag720
ag721
a(lp1347
I105
ag1329
aag725
ag726
ag727
ag728
ag729
a(lp1348
I111
ag1329
aag732
ag733
ag734
ag735
ag736
ag738
a(lp1349
I118
ag1329
aag742
ag743
a(lp1350
I121
ag1329
aag747
ag748
ag749
ag750
ag751
ag752
ag753
a(lp1351
I129
ag1329
aag756
ag757
ag758
ag759
ag760
ag761
ag762
a(lp1352
I138
ag1329
aag766
ag767
a(lp1353
I141
ag1329
aag771
ag772
ag773
a(lp1354
I145
ag1329
aag776
ag777
ag778
ag779
ag780
a(lp1355
I151
ag1329
aag783
ag784
ag785
ag786
ag787
a(lp1356
I157
ag1329
aag790
ag791
ag792
ag793
ag794
ag795
a(lp1357
I164
ag1329
aag799
ag800
a(lp1358
I167
ag1329
aag804
ag805
ag806
a(lp1359
I171
ag1329
aag809
ag810
ag811
ag812
ag813
a(lp1360
I177
ag1329
aag816
ag817
ag818
ag819
a(lp1361
I182
ag1329
aag822
a(lp1362
I184
ag1329
aag825
ag826
ag827
ag828
ag829
a(lp1363
I190
ag1329
aag833
ag834
a(lp1364
I193
ag1329
aag837
ag838
ag839
ag840
ag841
a(lp1365
I199
ag1329
aag844
ag845
ag846
ag847
ag848
ag849
ag850
a(lp1366
I207
ag1329
aag854
ag855
ag856
a(lp1367
I211
ag1329
aag859
ag860
a(lp1368
I214
ag1329
aag863
ag864
ag865
ag866
a(lp1369
I219
ag1329
aag870
ag871
a(lp1370
I222
ag1329
aag874
ag875
ag876
ag877
a(lp1371
I227
ag1329
aag880
ag881
ag882
ag883
ag884
ag885
a(lp1372
I234
ag1329
aag889
ag890
a(lp1373
I237
ag1329
aag893
ag894
ag895
a(lp1374
I241
ag1329
aag899
ag900
ag901
a(lp1375
I245
ag1329
aag905
ag906
ag907
a(lp1376
I249
ag1329
aag910
ag911
ag912
ag913
ag914
ag915
ag916
a(lp1377
I257
ag1329
aag920
ag921
ag922
a(lp1378
I261
ag1329
aag926
ag927
ag928
ag929
a(lp1379
I266
ag1329
aag932
ag933
ag934
ag935
ag936
ag937
ag938
a(lp1380
I274
ag1329
aag941
ag942
ag943
ag944
ag945
a(lp1381
I281
ag1329
aag948
ag949
ag950
ag951
a(lp1382
I286
ag1329
aag954
ag955
ag956
ag957
a(lp1383
I291
ag1329
aag960
ag961
ag962
ag963
ag964
ag965
ag966
a(lp1384
I299
ag1329
aag970
ag971
ag972
a(lp1385
I303
ag1329
aag976
ag977
ag978
ag979
a(lp1386
I308
ag1329
aag983
ag984
ag985
ag986
ag987
a(lp1387
I314
ag1329
aag991
ag992
ag993
a(lp1388
I318
ag1329
aag996
ag997
ag998
ag999
a(lp1389
I323
ag1329
aag1003
ag1004
ag1005
a(lp1390
I327
ag1329
aag1008
ag1009
ag1010
ag1011
a(lp1391
I333
ag1329
aag1014
ag1015
ag1016
ag1017
ag1018
ag1019
a(lp1392
I340
ag1329
aag1023
ag1024
a(lp1393
I343
ag1329
aag1028
ag1029
a(lp1394
I346
ag1329
aag1032
ag1033
ag1034
ag1035
ag1036
ag1037
ag1038
a(lp1395
I355
ag1329
aag1042
ag1043
ag1044
ag1045
ag1046
ag1047
ag1048
a(lp1396
I363
ag1329
aag1051
a(lp1397
I365
ag1329
aag1054
ag1055
ag1056
ag1057
ag1058
ag1059
ag1060
a(lp1398
I373
ag1329
aag1064
ag1065
a(lp1399
I376
ag1329
aag1068
ag1069
ag1070
ag1071
ag1072
ag1073
ag1074
a(lp1400
I384
ag1329
aag1077
ag1078
ag1079
ag1080
ag1081
ag1082
a(lp1401
I392
ag1329
aag1086
ag1087
ag1088
ag1089
a(lp1402
I397
ag1329
aag1093
ag1094
ag1095
a(lp1403
I401
ag1329
aag1098
ag1099
ag1100
ag1101
ag1102
ag1103
a(lp1404
I408
ag1329
aag1106
ag1107
ag1108
ag1109
ag1110
a(lp1405
I414
ag1329
aag1114
ag1115
a(lp1406
I417
ag1329
aag1118
ag1119
ag1120
a(lp1407
I421
ag1329
aag1124
ag1125
ag1126
ag1127
ag1128
a(lp1408
I427
ag1329
aag1132
ag1133
ag1134
a(lp1409
I431
ag1329
aag1137
ag1138
ag1139
ag1140
a(lp1410
I436
ag1329
aag1144
ag1145
a(lp1411
I439
ag1329
aag1149
ag1150
ag1151
a(lp1412
I443
ag1329
aag1154
ag1155
ag1156
ag1157
a(lp1413
I449
ag1329
aag1160
ag1161
ag1162
ag1163
ag1164
ag1165
ag1166
a(lp1414
I458
ag1329
aag1170
ag1171
ag1172
ag1173
ag1174
a(lp1415
I464
ag1329
aag1178
ag1179
a(lp1416
I467
ag1329
aag1183
ag1184
ag1185
a(lp1417
I471
ag1329
aag1188
ag1189
ag1190
ag1191
ag1192
a(lp1418
I477
ag1329
aag1196
ag1197
ag1198
a(lp1419
I481
ag1329
aag1201
ag1202
ag1203
ag1204
a(lp1420
I486
ag1329
aag1207
ag1208
ag1209
ag1210
ag1211
ag1212
a(lp1421
I493
ag1329
aag1215
ag1216
ag1217
ag1218
ag1219
ag1220
a(lp1422
I500
ag1329
aag1223
ag1224
ag1225
ag1226
a(lp1423
I505
ag1329
aag1229
ag1230
ag1231
ag1232
ag1233
ag1234
ag1235
ag1236
ag1237
a(lp1424
I515
ag1329
aag1241
ag1242
ag1243
ag1244
ag1245
a(lp1425
I521
ag1329
aag1248
ag1249
ag1250
ag1251
ag1252
ag1253
ag1254
a(lp1426
I529
ag1329
aag1258
ag1259
ag1260
a(lp1427
I533
ag1329
aag1263
ag1264
ag1265
ag1266
ag1267
ag1268
ag1269
ag1270
a(lp1428
I542
ag1329
aag1274
ag1275
a(lp1429
I545
ag1329
aag1279
ag1280
ag1281
a(lp1430
I549
ag1329
aag1284
ag1285
ag1286
a(lp1431
I553
ag1329
aag1290
ag1291
ag1292
ag1293
a(lp1432
I558
ag1329
aag1296
ag1297
ag1298
ag1300
a(lp1433
I564
ag1329
aag1303
ag1304
ag1305
ag1306
ag1307
ag1308
a(lp1434
I572
ag1329
aag1311
ag1313
ag1315
a(lp1435
I578
ag1329
aag1318
ag1319
ag1320
ag1321
ag1322
a(lp1436
I585
ag1329
aag1325
asS'text'
p1437
S'video cheats boards buy now guitar hero: world tour sets an even bigger stage on which players can create their dreams of musical stardom. in the newly added battle of the bands mode a total of eight players can go head to head online to see who can produce the most stellar sound. also four players can from their own band and play, either on or offline, through a variety of musical venues. when the player wants to try their own hand at the game, however, there is the tried and true single player mode available where players can progress in any way they like. rating: 10.0, votes: 2'
p1438
sS'cleanWordMap'
p1439
(lp1440
g574
ag586
ag599
ag609
ag624
ag633
ag639
ag647
ag653
ag664
ag670
ag678
ag698
ag714
ag730
ag745
ag754
ag774
ag781
ag788
ag807
ag814
ag823
ag835
ag842
ag857
ag861
ag872
ag878
ag891
ag908
ag930
ag939
ag946
ag952
ag958
ag994
ag1006
ag1012
ag1030
ag1052
ag1066
ag1075
ag1096
ag1104
ag1116
ag1135
ag1152
ag1158
ag1186
ag1199
ag1205
ag1213
ag1221
ag1227
ag1246
ag1261
ag1282
ag1294
ag1301
ag1309
ag1316
ag1323
asS'lines'
p1441
(lp1442
VVideo Cheats Boards Buy Now\u000a
p1443
aVGuitar Hero: World Tour sets an even bigger stage on which players can create their dreams of musical stardom. In the newly added Battle of The Bands mode a total of eight players can go head to head online to see who can produce the most stellar sound. Also four players can from their own band and play, either on or offline, through a variety of musical venues. When the player wants to try their own hand at the game, however, there is the tried and true Single Player mode available where players can progress in any way they like.\u000a
p1444
aVRating: 10.0, votes: 2
p1445
asS'docType'
p1446
S'src'
p1447
sS'newfmap'
p1448
(lp1449
g4
ag8
ag10
ag12
ag14
ag17
ag19
ag21
ag23
ag26
ag28
ag30
ag32
ag35
ag37
ag39
ag41
ag44
ag46
ag48
ag50
ag53
ag55
ag57
ag59
ag62
ag64
ag66
ag68
ag71
ag73
ag75
ag77
ag80
ag82
ag84
ag86
ag89
ag91
ag93
ag95
ag98
ag100
ag102
ag104
ag107
ag109
ag111
ag113
ag116
ag118
ag120
ag122
ag125
ag127
ag129
ag131
ag134
ag136
ag138
ag140
ag143
ag145
ag147
ag149
ag152
ag154
ag156
ag158
ag161
ag163
ag165
ag167
ag170
ag172
ag174
ag176
ag179
ag181
ag183
ag185
ag188
ag190
ag192
ag194
ag197
ag199
ag201
ag203
ag206
ag208
ag210
ag212
ag215
ag217
ag219
ag221
ag224
ag226
ag228
ag230
ag233
ag235
ag237
ag239
ag242
ag244
ag246
ag248
ag251
ag253
ag255
ag257
ag260
ag262
ag264
ag266
ag269
ag271
ag273
ag275
ag278
ag280
ag282
ag284
ag287
ag289
ag291
ag293
ag296
ag298
ag300
ag302
ag305
ag307
ag309
ag311
ag314
ag316
ag318
ag320
ag323
ag325
ag327
ag329
ag332
ag334
ag336
ag338
ag341
ag343
ag345
ag347
ag350
ag352
ag354
ag356
ag359
ag361
ag363
ag365
ag368
ag370
ag372
ag374
ag377
ag379
ag381
ag383
ag386
ag388
ag390
ag392
ag395
ag397
ag399
ag401
ag404
ag406
ag408
ag410
ag413
ag415
ag417
ag419
ag422
ag424
ag426
ag428
ag431
ag433
ag435
ag437
ag440
ag442
ag444
ag446
ag449
ag451
ag453
ag455
ag458
ag460
ag462
ag464
ag467
ag469
ag471
ag473
ag476
ag478
ag480
ag482
ag485
ag487
ag489
ag491
ag494
ag496
ag498
ag500
ag503
ag505
ag507
ag509
ag512
ag514
ag516
ag518
ag521
ag523
ag525
ag527
ag530
ag532
ag534
ag536
ag539
ag541
ag543
ag545
ag548
ag550
ag552
ag554
ag557
ag559
ag561
ag563
ag566
ag568
ag570
asS'featureMap'
p1450
(lp1451
(lp1452
I0
aI4
ag5
ag6
ag9
ag11
ag13
aa(lp1453
I6
aI11
ag15
ag16
ag18
ag20
ag22
aa(lp1454
I13
aI18
ag24
ag25
ag27
ag29
ag31
aa(lp1455
I20
aI22
ag33
ag34
ag36
ag38
ag40
aa(lp1456
I28
aI33
ag42
ag43
ag45
ag47
ag49
aa(lp1457
I35
aI38
ag51
ag52
ag54
ag56
ag58
aa(lp1458
I41
aI45
ag60
ag61
ag63
ag65
ag67
aa(lp1459
I47
aI50
ag69
ag70
ag72
ag74
ag76
aa(lp1460
I52
aI55
ag78
ag79
ag81
ag83
ag85
aa(lp1461
I60
aI63
ag87
ag88
ag90
ag92
ag94
aa(lp1462
I65
aI70
ag96
ag97
ag99
ag101
ag103
aa(lp1463
I72
aI76
ag105
ag106
ag108
ag110
ag112
aa(lp1464
I87
aI93
ag114
ag115
ag117
ag119
ag121
aa(lp1465
I99
aI104
ag123
ag124
ag126
ag128
ag130
aa(lp1466
I112
aI117
ag132
ag133
ag135
ag137
ag139
aa(lp1467
I122
aI128
ag141
ag142
ag144
ag146
ag148
aa(lp1468
I130
aI136
ag150
ag151
ag153
ag155
ag157
aa(lp1469
I146
aI150
ag159
ag160
ag162
ag164
ag166
aa(lp1470
I152
aI156
ag168
ag169
ag171
ag173
ag175
aa(lp1471
I158
aI163
ag177
ag178
ag180
ag182
ag184
aa(lp1472
I172
aI176
ag186
ag187
ag189
ag191
ag193
aa(lp1473
I178
aI181
ag195
ag196
ag198
ag200
ag202
aa(lp1474
I185
aI189
ag204
ag205
ag207
ag209
ag211
aa(lp1475
I194
aI198
ag213
ag214
ag216
ag218
ag220
aa(lp1476
I200
aI206
ag222
ag223
ag225
ag227
ag229
aa(lp1477
I212
aI213
ag231
ag232
ag234
ag236
ag238
aa(lp1478
I215
aI218
ag240
ag241
ag243
ag245
ag247
aa(lp1479
I223
aI226
ag249
ag250
ag252
ag254
ag256
aa(lp1480
I228
aI233
ag258
ag259
ag261
ag263
ag265
aa(lp1481
I238
aI240
ag267
ag268
ag270
ag272
ag274
aa(lp1482
I250
aI256
ag276
ag277
ag279
ag281
ag283
aa(lp1483
I267
aI273
ag285
ag286
ag288
ag290
ag292
aa(lp1484
I275
aI279
ag294
ag295
ag297
ag299
ag301
aa(lp1485
I282
aI285
ag303
ag304
ag306
ag308
ag310
aa(lp1486
I287
aI290
ag312
ag313
ag315
ag317
ag319
aa(lp1487
I292
aI298
ag321
ag322
ag324
ag326
ag328
aa(lp1488
I319
aI322
ag330
ag331
ag333
ag335
ag337
aa(lp1489
I328
aI331
ag339
ag340
ag342
ag344
ag346
aa(lp1490
I334
aI339
ag348
ag349
ag351
ag353
ag355
aa(lp1491
I347
aI353
ag357
ag358
ag360
ag362
ag364
aa(lp1492
I366
aI372
ag366
ag367
ag369
ag371
ag373
aa(lp1493
I377
aI383
ag375
ag376
ag378
ag380
ag382
aa(lp1494
I385
aI390
ag384
ag385
ag387
ag389
ag391
aa(lp1495
I402
aI407
ag393
ag394
ag396
ag398
ag400
aa(lp1496
I409
aI413
ag402
ag403
ag405
ag407
ag409
aa(lp1497
I418
aI420
ag411
ag412
ag414
ag416
ag418
aa(lp1498
I432
aI435
ag420
ag421
ag423
ag425
ag427
aa(lp1499
I444
aI447
ag429
ag430
ag432
ag434
ag436
aa(lp1500
I450
aI456
ag438
ag439
ag441
ag443
ag445
aa(lp1501
I472
aI476
ag447
ag448
ag450
ag452
ag454
aa(lp1502
I482
aI485
ag456
ag457
ag459
ag461
ag463
aa(lp1503
I487
aI492
ag465
ag466
ag468
ag470
ag472
aa(lp1504
I494
aI499
ag474
ag475
ag477
ag479
ag481
aa(lp1505
I501
aI504
ag483
ag484
ag486
ag488
ag490
aa(lp1506
I506
aI514
ag492
ag493
ag495
ag497
ag499
aa(lp1507
I522
aI528
ag501
ag502
ag504
ag506
ag508
aa(lp1508
I534
aI541
ag510
ag511
ag513
ag515
ag517
aa(lp1509
I550
aI552
ag519
ag520
ag522
ag524
ag526
aa(lp1510
I559
aI562
ag528
ag529
ag531
ag533
ag535
aa(lp1511
I565
aI570
ag537
ag538
ag540
ag542
ag544
aa(lp1512
I573
aI576
ag546
ag547
ag549
ag551
ag553
aa(lp1513
I579
aI583
ag555
ag556
ag558
ag560
ag562
aa(lp1514
I579
aI583
ag564
ag565
ag567
ag569
ag571
aasS'characterMap'
p1515
(lp1516
g576
ag578
ag580
ag582
ag584
ag1328
ag588
ag590
ag592
ag593
ag595
ag597
ag1330
ag601
ag603
ag604
ag605
ag607
ag608
ag1331
ag611
ag612
ag614
ag1332
ag619
ag621
ag622
ag1333
ag626
ag628
ag629
ag630
ag631
ag632
ag1334
ag635
ag636
ag637
ag638
a(lp1517
I39
aS':'
p1518
aag1335
ag641
ag642
ag643
ag644
ag646
ag1336
ag649
ag650
ag651
ag652
ag1337
ag655
ag656
ag657
ag658
ag1338
ag662
ag663
ag1339
ag666
ag667
ag668
ag669
ag1340
ag672
ag673
ag674
ag675
ag676
ag677
ag1341
ag680
ag681
ag682
ag683
ag684
ag1342
ag688
ag689
ag1343
ag693
ag694
ag695
ag696
ag697
ag1344
ag700
ag702
ag703
ag704
ag705
ag706
ag707
ag1345
ag711
ag712
ag713
ag1346
ag716
ag717
ag718
ag719
ag720
ag721
ag1347
ag725
ag726
ag727
ag728
ag729
ag1348
ag732
ag733
ag734
ag735
ag736
ag738
ag1349
ag742
ag743
ag1350
ag747
ag748
ag749
ag750
ag751
ag752
ag753
ag1351
ag756
ag757
ag758
ag759
ag760
ag761
ag762
a(lp1519
I137
aS'.'
p1520
aag1352
ag766
ag767
ag1353
ag771
ag772
ag773
ag1354
ag776
ag777
ag778
ag779
ag780
ag1355
ag783
ag784
ag785
ag786
ag787
ag1356
ag790
ag791
ag792
ag793
ag794
ag795
ag1357
ag799
ag800
ag1358
ag804
ag805
ag806
ag1359
ag809
ag810
ag811
ag812
ag813
ag1360
ag816
ag817
ag818
ag819
ag1361
ag822
ag1362
ag825
ag826
ag827
ag828
ag829
ag1363
ag833
ag834
ag1364
ag837
ag838
ag839
ag840
ag841
ag1365
ag844
ag845
ag846
ag847
ag848
ag849
ag850
ag1366
ag854
ag855
ag856
ag1367
ag859
ag860
ag1368
ag863
ag864
ag865
ag866
ag1369
ag870
ag871
ag1370
ag874
ag875
ag876
ag877
ag1371
ag880
ag881
ag882
ag883
ag884
ag885
ag1372
ag889
ag890
ag1373
ag893
ag894
ag895
ag1374
ag899
ag900
ag901
ag1375
ag905
ag906
ag907
ag1376
ag910
ag911
ag912
ag913
ag914
ag915
ag916
ag1377
ag920
ag921
ag922
ag1378
ag926
ag927
ag928
ag929
ag1379
ag932
ag933
ag934
ag935
ag936
ag937
ag938
ag1380
ag941
ag942
ag943
ag944
ag945
a(lp1521
I280
ag1520
aag1381
ag948
ag949
ag950
ag951
ag1382
ag954
ag955
ag956
ag957
ag1383
ag960
ag961
ag962
ag963
ag964
ag965
ag966
ag1384
ag970
ag971
ag972
ag1385
ag976
ag977
ag978
ag979
ag1386
ag983
ag984
ag985
ag986
ag987
ag1387
ag991
ag992
ag993
ag1388
ag996
ag997
ag998
ag999
ag1389
ag1003
ag1004
ag1005
ag1390
ag1008
ag1009
ag1010
ag1011
a(lp1522
I332
aS','
p1523
aag1391
ag1014
ag1015
ag1016
ag1017
ag1018
ag1019
ag1392
ag1023
ag1024
ag1393
ag1028
ag1029
ag1394
ag1032
ag1033
ag1034
ag1035
ag1036
ag1037
ag1038
a(lp1524
I354
ag1523
aag1395
ag1042
ag1043
ag1044
ag1045
ag1046
ag1047
ag1048
ag1396
ag1051
ag1397
ag1054
ag1055
ag1056
ag1057
ag1058
ag1059
ag1060
ag1398
ag1064
ag1065
ag1399
ag1068
ag1069
ag1070
ag1071
ag1072
ag1073
ag1074
ag1400
ag1077
ag1078
ag1079
ag1080
ag1081
ag1082
a(lp1525
I391
ag1520
aag1401
ag1086
ag1087
ag1088
ag1089
ag1402
ag1093
ag1094
ag1095
ag1403
ag1098
ag1099
ag1100
ag1101
ag1102
ag1103
ag1404
ag1106
ag1107
ag1108
ag1109
ag1110
ag1405
ag1114
ag1115
ag1406
ag1118
ag1119
ag1120
ag1407
ag1124
ag1125
ag1126
ag1127
ag1128
ag1408
ag1132
ag1133
ag1134
ag1409
ag1137
ag1138
ag1139
ag1140
ag1410
ag1144
ag1145
ag1411
ag1149
ag1150
ag1151
ag1412
ag1154
ag1155
ag1156
ag1157
a(lp1526
I448
ag1523
aag1413
ag1160
ag1161
ag1162
ag1163
ag1164
ag1165
ag1166
a(lp1527
I457
ag1523
aag1414
ag1170
ag1171
ag1172
ag1173
ag1174
ag1415
ag1178
ag1179
ag1416
ag1183
ag1184
ag1185
ag1417
ag1188
ag1189
ag1190
ag1191
ag1192
ag1418
ag1196
ag1197
ag1198
ag1419
ag1201
ag1202
ag1203
ag1204
ag1420
ag1207
ag1208
ag1209
ag1210
ag1211
ag1212
ag1421
ag1215
ag1216
ag1217
ag1218
ag1219
ag1220
ag1422
ag1223
ag1224
ag1225
ag1226
ag1423
ag1229
ag1230
ag1231
ag1232
ag1233
ag1234
ag1235
ag1236
ag1237
ag1424
ag1241
ag1242
ag1243
ag1244
ag1245
ag1425
ag1248
ag1249
ag1250
ag1251
ag1252
ag1253
ag1254
ag1426
ag1258
ag1259
ag1260
ag1427
ag1263
ag1264
ag1265
ag1266
ag1267
ag1268
ag1269
ag1270
ag1428
ag1274
ag1275
ag1429
ag1279
ag1280
ag1281
ag1430
ag1284
ag1285
ag1286
ag1431
ag1290
ag1291
ag1292
ag1293
ag1432
ag1296
ag1297
ag1298
ag1300
a(lp1528
I563
ag1520
aag1433
ag1303
ag1304
ag1305
ag1306
ag1307
ag1308
a(lp1529
I571
ag1518
aag1434
ag1311
ag1313
a(lp1530
I575
ag1520
aag1315
a(lp1531
I577
ag1523
aag1435
ag1318
ag1319
ag1320
ag1321
ag1322
a(lp1532
I584
ag1518
aag1436
ag1325
asS'docName'
p1533
S'source-document00988.txt'
p1534
sb.