(iModel.Document
Document
p0
(dp1
S'fmap'
p2
(lp3
sS'wordMap'
p4
(lp5
sS'cleanCharacterMap'
p6
(lp7
(lp8
I1
aS' '
p9
aa(lp10
I3
ag9
aa(lp11
I4
aS'h'
p12
aa(lp13
I5
aS'o'
p14
aa(lp15
I6
aS'm'
p16
aa(lp17
I7
aS'e'
p18
aa(lp19
I8
ag9
aa(lp20
I9
aS's'
p21
aa(lp22
I10
ag18
aa(lp23
I11
aS'l'
p24
aa(lp25
I12
ag18
aa(lp26
I13
aS'c'
p27
aa(lp28
I14
aS't'
p29
aa(lp30
I15
ag9
aa(lp31
I16
aS'a'
p32
aa(lp33
I17
ag9
aa(lp34
I18
ag16
aa(lp35
I19
ag18
aa(lp36
I20
aS'd'
p37
aa(lp38
I21
aS'i'
p39
aa(lp40
I22
ag27
aa(lp41
I23
ag32
aa(lp42
I24
ag24
aa(lp43
I25
ag9
aa(lp44
I26
ag21
aa(lp45
I27
ag18
aa(lp46
I28
aS'r'
p47
aa(lp48
I29
aS'v'
p49
aa(lp50
I30
ag39
aa(lp51
I31
ag27
aa(lp52
I32
ag18
aa(lp53
I33
ag9
aa(lp54
I34
ag21
aa(lp55
I35
aS'p'
p56
aa(lp57
I36
ag39
aa(lp58
I37
aS'n'
p59
aa(lp60
I38
ag18
aa(lp61
I39
ag9
aa(lp62
I40
ag27
aa(lp63
I41
ag18
aa(lp64
I42
ag59
aa(lp65
I43
ag29
aa(lp66
I44
ag18
aa(lp67
I45
ag47
aa(lp68
I46
ag9
aa(lp69
I47
ag39
aa(lp70
I48
ag59
aa(lp71
I49
ag9
aa(lp72
I50
ag18
aa(lp73
I51
ag49
aa(lp74
I52
ag32
aa(lp75
I53
ag24
aa(lp76
I54
aS'u'
p77
aa(lp78
I55
ag32
aa(lp79
I56
ag29
aa(lp80
I57
ag39
aa(lp81
I58
ag59
aa(lp82
I59
aS'g'
p83
aa(lp84
I61
ag9
aa(lp85
I62
ag37
aa(lp86
I63
ag39
aa(lp87
I64
ag32
aa(lp88
I65
ag83
aa(lp89
I66
ag59
aa(lp90
I67
ag14
aa(lp91
I68
ag21
aa(lp92
I69
ag39
aa(lp93
I70
ag59
aa(lp94
I71
ag83
aa(lp95
I72
ag9
aa(lp96
I73
ag32
aa(lp97
I74
ag59
aa(lp98
I75
ag37
aa(lp99
I76
ag9
aa(lp100
I77
ag29
aa(lp101
I78
ag47
aa(lp102
I79
ag18
aa(lp103
I80
ag32
aa(lp104
I81
ag29
aa(lp105
I82
ag39
aa(lp106
I83
ag59
aa(lp107
I84
ag83
aa(lp108
I85
ag9
aa(lp109
I86
ag37
aa(lp110
I87
ag39
aa(lp111
I88
ag21
aa(lp112
I89
ag18
aa(lp113
I90
ag32
aa(lp114
I91
ag21
aa(lp115
I92
ag18
aa(lp116
I93
ag21
aa(lp117
I94
ag9
aa(lp118
I95
ag32
aa(lp119
I96
ag59
aa(lp120
I97
ag37
aa(lp121
I98
ag9
aa(lp122
I99
ag27
aa(lp123
I100
ag14
aa(lp124
I101
ag59
aa(lp125
I102
ag37
aa(lp126
I103
ag39
aa(lp127
I104
ag29
aa(lp128
I105
ag39
aa(lp129
I106
ag14
aa(lp130
I107
ag59
aa(lp131
I108
ag21
aa(lp132
I109
ag9
aa(lp133
I110
ag14
aa(lp134
I111
aS'f'
p135
aa(lp136
I112
ag9
aa(lp137
I113
ag29
aa(lp138
I114
ag12
aa(lp139
I115
ag18
aa(lp140
I116
ag9
aa(lp141
I117
ag21
aa(lp142
I118
ag56
aa(lp143
I119
ag39
aa(lp144
I120
ag59
aa(lp145
I121
ag18
aa(lp146
I123
ag9
aa(lp147
I124
ag16
aa(lp148
I125
ag18
aa(lp149
I126
ag16
aa(lp150
I127
aS'b'
p151
aa(lp152
I128
ag18
aa(lp153
I129
ag47
aa(lp154
I130
ag21
aa(lp155
I131
ag9
aa(lp156
I132
ag14
aa(lp157
I133
ag135
aa(lp158
I134
ag9
aa(lp159
I135
ag24
aa(lp160
I136
ag32
aa(lp161
I137
ag12
aa(lp162
I138
ag18
aa(lp163
I139
aS'y'
p164
aa(lp165
I140
ag9
aa(lp166
I141
ag27
aa(lp167
I142
ag24
aa(lp168
I143
ag39
aa(lp169
I144
ag59
aa(lp170
I145
ag39
aa(lp171
I146
ag27
aa(lp172
I148
ag21
aa(lp173
I149
ag9
aa(lp174
I150
ag21
aa(lp175
I151
ag56
aa(lp176
I152
ag39
aa(lp177
I153
ag59
aa(lp178
I154
ag18
aa(lp179
I155
ag9
aa(lp180
I156
ag27
aa(lp181
I157
ag18
aa(lp182
I158
ag59
aa(lp183
I159
ag29
aa(lp184
I160
ag18
aa(lp185
I161
ag47
aa(lp186
I162
ag9
aa(lp187
I163
aS'w'
p188
aa(lp189
I164
ag14
aa(lp190
I165
ag47
aa(lp191
I166
aS'k'
p192
aa(lp193
I167
ag9
aa(lp194
I168
ag27
aa(lp195
I169
ag24
aa(lp196
I170
ag14
aa(lp197
I171
ag21
aa(lp198
I172
ag18
aa(lp199
I173
ag24
aa(lp200
I174
ag164
aa(lp201
I175
ag9
aa(lp202
I176
ag29
aa(lp203
I177
ag14
aa(lp204
I178
ag83
aa(lp205
I179
ag18
aa(lp206
I180
ag29
aa(lp207
I181
ag12
aa(lp208
I182
ag18
aa(lp209
I183
ag47
aa(lp210
I184
ag9
aa(lp211
I185
ag29
aa(lp212
I186
ag14
aa(lp213
I187
ag9
aa(lp214
I188
ag37
aa(lp215
I189
ag18
aa(lp216
I190
ag49
aa(lp217
I191
ag18
aa(lp218
I192
ag24
aa(lp219
I193
ag14
aa(lp220
I194
ag56
aa(lp221
I195
ag9
aa(lp222
I196
ag39
aa(lp223
I197
ag59
aa(lp224
I198
ag37
aa(lp225
I199
ag39
aa(lp226
I200
ag49
aa(lp227
I201
ag39
aa(lp228
I202
ag37
aa(lp229
I203
ag77
aa(lp230
I204
ag32
aa(lp231
I205
ag24
aa(lp232
I206
ag39
aa(lp233
I207
aS'z'
p234
aa(lp235
I208
ag18
aa(lp236
I209
ag37
aa(lp237
I210
ag9
aa(lp238
I211
ag27
aa(lp239
I212
ag32
aa(lp240
I213
ag47
aa(lp241
I214
ag18
aa(lp242
I215
ag9
aa(lp243
I216
ag56
aa(lp244
I217
ag24
aa(lp245
I218
ag32
aa(lp246
I219
ag59
aa(lp247
I220
ag21
aa(lp248
I221
ag9
aa(lp249
I222
ag135
aa(lp250
I223
ag14
aa(lp251
I224
ag47
aa(lp252
I225
ag9
aa(lp253
I226
ag18
aa(lp254
I227
ag32
aa(lp255
I228
ag27
aa(lp256
I229
ag12
aa(lp257
I230
ag9
aa(lp258
I231
ag56
aa(lp259
I232
ag32
aa(lp260
I233
ag29
aa(lp261
I234
ag39
aa(lp262
I235
ag18
aa(lp263
I236
ag59
aa(lp264
I237
ag29
aa(lp265
I239
ag9
aa(lp266
I240
ag37
aa(lp267
I241
ag18
aa(lp268
I242
ag56
aa(lp269
I243
ag18
aa(lp270
I244
ag59
aa(lp271
I245
ag37
aa(lp272
I246
ag39
aa(lp273
I247
ag59
aa(lp274
I248
ag83
aa(lp275
I249
ag9
aa(lp276
I250
ag14
aa(lp277
I251
ag59
aa(lp278
I252
ag9
aa(lp279
I253
ag29
aa(lp280
I254
ag12
aa(lp281
I255
ag18
aa(lp282
I256
ag39
aa(lp283
I257
ag47
aa(lp284
I258
ag9
aa(lp285
I259
ag77
aa(lp286
I260
ag59
aa(lp287
I261
ag39
aa(lp288
I262
aS'q'
p289
aa(lp290
I263
ag77
aa(lp291
I264
ag18
aa(lp292
I265
ag9
aa(lp293
I266
ag59
aa(lp294
I267
ag18
aa(lp295
I268
ag18
aa(lp296
I269
ag37
aa(lp297
I270
ag21
aa(lp298
I272
ag9
aa(lp299
I273
ag14
aa(lp300
I274
ag77
aa(lp301
I275
ag47
aa(lp302
I276
ag9
aa(lp303
I277
ag16
aa(lp304
I278
ag77
aa(lp305
I279
ag24
aa(lp306
I280
ag29
aa(lp307
I281
ag39
aa(lp308
I282
ag37
aa(lp309
I283
ag39
aa(lp310
I284
ag21
aa(lp311
I285
ag27
aa(lp312
I286
ag39
aa(lp313
I287
ag56
aa(lp314
I288
ag24
aa(lp315
I289
ag39
aa(lp316
I290
ag59
aa(lp317
I291
ag32
aa(lp318
I292
ag47
aa(lp319
I293
ag164
aa(lp320
I294
ag9
aa(lp321
I295
ag29
aa(lp322
I296
ag18
aa(lp323
I297
ag32
aa(lp324
I298
ag16
aa(lp325
I299
ag9
aa(lp326
I300
ag39
aa(lp327
I301
ag59
aa(lp328
I302
ag27
aa(lp329
I303
ag24
aa(lp330
I304
ag77
aa(lp331
I305
ag37
aa(lp332
I306
ag18
aa(lp333
I307
ag21
aa(lp334
I308
ag9
aa(lp335
I309
ag56
aa(lp336
I310
ag12
aa(lp337
I311
ag164
aa(lp338
I312
ag21
aa(lp339
I313
ag39
aa(lp340
I314
ag27
aa(lp341
I315
ag39
aa(lp342
I316
ag32
aa(lp343
I317
ag59
aa(lp344
I318
ag21
aa(lp345
I319
ag9
aa(lp346
I320
ag32
aa(lp347
I321
ag59
aa(lp348
I322
ag37
aa(lp349
I323
ag9
aa(lp350
I324
ag14
aa(lp351
I325
ag29
aa(lp352
I326
ag12
aa(lp353
I327
ag18
aa(lp354
I328
ag47
aa(lp355
I329
ag9
aa(lp356
I330
ag12
aa(lp357
I331
ag18
aa(lp358
I332
ag32
aa(lp359
I333
ag24
aa(lp360
I334
ag29
aa(lp361
I335
ag12
aa(lp362
I336
ag9
aa(lp363
I337
ag27
aa(lp364
I338
ag32
aa(lp365
I339
ag47
aa(lp366
I340
ag18
aa(lp367
I341
ag9
aa(lp368
I342
ag56
aa(lp369
I343
ag47
aa(lp370
I344
ag14
aa(lp371
I345
ag135
aa(lp372
I346
ag18
aa(lp373
I347
ag21
aa(lp374
I348
ag21
aa(lp375
I349
ag39
aa(lp376
I350
ag14
aa(lp377
I351
ag59
aa(lp378
I352
ag32
aa(lp379
I353
ag24
aa(lp380
I354
ag21
aa(lp381
I355
ag9
aa(lp382
I356
ag188
aa(lp383
I357
ag39
aa(lp384
I358
ag29
aa(lp385
I359
ag12
aa(lp386
I360
ag9
aa(lp387
I361
ag151
aa(lp388
I362
ag47
aa(lp389
I363
ag14
aa(lp390
I364
ag32
aa(lp391
I365
ag37
aa(lp392
I366
ag9
aa(lp393
I367
ag18
aa(lp394
I368
aS'x'
p395
aa(lp396
I369
ag56
aa(lp397
I370
ag18
aa(lp398
I371
ag47
aa(lp399
I372
ag29
aa(lp400
I373
ag39
aa(lp401
I374
ag21
aa(lp402
I375
ag18
aa(lp403
I376
ag9
aa(lp404
I377
ag39
aa(lp405
I378
ag59
aa(lp406
I379
ag9
aa(lp407
I380
ag21
aa(lp408
I381
ag56
aa(lp409
I382
ag18
aa(lp410
I383
ag27
aa(lp411
I384
ag39
aa(lp412
I385
ag32
aa(lp413
I386
ag24
aa(lp414
I387
ag29
aa(lp415
I388
ag39
aa(lp416
I389
ag18
aa(lp417
I390
ag21
aa(lp418
I391
ag9
aa(lp419
I392
ag21
aa(lp420
I393
ag77
aa(lp421
I394
ag27
aa(lp422
I395
ag12
aa(lp423
I396
ag9
aa(lp424
I397
ag32
aa(lp425
I398
ag21
aa(lp426
I399
ag9
aa(lp427
I400
ag59
aa(lp428
I401
ag18
aa(lp429
I402
ag77
aa(lp430
I403
ag47
aa(lp431
I404
ag14
aa(lp432
I405
ag21
aa(lp433
I406
ag77
aa(lp434
I407
ag47
aa(lp435
I408
ag83
aa(lp436
I409
ag18
aa(lp437
I410
ag47
aa(lp438
I411
ag164
aa(lp439
I413
ag9
aa(lp440
I414
ag14
aa(lp441
I415
ag47
aa(lp442
I416
ag29
aa(lp443
I417
ag12
aa(lp444
I418
ag14
aa(lp445
I419
ag56
aa(lp446
I420
ag32
aa(lp447
I421
ag18
aa(lp448
I422
ag37
aa(lp449
I423
ag39
aa(lp450
I424
ag27
aa(lp451
I425
ag9
aa(lp452
I426
ag21
aa(lp453
I427
ag77
aa(lp454
I428
ag47
aa(lp455
I429
ag83
aa(lp456
I430
ag18
aa(lp457
I431
ag47
aa(lp458
I432
ag164
aa(lp459
I434
ag9
aa(lp460
I435
ag56
aa(lp461
I436
ag12
aa(lp462
I437
ag164
aa(lp463
I438
ag21
aa(lp464
I439
ag39
aa(lp465
I440
ag32
aa(lp466
I441
ag29
aa(lp467
I442
ag47
aa(lp468
I443
ag164
aa(lp469
I445
ag9
aa(lp470
I446
ag56
aa(lp471
I447
ag12
aa(lp472
I448
ag164
aa(lp473
I449
ag21
aa(lp474
I450
ag39
aa(lp475
I451
ag27
aa(lp476
I452
ag32
aa(lp477
I453
ag24
aa(lp478
I454
ag9
aa(lp479
I455
ag29
aa(lp480
I456
ag12
aa(lp481
I457
ag18
aa(lp482
I458
ag47
aa(lp483
I459
ag32
aa(lp484
I460
ag56
aa(lp485
I461
ag164
aa(lp486
I463
ag9
aa(lp487
I464
ag56
aa(lp488
I465
ag32
aa(lp489
I466
ag39
aa(lp490
I467
ag59
aa(lp491
I468
ag9
aa(lp492
I469
ag16
aa(lp493
I470
ag32
aa(lp494
I471
ag59
aa(lp495
I472
ag32
aa(lp496
I473
ag83
aa(lp497
I474
ag18
aa(lp498
I475
ag16
aa(lp499
I476
ag18
aa(lp500
I477
ag59
aa(lp501
I478
ag29
aa(lp502
I480
ag9
aa(lp503
I481
ag37
aa(lp504
I482
ag39
aa(lp505
I483
ag32
aa(lp506
I484
ag83
aa(lp507
I485
ag59
aa(lp508
I486
ag14
aa(lp509
I487
ag21
aa(lp510
I488
ag29
aa(lp511
I489
ag39
aa(lp512
I490
ag27
aa(lp513
I491
ag9
aa(lp514
I492
ag47
aa(lp515
I493
ag32
aa(lp516
I494
ag37
aa(lp517
I495
ag39
aa(lp518
I496
ag14
aa(lp519
I497
ag24
aa(lp520
I498
ag14
aa(lp521
I499
ag83
aa(lp522
I500
ag164
aa(lp523
I501
ag9
aa(lp524
I502
ag32
aa(lp525
I503
ag59
aa(lp526
I504
ag37
aa(lp527
I505
ag9
aa(lp528
I506
ag39
aa(lp529
I507
ag59
aa(lp530
I508
ag29
aa(lp531
I509
ag18
aa(lp532
I510
ag47
aa(lp533
I511
ag49
aa(lp534
I512
ag18
aa(lp535
I513
ag59
aa(lp536
I514
ag29
aa(lp537
I515
ag39
aa(lp538
I516
ag14
aa(lp539
I517
ag59
aa(lp540
I518
ag32
aa(lp541
I519
ag24
aa(lp542
I520
ag9
aa(lp543
I521
ag59
aa(lp544
I522
ag18
aa(lp545
I523
ag77
aa(lp546
I524
ag47
aa(lp547
I525
ag14
aa(lp548
I526
ag47
aa(lp549
I527
ag32
aa(lp550
I528
ag37
aa(lp551
I529
ag39
aa(lp552
I530
ag14
aa(lp553
I531
ag24
aa(lp554
I532
ag14
aa(lp555
I533
ag83
aa(lp556
I534
ag164
aa(lp557
I536
ag9
aa(lp558
I537
ag37
aa(lp559
I538
ag39
aa(lp560
I539
ag21
aa(lp561
I540
ag18
aa(lp562
I541
ag32
aa(lp563
I542
ag21
aa(lp564
I543
ag18
aa(lp565
I544
ag21
aa(lp566
I545
ag9
aa(lp567
I547
ag9
aa(lp568
I548
ag27
aa(lp569
I549
ag14
aa(lp570
I550
ag59
aa(lp571
I551
ag37
aa(lp572
I552
ag39
aa(lp573
I553
ag29
aa(lp574
I554
ag39
aa(lp575
I555
ag14
aa(lp576
I556
ag59
aa(lp577
I557
ag21
aa(lp578
I558
ag9
aa(lp579
I559
ag29
aa(lp580
I560
ag47
aa(lp581
I561
ag18
aa(lp582
I562
ag32
aa(lp583
I563
ag29
aa(lp584
I564
ag18
aa(lp585
I565
ag37
aa(lp586
I566
ag9
aa(lp587
I567
ag14
aa(lp588
I568
ag77
aa(lp589
I569
ag47
aa(lp590
I570
ag9
aa(lp591
I571
ag29
aa(lp592
I572
ag18
aa(lp593
I573
ag32
aa(lp594
I574
ag16
aa(lp595
I575
ag9
aa(lp596
I576
ag56
aa(lp597
I577
ag18
aa(lp598
I578
ag47
aa(lp599
I579
ag135
aa(lp600
I580
ag14
aa(lp601
I581
ag47
aa(lp602
I582
ag16
aa(lp603
I583
ag21
aa(lp604
I584
ag9
aa(lp605
I585
ag37
aa(lp606
I586
ag18
aa(lp607
I587
ag29
aa(lp608
I588
ag32
aa(lp609
I589
ag39
aa(lp610
I590
ag24
aa(lp611
I591
ag18
aa(lp612
I592
ag37
aa(lp613
I594
ag9
aa(lp614
I595
ag27
aa(lp615
I596
ag14
aa(lp616
I597
ag16
aa(lp617
I598
ag56
aa(lp618
I599
ag47
aa(lp619
I600
ag18
aa(lp620
I601
ag12
aa(lp621
I602
ag18
aa(lp622
I603
ag59
aa(lp623
I604
ag21
aa(lp624
I605
ag39
aa(lp625
I606
ag49
aa(lp626
I607
ag18
aa(lp627
I608
ag9
aa(lp628
I609
ag21
aa(lp629
I610
ag56
aa(lp630
I611
ag39
aa(lp631
I612
ag59
aa(lp632
I613
ag32
aa(lp633
I614
ag24
aa(lp634
I615
ag9
aa(lp635
I616
ag18
aa(lp636
I617
ag49
aa(lp637
I618
ag32
aa(lp638
I619
ag24
aa(lp639
I620
ag77
aa(lp640
I621
ag32
aa(lp641
I622
ag29
aa(lp642
I623
ag39
aa(lp643
I624
ag14
aa(lp644
I625
ag59
aa(lp645
I626
ag21
aa(lp646
I627
ag9
aa(lp647
I628
ag29
aa(lp648
I629
ag14
aa(lp649
I630
ag9
aa(lp650
I631
ag32
aa(lp651
I632
ag27
aa(lp652
I633
ag27
aa(lp653
I634
ag77
aa(lp654
I635
ag47
aa(lp655
I636
ag32
aa(lp656
I637
ag29
aa(lp657
I638
ag18
aa(lp658
I639
ag24
aa(lp659
I640
ag164
aa(lp660
I641
ag9
aa(lp661
I642
ag37
aa(lp662
I643
ag39
aa(lp663
I644
ag32
aa(lp664
I645
ag83
aa(lp665
I646
ag59
aa(lp666
I647
ag14
aa(lp667
I648
ag21
aa(lp668
I649
ag18
aa(lp669
I650
ag9
aa(lp670
I651
ag18
aa(lp671
I652
ag32
aa(lp672
I653
ag27
aa(lp673
I654
ag12
aa(lp674
I655
ag9
aa(lp675
I656
ag56
aa(lp676
I657
ag32
aa(lp677
I658
ag29
aa(lp678
I659
ag39
aa(lp679
I660
ag18
aa(lp680
I661
ag59
aa(lp681
I662
ag29
aa(lp682
I664
ag21
aa(lp683
I665
ag9
aa(lp684
I666
ag27
aa(lp685
I667
ag14
aa(lp686
I668
ag59
aa(lp687
I669
ag37
aa(lp688
I670
ag39
aa(lp689
I671
ag29
aa(lp690
I672
ag39
aa(lp691
I673
ag14
aa(lp692
I674
ag59
aa(lp693
I676
ag9
aa(lp694
I677
ag29
aa(lp695
I678
ag12
aa(lp696
I679
ag39
aa(lp697
I680
ag21
aa(lp698
I681
ag9
aa(lp699
I682
ag37
aa(lp700
I683
ag39
aa(lp701
I684
ag32
aa(lp702
I685
ag83
aa(lp703
I686
ag59
aa(lp704
I687
ag14
aa(lp705
I688
ag21
aa(lp706
I689
ag29
aa(lp707
I690
ag39
aa(lp708
I691
ag27
aa(lp709
I692
ag9
aa(lp710
I693
ag188
aa(lp711
I694
ag14
aa(lp712
I695
ag47
aa(lp713
I696
ag192
aa(lp714
I697
ag77
aa(lp715
I698
ag56
aa(lp716
I699
ag9
aa(lp717
I700
ag16
aa(lp718
I701
ag32
aa(lp719
I702
ag164
aa(lp720
I703
ag9
aa(lp721
I704
ag39
aa(lp722
I705
ag59
aa(lp723
I706
ag27
aa(lp724
I707
ag24
aa(lp725
I708
ag77
aa(lp726
I709
ag37
aa(lp727
I710
ag18
aa(lp728
I711
ag9
aa(lp729
I712
ag56
aa(lp730
I713
ag24
aa(lp731
I714
ag32
aa(lp732
I715
ag39
aa(lp733
I716
ag59
aa(lp734
I717
ag9
aa(lp735
I718
ag395
aa(lp736
I720
ag47
aa(lp737
I721
ag32
aa(lp738
I722
ag164
aa(lp739
I723
ag21
aa(lp740
I724
ag9
aa(lp741
I725
ag32
aa(lp742
I726
ag59
aa(lp743
I727
ag37
aa(lp744
I729
ag14
aa(lp745
I730
ag47
aa(lp746
I731
ag9
aa(lp747
I732
ag32
aa(lp748
I733
ag37
aa(lp749
I734
ag49
aa(lp750
I735
ag32
aa(lp751
I736
ag59
aa(lp752
I737
ag27
aa(lp753
I738
ag18
aa(lp754
I739
ag37
aa(lp755
I740
ag9
aa(lp756
I741
ag39
aa(lp757
I742
ag16
aa(lp758
I743
ag32
aa(lp759
I744
ag83
aa(lp760
I745
ag39
aa(lp761
I746
ag59
aa(lp762
I747
ag83
aa(lp763
I748
ag9
aa(lp764
I749
ag21
aa(lp765
I750
ag29
aa(lp766
I751
ag77
aa(lp767
I752
ag37
aa(lp768
I753
ag39
aa(lp769
I754
ag18
aa(lp770
I755
ag21
aa(lp771
I757
ag9
aa(lp772
I758
ag21
aa(lp773
I759
ag77
aa(lp774
I760
ag27
aa(lp775
I761
ag12
aa(lp776
I762
ag9
aa(lp777
I763
ag32
aa(lp778
I764
ag21
aa(lp779
I765
ag9
aa(lp780
I766
ag27
aa(lp781
I767
ag29
aa(lp782
I768
ag9
aa(lp783
I769
ag14
aa(lp784
I770
ag47
aa(lp785
I771
ag9
aa(lp786
I772
ag16
aa(lp787
I773
ag47
aa(lp788
I774
ag39
aa(lp789
I775
ag9
aa(lp790
I776
ag21
aa(lp791
I777
ag27
aa(lp792
I778
ag32
aa(lp793
I779
ag59
aa(lp794
I780
ag21
aa(lp795
I782
ag9
aa(lp796
I783
ag21
aa(lp797
I784
ag14
aa(lp798
I785
ag16
aa(lp799
I786
ag18
aa(lp800
I787
ag9
aa(lp801
I788
ag14
aa(lp802
I789
ag135
aa(lp803
I790
ag9
aa(lp804
I791
ag29
aa(lp805
I792
ag12
aa(lp806
I793
ag18
aa(lp807
I794
ag9
aa(lp808
I795
ag16
aa(lp809
I796
ag14
aa(lp810
I797
ag47
aa(lp811
I798
ag18
aa(lp812
I799
ag9
aa(lp813
I800
ag27
aa(lp814
I801
ag14
aa(lp815
I802
ag16
aa(lp816
I803
ag16
aa(lp817
I804
ag14
aa(lp818
I805
ag59
aa(lp819
I806
ag9
aa(lp820
I807
ag37
aa(lp821
I808
ag39
aa(lp822
I809
ag21
aa(lp823
I810
ag14
aa(lp824
I811
ag47
aa(lp825
I812
ag37
aa(lp826
I813
ag18
aa(lp827
I814
ag47
aa(lp828
I815
ag21
aa(lp829
I816
ag9
aa(lp830
I817
ag32
aa(lp831
I818
ag59
aa(lp832
I819
ag37
aa(lp833
I820
ag9
aa(lp834
I821
ag27
aa(lp835
I822
ag14
aa(lp836
I823
ag59
aa(lp837
I824
ag37
aa(lp838
I825
ag39
aa(lp839
I826
ag29
aa(lp840
I827
ag39
aa(lp841
I828
ag14
aa(lp842
I829
ag59
aa(lp843
I830
ag21
aa(lp844
I831
ag9
aa(lp845
I832
ag188
aa(lp846
I833
ag18
aa(lp847
I834
ag9
aa(lp848
I835
ag29
aa(lp849
I836
ag47
aa(lp850
I837
ag18
aa(lp851
I838
ag32
aa(lp852
I839
ag29
aa(lp853
I840
ag9
aa(lp854
I841
ag39
aa(lp855
I842
ag59
aa(lp856
I843
ag27
aa(lp857
I844
ag24
aa(lp858
I845
ag77
aa(lp859
I846
ag37
aa(lp860
I847
ag18
aa(lp861
I849
ag9
aa(lp862
I850
ag27
aa(lp863
I851
ag14
aa(lp864
I852
ag59
aa(lp865
I853
ag83
aa(lp866
I854
ag18
aa(lp867
I855
ag59
aa(lp868
I856
ag39
aa(lp869
I857
ag29
aa(lp870
I858
ag32
aa(lp871
I859
ag24
aa(lp872
I860
ag9
aa(lp873
I861
ag21
aa(lp874
I862
ag56
aa(lp875
I863
ag39
aa(lp876
I864
ag59
aa(lp877
I865
ag32
aa(lp878
I866
ag24
aa(lp879
I867
ag9
aa(lp880
I868
ag37
aa(lp881
I869
ag39
aa(lp882
I870
ag21
aa(lp883
I871
ag14
aa(lp884
I872
ag47
aa(lp885
I873
ag37
aa(lp886
I874
ag18
aa(lp887
I875
ag47
aa(lp888
I876
ag21
aasS'text'
p889
S"> > home select a medical service spine center in evaluating, diagnosing and treating diseases and conditions of the spine, members of lahey clinic's spine center work closely together to develop individualized care plans for each patient, depending on their unique needs. our multidisciplinary team includes physicians and other health care professionals with broad expertise in specialties such as neurosurgery, orthopaedic surgery, physiatry, physical therapy, pain management, diagnostic radiology and interventional neuroradiology. diseases & conditions treated our team performs detailed, comprehensive spinal evaluations to accurately diagnose each patient's condition. this diagnostic workup may include plain x-rays and/or advanced imaging studies, such as ct or mri scans. some of the more common disorders and conditions we treat include: congenital spinal disorders"
p890
sS'cleanWordMap'
p891
(lp892
sS'lines'
p893
(lp894
V> > Home Select a Medical Service Spine Center\u000a
p895
aVIn evaluating, diagnosing and treating diseases and conditions of the spine, members of Lahey Clinic's Spine Center work closely together to develop individualized care plans for each patient, depending on their unique needs. Our multidisciplinary team includes physicians and other health care professionals with broad expertise in specialties such as neurosurgery, orthopaedic surgery, physiatry, physical therapy, pain management, diagnostic radiology and interventional neuroradiology.\u000a
p896
aVDiseases & Conditions Treated\u000a
p897
aVOur team performs detailed, comprehensive spinal evaluations to accurately diagnose each patient's condition. This diagnostic workup may include plain X-rays and/or advanced imaging studies, such as CT or MRI scans. Some of the more common disorders and conditions we treat include:\u000a
p898
aVCongenital spinal disorders
p899
asS'docType'
p900
S'src'
p901
sS'newfmap'
p902
(lp903
sS'featureMap'
p904
(lp905
sS'characterMap'
p906
(lp907
(lp908
I0
aS'>'
p909
aag8
a(lp910
I2
ag909
aag10
ag11
ag13
ag15
ag17
ag19
ag20
ag22
ag23
ag25
ag26
ag28
ag30
ag31
ag33
ag34
ag35
ag36
ag38
ag40
ag41
ag42
ag43
ag44
ag45
ag46
ag48
ag50
ag51
ag52
ag53
ag54
ag55
ag57
ag58
ag60
ag61
ag62
ag63
ag64
ag65
ag66
ag67
ag68
ag69
ag70
ag71
ag72
ag73
ag74
ag75
ag76
ag78
ag79
ag80
ag81
ag82
a(lp911
I60
aS','
p912
aag84
ag85
ag86
ag87
ag88
ag89
ag90
ag91
ag92
ag93
ag94
ag95
ag96
ag97
ag98
ag99
ag100
ag101
ag102
ag103
ag104
ag105
ag106
ag107
ag108
ag109
ag110
ag111
ag112
ag113
ag114
ag115
ag116
ag117
ag118
ag119
ag120
ag121
ag122
ag123
ag124
ag125
ag126
ag127
ag128
ag129
ag130
ag131
ag132
ag133
ag134
ag136
ag137
ag138
ag139
ag140
ag141
ag142
ag143
ag144
ag145
a(lp913
I122
ag912
aag146
ag147
ag148
ag149
ag150
ag152
ag153
ag154
ag155
ag156
ag157
ag158
ag159
ag160
ag161
ag162
ag163
ag165
ag166
ag167
ag168
ag169
ag170
ag171
a(lp914
I147
aS"'"
p915
aag172
ag173
ag174
ag175
ag176
ag177
ag178
ag179
ag180
ag181
ag182
ag183
ag184
ag185
ag186
ag187
ag189
ag190
ag191
ag193
ag194
ag195
ag196
ag197
ag198
ag199
ag200
ag201
ag202
ag203
ag204
ag205
ag206
ag207
ag208
ag209
ag210
ag211
ag212
ag213
ag214
ag215
ag216
ag217
ag218
ag219
ag220
ag221
ag222
ag223
ag224
ag225
ag226
ag227
ag228
ag229
ag230
ag231
ag232
ag233
ag235
ag236
ag237
ag238
ag239
ag240
ag241
ag242
ag243
ag244
ag245
ag246
ag247
ag248
ag249
ag250
ag251
ag252
ag253
ag254
ag255
ag256
ag257
ag258
ag259
ag260
ag261
ag262
ag263
ag264
a(lp916
I238
ag912
aag265
ag266
ag267
ag268
ag269
ag270
ag271
ag272
ag273
ag274
ag275
ag276
ag277
ag278
ag279
ag280
ag281
ag282
ag283
ag284
ag285
ag286
ag287
ag288
ag290
ag291
ag292
ag293
ag294
ag295
ag296
ag297
a(lp917
I271
aS'.'
p918
aag298
ag299
ag300
ag301
ag302
ag303
ag304
ag305
ag306
ag307
ag308
ag309
ag310
ag311
ag312
ag313
ag314
ag315
ag316
ag317
ag318
ag319
ag320
ag321
ag322
ag323
ag324
ag325
ag326
ag327
ag328
ag329
ag330
ag331
ag332
ag333
ag334
ag335
ag336
ag337
ag338
ag339
ag340
ag341
ag342
ag343
ag344
ag345
ag346
ag347
ag348
ag349
ag350
ag351
ag352
ag353
ag354
ag355
ag356
ag357
ag358
ag359
ag360
ag361
ag362
ag363
ag364
ag365
ag366
ag367
ag368
ag369
ag370
ag371
ag372
ag373
ag374
ag375
ag376
ag377
ag378
ag379
ag380
ag381
ag382
ag383
ag384
ag385
ag386
ag387
ag388
ag389
ag390
ag391
ag392
ag393
ag394
ag396
ag397
ag398
ag399
ag400
ag401
ag402
ag403
ag404
ag405
ag406
ag407
ag408
ag409
ag410
ag411
ag412
ag413
ag414
ag415
ag416
ag417
ag418
ag419
ag420
ag421
ag422
ag423
ag424
ag425
ag426
ag427
ag428
ag429
ag430
ag431
ag432
ag433
ag434
ag435
ag436
ag437
ag438
a(lp919
I412
ag912
aag439
ag440
ag441
ag442
ag443
ag444
ag445
ag446
ag447
ag448
ag449
ag450
ag451
ag452
ag453
ag454
ag455
ag456
ag457
ag458
a(lp920
I433
ag912
aag459
ag460
ag461
ag462
ag463
ag464
ag465
ag466
ag467
ag468
a(lp921
I444
ag912
aag469
ag470
ag471
ag472
ag473
ag474
ag475
ag476
ag477
ag478
ag479
ag480
ag481
ag482
ag483
ag484
ag485
a(lp922
I462
ag912
aag486
ag487
ag488
ag489
ag490
ag491
ag492
ag493
ag494
ag495
ag496
ag497
ag498
ag499
ag500
ag501
a(lp923
I479
ag912
aag502
ag503
ag504
ag505
ag506
ag507
ag508
ag509
ag510
ag511
ag512
ag513
ag514
ag515
ag516
ag517
ag518
ag519
ag520
ag521
ag522
ag523
ag524
ag525
ag526
ag527
ag528
ag529
ag530
ag531
ag532
ag533
ag534
ag535
ag536
ag537
ag538
ag539
ag540
ag541
ag542
ag543
ag544
ag545
ag546
ag547
ag548
ag549
ag550
ag551
ag552
ag553
ag554
ag555
ag556
a(lp924
I535
ag918
aag557
ag558
ag559
ag560
ag561
ag562
ag563
ag564
ag565
ag566
a(lp925
I546
aS'&'
p926
aag567
ag568
ag569
ag570
ag571
ag572
ag573
ag574
ag575
ag576
ag577
ag578
ag579
ag580
ag581
ag582
ag583
ag584
ag585
ag586
ag587
ag588
ag589
ag590
ag591
ag592
ag593
ag594
ag595
ag596
ag597
ag598
ag599
ag600
ag601
ag602
ag603
ag604
ag605
ag606
ag607
ag608
ag609
ag610
ag611
ag612
a(lp927
I593
ag912
aag613
ag614
ag615
ag616
ag617
ag618
ag619
ag620
ag621
ag622
ag623
ag624
ag625
ag626
ag627
ag628
ag629
ag630
ag631
ag632
ag633
ag634
ag635
ag636
ag637
ag638
ag639
ag640
ag641
ag642
ag643
ag644
ag645
ag646
ag647
ag648
ag649
ag650
ag651
ag652
ag653
ag654
ag655
ag656
ag657
ag658
ag659
ag660
ag661
ag662
ag663
ag664
ag665
ag666
ag667
ag668
ag669
ag670
ag671
ag672
ag673
ag674
ag675
ag676
ag677
ag678
ag679
ag680
ag681
a(lp928
I663
ag915
aag682
ag683
ag684
ag685
ag686
ag687
ag688
ag689
ag690
ag691
ag692
a(lp929
I675
ag918
aag693
ag694
ag695
ag696
ag697
ag698
ag699
ag700
ag701
ag702
ag703
ag704
ag705
ag706
ag707
ag708
ag709
ag710
ag711
ag712
ag713
ag714
ag715
ag716
ag717
ag718
ag719
ag720
ag721
ag722
ag723
ag724
ag725
ag726
ag727
ag728
ag729
ag730
ag731
ag732
ag733
ag734
ag735
a(lp930
I719
aS'-'
p931
aag736
ag737
ag738
ag739
ag740
ag741
ag742
ag743
a(lp932
I728
aS'/'
p933
aag744
ag745
ag746
ag747
ag748
ag749
ag750
ag751
ag752
ag753
ag754
ag755
ag756
ag757
ag758
ag759
ag760
ag761
ag762
ag763
ag764
ag765
ag766
ag767
ag768
ag769
ag770
a(lp934
I756
ag912
aag771
ag772
ag773
ag774
ag775
ag776
ag777
ag778
ag779
ag780
ag781
ag782
ag783
ag784
ag785
ag786
ag787
ag788
ag789
ag790
ag791
ag792
ag793
ag794
a(lp935
I781
ag918
aag795
ag796
ag797
ag798
ag799
ag800
ag801
ag802
ag803
ag804
ag805
ag806
ag807
ag808
ag809
ag810
ag811
ag812
ag813
ag814
ag815
ag816
ag817
ag818
ag819
ag820
ag821
ag822
ag823
ag824
ag825
ag826
ag827
ag828
ag829
ag830
ag831
ag832
ag833
ag834
ag835
ag836
ag837
ag838
ag839
ag840
ag841
ag842
ag843
ag844
ag845
ag846
ag847
ag848
ag849
ag850
ag851
ag852
ag853
ag854
ag855
ag856
ag857
ag858
ag859
ag860
a(lp936
I848
aS':'
p937
aag861
ag862
ag863
ag864
ag865
ag866
ag867
ag868
ag869
ag870
ag871
ag872
ag873
ag874
ag875
ag876
ag877
ag878
ag879
ag880
ag881
ag882
ag883
ag884
ag885
ag886
ag887
ag888
asS'docName'
p938
S'source-document00645.txt'
p939
sb.