(iModel.Document
Document
p0
(dp1
S'fmap'
p2
(lp3
(lp4
I0
aI3
aS'like'
p5
a(lp6
S'*'
p7
ag5
aaa(lp8
I0
aI3
ag5
a(lp9
g7
ag5
aaa(lp10
I0
aI3
ag5
a(lp11
g7
ag5
aaa(lp12
I0
aI3
ag5
a(lp13
g7
ag5
aaa(lp14
I9
aI11
aS'new'
p15
a(lp16
g5
ag15
aaa(lp17
I9
aI11
ag15
a(lp18
g7
ag15
aaa(lp19
I9
aI11
ag15
a(lp20
g7
ag15
aaa(lp21
I9
aI11
ag15
a(lp22
g7
ag15
aaa(lp23
I13
aI16
aS'look'
p24
a(lp25
g15
ag24
aaa(lp26
I13
aI16
ag24
a(lp27
g5
ag24
aaa(lp28
I13
aI16
ag24
a(lp29
g7
ag24
aaa(lp30
I13
aI16
ag24
a(lp31
g7
ag24
aaa(lp32
I22
aI25
aS'wish'
p33
a(lp34
g24
ag33
aaa(lp35
I22
aI25
ag33
a(lp36
g15
ag33
aaa(lp37
I22
aI25
ag33
a(lp38
g5
ag33
aaa(lp39
I22
aI25
ag33
a(lp40
g7
ag33
aaa(lp41
I30
aI34
aS'stuff'
p42
a(lp43
g33
ag42
aaa(lp44
I30
aI34
ag42
a(lp45
g24
ag42
aaa(lp46
I30
aI34
ag42
a(lp47
g15
ag42
aaa(lp48
I30
aI34
ag42
a(lp49
g5
ag42
aaa(lp50
I36
aI40
aS'comes'
p51
a(lp52
g42
ag51
aaa(lp53
I36
aI40
ag51
a(lp54
g33
ag51
aaa(lp55
I36
aI40
ag51
a(lp56
g24
ag51
aaa(lp57
I36
aI40
ag51
a(lp58
g15
ag51
aaa(lp59
I42
aI45
aS'back'
p60
a(lp61
g51
ag60
aaa(lp62
I42
aI45
ag60
a(lp63
g42
ag60
aaa(lp64
I42
aI45
ag60
a(lp65
g33
ag60
aaa(lp66
I42
aI45
ag60
a(lp67
g24
ag60
aaa(lp68
I47
aI50
aS'nara'
p69
a(lp70
g60
ag69
aaa(lp71
I47
aI50
ag69
a(lp72
g51
ag69
aaa(lp73
I47
aI50
ag69
a(lp74
g42
ag69
aaa(lp75
I47
aI50
ag69
a(lp76
g33
ag69
aaa(lp77
I54
aI57
aS'love'
p78
a(lp79
g69
ag78
aaa(lp80
I54
aI57
ag78
a(lp81
g60
ag78
aaa(lp82
I54
aI57
ag78
a(lp83
g51
ag78
aaa(lp84
I54
aI57
ag78
a(lp85
g42
ag78
aaa(lp86
I63
aI65
aS'new'
p87
a(lp88
g78
ag87
aaa(lp89
I63
aI65
ag87
a(lp90
g69
ag87
aaa(lp91
I63
aI65
ag87
a(lp92
g60
ag87
aaa(lp93
I63
aI65
ag87
a(lp94
g51
ag87
aaa(lp95
I67
aI70
aS'look'
p96
a(lp97
g87
ag96
aaa(lp98
I67
aI70
ag96
a(lp99
g78
ag96
aaa(lp100
I67
aI70
ag96
a(lp101
g69
ag96
aaa(lp102
I67
aI70
ag96
a(lp103
g60
ag96
aaa(lp104
I72
aI78
aS'dorthea'
p105
a(lp106
g96
ag105
aaa(lp107
I72
aI78
ag105
a(lp108
g87
ag105
aaa(lp109
I72
aI78
ag105
a(lp110
g78
ag105
aaa(lp111
I72
aI78
ag105
a(lp112
g69
ag105
aaa(lp113
I82
aI86
aS'reply'
p114
a(lp115
g105
ag114
aaa(lp116
I82
aI86
ag114
a(lp117
g96
ag114
aaa(lp118
I82
aI86
ag114
a(lp119
g87
ag114
aaa(lp120
I82
aI86
ag114
a(lp121
g78
ag114
aaa(lp122
I88
aI92
aS'quote'
p123
a(lp124
g114
ag123
aaa(lp125
I88
aI92
ag123
a(lp126
g105
ag123
aaa(lp127
I88
aI92
ag123
a(lp128
g96
ag123
aaa(lp129
I88
aI92
ag123
a(lp130
g87
ag123
aaa(lp131
I99
aI105
aS'website'
p132
a(lp133
g123
ag132
aaa(lp134
I99
aI105
ag132
a(lp135
g114
ag132
aaa(lp136
I99
aI105
ag132
a(lp137
g105
ag132
aaa(lp138
I99
aI105
ag132
a(lp139
g96
ag132
aaa(lp140
I113
aI115
aS'far'
p141
a(lp142
g132
ag141
aaa(lp143
I113
aI115
ag141
a(lp144
g123
ag141
aaa(lp145
I113
aI115
ag141
a(lp146
g114
ag141
aaa(lp147
I113
aI115
ag141
a(lp148
g105
ag141
aaa(lp149
I121
aI124
aS'best'
p150
a(lp151
g141
ag150
aaa(lp152
I121
aI124
ag150
a(lp153
g132
ag150
aaa(lp154
I121
aI124
ag150
a(lp155
g123
ag150
aaa(lp156
I121
aI124
ag150
a(lp157
g114
ag150
aaa(lp158
I126
aI128
aS'one'
p159
a(lp160
g150
ag159
aaa(lp161
I126
aI128
ag159
a(lp162
g141
ag159
aaa(lp163
I126
aI128
ag159
a(lp164
g132
ag159
aaa(lp165
I126
aI128
ag159
a(lp166
g123
ag159
aaa(lp167
I133
aI137
aS'watch'
p168
a(lp169
g159
ag168
aaa(lp170
I133
aI137
ag168
a(lp171
g150
ag168
aaa(lp172
I133
aI137
ag168
a(lp173
g141
ag168
aaa(lp174
I133
aI137
ag168
a(lp175
g132
ag168
aaa(lp176
I139
aI140
aS'tv'
p177
a(lp178
g168
ag177
aaa(lp179
I139
aI140
ag177
a(lp180
g159
ag177
aaa(lp181
I139
aI140
ag177
a(lp182
g150
ag177
aaa(lp183
I139
aI140
ag177
a(lp184
g141
ag177
aaa(lp185
I142
aI146
aS'shows'
p186
a(lp187
g177
ag186
aaa(lp188
I142
aI146
ag186
a(lp189
g168
ag186
aaa(lp190
I142
aI146
ag186
a(lp191
g159
ag186
aaa(lp192
I142
aI146
ag186
a(lp193
g150
ag186
aaa(lp194
I166
aI169
aS'ones'
p195
a(lp196
g186
ag195
aaa(lp197
I166
aI169
ag195
a(lp198
g177
ag195
aaa(lp199
I166
aI169
ag195
a(lp200
g168
ag195
aaa(lp201
I166
aI169
ag195
a(lp202
g159
ag195
aaa(lp203
I176
aI183
aS'problems'
p204
a(lp205
g195
ag204
aaa(lp206
I176
aI183
ag204
a(lp207
g186
ag204
aaa(lp208
I176
aI183
ag204
a(lp209
g177
ag204
aaa(lp210
I176
aI183
ag204
a(lp211
g168
ag204
aaa(lp212
I185
aI191
aS'loading'
p213
a(lp214
g204
ag213
aaa(lp215
I185
aI191
ag213
a(lp216
g195
ag213
aaa(lp217
I185
aI191
ag213
a(lp218
g186
ag213
aaa(lp219
I185
aI191
ag213
a(lp220
g177
ag213
aaa(lp221
I208
aI210
aS'pay'
p222
a(lp223
g213
ag222
aaa(lp224
I208
aI210
ag222
a(lp225
g204
ag222
aaa(lp226
I208
aI210
ag222
a(lp227
g195
ag222
aaa(lp228
I208
aI210
ag222
a(lp229
g186
ag222
aaa(lp230
I229
aI230
aS'bs'
p231
a(lp232
g222
ag231
aaa(lp233
I229
aI230
ag231
a(lp234
g213
ag231
aaa(lp235
I229
aI230
ag231
a(lp236
g204
ag231
aaa(lp237
I229
aI230
ag231
a(lp238
g195
ag231
aaa(lp239
I232
aI236
aS'sites'
p240
a(lp241
g231
ag240
aaa(lp242
I232
aI236
ag240
a(lp243
g222
ag240
aaa(lp244
I232
aI236
ag240
a(lp245
g213
ag240
aaa(lp246
I232
aI236
ag240
a(lp247
g204
ag240
aaa(lp248
I241
aI246
aS'really'
p249
a(lp250
g240
ag249
aaa(lp251
I241
aI246
ag249
a(lp252
g231
ag249
aaa(lp253
I241
aI246
ag249
a(lp254
g222
ag249
aaa(lp255
I241
aI246
ag249
a(lp256
g213
ag249
aaa(lp257
I248
aI251
aS'love'
p258
a(lp259
g249
ag258
aaa(lp260
I248
aI251
ag258
a(lp261
g240
ag258
aaa(lp262
I248
aI251
ag258
a(lp263
g231
ag258
aaa(lp264
I248
aI251
ag258
a(lp265
g222
ag258
aaa(lp266
I258
aI261
aS'site'
p267
a(lp268
g258
ag267
aaa(lp269
I258
aI261
ag267
a(lp270
g249
ag267
aaa(lp271
I258
aI261
ag267
a(lp272
g240
ag267
aaa(lp273
I258
aI261
ag267
a(lp274
g231
ag267
aaa(lp275
I264
aI268
aS'great'
p276
a(lp277
g267
ag276
aaa(lp278
I264
aI268
ag276
a(lp279
g258
ag276
aaa(lp280
I264
aI268
ag276
a(lp281
g249
ag276
aaa(lp282
I264
aI268
ag276
a(lp283
g240
ag276
aaa(lp284
I270
aI272
aS'job'
p285
a(lp286
g276
ag285
aaa(lp287
I270
aI272
ag285
a(lp288
g267
ag285
aaa(lp289
I270
aI272
ag285
a(lp290
g258
ag285
aaa(lp291
I270
aI272
ag285
a(lp292
g249
ag285
aaa(lp293
I277
aI280
aS'hope'
p294
a(lp295
g285
ag294
aaa(lp296
I277
aI280
ag294
a(lp297
g276
ag294
aaa(lp298
I277
aI280
ag294
a(lp299
g267
ag294
aaa(lp300
I277
aI280
ag294
a(lp301
g258
ag294
aaa(lp302
I286
aI289
aS'guys'
p303
a(lp304
g294
ag303
aaa(lp305
I286
aI289
ag303
a(lp306
g285
ag303
aaa(lp307
I286
aI289
ag303
a(lp308
g276
ag303
aaa(lp309
I286
aI289
ag303
a(lp310
g267
ag303
aaa(lp311
I291
aI294
aS'keep'
p312
a(lp313
g303
ag312
aaa(lp314
I291
aI294
ag312
a(lp315
g294
ag312
aaa(lp316
I291
aI294
ag312
a(lp317
g285
ag312
aaa(lp318
I291
aI294
ag312
a(lp319
g276
ag312
aaa(lp320
I319
aI322
aS'much'
p321
a(lp322
g312
ag321
aaa(lp323
I319
aI322
ag321
a(lp324
g303
ag321
aaa(lp325
I319
aI322
ag321
a(lp326
g294
ag321
aaa(lp327
I319
aI322
ag321
a(lp328
g285
ag321
aaa(lp329
I324
aI327
aS'love'
p330
a(lp331
g321
ag330
aaa(lp332
I324
aI327
ag330
a(lp333
g312
ag330
aaa(lp334
I324
aI327
ag330
a(lp335
g303
ag330
aaa(lp336
I324
aI327
ag330
a(lp337
g294
ag330
aaa(lp338
I329
aI334
aS'nicole'
p339
a(lp340
g330
ag339
aaa(lp341
I329
aI334
ag339
a(lp342
g321
ag339
aaa(lp343
I329
aI334
ag339
a(lp344
g312
ag339
aaa(lp345
I329
aI334
ag339
a(lp346
g303
ag339
aaa(lp347
I338
aI342
aS'reply'
p348
a(lp349
g339
ag348
aaa(lp350
I338
aI342
ag348
a(lp351
g330
ag348
aaa(lp352
I338
aI342
ag348
a(lp353
g321
ag348
aaa(lp354
I338
aI342
ag348
a(lp355
g312
ag348
aaa(lp356
I344
aI348
aS'quote'
p357
a(lp358
g348
ag357
aaa(lp359
I344
aI348
ag357
a(lp360
g339
ag357
aaa(lp361
I344
aI348
ag357
a(lp362
g330
ag357
aaa(lp363
I344
aI348
ag357
a(lp364
g321
ag357
aaa(lp365
I352
aI354
aS'luv'
p366
a(lp367
g357
ag366
aaa(lp368
I352
aI354
ag366
a(lp369
g348
ag366
aaa(lp370
I352
aI354
ag366
a(lp371
g339
ag366
aaa(lp372
I352
aI354
ag366
a(lp373
g330
ag366
aaa(lp374
I361
aI370
aS'website\xe2\x80\xa6'
p375
a(lp376
g366
ag375
aaa(lp377
I361
aI370
ag375
a(lp378
g357
ag375
aaa(lp379
I361
aI370
ag375
a(lp380
g348
ag375
aaa(lp381
I361
aI370
ag375
a(lp382
g339
ag375
aaa(lp383
I380
aI386
aS'problem'
p384
a(lp385
g375
ag384
aaa(lp386
I380
aI386
ag384
a(lp387
g366
ag384
aaa(lp388
I380
aI386
ag384
a(lp389
g357
ag384
aaa(lp390
I380
aI386
ag384
a(lp391
g348
ag384
aaa(lp392
I396
aI401
aS'theres'
p393
a(lp394
g384
ag393
aaa(lp395
I396
aI401
ag393
a(lp396
g375
ag393
aaa(lp397
I396
aI401
ag393
a(lp398
g366
ag393
aaa(lp399
I396
aI401
ag393
a(lp400
g357
ag393
aaa(lp401
I406
aI410
aS'serch'
p402
a(lp403
g393
ag402
aaa(lp404
I406
aI410
ag402
a(lp405
g384
ag402
aaa(lp406
I406
aI410
ag402
a(lp407
g375
ag402
aaa(lp408
I406
aI410
ag402
a(lp409
g366
ag402
aaa(lp410
I412
aI417
aS'engine'
p411
a(lp412
g402
ag411
aaa(lp413
I412
aI417
ag411
a(lp414
g393
ag411
aaa(lp415
I412
aI417
ag411
a(lp416
g384
ag411
aaa(lp417
I412
aI417
ag411
a(lp418
g375
ag411
aaa(lp419
I422
aI427
aS'it\xe2\x80\x99s'
p420
a(lp421
g411
ag420
aaa(lp422
I422
aI427
ag420
a(lp423
g402
ag420
aaa(lp424
I422
aI427
ag420
a(lp425
g393
ag420
aaa(lp426
I422
aI427
ag420
a(lp427
g384
ag420
aaa(lp428
I429
aI434
aS'really'
p429
a(lp430
g420
ag429
aaa(lp431
I429
aI434
ag429
a(lp432
g411
ag429
aaa(lp433
I429
aI434
ag429
a(lp434
g402
ag429
aaa(lp435
I429
aI434
ag429
a(lp436
g393
ag429
aaa(lp437
I436
aI443
aS'annoying'
p438
a(lp439
g429
ag438
aaa(lp440
I436
aI443
ag438
a(lp441
g420
ag438
aaa(lp442
I436
aI443
ag438
a(lp443
g411
ag438
aaa(lp444
I436
aI443
ag438
a(lp445
g402
ag438
aaa(lp446
I445
aI447
aS'cuz'
p447
a(lp448
g438
ag447
aaa(lp449
I445
aI447
ag447
a(lp450
g429
ag447
aaa(lp451
I445
aI447
ag447
a(lp452
g420
ag447
aaa(lp453
I445
aI447
ag447
a(lp454
g411
ag447
aaa(lp455
I451
aI457
aS'can\xe2\x80\x99t'
p456
a(lp457
g447
ag456
aaa(lp458
I451
aI457
ag456
a(lp459
g438
ag456
aaa(lp460
I451
aI457
ag456
a(lp461
g429
ag456
aaa(lp462
I451
aI457
ag456
a(lp463
g420
ag456
aaa(lp464
I459
aI462
aS'find'
p465
a(lp466
g456
ag465
aaa(lp467
I459
aI462
ag465
a(lp468
g447
ag465
aaa(lp469
I459
aI462
ag465
a(lp470
g438
ag465
aaa(lp471
I459
aI462
ag465
a(lp472
g429
ag465
aaa(lp473
I472
aI476
aS'shows'
p474
a(lp475
g465
ag474
aaa(lp476
I472
aI476
ag474
a(lp477
g456
ag474
aaa(lp478
I472
aI476
ag474
a(lp479
g447
ag474
aaa(lp480
I472
aI476
ag474
a(lp481
g438
ag474
aaa(lp482
I486
aI489
aS'site'
p483
a(lp484
g474
ag483
aaa(lp485
I486
aI489
ag483
a(lp486
g465
ag483
aaa(lp487
I486
aI489
ag483
a(lp488
g456
ag483
aaa(lp489
I486
aI489
ag483
a(lp490
g447
ag483
aaa(lp491
I504
aI507
aS'ugly'
p492
a(lp493
g483
ag492
aaa(lp494
I504
aI507
ag492
a(lp495
g474
ag492
aaa(lp496
I504
aI507
ag492
a(lp497
g465
ag492
aaa(lp498
I504
aI507
ag492
a(lp499
g456
ag492
aaa(lp500
I509
aI513
aS'betty'
p501
a(lp502
g492
ag501
aaa(lp503
I509
aI513
ag501
a(lp504
g483
ag501
aaa(lp505
I509
aI513
ag501
a(lp506
g474
ag501
aaa(lp507
I509
aI513
ag501
a(lp508
g465
ag501
aaa(lp509
I518
aI527
aS'trackbacks'
p510
a(lp511
g501
ag510
aaa(lp512
I518
aI527
ag510
a(lp513
g492
ag510
aaa(lp514
I518
aI527
ag510
a(lp515
g483
ag510
aaa(lp516
I518
aI527
ag510
a(lp517
g474
ag510
aaa(lp518
I529
aI531
aS'yet'
p519
a(lp520
g510
ag519
aaa(lp521
I529
aI531
ag519
a(lp522
g501
ag519
aaa(lp523
I529
aI531
ag519
a(lp524
g492
ag519
aaa(lp525
I529
aI531
ag519
a(lp526
g483
ag519
aaa(lp527
I534
aI539
aS'email'
p528
a(lp529
g519
ag528
aaa(lp530
I534
aI539
ag528
a(lp531
g510
ag528
aaa(lp532
I534
aI539
ag528
a(lp533
g501
ag528
aaa(lp534
I534
aI539
ag528
a(lp535
g492
ag528
aaa(lp536
I554
aI562
aS'published'
p537
a(lp538
g528
ag537
aaa(lp539
I554
aI562
ag537
a(lp540
g519
ag537
aaa(lp541
I554
aI562
ag537
a(lp542
g510
ag537
aaa(lp543
I554
aI562
ag537
a(lp544
g501
ag537
aaa(lp545
I566
aI573
aS'required'
p546
a(lp547
g537
ag546
aaa(lp548
I566
aI573
ag546
a(lp549
g528
ag546
aaa(lp550
I566
aI573
ag546
a(lp551
g519
ag546
aaa(lp552
I566
aI573
ag546
a(lp553
g510
ag546
aaa(lp554
I576
aI582
aS'website'
p555
a(lp556
g546
ag555
aaa(lp557
I576
aI582
ag555
a(lp558
g537
ag555
aaa(lp559
I576
aI582
ag555
a(lp560
g528
ag555
aaa(lp561
I576
aI582
ag555
a(lp562
g519
ag555
aaa(lp563
I584
aI589
aS'notify'
p564
a(lp565
g555
ag564
aaa(lp566
I584
aI589
ag564
a(lp567
g546
ag564
aaa(lp568
I584
aI589
ag564
a(lp569
g537
ag564
aaa(lp570
I584
aI589
ag564
a(lp571
g528
ag564
aaa(lp572
I597
aI604
aS'followup'
p573
a(lp574
g564
ag573
aaa(lp575
I597
aI604
ag573
a(lp576
g555
ag573
aaa(lp577
I597
aI604
ag573
a(lp578
g546
ag573
aaa(lp579
I597
aI604
ag573
a(lp580
g537
ag573
aaa(lp581
I606
aI613
aS'comments'
p582
a(lp583
g573
ag582
aaa(lp584
I606
aI613
ag582
a(lp585
g564
ag582
aaa(lp586
I606
aI613
ag582
a(lp587
g555
ag582
aaa(lp588
I606
aI613
ag582
a(lp589
g546
ag582
aaa(lp590
I615
aI617
aS'via'
p591
a(lp592
g582
ag591
aaa(lp593
I615
aI617
ag591
a(lp594
g573
ag591
aaa(lp595
I615
aI617
ag591
a(lp596
g564
ag591
aaa(lp597
I615
aI617
ag591
a(lp598
g555
ag591
aaa(lp599
I619
aI624
aS'email'
p600
a(lp601
g591
ag600
aaa(lp602
I619
aI624
ag600
a(lp603
g582
ag600
aaa(lp604
I619
aI624
ag600
a(lp605
g573
ag600
aaa(lp606
I619
aI624
ag600
a(lp607
g564
ag600
aaa(lp608
I626
aI634
aS'subscribe'
p609
a(lp610
g600
ag609
aaa(lp611
I626
aI634
ag609
a(lp612
g591
ag609
aaa(lp613
I626
aI634
ag609
a(lp614
g582
ag609
aaa(lp615
I626
aI634
ag609
a(lp616
g573
ag609
aaa(lp617
I636
aI637
aS'rss'
p618
a(lp619
g609
ag618
aaa(lp620
I636
aI637
ag618
a(lp621
g600
ag618
aaa(lp622
I636
aI637
ag618
a(lp623
g591
ag618
aaa(lp624
I636
aI637
ag618
a(lp625
g582
ag618
aaasS'wordMap'
p626
(lp627
(lp628
I0
aI3
ag5
a(lp629
(lp630
I0
aS'l'
p631
aa(lp632
I1
aS'i'
p633
aa(lp634
I2
aS'k'
p635
aa(lp636
I3
aS'e'
p637
aaaa(lp638
I5
aI7
aS'the'
p639
a(lp640
(lp641
I5
aS't'
p642
aa(lp643
I6
aS'h'
p644
aa(lp645
I7
ag637
aaaa(lp646
I9
aI11
ag15
a(lp647
(lp648
I9
aS'n'
p649
aa(lp650
I10
ag637
aa(lp651
I11
aS'w'
p652
aaaa(lp653
I13
aI16
ag24
a(lp654
(lp655
I13
ag631
aa(lp656
I14
aS'o'
p657
aa(lp658
I15
ag657
aa(lp659
I16
ag635
aaaa(lp660
I18
aI20
aS'but'
p661
a(lp662
(lp663
I18
aS'b'
p664
aa(lp665
I19
aS'u'
p666
aa(lp667
I20
ag642
aaaa(lp668
I22
aI25
ag33
a(lp669
(lp670
I22
ag652
aa(lp671
I23
ag633
aa(lp672
I24
aS's'
p673
aa(lp674
I25
ag644
aaaa(lp675
I27
aI28
aS'it'
p676
a(lp677
(lp678
I27
ag633
aa(lp679
I28
ag642
aaaa(lp680
I30
aI34
ag42
a(lp681
(lp682
I30
ag673
aa(lp683
I31
ag642
aa(lp684
I32
ag666
aa(lp685
I33
aS'f'
p686
aa(lp687
I34
ag686
aaaa(lp688
I36
aI40
ag51
a(lp689
(lp690
I36
aS'c'
p691
aa(lp692
I37
ag657
aa(lp693
I38
aS'm'
p694
aa(lp695
I39
ag637
aa(lp696
I40
ag673
aaaa(lp697
I42
aI45
ag60
a(lp698
(lp699
I42
ag664
aa(lp700
I43
aS'a'
p701
aa(lp702
I44
ag691
aa(lp703
I45
ag635
aaaa(lp704
I47
aI50
ag69
a(lp705
(lp706
I47
ag649
aa(lp707
I48
ag701
aa(lp708
I49
aS'r'
p709
aa(lp710
I50
ag701
aaaa(lp711
I52
aI52
ag633
a(lp712
(lp713
I52
ag633
aaaa(lp714
I54
aI57
ag78
a(lp715
(lp716
I54
ag631
aa(lp717
I55
ag657
aa(lp718
I56
aS'v'
p719
aa(lp720
I57
ag637
aaaa(lp721
I59
aI61
aS'the'
p722
a(lp723
(lp724
I59
ag642
aa(lp725
I60
ag644
aa(lp726
I61
ag637
aaaa(lp727
I63
aI65
ag87
a(lp728
(lp729
I63
ag649
aa(lp730
I64
ag637
aa(lp731
I65
ag652
aaaa(lp732
I67
aI70
ag96
a(lp733
(lp734
I67
ag631
aa(lp735
I68
ag657
aa(lp736
I69
ag657
aa(lp737
I70
ag635
aaaa(lp738
I72
aI78
ag105
a(lp739
(lp740
I72
aS'd'
p741
aa(lp742
I73
ag657
aa(lp743
I74
ag709
aa(lp744
I75
ag642
aa(lp745
I76
ag644
aa(lp746
I77
ag637
aa(lp747
I78
ag701
aaaa(lp748
I82
aI86
ag114
a(lp749
(lp750
I82
ag709
aa(lp751
I83
ag637
aa(lp752
I84
aS'p'
p753
aa(lp754
I85
ag631
aa(lp755
I86
aS'y'
p756
aaaa(lp757
I88
aI92
ag123
a(lp758
(lp759
I88
aS'q'
p760
aa(lp761
I89
ag666
aa(lp762
I90
ag657
aa(lp763
I91
ag642
aa(lp764
I92
ag637
aaaa(lp765
I94
aI97
aS'this'
p766
a(lp767
(lp768
I94
ag642
aa(lp769
I95
ag644
aa(lp770
I96
ag633
aa(lp771
I97
ag673
aaaa(lp772
I99
aI105
ag132
a(lp773
(lp774
I99
ag652
aa(lp775
I100
ag637
aa(lp776
I101
ag664
aa(lp777
I102
ag673
aa(lp778
I103
ag633
aa(lp779
I104
ag642
aa(lp780
I105
ag637
aaaa(lp781
I107
aI108
aS'is'
p782
a(lp783
(lp784
I107
ag633
aa(lp785
I108
ag673
aaaa(lp786
I110
aI111
aS'by'
p787
a(lp788
(lp789
I110
ag664
aa(lp790
I111
ag756
aaaa(lp791
I113
aI115
ag141
a(lp792
(lp793
I113
ag686
aa(lp794
I114
ag701
aa(lp795
I115
ag709
aaaa(lp796
I117
aI119
aS'the'
p797
a(lp798
(lp799
I117
ag642
aa(lp800
I118
ag644
aa(lp801
I119
ag637
aaaa(lp802
I121
aI124
ag150
a(lp803
(lp804
I121
ag664
aa(lp805
I122
ag637
aa(lp806
I123
ag673
aa(lp807
I124
ag642
aaaa(lp808
I126
aI128
ag159
a(lp809
(lp810
I126
ag657
aa(lp811
I127
ag649
aa(lp812
I128
ag637
aaaa(lp813
I130
aI131
aS'to'
p814
a(lp815
(lp816
I130
ag642
aa(lp817
I131
ag657
aaaa(lp818
I133
aI137
ag168
a(lp819
(lp820
I133
ag652
aa(lp821
I134
ag701
aa(lp822
I135
ag642
aa(lp823
I136
ag691
aa(lp824
I137
ag644
aaaa(lp825
I139
aI140
ag177
a(lp826
(lp827
I139
ag642
aa(lp828
I140
ag719
aaaa(lp829
I142
aI146
ag186
a(lp830
(lp831
I142
ag673
aa(lp832
I143
ag644
aa(lp833
I144
ag657
aa(lp834
I145
ag652
aa(lp835
I146
ag673
aaaa(lp836
I148
aI149
aS'on'
p837
a(lp838
(lp839
I148
ag657
aa(lp840
I149
ag649
aaaa(lp841
I152
aI154
aS'all'
p842
a(lp843
(lp844
I152
ag701
aa(lp845
I153
ag631
aa(lp846
I154
ag631
aaaa(lp847
I156
aI158
aS'the'
p848
a(lp849
(lp850
I156
ag642
aa(lp851
I157
ag644
aa(lp852
I158
ag637
aaaa(lp853
I160
aI164
aS'other'
p854
a(lp855
(lp856
I160
ag657
aa(lp857
I161
ag642
aa(lp858
I162
ag644
aa(lp859
I163
ag637
aa(lp860
I164
ag709
aaaa(lp861
I166
aI169
ag195
a(lp862
(lp863
I166
ag657
aa(lp864
I167
ag649
aa(lp865
I168
ag637
aa(lp866
I169
ag673
aaaa(lp867
I171
aI174
aS'have'
p868
a(lp869
(lp870
I171
ag644
aa(lp871
I172
ag701
aa(lp872
I173
ag719
aa(lp873
I174
ag637
aaaa(lp874
I176
aI183
ag204
a(lp875
(lp876
I176
ag753
aa(lp877
I177
ag709
aa(lp878
I178
ag657
aa(lp879
I179
ag664
aa(lp880
I180
ag631
aa(lp881
I181
ag637
aa(lp882
I182
ag694
aa(lp883
I183
ag673
aaaa(lp884
I185
aI191
ag213
a(lp885
(lp886
I185
ag631
aa(lp887
I186
ag657
aa(lp888
I187
ag701
aa(lp889
I188
ag741
aa(lp890
I189
ag633
aa(lp891
I190
ag649
aa(lp892
I191
aS'g'
p893
aaaa(lp894
I193
aI194
aS'or'
p895
a(lp896
(lp897
I193
ag657
aa(lp898
I194
ag709
aaaa(lp899
I196
aI198
aS'you'
p900
a(lp901
(lp902
I196
ag756
aa(lp903
I197
ag657
aa(lp904
I198
ag666
aaaa(lp905
I200
aI203
aS'have'
p906
a(lp907
(lp908
I200
ag644
aa(lp909
I201
ag701
aa(lp910
I202
ag719
aa(lp911
I203
ag637
aaaa(lp912
I205
aI206
aS'to'
p913
a(lp914
(lp915
I205
ag642
aa(lp916
I206
ag657
aaaa(lp917
I208
aI210
ag222
a(lp918
(lp919
I208
ag753
aa(lp920
I209
ag701
aa(lp921
I210
ag756
aaaa(lp922
I212
aI213
aS'or'
p923
a(lp924
(lp925
I212
ag657
aa(lp926
I213
ag709
aaaa(lp927
I215
aI218
aS'they'
p928
a(lp929
(lp930
I215
ag642
aa(lp931
I216
ag644
aa(lp932
I217
ag637
aa(lp933
I218
ag756
aaaa(lp934
I220
aI222
aS'are'
p935
a(lp936
(lp937
I220
ag701
aa(lp938
I221
ag709
aa(lp939
I222
ag637
aaaa(lp940
I224
aI227
aS'just'
p941
a(lp942
(lp943
I224
aS'j'
p944
aa(lp945
I225
ag666
aa(lp946
I226
ag673
aa(lp947
I227
ag642
aaaa(lp948
I229
aI230
ag231
a(lp949
(lp950
I229
ag664
aa(lp951
I230
ag673
aaaa(lp952
I232
aI236
ag240
a(lp953
(lp954
I232
ag673
aa(lp955
I233
ag633
aa(lp956
I234
ag642
aa(lp957
I235
ag637
aa(lp958
I236
ag673
aaaa(lp959
I239
aI239
ag633
a(lp960
(lp961
I239
ag633
aaaa(lp962
I241
aI246
ag249
a(lp963
(lp964
I241
ag709
aa(lp965
I242
ag637
aa(lp966
I243
ag701
aa(lp967
I244
ag631
aa(lp968
I245
ag631
aa(lp969
I246
ag756
aaaa(lp970
I248
aI251
ag258
a(lp971
(lp972
I248
ag631
aa(lp973
I249
ag657
aa(lp974
I250
ag719
aa(lp975
I251
ag637
aaaa(lp976
I253
aI256
aS'this'
p977
a(lp978
(lp979
I253
ag642
aa(lp980
I254
ag644
aa(lp981
I255
ag633
aa(lp982
I256
ag673
aaaa(lp983
I258
aI261
ag267
a(lp984
(lp985
I258
ag673
aa(lp986
I259
ag633
aa(lp987
I260
ag642
aa(lp988
I261
ag637
aaaa(lp989
I264
aI268
ag276
a(lp990
(lp991
I264
ag893
aa(lp992
I265
ag709
aa(lp993
I266
ag637
aa(lp994
I267
ag701
aa(lp995
I268
ag642
aaaa(lp996
I270
aI272
ag285
a(lp997
(lp998
I270
ag944
aa(lp999
I271
ag657
aa(lp1000
I272
ag664
aaaa(lp1001
I275
aI275
ag633
a(lp1002
(lp1003
I275
ag633
aaaa(lp1004
I277
aI280
ag294
a(lp1005
(lp1006
I277
ag644
aa(lp1007
I278
ag657
aa(lp1008
I279
ag753
aa(lp1009
I280
ag637
aaaa(lp1010
I282
aI284
aS'you'
p1011
a(lp1012
(lp1013
I282
ag756
aa(lp1014
I283
ag657
aa(lp1015
I284
ag666
aaaa(lp1016
I286
aI289
ag303
a(lp1017
(lp1018
I286
ag893
aa(lp1019
I287
ag666
aa(lp1020
I288
ag756
aa(lp1021
I289
ag673
aaaa(lp1022
I291
aI294
ag312
a(lp1023
(lp1024
I291
ag635
aa(lp1025
I292
ag637
aa(lp1026
I293
ag637
aa(lp1027
I294
ag753
aaaa(lp1028
I296
aI300
aS'doing'
p1029
a(lp1030
(lp1031
I296
ag741
aa(lp1032
I297
ag657
aa(lp1033
I298
ag633
aa(lp1034
I299
ag649
aa(lp1035
I300
ag893
aaaa(lp1036
I302
aI305
aS'what'
p1037
a(lp1038
(lp1039
I302
ag652
aa(lp1040
I303
ag644
aa(lp1041
I304
ag701
aa(lp1042
I305
ag642
aaaa(lp1043
I307
aI310
aS'your'
p1044
a(lp1045
(lp1046
I307
ag756
aa(lp1047
I308
ag657
aa(lp1048
I309
ag666
aa(lp1049
I310
ag709
aaaa(lp1050
I312
aI316
aS'doing'
p1051
a(lp1052
(lp1053
I312
ag741
aa(lp1054
I313
ag657
aa(lp1055
I314
ag633
aa(lp1056
I315
ag649
aa(lp1057
I316
ag893
aaaa(lp1058
I319
aI322
ag321
a(lp1059
(lp1060
I319
ag694
aa(lp1061
I320
ag666
aa(lp1062
I321
ag691
aa(lp1063
I322
ag644
aaaa(lp1064
I324
aI327
ag330
a(lp1065
(lp1066
I324
ag631
aa(lp1067
I325
ag657
aa(lp1068
I326
ag719
aa(lp1069
I327
ag637
aaaa(lp1070
I329
aI334
ag339
a(lp1071
(lp1072
I329
ag649
aa(lp1073
I330
ag633
aa(lp1074
I331
ag691
aa(lp1075
I332
ag657
aa(lp1076
I333
ag631
aa(lp1077
I334
ag637
aaaa(lp1078
I338
aI342
ag348
a(lp1079
(lp1080
I338
ag709
aa(lp1081
I339
ag637
aa(lp1082
I340
ag753
aa(lp1083
I341
ag631
aa(lp1084
I342
ag756
aaaa(lp1085
I344
aI348
ag357
a(lp1086
(lp1087
I344
ag760
aa(lp1088
I345
ag666
aa(lp1089
I346
ag657
aa(lp1090
I347
ag642
aa(lp1091
I348
ag637
aaaa(lp1092
I350
aI350
ag633
a(lp1093
(lp1094
I350
ag633
aaaa(lp1095
I352
aI354
ag366
a(lp1096
(lp1097
I352
ag631
aa(lp1098
I353
ag666
aa(lp1099
I354
ag719
aaaa(lp1100
I356
aI359
aS'this'
p1101
a(lp1102
(lp1103
I356
ag642
aa(lp1104
I357
ag644
aa(lp1105
I358
ag633
aa(lp1106
I359
ag673
aaaa(lp1107
I361
aI370
ag375
a(lp1108
(lp1109
I361
ag652
aa(lp1110
I362
ag637
aa(lp1111
I363
ag664
aa(lp1112
I364
ag673
aa(lp1113
I365
ag633
aa(lp1114
I366
ag642
aa(lp1115
I367
ag637
aa(lp1116
I368
aS'\xe2'
p1117
aa(lp1118
I369
aS'\x80'
p1119
aa(lp1120
I370
aS'\xa6'
p1121
aaaa(lp1122
I372
aI374
aS'but'
p1123
a(lp1124
(lp1125
I372
ag664
aa(lp1126
I373
ag666
aa(lp1127
I374
ag642
aaaa(lp1128
I376
aI378
aS'the'
p1129
a(lp1130
(lp1131
I376
ag642
aa(lp1132
I377
ag644
aa(lp1133
I378
ag637
aaaa(lp1134
I380
aI386
ag384
a(lp1135
(lp1136
I380
ag753
aa(lp1137
I381
ag709
aa(lp1138
I382
ag657
aa(lp1139
I383
ag664
aa(lp1140
I384
ag631
aa(lp1141
I385
ag637
aa(lp1142
I386
ag694
aaaa(lp1143
I388
aI389
aS'is'
p1144
a(lp1145
(lp1146
I388
ag633
aa(lp1147
I389
ag673
aaaa(lp1148
I391
aI394
aS'that'
p1149
a(lp1150
(lp1151
I391
ag642
aa(lp1152
I392
ag644
aa(lp1153
I393
ag701
aa(lp1154
I394
ag642
aaaa(lp1155
I396
aI401
ag393
a(lp1156
(lp1157
I396
ag642
aa(lp1158
I397
ag644
aa(lp1159
I398
ag637
aa(lp1160
I399
ag709
aa(lp1161
I400
ag637
aa(lp1162
I401
ag673
aaaa(lp1163
I403
aI404
aS'no'
p1164
a(lp1165
(lp1166
I403
ag649
aa(lp1167
I404
ag657
aaaa(lp1168
I406
aI410
ag402
a(lp1169
(lp1170
I406
ag673
aa(lp1171
I407
ag637
aa(lp1172
I408
ag709
aa(lp1173
I409
ag691
aa(lp1174
I410
ag644
aaaa(lp1175
I412
aI417
ag411
a(lp1176
(lp1177
I412
ag637
aa(lp1178
I413
ag649
aa(lp1179
I414
ag893
aa(lp1180
I415
ag633
aa(lp1181
I416
ag649
aa(lp1182
I417
ag637
aaaa(lp1183
I422
aI427
ag420
a(lp1184
(lp1185
I422
ag633
aa(lp1186
I423
ag642
aa(lp1187
I424
ag1117
aa(lp1188
I425
ag1119
aa(lp1189
I426
aS'\x99'
p1190
aa(lp1191
I427
ag673
aaaa(lp1192
I429
aI434
ag429
a(lp1193
(lp1194
I429
ag709
aa(lp1195
I430
ag637
aa(lp1196
I431
ag701
aa(lp1197
I432
ag631
aa(lp1198
I433
ag631
aa(lp1199
I434
ag756
aaaa(lp1200
I436
aI443
ag438
a(lp1201
(lp1202
I436
ag701
aa(lp1203
I437
ag649
aa(lp1204
I438
ag649
aa(lp1205
I439
ag657
aa(lp1206
I440
ag756
aa(lp1207
I441
ag633
aa(lp1208
I442
ag649
aa(lp1209
I443
ag893
aaaa(lp1210
I445
aI447
ag447
a(lp1211
(lp1212
I445
ag691
aa(lp1213
I446
ag666
aa(lp1214
I447
aS'z'
p1215
aaaa(lp1216
I449
aI449
ag633
a(lp1217
(lp1218
I449
ag633
aaaa(lp1219
I451
aI457
ag456
a(lp1220
(lp1221
I451
ag691
aa(lp1222
I452
ag701
aa(lp1223
I453
ag649
aa(lp1224
I454
ag1117
aa(lp1225
I455
ag1119
aa(lp1226
I456
ag1190
aa(lp1227
I457
ag642
aaaa(lp1228
I459
aI462
ag465
a(lp1229
(lp1230
I459
ag686
aa(lp1231
I460
ag633
aa(lp1232
I461
ag649
aa(lp1233
I462
ag741
aaaa(lp1234
I464
aI466
aS'all'
p1235
a(lp1236
(lp1237
I464
ag701
aa(lp1238
I465
ag631
aa(lp1239
I466
ag631
aaaa(lp1240
I468
aI470
aS'the'
p1241
a(lp1242
(lp1243
I468
ag642
aa(lp1244
I469
ag644
aa(lp1245
I470
ag637
aaaa(lp1246
I472
aI476
ag474
a(lp1247
(lp1248
I472
ag673
aa(lp1249
I473
ag644
aa(lp1250
I474
ag657
aa(lp1251
I475
ag652
aa(lp1252
I476
ag673
aaaa(lp1253
I478
aI479
aS'on'
p1254
a(lp1255
(lp1256
I478
ag657
aa(lp1257
I479
ag649
aaaa(lp1258
I481
aI484
aS'this'
p1259
a(lp1260
(lp1261
I481
ag642
aa(lp1262
I482
ag644
aa(lp1263
I483
ag633
aa(lp1264
I484
ag673
aaaa(lp1265
I486
aI489
ag483
a(lp1266
(lp1267
I486
ag673
aa(lp1268
I487
ag633
aa(lp1269
I488
ag642
aa(lp1270
I489
ag637
aaaa(lp1271
I491
aI493
aS'and'
p1272
a(lp1273
(lp1274
I491
ag701
aa(lp1275
I492
ag649
aa(lp1276
I493
ag741
aaaa(lp1277
I495
aI499
aS'where'
p1278
a(lp1279
(lp1280
I495
ag652
aa(lp1281
I496
ag644
aa(lp1282
I497
ag637
aa(lp1283
I498
ag709
aa(lp1284
I499
ag637
aaaa(lp1285
I501
aI502
aS'is'
p1286
a(lp1287
(lp1288
I501
ag633
aa(lp1289
I502
ag673
aaaa(lp1290
I504
aI507
ag492
a(lp1291
(lp1292
I504
ag666
aa(lp1293
I505
ag893
aa(lp1294
I506
ag631
aa(lp1295
I507
ag756
aaaa(lp1296
I509
aI513
ag501
a(lp1297
(lp1298
I509
ag664
aa(lp1299
I510
ag637
aa(lp1300
I511
ag642
aa(lp1301
I512
ag642
aa(lp1302
I513
ag756
aaaa(lp1303
I515
aI516
aS'no'
p1304
a(lp1305
(lp1306
I515
ag649
aa(lp1307
I516
ag657
aaaa(lp1308
I518
aI527
ag510
a(lp1309
(lp1310
I518
ag642
aa(lp1311
I519
ag709
aa(lp1312
I520
ag701
aa(lp1313
I521
ag691
aa(lp1314
I522
ag635
aa(lp1315
I523
ag664
aa(lp1316
I524
ag701
aa(lp1317
I525
ag691
aa(lp1318
I526
ag635
aa(lp1319
I527
ag673
aaaa(lp1320
I529
aI531
ag519
a(lp1321
(lp1322
I529
ag756
aa(lp1323
I530
ag637
aa(lp1324
I531
ag642
aaaa(lp1325
I534
aI539
ag528
a(lp1326
(lp1327
I534
ag637
aa(lp1328
I536
ag694
aa(lp1329
I537
ag701
aa(lp1330
I538
ag633
aa(lp1331
I539
ag631
aaaa(lp1332
I542
aI545
aS'will'
p1333
a(lp1334
(lp1335
I542
ag652
aa(lp1336
I543
ag633
aa(lp1337
I544
ag631
aa(lp1338
I545
ag631
aaaa(lp1339
I547
aI549
aS'not'
p1340
a(lp1341
(lp1342
I547
ag649
aa(lp1343
I548
ag657
aa(lp1344
I549
ag642
aaaa(lp1345
I551
aI552
aS'be'
p1346
a(lp1347
(lp1348
I551
ag664
aa(lp1349
I552
ag637
aaaa(lp1350
I554
aI562
ag537
a(lp1351
(lp1352
I554
ag753
aa(lp1353
I555
ag666
aa(lp1354
I556
ag664
aa(lp1355
I557
ag631
aa(lp1356
I558
ag633
aa(lp1357
I559
ag673
aa(lp1358
I560
ag644
aa(lp1359
I561
ag637
aa(lp1360
I562
ag741
aaaa(lp1361
I566
aI573
ag546
a(lp1362
(lp1363
I566
ag709
aa(lp1364
I567
ag637
aa(lp1365
I568
ag760
aa(lp1366
I569
ag666
aa(lp1367
I570
ag633
aa(lp1368
I571
ag709
aa(lp1369
I572
ag637
aa(lp1370
I573
ag741
aaaa(lp1371
I576
aI582
ag555
a(lp1372
(lp1373
I576
ag652
aa(lp1374
I577
ag637
aa(lp1375
I578
ag664
aa(lp1376
I579
ag673
aa(lp1377
I580
ag633
aa(lp1378
I581
ag642
aa(lp1379
I582
ag637
aaaa(lp1380
I584
aI589
ag564
a(lp1381
(lp1382
I584
ag649
aa(lp1383
I585
ag657
aa(lp1384
I586
ag642
aa(lp1385
I587
ag633
aa(lp1386
I588
ag686
aa(lp1387
I589
ag756
aaaa(lp1388
I591
aI592
aS'me'
p1389
a(lp1390
(lp1391
I591
ag694
aa(lp1392
I592
ag637
aaaa(lp1393
I594
aI595
aS'of'
p1394
a(lp1395
(lp1396
I594
ag657
aa(lp1397
I595
ag686
aaaa(lp1398
I597
aI604
ag573
a(lp1399
(lp1400
I597
ag686
aa(lp1401
I598
ag657
aa(lp1402
I599
ag631
aa(lp1403
I600
ag631
aa(lp1404
I601
ag657
aa(lp1405
I602
ag652
aa(lp1406
I603
ag666
aa(lp1407
I604
ag753
aaaa(lp1408
I606
aI613
ag582
a(lp1409
(lp1410
I606
ag691
aa(lp1411
I607
ag657
aa(lp1412
I608
ag694
aa(lp1413
I609
ag694
aa(lp1414
I610
ag637
aa(lp1415
I611
ag649
aa(lp1416
I612
ag642
aa(lp1417
I613
ag673
aaaa(lp1418
I615
aI617
ag591
a(lp1419
(lp1420
I615
ag719
aa(lp1421
I616
ag633
aa(lp1422
I617
ag701
aaaa(lp1423
I619
aI624
ag600
a(lp1424
(lp1425
I619
ag637
aa(lp1426
I621
ag694
aa(lp1427
I622
ag701
aa(lp1428
I623
ag633
aa(lp1429
I624
ag631
aaaa(lp1430
I626
aI634
ag609
a(lp1431
(lp1432
I626
ag673
aa(lp1433
I627
ag666
aa(lp1434
I628
ag664
aa(lp1435
I629
ag673
aa(lp1436
I630
ag691
aa(lp1437
I631
ag709
aa(lp1438
I632
ag633
aa(lp1439
I633
ag664
aa(lp1440
I634
ag637
aaaa(lp1441
I636
aI637
aS'to'
p1442
a(lp1443
(lp1444
I636
ag642
aa(lp1445
I637
ag657
aaaa(lp1446
I636
aI637
ag618
a(lp1447
(lp1448
I639
ag709
aa(lp1449
I640
ag673
aa(lp1450
I641
ag673
aaaasS'cleanCharacterMap'
p1451
(lp1452
g630
ag632
ag634
ag636
a(lp1453
I4
aS' '
p1454
aag641
ag643
ag645
a(lp1455
I8
ag1454
aag648
ag650
ag651
a(lp1456
I12
ag1454
aag655
ag656
ag658
ag659
a(lp1457
I17
ag1454
aag663
ag665
ag667
a(lp1458
I21
ag1454
aag670
ag671
ag672
ag674
a(lp1459
I26
ag1454
aag678
ag679
a(lp1460
I29
ag1454
aag682
ag683
ag684
ag685
ag687
a(lp1461
I35
ag1454
aag690
ag692
ag693
ag695
ag696
a(lp1462
I41
ag1454
aag699
ag700
ag702
ag703
a(lp1463
I46
ag1454
aag706
ag707
ag708
ag710
a(lp1464
I51
ag1454
aag713
a(lp1465
I53
ag1454
aag716
ag717
ag718
ag720
a(lp1466
I58
ag1454
aag724
ag725
ag726
a(lp1467
I62
ag1454
aag729
ag730
ag731
a(lp1468
I66
ag1454
aag734
ag735
ag736
ag737
a(lp1469
I71
ag1454
aag740
ag742
ag743
ag744
ag745
ag746
ag747
a(lp1470
I79
ag1454
aa(lp1471
I81
ag1454
aag750
ag751
ag752
ag754
ag755
a(lp1472
I87
ag1454
aag759
ag761
ag762
ag763
ag764
a(lp1473
I93
ag1454
aag768
ag769
ag770
ag771
a(lp1474
I98
ag1454
aag774
ag775
ag776
ag777
ag778
ag779
ag780
a(lp1475
I106
ag1454
aag784
ag785
a(lp1476
I109
ag1454
aag789
ag790
a(lp1477
I112
ag1454
aag793
ag794
ag795
a(lp1478
I116
ag1454
aag799
ag800
ag801
a(lp1479
I120
ag1454
aag804
ag805
ag806
ag807
a(lp1480
I125
ag1454
aag810
ag811
ag812
a(lp1481
I129
ag1454
aag816
ag817
a(lp1482
I132
ag1454
aag820
ag821
ag822
ag823
ag824
a(lp1483
I138
ag1454
aag827
ag828
a(lp1484
I141
ag1454
aag831
ag832
ag833
ag834
ag835
a(lp1485
I147
ag1454
aag839
ag840
a(lp1486
I151
ag1454
aag844
ag845
ag846
a(lp1487
I155
ag1454
aag850
ag851
ag852
a(lp1488
I159
ag1454
aag856
ag857
ag858
ag859
ag860
a(lp1489
I165
ag1454
aag863
ag864
ag865
ag866
a(lp1490
I170
ag1454
aag870
ag871
ag872
ag873
a(lp1491
I175
ag1454
aag876
ag877
ag878
ag879
ag880
ag881
ag882
ag883
a(lp1492
I184
ag1454
aag886
ag887
ag888
ag889
ag890
ag891
ag892
a(lp1493
I192
ag1454
aag897
ag898
a(lp1494
I195
ag1454
aag902
ag903
ag904
a(lp1495
I199
ag1454
aag908
ag909
ag910
ag911
a(lp1496
I204
ag1454
aag915
ag916
a(lp1497
I207
ag1454
aag919
ag920
ag921
a(lp1498
I211
ag1454
aag925
ag926
a(lp1499
I214
ag1454
aag930
ag931
ag932
ag933
a(lp1500
I219
ag1454
aag937
ag938
ag939
a(lp1501
I223
ag1454
aag943
ag945
ag946
ag947
a(lp1502
I228
ag1454
aag950
ag951
a(lp1503
I231
ag1454
aag954
ag955
ag956
ag957
ag958
a(lp1504
I238
ag1454
aag961
a(lp1505
I240
ag1454
aag964
ag965
ag966
ag967
ag968
ag969
a(lp1506
I247
ag1454
aag972
ag973
ag974
ag975
a(lp1507
I252
ag1454
aag979
ag980
ag981
ag982
a(lp1508
I257
ag1454
aag985
ag986
ag987
ag988
a(lp1509
I263
ag1454
aag991
ag992
ag993
ag994
ag995
a(lp1510
I269
ag1454
aag998
ag999
ag1000
a(lp1511
I274
ag1454
aag1003
a(lp1512
I276
ag1454
aag1006
ag1007
ag1008
ag1009
a(lp1513
I281
ag1454
aag1013
ag1014
ag1015
a(lp1514
I285
ag1454
aag1018
ag1019
ag1020
ag1021
a(lp1515
I290
ag1454
aag1024
ag1025
ag1026
ag1027
a(lp1516
I295
ag1454
aag1031
ag1032
ag1033
ag1034
ag1035
a(lp1517
I301
ag1454
aag1039
ag1040
ag1041
ag1042
a(lp1518
I306
ag1454
aag1046
ag1047
ag1048
ag1049
a(lp1519
I311
ag1454
aag1053
ag1054
ag1055
ag1056
ag1057
a(lp1520
I318
ag1454
aag1060
ag1061
ag1062
ag1063
a(lp1521
I323
ag1454
aag1066
ag1067
ag1068
ag1069
a(lp1522
I328
ag1454
aag1072
ag1073
ag1074
ag1075
ag1076
ag1077
a(lp1523
I335
ag1454
aa(lp1524
I337
ag1454
aag1080
ag1081
ag1082
ag1083
ag1084
a(lp1525
I343
ag1454
aag1087
ag1088
ag1089
ag1090
ag1091
a(lp1526
I349
ag1454
aag1094
a(lp1527
I351
ag1454
aag1097
ag1098
ag1099
a(lp1528
I355
ag1454
aag1103
ag1104
ag1105
ag1106
a(lp1529
I360
ag1454
aag1109
ag1110
ag1111
ag1112
ag1113
ag1114
ag1115
ag1116
ag1118
ag1120
a(lp1530
I371
ag1454
aag1125
ag1126
ag1127
a(lp1531
I375
ag1454
aag1131
ag1132
ag1133
a(lp1532
I379
ag1454
aag1136
ag1137
ag1138
ag1139
ag1140
ag1141
ag1142
a(lp1533
I387
ag1454
aag1146
ag1147
a(lp1534
I390
ag1454
aag1151
ag1152
ag1153
ag1154
a(lp1535
I395
ag1454
aag1157
ag1158
ag1159
ag1160
ag1161
ag1162
a(lp1536
I402
ag1454
aag1166
ag1167
a(lp1537
I405
ag1454
aag1170
ag1171
ag1172
ag1173
ag1174
a(lp1538
I411
ag1454
aag1177
ag1178
ag1179
ag1180
ag1181
ag1182
a(lp1539
I421
ag1454
aag1185
ag1186
ag1187
ag1188
ag1189
ag1191
a(lp1540
I428
ag1454
aag1194
ag1195
ag1196
ag1197
ag1198
ag1199
a(lp1541
I435
ag1454
aag1202
ag1203
ag1204
ag1205
ag1206
ag1207
ag1208
ag1209
a(lp1542
I444
ag1454
aag1212
ag1213
ag1214
a(lp1543
I448
ag1454
aag1218
a(lp1544
I450
ag1454
aag1221
ag1222
ag1223
ag1224
ag1225
ag1226
ag1227
a(lp1545
I458
ag1454
aag1230
ag1231
ag1232
ag1233
a(lp1546
I463
ag1454
aag1237
ag1238
ag1239
a(lp1547
I467
ag1454
aag1243
ag1244
ag1245
a(lp1548
I471
ag1454
aag1248
ag1249
ag1250
ag1251
ag1252
a(lp1549
I477
ag1454
aag1256
ag1257
a(lp1550
I480
ag1454
aag1261
ag1262
ag1263
ag1264
a(lp1551
I485
ag1454
aag1267
ag1268
ag1269
ag1270
a(lp1552
I490
ag1454
aag1274
ag1275
ag1276
a(lp1553
I494
ag1454
aag1280
ag1281
ag1282
ag1283
ag1284
a(lp1554
I500
ag1454
aag1288
ag1289
a(lp1555
I503
ag1454
aag1292
ag1293
ag1294
ag1295
a(lp1556
I508
ag1454
aag1298
ag1299
ag1300
ag1301
ag1302
a(lp1557
I514
ag1454
aag1306
ag1307
a(lp1558
I517
ag1454
aag1310
ag1311
ag1312
ag1313
ag1314
ag1315
ag1316
ag1317
ag1318
ag1319
a(lp1559
I528
ag1454
aag1322
ag1323
ag1324
a(lp1560
I533
ag1454
aag1327
ag1328
ag1329
ag1330
ag1331
a(lp1561
I540
ag1454
aag1335
ag1336
ag1337
ag1338
a(lp1562
I546
ag1454
aag1342
ag1343
ag1344
a(lp1563
I550
ag1454
aag1348
ag1349
a(lp1564
I553
ag1454
aag1352
ag1353
ag1354
ag1355
ag1356
ag1357
ag1358
ag1359
ag1360
a(lp1565
I564
ag1454
aag1363
ag1364
ag1365
ag1366
ag1367
ag1368
ag1369
ag1370
a(lp1566
I575
ag1454
aag1373
ag1374
ag1375
ag1376
ag1377
ag1378
ag1379
a(lp1567
I583
ag1454
aag1382
ag1383
ag1384
ag1385
ag1386
ag1387
a(lp1568
I590
ag1454
aag1391
ag1392
a(lp1569
I593
ag1454
aag1396
ag1397
a(lp1570
I596
ag1454
aag1400
ag1401
ag1402
ag1403
ag1404
ag1405
ag1406
ag1407
a(lp1571
I605
ag1454
aag1410
ag1411
ag1412
ag1413
ag1414
ag1415
ag1416
ag1417
a(lp1572
I614
ag1454
aag1420
ag1421
ag1422
a(lp1573
I618
ag1454
aag1425
ag1426
ag1427
ag1428
ag1429
a(lp1574
I625
ag1454
aag1432
ag1433
ag1434
ag1435
ag1436
ag1437
ag1438
ag1439
ag1440
a(lp1575
I635
ag1454
aag1444
ag1445
a(lp1576
I638
ag1454
aag1448
ag1449
ag1450
asS'text'
p1577
S'like the new look but wish it stuff comes back nara i love the new look dorthea | reply quote this website is by far the best one to watch tv shows on. all the other ones have problems loading or you have to pay or they are just bs sites. i really love this site! great job! i hope you guys keep doing what your doing. much love nicole | reply quote i luv this website\xe2\x80\xa6 but the problem is that theres no serch engine!!! it\xe2\x80\x99s really annoying cuz i can\xe2\x80\x99t find all the shows on this site and where is ugly betty no trackbacks yet. e-mail (will not be published) (required) website notify me of followup comments via e-mail subscribe to rss'
p1578
sS'cleanWordMap'
p1579
(lp1580
g628
ag646
ag653
ag668
ag680
ag688
ag697
ag704
ag714
ag727
ag732
ag738
ag748
ag757
ag772
ag791
ag802
ag808
ag818
ag825
ag829
ag861
ag874
ag884
ag917
ag948
ag952
ag962
ag970
ag983
ag989
ag996
ag1004
ag1016
ag1022
ag1058
ag1064
ag1070
ag1078
ag1085
ag1095
ag1107
ag1134
ag1155
ag1168
ag1175
ag1183
ag1192
ag1200
ag1210
ag1219
ag1228
ag1246
ag1265
ag1290
ag1296
ag1308
ag1320
ag1325
ag1350
ag1361
ag1371
ag1380
ag1398
ag1408
ag1418
ag1423
ag1430
ag1446
asS'lines'
p1581
(lp1582
VLike the new look but wish IT stuff comes back\u000a
p1583
aVnara\u000a
p1584
aVi love the new look\u000a
p1585
aVDorthea\u000a
p1586
aV| Reply Quote\u000a
p1587
aVThis website is by FAR the best one to watch tv shows on. All the other ones have problems loading or you have to pay or they are just BS sites. I really love this site! GREAT job! I hope you guys keep doing what your doing. Much love\u000a
p1588
aVNicole\u000a
p1589
aV| Reply Quote\u000a
p1590
aVi luv this website\u2026 but the problem is that theres no serch engine!!!\u000a
p1591
aVit\u2019s really annoying cuz i can\u2019t find all the shows on this site and where is ugly betty\u000a
p1592
aVNo trackbacks yet.\u000a
p1593
aVE-Mail (will not be published) (required)\u000a
p1594
aVWebsite\u000a
p1595
aVNotify me of followup comments via e-mail\u000a
p1596
aVSubscribe to RSS
p1597
asS'docType'
p1598
S'src'
p1599
sS'newfmap'
p1600
(lp1601
g4
ag8
ag10
ag12
ag14
ag17
ag19
ag21
ag23
ag26
ag28
ag30
ag32
ag35
ag37
ag39
ag41
ag44
ag46
ag48
ag50
ag53
ag55
ag57
ag59
ag62
ag64
ag66
ag68
ag71
ag73
ag75
ag77
ag80
ag82
ag84
ag86
ag89
ag91
ag93
ag95
ag98
ag100
ag102
ag104
ag107
ag109
ag111
ag113
ag116
ag118
ag120
ag122
ag125
ag127
ag129
ag131
ag134
ag136
ag138
ag140
ag143
ag145
ag147
ag149
ag152
ag154
ag156
ag158
ag161
ag163
ag165
ag167
ag170
ag172
ag174
ag176
ag179
ag181
ag183
ag185
ag188
ag190
ag192
ag194
ag197
ag199
ag201
ag203
ag206
ag208
ag210
ag212
ag215
ag217
ag219
ag221
ag224
ag226
ag228
ag230
ag233
ag235
ag237
ag239
ag242
ag244
ag246
ag248
ag251
ag253
ag255
ag257
ag260
ag262
ag264
ag266
ag269
ag271
ag273
ag275
ag278
ag280
ag282
ag284
ag287
ag289
ag291
ag293
ag296
ag298
ag300
ag302
ag305
ag307
ag309
ag311
ag314
ag316
ag318
ag320
ag323
ag325
ag327
ag329
ag332
ag334
ag336
ag338
ag341
ag343
ag345
ag347
ag350
ag352
ag354
ag356
ag359
ag361
ag363
ag365
ag368
ag370
ag372
ag374
ag377
ag379
ag381
ag383
ag386
ag388
ag390
ag392
ag395
ag397
ag399
ag401
ag404
ag406
ag408
ag410
ag413
ag415
ag417
ag419
ag422
ag424
ag426
ag428
ag431
ag433
ag435
ag437
ag440
ag442
ag444
ag446
ag449
ag451
ag453
ag455
ag458
ag460
ag462
ag464
ag467
ag469
ag471
ag473
ag476
ag478
ag480
ag482
ag485
ag487
ag489
ag491
ag494
ag496
ag498
ag500
ag503
ag505
ag507
ag509
ag512
ag514
ag516
ag518
ag521
ag523
ag525
ag527
ag530
ag532
ag534
ag536
ag539
ag541
ag543
ag545
ag548
ag550
ag552
ag554
ag557
ag559
ag561
ag563
ag566
ag568
ag570
ag572
ag575
ag577
ag579
ag581
ag584
ag586
ag588
ag590
ag593
ag595
ag597
ag599
ag602
ag604
ag606
ag608
ag611
ag613
ag615
ag617
ag620
ag622
ag624
asS'featureMap'
p1602
(lp1603
(lp1604
I0
aI3
ag5
ag6
ag9
ag11
ag13
aa(lp1605
I9
aI11
ag15
ag16
ag18
ag20
ag22
aa(lp1606
I13
aI16
ag24
ag25
ag27
ag29
ag31
aa(lp1607
I22
aI25
ag33
ag34
ag36
ag38
ag40
aa(lp1608
I30
aI34
ag42
ag43
ag45
ag47
ag49
aa(lp1609
I36
aI40
ag51
ag52
ag54
ag56
ag58
aa(lp1610
I42
aI45
ag60
ag61
ag63
ag65
ag67
aa(lp1611
I47
aI50
ag69
ag70
ag72
ag74
ag76
aa(lp1612
I54
aI57
ag78
ag79
ag81
ag83
ag85
aa(lp1613
I63
aI65
ag87
ag88
ag90
ag92
ag94
aa(lp1614
I67
aI70
ag96
ag97
ag99
ag101
ag103
aa(lp1615
I72
aI78
ag105
ag106
ag108
ag110
ag112
aa(lp1616
I82
aI86
ag114
ag115
ag117
ag119
ag121
aa(lp1617
I88
aI92
ag123
ag124
ag126
ag128
ag130
aa(lp1618
I99
aI105
ag132
ag133
ag135
ag137
ag139
aa(lp1619
I113
aI115
ag141
ag142
ag144
ag146
ag148
aa(lp1620
I121
aI124
ag150
ag151
ag153
ag155
ag157
aa(lp1621
I126
aI128
ag159
ag160
ag162
ag164
ag166
aa(lp1622
I133
aI137
ag168
ag169
ag171
ag173
ag175
aa(lp1623
I139
aI140
ag177
ag178
ag180
ag182
ag184
aa(lp1624
I142
aI146
ag186
ag187
ag189
ag191
ag193
aa(lp1625
I166
aI169
ag195
ag196
ag198
ag200
ag202
aa(lp1626
I176
aI183
ag204
ag205
ag207
ag209
ag211
aa(lp1627
I185
aI191
ag213
ag214
ag216
ag218
ag220
aa(lp1628
I208
aI210
ag222
ag223
ag225
ag227
ag229
aa(lp1629
I229
aI230
ag231
ag232
ag234
ag236
ag238
aa(lp1630
I232
aI236
ag240
ag241
ag243
ag245
ag247
aa(lp1631
I241
aI246
ag249
ag250
ag252
ag254
ag256
aa(lp1632
I248
aI251
ag258
ag259
ag261
ag263
ag265
aa(lp1633
I258
aI261
ag267
ag268
ag270
ag272
ag274
aa(lp1634
I264
aI268
ag276
ag277
ag279
ag281
ag283
aa(lp1635
I270
aI272
ag285
ag286
ag288
ag290
ag292
aa(lp1636
I277
aI280
ag294
ag295
ag297
ag299
ag301
aa(lp1637
I286
aI289
ag303
ag304
ag306
ag308
ag310
aa(lp1638
I291
aI294
ag312
ag313
ag315
ag317
ag319
aa(lp1639
I319
aI322
ag321
ag322
ag324
ag326
ag328
aa(lp1640
I324
aI327
ag330
ag331
ag333
ag335
ag337
aa(lp1641
I329
aI334
ag339
ag340
ag342
ag344
ag346
aa(lp1642
I338
aI342
ag348
ag349
ag351
ag353
ag355
aa(lp1643
I344
aI348
ag357
ag358
ag360
ag362
ag364
aa(lp1644
I352
aI354
ag366
ag367
ag369
ag371
ag373
aa(lp1645
I361
aI370
ag375
ag376
ag378
ag380
ag382
aa(lp1646
I380
aI386
ag384
ag385
ag387
ag389
ag391
aa(lp1647
I396
aI401
ag393
ag394
ag396
ag398
ag400
aa(lp1648
I406
aI410
ag402
ag403
ag405
ag407
ag409
aa(lp1649
I412
aI417
ag411
ag412
ag414
ag416
ag418
aa(lp1650
I422
aI427
ag420
ag421
ag423
ag425
ag427
aa(lp1651
I429
aI434
ag429
ag430
ag432
ag434
ag436
aa(lp1652
I436
aI443
ag438
ag439
ag441
ag443
ag445
aa(lp1653
I445
aI447
ag447
ag448
ag450
ag452
ag454
aa(lp1654
I451
aI457
ag456
ag457
ag459
ag461
ag463
aa(lp1655
I459
aI462
ag465
ag466
ag468
ag470
ag472
aa(lp1656
I472
aI476
ag474
ag475
ag477
ag479
ag481
aa(lp1657
I486
aI489
ag483
ag484
ag486
ag488
ag490
aa(lp1658
I504
aI507
ag492
ag493
ag495
ag497
ag499
aa(lp1659
I509
aI513
ag501
ag502
ag504
ag506
ag508
aa(lp1660
I518
aI527
ag510
ag511
ag513
ag515
ag517
aa(lp1661
I529
aI531
ag519
ag520
ag522
ag524
ag526
aa(lp1662
I534
aI539
ag528
ag529
ag531
ag533
ag535
aa(lp1663
I554
aI562
ag537
ag538
ag540
ag542
ag544
aa(lp1664
I566
aI573
ag546
ag547
ag549
ag551
ag553
aa(lp1665
I576
aI582
ag555
ag556
ag558
ag560
ag562
aa(lp1666
I584
aI589
ag564
ag565
ag567
ag569
ag571
aa(lp1667
I597
aI604
ag573
ag574
ag576
ag578
ag580
aa(lp1668
I606
aI613
ag582
ag583
ag585
ag587
ag589
aa(lp1669
I615
aI617
ag591
ag592
ag594
ag596
ag598
aa(lp1670
I619
aI624
ag600
ag601
ag603
ag605
ag607
aa(lp1671
I626
aI634
ag609
ag610
ag612
ag614
ag616
aa(lp1672
I636
aI637
ag618
ag619
ag621
ag623
ag625
aasS'characterMap'
p1673
(lp1674
g630
ag632
ag634
ag636
ag1453
ag641
ag643
ag645
ag1455
ag648
ag650
ag651
ag1456
ag655
ag656
ag658
ag659
ag1457
ag663
ag665
ag667
ag1458
ag670
ag671
ag672
ag674
ag1459
ag678
ag679
ag1460
ag682
ag683
ag684
ag685
ag687
ag1461
ag690
ag692
ag693
ag695
ag696
ag1462
ag699
ag700
ag702
ag703
ag1463
ag706
ag707
ag708
ag710
ag1464
ag713
ag1465
ag716
ag717
ag718
ag720
ag1466
ag724
ag725
ag726
ag1467
ag729
ag730
ag731
ag1468
ag734
ag735
ag736
ag737
ag1469
ag740
ag742
ag743
ag744
ag745
ag746
ag747
ag1470
a(lp1675
I80
aS'|'
p1676
aag1471
ag750
ag751
ag752
ag754
ag755
ag1472
ag759
ag761
ag762
ag763
ag764
ag1473
ag768
ag769
ag770
ag771
ag1474
ag774
ag775
ag776
ag777
ag778
ag779
ag780
ag1475
ag784
ag785
ag1476
ag789
ag790
ag1477
ag793
ag794
ag795
ag1478
ag799
ag800
ag801
ag1479
ag804
ag805
ag806
ag807
ag1480
ag810
ag811
ag812
ag1481
ag816
ag817
ag1482
ag820
ag821
ag822
ag823
ag824
ag1483
ag827
ag828
ag1484
ag831
ag832
ag833
ag834
ag835
ag1485
ag839
ag840
a(lp1677
I150
aS'.'
p1678
aag1486
ag844
ag845
ag846
ag1487
ag850
ag851
ag852
ag1488
ag856
ag857
ag858
ag859
ag860
ag1489
ag863
ag864
ag865
ag866
ag1490
ag870
ag871
ag872
ag873
ag1491
ag876
ag877
ag878
ag879
ag880
ag881
ag882
ag883
ag1492
ag886
ag887
ag888
ag889
ag890
ag891
ag892
ag1493
ag897
ag898
ag1494
ag902
ag903
ag904
ag1495
ag908
ag909
ag910
ag911
ag1496
ag915
ag916
ag1497
ag919
ag920
ag921
ag1498
ag925
ag926
ag1499
ag930
ag931
ag932
ag933
ag1500
ag937
ag938
ag939
ag1501
ag943
ag945
ag946
ag947
ag1502
ag950
ag951
ag1503
ag954
ag955
ag956
ag957
ag958
a(lp1679
I237
ag1678
aag1504
ag961
ag1505
ag964
ag965
ag966
ag967
ag968
ag969
ag1506
ag972
ag973
ag974
ag975
ag1507
ag979
ag980
ag981
ag982
ag1508
ag985
ag986
ag987
ag988
a(lp1680
I262
aS'!'
p1681
aag1509
ag991
ag992
ag993
ag994
ag995
ag1510
ag998
ag999
ag1000
a(lp1682
I273
ag1681
aag1511
ag1003
ag1512
ag1006
ag1007
ag1008
ag1009
ag1513
ag1013
ag1014
ag1015
ag1514
ag1018
ag1019
ag1020
ag1021
ag1515
ag1024
ag1025
ag1026
ag1027
ag1516
ag1031
ag1032
ag1033
ag1034
ag1035
ag1517
ag1039
ag1040
ag1041
ag1042
ag1518
ag1046
ag1047
ag1048
ag1049
ag1519
ag1053
ag1054
ag1055
ag1056
ag1057
a(lp1683
I317
ag1678
aag1520
ag1060
ag1061
ag1062
ag1063
ag1521
ag1066
ag1067
ag1068
ag1069
ag1522
ag1072
ag1073
ag1074
ag1075
ag1076
ag1077
ag1523
a(lp1684
I336
ag1676
aag1524
ag1080
ag1081
ag1082
ag1083
ag1084
ag1525
ag1087
ag1088
ag1089
ag1090
ag1091
ag1526
ag1094
ag1527
ag1097
ag1098
ag1099
ag1528
ag1103
ag1104
ag1105
ag1106
ag1529
ag1109
ag1110
ag1111
ag1112
ag1113
ag1114
ag1115
ag1116
ag1118
ag1120
ag1530
ag1125
ag1126
ag1127
ag1531
ag1131
ag1132
ag1133
ag1532
ag1136
ag1137
ag1138
ag1139
ag1140
ag1141
ag1142
ag1533
ag1146
ag1147
ag1534
ag1151
ag1152
ag1153
ag1154
ag1535
ag1157
ag1158
ag1159
ag1160
ag1161
ag1162
ag1536
ag1166
ag1167
ag1537
ag1170
ag1171
ag1172
ag1173
ag1174
ag1538
ag1177
ag1178
ag1179
ag1180
ag1181
ag1182
a(lp1685
I418
ag1681
aa(lp1686
I419
ag1681
aa(lp1687
I420
ag1681
aag1539
ag1185
ag1186
ag1187
ag1188
ag1189
ag1191
ag1540
ag1194
ag1195
ag1196
ag1197
ag1198
ag1199
ag1541
ag1202
ag1203
ag1204
ag1205
ag1206
ag1207
ag1208
ag1209
ag1542
ag1212
ag1213
ag1214
ag1543
ag1218
ag1544
ag1221
ag1222
ag1223
ag1224
ag1225
ag1226
ag1227
ag1545
ag1230
ag1231
ag1232
ag1233
ag1546
ag1237
ag1238
ag1239
ag1547
ag1243
ag1244
ag1245
ag1548
ag1248
ag1249
ag1250
ag1251
ag1252
ag1549
ag1256
ag1257
ag1550
ag1261
ag1262
ag1263
ag1264
ag1551
ag1267
ag1268
ag1269
ag1270
ag1552
ag1274
ag1275
ag1276
ag1553
ag1280
ag1281
ag1282
ag1283
ag1284
ag1554
ag1288
ag1289
ag1555
ag1292
ag1293
ag1294
ag1295
ag1556
ag1298
ag1299
ag1300
ag1301
ag1302
ag1557
ag1306
ag1307
ag1558
ag1310
ag1311
ag1312
ag1313
ag1314
ag1315
ag1316
ag1317
ag1318
ag1319
ag1559
ag1322
ag1323
ag1324
a(lp1688
I532
ag1678
aag1560
ag1327
a(lp1689
I535
aS'-'
p1690
aag1328
ag1329
ag1330
ag1331
ag1561
a(lp1691
I541
aS'('
p1692
aag1335
ag1336
ag1337
ag1338
ag1562
ag1342
ag1343
ag1344
ag1563
ag1348
ag1349
ag1564
ag1352
ag1353
ag1354
ag1355
ag1356
ag1357
ag1358
ag1359
ag1360
a(lp1693
I563
aS')'
p1694
aag1565
a(lp1695
I565
ag1692
aag1363
ag1364
ag1365
ag1366
ag1367
ag1368
ag1369
ag1370
a(lp1696
I574
ag1694
aag1566
ag1373
ag1374
ag1375
ag1376
ag1377
ag1378
ag1379
ag1567
ag1382
ag1383
ag1384
ag1385
ag1386
ag1387
ag1568
ag1391
ag1392
ag1569
ag1396
ag1397
ag1570
ag1400
ag1401
ag1402
ag1403
ag1404
ag1405
ag1406
ag1407
ag1571
ag1410
ag1411
ag1412
ag1413
ag1414
ag1415
ag1416
ag1417
ag1572
ag1420
ag1421
ag1422
ag1573
ag1425
a(lp1697
I620
ag1690
aag1426
ag1427
ag1428
ag1429
ag1574
ag1432
ag1433
ag1434
ag1435
ag1436
ag1437
ag1438
ag1439
ag1440
ag1575
ag1444
ag1445
ag1576
ag1448
ag1449
ag1450
asS'docName'
p1698
S'source-document02594.txt'
p1699
sb.