(iModel.Document
Document
p0
(dp1
S'fmap'
p2
(lp3
(lp4
I11
aI15
aS'bells'
p5
a(lp6
S'*'
p7
ag5
aaa(lp8
I11
aI15
ag5
a(lp9
g7
ag5
aaa(lp10
I11
aI15
ag5
a(lp11
g7
ag5
aaa(lp12
I11
aI15
ag5
a(lp13
g7
ag5
aaa(lp14
I22
aI25
aS'hill'
p15
a(lp16
g5
ag15
aaa(lp17
I22
aI25
ag15
a(lp18
g7
ag15
aaa(lp19
I22
aI25
ag15
a(lp20
g7
ag15
aaa(lp21
I22
aI25
ag15
a(lp22
g7
ag15
aaa(lp23
I33
aI37
aS'never'
p24
a(lp25
g15
ag24
aaa(lp26
I33
aI37
ag24
a(lp27
g5
ag24
aaa(lp28
I33
aI37
ag24
a(lp29
g7
ag24
aaa(lp30
I33
aI37
ag24
a(lp31
g7
ag24
aaa(lp32
I39
aI43
aS'heard'
p33
a(lp34
g24
ag33
aaa(lp35
I39
aI43
ag33
a(lp36
g15
ag33
aaa(lp37
I39
aI43
ag33
a(lp38
g5
ag33
aaa(lp39
I39
aI43
ag33
a(lp40
g7
ag33
aaa(lp41
I50
aI56
aS'ringing'
p42
a(lp43
g33
ag42
aaa(lp44
I50
aI56
ag42
a(lp45
g24
ag42
aaa(lp46
I50
aI56
ag42
a(lp47
g15
ag42
aaa(lp48
I50
aI56
ag42
a(lp49
g5
ag42
aaa(lp50
I64
aI68
aS'never'
p51
a(lp52
g42
ag51
aaa(lp53
I64
aI68
ag51
a(lp54
g33
ag51
aaa(lp55
I64
aI68
ag51
a(lp56
g24
ag51
aaa(lp57
I64
aI68
ag51
a(lp58
g15
ag51
aaa(lp59
I70
aI74
aS'heard'
p60
a(lp61
g51
ag60
aaa(lp62
I70
aI74
ag60
a(lp63
g42
ag60
aaa(lp64
I70
aI74
ag60
a(lp65
g33
ag60
aaa(lp66
I70
aI74
ag60
a(lp67
g24
ag60
aaa(lp68
I88
aI91
aS'till'
p69
a(lp70
g60
ag69
aaa(lp71
I88
aI91
ag69
a(lp72
g51
ag69
aaa(lp73
I88
aI91
ag69
a(lp74
g42
ag69
aaa(lp75
I88
aI91
ag69
a(lp76
g33
ag69
aaa(lp77
I118
aI122
aS'birds'
p78
a(lp79
g69
ag78
aaa(lp80
I118
aI122
ag78
a(lp81
g60
ag78
aaa(lp82
I118
aI122
ag78
a(lp83
g51
ag78
aaa(lp84
I118
aI122
ag78
a(lp85
g42
ag78
aaa(lp86
I131
aI133
aS'sky'
p87
a(lp88
g78
ag87
aaa(lp89
I131
aI133
ag87
a(lp90
g69
ag87
aaa(lp91
I131
aI133
ag87
a(lp92
g60
ag87
aaa(lp93
I131
aI133
ag87
a(lp94
g51
ag87
aaa(lp95
I141
aI145
aS'never'
p96
a(lp97
g87
ag96
aaa(lp98
I141
aI145
ag96
a(lp99
g78
ag96
aaa(lp100
I141
aI145
ag96
a(lp101
g69
ag96
aaa(lp102
I141
aI145
ag96
a(lp103
g60
ag96
aaa(lp104
I147
aI149
aS'saw'
p105
a(lp106
g96
ag105
aaa(lp107
I147
aI149
ag105
a(lp108
g87
ag105
aaa(lp109
I147
aI149
ag105
a(lp110
g78
ag105
aaa(lp111
I147
aI149
ag105
a(lp112
g69
ag105
aaa(lp113
I156
aI162
aS'winging'
p114
a(lp115
g105
ag114
aaa(lp116
I156
aI162
ag114
a(lp117
g96
ag114
aaa(lp118
I156
aI162
ag114
a(lp119
g87
ag114
aaa(lp120
I156
aI162
ag114
a(lp121
g78
ag114
aaa(lp122
I170
aI174
aS'never'
p123
a(lp124
g114
ag123
aaa(lp125
I170
aI174
ag123
a(lp126
g105
ag123
aaa(lp127
I170
aI174
ag123
a(lp128
g96
ag123
aaa(lp129
I170
aI174
ag123
a(lp130
g87
ag123
aaa(lp131
I176
aI178
aS'saw'
p132
a(lp133
g123
ag132
aaa(lp134
I176
aI178
ag132
a(lp135
g114
ag132
aaa(lp136
I176
aI178
ag132
a(lp137
g105
ag132
aaa(lp138
I176
aI178
ag132
a(lp139
g96
ag132
aaa(lp140
I192
aI195
aS'till'
p141
a(lp142
g132
ag141
aaa(lp143
I192
aI195
ag141
a(lp144
g123
ag141
aaa(lp145
I192
aI195
ag141
a(lp146
g114
ag141
aaa(lp147
I192
aI195
ag141
a(lp148
g105
ag141
aaa(lp149
I226
aI230
aS'music'
p150
a(lp151
g141
ag150
aaa(lp152
I226
aI230
ag150
a(lp153
g132
ag150
aaa(lp154
I226
aI230
ag150
a(lp155
g123
ag150
aaa(lp156
I226
aI230
ag150
a(lp157
g114
ag150
aaa(lp158
I236
aI244
aS'wonderful'
p159
a(lp160
g150
ag159
aaa(lp161
I236
aI244
ag159
a(lp162
g141
ag159
aaa(lp163
I236
aI244
ag159
a(lp164
g132
ag159
aaa(lp165
I236
aI244
ag159
a(lp166
g123
ag159
aaa(lp167
I246
aI250
aS'roses'
p168
a(lp169
g159
ag168
aaa(lp170
I246
aI250
ag168
a(lp171
g150
ag168
aaa(lp172
I246
aI250
ag168
a(lp173
g141
ag168
aaa(lp174
I246
aI250
ag168
a(lp175
g132
ag168
aaa(lp176
I257
aI260
aS'tell'
p177
a(lp178
g168
ag177
aaa(lp179
I257
aI260
ag177
a(lp180
g159
ag177
aaa(lp181
I257
aI260
ag177
a(lp182
g150
ag177
aaa(lp183
I257
aI260
ag177
a(lp184
g141
ag177
aaa(lp185
I268
aI272
aS'sweet'
p186
a(lp187
g177
ag186
aaa(lp188
I268
aI272
ag186
a(lp189
g168
ag186
aaa(lp190
I268
aI272
ag186
a(lp191
g159
ag186
aaa(lp192
I268
aI272
ag186
a(lp193
g150
ag186
aaa(lp194
I274
aI281
aS'fragrant'
p195
a(lp196
g186
ag195
aaa(lp197
I274
aI281
ag195
a(lp198
g177
ag195
aaa(lp199
I274
aI281
ag195
a(lp200
g168
ag195
aaa(lp201
I274
aI281
ag195
a(lp202
g159
ag195
aaa(lp203
I283
aI289
aS'meadows'
p204
a(lp205
g195
ag204
aaa(lp206
I283
aI289
ag204
a(lp207
g186
ag204
aaa(lp208
I283
aI289
ag204
a(lp209
g177
ag204
aaa(lp210
I283
aI289
ag204
a(lp211
g168
ag204
aaa(lp212
I294
aI297
aS'dawn'
p213
a(lp214
g204
ag213
aaa(lp215
I294
aI297
ag213
a(lp216
g195
ag213
aaa(lp217
I294
aI297
ag213
a(lp218
g186
ag213
aaa(lp219
I294
aI297
ag213
a(lp220
g177
ag213
aaa(lp221
I303
aI305
aS'dew'
p222
a(lp223
g213
ag222
aaa(lp224
I303
aI305
ag222
a(lp225
g204
ag222
aaa(lp226
I303
aI305
ag222
a(lp227
g195
ag222
aaa(lp228
I303
aI305
ag222
a(lp229
g186
ag222
aaa(lp230
I317
aI320
aS'love'
p231
a(lp232
g222
ag231
aaa(lp233
I317
aI320
ag231
a(lp234
g213
ag231
aaa(lp235
I317
aI320
ag231
a(lp236
g204
ag231
aaa(lp237
I317
aI320
ag231
a(lp238
g195
ag231
aaa(lp239
I326
aI331
aS'around'
p240
a(lp241
g231
ag240
aaa(lp242
I326
aI331
ag240
a(lp243
g222
ag240
aaa(lp244
I326
aI331
ag240
a(lp245
g213
ag240
aaa(lp246
I326
aI331
ag240
a(lp247
g204
ag240
aaa(lp248
I339
aI343
aS'never'
p249
a(lp250
g240
ag249
aaa(lp251
I339
aI343
ag249
a(lp252
g231
ag249
aaa(lp253
I339
aI343
ag249
a(lp254
g222
ag249
aaa(lp255
I339
aI343
ag249
a(lp256
g213
ag249
aaa(lp257
I345
aI349
aS'heard'
p258
a(lp259
g249
ag258
aaa(lp260
I345
aI349
ag258
a(lp261
g240
ag258
aaa(lp262
I345
aI349
ag258
a(lp263
g231
ag258
aaa(lp264
I345
aI349
ag258
a(lp265
g222
ag258
aaa(lp266
I354
aI360
aS'singing'
p267
a(lp268
g258
ag267
aaa(lp269
I354
aI360
ag267
a(lp270
g249
ag267
aaa(lp271
I354
aI360
ag267
a(lp272
g240
ag267
aaa(lp273
I354
aI360
ag267
a(lp274
g231
ag267
aaa(lp275
I367
aI371
aS'never'
p276
a(lp277
g267
ag276
aaa(lp278
I367
aI371
ag276
a(lp279
g258
ag276
aaa(lp280
I367
aI371
ag276
a(lp281
g249
ag276
aaa(lp282
I367
aI371
ag276
a(lp283
g240
ag276
aaa(lp284
I373
aI377
aS'heard'
p285
a(lp286
g276
ag285
aaa(lp287
I373
aI377
ag285
a(lp288
g267
ag285
aaa(lp289
I373
aI377
ag285
a(lp290
g258
ag285
aaa(lp291
I373
aI377
ag285
a(lp292
g249
ag285
aaa(lp293
I389
aI392
aS'till'
p294
a(lp295
g285
ag294
aaa(lp296
I389
aI392
ag294
a(lp297
g276
ag294
aaa(lp298
I389
aI392
ag294
a(lp299
g267
ag294
aaa(lp300
I389
aI392
ag294
a(lp301
g258
ag294
aaa(lp302
I423
aI427
aS'music'
p303
a(lp304
g294
ag303
aaa(lp305
I423
aI427
ag303
a(lp306
g285
ag303
aaa(lp307
I423
aI427
ag303
a(lp308
g276
ag303
aaa(lp309
I423
aI427
ag303
a(lp310
g267
ag303
aaa(lp311
I433
aI441
aS'wonderful'
p312
a(lp313
g303
ag312
aaa(lp314
I433
aI441
ag312
a(lp315
g294
ag312
aaa(lp316
I433
aI441
ag312
a(lp317
g285
ag312
aaa(lp318
I433
aI441
ag312
a(lp319
g276
ag312
aaa(lp320
I443
aI447
aS'roses'
p321
a(lp322
g312
ag321
aaa(lp323
I443
aI447
ag321
a(lp324
g303
ag321
aaa(lp325
I443
aI447
ag321
a(lp326
g294
ag321
aaa(lp327
I443
aI447
ag321
a(lp328
g285
ag321
aaa(lp329
I454
aI457
aS'tell'
p330
a(lp331
g321
ag330
aaa(lp332
I454
aI457
ag330
a(lp333
g312
ag330
aaa(lp334
I454
aI457
ag330
a(lp335
g303
ag330
aaa(lp336
I454
aI457
ag330
a(lp337
g294
ag330
aaa(lp338
I465
aI469
aS'sweet'
p339
a(lp340
g330
ag339
aaa(lp341
I465
aI469
ag339
a(lp342
g321
ag339
aaa(lp343
I465
aI469
ag339
a(lp344
g312
ag339
aaa(lp345
I465
aI469
ag339
a(lp346
g303
ag339
aaa(lp347
I471
aI478
aS'fragrant'
p348
a(lp349
g339
ag348
aaa(lp350
I471
aI478
ag348
a(lp351
g330
ag348
aaa(lp352
I471
aI478
ag348
a(lp353
g321
ag348
aaa(lp354
I471
aI478
ag348
a(lp355
g312
ag348
aaa(lp356
I480
aI486
aS'meadows'
p357
a(lp358
g348
ag357
aaa(lp359
I480
aI486
ag357
a(lp360
g339
ag357
aaa(lp361
I480
aI486
ag357
a(lp362
g330
ag357
aaa(lp363
I480
aI486
ag357
a(lp364
g321
ag357
aaa(lp365
I491
aI494
aS'dawn'
p366
a(lp367
g357
ag366
aaa(lp368
I491
aI494
ag366
a(lp369
g348
ag366
aaa(lp370
I491
aI494
ag366
a(lp371
g339
ag366
aaa(lp372
I491
aI494
ag366
a(lp373
g330
ag366
aaa(lp374
I500
aI502
aS'dew'
p375
a(lp376
g366
ag375
aaa(lp377
I500
aI502
ag375
a(lp378
g357
ag375
aaa(lp379
I500
aI502
ag375
a(lp380
g348
ag375
aaa(lp381
I500
aI502
ag375
a(lp382
g339
ag375
aaa(lp383
I514
aI517
aS'love'
p384
a(lp385
g375
ag384
aaa(lp386
I514
aI517
ag384
a(lp387
g366
ag384
aaa(lp388
I514
aI517
ag384
a(lp389
g357
ag384
aaa(lp390
I514
aI517
ag384
a(lp391
g348
ag384
aaa(lp392
I523
aI528
aS'around'
p393
a(lp394
g384
ag393
aaa(lp395
I523
aI528
ag393
a(lp396
g375
ag393
aaa(lp397
I523
aI528
ag393
a(lp398
g366
ag393
aaa(lp399
I523
aI528
ag393
a(lp400
g357
ag393
aaa(lp401
I536
aI540
aS'never'
p402
a(lp403
g393
ag402
aaa(lp404
I536
aI540
ag402
a(lp405
g384
ag402
aaa(lp406
I536
aI540
ag402
a(lp407
g375
ag402
aaa(lp408
I536
aI540
ag402
a(lp409
g366
ag402
aaa(lp410
I542
aI546
aS'heard'
p411
a(lp412
g402
ag411
aaa(lp413
I542
aI546
ag411
a(lp414
g393
ag411
aaa(lp415
I542
aI546
ag411
a(lp416
g384
ag411
aaa(lp417
I542
aI546
ag411
a(lp418
g375
ag411
aaa(lp419
I551
aI557
aS'singing'
p420
a(lp421
g411
ag420
aaa(lp422
I551
aI557
ag420
a(lp423
g402
ag420
aaa(lp424
I551
aI557
ag420
a(lp425
g393
ag420
aaa(lp426
I551
aI557
ag420
a(lp427
g384
ag420
aaa(lp428
I565
aI569
aS'never'
p429
a(lp430
g420
ag429
aaa(lp431
I565
aI569
ag429
a(lp432
g411
ag429
aaa(lp433
I565
aI569
ag429
a(lp434
g402
ag429
aaa(lp435
I565
aI569
ag429
a(lp436
g393
ag429
aaa(lp437
I571
aI575
aS'heard'
p438
a(lp439
g429
ag438
aaa(lp440
I571
aI575
ag438
a(lp441
g420
ag438
aaa(lp442
I571
aI575
ag438
a(lp443
g411
ag438
aaa(lp444
I571
aI575
ag438
a(lp445
g402
ag438
aaa(lp446
I587
aI590
aS'till'
p447
a(lp448
g438
ag447
aaa(lp449
I587
aI590
ag447
a(lp450
g429
ag447
aaa(lp451
I587
aI590
ag447
a(lp452
g420
ag447
aaa(lp453
I587
aI590
ag447
a(lp454
g411
ag447
aaa(lp455
I606
aI609
aS'till'
p456
a(lp457
g447
ag456
aaa(lp458
I606
aI609
ag456
a(lp459
g438
ag456
aaa(lp460
I606
aI609
ag456
a(lp461
g429
ag456
aaa(lp462
I606
aI609
ag456
a(lp463
g420
ag456
aaa(lp464
I629
aI631
aS'rod'
p465
a(lp466
g456
ag465
aaa(lp467
I629
aI631
ag465
a(lp468
g447
ag465
aaa(lp469
I629
aI631
ag465
a(lp470
g438
ag465
aaa(lp471
I629
aI631
ag465
a(lp472
g429
ag465
aaa(lp473
I633
aI639
aS'stewart'
p474
a(lp475
g465
ag474
aaa(lp476
I633
aI639
ag474
a(lp477
g456
ag474
aaa(lp478
I633
aI639
ag474
a(lp479
g447
ag474
aaa(lp480
I633
aI639
ag474
a(lp481
g438
ag474
aaa(lp482
I642
aI645
aS'till'
p483
a(lp484
g474
ag483
aaa(lp485
I642
aI645
ag483
a(lp486
g465
ag483
aaa(lp487
I642
aI645
ag483
a(lp488
g456
ag483
aaa(lp489
I642
aI645
ag483
a(lp490
g447
ag483
aaa(lp491
I657
aI659
aS'lyrics'
p492
a(lp493
g483
ag492
aaa(lp494
I657
aI659
ag492
a(lp495
g474
ag492
aaa(lp496
I657
aI659
ag492
a(lp497
g465
ag492
aaa(lp498
I657
aI659
ag492
a(lp499
g456
ag492
aaasS'wordMap'
p500
(lp501
(lp502
I0
aI4
aS'there'
p503
a(lp504
(lp505
I0
aS't'
p506
aa(lp507
I1
aS'h'
p508
aa(lp509
I2
aS'e'
p510
aa(lp511
I3
aS'r'
p512
aa(lp513
I4
ag510
aaaa(lp514
I6
aI9
aS'were'
p515
a(lp516
(lp517
I6
aS'w'
p518
aa(lp519
I7
ag510
aa(lp520
I8
ag512
aa(lp521
I9
ag510
aaaa(lp522
I11
aI15
ag5
a(lp523
(lp524
I11
aS'b'
p525
aa(lp526
I12
ag510
aa(lp527
I13
aS'l'
p528
aa(lp529
I14
ag528
aa(lp530
I15
aS's'
p531
aaaa(lp532
I17
aI18
aS'on'
p533
a(lp534
(lp535
I17
aS'o'
p536
aa(lp537
I18
aS'n'
p538
aaaa(lp539
I20
aI20
aS'a'
p540
a(lp541
(lp542
I20
ag540
aaaa(lp543
I22
aI25
ag15
a(lp544
(lp545
I22
ag508
aa(lp546
I23
aS'i'
p547
aa(lp548
I24
ag528
aa(lp549
I25
ag528
aaaa(lp550
I27
aI29
aS'but'
p551
a(lp552
(lp553
I27
ag525
aa(lp554
I28
aS'u'
p555
aa(lp556
I29
ag506
aaaa(lp557
I31
aI31
ag547
a(lp558
(lp559
I31
ag547
aaaa(lp560
I33
aI37
ag24
a(lp561
(lp562
I33
ag538
aa(lp563
I34
ag510
aa(lp564
I35
aS'v'
p565
aa(lp566
I36
ag510
aa(lp567
I37
ag512
aaaa(lp568
I39
aI43
ag33
a(lp569
(lp570
I39
ag508
aa(lp571
I40
ag510
aa(lp572
I41
ag540
aa(lp573
I42
ag512
aa(lp574
I43
aS'd'
p575
aaaa(lp576
I45
aI48
aS'them'
p577
a(lp578
(lp579
I45
ag506
aa(lp580
I46
ag508
aa(lp581
I47
ag510
aa(lp582
I48
aS'm'
p583
aaaa(lp584
I50
aI56
ag42
a(lp585
(lp586
I50
ag512
aa(lp587
I51
ag547
aa(lp588
I52
ag538
aa(lp589
I53
aS'g'
p590
aa(lp591
I54
ag547
aa(lp592
I55
ag538
aa(lp593
I56
ag590
aaaa(lp594
I58
aI59
aS'no'
p595
a(lp596
(lp597
I58
ag538
aa(lp598
I59
ag536
aaaa(lp599
I62
aI62
ag547
a(lp600
(lp601
I62
ag547
aaaa(lp602
I64
aI68
ag51
a(lp603
(lp604
I64
ag538
aa(lp605
I65
ag510
aa(lp606
I66
ag565
aa(lp607
I67
ag510
aa(lp608
I68
ag512
aaaa(lp609
I70
aI74
ag60
a(lp610
(lp611
I70
ag508
aa(lp612
I71
ag510
aa(lp613
I72
ag540
aa(lp614
I73
ag512
aa(lp615
I74
ag575
aaaa(lp616
I76
aI79
aS'them'
p617
a(lp618
(lp619
I76
ag506
aa(lp620
I77
ag508
aa(lp621
I78
ag510
aa(lp622
I79
ag583
aaaa(lp623
I81
aI82
aS'at'
p624
a(lp625
(lp626
I81
ag540
aa(lp627
I82
ag506
aaaa(lp628
I84
aI86
aS'all'
p629
a(lp630
(lp631
I84
ag540
aa(lp632
I85
ag528
aa(lp633
I86
ag528
aaaa(lp634
I88
aI91
ag69
a(lp635
(lp636
I88
ag506
aa(lp637
I89
ag547
aa(lp638
I90
ag528
aa(lp639
I91
ag528
aaaa(lp640
I93
aI97
aS'there'
p641
a(lp642
(lp643
I93
ag506
aa(lp644
I94
ag508
aa(lp645
I95
ag510
aa(lp646
I96
ag512
aa(lp647
I97
ag510
aaaa(lp648
I99
aI101
aS'was'
p649
a(lp650
(lp651
I99
ag518
aa(lp652
I100
ag540
aa(lp653
I101
ag531
aaaa(lp654
I103
aI105
aS'you'
p655
a(lp656
(lp657
I103
aS'y'
p658
aa(lp659
I104
ag536
aa(lp660
I105
ag555
aaaa(lp661
I107
aI111
aS'there'
p662
a(lp663
(lp664
I107
ag506
aa(lp665
I108
ag508
aa(lp666
I109
ag510
aa(lp667
I110
ag512
aa(lp668
I111
ag510
aaaa(lp669
I113
aI116
aS'were'
p670
a(lp671
(lp672
I113
ag518
aa(lp673
I114
ag510
aa(lp674
I115
ag512
aa(lp675
I116
ag510
aaaa(lp676
I118
aI122
ag78
a(lp677
(lp678
I118
ag525
aa(lp679
I119
ag547
aa(lp680
I120
ag512
aa(lp681
I121
ag575
aa(lp682
I122
ag531
aaaa(lp683
I124
aI125
aS'in'
p684
a(lp685
(lp686
I124
ag547
aa(lp687
I125
ag538
aaaa(lp688
I127
aI129
aS'the'
p689
a(lp690
(lp691
I127
ag506
aa(lp692
I128
ag508
aa(lp693
I129
ag510
aaaa(lp694
I131
aI133
ag87
a(lp695
(lp696
I131
ag531
aa(lp697
I132
aS'k'
p698
aa(lp699
I133
ag658
aaaa(lp700
I135
aI137
aS'but'
p701
a(lp702
(lp703
I135
ag525
aa(lp704
I136
ag555
aa(lp705
I137
ag506
aaaa(lp706
I139
aI139
ag547
a(lp707
(lp708
I139
ag547
aaaa(lp709
I141
aI145
ag96
a(lp710
(lp711
I141
ag538
aa(lp712
I142
ag510
aa(lp713
I143
ag565
aa(lp714
I144
ag510
aa(lp715
I145
ag512
aaaa(lp716
I147
aI149
ag105
a(lp717
(lp718
I147
ag531
aa(lp719
I148
ag540
aa(lp720
I149
ag518
aaaa(lp721
I151
aI154
aS'them'
p722
a(lp723
(lp724
I151
ag506
aa(lp725
I152
ag508
aa(lp726
I153
ag510
aa(lp727
I154
ag583
aaaa(lp728
I156
aI162
ag114
a(lp729
(lp730
I156
ag518
aa(lp731
I157
ag547
aa(lp732
I158
ag538
aa(lp733
I159
ag590
aa(lp734
I160
ag547
aa(lp735
I161
ag538
aa(lp736
I162
ag590
aaaa(lp737
I164
aI165
aS'no'
p738
a(lp739
(lp740
I164
ag538
aa(lp741
I165
ag536
aaaa(lp742
I168
aI168
ag547
a(lp743
(lp744
I168
ag547
aaaa(lp745
I170
aI174
ag123
a(lp746
(lp747
I170
ag538
aa(lp748
I171
ag510
aa(lp749
I172
ag565
aa(lp750
I173
ag510
aa(lp751
I174
ag512
aaaa(lp752
I176
aI178
ag132
a(lp753
(lp754
I176
ag531
aa(lp755
I177
ag540
aa(lp756
I178
ag518
aaaa(lp757
I180
aI183
aS'them'
p758
a(lp759
(lp760
I180
ag506
aa(lp761
I181
ag508
aa(lp762
I182
ag510
aa(lp763
I183
ag583
aaaa(lp764
I185
aI186
aS'at'
p765
a(lp766
(lp767
I185
ag540
aa(lp768
I186
ag506
aaaa(lp769
I188
aI190
aS'all'
p770
a(lp771
(lp772
I188
ag540
aa(lp773
I189
ag528
aa(lp774
I190
ag528
aaaa(lp775
I192
aI195
ag141
a(lp776
(lp777
I192
ag506
aa(lp778
I193
ag547
aa(lp779
I194
ag528
aa(lp780
I195
ag528
aaaa(lp781
I197
aI201
aS'there'
p782
a(lp783
(lp784
I197
ag506
aa(lp785
I198
ag508
aa(lp786
I199
ag510
aa(lp787
I200
ag512
aa(lp788
I201
ag510
aaaa(lp789
I203
aI205
aS'was'
p790
a(lp791
(lp792
I203
ag518
aa(lp793
I204
ag540
aa(lp794
I205
ag531
aaaa(lp795
I207
aI209
aS'you'
p796
a(lp797
(lp798
I207
ag658
aa(lp799
I208
ag536
aa(lp800
I209
ag555
aaaa(lp801
I211
aI214
aS'then'
p802
a(lp803
(lp804
I211
ag506
aa(lp805
I212
ag508
aa(lp806
I213
ag510
aa(lp807
I214
ag538
aaaa(lp808
I216
aI220
aS'there'
p809
a(lp810
(lp811
I216
ag506
aa(lp812
I217
ag508
aa(lp813
I218
ag510
aa(lp814
I219
ag512
aa(lp815
I220
ag510
aaaa(lp816
I222
aI224
aS'was'
p817
a(lp818
(lp819
I222
ag518
aa(lp820
I223
ag540
aa(lp821
I224
ag531
aaaa(lp822
I226
aI230
ag150
a(lp823
(lp824
I226
ag583
aa(lp825
I227
ag555
aa(lp826
I228
ag531
aa(lp827
I229
ag547
aa(lp828
I230
aS'c'
p829
aaaa(lp830
I232
aI234
aS'and'
p831
a(lp832
(lp833
I232
ag540
aa(lp834
I233
ag538
aa(lp835
I234
ag575
aaaa(lp836
I236
aI244
ag159
a(lp837
(lp838
I236
ag518
aa(lp839
I237
ag536
aa(lp840
I238
ag538
aa(lp841
I239
ag575
aa(lp842
I240
ag510
aa(lp843
I241
ag512
aa(lp844
I242
aS'f'
p845
aa(lp846
I243
ag555
aa(lp847
I244
ag528
aaaa(lp848
I246
aI250
ag168
a(lp849
(lp850
I246
ag512
aa(lp851
I247
ag536
aa(lp852
I248
ag531
aa(lp853
I249
ag510
aa(lp854
I250
ag531
aaaa(lp855
I252
aI255
aS'they'
p856
a(lp857
(lp858
I252
ag506
aa(lp859
I253
ag508
aa(lp860
I254
ag510
aa(lp861
I255
ag658
aaaa(lp862
I257
aI260
ag177
a(lp863
(lp864
I257
ag506
aa(lp865
I258
ag510
aa(lp866
I259
ag528
aa(lp867
I260
ag528
aaaa(lp868
I262
aI263
aS'me'
p869
a(lp870
(lp871
I262
ag583
aa(lp872
I263
ag510
aaaa(lp873
I265
aI266
aS'in'
p874
a(lp875
(lp876
I265
ag547
aa(lp877
I266
ag538
aaaa(lp878
I268
aI272
ag186
a(lp879
(lp880
I268
ag531
aa(lp881
I269
ag518
aa(lp882
I270
ag510
aa(lp883
I271
ag510
aa(lp884
I272
ag506
aaaa(lp885
I274
aI281
ag195
a(lp886
(lp887
I274
ag845
aa(lp888
I275
ag512
aa(lp889
I276
ag540
aa(lp890
I277
ag590
aa(lp891
I278
ag512
aa(lp892
I279
ag540
aa(lp893
I280
ag538
aa(lp894
I281
ag506
aaaa(lp895
I283
aI289
ag204
a(lp896
(lp897
I283
ag583
aa(lp898
I284
ag510
aa(lp899
I285
ag540
aa(lp900
I286
ag575
aa(lp901
I287
ag536
aa(lp902
I288
ag518
aa(lp903
I289
ag531
aaaa(lp904
I291
aI292
aS'of'
p905
a(lp906
(lp907
I291
ag536
aa(lp908
I292
ag845
aaaa(lp909
I294
aI297
ag213
a(lp910
(lp911
I294
ag575
aa(lp912
I295
ag540
aa(lp913
I296
ag518
aa(lp914
I297
ag538
aaaa(lp915
I299
aI301
aS'and'
p916
a(lp917
(lp918
I299
ag540
aa(lp919
I300
ag538
aa(lp920
I301
ag575
aaaa(lp921
I303
aI305
ag222
a(lp922
(lp923
I303
ag575
aa(lp924
I304
ag510
aa(lp925
I305
ag518
aaaa(lp926
I307
aI311
aS'there'
p927
a(lp928
(lp929
I307
ag506
aa(lp930
I308
ag508
aa(lp931
I309
ag510
aa(lp932
I310
ag512
aa(lp933
I311
ag510
aaaa(lp934
I313
aI315
aS'was'
p935
a(lp936
(lp937
I313
ag518
aa(lp938
I314
ag540
aa(lp939
I315
ag531
aaaa(lp940
I317
aI320
ag231
a(lp941
(lp942
I317
ag528
aa(lp943
I318
ag536
aa(lp944
I319
ag565
aa(lp945
I320
ag510
aaaa(lp946
I322
aI324
aS'all'
p947
a(lp948
(lp949
I322
ag540
aa(lp950
I323
ag528
aa(lp951
I324
ag528
aaaa(lp952
I326
aI331
ag240
a(lp953
(lp954
I326
ag540
aa(lp955
I327
ag512
aa(lp956
I328
ag536
aa(lp957
I329
ag555
aa(lp958
I330
ag538
aa(lp959
I331
ag575
aaaa(lp960
I333
aI335
aS'but'
p961
a(lp962
(lp963
I333
ag525
aa(lp964
I334
ag555
aa(lp965
I335
ag506
aaaa(lp966
I337
aI337
ag547
a(lp967
(lp968
I337
ag547
aaaa(lp969
I339
aI343
ag249
a(lp970
(lp971
I339
ag538
aa(lp972
I340
ag510
aa(lp973
I341
ag565
aa(lp974
I342
ag510
aa(lp975
I343
ag512
aaaa(lp976
I345
aI349
ag258
a(lp977
(lp978
I345
ag508
aa(lp979
I346
ag510
aa(lp980
I347
ag540
aa(lp981
I348
ag512
aa(lp982
I349
ag575
aaaa(lp983
I351
aI352
aS'it'
p984
a(lp985
(lp986
I351
ag547
aa(lp987
I352
ag506
aaaa(lp988
I354
aI360
ag267
a(lp989
(lp990
I354
ag531
aa(lp991
I355
ag547
aa(lp992
I356
ag538
aa(lp993
I357
ag590
aa(lp994
I358
ag547
aa(lp995
I359
ag538
aa(lp996
I360
ag590
aaaa(lp997
I362
aI363
aS'no'
p998
a(lp999
(lp1000
I362
ag538
aa(lp1001
I363
ag536
aaaa(lp1002
I365
aI365
ag547
a(lp1003
(lp1004
I365
ag547
aaaa(lp1005
I367
aI371
ag276
a(lp1006
(lp1007
I367
ag538
aa(lp1008
I368
ag510
aa(lp1009
I369
ag565
aa(lp1010
I370
ag510
aa(lp1011
I371
ag512
aaaa(lp1012
I373
aI377
ag285
a(lp1013
(lp1014
I373
ag508
aa(lp1015
I374
ag510
aa(lp1016
I375
ag540
aa(lp1017
I376
ag512
aa(lp1018
I377
ag575
aaaa(lp1019
I379
aI380
aS'it'
p1020
a(lp1021
(lp1022
I379
ag547
aa(lp1023
I380
ag506
aaaa(lp1024
I382
aI383
aS'at'
p1025
a(lp1026
(lp1027
I382
ag540
aa(lp1028
I383
ag506
aaaa(lp1029
I385
aI387
aS'all'
p1030
a(lp1031
(lp1032
I385
ag540
aa(lp1033
I386
ag528
aa(lp1034
I387
ag528
aaaa(lp1035
I389
aI392
ag294
a(lp1036
(lp1037
I389
ag506
aa(lp1038
I390
ag547
aa(lp1039
I391
ag528
aa(lp1040
I392
ag528
aaaa(lp1041
I394
aI398
aS'there'
p1042
a(lp1043
(lp1044
I394
ag506
aa(lp1045
I395
ag508
aa(lp1046
I396
ag510
aa(lp1047
I397
ag512
aa(lp1048
I398
ag510
aaaa(lp1049
I400
aI402
aS'was'
p1050
a(lp1051
(lp1052
I400
ag518
aa(lp1053
I401
ag540
aa(lp1054
I402
ag531
aaaa(lp1055
I404
aI406
aS'you'
p1056
a(lp1057
(lp1058
I404
ag658
aa(lp1059
I405
ag536
aa(lp1060
I406
ag555
aaaa(lp1061
I408
aI411
aS'then'
p1062
a(lp1063
(lp1064
I408
ag506
aa(lp1065
I409
ag508
aa(lp1066
I410
ag510
aa(lp1067
I411
ag538
aaaa(lp1068
I413
aI417
aS'there'
p1069
a(lp1070
(lp1071
I413
ag506
aa(lp1072
I414
ag508
aa(lp1073
I415
ag510
aa(lp1074
I416
ag512
aa(lp1075
I417
ag510
aaaa(lp1076
I419
aI421
aS'was'
p1077
a(lp1078
(lp1079
I419
ag518
aa(lp1080
I420
ag540
aa(lp1081
I421
ag531
aaaa(lp1082
I423
aI427
ag303
a(lp1083
(lp1084
I423
ag583
aa(lp1085
I424
ag555
aa(lp1086
I425
ag531
aa(lp1087
I426
ag547
aa(lp1088
I427
ag829
aaaa(lp1089
I429
aI431
aS'and'
p1090
a(lp1091
(lp1092
I429
ag540
aa(lp1093
I430
ag538
aa(lp1094
I431
ag575
aaaa(lp1095
I433
aI441
ag312
a(lp1096
(lp1097
I433
ag518
aa(lp1098
I434
ag536
aa(lp1099
I435
ag538
aa(lp1100
I436
ag575
aa(lp1101
I437
ag510
aa(lp1102
I438
ag512
aa(lp1103
I439
ag845
aa(lp1104
I440
ag555
aa(lp1105
I441
ag528
aaaa(lp1106
I443
aI447
ag321
a(lp1107
(lp1108
I443
ag512
aa(lp1109
I444
ag536
aa(lp1110
I445
ag531
aa(lp1111
I446
ag510
aa(lp1112
I447
ag531
aaaa(lp1113
I449
aI452
aS'they'
p1114
a(lp1115
(lp1116
I449
ag506
aa(lp1117
I450
ag508
aa(lp1118
I451
ag510
aa(lp1119
I452
ag658
aaaa(lp1120
I454
aI457
ag330
a(lp1121
(lp1122
I454
ag506
aa(lp1123
I455
ag510
aa(lp1124
I456
ag528
aa(lp1125
I457
ag528
aaaa(lp1126
I459
aI460
aS'me'
p1127
a(lp1128
(lp1129
I459
ag583
aa(lp1130
I460
ag510
aaaa(lp1131
I462
aI463
aS'in'
p1132
a(lp1133
(lp1134
I462
ag547
aa(lp1135
I463
ag538
aaaa(lp1136
I465
aI469
ag339
a(lp1137
(lp1138
I465
ag531
aa(lp1139
I466
ag518
aa(lp1140
I467
ag510
aa(lp1141
I468
ag510
aa(lp1142
I469
ag506
aaaa(lp1143
I471
aI478
ag348
a(lp1144
(lp1145
I471
ag845
aa(lp1146
I472
ag512
aa(lp1147
I473
ag540
aa(lp1148
I474
ag590
aa(lp1149
I475
ag512
aa(lp1150
I476
ag540
aa(lp1151
I477
ag538
aa(lp1152
I478
ag506
aaaa(lp1153
I480
aI486
ag357
a(lp1154
(lp1155
I480
ag583
aa(lp1156
I481
ag510
aa(lp1157
I482
ag540
aa(lp1158
I483
ag575
aa(lp1159
I484
ag536
aa(lp1160
I485
ag518
aa(lp1161
I486
ag531
aaaa(lp1162
I488
aI489
aS'of'
p1163
a(lp1164
(lp1165
I488
ag536
aa(lp1166
I489
ag845
aaaa(lp1167
I491
aI494
ag366
a(lp1168
(lp1169
I491
ag575
aa(lp1170
I492
ag540
aa(lp1171
I493
ag518
aa(lp1172
I494
ag538
aaaa(lp1173
I496
aI498
aS'and'
p1174
a(lp1175
(lp1176
I496
ag540
aa(lp1177
I497
ag538
aa(lp1178
I498
ag575
aaaa(lp1179
I500
aI502
ag375
a(lp1180
(lp1181
I500
ag575
aa(lp1182
I501
ag510
aa(lp1183
I502
ag518
aaaa(lp1184
I504
aI508
aS'there'
p1185
a(lp1186
(lp1187
I504
ag506
aa(lp1188
I505
ag508
aa(lp1189
I506
ag510
aa(lp1190
I507
ag512
aa(lp1191
I508
ag510
aaaa(lp1192
I510
aI512
aS'was'
p1193
a(lp1194
(lp1195
I510
ag518
aa(lp1196
I511
ag540
aa(lp1197
I512
ag531
aaaa(lp1198
I514
aI517
ag384
a(lp1199
(lp1200
I514
ag528
aa(lp1201
I515
ag536
aa(lp1202
I516
ag565
aa(lp1203
I517
ag510
aaaa(lp1204
I519
aI521
aS'all'
p1205
a(lp1206
(lp1207
I519
ag540
aa(lp1208
I520
ag528
aa(lp1209
I521
ag528
aaaa(lp1210
I523
aI528
ag393
a(lp1211
(lp1212
I523
ag540
aa(lp1213
I524
ag512
aa(lp1214
I525
ag536
aa(lp1215
I526
ag555
aa(lp1216
I527
ag538
aa(lp1217
I528
ag575
aaaa(lp1218
I530
aI532
aS'but'
p1219
a(lp1220
(lp1221
I530
ag525
aa(lp1222
I531
ag555
aa(lp1223
I532
ag506
aaaa(lp1224
I534
aI534
ag547
a(lp1225
(lp1226
I534
ag547
aaaa(lp1227
I536
aI540
ag402
a(lp1228
(lp1229
I536
ag538
aa(lp1230
I537
ag510
aa(lp1231
I538
ag565
aa(lp1232
I539
ag510
aa(lp1233
I540
ag512
aaaa(lp1234
I542
aI546
ag411
a(lp1235
(lp1236
I542
ag508
aa(lp1237
I543
ag510
aa(lp1238
I544
ag540
aa(lp1239
I545
ag512
aa(lp1240
I546
ag575
aaaa(lp1241
I548
aI549
aS'it'
p1242
a(lp1243
(lp1244
I548
ag547
aa(lp1245
I549
ag506
aaaa(lp1246
I551
aI557
ag420
a(lp1247
(lp1248
I551
ag531
aa(lp1249
I552
ag547
aa(lp1250
I553
ag538
aa(lp1251
I554
ag590
aa(lp1252
I555
ag547
aa(lp1253
I556
ag538
aa(lp1254
I557
ag590
aaaa(lp1255
I559
aI560
aS'no'
p1256
a(lp1257
(lp1258
I559
ag538
aa(lp1259
I560
ag536
aaaa(lp1260
I563
aI563
ag547
a(lp1261
(lp1262
I563
ag547
aaaa(lp1263
I565
aI569
ag429
a(lp1264
(lp1265
I565
ag538
aa(lp1266
I566
ag510
aa(lp1267
I567
ag565
aa(lp1268
I568
ag510
aa(lp1269
I569
ag512
aaaa(lp1270
I571
aI575
ag438
a(lp1271
(lp1272
I571
ag508
aa(lp1273
I572
ag510
aa(lp1274
I573
ag540
aa(lp1275
I574
ag512
aa(lp1276
I575
ag575
aaaa(lp1277
I577
aI578
aS'it'
p1278
a(lp1279
(lp1280
I577
ag547
aa(lp1281
I578
ag506
aaaa(lp1282
I580
aI581
aS'at'
p1283
a(lp1284
(lp1285
I580
ag540
aa(lp1286
I581
ag506
aaaa(lp1287
I583
aI585
aS'all'
p1288
a(lp1289
(lp1290
I583
ag540
aa(lp1291
I584
ag528
aa(lp1292
I585
ag528
aaaa(lp1293
I587
aI590
ag447
a(lp1294
(lp1295
I587
ag506
aa(lp1296
I588
ag547
aa(lp1297
I589
ag528
aa(lp1298
I590
ag528
aaaa(lp1299
I592
aI596
aS'there'
p1300
a(lp1301
(lp1302
I592
ag506
aa(lp1303
I593
ag508
aa(lp1304
I594
ag510
aa(lp1305
I595
ag512
aa(lp1306
I596
ag510
aaaa(lp1307
I598
aI600
aS'was'
p1308
a(lp1309
(lp1310
I598
ag518
aa(lp1311
I599
ag540
aa(lp1312
I600
ag531
aaaa(lp1313
I602
aI604
aS'you'
p1314
a(lp1315
(lp1316
I602
ag658
aa(lp1317
I603
ag536
aa(lp1318
I604
ag555
aaaa(lp1319
I606
aI609
ag456
a(lp1320
(lp1321
I606
ag506
aa(lp1322
I607
ag547
aa(lp1323
I608
ag528
aa(lp1324
I609
ag528
aaaa(lp1325
I611
aI615
aS'there'
p1326
a(lp1327
(lp1328
I611
ag506
aa(lp1329
I612
ag508
aa(lp1330
I613
ag510
aa(lp1331
I614
ag512
aa(lp1332
I615
ag510
aaaa(lp1333
I617
aI619
aS'was'
p1334
a(lp1335
(lp1336
I617
ag518
aa(lp1337
I618
ag540
aa(lp1338
I619
ag531
aaaa(lp1339
I621
aI623
aS'you'
p1340
a(lp1341
(lp1342
I621
ag658
aa(lp1343
I622
ag536
aa(lp1344
I623
ag555
aaaa(lp1345
I629
aI631
ag465
a(lp1346
(lp1347
I629
ag512
aa(lp1348
I630
ag536
aa(lp1349
I631
ag575
aaaa(lp1350
I633
aI639
ag474
a(lp1351
(lp1352
I633
ag531
aa(lp1353
I634
ag506
aa(lp1354
I635
ag510
aa(lp1355
I636
ag518
aa(lp1356
I637
ag540
aa(lp1357
I638
ag512
aa(lp1358
I639
ag506
aaaa(lp1359
I642
aI645
ag483
a(lp1360
(lp1361
I642
ag506
aa(lp1362
I643
ag547
aa(lp1363
I644
ag528
aa(lp1364
I645
ag528
aaaa(lp1365
I647
aI651
aS'there'
p1366
a(lp1367
(lp1368
I647
ag506
aa(lp1369
I648
ag508
aa(lp1370
I649
ag510
aa(lp1371
I650
ag512
aa(lp1372
I651
ag510
aaaa(lp1373
I653
aI655
aS'was'
p1374
a(lp1375
(lp1376
I653
ag518
aa(lp1377
I654
ag540
aa(lp1378
I655
ag531
aaaa(lp1379
I657
aI659
aS'you'
p1380
a(lp1381
(lp1382
I657
ag658
aa(lp1383
I658
ag536
aa(lp1384
I659
ag555
aaaa(lp1385
I657
aI659
ag492
a(lp1386
(lp1387
I661
ag528
aa(lp1388
I662
ag658
aa(lp1389
I663
ag512
aa(lp1390
I664
ag547
aa(lp1391
I665
ag829
aa(lp1392
I666
ag531
aaaasS'cleanCharacterMap'
p1393
(lp1394
g505
ag507
ag509
ag511
ag513
a(lp1395
I5
aS' '
p1396
aag517
ag519
ag520
ag521
a(lp1397
I10
ag1396
aag524
ag526
ag527
ag529
ag530
a(lp1398
I16
ag1396
aag535
ag537
a(lp1399
I19
ag1396
aag542
a(lp1400
I21
ag1396
aag545
ag546
ag548
ag549
a(lp1401
I26
ag1396
aag553
ag554
ag556
a(lp1402
I30
ag1396
aag559
a(lp1403
I32
ag1396
aag562
ag563
ag564
ag566
ag567
a(lp1404
I38
ag1396
aag570
ag571
ag572
ag573
ag574
a(lp1405
I44
ag1396
aag579
ag580
ag581
ag582
a(lp1406
I49
ag1396
aag586
ag587
ag588
ag589
ag591
ag592
ag593
a(lp1407
I57
ag1396
aag597
ag598
a(lp1408
I61
ag1396
aag601
a(lp1409
I63
ag1396
aag604
ag605
ag606
ag607
ag608
a(lp1410
I69
ag1396
aag611
ag612
ag613
ag614
ag615
a(lp1411
I75
ag1396
aag619
ag620
ag621
ag622
a(lp1412
I80
ag1396
aag626
ag627
a(lp1413
I83
ag1396
aag631
ag632
ag633
a(lp1414
I87
ag1396
aag636
ag637
ag638
ag639
a(lp1415
I92
ag1396
aag643
ag644
ag645
ag646
ag647
a(lp1416
I98
ag1396
aag651
ag652
ag653
a(lp1417
I102
ag1396
aag657
ag659
ag660
a(lp1418
I106
ag1396
aag664
ag665
ag666
ag667
ag668
a(lp1419
I112
ag1396
aag672
ag673
ag674
ag675
a(lp1420
I117
ag1396
aag678
ag679
ag680
ag681
ag682
a(lp1421
I123
ag1396
aag686
ag687
a(lp1422
I126
ag1396
aag691
ag692
ag693
a(lp1423
I130
ag1396
aag696
ag697
ag699
a(lp1424
I134
ag1396
aag703
ag704
ag705
a(lp1425
I138
ag1396
aag708
a(lp1426
I140
ag1396
aag711
ag712
ag713
ag714
ag715
a(lp1427
I146
ag1396
aag718
ag719
ag720
a(lp1428
I150
ag1396
aag724
ag725
ag726
ag727
a(lp1429
I155
ag1396
aag730
ag731
ag732
ag733
ag734
ag735
ag736
a(lp1430
I163
ag1396
aag740
ag741
a(lp1431
I167
ag1396
aag744
a(lp1432
I169
ag1396
aag747
ag748
ag749
ag750
ag751
a(lp1433
I175
ag1396
aag754
ag755
ag756
a(lp1434
I179
ag1396
aag760
ag761
ag762
ag763
a(lp1435
I184
ag1396
aag767
ag768
a(lp1436
I187
ag1396
aag772
ag773
ag774
a(lp1437
I191
ag1396
aag777
ag778
ag779
ag780
a(lp1438
I196
ag1396
aag784
ag785
ag786
ag787
ag788
a(lp1439
I202
ag1396
aag792
ag793
ag794
a(lp1440
I206
ag1396
aag798
ag799
ag800
a(lp1441
I210
ag1396
aag804
ag805
ag806
ag807
a(lp1442
I215
ag1396
aag811
ag812
ag813
ag814
ag815
a(lp1443
I221
ag1396
aag819
ag820
ag821
a(lp1444
I225
ag1396
aag824
ag825
ag826
ag827
ag828
a(lp1445
I231
ag1396
aag833
ag834
ag835
a(lp1446
I235
ag1396
aag838
ag839
ag840
ag841
ag842
ag843
ag844
ag846
ag847
a(lp1447
I245
ag1396
aag850
ag851
ag852
ag853
ag854
a(lp1448
I251
ag1396
aag858
ag859
ag860
ag861
a(lp1449
I256
ag1396
aag864
ag865
ag866
ag867
a(lp1450
I261
ag1396
aag871
ag872
a(lp1451
I264
ag1396
aag876
ag877
a(lp1452
I267
ag1396
aag880
ag881
ag882
ag883
ag884
a(lp1453
I273
ag1396
aag887
ag888
ag889
ag890
ag891
ag892
ag893
ag894
a(lp1454
I282
ag1396
aag897
ag898
ag899
ag900
ag901
ag902
ag903
a(lp1455
I290
ag1396
aag907
ag908
a(lp1456
I293
ag1396
aag911
ag912
ag913
ag914
a(lp1457
I298
ag1396
aag918
ag919
ag920
a(lp1458
I302
ag1396
aag923
ag924
ag925
a(lp1459
I306
ag1396
aag929
ag930
ag931
ag932
ag933
a(lp1460
I312
ag1396
aag937
ag938
ag939
a(lp1461
I316
ag1396
aag942
ag943
ag944
ag945
a(lp1462
I321
ag1396
aag949
ag950
ag951
a(lp1463
I325
ag1396
aag954
ag955
ag956
ag957
ag958
ag959
a(lp1464
I332
ag1396
aag963
ag964
ag965
a(lp1465
I336
ag1396
aag968
a(lp1466
I338
ag1396
aag971
ag972
ag973
ag974
ag975
a(lp1467
I344
ag1396
aag978
ag979
ag980
ag981
ag982
a(lp1468
I350
ag1396
aag986
ag987
a(lp1469
I353
ag1396
aag990
ag991
ag992
ag993
ag994
ag995
ag996
a(lp1470
I361
ag1396
aag1000
ag1001
a(lp1471
I364
ag1396
aag1004
a(lp1472
I366
ag1396
aag1007
ag1008
ag1009
ag1010
ag1011
a(lp1473
I372
ag1396
aag1014
ag1015
ag1016
ag1017
ag1018
a(lp1474
I378
ag1396
aag1022
ag1023
a(lp1475
I381
ag1396
aag1027
ag1028
a(lp1476
I384
ag1396
aag1032
ag1033
ag1034
a(lp1477
I388
ag1396
aag1037
ag1038
ag1039
ag1040
a(lp1478
I393
ag1396
aag1044
ag1045
ag1046
ag1047
ag1048
a(lp1479
I399
ag1396
aag1052
ag1053
ag1054
a(lp1480
I403
ag1396
aag1058
ag1059
ag1060
a(lp1481
I407
ag1396
aag1064
ag1065
ag1066
ag1067
a(lp1482
I412
ag1396
aag1071
ag1072
ag1073
ag1074
ag1075
a(lp1483
I418
ag1396
aag1079
ag1080
ag1081
a(lp1484
I422
ag1396
aag1084
ag1085
ag1086
ag1087
ag1088
a(lp1485
I428
ag1396
aag1092
ag1093
ag1094
a(lp1486
I432
ag1396
aag1097
ag1098
ag1099
ag1100
ag1101
ag1102
ag1103
ag1104
ag1105
a(lp1487
I442
ag1396
aag1108
ag1109
ag1110
ag1111
ag1112
a(lp1488
I448
ag1396
aag1116
ag1117
ag1118
ag1119
a(lp1489
I453
ag1396
aag1122
ag1123
ag1124
ag1125
a(lp1490
I458
ag1396
aag1129
ag1130
a(lp1491
I461
ag1396
aag1134
ag1135
a(lp1492
I464
ag1396
aag1138
ag1139
ag1140
ag1141
ag1142
a(lp1493
I470
ag1396
aag1145
ag1146
ag1147
ag1148
ag1149
ag1150
ag1151
ag1152
a(lp1494
I479
ag1396
aag1155
ag1156
ag1157
ag1158
ag1159
ag1160
ag1161
a(lp1495
I487
ag1396
aag1165
ag1166
a(lp1496
I490
ag1396
aag1169
ag1170
ag1171
ag1172
a(lp1497
I495
ag1396
aag1176
ag1177
ag1178
a(lp1498
I499
ag1396
aag1181
ag1182
ag1183
a(lp1499
I503
ag1396
aag1187
ag1188
ag1189
ag1190
ag1191
a(lp1500
I509
ag1396
aag1195
ag1196
ag1197
a(lp1501
I513
ag1396
aag1200
ag1201
ag1202
ag1203
a(lp1502
I518
ag1396
aag1207
ag1208
ag1209
a(lp1503
I522
ag1396
aag1212
ag1213
ag1214
ag1215
ag1216
ag1217
a(lp1504
I529
ag1396
aag1221
ag1222
ag1223
a(lp1505
I533
ag1396
aag1226
a(lp1506
I535
ag1396
aag1229
ag1230
ag1231
ag1232
ag1233
a(lp1507
I541
ag1396
aag1236
ag1237
ag1238
ag1239
ag1240
a(lp1508
I547
ag1396
aag1244
ag1245
a(lp1509
I550
ag1396
aag1248
ag1249
ag1250
ag1251
ag1252
ag1253
ag1254
a(lp1510
I558
ag1396
aag1258
ag1259
a(lp1511
I562
ag1396
aag1262
a(lp1512
I564
ag1396
aag1265
ag1266
ag1267
ag1268
ag1269
a(lp1513
I570
ag1396
aag1272
ag1273
ag1274
ag1275
ag1276
a(lp1514
I576
ag1396
aag1280
ag1281
a(lp1515
I579
ag1396
aag1285
ag1286
a(lp1516
I582
ag1396
aag1290
ag1291
ag1292
a(lp1517
I586
ag1396
aag1295
ag1296
ag1297
ag1298
a(lp1518
I591
ag1396
aag1302
ag1303
ag1304
ag1305
ag1306
a(lp1519
I597
ag1396
aag1310
ag1311
ag1312
a(lp1520
I601
ag1396
aag1316
ag1317
ag1318
a(lp1521
I605
ag1396
aag1321
ag1322
ag1323
ag1324
a(lp1522
I610
ag1396
aag1328
ag1329
ag1330
ag1331
ag1332
a(lp1523
I616
ag1396
aag1336
ag1337
ag1338
a(lp1524
I620
ag1396
aag1342
ag1343
ag1344
a(lp1525
I624
ag1396
aa(lp1526
I626
ag1396
aa(lp1527
I628
ag1396
aag1347
ag1348
ag1349
a(lp1528
I632
ag1396
aag1352
ag1353
ag1354
ag1355
ag1356
ag1357
ag1358
a(lp1529
I640
ag1396
aag1361
ag1362
ag1363
ag1364
a(lp1530
I646
ag1396
aag1368
ag1369
ag1370
ag1371
ag1372
a(lp1531
I652
ag1396
aag1376
ag1377
ag1378
a(lp1532
I656
ag1396
aag1382
ag1383
ag1384
a(lp1533
I660
ag1396
aag1387
ag1388
ag1389
ag1390
ag1391
ag1392
asS'text'
p1534
S"there were bells on a hill but i never heard them ringing no, i never heard them at all till there was you there were birds in the sky but i never saw them winging no, i never saw them at all till there was you then there was music and wonderful roses they tell me in sweet fragrant meadows of dawn and dew there was love all around but i never heard it singing no i never heard it at all till there was you then there was music and wonderful roses they tell me in sweet fragrant meadows of dawn and dew there was love all around but i never heard it singing no, i never heard it at all till there was you till there was you | | rod stewart 'till there was you lyrics"
p1535
sS'cleanWordMap'
p1536
(lp1537
g522
ag543
ag560
ag568
ag584
ag602
ag609
ag634
ag676
ag694
ag709
ag716
ag728
ag745
ag752
ag775
ag822
ag836
ag848
ag862
ag878
ag885
ag895
ag909
ag921
ag940
ag952
ag969
ag976
ag988
ag1005
ag1012
ag1035
ag1082
ag1095
ag1106
ag1120
ag1136
ag1143
ag1153
ag1167
ag1179
ag1198
ag1210
ag1227
ag1234
ag1246
ag1263
ag1270
ag1293
ag1319
ag1345
ag1350
ag1359
ag1385
asS'lines'
p1538
(lp1539
VThere were bells on a hill But I never heard them ringing No, I never heard them at all Till there was you There were birds in the sky But I never saw them winging No, I never saw them at all Till there was you Then there was music and wonderful roses They tell me in sweet fragrant meadows Of dawn and dew There was love all around But I never heard it singing No I never heard it at all Till there was you Then there was music and wonderful roses They tell me in sweet fragrant meadows Of dawn and dew There was love all around But I never heard it singing No, I never heard it at all Till there was you Till there was you | |\u000a
p1540
aVROD STEWART 'TILL THERE WAS YOU LYRICS
p1541
asS'docType'
p1542
S'src'
p1543
sS'newfmap'
p1544
(lp1545
g4
ag8
ag10
ag12
ag14
ag17
ag19
ag21
ag23
ag26
ag28
ag30
ag35
ag37
ag39
ag41
ag44
ag46
ag48
ag50
ag53
ag55
ag57
ag62
ag64
ag73
ag77
ag80
ag82
ag84
ag86
ag89
ag91
ag93
ag95
ag98
ag100
ag102
ag104
ag107
ag109
ag111
ag113
ag116
ag118
ag120
ag122
ag125
ag127
ag129
ag131
ag134
ag136
ag138
ag140
ag145
ag147
ag149
ag152
ag154
ag156
ag158
ag161
ag163
ag165
ag167
ag170
ag172
ag174
ag176
ag179
ag181
ag183
ag185
ag188
ag190
ag192
ag194
ag197
ag199
ag201
ag203
ag206
ag208
ag210
ag212
ag215
ag217
ag219
ag221
ag224
ag226
ag228
ag230
ag233
ag235
ag237
ag239
ag242
ag244
ag246
ag248
ag251
ag253
ag255
ag260
ag262
ag264
ag266
ag269
ag271
ag273
ag275
ag278
ag280
ag282
ag287
ag289
ag298
ag302
ag305
ag307
ag309
ag311
ag314
ag316
ag318
ag320
ag323
ag325
ag327
ag329
ag332
ag334
ag336
ag338
ag341
ag343
ag345
ag347
ag350
ag352
ag354
ag356
ag359
ag361
ag363
ag365
ag368
ag370
ag372
ag374
ag377
ag379
ag381
ag383
ag386
ag388
ag390
ag392
ag395
ag397
ag399
ag401
ag404
ag406
ag408
ag413
ag415
ag417
ag419
ag422
ag424
ag426
ag428
ag431
ag433
ag435
ag440
ag442
ag451
ag455
ag462
ag464
ag467
ag469
ag471
ag473
ag476
ag478
ag480
ag482
ag485
ag487
ag489
ag491
ag494
ag496
ag498
asS'featureMap'
p1546
(lp1547
(lp1548
I11
aI15
ag5
ag6
ag9
ag11
ag13
aa(lp1549
I22
aI25
ag15
ag16
ag18
ag20
ag22
aa(lp1550
I33
aI37
ag24
ag25
ag27
ag29
ag31
aa(lp1551
I39
aI43
ag33
ag34
ag36
ag38
ag40
aa(lp1552
I50
aI56
ag42
ag43
ag45
ag47
ag49
aa(lp1553
I64
aI68
ag51
ag52
ag54
ag56
ag58
aa(lp1554
I70
aI74
ag60
ag61
ag63
ag65
ag67
aa(lp1555
I88
aI91
ag69
ag70
ag72
ag74
ag76
aa(lp1556
I118
aI122
ag78
ag79
ag81
ag83
ag85
aa(lp1557
I131
aI133
ag87
ag88
ag90
ag92
ag94
aa(lp1558
I141
aI145
ag96
ag97
ag99
ag101
ag103
aa(lp1559
I147
aI149
ag105
ag106
ag108
ag110
ag112
aa(lp1560
I156
aI162
ag114
ag115
ag117
ag119
ag121
aa(lp1561
I170
aI174
ag123
ag124
ag126
ag128
ag130
aa(lp1562
I176
aI178
ag132
ag133
ag135
ag137
ag139
aa(lp1563
I192
aI195
ag141
ag142
ag144
ag146
ag148
aa(lp1564
I226
aI230
ag150
ag151
ag153
ag155
ag157
aa(lp1565
I236
aI244
ag159
ag160
ag162
ag164
ag166
aa(lp1566
I246
aI250
ag168
ag169
ag171
ag173
ag175
aa(lp1567
I257
aI260
ag177
ag178
ag180
ag182
ag184
aa(lp1568
I268
aI272
ag186
ag187
ag189
ag191
ag193
aa(lp1569
I274
aI281
ag195
ag196
ag198
ag200
ag202
aa(lp1570
I283
aI289
ag204
ag205
ag207
ag209
ag211
aa(lp1571
I294
aI297
ag213
ag214
ag216
ag218
ag220
aa(lp1572
I303
aI305
ag222
ag223
ag225
ag227
ag229
aa(lp1573
I317
aI320
ag231
ag232
ag234
ag236
ag238
aa(lp1574
I326
aI331
ag240
ag241
ag243
ag245
ag247
aa(lp1575
I339
aI343
ag249
ag250
ag252
ag254
ag256
aa(lp1576
I345
aI349
ag258
ag259
ag261
ag263
ag265
aa(lp1577
I354
aI360
ag267
ag268
ag270
ag272
ag274
aa(lp1578
I367
aI371
ag276
ag277
ag279
ag281
ag283
aa(lp1579
I373
aI377
ag285
ag286
ag288
ag290
ag292
aa(lp1580
I389
aI392
ag294
ag295
ag297
ag299
ag301
aa(lp1581
I423
aI427
ag303
ag304
ag306
ag308
ag310
aa(lp1582
I433
aI441
ag312
ag313
ag315
ag317
ag319
aa(lp1583
I443
aI447
ag321
ag322
ag324
ag326
ag328
aa(lp1584
I454
aI457
ag330
ag331
ag333
ag335
ag337
aa(lp1585
I465
aI469
ag339
ag340
ag342
ag344
ag346
aa(lp1586
I471
aI478
ag348
ag349
ag351
ag353
ag355
aa(lp1587
I480
aI486
ag357
ag358
ag360
ag362
ag364
aa(lp1588
I491
aI494
ag366
ag367
ag369
ag371
ag373
aa(lp1589
I500
aI502
ag375
ag376
ag378
ag380
ag382
aa(lp1590
I514
aI517
ag384
ag385
ag387
ag389
ag391
aa(lp1591
I523
aI528
ag393
ag394
ag396
ag398
ag400
aa(lp1592
I536
aI540
ag402
ag403
ag405
ag407
ag409
aa(lp1593
I542
aI546
ag411
ag412
ag414
ag416
ag418
aa(lp1594
I551
aI557
ag420
ag421
ag423
ag425
ag427
aa(lp1595
I565
aI569
ag429
ag430
ag432
ag434
ag436
aa(lp1596
I571
aI575
ag438
ag439
ag441
ag443
ag445
aa(lp1597
I587
aI590
ag447
ag448
ag450
ag452
ag454
aa(lp1598
I606
aI609
ag456
ag457
ag459
ag461
ag463
aa(lp1599
I629
aI631
ag465
ag466
ag468
ag470
ag472
aa(lp1600
I633
aI639
ag474
ag475
ag477
ag479
ag481
aa(lp1601
I642
aI645
ag483
ag484
ag486
ag488
ag490
aa(lp1602
I657
aI659
ag492
ag493
ag495
ag497
ag499
aasS'characterMap'
p1603
(lp1604
g505
ag507
ag509
ag511
ag513
ag1395
ag517
ag519
ag520
ag521
ag1397
ag524
ag526
ag527
ag529
ag530
ag1398
ag535
ag537
ag1399
ag542
ag1400
ag545
ag546
ag548
ag549
ag1401
ag553
ag554
ag556
ag1402
ag559
ag1403
ag562
ag563
ag564
ag566
ag567
ag1404
ag570
ag571
ag572
ag573
ag574
ag1405
ag579
ag580
ag581
ag582
ag1406
ag586
ag587
ag588
ag589
ag591
ag592
ag593
ag1407
ag597
ag598
a(lp1605
I60
aS','
p1606
aag1408
ag601
ag1409
ag604
ag605
ag606
ag607
ag608
ag1410
ag611
ag612
ag613
ag614
ag615
ag1411
ag619
ag620
ag621
ag622
ag1412
ag626
ag627
ag1413
ag631
ag632
ag633
ag1414
ag636
ag637
ag638
ag639
ag1415
ag643
ag644
ag645
ag646
ag647
ag1416
ag651
ag652
ag653
ag1417
ag657
ag659
ag660
ag1418
ag664
ag665
ag666
ag667
ag668
ag1419
ag672
ag673
ag674
ag675
ag1420
ag678
ag679
ag680
ag681
ag682
ag1421
ag686
ag687
ag1422
ag691
ag692
ag693
ag1423
ag696
ag697
ag699
ag1424
ag703
ag704
ag705
ag1425
ag708
ag1426
ag711
ag712
ag713
ag714
ag715
ag1427
ag718
ag719
ag720
ag1428
ag724
ag725
ag726
ag727
ag1429
ag730
ag731
ag732
ag733
ag734
ag735
ag736
ag1430
ag740
ag741
a(lp1607
I166
ag1606
aag1431
ag744
ag1432
ag747
ag748
ag749
ag750
ag751
ag1433
ag754
ag755
ag756
ag1434
ag760
ag761
ag762
ag763
ag1435
ag767
ag768
ag1436
ag772
ag773
ag774
ag1437
ag777
ag778
ag779
ag780
ag1438
ag784
ag785
ag786
ag787
ag788
ag1439
ag792
ag793
ag794
ag1440
ag798
ag799
ag800
ag1441
ag804
ag805
ag806
ag807
ag1442
ag811
ag812
ag813
ag814
ag815
ag1443
ag819
ag820
ag821
ag1444
ag824
ag825
ag826
ag827
ag828
ag1445
ag833
ag834
ag835
ag1446
ag838
ag839
ag840
ag841
ag842
ag843
ag844
ag846
ag847
ag1447
ag850
ag851
ag852
ag853
ag854
ag1448
ag858
ag859
ag860
ag861
ag1449
ag864
ag865
ag866
ag867
ag1450
ag871
ag872
ag1451
ag876
ag877
ag1452
ag880
ag881
ag882
ag883
ag884
ag1453
ag887
ag888
ag889
ag890
ag891
ag892
ag893
ag894
ag1454
ag897
ag898
ag899
ag900
ag901
ag902
ag903
ag1455
ag907
ag908
ag1456
ag911
ag912
ag913
ag914
ag1457
ag918
ag919
ag920
ag1458
ag923
ag924
ag925
ag1459
ag929
ag930
ag931
ag932
ag933
ag1460
ag937
ag938
ag939
ag1461
ag942
ag943
ag944
ag945
ag1462
ag949
ag950
ag951
ag1463
ag954
ag955
ag956
ag957
ag958
ag959
ag1464
ag963
ag964
ag965
ag1465
ag968
ag1466
ag971
ag972
ag973
ag974
ag975
ag1467
ag978
ag979
ag980
ag981
ag982
ag1468
ag986
ag987
ag1469
ag990
ag991
ag992
ag993
ag994
ag995
ag996
ag1470
ag1000
ag1001
ag1471
ag1004
ag1472
ag1007
ag1008
ag1009
ag1010
ag1011
ag1473
ag1014
ag1015
ag1016
ag1017
ag1018
ag1474
ag1022
ag1023
ag1475
ag1027
ag1028
ag1476
ag1032
ag1033
ag1034
ag1477
ag1037
ag1038
ag1039
ag1040
ag1478
ag1044
ag1045
ag1046
ag1047
ag1048
ag1479
ag1052
ag1053
ag1054
ag1480
ag1058
ag1059
ag1060
ag1481
ag1064
ag1065
ag1066
ag1067
ag1482
ag1071
ag1072
ag1073
ag1074
ag1075
ag1483
ag1079
ag1080
ag1081
ag1484
ag1084
ag1085
ag1086
ag1087
ag1088
ag1485
ag1092
ag1093
ag1094
ag1486
ag1097
ag1098
ag1099
ag1100
ag1101
ag1102
ag1103
ag1104
ag1105
ag1487
ag1108
ag1109
ag1110
ag1111
ag1112
ag1488
ag1116
ag1117
ag1118
ag1119
ag1489
ag1122
ag1123
ag1124
ag1125
ag1490
ag1129
ag1130
ag1491
ag1134
ag1135
ag1492
ag1138
ag1139
ag1140
ag1141
ag1142
ag1493
ag1145
ag1146
ag1147
ag1148
ag1149
ag1150
ag1151
ag1152
ag1494
ag1155
ag1156
ag1157
ag1158
ag1159
ag1160
ag1161
ag1495
ag1165
ag1166
ag1496
ag1169
ag1170
ag1171
ag1172
ag1497
ag1176
ag1177
ag1178
ag1498
ag1181
ag1182
ag1183
ag1499
ag1187
ag1188
ag1189
ag1190
ag1191
ag1500
ag1195
ag1196
ag1197
ag1501
ag1200
ag1201
ag1202
ag1203
ag1502
ag1207
ag1208
ag1209
ag1503
ag1212
ag1213
ag1214
ag1215
ag1216
ag1217
ag1504
ag1221
ag1222
ag1223
ag1505
ag1226
ag1506
ag1229
ag1230
ag1231
ag1232
ag1233
ag1507
ag1236
ag1237
ag1238
ag1239
ag1240
ag1508
ag1244
ag1245
ag1509
ag1248
ag1249
ag1250
ag1251
ag1252
ag1253
ag1254
ag1510
ag1258
ag1259
a(lp1608
I561
ag1606
aag1511
ag1262
ag1512
ag1265
ag1266
ag1267
ag1268
ag1269
ag1513
ag1272
ag1273
ag1274
ag1275
ag1276
ag1514
ag1280
ag1281
ag1515
ag1285
ag1286
ag1516
ag1290
ag1291
ag1292
ag1517
ag1295
ag1296
ag1297
ag1298
ag1518
ag1302
ag1303
ag1304
ag1305
ag1306
ag1519
ag1310
ag1311
ag1312
ag1520
ag1316
ag1317
ag1318
ag1521
ag1321
ag1322
ag1323
ag1324
ag1522
ag1328
ag1329
ag1330
ag1331
ag1332
ag1523
ag1336
ag1337
ag1338
ag1524
ag1342
ag1343
ag1344
ag1525
a(lp1609
I625
aS'|'
p1610
aag1526
a(lp1611
I627
ag1610
aag1527
ag1347
ag1348
ag1349
ag1528
ag1352
ag1353
ag1354
ag1355
ag1356
ag1357
ag1358
ag1529
a(lp1612
I641
aS"'"
p1613
aag1361
ag1362
ag1363
ag1364
ag1530
ag1368
ag1369
ag1370
ag1371
ag1372
ag1531
ag1376
ag1377
ag1378
ag1532
ag1382
ag1383
ag1384
ag1533
ag1387
ag1388
ag1389
ag1390
ag1391
ag1392
asS'docName'
p1614
S'source-document01273.txt'
p1615
sb.