(iModel.Document
Document
p0
(dp1
S'fmap'
p2
(lp3
(lp4
I0
aI8
aS'traveling'
p5
a(lp6
S'*'
p7
ag5
aaa(lp8
I0
aI8
ag5
a(lp9
g7
ag5
aaa(lp10
I0
aI8
ag5
a(lp11
g7
ag5
aaa(lp12
I0
aI8
ag5
a(lp13
g7
ag5
aaa(lp14
I15
aI18
aS'food'
p15
a(lp16
g5
ag15
aaa(lp17
I15
aI18
ag15
a(lp18
g7
ag15
aaa(lp19
I15
aI18
ag15
a(lp20
g7
ag15
aaa(lp21
I15
aI18
ag15
a(lp22
g7
ag15
aaa(lp23
I23
aI27
aS'gifts'
p24
a(lp25
g15
ag24
aaa(lp26
I23
aI27
ag24
a(lp27
g5
ag24
aaa(lp28
I23
aI27
ag24
a(lp29
g7
ag24
aaa(lp30
I23
aI27
ag24
a(lp31
g7
ag24
aaa(lp32
I36
aI39
aS'pack'
p33
a(lp34
g24
ag33
aaa(lp35
I36
aI39
ag33
a(lp36
g15
ag33
aaa(lp37
I36
aI39
ag33
a(lp38
g5
ag33
aaa(lp39
I36
aI39
ag33
a(lp40
g7
ag33
aaa(lp41
I41
aI44
aS'food'
p42
a(lp43
g33
ag42
aaa(lp44
I41
aI44
ag42
a(lp45
g24
ag42
aaa(lp46
I41
aI44
ag42
a(lp47
g15
ag42
aaa(lp48
I41
aI44
ag42
a(lp49
g5
ag42
aaa(lp50
I50
aI53
aS'gift'
p51
a(lp52
g42
ag51
aaa(lp53
I50
aI53
ag51
a(lp54
g33
ag51
aaa(lp55
I50
aI53
ag51
a(lp56
g24
ag51
aaa(lp57
I50
aI53
ag51
a(lp58
g15
ag51
aaa(lp59
I55
aI59
aS'items'
p60
a(lp61
g51
ag60
aaa(lp62
I55
aI59
ag60
a(lp63
g42
ag60
aaa(lp64
I55
aI59
ag60
a(lp65
g33
ag60
aaa(lp66
I55
aI59
ag60
a(lp67
g24
ag60
aaa(lp68
I69
aI73
aS'comes'
p69
a(lp70
g60
ag69
aaa(lp71
I69
aI73
ag69
a(lp72
g51
ag69
aaa(lp73
I69
aI73
ag69
a(lp74
g42
ag69
aaa(lp75
I69
aI73
ag69
a(lp76
g33
ag69
aaa(lp77
I78
aI85
aS'bringing'
p78
a(lp79
g69
ag78
aaa(lp80
I78
aI85
ag78
a(lp81
g60
ag78
aaa(lp82
I78
aI85
ag78
a(lp83
g51
ag78
aaa(lp84
I78
aI85
ag78
a(lp85
g42
ag78
aaa(lp86
I87
aI91
aS'items'
p87
a(lp88
g78
ag87
aaa(lp89
I87
aI91
ag87
a(lp90
g69
ag87
aaa(lp91
I87
aI91
ag87
a(lp92
g60
ag87
aaa(lp93
I87
aI91
ag87
a(lp94
g51
ag87
aaa(lp95
I101
aI111
aS'checkpoints'
p96
a(lp97
g87
ag96
aaa(lp98
I101
aI111
ag96
a(lp99
g78
ag96
aaa(lp100
I101
aI111
ag96
a(lp101
g69
ag96
aaa(lp102
I101
aI111
ag96
a(lp103
g60
ag96
aaa(lp104
I114
aI118
aS'weve'
p105
a(lp106
g96
ag105
aaa(lp107
I114
aI118
ag105
a(lp108
g87
ag105
aaa(lp109
I114
aI118
ag105
a(lp110
g78
ag105
aaa(lp111
I114
aI118
ag105
a(lp112
g69
ag105
aaa(lp113
I120
aI123
aS'seen'
p114
a(lp115
g105
ag114
aaa(lp116
I120
aI123
ag114
a(lp117
g96
ag114
aaa(lp118
I120
aI123
ag114
a(lp119
g87
ag114
aaa(lp120
I120
aI123
ag114
a(lp121
g78
ag114
aaa(lp122
I136
aI145
aS'everything'
p123
a(lp124
g114
ag123
aaa(lp125
I136
aI145
ag123
a(lp126
g105
ag123
aaa(lp127
I136
aI145
ag123
a(lp128
g96
ag123
aaa(lp129
I136
aI145
ag123
a(lp130
g87
ag123
aaa(lp131
I148
aI156
aS'traveling'
p132
a(lp133
g123
ag132
aaa(lp134
I148
aI156
ag132
a(lp135
g114
ag132
aaa(lp136
I148
aI156
ag132
a(lp137
g105
ag132
aaa(lp138
I148
aI156
ag132
a(lp139
g96
ag132
aaa(lp140
I163
aI166
aS'food'
p141
a(lp142
g132
ag141
aaa(lp143
I163
aI166
ag141
a(lp144
g123
ag141
aaa(lp145
I163
aI166
ag141
a(lp146
g114
ag141
aaa(lp147
I163
aI166
ag141
a(lp148
g105
ag141
aaa(lp149
I171
aI175
aS'gifts'
p150
a(lp151
g141
ag150
aaa(lp152
I171
aI175
ag150
a(lp153
g132
ag150
aaa(lp154
I171
aI175
ag150
a(lp155
g123
ag150
aaa(lp156
I171
aI175
ag150
a(lp157
g114
ag150
aaa(lp158
I183
aI186
aS'even'
p159
a(lp160
g150
ag159
aaa(lp161
I183
aI186
ag159
a(lp162
g141
ag159
aaa(lp163
I183
aI186
ag159
a(lp164
g132
ag159
aaa(lp165
I183
aI186
ag159
a(lp166
g123
ag159
aaa(lp167
I188
aI193
aS'bigger'
p168
a(lp169
g159
ag168
aaa(lp170
I188
aI193
ag168
a(lp171
g150
ag168
aaa(lp172
I188
aI193
ag168
a(lp173
g141
ag168
aaa(lp174
I188
aI193
ag168
a(lp175
g132
ag168
aaa(lp176
I195
aI203
aS'challenge'
p177
a(lp178
g168
ag177
aaa(lp179
I195
aI203
ag177
a(lp180
g159
ag177
aaa(lp181
I195
aI203
ag177
a(lp182
g150
ag177
aaa(lp183
I195
aI203
ag177
a(lp184
g141
ag177
aaa(lp185
I206
aI213
aS'everyone'
p186
a(lp187
g177
ag186
aaa(lp188
I206
aI213
ag186
a(lp189
g168
ag186
aaa(lp190
I206
aI213
ag186
a(lp191
g159
ag186
aaa(lp192
I206
aI213
ag186
a(lp193
g150
ag186
aaa(lp194
I219
aI226
aS'favorite'
p195
a(lp196
g186
ag195
aaa(lp197
I219
aI226
ag195
a(lp198
g177
ag195
aaa(lp199
I219
aI226
ag195
a(lp200
g168
ag195
aaa(lp201
I219
aI226
ag195
a(lp202
g159
ag195
aaa(lp203
I228
aI232
aS'foods'
p204
a(lp205
g195
ag204
aaa(lp206
I228
aI232
ag204
a(lp207
g186
ag204
aaa(lp208
I228
aI232
ag204
a(lp209
g177
ag204
aaa(lp210
I228
aI232
ag204
a(lp211
g168
ag204
aaa(lp212
I239
aI242
aS'home'
p213
a(lp214
g204
ag213
aaa(lp215
I239
aI242
ag213
a(lp216
g195
ag213
aaa(lp217
I239
aI242
ag213
a(lp218
g186
ag213
aaa(lp219
I239
aI242
ag213
a(lp220
g177
ag213
aaa(lp221
I254
aI257
aS'want'
p222
a(lp223
g213
ag222
aaa(lp224
I254
aI257
ag222
a(lp225
g204
ag222
aaa(lp226
I254
aI257
ag222
a(lp227
g195
ag222
aaa(lp228
I254
aI257
ag222
a(lp229
g186
ag222
aaa(lp230
I262
aI266
aS'bring'
p231
a(lp232
g222
ag231
aaa(lp233
I262
aI266
ag231
a(lp234
g213
ag231
aaa(lp235
I262
aI266
ag231
a(lp236
g204
ag231
aaa(lp237
I262
aI266
ag231
a(lp238
g195
ag231
aaa(lp239
I271
aI277
aS'holiday'
p240
a(lp241
g231
ag240
aaa(lp242
I271
aI277
ag240
a(lp243
g222
ag240
aaa(lp244
I271
aI277
ag240
a(lp245
g213
ag240
aaa(lp246
I271
aI277
ag240
a(lp247
g204
ag240
aaa(lp248
I279
aI285
aS'dinners'
p249
a(lp250
g240
ag249
aaa(lp251
I279
aI285
ag249
a(lp252
g231
ag249
aaa(lp253
I279
aI285
ag249
a(lp254
g222
ag249
aaa(lp255
I279
aI285
ag249
a(lp256
g213
ag249
aaa(lp257
I291
aI295
aS'items'
p258
a(lp259
g249
ag258
aaa(lp260
I291
aI295
ag258
a(lp261
g240
ag258
aaa(lp262
I291
aI295
ag258
a(lp263
g231
ag258
aaa(lp264
I291
aI295
ag258
a(lp265
g222
ag258
aaa(lp266
I308
aI318
aS'destination'
p267
a(lp268
g258
ag267
aaa(lp269
I308
aI318
ag267
a(lp270
g249
ag267
aaa(lp271
I308
aI318
ag267
a(lp272
g240
ag267
aaa(lp273
I308
aI318
ag267
a(lp274
g231
ag267
aaa(lp275
I330
aI333
aS'want'
p276
a(lp277
g267
ag276
aaa(lp278
I330
aI333
ag276
a(lp279
g258
ag276
aaa(lp280
I330
aI333
ag276
a(lp281
g249
ag276
aaa(lp282
I330
aI333
ag276
a(lp283
g240
ag276
aaa(lp284
I338
aI342
aS'bring'
p285
a(lp286
g276
ag285
aaa(lp287
I338
aI342
ag285
a(lp288
g267
ag285
aaa(lp289
I338
aI342
ag285
a(lp290
g258
ag285
aaa(lp291
I338
aI342
ag285
a(lp292
g249
ag285
aaa(lp293
I344
aI347
aS'back'
p294
a(lp295
g285
ag294
aaa(lp296
I344
aI347
ag294
a(lp297
g276
ag294
aaa(lp298
I344
aI347
ag294
a(lp299
g267
ag294
aaa(lp300
I344
aI347
ag294
a(lp301
g258
ag294
aaa(lp302
I349
aI352
aS'home'
p303
a(lp304
g294
ag303
aaa(lp305
I349
aI352
ag303
a(lp306
g285
ag303
aaa(lp307
I349
aI352
ag303
a(lp308
g276
ag303
aaa(lp309
I349
aI352
ag303
a(lp310
g267
ag303
aaa(lp311
I359
aI362
aS'sure'
p312
a(lp313
g303
ag312
aaa(lp314
I359
aI362
ag312
a(lp315
g294
ag312
aaa(lp316
I359
aI362
ag312
a(lp317
g285
ag312
aaa(lp318
I359
aI362
ag312
a(lp319
g276
ag312
aaa(lp320
I387
aI391
aS'cant'
p321
a(lp322
g312
ag321
aaa(lp323
I387
aI391
ag321
a(lp324
g303
ag321
aaa(lp325
I387
aI391
ag321
a(lp326
g294
ag321
aaa(lp327
I387
aI391
ag321
a(lp328
g285
ag321
aaa(lp329
I393
aI397
aS'bring'
p330
a(lp331
g321
ag330
aaa(lp332
I393
aI397
ag330
a(lp333
g312
ag330
aaa(lp334
I393
aI397
ag330
a(lp335
g303
ag330
aaa(lp336
I393
aI397
ag330
a(lp337
g294
ag330
aaa(lp338
I411
aI420
aS'checkpoint'
p339
a(lp340
g330
ag339
aaa(lp341
I411
aI420
ag339
a(lp342
g321
ag339
aaa(lp343
I411
aI420
ag339
a(lp344
g312
ag339
aaa(lp345
I411
aI420
ag339
a(lp346
g303
ag339
aaa(lp347
I423
aI428
aS'heres'
p348
a(lp349
g339
ag348
aaa(lp350
I423
aI428
ag348
a(lp351
g330
ag348
aaa(lp352
I423
aI428
ag348
a(lp353
g321
ag348
aaa(lp354
I423
aI428
ag348
a(lp355
g312
ag348
aaa(lp356
I432
aI435
aS'list'
p357
a(lp358
g348
ag357
aaa(lp359
I432
aI435
ag357
a(lp360
g339
ag357
aaa(lp361
I432
aI435
ag357
a(lp362
g330
ag357
aaa(lp363
I432
aI435
ag357
a(lp364
g321
ag357
aaa(lp365
I440
aI445
aS'liquid'
p366
a(lp367
g357
ag366
aaa(lp368
I440
aI445
ag366
a(lp369
g348
ag366
aaa(lp370
I440
aI445
ag366
a(lp371
g339
ag366
aaa(lp372
I440
aI445
ag366
a(lp373
g330
ag366
aaa(lp374
I448
aI454
aS'aerosol'
p375
a(lp376
g366
ag375
aaa(lp377
I448
aI454
ag375
a(lp378
g357
ag375
aaa(lp379
I448
aI454
ag375
a(lp380
g348
ag375
aaa(lp381
I448
aI454
ag375
a(lp382
g339
ag375
aaa(lp383
I460
aI462
aS'gel'
p384
a(lp385
g375
ag384
aaa(lp386
I460
aI462
ag384
a(lp387
g366
ag384
aaa(lp388
I460
aI462
ag384
a(lp389
g357
ag384
aaa(lp390
I460
aI462
ag384
a(lp391
g348
ag384
aaa(lp392
I464
aI468
aS'items'
p393
a(lp394
g384
ag393
aaa(lp395
I464
aI468
ag393
a(lp396
g375
ag393
aaa(lp397
I464
aI468
ag393
a(lp398
g366
ag393
aaa(lp399
I464
aI468
ag393
a(lp400
g357
ag393
aaa(lp401
I487
aI489
aS'put'
p402
a(lp403
g393
ag402
aaa(lp404
I487
aI489
ag402
a(lp405
g384
ag402
aaa(lp406
I487
aI489
ag402
a(lp407
g375
ag402
aaa(lp408
I487
aI489
ag402
a(lp409
g366
ag402
aaa(lp410
I499
aI505
aS'checked'
p411
a(lp412
g402
ag411
aaa(lp413
I499
aI505
ag411
a(lp414
g393
ag411
aaa(lp415
I499
aI505
ag411
a(lp416
g384
ag411
aaa(lp417
I499
aI505
ag411
a(lp418
g375
ag411
aaa(lp419
I507
aI509
aS'bag'
p420
a(lp421
g411
ag420
aaa(lp422
I507
aI509
ag420
a(lp423
g402
ag420
aaa(lp424
I507
aI509
ag420
a(lp425
g393
ag420
aaa(lp426
I507
aI509
ag420
a(lp427
g384
ag420
aaa(lp428
I512
aI515
aS'ship'
p429
a(lp430
g420
ag429
aaa(lp431
I512
aI515
ag429
a(lp432
g411
ag429
aaa(lp433
I512
aI515
ag429
a(lp434
g402
ag429
aaa(lp435
I512
aI515
ag429
a(lp436
g393
ag429
aaa(lp437
I517
aI521
aS'ahead'
p438
a(lp439
g429
ag438
aaa(lp440
I517
aI521
ag438
a(lp441
g420
ag438
aaa(lp442
I517
aI521
ag438
a(lp443
g411
ag438
aaa(lp444
I517
aI521
ag438
a(lp445
g402
ag438
aaa(lp446
I527
aI531
aS'leave'
p447
a(lp448
g438
ag447
aaa(lp449
I527
aI531
ag447
a(lp450
g429
ag447
aaa(lp451
I527
aI531
ag447
a(lp452
g420
ag447
aaa(lp453
I527
aI531
ag447
a(lp454
g411
ag447
aaa(lp455
I536
aI539
aS'home'
p456
a(lp457
g447
ag456
aaa(lp458
I536
aI539
ag456
a(lp459
g438
ag456
aaa(lp460
I536
aI539
ag456
a(lp461
g429
ag456
aaa(lp462
I536
aI539
ag456
a(lp463
g420
ag456
aaa(lp464
I541
aI549
aS'cranberry'
p465
a(lp466
g456
ag465
aaa(lp467
I541
aI549
ag465
a(lp468
g447
ag465
aaa(lp469
I541
aI549
ag465
a(lp470
g438
ag465
aaa(lp471
I541
aI549
ag465
a(lp472
g429
ag465
aaa(lp473
I551
aI555
aS'sauce'
p474
a(lp475
g465
ag474
aaa(lp476
I551
aI555
ag474
a(lp477
g456
ag474
aaa(lp478
I551
aI555
ag474
a(lp479
g447
ag474
aaa(lp480
I551
aI555
ag474
a(lp481
g438
ag474
aaa(lp482
I557
aI562
aS'creamy'
p483
a(lp484
g474
ag483
aaa(lp485
I557
aI562
ag483
a(lp486
g465
ag483
aaa(lp487
I557
aI562
ag483
a(lp488
g456
ag483
aaa(lp489
I557
aI562
ag483
a(lp490
g447
ag483
aaa(lp491
I564
aI567
aS'dips'
p492
a(lp493
g483
ag492
aaa(lp494
I564
aI567
ag492
a(lp495
g474
ag492
aaa(lp496
I564
aI567
ag492
a(lp497
g465
ag492
aaa(lp498
I564
aI567
ag492
a(lp499
g456
ag492
aaa(lp500
I573
aI579
aS'spreads'
p501
a(lp502
g492
ag501
aaa(lp503
I573
aI579
ag501
a(lp504
g483
ag501
aaa(lp505
I573
aI579
ag501
a(lp506
g474
ag501
aaa(lp507
I573
aI579
ag501
a(lp508
g465
ag501
aaa(lp509
I582
aI588
aS'cheeses'
p510
a(lp511
g501
ag510
aaa(lp512
I582
aI588
ag510
a(lp513
g492
ag510
aaa(lp514
I582
aI588
ag510
a(lp515
g483
ag510
aaa(lp516
I582
aI588
ag510
a(lp517
g474
ag510
aaa(lp518
I591
aI596
aS'peanut'
p519
a(lp520
g510
ag519
aaa(lp521
I591
aI596
ag519
a(lp522
g501
ag519
aaa(lp523
I591
aI596
ag519
a(lp524
g492
ag519
aaa(lp525
I591
aI596
ag519
a(lp526
g483
ag519
aaa(lp527
I598
aI603
aS'butter'
p528
a(lp529
g519
ag528
aaa(lp530
I598
aI603
ag528
a(lp531
g510
ag528
aaa(lp532
I598
aI603
ag528
a(lp533
g501
ag528
aaa(lp534
I598
aI603
ag528
a(lp535
g492
ag528
aaa(lp536
I606
aI608
aS'etc'
p537
a(lp538
g528
ag537
aaa(lp539
I606
aI608
ag537
a(lp540
g519
ag537
aaa(lp541
I606
aI608
ag537
a(lp542
g510
ag537
aaa(lp543
I606
aI608
ag537
a(lp544
g501
ag537
aaa(lp545
I612
aI615
aS'gift'
p546
a(lp547
g537
ag546
aaa(lp548
I612
aI615
ag546
a(lp549
g528
ag546
aaa(lp550
I612
aI615
ag546
a(lp551
g519
ag546
aaa(lp552
I612
aI615
ag546
a(lp553
g510
ag546
aaa(lp554
I617
aI623
aS'baskets'
p555
a(lp556
g546
ag555
aaa(lp557
I617
aI623
ag555
a(lp558
g537
ag555
aaa(lp559
I617
aI623
ag555
a(lp560
g528
ag555
aaa(lp561
I617
aI623
ag555
a(lp562
g519
ag555
aaa(lp563
I630
aI633
aS'food'
p564
a(lp565
g555
ag564
aaa(lp566
I630
aI633
ag564
a(lp567
g546
ag564
aaa(lp568
I630
aI633
ag564
a(lp569
g537
ag564
aaa(lp570
I630
aI633
ag564
a(lp571
g528
ag564
aaa(lp572
I635
aI639
aS'items'
p573
a(lp574
g564
ag573
aaa(lp575
I635
aI639
ag573
a(lp576
g555
ag573
aaa(lp577
I635
aI639
ag573
a(lp578
g546
ag573
aaa(lp579
I635
aI639
ag573
a(lp580
g537
ag573
aaa(lp581
I642
aI646
aS'salsa'
p582
a(lp583
g573
ag582
aaa(lp584
I642
aI646
ag582
a(lp585
g564
ag582
aaa(lp586
I642
aI646
ag582
a(lp587
g555
ag582
aaa(lp588
I642
aI646
ag582
a(lp589
g546
ag582
aaa(lp590
I649
aI652
aS'jams'
p591
a(lp592
g582
ag591
aaa(lp593
I649
aI652
ag591
a(lp594
g573
ag591
aaa(lp595
I649
aI652
ag591
a(lp596
g564
ag591
aaa(lp597
I649
aI652
ag591
a(lp598
g555
ag591
aaa(lp599
I658
aI662
aS'salad'
p600
a(lp601
g591
ag600
aaa(lp602
I658
aI662
ag600
a(lp603
g582
ag600
aaa(lp604
I658
aI662
ag600
a(lp605
g573
ag600
aaa(lp606
I658
aI662
ag600
a(lp607
g564
ag600
aaa(lp608
I664
aI672
aS'dressings'
p609
a(lp610
g600
ag609
aaa(lp611
I664
aI672
ag609
a(lp612
g591
ag609
aaa(lp613
I664
aI672
ag609
a(lp614
g582
ag609
aaa(lp615
I664
aI672
ag609
a(lp616
g573
ag609
aaa(lp617
I664
aI672
aS'gravy'
p618
a(lp619
g609
ag618
aaa(lp620
I664
aI672
ag618
a(lp621
g600
ag618
aaa(lp622
I664
aI672
ag618
a(lp623
g591
ag618
aaa(lp624
I664
aI672
ag618
a(lp625
g582
ag618
aaasS'wordMap'
p626
(lp627
(lp628
I0
aI8
ag5
a(lp629
(lp630
I0
aS't'
p631
aa(lp632
I1
aS'r'
p633
aa(lp634
I2
aS'a'
p635
aa(lp636
I3
aS'v'
p637
aa(lp638
I4
aS'e'
p639
aa(lp640
I5
aS'l'
p641
aa(lp642
I6
aS'i'
p643
aa(lp644
I7
aS'n'
p645
aa(lp646
I8
aS'g'
p647
aaaa(lp648
I10
aI13
aS'with'
p649
a(lp650
(lp651
I10
aS'w'
p652
aa(lp653
I11
ag643
aa(lp654
I12
ag631
aa(lp655
I13
aS'h'
p656
aaaa(lp657
I15
aI18
ag15
a(lp658
(lp659
I15
aS'f'
p660
aa(lp661
I16
aS'o'
p662
aa(lp663
I17
ag662
aa(lp664
I18
aS'd'
p665
aaaa(lp666
I20
aI21
aS'or'
p667
a(lp668
(lp669
I20
ag662
aa(lp670
I21
ag633
aaaa(lp671
I23
aI27
ag24
a(lp672
(lp673
I23
ag647
aa(lp674
I24
ag643
aa(lp675
I25
ag660
aa(lp676
I26
ag631
aa(lp677
I27
aS's'
p678
aaaa(lp679
I29
aI31
aS'how'
p680
a(lp681
(lp682
I29
ag656
aa(lp683
I30
ag662
aa(lp684
I31
ag652
aaaa(lp685
I33
aI34
aS'to'
p686
a(lp687
(lp688
I33
ag631
aa(lp689
I34
ag662
aaaa(lp690
I36
aI39
ag33
a(lp691
(lp692
I36
aS'p'
p693
aa(lp694
I37
ag635
aa(lp695
I38
aS'c'
p696
aa(lp697
I39
aS'k'
p698
aaaa(lp699
I41
aI44
ag42
a(lp700
(lp701
I41
ag660
aa(lp702
I42
ag662
aa(lp703
I43
ag662
aa(lp704
I44
ag665
aaaa(lp705
I46
aI48
aS'and'
p706
a(lp707
(lp708
I46
ag635
aa(lp709
I47
ag645
aa(lp710
I48
ag665
aaaa(lp711
I50
aI53
ag51
a(lp712
(lp713
I50
ag647
aa(lp714
I51
ag643
aa(lp715
I52
ag660
aa(lp716
I53
ag631
aaaa(lp717
I55
aI59
ag60
a(lp718
(lp719
I55
ag643
aa(lp720
I56
ag631
aa(lp721
I57
ag639
aa(lp722
I58
aS'm'
p723
aa(lp724
I59
ag678
aaaa(lp725
I61
aI64
aS'when'
p726
a(lp727
(lp728
I61
ag652
aa(lp729
I62
ag656
aa(lp730
I63
ag639
aa(lp731
I64
ag645
aaaa(lp732
I66
aI67
aS'it'
p733
a(lp734
(lp735
I66
ag643
aa(lp736
I67
ag631
aaaa(lp737
I69
aI73
ag69
a(lp738
(lp739
I69
ag696
aa(lp740
I70
ag662
aa(lp741
I71
ag723
aa(lp742
I72
ag639
aa(lp743
I73
ag678
aaaa(lp744
I75
aI76
aS'to'
p745
a(lp746
(lp747
I75
ag631
aa(lp748
I76
ag662
aaaa(lp749
I78
aI85
ag78
a(lp750
(lp751
I78
aS'b'
p752
aa(lp753
I79
ag633
aa(lp754
I80
ag643
aa(lp755
I81
ag645
aa(lp756
I82
ag647
aa(lp757
I83
ag643
aa(lp758
I84
ag645
aa(lp759
I85
ag647
aaaa(lp760
I87
aI91
ag87
a(lp761
(lp762
I87
ag643
aa(lp763
I88
ag631
aa(lp764
I89
ag639
aa(lp765
I90
ag723
aa(lp766
I91
ag678
aaaa(lp767
I93
aI99
aS'through'
p768
a(lp769
(lp770
I93
ag631
aa(lp771
I94
ag656
aa(lp772
I95
ag633
aa(lp773
I96
ag662
aa(lp774
I97
aS'u'
p775
aa(lp776
I98
ag647
aa(lp777
I99
ag656
aaaa(lp778
I101
aI111
ag96
a(lp779
(lp780
I101
ag696
aa(lp781
I102
ag656
aa(lp782
I103
ag639
aa(lp783
I104
ag696
aa(lp784
I105
ag698
aa(lp785
I106
ag693
aa(lp786
I107
ag662
aa(lp787
I108
ag643
aa(lp788
I109
ag645
aa(lp789
I110
ag631
aa(lp790
I111
ag678
aaaa(lp791
I114
aI118
ag105
a(lp792
(lp793
I114
ag652
aa(lp794
I115
ag639
aa(lp795
I117
ag637
aa(lp796
I118
ag639
aaaa(lp797
I120
aI123
ag114
a(lp798
(lp799
I120
ag678
aa(lp800
I121
ag639
aa(lp801
I122
ag639
aa(lp802
I123
ag645
aaaa(lp803
I125
aI128
aS'just'
p804
a(lp805
(lp806
I125
aS'j'
p807
aa(lp808
I126
ag775
aa(lp809
I127
ag678
aa(lp810
I128
ag631
aaaa(lp811
I130
aI134
aS'about'
p812
a(lp813
(lp814
I130
ag635
aa(lp815
I131
ag752
aa(lp816
I132
ag662
aa(lp817
I133
ag775
aa(lp818
I134
ag631
aaaa(lp819
I136
aI145
ag123
a(lp820
(lp821
I136
ag639
aa(lp822
I137
ag637
aa(lp823
I138
ag639
aa(lp824
I139
ag633
aa(lp825
I140
aS'y'
p826
aa(lp827
I141
ag631
aa(lp828
I142
ag656
aa(lp829
I143
ag643
aa(lp830
I144
ag645
aa(lp831
I145
ag647
aaaa(lp832
I148
aI156
ag132
a(lp833
(lp834
I148
ag631
aa(lp835
I149
ag633
aa(lp836
I150
ag635
aa(lp837
I151
ag637
aa(lp838
I152
ag639
aa(lp839
I153
ag641
aa(lp840
I154
ag643
aa(lp841
I155
ag645
aa(lp842
I156
ag647
aaaa(lp843
I158
aI161
aS'with'
p844
a(lp845
(lp846
I158
ag652
aa(lp847
I159
ag643
aa(lp848
I160
ag631
aa(lp849
I161
ag656
aaaa(lp850
I163
aI166
ag141
a(lp851
(lp852
I163
ag660
aa(lp853
I164
ag662
aa(lp854
I165
ag662
aa(lp855
I166
ag665
aaaa(lp856
I168
aI169
aS'or'
p857
a(lp858
(lp859
I168
ag662
aa(lp860
I169
ag633
aaaa(lp861
I171
aI175
ag150
a(lp862
(lp863
I171
ag647
aa(lp864
I172
ag643
aa(lp865
I173
ag660
aa(lp866
I174
ag631
aa(lp867
I175
ag678
aaaa(lp868
I177
aI178
aS'is'
p869
a(lp870
(lp871
I177
ag643
aa(lp872
I178
ag678
aaaa(lp873
I180
aI181
aS'an'
p874
a(lp875
(lp876
I180
ag635
aa(lp877
I181
ag645
aaaa(lp878
I183
aI186
ag159
a(lp879
(lp880
I183
ag639
aa(lp881
I184
ag637
aa(lp882
I185
ag639
aa(lp883
I186
ag645
aaaa(lp884
I188
aI193
ag168
a(lp885
(lp886
I188
ag752
aa(lp887
I189
ag643
aa(lp888
I190
ag647
aa(lp889
I191
ag647
aa(lp890
I192
ag639
aa(lp891
I193
ag633
aaaa(lp892
I195
aI203
ag177
a(lp893
(lp894
I195
ag696
aa(lp895
I196
ag656
aa(lp896
I197
ag635
aa(lp897
I198
ag641
aa(lp898
I199
ag641
aa(lp899
I200
ag639
aa(lp900
I201
ag645
aa(lp901
I202
ag647
aa(lp902
I203
ag639
aaaa(lp903
I206
aI213
ag186
a(lp904
(lp905
I206
ag639
aa(lp906
I207
ag637
aa(lp907
I208
ag639
aa(lp908
I209
ag633
aa(lp909
I210
ag826
aa(lp910
I211
ag662
aa(lp911
I212
ag645
aa(lp912
I213
ag639
aaaa(lp913
I215
aI217
aS'has'
p914
a(lp915
(lp916
I215
ag656
aa(lp917
I216
ag635
aa(lp918
I217
ag678
aaaa(lp919
I219
aI226
ag195
a(lp920
(lp921
I219
ag660
aa(lp922
I220
ag635
aa(lp923
I221
ag637
aa(lp924
I222
ag662
aa(lp925
I223
ag633
aa(lp926
I224
ag643
aa(lp927
I225
ag631
aa(lp928
I226
ag639
aaaa(lp929
I228
aI232
ag204
a(lp930
(lp931
I228
ag660
aa(lp932
I229
ag662
aa(lp933
I230
ag662
aa(lp934
I231
ag665
aa(lp935
I232
ag678
aaaa(lp936
I234
aI237
aS'from'
p937
a(lp938
(lp939
I234
ag660
aa(lp940
I235
ag633
aa(lp941
I236
ag662
aa(lp942
I237
ag723
aaaa(lp943
I239
aI242
ag213
a(lp944
(lp945
I239
ag656
aa(lp946
I240
ag662
aa(lp947
I241
ag723
aa(lp948
I242
ag639
aaaa(lp949
I244
aI247
aS'that'
p950
a(lp951
(lp952
I244
ag631
aa(lp953
I245
ag656
aa(lp954
I246
ag635
aa(lp955
I247
ag631
aaaa(lp956
I249
aI252
aS'they'
p957
a(lp958
(lp959
I249
ag631
aa(lp960
I250
ag656
aa(lp961
I251
ag639
aa(lp962
I252
ag826
aaaa(lp963
I254
aI257
ag222
a(lp964
(lp965
I254
ag652
aa(lp966
I255
ag635
aa(lp967
I256
ag645
aa(lp968
I257
ag631
aaaa(lp969
I259
aI260
aS'to'
p970
a(lp971
(lp972
I259
ag631
aa(lp973
I260
ag662
aaaa(lp974
I262
aI266
ag231
a(lp975
(lp976
I262
ag752
aa(lp977
I263
ag633
aa(lp978
I264
ag643
aa(lp979
I265
ag645
aa(lp980
I266
ag647
aaaa(lp981
I268
aI269
aS'to'
p982
a(lp983
(lp984
I268
ag631
aa(lp985
I269
ag662
aaaa(lp986
I271
aI277
ag240
a(lp987
(lp988
I271
ag656
aa(lp989
I272
ag662
aa(lp990
I273
ag641
aa(lp991
I274
ag643
aa(lp992
I275
ag665
aa(lp993
I276
ag635
aa(lp994
I277
ag826
aaaa(lp995
I279
aI285
ag249
a(lp996
(lp997
I279
ag665
aa(lp998
I280
ag643
aa(lp999
I281
ag645
aa(lp1000
I282
ag645
aa(lp1001
I283
ag639
aa(lp1002
I284
ag633
aa(lp1003
I285
ag678
aaaa(lp1004
I288
aI289
aS'or'
p1005
a(lp1006
(lp1007
I288
ag662
aa(lp1008
I289
ag633
aaaa(lp1009
I291
aI295
ag258
a(lp1010
(lp1011
I291
ag643
aa(lp1012
I292
ag631
aa(lp1013
I293
ag639
aa(lp1014
I294
ag723
aa(lp1015
I295
ag678
aaaa(lp1016
I297
aI300
aS'from'
p1017
a(lp1018
(lp1019
I297
ag660
aa(lp1020
I298
ag633
aa(lp1021
I299
ag662
aa(lp1022
I300
ag723
aaaa(lp1023
I302
aI306
aS'their'
p1024
a(lp1025
(lp1026
I302
ag631
aa(lp1027
I303
ag656
aa(lp1028
I304
ag639
aa(lp1029
I305
ag643
aa(lp1030
I306
ag633
aaaa(lp1031
I308
aI318
ag267
a(lp1032
(lp1033
I308
ag665
aa(lp1034
I309
ag639
aa(lp1035
I310
ag678
aa(lp1036
I311
ag631
aa(lp1037
I312
ag643
aa(lp1038
I313
ag645
aa(lp1039
I314
ag635
aa(lp1040
I315
ag631
aa(lp1041
I316
ag643
aa(lp1042
I317
ag662
aa(lp1043
I318
ag645
aaaa(lp1044
I320
aI323
aS'that'
p1045
a(lp1046
(lp1047
I320
ag631
aa(lp1048
I321
ag656
aa(lp1049
I322
ag635
aa(lp1050
I323
ag631
aaaa(lp1051
I325
aI328
aS'they'
p1052
a(lp1053
(lp1054
I325
ag631
aa(lp1055
I326
ag656
aa(lp1056
I327
ag639
aa(lp1057
I328
ag826
aaaa(lp1058
I330
aI333
ag276
a(lp1059
(lp1060
I330
ag652
aa(lp1061
I331
ag635
aa(lp1062
I332
ag645
aa(lp1063
I333
ag631
aaaa(lp1064
I335
aI336
aS'to'
p1065
a(lp1066
(lp1067
I335
ag631
aa(lp1068
I336
ag662
aaaa(lp1069
I338
aI342
ag285
a(lp1070
(lp1071
I338
ag752
aa(lp1072
I339
ag633
aa(lp1073
I340
ag643
aa(lp1074
I341
ag645
aa(lp1075
I342
ag647
aaaa(lp1076
I344
aI347
ag294
a(lp1077
(lp1078
I344
ag752
aa(lp1079
I345
ag635
aa(lp1080
I346
ag696
aa(lp1081
I347
ag698
aaaa(lp1082
I349
aI352
ag303
a(lp1083
(lp1084
I349
ag656
aa(lp1085
I350
ag662
aa(lp1086
I351
ag723
aa(lp1087
I352
ag639
aaaa(lp1088
I355
aI357
aS'not'
p1089
a(lp1090
(lp1091
I355
ag645
aa(lp1092
I356
ag662
aa(lp1093
I357
ag631
aaaa(lp1094
I359
aI362
ag312
a(lp1095
(lp1096
I359
ag678
aa(lp1097
I360
ag775
aa(lp1098
I361
ag633
aa(lp1099
I362
ag639
aaaa(lp1100
I364
aI368
aS'about'
p1101
a(lp1102
(lp1103
I364
ag635
aa(lp1104
I365
ag752
aa(lp1105
I366
ag662
aa(lp1106
I367
ag775
aa(lp1107
I368
ag631
aaaa(lp1108
I370
aI373
aS'what'
p1109
a(lp1110
(lp1111
I370
ag652
aa(lp1112
I371
ag656
aa(lp1113
I372
ag635
aa(lp1114
I373
ag631
aaaa(lp1115
I375
aI377
aS'you'
p1116
a(lp1117
(lp1118
I375
ag826
aa(lp1119
I376
ag662
aa(lp1120
I377
ag775
aaaa(lp1121
I379
aI381
aS'can'
p1122
a(lp1123
(lp1124
I379
ag696
aa(lp1125
I380
ag635
aa(lp1126
I381
ag645
aaaa(lp1127
I383
aI385
aS'and'
p1128
a(lp1129
(lp1130
I383
ag635
aa(lp1131
I384
ag645
aa(lp1132
I385
ag665
aaaa(lp1133
I387
aI391
ag321
a(lp1134
(lp1135
I387
ag696
aa(lp1136
I388
ag635
aa(lp1137
I389
ag645
aa(lp1138
I391
ag631
aaaa(lp1139
I393
aI397
ag330
a(lp1140
(lp1141
I393
ag752
aa(lp1142
I394
ag633
aa(lp1143
I395
ag643
aa(lp1144
I396
ag645
aa(lp1145
I397
ag647
aaaa(lp1146
I399
aI405
aS'through'
p1147
a(lp1148
(lp1149
I399
ag631
aa(lp1150
I400
ag656
aa(lp1151
I401
ag633
aa(lp1152
I402
ag662
aa(lp1153
I403
ag775
aa(lp1154
I404
ag647
aa(lp1155
I405
ag656
aaaa(lp1156
I407
aI409
aS'the'
p1157
a(lp1158
(lp1159
I407
ag631
aa(lp1160
I408
ag656
aa(lp1161
I409
ag639
aaaa(lp1162
I411
aI420
ag339
a(lp1163
(lp1164
I411
ag696
aa(lp1165
I412
ag656
aa(lp1166
I413
ag639
aa(lp1167
I414
ag696
aa(lp1168
I415
ag698
aa(lp1169
I416
ag693
aa(lp1170
I417
ag662
aa(lp1171
I418
ag643
aa(lp1172
I419
ag645
aa(lp1173
I420
ag631
aaaa(lp1174
I423
aI428
ag348
a(lp1175
(lp1176
I423
ag656
aa(lp1177
I424
ag639
aa(lp1178
I425
ag633
aa(lp1179
I426
ag639
aa(lp1180
I428
ag678
aaaa(lp1181
I430
aI430
ag635
a(lp1182
(lp1183
I430
ag635
aaaa(lp1184
I432
aI435
ag357
a(lp1185
(lp1186
I432
ag641
aa(lp1187
I433
ag643
aa(lp1188
I434
ag678
aa(lp1189
I435
ag631
aaaa(lp1190
I437
aI438
aS'of'
p1191
a(lp1192
(lp1193
I437
ag662
aa(lp1194
I438
ag660
aaaa(lp1195
I440
aI445
ag366
a(lp1196
(lp1197
I440
ag641
aa(lp1198
I441
ag643
aa(lp1199
I442
aS'q'
p1200
aa(lp1201
I443
ag775
aa(lp1202
I444
ag643
aa(lp1203
I445
ag665
aaaa(lp1204
I448
aI454
ag375
a(lp1205
(lp1206
I448
ag635
aa(lp1207
I449
ag639
aa(lp1208
I450
ag633
aa(lp1209
I451
ag662
aa(lp1210
I452
ag678
aa(lp1211
I453
ag662
aa(lp1212
I454
ag641
aaaa(lp1213
I456
aI458
aS'and'
p1214
a(lp1215
(lp1216
I456
ag635
aa(lp1217
I457
ag645
aa(lp1218
I458
ag665
aaaa(lp1219
I460
aI462
ag384
a(lp1220
(lp1221
I460
ag647
aa(lp1222
I461
ag639
aa(lp1223
I462
ag641
aaaa(lp1224
I464
aI468
ag393
a(lp1225
(lp1226
I464
ag643
aa(lp1227
I465
ag631
aa(lp1228
I466
ag639
aa(lp1229
I467
ag723
aa(lp1230
I468
ag678
aaaa(lp1231
I470
aI473
aS'that'
p1232
a(lp1233
(lp1234
I470
ag631
aa(lp1235
I471
ag656
aa(lp1236
I472
ag635
aa(lp1237
I473
ag631
aaaa(lp1238
I475
aI477
aS'you'
p1239
a(lp1240
(lp1241
I475
ag826
aa(lp1242
I476
ag662
aa(lp1243
I477
ag775
aaaa(lp1244
I479
aI484
aS'should'
p1245
a(lp1246
(lp1247
I479
ag678
aa(lp1248
I480
ag656
aa(lp1249
I481
ag662
aa(lp1250
I482
ag775
aa(lp1251
I483
ag641
aa(lp1252
I484
ag665
aaaa(lp1253
I487
aI489
ag402
a(lp1254
(lp1255
I487
ag693
aa(lp1256
I488
ag775
aa(lp1257
I489
ag631
aaaa(lp1258
I491
aI492
aS'in'
p1259
a(lp1260
(lp1261
I491
ag643
aa(lp1262
I492
ag645
aaaa(lp1263
I494
aI497
aS'your'
p1264
a(lp1265
(lp1266
I494
ag826
aa(lp1267
I495
ag662
aa(lp1268
I496
ag775
aa(lp1269
I497
ag633
aaaa(lp1270
I499
aI505
ag411
a(lp1271
(lp1272
I499
ag696
aa(lp1273
I500
ag656
aa(lp1274
I501
ag639
aa(lp1275
I502
ag696
aa(lp1276
I503
ag698
aa(lp1277
I504
ag639
aa(lp1278
I505
ag665
aaaa(lp1279
I507
aI509
ag420
a(lp1280
(lp1281
I507
ag752
aa(lp1282
I508
ag635
aa(lp1283
I509
ag647
aaaa(lp1284
I512
aI515
ag429
a(lp1285
(lp1286
I512
ag678
aa(lp1287
I513
ag656
aa(lp1288
I514
ag643
aa(lp1289
I515
ag693
aaaa(lp1290
I517
aI521
ag438
a(lp1291
(lp1292
I517
ag635
aa(lp1293
I518
ag656
aa(lp1294
I519
ag639
aa(lp1295
I520
ag635
aa(lp1296
I521
ag665
aaaa(lp1297
I524
aI525
aS'or'
p1298
a(lp1299
(lp1300
I524
ag662
aa(lp1301
I525
ag633
aaaa(lp1302
I527
aI531
ag447
a(lp1303
(lp1304
I527
ag641
aa(lp1305
I528
ag639
aa(lp1306
I529
ag635
aa(lp1307
I530
ag637
aa(lp1308
I531
ag639
aaaa(lp1309
I533
aI534
aS'at'
p1310
a(lp1311
(lp1312
I533
ag635
aa(lp1313
I534
ag631
aaaa(lp1314
I536
aI539
ag456
a(lp1315
(lp1316
I536
ag656
aa(lp1317
I537
ag662
aa(lp1318
I538
ag723
aa(lp1319
I539
ag639
aaaa(lp1320
I541
aI549
ag465
a(lp1321
(lp1322
I541
ag696
aa(lp1323
I542
ag633
aa(lp1324
I543
ag635
aa(lp1325
I544
ag645
aa(lp1326
I545
ag752
aa(lp1327
I546
ag639
aa(lp1328
I547
ag633
aa(lp1329
I548
ag633
aa(lp1330
I549
ag826
aaaa(lp1331
I551
aI555
ag474
a(lp1332
(lp1333
I551
ag678
aa(lp1334
I552
ag635
aa(lp1335
I553
ag775
aa(lp1336
I554
ag696
aa(lp1337
I555
ag639
aaaa(lp1338
I557
aI562
ag483
a(lp1339
(lp1340
I557
ag696
aa(lp1341
I558
ag633
aa(lp1342
I559
ag639
aa(lp1343
I560
ag635
aa(lp1344
I561
ag723
aa(lp1345
I562
ag826
aaaa(lp1346
I564
aI567
ag492
a(lp1347
(lp1348
I564
ag665
aa(lp1349
I565
ag643
aa(lp1350
I566
ag693
aa(lp1351
I567
ag678
aaaa(lp1352
I569
aI571
aS'and'
p1353
a(lp1354
(lp1355
I569
ag635
aa(lp1356
I570
ag645
aa(lp1357
I571
ag665
aaaa(lp1358
I573
aI579
ag501
a(lp1359
(lp1360
I573
ag678
aa(lp1361
I574
ag693
aa(lp1362
I575
ag633
aa(lp1363
I576
ag639
aa(lp1364
I577
ag635
aa(lp1365
I578
ag665
aa(lp1366
I579
ag678
aaaa(lp1367
I582
aI588
ag510
a(lp1368
(lp1369
I582
ag696
aa(lp1370
I583
ag656
aa(lp1371
I584
ag639
aa(lp1372
I585
ag639
aa(lp1373
I586
ag678
aa(lp1374
I587
ag639
aa(lp1375
I588
ag678
aaaa(lp1376
I591
aI596
ag519
a(lp1377
(lp1378
I591
ag693
aa(lp1379
I592
ag639
aa(lp1380
I593
ag635
aa(lp1381
I594
ag645
aa(lp1382
I595
ag775
aa(lp1383
I596
ag631
aaaa(lp1384
I598
aI603
ag528
a(lp1385
(lp1386
I598
ag752
aa(lp1387
I599
ag775
aa(lp1388
I600
ag631
aa(lp1389
I601
ag631
aa(lp1390
I602
ag639
aa(lp1391
I603
ag633
aaaa(lp1392
I606
aI608
ag537
a(lp1393
(lp1394
I606
ag639
aa(lp1395
I607
ag631
aa(lp1396
I608
ag696
aaaa(lp1397
I612
aI615
ag546
a(lp1398
(lp1399
I612
ag647
aa(lp1400
I613
ag643
aa(lp1401
I614
ag660
aa(lp1402
I615
ag631
aaaa(lp1403
I617
aI623
ag555
a(lp1404
(lp1405
I617
ag752
aa(lp1406
I618
ag635
aa(lp1407
I619
ag678
aa(lp1408
I620
ag698
aa(lp1409
I621
ag639
aa(lp1410
I622
ag631
aa(lp1411
I623
ag678
aaaa(lp1412
I625
aI628
aS'with'
p1413
a(lp1414
(lp1415
I625
ag652
aa(lp1416
I626
ag643
aa(lp1417
I627
ag631
aa(lp1418
I628
ag656
aaaa(lp1419
I630
aI633
ag564
a(lp1420
(lp1421
I630
ag660
aa(lp1422
I631
ag662
aa(lp1423
I632
ag662
aa(lp1424
I633
ag665
aaaa(lp1425
I635
aI639
ag573
a(lp1426
(lp1427
I635
ag643
aa(lp1428
I636
ag631
aa(lp1429
I637
ag639
aa(lp1430
I638
ag723
aa(lp1431
I639
ag678
aaaa(lp1432
I642
aI646
ag582
a(lp1433
(lp1434
I642
ag678
aa(lp1435
I643
ag635
aa(lp1436
I644
ag641
aa(lp1437
I645
ag678
aa(lp1438
I646
ag635
aaaa(lp1439
I649
aI652
ag591
a(lp1440
(lp1441
I649
ag807
aa(lp1442
I650
ag635
aa(lp1443
I651
ag723
aa(lp1444
I652
ag678
aaaa(lp1445
I654
aI656
aS'and'
p1446
a(lp1447
(lp1448
I654
ag635
aa(lp1449
I655
ag645
aa(lp1450
I656
ag665
aaaa(lp1451
I658
aI662
ag600
a(lp1452
(lp1453
I658
ag678
aa(lp1454
I659
ag635
aa(lp1455
I660
ag641
aa(lp1456
I661
ag635
aa(lp1457
I662
ag665
aaaa(lp1458
I664
aI672
ag609
a(lp1459
(lp1460
I664
ag665
aa(lp1461
I665
ag633
aa(lp1462
I666
ag639
aa(lp1463
I667
ag678
aa(lp1464
I668
ag678
aa(lp1465
I669
ag643
aa(lp1466
I670
ag645
aa(lp1467
I671
ag647
aa(lp1468
I672
ag678
aaaa(lp1469
I664
aI672
ag618
a(lp1470
(lp1471
I675
ag647
aa(lp1472
I676
ag633
aa(lp1473
I677
ag635
aa(lp1474
I678
ag637
aa(lp1475
I679
ag826
aaaasS'cleanCharacterMap'
p1476
(lp1477
g630
ag632
ag634
ag636
ag638
ag640
ag642
ag644
ag646
a(lp1478
I9
aS' '
p1479
aag651
ag653
ag654
ag655
a(lp1480
I14
ag1479
aag659
ag661
ag663
ag664
a(lp1481
I19
ag1479
aag669
ag670
a(lp1482
I22
ag1479
aag673
ag674
ag675
ag676
ag677
a(lp1483
I28
ag1479
aag682
ag683
ag684
a(lp1484
I32
ag1479
aag688
ag689
a(lp1485
I35
ag1479
aag692
ag694
ag695
ag697
a(lp1486
I40
ag1479
aag701
ag702
ag703
ag704
a(lp1487
I45
ag1479
aag708
ag709
ag710
a(lp1488
I49
ag1479
aag713
ag714
ag715
ag716
a(lp1489
I54
ag1479
aag719
ag720
ag721
ag722
ag724
a(lp1490
I60
ag1479
aag728
ag729
ag730
ag731
a(lp1491
I65
ag1479
aag735
ag736
a(lp1492
I68
ag1479
aag739
ag740
ag741
ag742
ag743
a(lp1493
I74
ag1479
aag747
ag748
a(lp1494
I77
ag1479
aag751
ag753
ag754
ag755
ag756
ag757
ag758
ag759
a(lp1495
I86
ag1479
aag762
ag763
ag764
ag765
ag766
a(lp1496
I92
ag1479
aag770
ag771
ag772
ag773
ag774
ag776
ag777
a(lp1497
I100
ag1479
aag780
ag781
ag782
ag783
ag784
ag785
ag786
ag787
ag788
ag789
ag790
a(lp1498
I113
ag1479
aag793
ag794
ag795
ag796
a(lp1499
I119
ag1479
aag799
ag800
ag801
ag802
a(lp1500
I124
ag1479
aag806
ag808
ag809
ag810
a(lp1501
I129
ag1479
aag814
ag815
ag816
ag817
ag818
a(lp1502
I135
ag1479
aag821
ag822
ag823
ag824
ag825
ag827
ag828
ag829
ag830
ag831
a(lp1503
I147
ag1479
aag834
ag835
ag836
ag837
ag838
ag839
ag840
ag841
ag842
a(lp1504
I157
ag1479
aag846
ag847
ag848
ag849
a(lp1505
I162
ag1479
aag852
ag853
ag854
ag855
a(lp1506
I167
ag1479
aag859
ag860
a(lp1507
I170
ag1479
aag863
ag864
ag865
ag866
ag867
a(lp1508
I176
ag1479
aag871
ag872
a(lp1509
I179
ag1479
aag876
ag877
a(lp1510
I182
ag1479
aag880
ag881
ag882
ag883
a(lp1511
I187
ag1479
aag886
ag887
ag888
ag889
ag890
ag891
a(lp1512
I194
ag1479
aag894
ag895
ag896
ag897
ag898
ag899
ag900
ag901
ag902
a(lp1513
I205
ag1479
aag905
ag906
ag907
ag908
ag909
ag910
ag911
ag912
a(lp1514
I214
ag1479
aag916
ag917
ag918
a(lp1515
I218
ag1479
aag921
ag922
ag923
ag924
ag925
ag926
ag927
ag928
a(lp1516
I227
ag1479
aag931
ag932
ag933
ag934
ag935
a(lp1517
I233
ag1479
aag939
ag940
ag941
ag942
a(lp1518
I238
ag1479
aag945
ag946
ag947
ag948
a(lp1519
I243
ag1479
aag952
ag953
ag954
ag955
a(lp1520
I248
ag1479
aag959
ag960
ag961
ag962
a(lp1521
I253
ag1479
aag965
ag966
ag967
ag968
a(lp1522
I258
ag1479
aag972
ag973
a(lp1523
I261
ag1479
aag976
ag977
ag978
ag979
ag980
a(lp1524
I267
ag1479
aag984
ag985
a(lp1525
I270
ag1479
aag988
ag989
ag990
ag991
ag992
ag993
ag994
a(lp1526
I278
ag1479
aag997
ag998
ag999
ag1000
ag1001
ag1002
ag1003
a(lp1527
I287
ag1479
aag1007
ag1008
a(lp1528
I290
ag1479
aag1011
ag1012
ag1013
ag1014
ag1015
a(lp1529
I296
ag1479
aag1019
ag1020
ag1021
ag1022
a(lp1530
I301
ag1479
aag1026
ag1027
ag1028
ag1029
ag1030
a(lp1531
I307
ag1479
aag1033
ag1034
ag1035
ag1036
ag1037
ag1038
ag1039
ag1040
ag1041
ag1042
ag1043
a(lp1532
I319
ag1479
aag1047
ag1048
ag1049
ag1050
a(lp1533
I324
ag1479
aag1054
ag1055
ag1056
ag1057
a(lp1534
I329
ag1479
aag1060
ag1061
ag1062
ag1063
a(lp1535
I334
ag1479
aag1067
ag1068
a(lp1536
I337
ag1479
aag1071
ag1072
ag1073
ag1074
ag1075
a(lp1537
I343
ag1479
aag1078
ag1079
ag1080
ag1081
a(lp1538
I348
ag1479
aag1084
ag1085
ag1086
ag1087
a(lp1539
I354
ag1479
aag1091
ag1092
ag1093
a(lp1540
I358
ag1479
aag1096
ag1097
ag1098
ag1099
a(lp1541
I363
ag1479
aag1103
ag1104
ag1105
ag1106
ag1107
a(lp1542
I369
ag1479
aag1111
ag1112
ag1113
ag1114
a(lp1543
I374
ag1479
aag1118
ag1119
ag1120
a(lp1544
I378
ag1479
aag1124
ag1125
ag1126
a(lp1545
I382
ag1479
aag1130
ag1131
ag1132
a(lp1546
I386
ag1479
aag1135
ag1136
ag1137
ag1138
a(lp1547
I392
ag1479
aag1141
ag1142
ag1143
ag1144
ag1145
a(lp1548
I398
ag1479
aag1149
ag1150
ag1151
ag1152
ag1153
ag1154
ag1155
a(lp1549
I406
ag1479
aag1159
ag1160
ag1161
a(lp1550
I410
ag1479
aag1164
ag1165
ag1166
ag1167
ag1168
ag1169
ag1170
ag1171
ag1172
ag1173
a(lp1551
I422
ag1479
aag1176
ag1177
ag1178
ag1179
ag1180
a(lp1552
I429
ag1479
aag1183
a(lp1553
I431
ag1479
aag1186
ag1187
ag1188
ag1189
a(lp1554
I436
ag1479
aag1193
ag1194
a(lp1555
I439
ag1479
aag1197
ag1198
ag1199
ag1201
ag1202
ag1203
a(lp1556
I447
ag1479
aag1206
ag1207
ag1208
ag1209
ag1210
ag1211
ag1212
a(lp1557
I455
ag1479
aag1216
ag1217
ag1218
a(lp1558
I459
ag1479
aag1221
ag1222
ag1223
a(lp1559
I463
ag1479
aag1226
ag1227
ag1228
ag1229
ag1230
a(lp1560
I469
ag1479
aag1234
ag1235
ag1236
ag1237
a(lp1561
I474
ag1479
aag1241
ag1242
ag1243
a(lp1562
I478
ag1479
aag1247
ag1248
ag1249
ag1250
ag1251
ag1252
a(lp1563
I485
ag1479
aag1255
ag1256
ag1257
a(lp1564
I490
ag1479
aag1261
ag1262
a(lp1565
I493
ag1479
aag1266
ag1267
ag1268
ag1269
a(lp1566
I498
ag1479
aag1272
ag1273
ag1274
ag1275
ag1276
ag1277
ag1278
a(lp1567
I506
ag1479
aag1281
ag1282
ag1283
a(lp1568
I511
ag1479
aag1286
ag1287
ag1288
ag1289
a(lp1569
I516
ag1479
aag1292
ag1293
ag1294
ag1295
ag1296
a(lp1570
I523
ag1479
aag1300
ag1301
a(lp1571
I526
ag1479
aag1304
ag1305
ag1306
ag1307
ag1308
a(lp1572
I532
ag1479
aag1312
ag1313
a(lp1573
I535
ag1479
aag1316
ag1317
ag1318
ag1319
a(lp1574
I540
ag1479
aag1322
ag1323
ag1324
ag1325
ag1326
ag1327
ag1328
ag1329
ag1330
a(lp1575
I550
ag1479
aag1333
ag1334
ag1335
ag1336
ag1337
a(lp1576
I556
ag1479
aag1340
ag1341
ag1342
ag1343
ag1344
ag1345
a(lp1577
I563
ag1479
aag1348
ag1349
ag1350
ag1351
a(lp1578
I568
ag1479
aag1355
ag1356
ag1357
a(lp1579
I572
ag1479
aag1360
ag1361
ag1362
ag1363
ag1364
ag1365
ag1366
a(lp1580
I580
ag1479
aag1369
ag1370
ag1371
ag1372
ag1373
ag1374
ag1375
a(lp1581
I590
ag1479
aag1378
ag1379
ag1380
ag1381
ag1382
ag1383
a(lp1582
I597
ag1479
aag1386
ag1387
ag1388
ag1389
ag1390
ag1391
a(lp1583
I605
ag1479
aag1394
ag1395
ag1396
a(lp1584
I611
ag1479
aag1399
ag1400
ag1401
ag1402
a(lp1585
I616
ag1479
aag1405
ag1406
ag1407
ag1408
ag1409
ag1410
ag1411
a(lp1586
I624
ag1479
aag1415
ag1416
ag1417
ag1418
a(lp1587
I629
ag1479
aag1421
ag1422
ag1423
ag1424
a(lp1588
I634
ag1479
aag1427
ag1428
ag1429
ag1430
ag1431
a(lp1589
I640
ag1479
aag1434
ag1435
ag1436
ag1437
ag1438
a(lp1590
I648
ag1479
aag1441
ag1442
ag1443
ag1444
a(lp1591
I653
ag1479
aag1448
ag1449
ag1450
a(lp1592
I657
ag1479
aag1453
ag1454
ag1455
ag1456
ag1457
a(lp1593
I663
ag1479
aag1460
ag1461
ag1462
ag1463
ag1464
ag1465
ag1466
ag1467
ag1468
a(lp1594
I674
ag1479
aag1471
ag1472
ag1473
ag1474
ag1475
asS'text'
p1595
S"traveling with food or gifts how to pack food and gift items when it comes to bringing items through checkpoints, we've seen just about everything. traveling with food or gifts is an even bigger challenge. everyone has favorite foods from home that they want to bring to holiday dinners, or items from their destination that they want to bring back home. not sure about what you can and can't bring through the checkpoint? here's a list of liquid, aerosol and gel items that you should .put in your checked bag, ship ahead, or leave at home cranberry sauce creamy dips and spreads (cheeses, peanut butter, etc.) gift baskets with food items (salsa, jams and salad dressings) gravy"
p1596
sS'cleanWordMap'
p1597
(lp1598
g628
ag657
ag671
ag690
ag699
ag711
ag717
ag737
ag749
ag760
ag778
ag791
ag797
ag819
ag832
ag850
ag861
ag878
ag884
ag892
ag903
ag919
ag929
ag943
ag963
ag974
ag986
ag995
ag1009
ag1031
ag1058
ag1069
ag1076
ag1082
ag1094
ag1133
ag1139
ag1162
ag1174
ag1184
ag1195
ag1204
ag1219
ag1224
ag1253
ag1270
ag1279
ag1284
ag1290
ag1302
ag1314
ag1320
ag1331
ag1338
ag1346
ag1358
ag1367
ag1376
ag1384
ag1392
ag1397
ag1403
ag1419
ag1425
ag1432
ag1439
ag1451
ag1458
ag1469
asS'lines'
p1599
(lp1600
VTraveling with Food or Gifts\u000a
p1601
aVHow to Pack Food and Gift Items\u000a
p1602
aVWhen it comes to bringing items through checkpoints, we've seen just about everything. Traveling with food or gifts is an even bigger challenge. Everyone has favorite foods from home that they want to bring to holiday dinners, or items from their destination that they want to bring back home.\u000a
p1603
aVNot sure about what you can and can't bring through the checkpoint? Here's a list of liquid, aerosol and gel items that you should .put in your checked bag, ship ahead, or leave at home\u000a
p1604
aVCranberry sauce\u000a
p1605
aVCreamy dips and spreads (cheeses, peanut butter, etc.)\u000a
p1606
aVGift baskets with food items (salsa, jams and salad dressings)\u000a
p1607
aVGravy
p1608
asS'docType'
p1609
S'src'
p1610
sS'newfmap'
p1611
(lp1612
g4
ag8
ag10
ag12
ag14
ag17
ag19
ag21
ag23
ag26
ag28
ag30
ag32
ag35
ag37
ag39
ag41
ag44
ag46
ag48
ag50
ag53
ag55
ag57
ag59
ag62
ag64
ag66
ag68
ag71
ag73
ag75
ag77
ag80
ag82
ag84
ag86
ag89
ag91
ag93
ag95
ag98
ag100
ag102
ag104
ag107
ag109
ag111
ag113
ag116
ag118
ag120
ag122
ag125
ag127
ag129
ag131
ag134
ag136
ag138
ag140
ag143
ag145
ag147
ag149
ag152
ag154
ag156
ag158
ag161
ag163
ag165
ag167
ag170
ag172
ag174
ag176
ag179
ag181
ag183
ag185
ag188
ag190
ag192
ag194
ag197
ag199
ag201
ag203
ag206
ag208
ag210
ag212
ag215
ag217
ag219
ag221
ag224
ag226
ag228
ag230
ag233
ag235
ag237
ag239
ag242
ag244
ag246
ag248
ag251
ag253
ag255
ag257
ag260
ag262
ag264
ag266
ag269
ag271
ag273
ag275
ag278
ag280
ag282
ag284
ag287
ag289
ag291
ag293
ag296
ag298
ag300
ag302
ag305
ag307
ag309
ag311
ag314
ag316
ag318
ag320
ag323
ag325
ag327
ag329
ag332
ag334
ag336
ag338
ag341
ag343
ag345
ag347
ag350
ag352
ag354
ag356
ag359
ag361
ag363
ag365
ag368
ag370
ag372
ag374
ag377
ag379
ag381
ag383
ag386
ag388
ag390
ag392
ag395
ag397
ag399
ag401
ag404
ag406
ag408
ag410
ag413
ag415
ag417
ag419
ag422
ag424
ag426
ag428
ag431
ag433
ag435
ag437
ag440
ag442
ag444
ag446
ag449
ag451
ag453
ag455
ag458
ag460
ag462
ag464
ag467
ag469
ag471
ag473
ag476
ag478
ag480
ag482
ag485
ag487
ag489
ag491
ag494
ag496
ag498
ag500
ag503
ag505
ag507
ag509
ag512
ag514
ag516
ag518
ag521
ag523
ag525
ag527
ag530
ag532
ag534
ag536
ag539
ag541
ag543
ag545
ag548
ag550
ag552
ag554
ag557
ag559
ag561
ag563
ag566
ag568
ag570
ag572
ag575
ag577
ag579
ag581
ag584
ag586
ag588
ag590
ag593
ag595
ag597
ag599
ag602
ag604
ag606
ag608
ag611
ag613
ag615
ag617
ag620
ag622
ag624
asS'featureMap'
p1613
(lp1614
(lp1615
I0
aI8
ag5
ag6
ag9
ag11
ag13
aa(lp1616
I15
aI18
ag15
ag16
ag18
ag20
ag22
aa(lp1617
I23
aI27
ag24
ag25
ag27
ag29
ag31
aa(lp1618
I36
aI39
ag33
ag34
ag36
ag38
ag40
aa(lp1619
I41
aI44
ag42
ag43
ag45
ag47
ag49
aa(lp1620
I50
aI53
ag51
ag52
ag54
ag56
ag58
aa(lp1621
I55
aI59
ag60
ag61
ag63
ag65
ag67
aa(lp1622
I69
aI73
ag69
ag70
ag72
ag74
ag76
aa(lp1623
I78
aI85
ag78
ag79
ag81
ag83
ag85
aa(lp1624
I87
aI91
ag87
ag88
ag90
ag92
ag94
aa(lp1625
I101
aI111
ag96
ag97
ag99
ag101
ag103
aa(lp1626
I114
aI118
ag105
ag106
ag108
ag110
ag112
aa(lp1627
I120
aI123
ag114
ag115
ag117
ag119
ag121
aa(lp1628
I136
aI145
ag123
ag124
ag126
ag128
ag130
aa(lp1629
I148
aI156
ag132
ag133
ag135
ag137
ag139
aa(lp1630
I163
aI166
ag141
ag142
ag144
ag146
ag148
aa(lp1631
I171
aI175
ag150
ag151
ag153
ag155
ag157
aa(lp1632
I183
aI186
ag159
ag160
ag162
ag164
ag166
aa(lp1633
I188
aI193
ag168
ag169
ag171
ag173
ag175
aa(lp1634
I195
aI203
ag177
ag178
ag180
ag182
ag184
aa(lp1635
I206
aI213
ag186
ag187
ag189
ag191
ag193
aa(lp1636
I219
aI226
ag195
ag196
ag198
ag200
ag202
aa(lp1637
I228
aI232
ag204
ag205
ag207
ag209
ag211
aa(lp1638
I239
aI242
ag213
ag214
ag216
ag218
ag220
aa(lp1639
I254
aI257
ag222
ag223
ag225
ag227
ag229
aa(lp1640
I262
aI266
ag231
ag232
ag234
ag236
ag238
aa(lp1641
I271
aI277
ag240
ag241
ag243
ag245
ag247
aa(lp1642
I279
aI285
ag249
ag250
ag252
ag254
ag256
aa(lp1643
I291
aI295
ag258
ag259
ag261
ag263
ag265
aa(lp1644
I308
aI318
ag267
ag268
ag270
ag272
ag274
aa(lp1645
I330
aI333
ag276
ag277
ag279
ag281
ag283
aa(lp1646
I338
aI342
ag285
ag286
ag288
ag290
ag292
aa(lp1647
I344
aI347
ag294
ag295
ag297
ag299
ag301
aa(lp1648
I349
aI352
ag303
ag304
ag306
ag308
ag310
aa(lp1649
I359
aI362
ag312
ag313
ag315
ag317
ag319
aa(lp1650
I387
aI391
ag321
ag322
ag324
ag326
ag328
aa(lp1651
I393
aI397
ag330
ag331
ag333
ag335
ag337
aa(lp1652
I411
aI420
ag339
ag340
ag342
ag344
ag346
aa(lp1653
I423
aI428
ag348
ag349
ag351
ag353
ag355
aa(lp1654
I432
aI435
ag357
ag358
ag360
ag362
ag364
aa(lp1655
I440
aI445
ag366
ag367
ag369
ag371
ag373
aa(lp1656
I448
aI454
ag375
ag376
ag378
ag380
ag382
aa(lp1657
I460
aI462
ag384
ag385
ag387
ag389
ag391
aa(lp1658
I464
aI468
ag393
ag394
ag396
ag398
ag400
aa(lp1659
I487
aI489
ag402
ag403
ag405
ag407
ag409
aa(lp1660
I499
aI505
ag411
ag412
ag414
ag416
ag418
aa(lp1661
I507
aI509
ag420
ag421
ag423
ag425
ag427
aa(lp1662
I512
aI515
ag429
ag430
ag432
ag434
ag436
aa(lp1663
I517
aI521
ag438
ag439
ag441
ag443
ag445
aa(lp1664
I527
aI531
ag447
ag448
ag450
ag452
ag454
aa(lp1665
I536
aI539
ag456
ag457
ag459
ag461
ag463
aa(lp1666
I541
aI549
ag465
ag466
ag468
ag470
ag472
aa(lp1667
I551
aI555
ag474
ag475
ag477
ag479
ag481
aa(lp1668
I557
aI562
ag483
ag484
ag486
ag488
ag490
aa(lp1669
I564
aI567
ag492
ag493
ag495
ag497
ag499
aa(lp1670
I573
aI579
ag501
ag502
ag504
ag506
ag508
aa(lp1671
I582
aI588
ag510
ag511
ag513
ag515
ag517
aa(lp1672
I591
aI596
ag519
ag520
ag522
ag524
ag526
aa(lp1673
I598
aI603
ag528
ag529
ag531
ag533
ag535
aa(lp1674
I606
aI608
ag537
ag538
ag540
ag542
ag544
aa(lp1675
I612
aI615
ag546
ag547
ag549
ag551
ag553
aa(lp1676
I617
aI623
ag555
ag556
ag558
ag560
ag562
aa(lp1677
I630
aI633
ag564
ag565
ag567
ag569
ag571
aa(lp1678
I635
aI639
ag573
ag574
ag576
ag578
ag580
aa(lp1679
I642
aI646
ag582
ag583
ag585
ag587
ag589
aa(lp1680
I649
aI652
ag591
ag592
ag594
ag596
ag598
aa(lp1681
I658
aI662
ag600
ag601
ag603
ag605
ag607
aa(lp1682
I664
aI672
ag609
ag610
ag612
ag614
ag616
aa(lp1683
I664
aI672
ag618
ag619
ag621
ag623
ag625
aasS'characterMap'
p1684
(lp1685
g630
ag632
ag634
ag636
ag638
ag640
ag642
ag644
ag646
ag1478
ag651
ag653
ag654
ag655
ag1480
ag659
ag661
ag663
ag664
ag1481
ag669
ag670
ag1482
ag673
ag674
ag675
ag676
ag677
ag1483
ag682
ag683
ag684
ag1484
ag688
ag689
ag1485
ag692
ag694
ag695
ag697
ag1486
ag701
ag702
ag703
ag704
ag1487
ag708
ag709
ag710
ag1488
ag713
ag714
ag715
ag716
ag1489
ag719
ag720
ag721
ag722
ag724
ag1490
ag728
ag729
ag730
ag731
ag1491
ag735
ag736
ag1492
ag739
ag740
ag741
ag742
ag743
ag1493
ag747
ag748
ag1494
ag751
ag753
ag754
ag755
ag756
ag757
ag758
ag759
ag1495
ag762
ag763
ag764
ag765
ag766
ag1496
ag770
ag771
ag772
ag773
ag774
ag776
ag777
ag1497
ag780
ag781
ag782
ag783
ag784
ag785
ag786
ag787
ag788
ag789
ag790
a(lp1686
I112
aS','
p1687
aag1498
ag793
ag794
a(lp1688
I116
aS"'"
p1689
aag795
ag796
ag1499
ag799
ag800
ag801
ag802
ag1500
ag806
ag808
ag809
ag810
ag1501
ag814
ag815
ag816
ag817
ag818
ag1502
ag821
ag822
ag823
ag824
ag825
ag827
ag828
ag829
ag830
ag831
a(lp1690
I146
aS'.'
p1691
aag1503
ag834
ag835
ag836
ag837
ag838
ag839
ag840
ag841
ag842
ag1504
ag846
ag847
ag848
ag849
ag1505
ag852
ag853
ag854
ag855
ag1506
ag859
ag860
ag1507
ag863
ag864
ag865
ag866
ag867
ag1508
ag871
ag872
ag1509
ag876
ag877
ag1510
ag880
ag881
ag882
ag883
ag1511
ag886
ag887
ag888
ag889
ag890
ag891
ag1512
ag894
ag895
ag896
ag897
ag898
ag899
ag900
ag901
ag902
a(lp1692
I204
ag1691
aag1513
ag905
ag906
ag907
ag908
ag909
ag910
ag911
ag912
ag1514
ag916
ag917
ag918
ag1515
ag921
ag922
ag923
ag924
ag925
ag926
ag927
ag928
ag1516
ag931
ag932
ag933
ag934
ag935
ag1517
ag939
ag940
ag941
ag942
ag1518
ag945
ag946
ag947
ag948
ag1519
ag952
ag953
ag954
ag955
ag1520
ag959
ag960
ag961
ag962
ag1521
ag965
ag966
ag967
ag968
ag1522
ag972
ag973
ag1523
ag976
ag977
ag978
ag979
ag980
ag1524
ag984
ag985
ag1525
ag988
ag989
ag990
ag991
ag992
ag993
ag994
ag1526
ag997
ag998
ag999
ag1000
ag1001
ag1002
ag1003
a(lp1693
I286
ag1687
aag1527
ag1007
ag1008
ag1528
ag1011
ag1012
ag1013
ag1014
ag1015
ag1529
ag1019
ag1020
ag1021
ag1022
ag1530
ag1026
ag1027
ag1028
ag1029
ag1030
ag1531
ag1033
ag1034
ag1035
ag1036
ag1037
ag1038
ag1039
ag1040
ag1041
ag1042
ag1043
ag1532
ag1047
ag1048
ag1049
ag1050
ag1533
ag1054
ag1055
ag1056
ag1057
ag1534
ag1060
ag1061
ag1062
ag1063
ag1535
ag1067
ag1068
ag1536
ag1071
ag1072
ag1073
ag1074
ag1075
ag1537
ag1078
ag1079
ag1080
ag1081
ag1538
ag1084
ag1085
ag1086
ag1087
a(lp1694
I353
ag1691
aag1539
ag1091
ag1092
ag1093
ag1540
ag1096
ag1097
ag1098
ag1099
ag1541
ag1103
ag1104
ag1105
ag1106
ag1107
ag1542
ag1111
ag1112
ag1113
ag1114
ag1543
ag1118
ag1119
ag1120
ag1544
ag1124
ag1125
ag1126
ag1545
ag1130
ag1131
ag1132
ag1546
ag1135
ag1136
ag1137
a(lp1695
I390
ag1689
aag1138
ag1547
ag1141
ag1142
ag1143
ag1144
ag1145
ag1548
ag1149
ag1150
ag1151
ag1152
ag1153
ag1154
ag1155
ag1549
ag1159
ag1160
ag1161
ag1550
ag1164
ag1165
ag1166
ag1167
ag1168
ag1169
ag1170
ag1171
ag1172
ag1173
a(lp1696
I421
aS'?'
p1697
aag1551
ag1176
ag1177
ag1178
ag1179
a(lp1698
I427
ag1689
aag1180
ag1552
ag1183
ag1553
ag1186
ag1187
ag1188
ag1189
ag1554
ag1193
ag1194
ag1555
ag1197
ag1198
ag1199
ag1201
ag1202
ag1203
a(lp1699
I446
ag1687
aag1556
ag1206
ag1207
ag1208
ag1209
ag1210
ag1211
ag1212
ag1557
ag1216
ag1217
ag1218
ag1558
ag1221
ag1222
ag1223
ag1559
ag1226
ag1227
ag1228
ag1229
ag1230
ag1560
ag1234
ag1235
ag1236
ag1237
ag1561
ag1241
ag1242
ag1243
ag1562
ag1247
ag1248
ag1249
ag1250
ag1251
ag1252
ag1563
a(lp1700
I486
ag1691
aag1255
ag1256
ag1257
ag1564
ag1261
ag1262
ag1565
ag1266
ag1267
ag1268
ag1269
ag1566
ag1272
ag1273
ag1274
ag1275
ag1276
ag1277
ag1278
ag1567
ag1281
ag1282
ag1283
a(lp1701
I510
ag1687
aag1568
ag1286
ag1287
ag1288
ag1289
ag1569
ag1292
ag1293
ag1294
ag1295
ag1296
a(lp1702
I522
ag1687
aag1570
ag1300
ag1301
ag1571
ag1304
ag1305
ag1306
ag1307
ag1308
ag1572
ag1312
ag1313
ag1573
ag1316
ag1317
ag1318
ag1319
ag1574
ag1322
ag1323
ag1324
ag1325
ag1326
ag1327
ag1328
ag1329
ag1330
ag1575
ag1333
ag1334
ag1335
ag1336
ag1337
ag1576
ag1340
ag1341
ag1342
ag1343
ag1344
ag1345
ag1577
ag1348
ag1349
ag1350
ag1351
ag1578
ag1355
ag1356
ag1357
ag1579
ag1360
ag1361
ag1362
ag1363
ag1364
ag1365
ag1366
ag1580
a(lp1703
I581
aS'('
p1704
aag1369
ag1370
ag1371
ag1372
ag1373
ag1374
ag1375
a(lp1705
I589
ag1687
aag1581
ag1378
ag1379
ag1380
ag1381
ag1382
ag1383
ag1582
ag1386
ag1387
ag1388
ag1389
ag1390
ag1391
a(lp1706
I604
ag1687
aag1583
ag1394
ag1395
ag1396
a(lp1707
I609
ag1691
aa(lp1708
I610
aS')'
p1709
aag1584
ag1399
ag1400
ag1401
ag1402
ag1585
ag1405
ag1406
ag1407
ag1408
ag1409
ag1410
ag1411
ag1586
ag1415
ag1416
ag1417
ag1418
ag1587
ag1421
ag1422
ag1423
ag1424
ag1588
ag1427
ag1428
ag1429
ag1430
ag1431
ag1589
a(lp1710
I641
ag1704
aag1434
ag1435
ag1436
ag1437
ag1438
a(lp1711
I647
ag1687
aag1590
ag1441
ag1442
ag1443
ag1444
ag1591
ag1448
ag1449
ag1450
ag1592
ag1453
ag1454
ag1455
ag1456
ag1457
ag1593
ag1460
ag1461
ag1462
ag1463
ag1464
ag1465
ag1466
ag1467
ag1468
a(lp1712
I673
ag1709
aag1594
ag1471
ag1472
ag1473
ag1474
ag1475
asS'docName'
p1713
S'source-document01991.txt'
p1714
sb.