(iModel.Document
Document
p0
(dp1
S'fmap'
p2
(lp3
sS'wordMap'
p4
(lp5
sS'cleanCharacterMap'
p6
(lp7
(lp8
I1
aS' '
p9
aa(lp10
I2
aS't'
p11
aa(lp12
I3
aS'h'
p13
aa(lp14
I4
aS'e'
p15
aa(lp16
I5
ag9
aa(lp17
I6
aS'l'
p18
aa(lp19
I7
aS'a'
p20
aa(lp21
I8
aS'm'
p22
aa(lp23
I9
ag15
aa(lp24
I10
aS'n'
p25
aa(lp26
I11
ag11
aa(lp27
I12
ag9
aa(lp28
I13
aS'o'
p29
aa(lp30
I14
ag25
aa(lp31
I15
ag9
aa(lp32
I16
ag11
aa(lp33
I17
ag13
aa(lp34
I18
ag15
aa(lp35
I19
ag9
aa(lp36
I20
aS'd'
p37
aa(lp38
I21
ag15
aa(lp39
I22
ag20
aa(lp40
I23
ag11
aa(lp41
I24
ag13
aa(lp42
I25
ag9
aa(lp43
I26
ag29
aa(lp44
I27
aS'f'
p45
aa(lp46
I28
ag9
aa(lp47
I30
ag9
aa(lp48
I31
ag45
aa(lp49
I32
ag29
aa(lp50
I33
aS'r'
p51
aa(lp52
I34
ag9
aa(lp53
I35
aS'6'
p54
aa(lp55
I36
ag9
aa(lp56
I37
aS'v'
p57
aa(lp58
I38
ag29
aa(lp59
I39
aS'i'
p60
aa(lp61
I40
aS'c'
p62
aa(lp63
I41
ag15
aa(lp64
I42
aS's'
p65
aa(lp66
I43
ag9
aa(lp67
I44
aS'b'
p68
aa(lp69
I45
aS'y'
p70
aa(lp71
I46
ag22
aa(lp72
I47
aS'u'
p73
aa(lp74
I48
ag65
aa(lp75
I49
ag20
aa(lp76
I50
ag15
aa(lp77
I51
ag9
aa(lp78
I52
aS'j'
p79
aa(lp80
I53
ag29
aa(lp81
I54
ag57
aa(lp82
I55
ag60
aa(lp83
I56
ag65
aa(lp84
I57
ag9
aa(lp85
I58
ag79
aa(lp86
I59
ag29
aa(lp87
I60
ag65
aa(lp88
I61
aS'q'
p89
aa(lp90
I62
ag73
aa(lp91
I63
ag60
aa(lp92
I64
ag25
aa(lp93
I65
ag9
aa(lp94
I66
ag37
aa(lp95
I67
ag15
aa(lp96
I68
ag65
aa(lp97
I69
ag9
aa(lp98
I70
aS'p'
p99
aa(lp100
I71
ag51
aa(lp101
I72
ag15
aa(lp102
I73
aS'z'
p103
aa(lp104
I74
ag9
aa(lp105
I75
ag25
aa(lp106
I76
ag60
aa(lp107
I77
ag62
aa(lp108
I78
ag29
aa(lp109
I79
ag18
aa(lp110
I80
ag20
aa(lp111
I81
ag65
aa(lp112
I82
ag9
aa(lp113
I83
aS'g'
p114
aa(lp115
I84
ag29
aa(lp116
I85
ag22
aa(lp117
I86
ag68
aa(lp118
I87
ag15
aa(lp119
I88
ag51
aa(lp120
I89
ag11
aa(lp121
I90
ag9
aa(lp122
I92
ag9
aa(lp123
I93
ag22
aa(lp124
I94
ag29
aa(lp125
I95
ag11
aa(lp126
I96
ag15
aa(lp127
I97
ag11
aa(lp128
I98
ag9
aa(lp129
I99
ag45
aa(lp130
I100
ag29
aa(lp131
I101
ag51
aa(lp132
I102
ag9
aa(lp133
I103
aS'5'
p134
aa(lp135
I104
ag9
aa(lp136
I105
ag57
aa(lp137
I106
ag29
aa(lp138
I107
ag60
aa(lp139
I108
ag62
aa(lp140
I109
ag15
aa(lp141
I110
ag65
aa(lp142
I111
ag9
aa(lp143
I112
ag68
aa(lp144
I113
ag70
aa(lp145
I114
ag60
aa(lp146
I115
ag25
aa(lp147
I116
ag57
aa(lp148
I117
ag60
aa(lp149
I118
ag29
aa(lp150
I119
ag18
aa(lp151
I120
ag20
aa(lp152
I121
ag11
aa(lp153
I122
ag20
aa(lp154
I124
ag9
aa(lp155
I125
ag60
aa(lp156
I126
ag25
aa(lp157
I127
ag11
aa(lp158
I128
ag15
aa(lp159
I129
ag114
aa(lp160
I130
ag51
aa(lp161
I131
ag20
aa(lp162
I132
ag9
aa(lp163
I133
ag15
aa(lp164
I134
ag11
aa(lp165
I135
ag9
aa(lp166
I136
ag62
aa(lp167
I137
ag20
aa(lp168
I138
ag65
aa(lp169
I139
ag11
aa(lp170
I140
ag20
aa(lp171
I141
ag9
aa(lp172
I142
ag15
aa(lp173
I143
ag65
aa(lp174
I144
ag9
aa(lp175
I145
ag79
aa(lp176
I146
ag29
aa(lp177
I147
ag65
aa(lp178
I148
ag89
aa(lp179
I149
ag73
aa(lp180
I150
ag60
aa(lp181
I151
ag25
aa(lp182
I152
ag9
aa(lp183
I153
ag37
aa(lp184
I154
ag15
aa(lp185
I155
ag65
aa(lp186
I156
ag99
aa(lp187
I157
ag51
aa(lp188
I158
ag15
aa(lp189
I159
ag103
aa(lp190
I160
ag9
aa(lp191
I161
ag22
aa(lp192
I162
ag29
aa(lp193
I163
ag11
aa(lp194
I164
ag15
aa(lp195
I165
ag11
aa(lp196
I166
ag9
aa(lp197
I167
ag45
aa(lp198
I168
ag29
aa(lp199
I169
ag51
aa(lp200
I170
ag9
aa(lp201
I171
aS'8'
p202
aa(lp203
I172
ag9
aa(lp204
I173
ag57
aa(lp205
I174
ag29
aa(lp206
I175
ag60
aa(lp207
I176
ag62
aa(lp208
I177
ag15
aa(lp209
I178
ag65
aa(lp210
I179
ag9
aa(lp211
I180
ag68
aa(lp212
I181
ag70
aa(lp213
I182
ag9
aa(lp214
I183
ag25
aa(lp215
I184
ag60
aa(lp216
I185
ag62
aa(lp217
I186
ag29
aa(lp218
I187
ag18
aa(lp219
I188
ag20
aa(lp220
I189
ag65
aa(lp221
I190
ag9
aa(lp222
I191
ag114
aa(lp223
I192
ag29
aa(lp224
I193
ag22
aa(lp225
I194
ag68
aa(lp226
I195
ag15
aa(lp227
I196
ag51
aa(lp228
I197
ag11
aa(lp229
I198
ag11
aa(lp230
I199
ag73
aa(lp231
I200
ag18
aa(lp232
I201
ag15
aa(lp233
I202
ag51
aa(lp234
I203
ag73
aa(lp235
I204
ag25
aa(lp236
I205
ag11
aa(lp237
I206
ag9
aa(lp238
I207
ag37
aa(lp239
I208
ag29
aa(lp240
I209
ag22
aa(lp241
I210
ag60
aa(lp242
I211
ag25
aa(lp243
I212
ag73
aa(lp244
I213
ag22
aa(lp245
I214
ag9
aa(lp246
I215
ag22
aa(lp247
I216
ag15
aa(lp248
I217
ag73
aa(lp249
I218
ag22
aa(lp250
I219
ag9
aa(lp251
I221
ag9
aa(lp252
I222
ag45
aa(lp253
I223
ag29
aa(lp254
I224
ag51
aa(lp255
I225
ag9
aa(lp256
I226
ag202
aa(lp257
I227
ag9
aa(lp258
I228
ag57
aa(lp259
I229
ag29
aa(lp260
I230
ag60
aa(lp261
I231
ag62
aa(lp262
I232
ag15
aa(lp263
I233
ag65
aa(lp264
I234
ag9
aa(lp265
I235
ag68
aa(lp266
I236
ag70
aa(lp267
I237
ag25
aa(lp268
I238
ag15
aa(lp269
I239
ag65
aa(lp270
I240
ag62
aa(lp271
I241
ag60
aa(lp272
I242
ag15
aa(lp273
I243
ag25
aa(lp274
I244
ag65
aa(lp275
I245
ag9
aa(lp276
I246
ag22
aa(lp277
I247
ag20
aa(lp278
I248
ag11
aa(lp279
I249
ag15
aa(lp280
I250
ag51
aa(lp281
I251
ag9
aa(lp282
I252
ag57
aa(lp283
I253
ag60
aa(lp284
I254
ag51
aa(lp285
I255
ag114
aa(lp286
I256
ag29
aa(lp287
I257
ag9
aa(lp288
I258
ag57
aa(lp289
I259
ag60
aa(lp290
I260
ag51
aa(lp291
I261
ag73
aa(lp292
I262
ag22
aa(lp293
I263
ag9
aa(lp294
I264
ag79
aa(lp295
I265
ag15
aa(lp296
I266
ag20
aa(lp297
I267
ag25
aa(lp298
I268
ag9
aa(lp299
I269
ag22
aa(lp300
I270
ag29
aa(lp301
I271
ag73
aa(lp302
I272
ag11
aa(lp303
I273
ag29
aa(lp304
I274
ag25
aa(lp305
I275
ag9
aa(lp306
I276
ag45
aa(lp307
I277
ag29
aa(lp308
I278
ag51
aa(lp309
I279
ag9
aa(lp310
I280
ag202
aa(lp311
I281
ag9
aa(lp312
I282
ag57
aa(lp313
I283
ag29
aa(lp314
I284
ag60
aa(lp315
I285
ag62
aa(lp316
I286
ag15
aa(lp317
I287
ag65
aa(lp318
I289
ag9
aa(lp319
I290
ag22
aa(lp320
I291
ag29
aa(lp321
I292
ag11
aa(lp322
I293
ag15
aa(lp323
I294
ag11
aa(lp324
I295
ag9
aa(lp325
I296
ag68
aa(lp326
I297
ag70
aa(lp327
I298
ag20
aa(lp328
I299
ag25
aa(lp329
I300
ag37
aa(lp330
I301
ag51
aa(lp331
I302
ag15
aa(lp332
I303
ag20
aa(lp333
I304
ag65
aa(lp334
I305
ag9
aa(lp335
I306
ag62
aa(lp336
I307
ag13
aa(lp337
I308
ag51
aa(lp338
I309
ag60
aa(lp339
I310
ag65
aa(lp340
I311
ag11
aa(lp341
I312
ag60
aa(lp342
I313
ag9
aa(lp343
I314
ag45
aa(lp344
I315
ag20
aa(lp345
I316
ag22
aa(lp346
I317
ag73
aa(lp347
I318
ag18
aa(lp348
I319
ag73
aa(lp349
I320
ag65
aa(lp350
I321
ag9
aa(lp351
I322
ag62
aa(lp352
I323
ag51
aa(lp353
I324
ag60
aa(lp354
I325
ag65
aa(lp355
I326
ag11
aa(lp356
I327
ag9
aa(lp357
I328
ag68
aa(lp358
I329
ag20
aa(lp359
I330
ag18
aa(lp360
I331
ag9
aa(lp361
I332
ag37
aa(lp362
I333
ag15
aa(lp363
I334
ag9
aa(lp364
I335
ag22
aa(lp365
I336
ag29
aa(lp366
I337
ag51
aa(lp367
I338
ag20
aa(lp368
I339
ag18
aa(lp369
I340
ag15
aa(lp370
I341
ag65
aa(lp371
I342
ag9
aa(lp372
I344
ag9
aa(lp373
I345
ag22
aa(lp374
I346
ag29
aa(lp375
I347
ag11
aa(lp376
I348
ag15
aa(lp377
I349
ag11
aa(lp378
I350
ag9
aa(lp379
I351
ag45
aa(lp380
I352
ag29
aa(lp381
I353
ag51
aa(lp382
I354
ag9
aa(lp383
I355
aS'4'
p384
aa(lp385
I356
ag9
aa(lp386
I357
ag57
aa(lp387
I358
ag29
aa(lp388
I359
ag60
aa(lp389
I360
ag62
aa(lp390
I361
ag15
aa(lp391
I362
ag65
aa(lp392
I363
ag9
aa(lp393
I365
ag45
aa(lp394
I366
ag51
aa(lp395
I367
ag29
aa(lp396
I368
ag22
aa(lp397
I369
ag9
aa(lp398
I370
ag22
aa(lp399
I371
ag29
aa(lp400
I372
ag11
aa(lp401
I373
ag15
aa(lp402
I374
ag11
aa(lp403
I375
ag65
aa(lp404
I376
ag9
aa(lp405
I377
ag68
aa(lp406
I378
ag29
aa(lp407
I379
ag29
aa(lp408
I380
aS'k'
p409
aa(lp410
I381
ag9
aa(lp411
I382
ag60
aa(lp412
I383
ag60
aa(lp413
I385
ag9
aa(lp414
I386
ag68
aa(lp415
I387
ag70
aa(lp416
I388
ag65
aa(lp417
I389
ag20
aa(lp418
I390
ag18
aa(lp419
I391
ag57
aa(lp420
I392
ag15
aa(lp421
I393
ag9
aa(lp422
I394
ag51
aa(lp423
I395
ag15
aa(lp424
I396
ag114
aa(lp425
I397
ag60
aa(lp426
I398
ag25
aa(lp427
I399
ag20
aa(lp428
I400
ag9
aa(lp429
I401
ag114
aa(lp430
I402
ag60
aa(lp431
I403
ag29
aa(lp432
I404
ag57
aa(lp433
I405
ag20
aa(lp434
I406
ag25
aa(lp435
I407
ag25
aa(lp436
I408
ag60
aa(lp437
I409
ag9
aa(lp438
I410
ag99
aa(lp439
I411
ag60
aa(lp440
I412
ag15
aa(lp441
I413
ag51
aa(lp442
I414
ag18
aa(lp443
I415
ag73
aa(lp444
I416
ag60
aa(lp445
I417
ag114
aa(lp446
I418
ag60
aa(lp447
I419
ag9
aa(lp448
I420
ag37
aa(lp449
I421
ag20
aa(lp450
I422
ag9
aa(lp451
I423
ag99
aa(lp452
I424
ag20
aa(lp453
I425
ag18
aa(lp454
I426
ag15
aa(lp455
I427
ag65
aa(lp456
I428
ag11
aa(lp457
I429
ag51
aa(lp458
I430
ag60
aa(lp459
I431
ag25
aa(lp460
I432
ag20
aa(lp461
I433
ag9
aa(lp462
I435
ag9
aa(lp463
I436
ag22
aa(lp464
I437
ag29
aa(lp465
I438
ag11
aa(lp466
I439
ag15
aa(lp467
I440
ag11
aa(lp468
I441
ag9
aa(lp469
I442
ag45
aa(lp470
I443
ag29
aa(lp471
I444
ag51
aa(lp472
I445
ag9
aa(lp473
I446
ag134
aa(lp474
I447
ag9
aa(lp475
I448
ag57
aa(lp476
I449
ag29
aa(lp477
I450
ag60
aa(lp478
I451
ag62
aa(lp479
I452
ag15
aa(lp480
I453
ag65
aa(lp481
I454
ag9
aa(lp482
I455
ag68
aa(lp483
I456
ag70
aa(lp484
I457
ag9
aa(lp485
I458
ag114
aa(lp486
I459
ag60
aa(lp487
I460
ag29
aa(lp488
I461
ag57
aa(lp489
I462
ag20
aa(lp490
I463
ag25
aa(lp491
I464
ag25
aa(lp492
I465
ag60
aa(lp493
I466
ag9
aa(lp494
I467
ag99
aa(lp495
I468
ag60
aa(lp496
I469
ag15
aa(lp497
I470
ag51
aa(lp498
I471
ag18
aa(lp499
I472
ag73
aa(lp500
I473
ag60
aa(lp501
I474
ag114
aa(lp502
I475
ag60
aa(lp503
I476
ag9
aa(lp504
I477
ag37
aa(lp505
I478
ag20
aa(lp506
I479
ag9
aa(lp507
I480
ag99
aa(lp508
I481
ag20
aa(lp509
I482
ag18
aa(lp510
I483
ag15
aa(lp511
I484
ag65
aa(lp512
I485
ag11
aa(lp513
I486
ag51
aa(lp514
I487
ag60
aa(lp515
I488
ag25
aa(lp516
I489
ag20
aa(lp517
I490
ag68
aa(lp518
I491
ag15
aa(lp519
I492
ag20
aa(lp520
I493
ag11
aa(lp521
I494
ag73
aa(lp522
I495
ag65
aa(lp523
I496
ag9
aa(lp524
I497
ag18
aa(lp525
I498
ag20
aa(lp526
I499
ag73
aa(lp527
I500
ag51
aa(lp528
I501
ag15
aa(lp529
I502
ag25
aa(lp530
I503
ag11
aa(lp531
I504
ag60
aa(lp532
I505
ag73
aa(lp533
I506
ag65
aa(lp534
I507
ag9
aa(lp535
I509
ag9
aa(lp536
I510
ag22
aa(lp537
I511
ag29
aa(lp538
I512
ag11
aa(lp539
I513
ag15
aa(lp540
I514
ag11
aa(lp541
I515
ag9
aa(lp542
I516
ag45
aa(lp543
I517
ag29
aa(lp544
I518
ag51
aa(lp545
I519
ag9
aa(lp546
I520
ag202
aa(lp547
I521
ag9
aa(lp548
I522
ag57
aa(lp549
I523
ag29
aa(lp550
I524
ag60
aa(lp551
I525
ag62
aa(lp552
I526
ag15
aa(lp553
I527
ag65
aa(lp554
I529
ag9
aa(lp555
I530
ag22
aa(lp556
I532
ag9
aa(lp557
I533
aS'x'
p558
aa(lp559
I534
ag60
aa(lp560
I535
ag558
aa(lp561
I536
ag9
aa(lp562
I538
ag65
aa(lp563
I540
ag9
aa(lp564
I541
ag558
aa(lp565
I542
ag558
aa(lp566
I543
ag60
aa(lp567
I545
aS'1'
p568
aa(lp569
I547
ag9
aa(lp570
I548
ag68
aa(lp571
I549
ag70
aa(lp572
I550
ag29
aa(lp573
I551
ag22
aa(lp574
I552
ag25
aa(lp575
I553
ag15
aa(lp576
I554
ag65
aa(lp577
I555
ag9
aa(lp578
I556
ag37
aa(lp579
I557
ag15
aa(lp580
I558
ag9
aa(lp581
I559
ag65
aa(lp582
I560
ag20
aa(lp583
I561
ag68
aa(lp584
I562
ag20
aa(lp585
I563
ag9
aa(lp586
I564
ag57
aa(lp587
I565
ag15
aa(lp588
I566
ag25
aa(lp589
I567
ag60
aa(lp590
I568
ag15
aa(lp591
I569
ag25
aa(lp592
I570
ag11
aa(lp593
I571
ag9
aa(lp594
I572
ag29
aa(lp595
I573
ag51
aa(lp596
I574
ag18
aa(lp597
I575
ag20
aa(lp598
I576
ag25
aa(lp599
I577
ag37
aa(lp600
I578
ag15
aa(lp601
I579
ag9
aa(lp602
I580
ag37
aa(lp603
I581
ag15
aa(lp604
I582
ag9
aa(lp605
I583
ag18
aa(lp606
I584
ag20
aa(lp607
I585
ag65
aa(lp608
I586
ag65
aa(lp609
I587
ag73
aa(lp610
I588
ag65
aa(lp611
I589
ag9
aa(lp612
I591
ag9
aa(lp613
I592
ag18
aa(lp614
I593
ag60
aa(lp615
I594
ag11
aa(lp616
I595
ag20
aa(lp617
I596
ag25
aa(lp618
I597
ag70
aa(lp619
I598
ag9
aa(lp620
I599
ag45
aa(lp621
I600
ag29
aa(lp622
I601
ag51
aa(lp623
I602
ag9
aa(lp624
I603
ag54
aa(lp625
I604
ag9
aa(lp626
I605
ag57
aa(lp627
I606
ag29
aa(lp628
I607
ag60
aa(lp629
I608
ag62
aa(lp630
I609
ag15
aa(lp631
I610
ag65
aa(lp632
I611
ag9
aa(lp633
I612
ag68
aa(lp634
I613
ag70
aa(lp635
I614
ag9
aa(lp636
I615
ag114
aa(lp637
I616
ag60
aa(lp638
I617
ag29
aa(lp639
I618
ag57
aa(lp640
I619
ag20
aa(lp641
I620
ag25
aa(lp642
I621
ag25
aa(lp643
I622
ag60
aa(lp644
I623
ag9
aa(lp645
I624
ag99
aa(lp646
I625
ag60
aa(lp647
I626
ag15
aa(lp648
I627
ag51
aa(lp649
I628
ag18
aa(lp650
I629
ag73
aa(lp651
I630
ag60
aa(lp652
I631
ag114
aa(lp653
I632
ag60
aa(lp654
I633
ag9
aa(lp655
I634
ag37
aa(lp656
I635
ag20
aa(lp657
I636
ag9
aa(lp658
I637
ag99
aa(lp659
I638
ag20
aa(lp660
I639
ag18
aa(lp661
I640
ag15
aa(lp662
I641
ag65
aa(lp663
I642
ag11
aa(lp664
I643
ag51
aa(lp665
I644
ag60
aa(lp666
I645
ag25
aa(lp667
I646
ag20
aa(lp668
I647
ag18
aa(lp669
I648
ag60
aa(lp670
I649
ag11
aa(lp671
I650
ag20
aa(lp672
I651
ag25
aa(lp673
I652
ag60
aa(lp674
I653
ag20
aa(lp675
I654
ag15
aa(lp676
I655
ag9
aa(lp677
I656
ag37
aa(lp678
I657
ag15
aa(lp679
I658
ag9
aa(lp680
I659
ag68
aa(lp681
I660
ag15
aa(lp682
I661
ag20
aa(lp683
I662
ag11
aa(lp684
I663
ag20
aa(lp685
I664
ag9
aa(lp686
I665
ag57
aa(lp687
I666
ag60
aa(lp688
I667
ag51
aa(lp689
I668
ag114
aa(lp690
I669
ag60
aa(lp691
I670
ag25
aa(lp692
I671
ag15
aa(lp693
I672
ag9
aa(lp694
I673
ag22
aa(lp695
I674
ag20
aa(lp696
I675
ag51
aa(lp697
I676
ag60
aa(lp698
I677
ag20
aa(lp699
I678
ag9
aa(lp700
I680
ag9
aa(lp701
I681
ag22
aa(lp702
I682
ag29
aa(lp703
I683
ag11
aa(lp704
I684
ag15
aa(lp705
I685
ag11
aa(lp706
I686
ag9
aa(lp707
I687
ag45
aa(lp708
I688
ag29
aa(lp709
I689
ag51
aa(lp710
I690
ag9
aa(lp711
I691
ag54
aa(lp712
I692
ag9
aa(lp713
I693
ag57
aa(lp714
I694
ag29
aa(lp715
I695
ag60
aa(lp716
I696
ag62
aa(lp717
I697
ag15
aa(lp718
I698
ag65
aa(lp719
I699
ag9
aa(lp720
I700
ag68
aa(lp721
I701
ag70
aa(lp722
I702
ag57
aa(lp723
I703
ag60
aa(lp724
I704
ag37
aa(lp725
I705
ag60
aa(lp726
I706
ag9
aa(lp727
I707
ag65
aa(lp728
I708
ag99
aa(lp729
I709
ag15
aa(lp730
I710
ag62
aa(lp731
I711
ag60
aa(lp732
I712
ag29
aa(lp733
I713
ag65
aa(lp734
I714
ag20
aa(lp735
I715
ag22
aa(lp736
I716
ag9
aa(lp737
I717
ag11
aa(lp738
I718
ag29
aa(lp739
I719
ag22
aa(lp740
I720
ag9
aa(lp741
I721
ag65
aa(lp742
I722
ag9
aa(lp743
I723
ag18
aa(lp744
I724
ag73
aa(lp745
I725
ag60
aa(lp746
I726
ag65
aa(lp747
I727
ag9
aa(lp748
I728
ag37
aa(lp749
I729
ag15
aa(lp750
I730
ag9
aa(lp751
I731
ag57
aa(lp752
I732
ag60
aa(lp753
I733
ag62
aa(lp754
I734
ag11
aa(lp755
I735
ag29
aa(lp756
I736
ag51
aa(lp757
I737
ag60
aa(lp758
I738
ag20
aa(lp759
I739
ag9
aa(lp760
I741
ag9
aa(lp761
I742
ag45
aa(lp762
I743
ag29
aa(lp763
I744
ag51
aa(lp764
I745
ag9
aa(lp765
I746
ag54
aa(lp766
I747
ag9
aa(lp767
I748
ag57
aa(lp768
I749
ag29
aa(lp769
I750
ag60
aa(lp770
I751
ag62
aa(lp771
I752
ag15
aa(lp772
I753
ag65
aa(lp773
I755
ag9
aa(lp774
I756
aS'w'
p775
aa(lp776
I757
ag9
aa(lp777
I758
ag558
aa(lp778
I759
ag57
aa(lp779
I760
ag60
aa(lp780
I762
ag9
aa(lp781
I763
aS'2'
p782
aa(lp783
I764
aS'3'
p784
aa(lp785
I765
ag9
aa(lp786
I766
ag68
aa(lp787
I767
ag70
aa(lp788
I768
ag20
aa(lp789
I769
ag65
aa(lp790
I770
ag62
aa(lp791
I771
ag15
aa(lp792
I772
ag25
aa(lp793
I773
ag37
aa(lp794
I774
ag15
aa(lp795
I775
ag25
aa(lp796
I776
ag11
aa(lp797
I777
ag15
aa(lp798
I778
ag9
aa(lp799
I779
ag79
aa(lp800
I780
ag15
aa(lp801
I781
ag65
aa(lp802
I782
ag73
aa(lp803
I783
ag9
aa(lp804
I784
ag60
aa(lp805
I785
ag25
aa(lp806
I786
ag9
aa(lp807
I787
ag25
aa(lp808
I788
ag20
aa(lp809
I789
ag57
aa(lp810
I790
ag60
aa(lp811
I791
ag62
aa(lp812
I792
ag73
aa(lp813
I793
ag18
aa(lp814
I794
ag20
aa(lp815
I795
ag22
aa(lp816
I796
ag9
aa(lp817
I797
ag114
aa(lp818
I798
ag60
aa(lp819
I799
ag20
aa(lp820
I800
ag62
aa(lp821
I801
ag13
aa(lp822
I802
ag15
aa(lp823
I803
ag65
aa(lp824
I804
ag9
aa(lp825
I805
ag37
aa(lp826
I806
ag15
aa(lp827
I807
ag9
aa(lp828
I808
ag775
aa(lp829
I809
ag15
aa(lp830
I810
ag51
aa(lp831
I811
ag11
aa(lp832
I812
ag9
aa(lp833
I813
ag68
aa(lp834
I814
ag70
aa(lp835
I815
ag9
aa(lp836
I816
ag114
aa(lp837
I817
ag60
aa(lp838
I818
ag20
aa(lp839
I819
ag62
aa(lp840
I820
ag13
aa(lp841
I821
ag15
aa(lp842
I822
ag65
aa(lp843
I823
ag9
aa(lp844
I824
ag37
aa(lp845
I825
ag15
aa(lp846
I826
ag9
aa(lp847
I827
ag775
aa(lp848
I828
ag15
aa(lp849
I829
ag51
aa(lp850
I830
ag11
aa(lp851
I831
ag99
aa(lp852
I832
ag15
aa(lp853
I833
ag62
aa(lp854
I834
ag62
aa(lp855
I835
ag20
aa(lp856
I836
ag57
aa(lp857
I837
ag60
aa(lp858
I838
ag9
aa(lp859
I839
ag65
aa(lp860
I840
ag73
aa(lp861
I841
ag99
aa(lp862
I842
ag15
aa(lp863
I843
ag51
aa(lp864
I844
ag9
aa(lp865
I845
ag25
aa(lp866
I846
ag73
aa(lp867
I847
ag22
aa(lp868
I848
ag15
aa(lp869
I849
ag51
aa(lp870
I850
ag73
aa(lp871
I851
ag22
aasS'text'
p872
S', the lament on the death of , for 6 voices bymusae jovis josquin des prez nicolas gombert , motet for 5 voices byinviolata, integra et casta es josquin desprez motet for 8 voices by nicolas gomberttulerunt dominum meum , for 8 voices bynesciens mater virgo virum jean mouton for 8 voices, motet byandreas christi famulus crist bal de morales , motet for 4 voices (from motets book ii) bysalve regina giovanni pierluigi da palestrina , motet for 5 voices by giovanni pierluigi da palestrinabeatus laurentius , motet for 8 voices, m. xix (s. xxi/1) byomnes de saba venient orlande de lassus , litany for 6 voices by giovanni pierluigi da palestrinalitaniae de beata virgine maria , motet for 6 voices byvidi speciosam tom s luis de victoria , for 6 voices, w xvi, 23 byascendente jesu in naviculam giaches de wert by giaches de wertpeccavi super numerum'
p873
sS'cleanWordMap'
p874
(lp875
sS'lines'
p876
(lp877
V, the lament on the death of , for 6 voices byMusae Jovis Josquin des Prez Nicolas Gombert\u000a
p878
aV, motet for 5 voices byInviolata, integra et casta es Josquin Desprez\u000a
p879
aVMotet for 8 voices by Nicolas GombertTulerunt Dominum meum\u000a
p880
aV, for 8 voices byNesciens Mater Virgo Virum Jean Mouton\u000a
p881
aVfor 8 voices, motet byAndreas Christi famulus Crist bal de Morales\u000a
p882
aV, motet for 4 voices (from Motets Book II) bySalve Regina Giovanni Pierluigi da Palestrina\u000a
p883
aV, motet for 5 voices by Giovanni Pierluigi da PalestrinaBeatus Laurentius\u000a
p884
aV, motet for 8 voices, M. xix (S. xxi/1) byOmnes de Saba venient Orlande de Lassus\u000a
p885
aV, litany for 6 voices by Giovanni Pierluigi da PalestrinaLitaniae de beata virgine Maria\u000a
p886
aV, motet for 6 voices byVidi speciosam Tom s Luis de Victoria\u000a
p887
aV, for 6 voices, W xvi, 23 byAscendente Jesu in Naviculam Giaches de Wert\u000a
p888
aVby Giaches de WertPeccavi super numerum
p889
asS'docType'
p890
S'susp'
p891
sS'newfmap'
p892
(lp893
sS'featureMap'
p894
(lp895
sS'characterMap'
p896
(lp897
(lp898
I0
aS','
p899
aag8
ag10
ag12
ag14
ag16
ag17
ag19
ag21
ag23
ag24
ag26
ag27
ag28
ag30
ag31
ag32
ag33
ag34
ag35
ag36
ag38
ag39
ag40
ag41
ag42
ag43
ag44
ag46
a(lp900
I29
ag899
aag47
ag48
ag49
ag50
ag52
ag53
ag55
ag56
ag58
ag59
ag61
ag63
ag64
ag66
ag67
ag69
ag71
ag72
ag74
ag75
ag76
ag77
ag78
ag80
ag81
ag82
ag83
ag84
ag85
ag86
ag87
ag88
ag90
ag91
ag92
ag93
ag94
ag95
ag96
ag97
ag98
ag100
ag101
ag102
ag104
ag105
ag106
ag107
ag108
ag109
ag110
ag111
ag112
ag113
ag115
ag116
ag117
ag118
ag119
ag120
ag121
a(lp901
I91
ag899
aag122
ag123
ag124
ag125
ag126
ag127
ag128
ag129
ag130
ag131
ag132
ag133
ag135
ag136
ag137
ag138
ag139
ag140
ag141
ag142
ag143
ag144
ag145
ag146
ag147
ag148
ag149
ag150
ag151
ag152
ag153
a(lp902
I123
ag899
aag154
ag155
ag156
ag157
ag158
ag159
ag160
ag161
ag162
ag163
ag164
ag165
ag166
ag167
ag168
ag169
ag170
ag171
ag172
ag173
ag174
ag175
ag176
ag177
ag178
ag179
ag180
ag181
ag182
ag183
ag184
ag185
ag186
ag187
ag188
ag189
ag190
ag191
ag192
ag193
ag194
ag195
ag196
ag197
ag198
ag199
ag200
ag201
ag203
ag204
ag205
ag206
ag207
ag208
ag209
ag210
ag211
ag212
ag213
ag214
ag215
ag216
ag217
ag218
ag219
ag220
ag221
ag222
ag223
ag224
ag225
ag226
ag227
ag228
ag229
ag230
ag231
ag232
ag233
ag234
ag235
ag236
ag237
ag238
ag239
ag240
ag241
ag242
ag243
ag244
ag245
ag246
ag247
ag248
ag249
ag250
a(lp903
I220
ag899
aag251
ag252
ag253
ag254
ag255
ag256
ag257
ag258
ag259
ag260
ag261
ag262
ag263
ag264
ag265
ag266
ag267
ag268
ag269
ag270
ag271
ag272
ag273
ag274
ag275
ag276
ag277
ag278
ag279
ag280
ag281
ag282
ag283
ag284
ag285
ag286
ag287
ag288
ag289
ag290
ag291
ag292
ag293
ag294
ag295
ag296
ag297
ag298
ag299
ag300
ag301
ag302
ag303
ag304
ag305
ag306
ag307
ag308
ag309
ag310
ag311
ag312
ag313
ag314
ag315
ag316
ag317
a(lp904
I288
ag899
aag318
ag319
ag320
ag321
ag322
ag323
ag324
ag325
ag326
ag327
ag328
ag329
ag330
ag331
ag332
ag333
ag334
ag335
ag336
ag337
ag338
ag339
ag340
ag341
ag342
ag343
ag344
ag345
ag346
ag347
ag348
ag349
ag350
ag351
ag352
ag353
ag354
ag355
ag356
ag357
ag358
ag359
ag360
ag361
ag362
ag363
ag364
ag365
ag366
ag367
ag368
ag369
ag370
ag371
a(lp905
I343
ag899
aag372
ag373
ag374
ag375
ag376
ag377
ag378
ag379
ag380
ag381
ag382
ag383
ag385
ag386
ag387
ag388
ag389
ag390
ag391
ag392
a(lp906
I364
aS'('
p907
aag393
ag394
ag395
ag396
ag397
ag398
ag399
ag400
ag401
ag402
ag403
ag404
ag405
ag406
ag407
ag408
ag410
ag411
ag412
a(lp908
I384
aS')'
p909
aag413
ag414
ag415
ag416
ag417
ag418
ag419
ag420
ag421
ag422
ag423
ag424
ag425
ag426
ag427
ag428
ag429
ag430
ag431
ag432
ag433
ag434
ag435
ag436
ag437
ag438
ag439
ag440
ag441
ag442
ag443
ag444
ag445
ag446
ag447
ag448
ag449
ag450
ag451
ag452
ag453
ag454
ag455
ag456
ag457
ag458
ag459
ag460
ag461
a(lp910
I434
ag899
aag462
ag463
ag464
ag465
ag466
ag467
ag468
ag469
ag470
ag471
ag472
ag473
ag474
ag475
ag476
ag477
ag478
ag479
ag480
ag481
ag482
ag483
ag484
ag485
ag486
ag487
ag488
ag489
ag490
ag491
ag492
ag493
ag494
ag495
ag496
ag497
ag498
ag499
ag500
ag501
ag502
ag503
ag504
ag505
ag506
ag507
ag508
ag509
ag510
ag511
ag512
ag513
ag514
ag515
ag516
ag517
ag518
ag519
ag520
ag521
ag522
ag523
ag524
ag525
ag526
ag527
ag528
ag529
ag530
ag531
ag532
ag533
ag534
a(lp911
I508
ag899
aag535
ag536
ag537
ag538
ag539
ag540
ag541
ag542
ag543
ag544
ag545
ag546
ag547
ag548
ag549
ag550
ag551
ag552
ag553
a(lp912
I528
ag899
aag554
ag555
a(lp913
I531
aS'.'
p914
aag556
ag557
ag559
ag560
ag561
a(lp915
I537
ag907
aag562
a(lp916
I539
ag914
aag563
ag564
ag565
ag566
a(lp917
I544
aS'/'
p918
aag567
a(lp919
I546
ag909
aag569
ag570
ag571
ag572
ag573
ag574
ag575
ag576
ag577
ag578
ag579
ag580
ag581
ag582
ag583
ag584
ag585
ag586
ag587
ag588
ag589
ag590
ag591
ag592
ag593
ag594
ag595
ag596
ag597
ag598
ag599
ag600
ag601
ag602
ag603
ag604
ag605
ag606
ag607
ag608
ag609
ag610
ag611
a(lp920
I590
ag899
aag612
ag613
ag614
ag615
ag616
ag617
ag618
ag619
ag620
ag621
ag622
ag623
ag624
ag625
ag626
ag627
ag628
ag629
ag630
ag631
ag632
ag633
ag634
ag635
ag636
ag637
ag638
ag639
ag640
ag641
ag642
ag643
ag644
ag645
ag646
ag647
ag648
ag649
ag650
ag651
ag652
ag653
ag654
ag655
ag656
ag657
ag658
ag659
ag660
ag661
ag662
ag663
ag664
ag665
ag666
ag667
ag668
ag669
ag670
ag671
ag672
ag673
ag674
ag675
ag676
ag677
ag678
ag679
ag680
ag681
ag682
ag683
ag684
ag685
ag686
ag687
ag688
ag689
ag690
ag691
ag692
ag693
ag694
ag695
ag696
ag697
ag698
ag699
a(lp921
I679
ag899
aag700
ag701
ag702
ag703
ag704
ag705
ag706
ag707
ag708
ag709
ag710
ag711
ag712
ag713
ag714
ag715
ag716
ag717
ag718
ag719
ag720
ag721
ag722
ag723
ag724
ag725
ag726
ag727
ag728
ag729
ag730
ag731
ag732
ag733
ag734
ag735
ag736
ag737
ag738
ag739
ag740
ag741
ag742
ag743
ag744
ag745
ag746
ag747
ag748
ag749
ag750
ag751
ag752
ag753
ag754
ag755
ag756
ag757
ag758
ag759
a(lp922
I740
ag899
aag760
ag761
ag762
ag763
ag764
ag765
ag766
ag767
ag768
ag769
ag770
ag771
ag772
a(lp923
I754
ag899
aag773
ag774
ag776
ag777
ag778
ag779
a(lp924
I761
ag899
aag780
ag781
ag783
ag785
ag786
ag787
ag788
ag789
ag790
ag791
ag792
ag793
ag794
ag795
ag796
ag797
ag798
ag799
ag800
ag801
ag802
ag803
ag804
ag805
ag806
ag807
ag808
ag809
ag810
ag811
ag812
ag813
ag814
ag815
ag816
ag817
ag818
ag819
ag820
ag821
ag822
ag823
ag824
ag825
ag826
ag827
ag828
ag829
ag830
ag831
ag832
ag833
ag834
ag835
ag836
ag837
ag838
ag839
ag840
ag841
ag842
ag843
ag844
ag845
ag846
ag847
ag848
ag849
ag850
ag851
ag852
ag853
ag854
ag855
ag856
ag857
ag858
ag859
ag860
ag861
ag862
ag863
ag864
ag865
ag866
ag867
ag868
ag869
ag870
ag871
asS'docName'
p925
S'suspicious-document00643.txt'
p926
sb.