(iModel.Document
Document
p0
(dp1
S'fmap'
p2
(lp3
(lp4
I6
aI14
aS'keyboards'
p5
a(lp6
S'*'
p7
ag5
aaa(lp8
I6
aI14
ag5
a(lp9
g7
ag5
aaa(lp10
I6
aI14
ag5
a(lp11
g7
ag5
aaa(lp12
I6
aI14
ag5
a(lp13
g7
ag5
aaa(lp14
I20
aI27
aS'personal'
p15
a(lp16
g5
ag15
aaa(lp17
I20
aI27
ag15
a(lp18
g7
ag15
aaa(lp19
I20
aI27
ag15
a(lp20
g7
ag15
aaa(lp21
I20
aI27
ag15
a(lp22
g7
ag15
aaa(lp23
I29
aI36
aS'computer'
p24
a(lp25
g15
ag24
aaa(lp26
I29
aI36
ag24
a(lp27
g5
ag24
aaa(lp28
I29
aI36
ag24
a(lp29
g7
ag24
aaa(lp30
I29
aI36
ag24
a(lp31
g7
ag24
aaa(lp32
I47
aI52
aS'around'
p33
a(lp34
g24
ag33
aaa(lp35
I47
aI52
ag33
a(lp36
g15
ag33
aaa(lp37
I47
aI52
ag33
a(lp38
g5
ag33
aaa(lp39
I47
aI52
ag33
a(lp40
g7
ag33
aaa(lp41
I68
aI69
aS'20'
p42
a(lp43
g33
ag42
aaa(lp44
I68
aI69
ag42
a(lp45
g24
ag42
aaa(lp46
I68
aI69
ag42
a(lp47
g15
ag42
aaa(lp48
I68
aI69
ag42
a(lp49
g5
ag42
aaa(lp50
I71
aI75
aS'years'
p51
a(lp52
g42
ag51
aaa(lp53
I71
aI75
ag51
a(lp54
g33
ag51
aaa(lp55
I71
aI75
ag51
a(lp56
g24
ag51
aaa(lp57
I71
aI75
ag51
a(lp58
g15
ag51
aaa(lp59
I88
aI101
aS'revolutionised'
p60
a(lp61
g51
ag60
aaa(lp62
I88
aI101
ag60
a(lp63
g42
ag60
aaa(lp64
I88
aI101
ag60
a(lp65
g33
ag60
aaa(lp66
I88
aI101
ag60
a(lp67
g24
ag60
aaa(lp68
I107
aI109
aS'way'
p69
a(lp70
g60
ag69
aaa(lp71
I107
aI109
ag69
a(lp72
g51
ag69
aaa(lp73
I107
aI109
ag69
a(lp74
g42
ag69
aaa(lp75
I107
aI109
ag69
a(lp76
g33
ag69
aaa(lp77
I114
aI117
aS'work'
p78
a(lp79
g69
ag78
aaa(lp80
I114
aI117
ag78
a(lp81
g60
ag78
aaa(lp82
I114
aI117
ag78
a(lp83
g51
ag78
aaa(lp84
I114
aI117
ag78
a(lp85
g42
ag78
aaa(lp86
I120
aI122
aS'one'
p87
a(lp88
g78
ag87
aaa(lp89
I120
aI122
ag87
a(lp90
g69
ag87
aaa(lp91
I120
aI122
ag87
a(lp92
g60
ag87
aaa(lp93
I120
aI122
ag87
a(lp94
g51
ag87
aaa(lp95
I136
aI144
aS'important'
p96
a(lp97
g87
ag96
aaa(lp98
I136
aI144
ag96
a(lp99
g78
ag96
aaa(lp100
I136
aI144
ag96
a(lp101
g69
ag96
aaa(lp102
I136
aI144
ag96
a(lp103
g60
ag96
aaa(lp104
I146
aI154
aS'component'
p105
a(lp106
g96
ag105
aaa(lp107
I146
aI154
ag105
a(lp108
g87
ag105
aaa(lp109
I146
aI154
ag105
a(lp110
g78
ag105
aaa(lp111
I146
aI154
ag105
a(lp112
g69
ag105
aaa(lp113
I163
aI170
aS'computer'
p114
a(lp115
g105
ag114
aaa(lp116
I163
aI170
ag114
a(lp117
g96
ag114
aaa(lp118
I163
aI170
ag114
a(lp119
g87
ag114
aaa(lp120
I163
aI170
ag114
a(lp121
g78
ag114
aaa(lp122
I179
aI186
aS'keyboard'
p123
a(lp124
g114
ag123
aaa(lp125
I179
aI186
ag123
a(lp126
g105
ag123
aaa(lp127
I179
aI186
ag123
a(lp128
g96
ag123
aaa(lp129
I179
aI186
ag123
a(lp130
g87
ag123
aaa(lp131
I198
aI202
aS'often'
p132
a(lp133
g123
ag132
aaa(lp134
I198
aI202
ag132
a(lp135
g114
ag132
aaa(lp136
I198
aI202
ag132
a(lp137
g105
ag132
aaa(lp138
I198
aI202
ag132
a(lp139
g96
ag132
aaa(lp140
I204
aI211
aS'referred'
p141
a(lp142
g132
ag141
aaa(lp143
I204
aI211
ag141
a(lp144
g123
ag141
aaa(lp145
I204
aI211
ag141
a(lp146
g114
ag141
aaa(lp147
I204
aI211
ag141
a(lp148
g105
ag141
aaa(lp149
I219
aI227
aS'technical'
p150
a(lp151
g141
ag150
aaa(lp152
I219
aI227
ag150
a(lp153
g132
ag150
aaa(lp154
I219
aI227
ag150
a(lp155
g123
ag150
aaa(lp156
I219
aI227
ag150
a(lp157
g114
ag150
aaa(lp158
I229
aI233
aS'terms'
p159
a(lp160
g150
ag159
aaa(lp161
I229
aI233
ag159
a(lp162
g141
ag159
aaa(lp163
I229
aI233
ag159
a(lp164
g132
ag159
aaa(lp165
I229
aI233
ag159
a(lp166
g123
ag159
aaa(lp167
I239
aI242
aS'main'
p168
a(lp169
g159
ag168
aaa(lp170
I239
aI242
ag168
a(lp171
g150
ag168
aaa(lp172
I239
aI242
ag168
a(lp173
g141
ag168
aaa(lp174
I239
aI242
ag168
a(lp175
g132
ag168
aaa(lp176
I244
aI248
aS'input'
p177
a(lp178
g168
ag177
aaa(lp179
I244
aI248
ag177
a(lp180
g159
ag177
aaa(lp181
I244
aI248
ag177
a(lp182
g150
ag177
aaa(lp183
I244
aI248
ag177
a(lp184
g141
ag177
aaa(lp185
I250
aI255
aS'device'
p186
a(lp187
g177
ag186
aaa(lp188
I250
aI255
ag186
a(lp189
g168
ag186
aaa(lp190
I250
aI255
ag186
a(lp191
g159
ag186
aaa(lp192
I250
aI255
ag186
a(lp193
g150
ag186
aaa(lp194
I262
aI266
aS'mouse'
p195
a(lp196
g186
ag195
aaa(lp197
I262
aI266
ag195
a(lp198
g177
ag195
aaa(lp199
I262
aI266
ag195
a(lp200
g168
ag195
aaa(lp201
I262
aI266
ag195
a(lp202
g159
ag195
aaa(lp203
I271
aI277
aS'another'
p204
a(lp205
g195
ag204
aaa(lp206
I271
aI277
ag204
a(lp207
g186
ag204
aaa(lp208
I271
aI277
ag204
a(lp209
g177
ag204
aaa(lp210
I271
aI277
ag204
a(lp211
g168
ag204
aaa(lp212
I285
aI292
aS'keyboard'
p213
a(lp214
g204
ag213
aaa(lp215
I285
aI292
ag213
a(lp216
g195
ag213
aaa(lp217
I285
aI292
ag213
a(lp218
g186
ag213
aaa(lp219
I285
aI292
ag213
a(lp220
g177
ag213
aaa(lp221
I294
aI299
aS'allows'
p222
a(lp223
g213
ag222
aaa(lp224
I294
aI299
ag222
a(lp225
g204
ag222
aaa(lp226
I294
aI299
ag222
a(lp227
g195
ag222
aaa(lp228
I294
aI299
ag222
a(lp229
g186
ag222
aaa(lp230
I305
aI308
aS'user'
p231
a(lp232
g222
ag231
aaa(lp233
I305
aI308
ag231
a(lp234
g213
ag231
aaa(lp235
I305
aI308
ag231
a(lp236
g204
ag231
aaa(lp237
I305
aI308
ag231
a(lp238
g195
ag231
aaa(lp239
I313
aI323
aS'communicate'
p240
a(lp241
g231
ag240
aaa(lp242
I313
aI323
ag240
a(lp243
g222
ag240
aaa(lp244
I313
aI323
ag240
a(lp245
g213
ag240
aaa(lp246
I313
aI323
ag240
a(lp247
g204
ag240
aaa(lp248
I334
aI341
aS'computer'
p249
a(lp250
g240
ag249
aaa(lp251
I334
aI341
ag249
a(lp252
g231
ag249
aaa(lp253
I334
aI341
ag249
a(lp254
g222
ag249
aaa(lp255
I334
aI341
ag249
a(lp256
g213
ag249
aaa(lp257
I351
aI355
aS'given'
p258
a(lp259
g249
ag258
aaa(lp260
I351
aI355
ag258
a(lp261
g240
ag258
aaa(lp262
I351
aI355
ag258
a(lp263
g231
ag258
aaa(lp264
I351
aI355
ag258
a(lp265
g222
ag258
aaa(lp266
I357
aI362
aS'moment'
p267
a(lp268
g258
ag267
aaa(lp269
I357
aI362
ag267
a(lp270
g249
ag267
aaa(lp271
I357
aI362
ag267
a(lp272
g240
ag267
aaa(lp273
I357
aI362
ag267
a(lp274
g231
ag267
aaa(lp275
I365
aI372
aS'millions'
p276
a(lp277
g267
ag276
aaa(lp278
I365
aI372
ag276
a(lp279
g258
ag276
aaa(lp280
I365
aI372
ag276
a(lp281
g249
ag276
aaa(lp282
I365
aI372
ag276
a(lp283
g240
ag276
aaa(lp284
I378
aI385
aS'millions'
p285
a(lp286
g276
ag285
aaa(lp287
I378
aI385
ag285
a(lp288
g267
ag285
aaa(lp289
I378
aI385
ag285
a(lp290
g258
ag285
aaa(lp291
I378
aI385
ag285
a(lp292
g249
ag285
aaa(lp293
I390
aI398
aS'keyboards'
p294
a(lp295
g285
ag294
aaa(lp296
I390
aI398
ag294
a(lp297
g276
ag294
aaa(lp298
I390
aI398
ag294
a(lp299
g267
ag294
aaa(lp300
I390
aI398
ag294
a(lp301
g258
ag294
aaa(lp302
I400
aI405
aS'around'
p303
a(lp304
g294
ag303
aaa(lp305
I400
aI405
ag303
a(lp306
g285
ag303
aaa(lp307
I400
aI405
ag303
a(lp308
g276
ag303
aaa(lp309
I400
aI405
ag303
a(lp310
g267
ag303
aaa(lp311
I411
aI415
aS'world'
p312
a(lp313
g303
ag312
aaa(lp314
I411
aI415
ag312
a(lp315
g294
ag312
aaa(lp316
I411
aI415
ag312
a(lp317
g285
ag312
aaa(lp318
I411
aI415
ag312
a(lp319
g276
ag312
aaa(lp320
I421
aI424
aS'used'
p321
a(lp322
g312
ag321
aaa(lp323
I421
aI424
ag321
a(lp324
g303
ag321
aaa(lp325
I421
aI424
ag321
a(lp326
g294
ag321
aaa(lp327
I421
aI424
ag321
a(lp328
g285
ag321
aaa(lp329
I429
aI431
aS'tap'
p330
a(lp331
g321
ag330
aaa(lp332
I429
aI431
ag330
a(lp333
g312
ag330
aaa(lp334
I429
aI431
ag330
a(lp335
g303
ag330
aaa(lp336
I429
aI431
ag330
a(lp337
g294
ag330
aaa(lp338
I433
aI440
aS'messages'
p339
a(lp340
g330
ag339
aaa(lp341
I433
aI440
ag339
a(lp342
g321
ag339
aaa(lp343
I433
aI440
ag339
a(lp344
g312
ag339
aaa(lp345
I433
aI440
ag339
a(lp346
g303
ag339
aaa(lp347
I449
aI456
aS'computer'
p348
a(lp349
g339
ag348
aaa(lp350
I449
aI456
ag348
a(lp351
g330
ag348
aaa(lp352
I449
aI456
ag348
a(lp353
g321
ag348
aaa(lp354
I449
aI456
ag348
a(lp355
g312
ag348
aaa(lp356
I462
aI468
aS'offices'
p357
a(lp358
g348
ag357
aaa(lp359
I462
aI468
ag357
a(lp360
g339
ag357
aaa(lp361
I462
aI468
ag357
a(lp362
g330
ag357
aaa(lp363
I462
aI468
ag357
a(lp364
g321
ag357
aaa(lp365
I473
aI477
aS'heads'
p366
a(lp367
g357
ag366
aaa(lp368
I473
aI477
ag366
a(lp369
g348
ag366
aaa(lp370
I473
aI477
ag366
a(lp371
g339
ag366
aaa(lp372
I473
aI477
ag366
a(lp373
g330
ag366
aaa(lp374
I482
aI486
aS'state'
p375
a(lp376
g366
ag375
aaa(lp377
I482
aI486
ag375
a(lp378
g357
ag375
aaa(lp379
I482
aI486
ag375
a(lp380
g348
ag375
aaa(lp381
I482
aI486
ag375
a(lp382
g339
ag375
aaa(lp383
I492
aI496
aS'tents'
p384
a(lp385
g375
ag384
aaa(lp386
I492
aI496
ag384
a(lp387
g366
ag384
aaa(lp388
I492
aI496
ag384
a(lp389
g357
ag384
aaa(lp390
I492
aI496
ag384
a(lp391
g348
ag384
aaa(lp392
I505
aI510
aS'desert'
p393
a(lp394
g384
ag393
aaa(lp395
I505
aI510
ag393
a(lp396
g375
ag393
aaa(lp397
I505
aI510
ag393
a(lp398
g366
ag393
aaa(lp399
I505
aI510
ag393
a(lp400
g357
ag393
aaa(lp401
I513
aI518
aS'butave'
p402
a(lp403
g393
ag402
aaa(lp404
I513
aI518
ag402
a(lp405
g384
ag402
aaa(lp406
I513
aI518
ag402
a(lp407
g375
ag402
aaa(lp408
I513
aI518
ag402
a(lp409
g366
ag402
aaa(lp410
I524
aI527
aS'ever'
p411
a(lp412
g402
ag411
aaa(lp413
I524
aI527
ag411
a(lp414
g393
ag411
aaa(lp415
I524
aI527
ag411
a(lp416
g384
ag411
aaa(lp417
I524
aI527
ag411
a(lp418
g375
ag411
aaa(lp419
I529
aI536
aS'wondered'
p420
a(lp421
g411
ag420
aaa(lp422
I529
aI536
ag420
a(lp423
g402
ag420
aaa(lp424
I529
aI536
ag420
a(lp425
g393
ag420
aaa(lp426
I529
aI536
ag420
a(lp427
g384
ag420
aaa(lp428
I548
aI563
aS'onsensicalqwerty'
p429
a(lp430
g420
ag429
aaa(lp431
I548
aI563
ag429
a(lp432
g411
ag429
aaa(lp433
I548
aI563
ag429
a(lp434
g402
ag429
aaa(lp435
I548
aI563
ag429
a(lp436
g393
ag429
aaa(lp437
I565
aI570
aS'layout'
p438
a(lp439
g429
ag438
aaa(lp440
I565
aI570
ag438
a(lp441
g420
ag438
aaa(lp442
I565
aI570
ag438
a(lp443
g411
ag438
aaa(lp444
I565
aI570
ag438
a(lp445
g402
ag438
aaa(lp446
I579
aI584
aS'modern'
p447
a(lp448
g438
ag447
aaa(lp449
I579
aI584
ag447
a(lp450
g429
ag447
aaa(lp451
I579
aI584
ag447
a(lp452
g420
ag447
aaa(lp453
I579
aI584
ag447
a(lp454
g411
ag447
aaa(lp455
I586
aI593
aS'computer'
p456
a(lp457
g447
ag456
aaa(lp458
I586
aI593
ag456
a(lp459
g438
ag456
aaa(lp460
I586
aI593
ag456
a(lp461
g429
ag456
aaa(lp462
I586
aI593
ag456
a(lp463
g420
ag456
aaa(lp464
I595
aI602
aS'keyboard'
p465
a(lp466
g456
ag465
aaa(lp467
I595
aI602
ag465
a(lp468
g447
ag465
aaa(lp469
I595
aI602
ag465
a(lp470
g438
ag465
aaa(lp471
I595
aI602
ag465
a(lp472
g429
ag465
aaa(lp473
I604
aI608
aS'comes'
p474
a(lp475
g465
ag474
aaa(lp476
I604
aI608
ag474
a(lp477
g456
ag474
aaa(lp478
I604
aI608
ag474
a(lp479
g447
ag474
aaa(lp480
I604
aI608
ag474
a(lp481
g438
ag474
aaa(lp482
I627
aI630
aS'keys'
p483
a(lp484
g474
ag483
aaa(lp485
I627
aI630
ag483
a(lp486
g465
ag483
aaa(lp487
I627
aI630
ag483
a(lp488
g456
ag483
aaa(lp489
I627
aI630
ag483
a(lp490
g447
ag483
aaa(lp491
I639
aI646
aS'keyboard'
p492
a(lp493
g483
ag492
aaa(lp494
I639
aI646
ag492
a(lp495
g474
ag492
aaa(lp496
I639
aI646
ag492
a(lp497
g465
ag492
aaa(lp498
I639
aI646
ag492
a(lp499
g456
ag492
aaa(lp500
I659
aI663
aS'order'
p501
a(lp502
g492
ag501
aaa(lp503
I659
aI663
ag501
a(lp504
g483
ag501
aaa(lp505
I659
aI663
ag501
a(lp506
g474
ag501
aaa(lp507
I659
aI663
ag501
a(lp508
g465
ag501
aaa(lp509
I695
aI704
aS'interested'
p510
a(lp511
g501
ag510
aaa(lp512
I695
aI704
ag510
a(lp513
g492
ag510
aaa(lp514
I695
aI704
ag510
a(lp515
g483
ag510
aaa(lp516
I695
aI704
ag510
a(lp517
g474
ag510
aaa(lp518
I713
aI719
aS'history'
p519
a(lp520
g510
ag519
aaa(lp521
I713
aI719
ag519
a(lp522
g501
ag519
aaa(lp523
I713
aI719
ag519
a(lp524
g492
ag519
aaa(lp525
I713
aI719
ag519
a(lp526
g483
ag519
aaa(lp527
I728
aI735
aS'keyboard'
p528
a(lp529
g519
ag528
aaa(lp530
I728
aI735
ag528
a(lp531
g510
ag528
aaa(lp532
I728
aI735
ag528
a(lp533
g501
ag528
aaa(lp534
I728
aI735
ag528
a(lp535
g492
ag528
aaa(lp536
I743
aI749
aS'section'
p537
a(lp538
g528
ag537
aaa(lp539
I743
aI749
ag537
a(lp540
g519
ag537
aaa(lp541
I743
aI749
ag537
a(lp542
g510
ag537
aaa(lp543
I743
aI749
ag537
a(lp544
g501
ag537
aaa(lp545
I751
aI756
aS'covers'
p546
a(lp547
g537
ag546
aaa(lp548
I751
aI756
ag546
a(lp549
g528
ag546
aaa(lp550
I751
aI756
ag546
a(lp551
g519
ag546
aaa(lp552
I751
aI756
ag546
a(lp553
g510
ag546
aaa(lp554
I766
aI771
aS'qwerty'
p555
a(lp556
g546
ag555
aaa(lp557
I766
aI771
ag555
a(lp558
g537
ag555
aaa(lp559
I766
aI771
ag555
a(lp560
g528
ag555
aaa(lp561
I766
aI771
ag555
a(lp562
g519
ag555
aaa(lp563
I773
aI780
aS'keyboard'
p564
a(lp565
g555
ag564
aaa(lp566
I773
aI780
ag564
a(lp567
g546
ag564
aaa(lp568
I773
aI780
ag564
a(lp569
g537
ag564
aaa(lp570
I773
aI780
ag564
a(lp571
g528
ag564
aaa(lp572
I782
aI785
aS'came'
p573
a(lp574
g564
ag573
aaa(lp575
I782
aI785
ag573
a(lp576
g555
ag573
aaa(lp577
I782
aI785
ag573
a(lp578
g546
ag573
aaa(lp579
I782
aI785
ag573
a(lp580
g537
ag573
aaa(lp581
I801
aI807
aS'reasons'
p582
a(lp583
g573
ag582
aaa(lp584
I801
aI807
ag582
a(lp585
g564
ag582
aaa(lp586
I801
aI807
ag582
a(lp587
g555
ag582
aaa(lp588
I801
aI807
ag582
a(lp589
g546
ag582
aaa(lp590
I813
aI820
aS'computer'
p591
a(lp592
g582
ag591
aaa(lp593
I813
aI820
ag591
a(lp594
g573
ag591
aaa(lp595
I813
aI820
ag591
a(lp596
g564
ag591
aaa(lp597
I813
aI820
ag591
a(lp598
g555
ag591
aaa(lp599
I822
aI830
aS'keyboards'
p600
a(lp601
g591
ag600
aaa(lp602
I822
aI830
ag600
a(lp603
g582
ag600
aaa(lp604
I822
aI830
ag600
a(lp605
g573
ag600
aaa(lp606
I822
aI830
ag600
a(lp607
g564
ag600
aaa(lp608
I839
aI842
aS'hard'
p609
a(lp610
g600
ag609
aaa(lp611
I839
aI842
ag609
a(lp612
g591
ag609
aaa(lp613
I839
aI842
ag609
a(lp614
g582
ag609
aaa(lp615
I839
aI842
ag609
a(lp616
g573
ag609
aaa(lp617
I847
aI849
aS'use'
p618
a(lp619
g609
ag618
aaa(lp620
I847
aI849
ag618
a(lp621
g600
ag618
aaa(lp622
I847
aI849
ag618
a(lp623
g591
ag618
aaa(lp624
I847
aI849
ag618
a(lp625
g582
ag618
aaa(lp626
I855
aI861
aS'welcome'
p627
a(lp628
g618
ag627
aaa(lp629
I855
aI861
ag627
a(lp630
g609
ag627
aaa(lp631
I855
aI861
ag627
a(lp632
g600
ag627
aaa(lp633
I855
aI861
ag627
a(lp634
g591
ag627
aaa(lp635
I863
aI875
aS'contributions'
p636
a(lp637
g627
ag636
aaa(lp638
I863
aI875
ag636
a(lp639
g618
ag636
aaa(lp640
I863
aI875
ag636
a(lp641
g609
ag636
aaa(lp642
I863
aI875
ag636
a(lp643
g600
ag636
aaa(lp644
I878
aI883
aS'please'
p645
a(lp646
g636
ag645
aaa(lp647
I878
aI883
ag645
a(lp648
g627
ag645
aaa(lp649
I878
aI883
ag645
a(lp650
g618
ag645
aaa(lp651
I878
aI883
ag645
a(lp652
g609
ag645
aaa(lp653
I885
aI889
aS'email'
p654
a(lp655
g645
ag654
aaa(lp656
I885
aI889
ag654
a(lp657
g636
ag654
aaa(lp658
I885
aI889
ag654
a(lp659
g627
ag654
aaa(lp660
I885
aI889
ag654
a(lp661
g618
ag654
aaasS'wordMap'
p662
(lp663
(lp664
I0
aI4
aS'about'
p665
a(lp666
(lp667
I0
aS'a'
p668
aa(lp669
I1
aS'b'
p670
aa(lp671
I2
aS'o'
p672
aa(lp673
I3
aS'u'
p674
aa(lp675
I4
aS't'
p676
aaaa(lp677
I6
aI14
ag5
a(lp678
(lp679
I6
aS'k'
p680
aa(lp681
I7
aS'e'
p682
aa(lp683
I8
aS'y'
p684
aa(lp685
I9
ag670
aa(lp686
I10
ag672
aa(lp687
I11
ag668
aa(lp688
I12
aS'r'
p689
aa(lp690
I13
aS'd'
p691
aa(lp692
I14
aS's'
p693
aaaa(lp694
I16
aI18
aS'the'
p695
a(lp696
(lp697
I16
ag676
aa(lp698
I17
aS'h'
p699
aa(lp700
I18
ag682
aaaa(lp701
I20
aI27
ag15
a(lp702
(lp703
I20
aS'p'
p704
aa(lp705
I21
ag682
aa(lp706
I22
ag689
aa(lp707
I23
ag693
aa(lp708
I24
ag672
aa(lp709
I25
aS'n'
p710
aa(lp711
I26
ag668
aa(lp712
I27
aS'l'
p713
aaaa(lp714
I29
aI36
ag24
a(lp715
(lp716
I29
aS'c'
p717
aa(lp718
I30
ag672
aa(lp719
I31
aS'm'
p720
aa(lp721
I32
ag704
aa(lp722
I33
ag674
aa(lp723
I34
ag676
aa(lp724
I35
ag682
aa(lp725
I36
ag689
aaaa(lp726
I38
aI40
aS'has'
p727
a(lp728
(lp729
I38
ag699
aa(lp730
I39
ag668
aa(lp731
I40
ag693
aaaa(lp732
I42
aI45
aS'been'
p733
a(lp734
(lp735
I42
ag670
aa(lp736
I43
ag682
aa(lp737
I44
ag682
aa(lp738
I45
ag710
aaaa(lp739
I47
aI52
ag33
a(lp740
(lp741
I47
ag668
aa(lp742
I48
ag689
aa(lp743
I49
ag672
aa(lp744
I50
ag674
aa(lp745
I51
ag710
aa(lp746
I52
ag691
aaaa(lp747
I54
aI56
aS'for'
p748
a(lp749
(lp750
I54
aS'f'
p751
aa(lp752
I55
ag672
aa(lp753
I56
ag689
aaaa(lp754
I58
aI61
aS'just'
p755
a(lp756
(lp757
I58
aS'j'
p758
aa(lp759
I59
ag674
aa(lp760
I60
ag693
aa(lp761
I61
ag676
aaaa(lp762
I63
aI66
aS'over'
p763
a(lp764
(lp765
I63
ag672
aa(lp766
I64
aS'v'
p767
aa(lp768
I65
ag682
aa(lp769
I66
ag689
aaaa(lp770
I68
aI69
ag42
a(lp771
(lp772
I68
aS'2'
p773
aa(lp774
I69
aS'0'
p775
aaaa(lp776
I71
aI75
ag51
a(lp777
(lp778
I71
ag684
aa(lp779
I72
ag682
aa(lp780
I73
ag668
aa(lp781
I74
ag689
aa(lp782
I75
ag693
aaaa(lp783
I77
aI79
aS'and'
p784
a(lp785
(lp786
I77
ag668
aa(lp787
I78
ag710
aa(lp788
I79
ag691
aaaa(lp789
I81
aI82
aS'it'
p790
a(lp791
(lp792
I81
aS'i'
p793
aa(lp794
I82
ag676
aaaa(lp795
I84
aI86
aS'has'
p796
a(lp797
(lp798
I84
ag699
aa(lp799
I85
ag668
aa(lp800
I86
ag693
aaaa(lp801
I88
aI101
ag60
a(lp802
(lp803
I88
ag689
aa(lp804
I89
ag682
aa(lp805
I90
ag767
aa(lp806
I91
ag672
aa(lp807
I92
ag713
aa(lp808
I93
ag674
aa(lp809
I94
ag676
aa(lp810
I95
ag793
aa(lp811
I96
ag672
aa(lp812
I97
ag710
aa(lp813
I98
ag793
aa(lp814
I99
ag693
aa(lp815
I100
ag682
aa(lp816
I101
ag691
aaaa(lp817
I103
aI105
aS'the'
p818
a(lp819
(lp820
I103
ag676
aa(lp821
I104
ag699
aa(lp822
I105
ag682
aaaa(lp823
I107
aI109
ag69
a(lp824
(lp825
I107
aS'w'
p826
aa(lp827
I108
ag668
aa(lp828
I109
ag684
aaaa(lp829
I111
aI112
aS'we'
p830
a(lp831
(lp832
I111
ag826
aa(lp833
I112
ag682
aaaa(lp834
I114
aI117
ag78
a(lp835
(lp836
I114
ag826
aa(lp837
I115
ag672
aa(lp838
I116
ag689
aa(lp839
I117
ag680
aaaa(lp840
I120
aI122
ag87
a(lp841
(lp842
I120
ag672
aa(lp843
I121
ag710
aa(lp844
I122
ag682
aaaa(lp845
I124
aI125
aS'of'
p846
a(lp847
(lp848
I124
ag672
aa(lp849
I125
ag751
aaaa(lp850
I127
aI129
aS'the'
p851
a(lp852
(lp853
I127
ag676
aa(lp854
I128
ag699
aa(lp855
I129
ag682
aaaa(lp856
I131
aI134
aS'most'
p857
a(lp858
(lp859
I131
ag720
aa(lp860
I132
ag672
aa(lp861
I133
ag693
aa(lp862
I134
ag676
aaaa(lp863
I136
aI144
ag96
a(lp864
(lp865
I136
ag793
aa(lp866
I137
ag720
aa(lp867
I138
ag704
aa(lp868
I139
ag672
aa(lp869
I140
ag689
aa(lp870
I141
ag676
aa(lp871
I142
ag668
aa(lp872
I143
ag710
aa(lp873
I144
ag676
aaaa(lp874
I146
aI154
ag105
a(lp875
(lp876
I146
ag717
aa(lp877
I147
ag672
aa(lp878
I148
ag720
aa(lp879
I149
ag704
aa(lp880
I150
ag672
aa(lp881
I151
ag710
aa(lp882
I152
ag682
aa(lp883
I153
ag710
aa(lp884
I154
ag676
aaaa(lp885
I156
aI157
aS'of'
p886
a(lp887
(lp888
I156
ag672
aa(lp889
I157
ag751
aaaa(lp890
I159
aI161
aS'the'
p891
a(lp892
(lp893
I159
ag676
aa(lp894
I160
ag699
aa(lp895
I161
ag682
aaaa(lp896
I163
aI170
ag114
a(lp897
(lp898
I163
ag717
aa(lp899
I164
ag672
aa(lp900
I165
ag720
aa(lp901
I166
ag704
aa(lp902
I167
ag674
aa(lp903
I168
ag676
aa(lp904
I169
ag682
aa(lp905
I170
ag689
aaaa(lp906
I172
aI173
aS'is'
p907
a(lp908
(lp909
I172
ag793
aa(lp910
I173
ag693
aaaa(lp911
I175
aI177
aS'the'
p912
a(lp913
(lp914
I175
ag676
aa(lp915
I176
ag699
aa(lp916
I177
ag682
aaaa(lp917
I179
aI186
ag123
a(lp918
(lp919
I179
ag680
aa(lp920
I180
ag682
aa(lp921
I181
ag684
aa(lp922
I182
ag670
aa(lp923
I183
ag672
aa(lp924
I184
ag668
aa(lp925
I185
ag689
aa(lp926
I186
ag691
aaaa(lp927
I189
aI190
aS'or'
p928
a(lp929
(lp930
I189
ag672
aa(lp931
I190
ag689
aaaa(lp932
I192
aI193
aS'as'
p933
a(lp934
(lp935
I192
ag668
aa(lp936
I193
ag693
aaaa(lp937
I195
aI196
aS'is'
p938
a(lp939
(lp940
I195
ag793
aa(lp941
I196
ag693
aaaa(lp942
I198
aI202
ag132
a(lp943
(lp944
I198
ag672
aa(lp945
I199
ag751
aa(lp946
I200
ag676
aa(lp947
I201
ag682
aa(lp948
I202
ag710
aaaa(lp949
I204
aI211
ag141
a(lp950
(lp951
I204
ag689
aa(lp952
I205
ag682
aa(lp953
I206
ag751
aa(lp954
I207
ag682
aa(lp955
I208
ag689
aa(lp956
I209
ag689
aa(lp957
I210
ag682
aa(lp958
I211
ag691
aaaa(lp959
I213
aI214
aS'to'
p960
a(lp961
(lp962
I213
ag676
aa(lp963
I214
ag672
aaaa(lp964
I216
aI217
aS'in'
p965
a(lp966
(lp967
I216
ag793
aa(lp968
I217
ag710
aaaa(lp969
I219
aI227
ag150
a(lp970
(lp971
I219
ag676
aa(lp972
I220
ag682
aa(lp973
I221
ag717
aa(lp974
I222
ag699
aa(lp975
I223
ag710
aa(lp976
I224
ag793
aa(lp977
I225
ag717
aa(lp978
I226
ag668
aa(lp979
I227
ag713
aaaa(lp980
I229
aI233
ag159
a(lp981
(lp982
I229
ag676
aa(lp983
I230
ag682
aa(lp984
I231
ag689
aa(lp985
I232
ag720
aa(lp986
I233
ag693
aaaa(lp987
I235
aI237
aS'the'
p988
a(lp989
(lp990
I235
ag676
aa(lp991
I236
ag699
aa(lp992
I237
ag682
aaaa(lp993
I239
aI242
ag168
a(lp994
(lp995
I239
ag720
aa(lp996
I240
ag668
aa(lp997
I241
ag793
aa(lp998
I242
ag710
aaaa(lp999
I244
aI248
ag177
a(lp1000
(lp1001
I244
ag793
aa(lp1002
I245
ag710
aa(lp1003
I246
ag704
aa(lp1004
I247
ag674
aa(lp1005
I248
ag676
aaaa(lp1006
I250
aI255
ag186
a(lp1007
(lp1008
I250
ag691
aa(lp1009
I251
ag682
aa(lp1010
I252
ag767
aa(lp1011
I253
ag793
aa(lp1012
I254
ag717
aa(lp1013
I255
ag682
aaaa(lp1014
I258
aI260
aS'the'
p1015
a(lp1016
(lp1017
I258
ag676
aa(lp1018
I259
ag699
aa(lp1019
I260
ag682
aaaa(lp1020
I262
aI266
ag195
a(lp1021
(lp1022
I262
ag720
aa(lp1023
I263
ag672
aa(lp1024
I264
ag674
aa(lp1025
I265
ag693
aa(lp1026
I266
ag682
aaaa(lp1027
I268
aI269
aS'is'
p1028
a(lp1029
(lp1030
I268
ag793
aa(lp1031
I269
ag693
aaaa(lp1032
I271
aI277
ag204
a(lp1033
(lp1034
I271
ag668
aa(lp1035
I272
ag710
aa(lp1036
I273
ag672
aa(lp1037
I274
ag676
aa(lp1038
I275
ag699
aa(lp1039
I276
ag682
aa(lp1040
I277
ag689
aaaa(lp1041
I281
aI283
aS'the'
p1042
a(lp1043
(lp1044
I281
ag676
aa(lp1045
I282
ag699
aa(lp1046
I283
ag682
aaaa(lp1047
I285
aI292
ag213
a(lp1048
(lp1049
I285
ag680
aa(lp1050
I286
ag682
aa(lp1051
I287
ag684
aa(lp1052
I288
ag670
aa(lp1053
I289
ag672
aa(lp1054
I290
ag668
aa(lp1055
I291
ag689
aa(lp1056
I292
ag691
aaaa(lp1057
I294
aI299
ag222
a(lp1058
(lp1059
I294
ag668
aa(lp1060
I295
ag713
aa(lp1061
I296
ag713
aa(lp1062
I297
ag672
aa(lp1063
I298
ag826
aa(lp1064
I299
ag693
aaaa(lp1065
I301
aI303
aS'the'
p1066
a(lp1067
(lp1068
I301
ag676
aa(lp1069
I302
ag699
aa(lp1070
I303
ag682
aaaa(lp1071
I305
aI308
ag231
a(lp1072
(lp1073
I305
ag674
aa(lp1074
I306
ag693
aa(lp1075
I307
ag682
aa(lp1076
I308
ag689
aaaa(lp1077
I310
aI311
aS'to'
p1078
a(lp1079
(lp1080
I310
ag676
aa(lp1081
I311
ag672
aaaa(lp1082
I313
aI323
ag240
a(lp1083
(lp1084
I313
ag717
aa(lp1085
I314
ag672
aa(lp1086
I315
ag720
aa(lp1087
I316
ag720
aa(lp1088
I317
ag674
aa(lp1089
I318
ag710
aa(lp1090
I319
ag793
aa(lp1091
I320
ag717
aa(lp1092
I321
ag668
aa(lp1093
I322
ag676
aa(lp1094
I323
ag682
aaaa(lp1095
I325
aI328
aS'with'
p1096
a(lp1097
(lp1098
I325
ag826
aa(lp1099
I326
ag793
aa(lp1100
I327
ag676
aa(lp1101
I328
ag699
aaaa(lp1102
I330
aI332
aS'the'
p1103
a(lp1104
(lp1105
I330
ag676
aa(lp1106
I331
ag699
aa(lp1107
I332
ag682
aaaa(lp1108
I334
aI341
ag249
a(lp1109
(lp1110
I334
ag717
aa(lp1111
I335
ag672
aa(lp1112
I336
ag720
aa(lp1113
I337
ag704
aa(lp1114
I338
ag674
aa(lp1115
I339
ag676
aa(lp1116
I340
ag682
aa(lp1117
I341
ag689
aaaa(lp1118
I344
aI345
aS'at'
p1119
a(lp1120
(lp1121
I344
ag668
aa(lp1122
I345
ag676
aaaa(lp1123
I347
aI349
aS'any'
p1124
a(lp1125
(lp1126
I347
ag668
aa(lp1127
I348
ag710
aa(lp1128
I349
ag684
aaaa(lp1129
I351
aI355
ag258
a(lp1130
(lp1131
I351
aS'g'
p1132
aa(lp1133
I352
ag793
aa(lp1134
I353
ag767
aa(lp1135
I354
ag682
aa(lp1136
I355
ag710
aaaa(lp1137
I357
aI362
ag267
a(lp1138
(lp1139
I357
ag720
aa(lp1140
I358
ag672
aa(lp1141
I359
ag720
aa(lp1142
I360
ag682
aa(lp1143
I361
ag710
aa(lp1144
I362
ag676
aaaa(lp1145
I365
aI372
ag276
a(lp1146
(lp1147
I365
ag720
aa(lp1148
I366
ag793
aa(lp1149
I367
ag713
aa(lp1150
I368
ag713
aa(lp1151
I369
ag793
aa(lp1152
I370
ag672
aa(lp1153
I371
ag710
aa(lp1154
I372
ag693
aaaa(lp1155
I374
aI376
aS'and'
p1156
a(lp1157
(lp1158
I374
ag668
aa(lp1159
I375
ag710
aa(lp1160
I376
ag691
aaaa(lp1161
I378
aI385
ag285
a(lp1162
(lp1163
I378
ag720
aa(lp1164
I379
ag793
aa(lp1165
I380
ag713
aa(lp1166
I381
ag713
aa(lp1167
I382
ag793
aa(lp1168
I383
ag672
aa(lp1169
I384
ag710
aa(lp1170
I385
ag693
aaaa(lp1171
I387
aI388
aS'of'
p1172
a(lp1173
(lp1174
I387
ag672
aa(lp1175
I388
ag751
aaaa(lp1176
I390
aI398
ag294
a(lp1177
(lp1178
I390
ag680
aa(lp1179
I391
ag682
aa(lp1180
I392
ag684
aa(lp1181
I393
ag670
aa(lp1182
I394
ag672
aa(lp1183
I395
ag668
aa(lp1184
I396
ag689
aa(lp1185
I397
ag691
aa(lp1186
I398
ag693
aaaa(lp1187
I400
aI405
ag303
a(lp1188
(lp1189
I400
ag668
aa(lp1190
I401
ag689
aa(lp1191
I402
ag672
aa(lp1192
I403
ag674
aa(lp1193
I404
ag710
aa(lp1194
I405
ag691
aaaa(lp1195
I407
aI409
aS'the'
p1196
a(lp1197
(lp1198
I407
ag676
aa(lp1199
I408
ag699
aa(lp1200
I409
ag682
aaaa(lp1201
I411
aI415
ag312
a(lp1202
(lp1203
I411
ag826
aa(lp1204
I412
ag672
aa(lp1205
I413
ag689
aa(lp1206
I414
ag713
aa(lp1207
I415
ag691
aaaa(lp1208
I417
aI419
aS'are'
p1209
a(lp1210
(lp1211
I417
ag668
aa(lp1212
I418
ag689
aa(lp1213
I419
ag682
aaaa(lp1214
I421
aI424
ag321
a(lp1215
(lp1216
I421
ag674
aa(lp1217
I422
ag693
aa(lp1218
I423
ag682
aa(lp1219
I424
ag691
aaaa(lp1220
I426
aI427
aS'to'
p1221
a(lp1222
(lp1223
I426
ag676
aa(lp1224
I427
ag672
aaaa(lp1225
I429
aI431
ag330
a(lp1226
(lp1227
I429
ag676
aa(lp1228
I430
ag668
aa(lp1229
I431
ag704
aaaa(lp1230
I433
aI440
ag339
a(lp1231
(lp1232
I433
ag720
aa(lp1233
I434
ag682
aa(lp1234
I435
ag693
aa(lp1235
I436
ag693
aa(lp1236
I437
ag668
aa(lp1237
I438
ag1132
aa(lp1238
I439
ag682
aa(lp1239
I440
ag693
aaaa(lp1240
I442
aI445
aS'into'
p1241
a(lp1242
(lp1243
I442
ag793
aa(lp1244
I443
ag710
aa(lp1245
I444
ag676
aa(lp1246
I445
ag672
aaaa(lp1247
I447
aI447
ag668
a(lp1248
(lp1249
I447
ag668
aaaa(lp1250
I449
aI456
ag348
a(lp1251
(lp1252
I449
ag717
aa(lp1253
I450
ag672
aa(lp1254
I451
ag720
aa(lp1255
I452
ag704
aa(lp1256
I453
ag674
aa(lp1257
I454
ag676
aa(lp1258
I455
ag682
aa(lp1259
I456
ag689
aaaa(lp1260
I459
aI460
aS'in'
p1261
a(lp1262
(lp1263
I459
ag793
aa(lp1264
I460
ag710
aaaa(lp1265
I462
aI468
ag357
a(lp1266
(lp1267
I462
ag672
aa(lp1268
I463
ag751
aa(lp1269
I464
ag751
aa(lp1270
I465
ag793
aa(lp1271
I466
ag717
aa(lp1272
I467
ag682
aa(lp1273
I468
ag693
aaaa(lp1274
I470
aI471
aS'of'
p1275
a(lp1276
(lp1277
I470
ag672
aa(lp1278
I471
ag751
aaaa(lp1279
I473
aI477
ag366
a(lp1280
(lp1281
I473
ag699
aa(lp1282
I474
ag682
aa(lp1283
I475
ag668
aa(lp1284
I476
ag691
aa(lp1285
I477
ag693
aaaa(lp1286
I479
aI480
aS'of'
p1287
a(lp1288
(lp1289
I479
ag672
aa(lp1290
I480
ag751
aaaa(lp1291
I482
aI486
ag375
a(lp1292
(lp1293
I482
ag693
aa(lp1294
I483
ag676
aa(lp1295
I484
ag668
aa(lp1296
I485
ag676
aa(lp1297
I486
ag682
aaaa(lp1298
I488
aI490
aS'and'
p1299
a(lp1300
(lp1301
I488
ag668
aa(lp1302
I489
ag710
aa(lp1303
I490
ag691
aaaa(lp1304
I492
aI496
ag384
a(lp1305
(lp1306
I492
ag676
aa(lp1307
I493
ag682
aa(lp1308
I494
ag710
aa(lp1309
I495
ag676
aa(lp1310
I496
ag693
aaaa(lp1311
I498
aI499
aS'in'
p1312
a(lp1313
(lp1314
I498
ag793
aa(lp1315
I499
ag710
aaaa(lp1316
I501
aI503
aS'the'
p1317
a(lp1318
(lp1319
I501
ag676
aa(lp1320
I502
ag699
aa(lp1321
I503
ag682
aaaa(lp1322
I505
aI510
ag393
a(lp1323
(lp1324
I505
ag691
aa(lp1325
I506
ag682
aa(lp1326
I507
ag693
aa(lp1327
I508
ag682
aa(lp1328
I509
ag689
aa(lp1329
I510
ag676
aaaa(lp1330
I513
aI518
ag402
a(lp1331
(lp1332
I513
ag670
aa(lp1333
I514
ag674
aa(lp1334
I515
ag676
aa(lp1335
I516
ag668
aa(lp1336
I517
ag767
aa(lp1337
I518
ag682
aaaa(lp1338
I520
aI522
aS'you'
p1339
a(lp1340
(lp1341
I520
ag684
aa(lp1342
I521
ag672
aa(lp1343
I522
ag674
aaaa(lp1344
I524
aI527
ag411
a(lp1345
(lp1346
I524
ag682
aa(lp1347
I525
ag767
aa(lp1348
I526
ag682
aa(lp1349
I527
ag689
aaaa(lp1350
I529
aI536
ag420
a(lp1351
(lp1352
I529
ag826
aa(lp1353
I530
ag672
aa(lp1354
I531
ag710
aa(lp1355
I532
ag691
aa(lp1356
I533
ag682
aa(lp1357
I534
ag689
aa(lp1358
I535
ag682
aa(lp1359
I536
ag691
aaaa(lp1360
I538
aI542
aS'where'
p1361
a(lp1362
(lp1363
I538
ag826
aa(lp1364
I539
ag699
aa(lp1365
I540
ag682
aa(lp1366
I541
ag689
aa(lp1367
I542
ag682
aaaa(lp1368
I544
aI546
aS'the'
p1369
a(lp1370
(lp1371
I544
ag676
aa(lp1372
I545
ag699
aa(lp1373
I546
ag682
aaaa(lp1374
I548
aI563
ag429
a(lp1375
(lp1376
I548
ag672
aa(lp1377
I549
ag710
aa(lp1378
I550
ag693
aa(lp1379
I551
ag682
aa(lp1380
I552
ag710
aa(lp1381
I553
ag693
aa(lp1382
I554
ag793
aa(lp1383
I555
ag717
aa(lp1384
I556
ag668
aa(lp1385
I557
ag713
aa(lp1386
I558
aS'q'
p1387
aa(lp1388
I559
ag826
aa(lp1389
I560
ag682
aa(lp1390
I561
ag689
aa(lp1391
I562
ag676
aa(lp1392
I563
ag684
aaaa(lp1393
I565
aI570
ag438
a(lp1394
(lp1395
I565
ag713
aa(lp1396
I566
ag668
aa(lp1397
I567
ag684
aa(lp1398
I568
ag672
aa(lp1399
I569
ag674
aa(lp1400
I570
ag676
aaaa(lp1401
I572
aI573
aS'of'
p1402
a(lp1403
(lp1404
I572
ag672
aa(lp1405
I573
ag751
aaaa(lp1406
I575
aI577
aS'the'
p1407
a(lp1408
(lp1409
I575
ag676
aa(lp1410
I576
ag699
aa(lp1411
I577
ag682
aaaa(lp1412
I579
aI584
ag447
a(lp1413
(lp1414
I579
ag720
aa(lp1415
I580
ag672
aa(lp1416
I581
ag691
aa(lp1417
I582
ag682
aa(lp1418
I583
ag689
aa(lp1419
I584
ag710
aaaa(lp1420
I586
aI593
ag456
a(lp1421
(lp1422
I586
ag717
aa(lp1423
I587
ag672
aa(lp1424
I588
ag720
aa(lp1425
I589
ag704
aa(lp1426
I590
ag674
aa(lp1427
I591
ag676
aa(lp1428
I592
ag682
aa(lp1429
I593
ag689
aaaa(lp1430
I595
aI602
ag465
a(lp1431
(lp1432
I595
ag680
aa(lp1433
I596
ag682
aa(lp1434
I597
ag684
aa(lp1435
I598
ag670
aa(lp1436
I599
ag672
aa(lp1437
I600
ag668
aa(lp1438
I601
ag689
aa(lp1439
I602
ag691
aaaa(lp1440
I604
aI608
ag474
a(lp1441
(lp1442
I604
ag717
aa(lp1443
I605
ag672
aa(lp1444
I606
ag720
aa(lp1445
I607
ag682
aa(lp1446
I608
ag693
aaaa(lp1447
I610
aI613
aS'from'
p1448
a(lp1449
(lp1450
I610
ag751
aa(lp1451
I611
ag689
aa(lp1452
I612
ag672
aa(lp1453
I613
ag720
aaaa(lp1454
I616
aI617
aS'or'
p1455
a(lp1456
(lp1457
I616
ag672
aa(lp1458
I617
ag689
aaaa(lp1459
I619
aI621
aS'why'
p1460
a(lp1461
(lp1462
I619
ag826
aa(lp1463
I620
ag699
aa(lp1464
I621
ag684
aaaa(lp1465
I623
aI625
aS'the'
p1466
a(lp1467
(lp1468
I623
ag676
aa(lp1469
I624
ag699
aa(lp1470
I625
ag682
aaaa(lp1471
I627
aI630
ag483
a(lp1472
(lp1473
I627
ag680
aa(lp1474
I628
ag682
aa(lp1475
I629
ag684
aa(lp1476
I630
ag693
aaaa(lp1477
I632
aI633
aS'on'
p1478
a(lp1479
(lp1480
I632
ag672
aa(lp1481
I633
ag710
aaaa(lp1482
I635
aI637
aS'the'
p1483
a(lp1484
(lp1485
I635
ag676
aa(lp1486
I636
ag699
aa(lp1487
I637
ag682
aaaa(lp1488
I639
aI646
ag492
a(lp1489
(lp1490
I639
ag680
aa(lp1491
I640
ag682
aa(lp1492
I641
ag684
aa(lp1493
I642
ag670
aa(lp1494
I643
ag672
aa(lp1495
I644
ag668
aa(lp1496
I645
ag689
aa(lp1497
I646
ag691
aaaa(lp1498
I648
aI650
aS'are'
p1499
a(lp1500
(lp1501
I648
ag668
aa(lp1502
I649
ag689
aa(lp1503
I650
ag682
aaaa(lp1504
I652
aI653
aS'in'
p1505
a(lp1506
(lp1507
I652
ag793
aa(lp1508
I653
ag710
aaaa(lp1509
I655
aI657
aS'the'
p1510
a(lp1511
(lp1512
I655
ag676
aa(lp1513
I656
ag699
aa(lp1514
I657
ag682
aaaa(lp1515
I659
aI663
ag501
a(lp1516
(lp1517
I659
ag672
aa(lp1518
I660
ag689
aa(lp1519
I661
ag691
aa(lp1520
I662
ag682
aa(lp1521
I663
ag689
aaaa(lp1522
I665
aI666
aS'in'
p1523
a(lp1524
(lp1525
I665
ag793
aa(lp1526
I666
ag710
aaaa(lp1527
I668
aI672
aS'which'
p1528
a(lp1529
(lp1530
I668
ag826
aa(lp1531
I669
ag699
aa(lp1532
I670
ag793
aa(lp1533
I671
ag717
aa(lp1534
I672
ag699
aaaa(lp1535
I674
aI677
aS'they'
p1536
a(lp1537
(lp1538
I674
ag676
aa(lp1539
I675
ag699
aa(lp1540
I676
ag682
aa(lp1541
I677
ag684
aaaa(lp1542
I679
aI681
aS'are'
p1543
a(lp1544
(lp1545
I679
ag668
aa(lp1546
I680
ag689
aa(lp1547
I681
ag682
aaaa(lp1548
I684
aI685
aS'if'
p1549
a(lp1550
(lp1551
I684
ag793
aa(lp1552
I685
ag751
aaaa(lp1553
I687
aI689
aS'you'
p1554
a(lp1555
(lp1556
I687
ag684
aa(lp1557
I688
ag672
aa(lp1558
I689
ag674
aaaa(lp1559
I691
aI693
aS'are'
p1560
a(lp1561
(lp1562
I691
ag668
aa(lp1563
I692
ag689
aa(lp1564
I693
ag682
aaaa(lp1565
I695
aI704
ag510
a(lp1566
(lp1567
I695
ag793
aa(lp1568
I696
ag710
aa(lp1569
I697
ag676
aa(lp1570
I698
ag682
aa(lp1571
I699
ag689
aa(lp1572
I700
ag682
aa(lp1573
I701
ag693
aa(lp1574
I702
ag676
aa(lp1575
I703
ag682
aa(lp1576
I704
ag691
aaaa(lp1577
I706
aI707
aS'in'
p1578
a(lp1579
(lp1580
I706
ag793
aa(lp1581
I707
ag710
aaaa(lp1582
I709
aI711
aS'the'
p1583
a(lp1584
(lp1585
I709
ag676
aa(lp1586
I710
ag699
aa(lp1587
I711
ag682
aaaa(lp1588
I713
aI719
ag519
a(lp1589
(lp1590
I713
ag699
aa(lp1591
I714
ag793
aa(lp1592
I715
ag693
aa(lp1593
I716
ag676
aa(lp1594
I717
ag672
aa(lp1595
I718
ag689
aa(lp1596
I719
ag684
aaaa(lp1597
I721
aI722
aS'of'
p1598
a(lp1599
(lp1600
I721
ag672
aa(lp1601
I722
ag751
aaaa(lp1602
I724
aI726
aS'the'
p1603
a(lp1604
(lp1605
I724
ag676
aa(lp1606
I725
ag699
aa(lp1607
I726
ag682
aaaa(lp1608
I728
aI735
ag528
a(lp1609
(lp1610
I728
ag680
aa(lp1611
I729
ag682
aa(lp1612
I730
ag684
aa(lp1613
I731
ag670
aa(lp1614
I732
ag672
aa(lp1615
I733
ag668
aa(lp1616
I734
ag689
aa(lp1617
I735
ag691
aaaa(lp1618
I738
aI741
aS'this'
p1619
a(lp1620
(lp1621
I738
ag676
aa(lp1622
I739
ag699
aa(lp1623
I740
ag793
aa(lp1624
I741
ag693
aaaa(lp1625
I743
aI749
ag537
a(lp1626
(lp1627
I743
ag693
aa(lp1628
I744
ag682
aa(lp1629
I745
ag717
aa(lp1630
I746
ag676
aa(lp1631
I747
ag793
aa(lp1632
I748
ag672
aa(lp1633
I749
ag710
aaaa(lp1634
I751
aI756
ag546
a(lp1635
(lp1636
I751
ag717
aa(lp1637
I752
ag672
aa(lp1638
I753
ag767
aa(lp1639
I754
ag682
aa(lp1640
I755
ag689
aa(lp1641
I756
ag693
aaaa(lp1642
I758
aI760
aS'how'
p1643
a(lp1644
(lp1645
I758
ag699
aa(lp1646
I759
ag672
aa(lp1647
I760
ag826
aaaa(lp1648
I762
aI764
aS'the'
p1649
a(lp1650
(lp1651
I762
ag676
aa(lp1652
I763
ag699
aa(lp1653
I764
ag682
aaaa(lp1654
I766
aI771
ag555
a(lp1655
(lp1656
I766
ag1387
aa(lp1657
I767
ag826
aa(lp1658
I768
ag682
aa(lp1659
I769
ag689
aa(lp1660
I770
ag676
aa(lp1661
I771
ag684
aaaa(lp1662
I773
aI780
ag564
a(lp1663
(lp1664
I773
ag680
aa(lp1665
I774
ag682
aa(lp1666
I775
ag684
aa(lp1667
I776
ag670
aa(lp1668
I777
ag672
aa(lp1669
I778
ag668
aa(lp1670
I779
ag689
aa(lp1671
I780
ag691
aaaa(lp1672
I782
aI785
ag573
a(lp1673
(lp1674
I782
ag717
aa(lp1675
I783
ag668
aa(lp1676
I784
ag720
aa(lp1677
I785
ag682
aaaa(lp1678
I787
aI788
aS'to'
p1679
a(lp1680
(lp1681
I787
ag676
aa(lp1682
I788
ag672
aaaa(lp1683
I790
aI791
aS'be'
p1684
a(lp1685
(lp1686
I790
ag670
aa(lp1687
I791
ag682
aaaa(lp1688
I793
aI795
aS'and'
p1689
a(lp1690
(lp1691
I793
ag668
aa(lp1692
I794
ag710
aa(lp1693
I795
ag691
aaaa(lp1694
I797
aI799
aS'the'
p1695
a(lp1696
(lp1697
I797
ag676
aa(lp1698
I798
ag699
aa(lp1699
I799
ag682
aaaa(lp1700
I801
aI807
ag582
a(lp1701
(lp1702
I801
ag689
aa(lp1703
I802
ag682
aa(lp1704
I803
ag668
aa(lp1705
I804
ag693
aa(lp1706
I805
ag672
aa(lp1707
I806
ag710
aa(lp1708
I807
ag693
aaaa(lp1709
I809
aI811
aS'why'
p1710
a(lp1711
(lp1712
I809
ag826
aa(lp1713
I810
ag699
aa(lp1714
I811
ag684
aaaa(lp1715
I813
aI820
ag591
a(lp1716
(lp1717
I813
ag717
aa(lp1718
I814
ag672
aa(lp1719
I815
ag720
aa(lp1720
I816
ag704
aa(lp1721
I817
ag674
aa(lp1722
I818
ag676
aa(lp1723
I819
ag682
aa(lp1724
I820
ag689
aaaa(lp1725
I822
aI830
ag600
a(lp1726
(lp1727
I822
ag680
aa(lp1728
I823
ag682
aa(lp1729
I824
ag684
aa(lp1730
I825
ag670
aa(lp1731
I826
ag672
aa(lp1732
I827
ag668
aa(lp1733
I828
ag689
aa(lp1734
I829
ag691
aa(lp1735
I830
ag693
aaaa(lp1736
I832
aI834
aS'are'
p1737
a(lp1738
(lp1739
I832
ag668
aa(lp1740
I833
ag689
aa(lp1741
I834
ag682
aaaa(lp1742
I836
aI837
aS'so'
p1743
a(lp1744
(lp1745
I836
ag693
aa(lp1746
I837
ag672
aaaa(lp1747
I839
aI842
ag609
a(lp1748
(lp1749
I839
ag699
aa(lp1750
I840
ag668
aa(lp1751
I841
ag689
aa(lp1752
I842
ag691
aaaa(lp1753
I844
aI845
aS'to'
p1754
a(lp1755
(lp1756
I844
ag676
aa(lp1757
I845
ag672
aaaa(lp1758
I847
aI849
ag618
a(lp1759
(lp1760
I847
ag674
aa(lp1761
I848
ag693
aa(lp1762
I849
ag682
aaaa(lp1763
I852
aI853
aS'we'
p1764
a(lp1765
(lp1766
I852
ag826
aa(lp1767
I853
ag682
aaaa(lp1768
I855
aI861
ag627
a(lp1769
(lp1770
I855
ag826
aa(lp1771
I856
ag682
aa(lp1772
I857
ag713
aa(lp1773
I858
ag717
aa(lp1774
I859
ag672
aa(lp1775
I860
ag720
aa(lp1776
I861
ag682
aaaa(lp1777
I863
aI875
ag636
a(lp1778
(lp1779
I863
ag717
aa(lp1780
I864
ag672
aa(lp1781
I865
ag710
aa(lp1782
I866
ag676
aa(lp1783
I867
ag689
aa(lp1784
I868
ag793
aa(lp1785
I869
ag670
aa(lp1786
I870
ag674
aa(lp1787
I871
ag676
aa(lp1788
I872
ag793
aa(lp1789
I873
ag672
aa(lp1790
I874
ag710
aa(lp1791
I875
ag693
aaaa(lp1792
I878
aI883
ag645
a(lp1793
(lp1794
I878
ag704
aa(lp1795
I879
ag713
aa(lp1796
I880
ag682
aa(lp1797
I881
ag668
aa(lp1798
I882
ag693
aa(lp1799
I883
ag682
aaaa(lp1800
I885
aI889
ag654
a(lp1801
(lp1802
I885
ag682
aa(lp1803
I886
ag720
aa(lp1804
I887
ag668
aa(lp1805
I888
ag793
aa(lp1806
I889
ag713
aaaasS'cleanCharacterMap'
p1807
(lp1808
g667
ag669
ag671
ag673
ag675
a(lp1809
I5
aS' '
p1810
aag679
ag681
ag683
ag685
ag686
ag687
ag688
ag690
ag692
a(lp1811
I15
ag1810
aag697
ag698
ag700
a(lp1812
I19
ag1810
aag703
ag705
ag706
ag707
ag708
ag709
ag711
ag712
a(lp1813
I28
ag1810
aag716
ag718
ag719
ag721
ag722
ag723
ag724
ag725
a(lp1814
I37
ag1810
aag729
ag730
ag731
a(lp1815
I41
ag1810
aag735
ag736
ag737
ag738
a(lp1816
I46
ag1810
aag741
ag742
ag743
ag744
ag745
ag746
a(lp1817
I53
ag1810
aag750
ag752
ag753
a(lp1818
I57
ag1810
aag757
ag759
ag760
ag761
a(lp1819
I62
ag1810
aag765
ag766
ag768
ag769
a(lp1820
I67
ag1810
aag772
ag774
a(lp1821
I70
ag1810
aag778
ag779
ag780
ag781
ag782
a(lp1822
I76
ag1810
aag786
ag787
ag788
a(lp1823
I80
ag1810
aag792
ag794
a(lp1824
I83
ag1810
aag798
ag799
ag800
a(lp1825
I87
ag1810
aag803
ag804
ag805
ag806
ag807
ag808
ag809
ag810
ag811
ag812
ag813
ag814
ag815
ag816
a(lp1826
I102
ag1810
aag820
ag821
ag822
a(lp1827
I106
ag1810
aag825
ag827
ag828
a(lp1828
I110
ag1810
aag832
ag833
a(lp1829
I113
ag1810
aag836
ag837
ag838
ag839
a(lp1830
I119
ag1810
aag842
ag843
ag844
a(lp1831
I123
ag1810
aag848
ag849
a(lp1832
I126
ag1810
aag853
ag854
ag855
a(lp1833
I130
ag1810
aag859
ag860
ag861
ag862
a(lp1834
I135
ag1810
aag865
ag866
ag867
ag868
ag869
ag870
ag871
ag872
ag873
a(lp1835
I145
ag1810
aag876
ag877
ag878
ag879
ag880
ag881
ag882
ag883
ag884
a(lp1836
I155
ag1810
aag888
ag889
a(lp1837
I158
ag1810
aag893
ag894
ag895
a(lp1838
I162
ag1810
aag898
ag899
ag900
ag901
ag902
ag903
ag904
ag905
a(lp1839
I171
ag1810
aag909
ag910
a(lp1840
I174
ag1810
aag914
ag915
ag916
a(lp1841
I178
ag1810
aag919
ag920
ag921
ag922
ag923
ag924
ag925
ag926
a(lp1842
I188
ag1810
aag930
ag931
a(lp1843
I191
ag1810
aag935
ag936
a(lp1844
I194
ag1810
aag940
ag941
a(lp1845
I197
ag1810
aag944
ag945
ag946
ag947
ag948
a(lp1846
I203
ag1810
aag951
ag952
ag953
ag954
ag955
ag956
ag957
ag958
a(lp1847
I212
ag1810
aag962
ag963
a(lp1848
I215
ag1810
aag967
ag968
a(lp1849
I218
ag1810
aag971
ag972
ag973
ag974
ag975
ag976
ag977
ag978
ag979
a(lp1850
I228
ag1810
aag982
ag983
ag984
ag985
ag986
a(lp1851
I234
ag1810
aag990
ag991
ag992
a(lp1852
I238
ag1810
aag995
ag996
ag997
ag998
a(lp1853
I243
ag1810
aag1001
ag1002
ag1003
ag1004
ag1005
a(lp1854
I249
ag1810
aag1008
ag1009
ag1010
ag1011
ag1012
ag1013
a(lp1855
I256
ag1810
aag1017
ag1018
ag1019
a(lp1856
I261
ag1810
aag1022
ag1023
ag1024
ag1025
ag1026
a(lp1857
I267
ag1810
aag1030
ag1031
a(lp1858
I270
ag1810
aag1034
ag1035
ag1036
ag1037
ag1038
ag1039
ag1040
a(lp1859
I280
ag1810
aag1044
ag1045
ag1046
a(lp1860
I284
ag1810
aag1049
ag1050
ag1051
ag1052
ag1053
ag1054
ag1055
ag1056
a(lp1861
I293
ag1810
aag1059
ag1060
ag1061
ag1062
ag1063
ag1064
a(lp1862
I300
ag1810
aag1068
ag1069
ag1070
a(lp1863
I304
ag1810
aag1073
ag1074
ag1075
ag1076
a(lp1864
I309
ag1810
aag1080
ag1081
a(lp1865
I312
ag1810
aag1084
ag1085
ag1086
ag1087
ag1088
ag1089
ag1090
ag1091
ag1092
ag1093
ag1094
a(lp1866
I324
ag1810
aag1098
ag1099
ag1100
ag1101
a(lp1867
I329
ag1810
aag1105
ag1106
ag1107
a(lp1868
I333
ag1810
aag1110
ag1111
ag1112
ag1113
ag1114
ag1115
ag1116
ag1117
a(lp1869
I343
ag1810
aag1121
ag1122
a(lp1870
I346
ag1810
aag1126
ag1127
ag1128
a(lp1871
I350
ag1810
aag1131
ag1133
ag1134
ag1135
ag1136
a(lp1872
I356
ag1810
aag1139
ag1140
ag1141
ag1142
ag1143
ag1144
a(lp1873
I364
ag1810
aag1147
ag1148
ag1149
ag1150
ag1151
ag1152
ag1153
ag1154
a(lp1874
I373
ag1810
aag1158
ag1159
ag1160
a(lp1875
I377
ag1810
aag1163
ag1164
ag1165
ag1166
ag1167
ag1168
ag1169
ag1170
a(lp1876
I386
ag1810
aag1174
ag1175
a(lp1877
I389
ag1810
aag1178
ag1179
ag1180
ag1181
ag1182
ag1183
ag1184
ag1185
ag1186
a(lp1878
I399
ag1810
aag1189
ag1190
ag1191
ag1192
ag1193
ag1194
a(lp1879
I406
ag1810
aag1198
ag1199
ag1200
a(lp1880
I410
ag1810
aag1203
ag1204
ag1205
ag1206
ag1207
a(lp1881
I416
ag1810
aag1211
ag1212
ag1213
a(lp1882
I420
ag1810
aag1216
ag1217
ag1218
ag1219
a(lp1883
I425
ag1810
aag1223
ag1224
a(lp1884
I428
ag1810
aag1227
ag1228
ag1229
a(lp1885
I432
ag1810
aag1232
ag1233
ag1234
ag1235
ag1236
ag1237
ag1238
ag1239
a(lp1886
I441
ag1810
aag1243
ag1244
ag1245
ag1246
a(lp1887
I446
ag1810
aag1249
a(lp1888
I448
ag1810
aag1252
ag1253
ag1254
ag1255
ag1256
ag1257
ag1258
ag1259
a(lp1889
I458
ag1810
aag1263
ag1264
a(lp1890
I461
ag1810
aag1267
ag1268
ag1269
ag1270
ag1271
ag1272
ag1273
a(lp1891
I469
ag1810
aag1277
ag1278
a(lp1892
I472
ag1810
aag1281
ag1282
ag1283
ag1284
ag1285
a(lp1893
I478
ag1810
aag1289
ag1290
a(lp1894
I481
ag1810
aag1293
ag1294
ag1295
ag1296
ag1297
a(lp1895
I487
ag1810
aag1301
ag1302
ag1303
a(lp1896
I491
ag1810
aag1306
ag1307
ag1308
ag1309
ag1310
a(lp1897
I497
ag1810
aag1314
ag1315
a(lp1898
I500
ag1810
aag1319
ag1320
ag1321
a(lp1899
I504
ag1810
aag1324
ag1325
ag1326
ag1327
ag1328
ag1329
a(lp1900
I512
ag1810
aag1332
ag1333
ag1334
ag1335
ag1336
ag1337
a(lp1901
I519
ag1810
aag1341
ag1342
ag1343
a(lp1902
I523
ag1810
aag1346
ag1347
ag1348
ag1349
a(lp1903
I528
ag1810
aag1352
ag1353
ag1354
ag1355
ag1356
ag1357
ag1358
ag1359
a(lp1904
I537
ag1810
aag1363
ag1364
ag1365
ag1366
ag1367
a(lp1905
I543
ag1810
aag1371
ag1372
ag1373
a(lp1906
I547
ag1810
aag1376
ag1377
ag1378
ag1379
ag1380
ag1381
ag1382
ag1383
ag1384
ag1385
ag1386
ag1388
ag1389
ag1390
ag1391
ag1392
a(lp1907
I564
ag1810
aag1395
ag1396
ag1397
ag1398
ag1399
ag1400
a(lp1908
I571
ag1810
aag1404
ag1405
a(lp1909
I574
ag1810
aag1409
ag1410
ag1411
a(lp1910
I578
ag1810
aag1414
ag1415
ag1416
ag1417
ag1418
ag1419
a(lp1911
I585
ag1810
aag1422
ag1423
ag1424
ag1425
ag1426
ag1427
ag1428
ag1429
a(lp1912
I594
ag1810
aag1432
ag1433
ag1434
ag1435
ag1436
ag1437
ag1438
ag1439
a(lp1913
I603
ag1810
aag1442
ag1443
ag1444
ag1445
ag1446
a(lp1914
I609
ag1810
aag1450
ag1451
ag1452
ag1453
a(lp1915
I615
ag1810
aag1457
ag1458
a(lp1916
I618
ag1810
aag1462
ag1463
ag1464
a(lp1917
I622
ag1810
aag1468
ag1469
ag1470
a(lp1918
I626
ag1810
aag1473
ag1474
ag1475
ag1476
a(lp1919
I631
ag1810
aag1480
ag1481
a(lp1920
I634
ag1810
aag1485
ag1486
ag1487
a(lp1921
I638
ag1810
aag1490
ag1491
ag1492
ag1493
ag1494
ag1495
ag1496
ag1497
a(lp1922
I647
ag1810
aag1501
ag1502
ag1503
a(lp1923
I651
ag1810
aag1507
ag1508
a(lp1924
I654
ag1810
aag1512
ag1513
ag1514
a(lp1925
I658
ag1810
aag1517
ag1518
ag1519
ag1520
ag1521
a(lp1926
I664
ag1810
aag1525
ag1526
a(lp1927
I667
ag1810
aag1530
ag1531
ag1532
ag1533
ag1534
a(lp1928
I673
ag1810
aag1538
ag1539
ag1540
ag1541
a(lp1929
I678
ag1810
aag1545
ag1546
ag1547
a(lp1930
I683
ag1810
aag1551
ag1552
a(lp1931
I686
ag1810
aag1556
ag1557
ag1558
a(lp1932
I690
ag1810
aag1562
ag1563
ag1564
a(lp1933
I694
ag1810
aag1567
ag1568
ag1569
ag1570
ag1571
ag1572
ag1573
ag1574
ag1575
ag1576
a(lp1934
I705
ag1810
aag1580
ag1581
a(lp1935
I708
ag1810
aag1585
ag1586
ag1587
a(lp1936
I712
ag1810
aag1590
ag1591
ag1592
ag1593
ag1594
ag1595
ag1596
a(lp1937
I720
ag1810
aag1600
ag1601
a(lp1938
I723
ag1810
aag1605
ag1606
ag1607
a(lp1939
I727
ag1810
aag1610
ag1611
ag1612
ag1613
ag1614
ag1615
ag1616
ag1617
a(lp1940
I737
ag1810
aag1621
ag1622
ag1623
ag1624
a(lp1941
I742
ag1810
aag1627
ag1628
ag1629
ag1630
ag1631
ag1632
ag1633
a(lp1942
I750
ag1810
aag1636
ag1637
ag1638
ag1639
ag1640
ag1641
a(lp1943
I757
ag1810
aag1645
ag1646
ag1647
a(lp1944
I761
ag1810
aag1651
ag1652
ag1653
a(lp1945
I765
ag1810
aag1656
ag1657
ag1658
ag1659
ag1660
ag1661
a(lp1946
I772
ag1810
aag1664
ag1665
ag1666
ag1667
ag1668
ag1669
ag1670
ag1671
a(lp1947
I781
ag1810
aag1674
ag1675
ag1676
ag1677
a(lp1948
I786
ag1810
aag1681
ag1682
a(lp1949
I789
ag1810
aag1686
ag1687
a(lp1950
I792
ag1810
aag1691
ag1692
ag1693
a(lp1951
I796
ag1810
aag1697
ag1698
ag1699
a(lp1952
I800
ag1810
aag1702
ag1703
ag1704
ag1705
ag1706
ag1707
ag1708
a(lp1953
I808
ag1810
aag1712
ag1713
ag1714
a(lp1954
I812
ag1810
aag1717
ag1718
ag1719
ag1720
ag1721
ag1722
ag1723
ag1724
a(lp1955
I821
ag1810
aag1727
ag1728
ag1729
ag1730
ag1731
ag1732
ag1733
ag1734
ag1735
a(lp1956
I831
ag1810
aag1739
ag1740
ag1741
a(lp1957
I835
ag1810
aag1745
ag1746
a(lp1958
I838
ag1810
aag1749
ag1750
ag1751
ag1752
a(lp1959
I843
ag1810
aag1756
ag1757
a(lp1960
I846
ag1810
aag1760
ag1761
ag1762
a(lp1961
I851
ag1810
aag1766
ag1767
a(lp1962
I854
ag1810
aag1770
ag1771
ag1772
ag1773
ag1774
ag1775
ag1776
a(lp1963
I862
ag1810
aag1779
ag1780
ag1781
ag1782
ag1783
ag1784
ag1785
ag1786
ag1787
ag1788
ag1789
ag1790
ag1791
a(lp1964
I877
ag1810
aag1794
ag1795
ag1796
ag1797
ag1798
ag1799
a(lp1965
I884
ag1810
aag1802
ag1803
ag1804
ag1805
ag1806
a(lp1966
I890
ag1810
aa(lp1967
I891
ag676
aa(lp1968
I892
ag699
aa(lp1969
I893
ag682
aasS'text'
p1970
S'about keyboards the personal computer has been around for just over 20 years and it has revolutionised the way we work. one of the most important component of the computer is the keyboard, or as is often referred to in technical terms the main input device (the mouse is another). the keyboard allows the user to communicate with the computer. at any given moment, millions and millions of keyboards around the world are used to tap messages into a computer, in offices of heads of state and tents in the desert. butave you ever wondered where the onsensicalqwerty layout of the modern computer keyboard comes from? or why the keys on the keyboard are in the order in which they are? if you are interested in the history of the keyboard, this section covers how the qwerty keyboard came to be and the reasons why computer keyboards are so hard to use. we welcome contributions, please email the'
p1971
sS'cleanWordMap'
p1972
(lp1973
g677
ag701
ag714
ag739
ag770
ag776
ag801
ag823
ag834
ag840
ag863
ag874
ag896
ag917
ag942
ag949
ag969
ag980
ag993
ag999
ag1006
ag1020
ag1032
ag1047
ag1057
ag1071
ag1082
ag1108
ag1129
ag1137
ag1145
ag1161
ag1176
ag1187
ag1201
ag1214
ag1225
ag1230
ag1250
ag1265
ag1279
ag1291
ag1304
ag1322
ag1330
ag1344
ag1350
ag1374
ag1393
ag1412
ag1420
ag1430
ag1440
ag1471
ag1488
ag1515
ag1565
ag1588
ag1608
ag1625
ag1634
ag1654
ag1662
ag1672
ag1700
ag1715
ag1725
ag1747
ag1758
ag1768
ag1777
ag1792
ag1800
asS'lines'
p1974
(lp1975
VAbout Keyboards\u000a
p1976
aVThe personal computer has been around for just over 20 years and it has revolutionised the way we work. One of the most important component of the computer is the keyboard, or as is often referred to in technical terms the main input device (the mouse is another). The keyboard allows the user to communicate with the computer. At any given moment, millions and millions of keyboards around the world are used to tap messages into a computer, in offices of heads of state and tents in the desert. Butave you ever wondered where the onsensicalQWERTY layout of the modern computer keyboard comes from? Or why the keys on the keyboard are in the order in which they are? If you are interested in the history of the keyboard, this section covers how the QWERTY keyboard came to be and the reasons why computer keyboards are so hard to use. We welcome contributions, please email the
p1977
asS'docType'
p1978
S'src'
p1979
sS'newfmap'
p1980
(lp1981
g4
ag8
ag10
ag12
ag14
ag17
ag19
ag21
ag23
ag26
ag28
ag30
ag32
ag35
ag37
ag39
ag41
ag44
ag46
ag48
ag50
ag53
ag55
ag57
ag59
ag62
ag64
ag66
ag68
ag71
ag73
ag75
ag77
ag80
ag82
ag84
ag86
ag89
ag91
ag93
ag95
ag98
ag100
ag102
ag104
ag107
ag109
ag111
ag113
ag116
ag118
ag120
ag122
ag125
ag127
ag129
ag131
ag134
ag136
ag138
ag140
ag143
ag145
ag147
ag149
ag152
ag154
ag156
ag158
ag161
ag163
ag165
ag167
ag170
ag172
ag174
ag176
ag179
ag181
ag183
ag185
ag188
ag190
ag192
ag194
ag197
ag199
ag201
ag203
ag206
ag208
ag210
ag212
ag215
ag217
ag219
ag221
ag224
ag226
ag228
ag230
ag233
ag235
ag237
ag239
ag242
ag244
ag246
ag248
ag251
ag253
ag255
ag257
ag260
ag262
ag264
ag266
ag269
ag271
ag273
ag275
ag278
ag280
ag282
ag284
ag287
ag289
ag291
ag293
ag296
ag298
ag300
ag302
ag305
ag307
ag309
ag311
ag314
ag316
ag318
ag320
ag323
ag325
ag327
ag329
ag332
ag334
ag336
ag338
ag341
ag343
ag345
ag347
ag350
ag352
ag354
ag356
ag359
ag361
ag363
ag365
ag368
ag370
ag372
ag374
ag377
ag379
ag381
ag383
ag386
ag388
ag390
ag392
ag395
ag397
ag399
ag401
ag404
ag406
ag408
ag410
ag413
ag415
ag417
ag419
ag422
ag424
ag426
ag428
ag431
ag433
ag435
ag437
ag440
ag442
ag444
ag446
ag449
ag451
ag453
ag455
ag458
ag460
ag462
ag464
ag467
ag469
ag471
ag473
ag476
ag478
ag480
ag482
ag485
ag487
ag489
ag491
ag494
ag496
ag498
ag500
ag503
ag505
ag507
ag509
ag512
ag514
ag516
ag518
ag521
ag523
ag525
ag527
ag530
ag532
ag534
ag536
ag539
ag541
ag543
ag545
ag548
ag550
ag552
ag554
ag557
ag559
ag561
ag563
ag566
ag568
ag570
ag572
ag575
ag577
ag579
ag581
ag584
ag586
ag588
ag590
ag593
ag595
ag597
ag599
ag602
ag604
ag606
ag608
ag611
ag613
ag615
ag617
ag620
ag622
ag624
ag626
ag629
ag631
ag633
ag635
ag638
ag640
ag642
ag644
ag647
ag649
ag651
ag653
ag656
ag658
ag660
asS'featureMap'
p1982
(lp1983
(lp1984
I6
aI14
ag5
ag6
ag9
ag11
ag13
aa(lp1985
I20
aI27
ag15
ag16
ag18
ag20
ag22
aa(lp1986
I29
aI36
ag24
ag25
ag27
ag29
ag31
aa(lp1987
I47
aI52
ag33
ag34
ag36
ag38
ag40
aa(lp1988
I68
aI69
ag42
ag43
ag45
ag47
ag49
aa(lp1989
I71
aI75
ag51
ag52
ag54
ag56
ag58
aa(lp1990
I88
aI101
ag60
ag61
ag63
ag65
ag67
aa(lp1991
I107
aI109
ag69
ag70
ag72
ag74
ag76
aa(lp1992
I114
aI117
ag78
ag79
ag81
ag83
ag85
aa(lp1993
I120
aI122
ag87
ag88
ag90
ag92
ag94
aa(lp1994
I136
aI144
ag96
ag97
ag99
ag101
ag103
aa(lp1995
I146
aI154
ag105
ag106
ag108
ag110
ag112
aa(lp1996
I163
aI170
ag114
ag115
ag117
ag119
ag121
aa(lp1997
I179
aI186
ag123
ag124
ag126
ag128
ag130
aa(lp1998
I198
aI202
ag132
ag133
ag135
ag137
ag139
aa(lp1999
I204
aI211
ag141
ag142
ag144
ag146
ag148
aa(lp2000
I219
aI227
ag150
ag151
ag153
ag155
ag157
aa(lp2001
I229
aI233
ag159
ag160
ag162
ag164
ag166
aa(lp2002
I239
aI242
ag168
ag169
ag171
ag173
ag175
aa(lp2003
I244
aI248
ag177
ag178
ag180
ag182
ag184
aa(lp2004
I250
aI255
ag186
ag187
ag189
ag191
ag193
aa(lp2005
I262
aI266
ag195
ag196
ag198
ag200
ag202
aa(lp2006
I271
aI277
ag204
ag205
ag207
ag209
ag211
aa(lp2007
I285
aI292
ag213
ag214
ag216
ag218
ag220
aa(lp2008
I294
aI299
ag222
ag223
ag225
ag227
ag229
aa(lp2009
I305
aI308
ag231
ag232
ag234
ag236
ag238
aa(lp2010
I313
aI323
ag240
ag241
ag243
ag245
ag247
aa(lp2011
I334
aI341
ag249
ag250
ag252
ag254
ag256
aa(lp2012
I351
aI355
ag258
ag259
ag261
ag263
ag265
aa(lp2013
I357
aI362
ag267
ag268
ag270
ag272
ag274
aa(lp2014
I365
aI372
ag276
ag277
ag279
ag281
ag283
aa(lp2015
I378
aI385
ag285
ag286
ag288
ag290
ag292
aa(lp2016
I390
aI398
ag294
ag295
ag297
ag299
ag301
aa(lp2017
I400
aI405
ag303
ag304
ag306
ag308
ag310
aa(lp2018
I411
aI415
ag312
ag313
ag315
ag317
ag319
aa(lp2019
I421
aI424
ag321
ag322
ag324
ag326
ag328
aa(lp2020
I429
aI431
ag330
ag331
ag333
ag335
ag337
aa(lp2021
I433
aI440
ag339
ag340
ag342
ag344
ag346
aa(lp2022
I449
aI456
ag348
ag349
ag351
ag353
ag355
aa(lp2023
I462
aI468
ag357
ag358
ag360
ag362
ag364
aa(lp2024
I473
aI477
ag366
ag367
ag369
ag371
ag373
aa(lp2025
I482
aI486
ag375
ag376
ag378
ag380
ag382
aa(lp2026
I492
aI496
ag384
ag385
ag387
ag389
ag391
aa(lp2027
I505
aI510
ag393
ag394
ag396
ag398
ag400
aa(lp2028
I513
aI518
ag402
ag403
ag405
ag407
ag409
aa(lp2029
I524
aI527
ag411
ag412
ag414
ag416
ag418
aa(lp2030
I529
aI536
ag420
ag421
ag423
ag425
ag427
aa(lp2031
I548
aI563
ag429
ag430
ag432
ag434
ag436
aa(lp2032
I565
aI570
ag438
ag439
ag441
ag443
ag445
aa(lp2033
I579
aI584
ag447
ag448
ag450
ag452
ag454
aa(lp2034
I586
aI593
ag456
ag457
ag459
ag461
ag463
aa(lp2035
I595
aI602
ag465
ag466
ag468
ag470
ag472
aa(lp2036
I604
aI608
ag474
ag475
ag477
ag479
ag481
aa(lp2037
I627
aI630
ag483
ag484
ag486
ag488
ag490
aa(lp2038
I639
aI646
ag492
ag493
ag495
ag497
ag499
aa(lp2039
I659
aI663
ag501
ag502
ag504
ag506
ag508
aa(lp2040
I695
aI704
ag510
ag511
ag513
ag515
ag517
aa(lp2041
I713
aI719
ag519
ag520
ag522
ag524
ag526
aa(lp2042
I728
aI735
ag528
ag529
ag531
ag533
ag535
aa(lp2043
I743
aI749
ag537
ag538
ag540
ag542
ag544
aa(lp2044
I751
aI756
ag546
ag547
ag549
ag551
ag553
aa(lp2045
I766
aI771
ag555
ag556
ag558
ag560
ag562
aa(lp2046
I773
aI780
ag564
ag565
ag567
ag569
ag571
aa(lp2047
I782
aI785
ag573
ag574
ag576
ag578
ag580
aa(lp2048
I801
aI807
ag582
ag583
ag585
ag587
ag589
aa(lp2049
I813
aI820
ag591
ag592
ag594
ag596
ag598
aa(lp2050
I822
aI830
ag600
ag601
ag603
ag605
ag607
aa(lp2051
I839
aI842
ag609
ag610
ag612
ag614
ag616
aa(lp2052
I847
aI849
ag618
ag619
ag621
ag623
ag625
aa(lp2053
I855
aI861
ag627
ag628
ag630
ag632
ag634
aa(lp2054
I863
aI875
ag636
ag637
ag639
ag641
ag643
aa(lp2055
I878
aI883
ag645
ag646
ag648
ag650
ag652
aa(lp2056
I885
aI889
ag654
ag655
ag657
ag659
ag661
aasS'characterMap'
p2057
(lp2058
g667
ag669
ag671
ag673
ag675
ag1809
ag679
ag681
ag683
ag685
ag686
ag687
ag688
ag690
ag692
ag1811
ag697
ag698
ag700
ag1812
ag703
ag705
ag706
ag707
ag708
ag709
ag711
ag712
ag1813
ag716
ag718
ag719
ag721
ag722
ag723
ag724
ag725
ag1814
ag729
ag730
ag731
ag1815
ag735
ag736
ag737
ag738
ag1816
ag741
ag742
ag743
ag744
ag745
ag746
ag1817
ag750
ag752
ag753
ag1818
ag757
ag759
ag760
ag761
ag1819
ag765
ag766
ag768
ag769
ag1820
ag772
ag774
ag1821
ag778
ag779
ag780
ag781
ag782
ag1822
ag786
ag787
ag788
ag1823
ag792
ag794
ag1824
ag798
ag799
ag800
ag1825
ag803
ag804
ag805
ag806
ag807
ag808
ag809
ag810
ag811
ag812
ag813
ag814
ag815
ag816
ag1826
ag820
ag821
ag822
ag1827
ag825
ag827
ag828
ag1828
ag832
ag833
ag1829
ag836
ag837
ag838
ag839
a(lp2059
I118
aS'.'
p2060
aag1830
ag842
ag843
ag844
ag1831
ag848
ag849
ag1832
ag853
ag854
ag855
ag1833
ag859
ag860
ag861
ag862
ag1834
ag865
ag866
ag867
ag868
ag869
ag870
ag871
ag872
ag873
ag1835
ag876
ag877
ag878
ag879
ag880
ag881
ag882
ag883
ag884
ag1836
ag888
ag889
ag1837
ag893
ag894
ag895
ag1838
ag898
ag899
ag900
ag901
ag902
ag903
ag904
ag905
ag1839
ag909
ag910
ag1840
ag914
ag915
ag916
ag1841
ag919
ag920
ag921
ag922
ag923
ag924
ag925
ag926
a(lp2061
I187
aS','
p2062
aag1842
ag930
ag931
ag1843
ag935
ag936
ag1844
ag940
ag941
ag1845
ag944
ag945
ag946
ag947
ag948
ag1846
ag951
ag952
ag953
ag954
ag955
ag956
ag957
ag958
ag1847
ag962
ag963
ag1848
ag967
ag968
ag1849
ag971
ag972
ag973
ag974
ag975
ag976
ag977
ag978
ag979
ag1850
ag982
ag983
ag984
ag985
ag986
ag1851
ag990
ag991
ag992
ag1852
ag995
ag996
ag997
ag998
ag1853
ag1001
ag1002
ag1003
ag1004
ag1005
ag1854
ag1008
ag1009
ag1010
ag1011
ag1012
ag1013
ag1855
a(lp2063
I257
aS'('
p2064
aag1017
ag1018
ag1019
ag1856
ag1022
ag1023
ag1024
ag1025
ag1026
ag1857
ag1030
ag1031
ag1858
ag1034
ag1035
ag1036
ag1037
ag1038
ag1039
ag1040
a(lp2065
I278
aS')'
p2066
aa(lp2067
I279
ag2060
aag1859
ag1044
ag1045
ag1046
ag1860
ag1049
ag1050
ag1051
ag1052
ag1053
ag1054
ag1055
ag1056
ag1861
ag1059
ag1060
ag1061
ag1062
ag1063
ag1064
ag1862
ag1068
ag1069
ag1070
ag1863
ag1073
ag1074
ag1075
ag1076
ag1864
ag1080
ag1081
ag1865
ag1084
ag1085
ag1086
ag1087
ag1088
ag1089
ag1090
ag1091
ag1092
ag1093
ag1094
ag1866
ag1098
ag1099
ag1100
ag1101
ag1867
ag1105
ag1106
ag1107
ag1868
ag1110
ag1111
ag1112
ag1113
ag1114
ag1115
ag1116
ag1117
a(lp2068
I342
ag2060
aag1869
ag1121
ag1122
ag1870
ag1126
ag1127
ag1128
ag1871
ag1131
ag1133
ag1134
ag1135
ag1136
ag1872
ag1139
ag1140
ag1141
ag1142
ag1143
ag1144
a(lp2069
I363
ag2062
aag1873
ag1147
ag1148
ag1149
ag1150
ag1151
ag1152
ag1153
ag1154
ag1874
ag1158
ag1159
ag1160
ag1875
ag1163
ag1164
ag1165
ag1166
ag1167
ag1168
ag1169
ag1170
ag1876
ag1174
ag1175
ag1877
ag1178
ag1179
ag1180
ag1181
ag1182
ag1183
ag1184
ag1185
ag1186
ag1878
ag1189
ag1190
ag1191
ag1192
ag1193
ag1194
ag1879
ag1198
ag1199
ag1200
ag1880
ag1203
ag1204
ag1205
ag1206
ag1207
ag1881
ag1211
ag1212
ag1213
ag1882
ag1216
ag1217
ag1218
ag1219
ag1883
ag1223
ag1224
ag1884
ag1227
ag1228
ag1229
ag1885
ag1232
ag1233
ag1234
ag1235
ag1236
ag1237
ag1238
ag1239
ag1886
ag1243
ag1244
ag1245
ag1246
ag1887
ag1249
ag1888
ag1252
ag1253
ag1254
ag1255
ag1256
ag1257
ag1258
ag1259
a(lp2070
I457
ag2062
aag1889
ag1263
ag1264
ag1890
ag1267
ag1268
ag1269
ag1270
ag1271
ag1272
ag1273
ag1891
ag1277
ag1278
ag1892
ag1281
ag1282
ag1283
ag1284
ag1285
ag1893
ag1289
ag1290
ag1894
ag1293
ag1294
ag1295
ag1296
ag1297
ag1895
ag1301
ag1302
ag1303
ag1896
ag1306
ag1307
ag1308
ag1309
ag1310
ag1897
ag1314
ag1315
ag1898
ag1319
ag1320
ag1321
ag1899
ag1324
ag1325
ag1326
ag1327
ag1328
ag1329
a(lp2071
I511
ag2060
aag1900
ag1332
ag1333
ag1334
ag1335
ag1336
ag1337
ag1901
ag1341
ag1342
ag1343
ag1902
ag1346
ag1347
ag1348
ag1349
ag1903
ag1352
ag1353
ag1354
ag1355
ag1356
ag1357
ag1358
ag1359
ag1904
ag1363
ag1364
ag1365
ag1366
ag1367
ag1905
ag1371
ag1372
ag1373
ag1906
ag1376
ag1377
ag1378
ag1379
ag1380
ag1381
ag1382
ag1383
ag1384
ag1385
ag1386
ag1388
ag1389
ag1390
ag1391
ag1392
ag1907
ag1395
ag1396
ag1397
ag1398
ag1399
ag1400
ag1908
ag1404
ag1405
ag1909
ag1409
ag1410
ag1411
ag1910
ag1414
ag1415
ag1416
ag1417
ag1418
ag1419
ag1911
ag1422
ag1423
ag1424
ag1425
ag1426
ag1427
ag1428
ag1429
ag1912
ag1432
ag1433
ag1434
ag1435
ag1436
ag1437
ag1438
ag1439
ag1913
ag1442
ag1443
ag1444
ag1445
ag1446
ag1914
ag1450
ag1451
ag1452
ag1453
a(lp2072
I614
aS'?'
p2073
aag1915
ag1457
ag1458
ag1916
ag1462
ag1463
ag1464
ag1917
ag1468
ag1469
ag1470
ag1918
ag1473
ag1474
ag1475
ag1476
ag1919
ag1480
ag1481
ag1920
ag1485
ag1486
ag1487
ag1921
ag1490
ag1491
ag1492
ag1493
ag1494
ag1495
ag1496
ag1497
ag1922
ag1501
ag1502
ag1503
ag1923
ag1507
ag1508
ag1924
ag1512
ag1513
ag1514
ag1925
ag1517
ag1518
ag1519
ag1520
ag1521
ag1926
ag1525
ag1526
ag1927
ag1530
ag1531
ag1532
ag1533
ag1534
ag1928
ag1538
ag1539
ag1540
ag1541
ag1929
ag1545
ag1546
ag1547
a(lp2074
I682
ag2073
aag1930
ag1551
ag1552
ag1931
ag1556
ag1557
ag1558
ag1932
ag1562
ag1563
ag1564
ag1933
ag1567
ag1568
ag1569
ag1570
ag1571
ag1572
ag1573
ag1574
ag1575
ag1576
ag1934
ag1580
ag1581
ag1935
ag1585
ag1586
ag1587
ag1936
ag1590
ag1591
ag1592
ag1593
ag1594
ag1595
ag1596
ag1937
ag1600
ag1601
ag1938
ag1605
ag1606
ag1607
ag1939
ag1610
ag1611
ag1612
ag1613
ag1614
ag1615
ag1616
ag1617
a(lp2075
I736
ag2062
aag1940
ag1621
ag1622
ag1623
ag1624
ag1941
ag1627
ag1628
ag1629
ag1630
ag1631
ag1632
ag1633
ag1942
ag1636
ag1637
ag1638
ag1639
ag1640
ag1641
ag1943
ag1645
ag1646
ag1647
ag1944
ag1651
ag1652
ag1653
ag1945
ag1656
ag1657
ag1658
ag1659
ag1660
ag1661
ag1946
ag1664
ag1665
ag1666
ag1667
ag1668
ag1669
ag1670
ag1671
ag1947
ag1674
ag1675
ag1676
ag1677
ag1948
ag1681
ag1682
ag1949
ag1686
ag1687
ag1950
ag1691
ag1692
ag1693
ag1951
ag1697
ag1698
ag1699
ag1952
ag1702
ag1703
ag1704
ag1705
ag1706
ag1707
ag1708
ag1953
ag1712
ag1713
ag1714
ag1954
ag1717
ag1718
ag1719
ag1720
ag1721
ag1722
ag1723
ag1724
ag1955
ag1727
ag1728
ag1729
ag1730
ag1731
ag1732
ag1733
ag1734
ag1735
ag1956
ag1739
ag1740
ag1741
ag1957
ag1745
ag1746
ag1958
ag1749
ag1750
ag1751
ag1752
ag1959
ag1756
ag1757
ag1960
ag1760
ag1761
ag1762
a(lp2076
I850
ag2060
aag1961
ag1766
ag1767
ag1962
ag1770
ag1771
ag1772
ag1773
ag1774
ag1775
ag1776
ag1963
ag1779
ag1780
ag1781
ag1782
ag1783
ag1784
ag1785
ag1786
ag1787
ag1788
ag1789
ag1790
ag1791
a(lp2077
I876
ag2062
aag1964
ag1794
ag1795
ag1796
ag1797
ag1798
ag1799
ag1965
ag1802
ag1803
ag1804
ag1805
ag1806
ag1966
ag1967
ag1968
ag1969
asS'docName'
p2078
S'source-document01486.txt'
p2079
sb.