(iModel.Document
Document
p0
(dp1
S'fmap'
p2
(lp3
(lp4
I4
aI13
aS'collection'
p5
a(lp6
S'*'
p7
ag5
aaa(lp8
I4
aI13
ag5
a(lp9
g7
ag5
aaa(lp10
I4
aI13
ag5
a(lp11
g7
ag5
aaa(lp12
I4
aI13
ag5
a(lp13
g7
ag5
aaa(lp14
I18
aI26
aS'favourite'
p15
a(lp16
g5
ag15
aaa(lp17
I18
aI26
ag15
a(lp18
g7
ag15
aaa(lp19
I18
aI26
ag15
a(lp20
g7
ag15
aaa(lp21
I18
aI26
ag15
a(lp22
g7
ag15
aaa(lp23
I28
aI34
aS'hotbodz'
p24
a(lp25
g15
ag24
aaa(lp26
I28
aI34
ag24
a(lp27
g5
ag24
aaa(lp28
I28
aI34
ag24
a(lp29
g7
ag24
aaa(lp30
I28
aI34
ag24
a(lp31
g7
ag24
aaa(lp32
I39
aI42
aS'well'
p33
a(lp34
g24
ag33
aaa(lp35
I39
aI42
ag33
a(lp36
g15
ag33
aaa(lp37
I39
aI42
ag33
a(lp38
g5
ag33
aaa(lp39
I39
aI42
ag33
a(lp40
g7
ag33
aaa(lp41
I47
aI51
aS'links'
p42
a(lp43
g33
ag42
aaa(lp44
I47
aI51
ag42
a(lp45
g24
ag42
aaa(lp46
I47
aI51
ag42
a(lp47
g15
ag42
aaa(lp48
I47
aI51
ag42
a(lp49
g5
ag42
aaa(lp50
I56
aI60
aS'enjoy'
p51
a(lp52
g42
ag51
aaa(lp53
I56
aI60
ag51
a(lp54
g33
ag51
aaa(lp55
I56
aI60
ag51
a(lp56
g24
ag51
aaa(lp57
I56
aI60
ag51
a(lp58
g15
ag51
aaa(lp59
I63
aI68
aS'monday'
p60
a(lp61
g51
ag60
aaa(lp62
I63
aI68
ag60
a(lp63
g42
ag60
aaa(lp64
I63
aI68
ag60
a(lp65
g33
ag60
aaa(lp66
I63
aI68
ag60
a(lp67
g24
ag60
aaa(lp68
I71
aI77
aS'january'
p69
a(lp70
g60
ag69
aaa(lp71
I71
aI77
ag69
a(lp72
g51
ag69
aaa(lp73
I71
aI77
ag69
a(lp74
g42
ag69
aaa(lp75
I71
aI77
ag69
a(lp76
g33
ag69
aaa(lp77
I79
aI80
aS'19'
p78
a(lp79
g69
ag78
aaa(lp80
I79
aI80
ag78
a(lp81
g60
ag78
aaa(lp82
I79
aI80
ag78
a(lp83
g51
ag78
aaa(lp84
I79
aI80
ag78
a(lp85
g42
ag78
aaa(lp86
I83
aI86
aS'2009'
p87
a(lp88
g78
ag87
aaa(lp89
I83
aI86
ag87
a(lp90
g69
ag87
aaa(lp91
I83
aI86
ag87
a(lp92
g60
ag87
aaa(lp93
I83
aI86
ag87
a(lp94
g51
ag87
aaa(lp95
I88
aI92
aS'blast'
p96
a(lp97
g87
ag96
aaa(lp98
I88
aI92
ag96
a(lp99
g78
ag96
aaa(lp100
I88
aI92
ag96
a(lp101
g69
ag96
aaa(lp102
I88
aI92
ag96
a(lp103
g60
ag96
aaa(lp104
I99
aI102
aS'2009'
p105
a(lp106
g96
ag105
aaa(lp107
I99
aI102
ag105
a(lp108
g87
ag105
aaa(lp109
I99
aI102
ag105
a(lp110
g78
ag105
aaa(lp111
I99
aI102
ag105
a(lp112
g69
ag105
aaa(lp113
I104
aI109
aS'heres'
p114
a(lp115
g105
ag114
aaa(lp116
I104
aI109
ag114
a(lp117
g96
ag114
aaa(lp118
I104
aI109
ag114
a(lp119
g87
ag114
aaa(lp120
I104
aI109
ag114
a(lp121
g78
ag114
aaa(lp122
I114
aI117
aS'2009'
p123
a(lp124
g114
ag123
aaa(lp125
I114
aI117
ag123
a(lp126
g105
ag123
aaa(lp127
I114
aI117
ag123
a(lp128
g96
ag123
aaa(lp129
I114
aI117
ag123
a(lp130
g87
ag123
aaa(lp131
I125
aI129
aS'blast'
p132
a(lp133
g123
ag132
aaa(lp134
I125
aI129
ag132
a(lp135
g114
ag132
aaa(lp136
I125
aI129
ag132
a(lp137
g105
ag132
aaa(lp138
I125
aI129
ag132
a(lp139
g96
ag132
aaa(lp140
I138
aI141
aS'2008'
p141
a(lp142
g132
ag141
aaa(lp143
I138
aI141
ag141
a(lp144
g123
ag141
aaa(lp145
I138
aI141
ag141
a(lp146
g114
ag141
aaa(lp147
I138
aI141
ag141
a(lp148
g105
ag141
aaa(lp149
I144
aI149
aS'thanks'
p150
a(lp151
g141
ag150
aaa(lp152
I144
aI149
ag150
a(lp153
g132
ag150
aaa(lp154
I144
aI149
ag150
a(lp155
g123
ag150
aaa(lp156
I144
aI149
ag150
a(lp157
g114
ag150
aaa(lp158
I165
aI171
aS'readers'
p159
a(lp160
g150
ag159
aaa(lp161
I165
aI171
ag159
a(lp162
g141
ag159
aaa(lp163
I165
aI171
ag159
a(lp164
g132
ag159
aaa(lp165
I165
aI171
ag159
a(lp166
g123
ag159
aaa(lp167
I177
aI182
aS'helped'
p168
a(lp169
g159
ag168
aaa(lp170
I177
aI182
ag168
a(lp171
g150
ag168
aaa(lp172
I177
aI182
ag168
a(lp173
g141
ag168
aaa(lp174
I177
aI182
ag168
a(lp175
g132
ag168
aaa(lp176
I184
aI185
aS'us'
p177
a(lp178
g168
ag177
aaa(lp179
I184
aI185
ag177
a(lp180
g159
ag177
aaa(lp181
I184
aI185
ag177
a(lp182
g150
ag177
aaa(lp183
I184
aI185
ag177
a(lp184
g141
ag177
aaa(lp185
I187
aI189
aS'top'
p186
a(lp187
g177
ag186
aaa(lp188
I187
aI189
ag186
a(lp189
g168
ag186
aaa(lp190
I187
aI189
ag186
a(lp191
g159
ag186
aaa(lp192
I187
aI189
ag186
a(lp193
g150
ag186
aaa(lp194
I195
aI197
aS'100'
p195
a(lp196
g186
ag195
aaa(lp197
I195
aI197
ag195
a(lp198
g177
ag195
aaa(lp199
I195
aI197
ag195
a(lp200
g168
ag195
aaa(lp201
I195
aI197
ag195
a(lp202
g159
ag195
aaa(lp203
I199
aI201
aS'000'
p204
a(lp205
g195
ag204
aaa(lp206
I199
aI201
ag204
a(lp207
g186
ag204
aaa(lp208
I199
aI201
ag204
a(lp209
g177
ag204
aaa(lp210
I199
aI201
ag204
a(lp211
g168
ag204
aaa(lp212
I203
aI206
aS'mark'
p213
a(lp214
g204
ag213
aaa(lp215
I203
aI206
ag213
a(lp216
g195
ag213
aaa(lp217
I203
aI206
ag213
a(lp218
g186
ag213
aaa(lp219
I203
aI206
ag213
a(lp220
g177
ag213
aaa(lp221
I213
aI216
aS'year'
p222
a(lp223
g213
ag222
aaa(lp224
I213
aI216
ag222
a(lp225
g204
ag222
aaa(lp226
I213
aI216
ag222
a(lp227
g195
ag222
aaa(lp228
I213
aI216
ag222
a(lp229
g186
ag222
aaa(lp230
I222
aI228
aS'promise'
p231
a(lp232
g222
ag231
aaa(lp233
I222
aI228
ag231
a(lp234
g213
ag231
aaa(lp235
I222
aI228
ag231
a(lp236
g204
ag231
aaa(lp237
I222
aI228
ag231
a(lp238
g195
ag231
aaa(lp239
I234
aI239
aS'plenty'
p240
a(lp241
g231
ag240
aaa(lp242
I234
aI239
ag240
a(lp243
g222
ag240
aaa(lp244
I234
aI239
ag240
a(lp245
g213
ag240
aaa(lp246
I234
aI239
ag240
a(lp247
g204
ag240
aaa(lp248
I246
aI248
aS'hot'
p249
a(lp250
g240
ag249
aaa(lp251
I246
aI248
ag249
a(lp252
g231
ag249
aaa(lp253
I246
aI248
ag249
a(lp254
g222
ag249
aaa(lp255
I246
aI248
ag249
a(lp256
g213
ag249
aaa(lp257
I250
aI253
aS'bodz'
p258
a(lp259
g249
ag258
aaa(lp260
I250
aI253
ag258
a(lp261
g240
ag258
aaa(lp262
I250
aI253
ag258
a(lp263
g231
ag258
aaa(lp264
I250
aI253
ag258
a(lp265
g222
ag258
aaa(lp266
I258
aI261
aS'2009'
p267
a(lp268
g258
ag267
aaa(lp269
I258
aI261
ag267
a(lp270
g249
ag267
aaa(lp271
I258
aI261
ag267
a(lp272
g240
ag267
aaa(lp273
I258
aI261
ag267
a(lp274
g231
ag267
aaa(lp275
I267
aI270
aS'stay'
p276
a(lp277
g267
ag276
aaa(lp278
I267
aI270
ag276
a(lp279
g258
ag276
aaa(lp280
I267
aI270
ag276
a(lp281
g249
ag276
aaa(lp282
I267
aI270
ag276
a(lp283
g240
ag276
aaa(lp284
I277
aI278
aS'us'
p285
a(lp286
g276
ag285
aaa(lp287
I277
aI278
ag285
a(lp288
g267
ag285
aaa(lp289
I277
aI278
ag285
a(lp290
g258
ag285
aaa(lp291
I277
aI278
ag285
a(lp292
g249
ag285
aaa(lp293
I281
aI290
aS'everything'
p294
a(lp295
g285
ag294
aaa(lp296
I281
aI290
ag294
a(lp297
g276
ag294
aaa(lp298
I281
aI290
ag294
a(lp299
g267
ag294
aaa(lp300
I281
aI290
ag294
a(lp301
g258
ag294
aaa(lp302
I299
aI302
aS'best'
p303
a(lp304
g294
ag303
aaa(lp305
I299
aI302
ag303
a(lp306
g285
ag303
aaa(lp307
I299
aI302
ag303
a(lp308
g276
ag303
aaa(lp309
I299
aI302
ag303
a(lp310
g267
ag303
aaa(lp311
I311
aI317
aS'awesome'
p312
a(lp313
g303
ag312
aaa(lp314
I311
aI317
ag312
a(lp315
g294
ag312
aaa(lp316
I311
aI317
ag312
a(lp317
g285
ag312
aaa(lp318
I311
aI317
ag312
a(lp319
g276
ag312
aaa(lp320
I319
aI322
aS'2009'
p321
a(lp322
g312
ag321
aaa(lp323
I319
aI322
ag321
a(lp324
g303
ag321
aaa(lp325
I319
aI322
ag321
a(lp326
g294
ag321
aaa(lp327
I319
aI322
ag321
a(lp328
g285
ag321
aaa(lp329
I326
aI329
aS'dave'
p330
a(lp331
g321
ag330
aaa(lp332
I326
aI329
ag330
a(lp333
g312
ag330
aaa(lp334
I326
aI329
ag330
a(lp335
g303
ag330
aaa(lp336
I326
aI329
ag330
a(lp337
g294
ag330
aaa(lp338
I331
aI338
aS'treasure'
p339
a(lp340
g330
ag339
aaa(lp341
I331
aI338
ag339
a(lp342
g321
ag339
aaa(lp343
I331
aI338
ag339
a(lp344
g312
ag339
aaa(lp345
I331
aI338
ag339
a(lp346
g303
ag339
aaa(lp347
I340
aI344
aS'trail'
p348
a(lp349
g339
ag348
aaa(lp350
I340
aI344
ag348
a(lp351
g330
ag348
aaa(lp352
I340
aI344
ag348
a(lp353
g321
ag348
aaa(lp354
I340
aI344
ag348
a(lp355
g312
ag348
aaa(lp356
I351
aI355
aS'yummy'
p357
a(lp358
g348
ag357
aaa(lp359
I351
aI355
ag357
a(lp360
g339
ag357
aaa(lp361
I351
aI355
ag357
a(lp362
g330
ag357
aaa(lp363
I351
aI355
ag357
a(lp364
g321
ag357
aaa(lp365
I357
aI364
aS'treasure'
p366
a(lp367
g357
ag366
aaa(lp368
I357
aI364
ag366
a(lp369
g348
ag366
aaa(lp370
I357
aI364
ag366
a(lp371
g339
ag366
aaa(lp372
I357
aI364
ag366
a(lp373
g330
ag366
aaa(lp374
I366
aI370
aS'trail'
p375
a(lp376
g366
ag375
aaa(lp377
I366
aI370
ag375
a(lp378
g357
ag375
aaa(lp379
I366
aI370
ag375
a(lp380
g348
ag375
aaa(lp381
I366
aI370
ag375
a(lp382
g339
ag375
aaa(lp383
I374
aI378
aS'found'
p384
a(lp385
g375
ag384
aaa(lp386
I374
aI378
ag384
a(lp387
g366
ag384
aaa(lp388
I374
aI378
ag384
a(lp389
g357
ag384
aaa(lp390
I374
aI378
ag384
a(lp391
g348
ag384
aaa(lp392
I385
aI388
aS'blog'
p393
a(lp394
g384
ag393
aaa(lp395
I385
aI388
ag393
a(lp396
g375
ag393
aaa(lp397
I385
aI388
ag393
a(lp398
g366
ag393
aaa(lp399
I385
aI388
ag393
a(lp400
g357
ag393
aaa(lp401
I398
aI403
aS'linked'
p402
a(lp403
g393
ag402
aaa(lp404
I398
aI403
ag402
a(lp405
g384
ag402
aaa(lp406
I398
aI403
ag402
a(lp407
g375
ag402
aaa(lp408
I398
aI403
ag402
a(lp409
g366
ag402
aaa(lp410
I413
aI415
aS'boy'
p411
a(lp412
g402
ag411
aaa(lp413
I413
aI415
ag411
a(lp414
g393
ag411
aaa(lp415
I413
aI415
ag411
a(lp416
g384
ag411
aaa(lp417
I413
aI415
ag411
a(lp418
g375
ag411
aaa(lp419
I417
aI419
aS'box'
p420
a(lp421
g411
ag420
aaa(lp422
I417
aI419
ag420
a(lp423
g402
ag420
aaa(lp424
I417
aI419
ag420
a(lp425
g393
ag420
aaa(lp426
I417
aI419
ag420
a(lp427
g384
ag420
aaa(lp428
I423
aI425
aS'see'
p429
a(lp430
g420
ag429
aaa(lp431
I423
aI425
ag429
a(lp432
g411
ag429
aaa(lp433
I423
aI425
ag429
a(lp434
g402
ag429
aaa(lp435
I423
aI425
ag429
a(lp436
g393
ag429
aaa(lp437
I431
aI435
aS'links'
p438
a(lp439
g429
ag438
aaa(lp440
I431
aI435
ag438
a(lp441
g420
ag438
aaa(lp442
I431
aI435
ag438
a(lp443
g411
ag438
aaa(lp444
I431
aI435
ag438
a(lp445
g402
ag438
aaa(lp446
I446
aI448
aS'hot'
p447
a(lp448
g438
ag447
aaa(lp449
I446
aI448
ag447
a(lp450
g429
ag447
aaa(lp451
I446
aI448
ag447
a(lp452
g420
ag447
aaa(lp453
I446
aI448
ag447
a(lp454
g411
ag447
aaa(lp455
I450
aI454
aS'sites'
p456
a(lp457
g447
ag456
aaa(lp458
I450
aI454
ag456
a(lp459
g438
ag456
aaa(lp460
I450
aI454
ag456
a(lp461
g429
ag456
aaa(lp462
I450
aI454
ag456
a(lp463
g420
ag456
aaa(lp464
I459
aI463
aS'enjoy'
p465
a(lp466
g456
ag465
aaa(lp467
I459
aI463
ag465
a(lp468
g447
ag465
aaa(lp469
I459
aI463
ag465
a(lp470
g438
ag465
aaa(lp471
I459
aI463
ag465
a(lp472
g429
ag465
aaa(lp473
I472
aI480
aS'sideblog'
p474
a(lp475
g465
ag474
aaa(lp476
I472
aI480
ag474
a(lp477
g456
ag474
aaa(lp478
I472
aI480
ag474
a(lp479
g447
ag474
aaa(lp480
I472
aI480
ag474
a(lp481
g438
ag474
aaa(lp482
I489
aI493
aS'right'
p483
a(lp484
g474
ag483
aaa(lp485
I489
aI493
ag483
a(lp486
g465
ag483
aaa(lp487
I489
aI493
ag483
a(lp488
g456
ag483
aaa(lp489
I489
aI493
ag483
a(lp490
g447
ag483
aaa(lp491
I496
aI502
aS'another'
p492
a(lp493
g483
ag492
aaa(lp494
I496
aI502
ag492
a(lp495
g474
ag492
aaa(lp496
I496
aI502
ag492
a(lp497
g465
ag492
aaa(lp498
I496
aI502
ag492
a(lp499
g456
ag492
aaa(lp500
I504
aI506
aS'new'
p501
a(lp502
g492
ag501
aaa(lp503
I504
aI506
ag501
a(lp504
g483
ag501
aaa(lp505
I504
aI506
ag501
a(lp506
g474
ag501
aaa(lp507
I504
aI506
ag501
a(lp508
g465
ag501
aaa(lp509
I508
aI511
aS'link'
p510
a(lp511
g501
ag510
aaa(lp512
I508
aI511
ag510
a(lp513
g492
ag510
aaa(lp514
I508
aI511
ag510
a(lp515
g483
ag510
aaa(lp516
I508
aI511
ag510
a(lp517
g474
ag510
aaa(lp518
I519
aI521
aS'bad'
p519
a(lp520
g510
ag519
aaa(lp521
I519
aI521
ag519
a(lp522
g501
ag519
aaa(lp523
I519
aI521
ag519
a(lp524
g492
ag519
aaa(lp525
I519
aI521
ag519
a(lp526
g483
ag519
aaa(lp527
I523
aI527
aS'puppy'
p528
a(lp529
g519
ag528
aaa(lp530
I523
aI527
ag528
a(lp531
g510
ag528
aaa(lp532
I523
aI527
ag528
a(lp533
g501
ag528
aaa(lp534
I523
aI527
ag528
a(lp535
g492
ag528
aaa(lp536
I540
aI548
aS'selection'
p537
a(lp538
g528
ag537
aaa(lp539
I540
aI548
ag537
a(lp540
g519
ag537
aaa(lp541
I540
aI548
ag537
a(lp542
g510
ag537
aaa(lp543
I540
aI548
ag537
a(lp544
g501
ag537
aaa(lp545
I553
aI558
aS'models'
p546
a(lp547
g537
ag546
aaa(lp548
I553
aI558
ag546
a(lp549
g528
ag546
aaa(lp550
I553
aI558
ag546
a(lp551
g519
ag546
aaa(lp552
I553
aI558
ag546
a(lp553
g510
ag546
aaa(lp554
I566
aI569
aS'free'
p555
a(lp556
g546
ag555
aaa(lp557
I566
aI569
ag555
a(lp558
g537
ag555
aaa(lp559
I566
aI569
ag555
a(lp560
g528
ag555
aaa(lp561
I566
aI569
ag555
a(lp562
g519
ag555
aaa(lp563
I574
aI577
aS'view'
p564
a(lp565
g555
ag564
aaa(lp566
I574
aI577
ag564
a(lp567
g546
ag564
aaa(lp568
I574
aI577
ag564
a(lp569
g537
ag564
aaa(lp570
I574
aI577
ag564
a(lp571
g528
ag564
aaasS'wordMap'
p572
(lp573
(lp574
I0
aI2
aS'our'
p575
a(lp576
(lp577
I0
aS'o'
p578
aa(lp579
I1
aS'u'
p580
aa(lp581
I2
aS'r'
p582
aaaa(lp583
I4
aI13
ag5
a(lp584
(lp585
I4
aS'c'
p586
aa(lp587
I5
ag578
aa(lp588
I6
aS'l'
p589
aa(lp590
I7
ag589
aa(lp591
I8
aS'e'
p592
aa(lp593
I9
ag586
aa(lp594
I10
aS't'
p595
aa(lp596
I11
aS'i'
p597
aa(lp598
I12
ag578
aa(lp599
I13
aS'n'
p600
aaaa(lp601
I15
aI16
aS'of'
p602
a(lp603
(lp604
I15
ag578
aa(lp605
I16
aS'f'
p606
aaaa(lp607
I18
aI26
ag15
a(lp608
(lp609
I18
ag606
aa(lp610
I19
aS'a'
p611
aa(lp612
I20
aS'v'
p613
aa(lp614
I21
ag578
aa(lp615
I22
ag580
aa(lp616
I23
ag582
aa(lp617
I24
ag597
aa(lp618
I25
ag595
aa(lp619
I26
ag592
aaaa(lp620
I28
aI34
ag24
a(lp621
(lp622
I28
aS'h'
p623
aa(lp624
I29
ag578
aa(lp625
I30
ag595
aa(lp626
I31
aS'b'
p627
aa(lp628
I32
ag578
aa(lp629
I33
aS'd'
p630
aa(lp631
I34
aS'z'
p632
aaaa(lp633
I36
aI37
aS'as'
p634
a(lp635
(lp636
I36
ag611
aa(lp637
I37
aS's'
p638
aaaa(lp639
I39
aI42
ag33
a(lp640
(lp641
I39
aS'w'
p642
aa(lp643
I40
ag592
aa(lp644
I41
ag589
aa(lp645
I42
ag589
aaaa(lp646
I44
aI45
aS'as'
p647
a(lp648
(lp649
I44
ag611
aa(lp650
I45
ag638
aaaa(lp651
I47
aI51
ag42
a(lp652
(lp653
I47
ag589
aa(lp654
I48
ag597
aa(lp655
I49
ag600
aa(lp656
I50
aS'k'
p657
aa(lp658
I51
ag638
aaaa(lp659
I53
aI54
aS'we'
p660
a(lp661
(lp662
I53
ag642
aa(lp663
I54
ag592
aaaa(lp664
I56
aI60
ag51
a(lp665
(lp666
I56
ag592
aa(lp667
I57
ag600
aa(lp668
I58
aS'j'
p669
aa(lp670
I59
ag578
aa(lp671
I60
aS'y'
p672
aaaa(lp673
I63
aI68
ag60
a(lp674
(lp675
I63
aS'm'
p676
aa(lp677
I64
ag578
aa(lp678
I65
ag600
aa(lp679
I66
ag630
aa(lp680
I67
ag611
aa(lp681
I68
ag672
aaaa(lp682
I71
aI77
ag69
a(lp683
(lp684
I71
ag669
aa(lp685
I72
ag611
aa(lp686
I73
ag600
aa(lp687
I74
ag580
aa(lp688
I75
ag611
aa(lp689
I76
ag582
aa(lp690
I77
ag672
aaaa(lp691
I79
aI80
ag78
a(lp692
(lp693
I79
aS'1'
p694
aa(lp695
I80
aS'9'
p696
aaaa(lp697
I83
aI86
ag87
a(lp698
(lp699
I83
aS'2'
p700
aa(lp701
I84
aS'0'
p702
aa(lp703
I85
ag702
aa(lp704
I86
ag696
aaaa(lp705
I88
aI92
ag96
a(lp706
(lp707
I88
ag627
aa(lp708
I89
ag589
aa(lp709
I90
ag611
aa(lp710
I91
ag638
aa(lp711
I92
ag595
aaaa(lp712
I94
aI97
aS'into'
p713
a(lp714
(lp715
I94
ag597
aa(lp716
I95
ag600
aa(lp717
I96
ag595
aa(lp718
I97
ag578
aaaa(lp719
I99
aI102
ag105
a(lp720
(lp721
I99
ag700
aa(lp722
I100
ag702
aa(lp723
I101
ag702
aa(lp724
I102
ag696
aaaa(lp725
I104
aI109
ag114
a(lp726
(lp727
I104
ag623
aa(lp728
I105
ag592
aa(lp729
I106
ag582
aa(lp730
I107
ag592
aa(lp731
I109
ag638
aaaa(lp732
I111
aI112
aS'to'
p733
a(lp734
(lp735
I111
ag595
aa(lp736
I112
ag578
aaaa(lp737
I114
aI117
ag123
a(lp738
(lp739
I114
ag700
aa(lp740
I115
ag702
aa(lp741
I116
ag702
aa(lp742
I117
ag696
aaaa(lp743
I119
aI120
aS'as'
p744
a(lp745
(lp746
I119
ag611
aa(lp747
I120
ag638
aaaa(lp748
I122
aI123
aS'we'
p749
a(lp750
(lp751
I122
ag642
aa(lp752
I123
ag592
aaaa(lp753
I125
aI129
ag132
a(lp754
(lp755
I125
ag627
aa(lp756
I126
ag589
aa(lp757
I127
ag611
aa(lp758
I128
ag638
aa(lp759
I129
ag595
aaaa(lp760
I131
aI133
aS'out'
p761
a(lp762
(lp763
I131
ag578
aa(lp764
I132
ag580
aa(lp765
I133
ag595
aaaa(lp766
I135
aI136
aS'of'
p767
a(lp768
(lp769
I135
ag578
aa(lp770
I136
ag606
aaaa(lp771
I138
aI141
ag141
a(lp772
(lp773
I138
ag700
aa(lp774
I139
ag702
aa(lp775
I140
ag702
aa(lp776
I141
aS'8'
p777
aaaa(lp778
I144
aI149
ag150
a(lp779
(lp780
I144
ag595
aa(lp781
I145
ag623
aa(lp782
I146
ag611
aa(lp783
I147
ag600
aa(lp784
I148
ag657
aa(lp785
I149
ag638
aaaa(lp786
I151
aI152
aS'to'
p787
a(lp788
(lp789
I151
ag595
aa(lp790
I152
ag578
aaaa(lp791
I154
aI156
aS'all'
p792
a(lp793
(lp794
I154
ag611
aa(lp795
I155
ag589
aa(lp796
I156
ag589
aaaa(lp797
I158
aI159
aS'of'
p798
a(lp799
(lp800
I158
ag578
aa(lp801
I159
ag606
aaaa(lp802
I161
aI163
aS'our'
p803
a(lp804
(lp805
I161
ag578
aa(lp806
I162
ag580
aa(lp807
I163
ag582
aaaa(lp808
I165
aI171
ag159
a(lp809
(lp810
I165
ag582
aa(lp811
I166
ag592
aa(lp812
I167
ag611
aa(lp813
I168
ag630
aa(lp814
I169
ag592
aa(lp815
I170
ag582
aa(lp816
I171
ag638
aaaa(lp817
I173
aI175
aS'who'
p818
a(lp819
(lp820
I173
ag642
aa(lp821
I174
ag623
aa(lp822
I175
ag578
aaaa(lp823
I177
aI182
ag168
a(lp824
(lp825
I177
ag623
aa(lp826
I178
ag592
aa(lp827
I179
ag589
aa(lp828
I180
aS'p'
p829
aa(lp830
I181
ag592
aa(lp831
I182
ag630
aaaa(lp832
I184
aI185
ag177
a(lp833
(lp834
I184
ag580
aa(lp835
I185
ag638
aaaa(lp836
I187
aI189
ag186
a(lp837
(lp838
I187
ag595
aa(lp839
I188
ag578
aa(lp840
I189
ag829
aaaa(lp841
I191
aI193
aS'the'
p842
a(lp843
(lp844
I191
ag595
aa(lp845
I192
ag623
aa(lp846
I193
ag592
aaaa(lp847
I195
aI197
ag195
a(lp848
(lp849
I195
ag694
aa(lp850
I196
ag702
aa(lp851
I197
ag702
aaaa(lp852
I199
aI201
ag204
a(lp853
(lp854
I199
ag702
aa(lp855
I200
ag702
aa(lp856
I201
ag702
aaaa(lp857
I203
aI206
ag213
a(lp858
(lp859
I203
ag676
aa(lp860
I204
ag611
aa(lp861
I205
ag582
aa(lp862
I206
ag657
aaaa(lp863
I208
aI211
aS'this'
p864
a(lp865
(lp866
I208
ag595
aa(lp867
I209
ag623
aa(lp868
I210
ag597
aa(lp869
I211
ag638
aaaa(lp870
I213
aI216
ag222
a(lp871
(lp872
I213
ag672
aa(lp873
I214
ag592
aa(lp874
I215
ag611
aa(lp875
I216
ag582
aaaa(lp876
I219
aI220
aS'we'
p877
a(lp878
(lp879
I219
ag642
aa(lp880
I220
ag592
aaaa(lp881
I222
aI228
ag231
a(lp882
(lp883
I222
ag829
aa(lp884
I223
ag582
aa(lp885
I224
ag578
aa(lp886
I225
ag676
aa(lp887
I226
ag597
aa(lp888
I227
ag638
aa(lp889
I228
ag592
aaaa(lp890
I230
aI232
aS'you'
p891
a(lp892
(lp893
I230
ag672
aa(lp894
I231
ag578
aa(lp895
I232
ag580
aaaa(lp896
I234
aI239
ag240
a(lp897
(lp898
I234
ag829
aa(lp899
I235
ag589
aa(lp900
I236
ag592
aa(lp901
I237
ag600
aa(lp902
I238
ag595
aa(lp903
I239
ag672
aaaa(lp904
I241
aI244
aS'more'
p905
a(lp906
(lp907
I241
ag676
aa(lp908
I242
ag578
aa(lp909
I243
ag582
aa(lp910
I244
ag592
aaaa(lp911
I246
aI248
ag249
a(lp912
(lp913
I246
ag623
aa(lp914
I247
ag578
aa(lp915
I248
ag595
aaaa(lp916
I250
aI253
ag258
a(lp917
(lp918
I250
ag627
aa(lp919
I251
ag578
aa(lp920
I252
ag630
aa(lp921
I253
ag632
aaaa(lp922
I255
aI256
aS'in'
p923
a(lp924
(lp925
I255
ag597
aa(lp926
I256
ag600
aaaa(lp927
I258
aI261
ag267
a(lp928
(lp929
I258
ag700
aa(lp930
I259
ag702
aa(lp931
I260
ag702
aa(lp932
I261
ag696
aaaa(lp933
I264
aI265
aS'so'
p934
a(lp935
(lp936
I264
ag638
aa(lp937
I265
ag578
aaaa(lp938
I267
aI270
ag276
a(lp939
(lp940
I267
ag638
aa(lp941
I268
ag595
aa(lp942
I269
ag611
aa(lp943
I270
ag672
aaaa(lp944
I272
aI275
aS'with'
p945
a(lp946
(lp947
I272
ag642
aa(lp948
I273
ag597
aa(lp949
I274
ag595
aa(lp950
I275
ag623
aaaa(lp951
I277
aI278
ag285
a(lp952
(lp953
I277
ag580
aa(lp954
I278
ag638
aaaa(lp955
I281
aI290
ag294
a(lp956
(lp957
I281
ag592
aa(lp958
I282
ag613
aa(lp959
I283
ag592
aa(lp960
I284
ag582
aa(lp961
I285
ag672
aa(lp962
I286
ag595
aa(lp963
I287
ag623
aa(lp964
I288
ag597
aa(lp965
I289
ag600
aa(lp966
I290
aS'g'
p967
aaaa(lp968
I292
aI293
aS'of'
p969
a(lp970
(lp971
I292
ag578
aa(lp972
I293
ag606
aaaa(lp973
I295
aI297
aS'the'
p974
a(lp975
(lp976
I295
ag595
aa(lp977
I296
ag623
aa(lp978
I297
ag592
aaaa(lp979
I299
aI302
ag303
a(lp980
(lp981
I299
ag627
aa(lp982
I300
ag592
aa(lp983
I301
ag638
aa(lp984
I302
ag595
aaaa(lp985
I304
aI306
aS'for'
p986
a(lp987
(lp988
I304
ag606
aa(lp989
I305
ag578
aa(lp990
I306
ag582
aaaa(lp991
I308
aI309
aS'an'
p992
a(lp993
(lp994
I308
ag611
aa(lp995
I309
ag600
aaaa(lp996
I311
aI317
ag312
a(lp997
(lp998
I311
ag611
aa(lp999
I312
ag642
aa(lp1000
I313
ag592
aa(lp1001
I314
ag638
aa(lp1002
I315
ag578
aa(lp1003
I316
ag676
aa(lp1004
I317
ag592
aaaa(lp1005
I319
aI322
ag321
a(lp1006
(lp1007
I319
ag700
aa(lp1008
I320
ag702
aa(lp1009
I321
ag702
aa(lp1010
I322
ag696
aaaa(lp1011
I326
aI329
ag330
a(lp1012
(lp1013
I326
ag630
aa(lp1014
I327
ag611
aa(lp1015
I328
ag613
aa(lp1016
I329
ag592
aaaa(lp1017
I331
aI338
ag339
a(lp1018
(lp1019
I331
ag595
aa(lp1020
I332
ag582
aa(lp1021
I333
ag592
aa(lp1022
I334
ag611
aa(lp1023
I335
ag638
aa(lp1024
I336
ag580
aa(lp1025
I337
ag582
aa(lp1026
I338
ag592
aaaa(lp1027
I340
aI344
ag348
a(lp1028
(lp1029
I340
ag595
aa(lp1030
I341
ag582
aa(lp1031
I342
ag611
aa(lp1032
I343
ag597
aa(lp1033
I344
ag589
aaaa(lp1034
I346
aI349
aS'this'
p1035
a(lp1036
(lp1037
I346
ag595
aa(lp1038
I347
ag623
aa(lp1039
I348
ag597
aa(lp1040
I349
ag638
aaaa(lp1041
I351
aI355
ag357
a(lp1042
(lp1043
I351
ag672
aa(lp1044
I352
ag580
aa(lp1045
I353
ag676
aa(lp1046
I354
ag676
aa(lp1047
I355
ag672
aaaa(lp1048
I357
aI364
ag366
a(lp1049
(lp1050
I357
ag595
aa(lp1051
I358
ag582
aa(lp1052
I359
ag592
aa(lp1053
I360
ag611
aa(lp1054
I361
ag638
aa(lp1055
I362
ag580
aa(lp1056
I363
ag582
aa(lp1057
I364
ag592
aaaa(lp1058
I366
aI370
ag375
a(lp1059
(lp1060
I366
ag595
aa(lp1061
I367
ag582
aa(lp1062
I368
ag611
aa(lp1063
I369
ag597
aa(lp1064
I370
ag589
aaaa(lp1065
I372
aI372
ag597
a(lp1066
(lp1067
I372
ag597
aaaa(lp1068
I374
aI378
ag384
a(lp1069
(lp1070
I374
ag606
aa(lp1071
I375
ag578
aa(lp1072
I376
ag580
aa(lp1073
I377
ag600
aa(lp1074
I378
ag630
aaaa(lp1075
I380
aI381
aS'on'
p1076
a(lp1077
(lp1078
I380
ag578
aa(lp1079
I381
ag600
aaaa(lp1080
I383
aI383
ag611
a(lp1081
(lp1082
I383
ag611
aaaa(lp1083
I385
aI388
ag393
a(lp1084
(lp1085
I385
ag627
aa(lp1086
I386
ag589
aa(lp1087
I387
ag578
aa(lp1088
I388
ag967
aaaa(lp1089
I390
aI393
aS'that'
p1090
a(lp1091
(lp1092
I390
ag595
aa(lp1093
I391
ag623
aa(lp1094
I392
ag611
aa(lp1095
I393
ag595
aaaa(lp1096
I395
aI396
aS'is'
p1097
a(lp1098
(lp1099
I395
ag597
aa(lp1100
I396
ag638
aaaa(lp1101
I398
aI403
ag402
a(lp1102
(lp1103
I398
ag589
aa(lp1104
I399
ag597
aa(lp1105
I400
ag600
aa(lp1106
I401
ag657
aa(lp1107
I402
ag592
aa(lp1108
I403
ag630
aaaa(lp1109
I405
aI408
aS'here'
p1110
a(lp1111
(lp1112
I405
ag623
aa(lp1113
I406
ag592
aa(lp1114
I407
ag582
aa(lp1115
I408
ag592
aaaa(lp1116
I413
aI415
ag411
a(lp1117
(lp1118
I413
ag627
aa(lp1119
I414
ag578
aa(lp1120
I415
ag672
aaaa(lp1121
I417
aI419
ag420
a(lp1122
(lp1123
I417
ag627
aa(lp1124
I418
ag578
aa(lp1125
I419
aS'x'
p1126
aaaa(lp1127
I423
aI425
ag429
a(lp1128
(lp1129
I423
ag638
aa(lp1130
I424
ag592
aa(lp1131
I425
ag592
aaaa(lp1132
I427
aI429
aS'the'
p1133
a(lp1134
(lp1135
I427
ag595
aa(lp1136
I428
ag623
aa(lp1137
I429
ag592
aaaa(lp1138
I431
aI435
ag438
a(lp1139
(lp1140
I431
ag589
aa(lp1141
I432
ag597
aa(lp1142
I433
ag600
aa(lp1143
I434
ag657
aa(lp1144
I435
ag638
aaaa(lp1145
I437
aI438
aS'to'
p1146
a(lp1147
(lp1148
I437
ag595
aa(lp1149
I438
ag578
aaaa(lp1150
I440
aI444
aS'other'
p1151
a(lp1152
(lp1153
I440
ag578
aa(lp1154
I441
ag595
aa(lp1155
I442
ag623
aa(lp1156
I443
ag592
aa(lp1157
I444
ag582
aaaa(lp1158
I446
aI448
ag447
a(lp1159
(lp1160
I446
ag623
aa(lp1161
I447
ag578
aa(lp1162
I448
ag595
aaaa(lp1163
I450
aI454
ag456
a(lp1164
(lp1165
I450
ag638
aa(lp1166
I451
ag597
aa(lp1167
I452
ag595
aa(lp1168
I453
ag592
aa(lp1169
I454
ag638
aaaa(lp1170
I456
aI457
aS'we'
p1171
a(lp1172
(lp1173
I456
ag642
aa(lp1174
I457
ag592
aaaa(lp1175
I459
aI463
ag465
a(lp1176
(lp1177
I459
ag592
aa(lp1178
I460
ag600
aa(lp1179
I461
ag669
aa(lp1180
I462
ag578
aa(lp1181
I463
ag672
aaaa(lp1182
I465
aI466
aS'on'
p1183
a(lp1184
(lp1185
I465
ag578
aa(lp1186
I466
ag600
aaaa(lp1187
I468
aI470
aS'the'
p1188
a(lp1189
(lp1190
I468
ag595
aa(lp1191
I469
ag623
aa(lp1192
I470
ag592
aaaa(lp1193
I472
aI480
ag474
a(lp1194
(lp1195
I472
ag638
aa(lp1196
I473
ag597
aa(lp1197
I474
ag630
aa(lp1198
I475
ag592
aa(lp1199
I477
ag627
aa(lp1200
I478
ag589
aa(lp1201
I479
ag578
aa(lp1202
I480
ag967
aaaa(lp1203
I482
aI483
aS'to'
p1204
a(lp1205
(lp1206
I482
ag595
aa(lp1207
I483
ag578
aaaa(lp1208
I485
aI487
aS'the'
p1209
a(lp1210
(lp1211
I485
ag595
aa(lp1212
I486
ag623
aa(lp1213
I487
ag592
aaaa(lp1214
I489
aI493
ag483
a(lp1215
(lp1216
I489
ag582
aa(lp1217
I490
ag597
aa(lp1218
I491
ag967
aa(lp1219
I492
ag623
aa(lp1220
I493
ag595
aaaa(lp1221
I496
aI502
ag492
a(lp1222
(lp1223
I496
ag611
aa(lp1224
I497
ag600
aa(lp1225
I498
ag578
aa(lp1226
I499
ag595
aa(lp1227
I500
ag623
aa(lp1228
I501
ag592
aa(lp1229
I502
ag582
aaaa(lp1230
I504
aI506
ag501
a(lp1231
(lp1232
I504
ag600
aa(lp1233
I505
ag592
aa(lp1234
I506
ag642
aaaa(lp1235
I508
aI511
ag510
a(lp1236
(lp1237
I508
ag589
aa(lp1238
I509
ag597
aa(lp1239
I510
ag600
aa(lp1240
I511
ag657
aaaa(lp1241
I513
aI514
aS'is'
p1242
a(lp1243
(lp1244
I513
ag597
aa(lp1245
I514
ag638
aaaa(lp1246
I516
aI517
aS'to'
p1247
a(lp1248
(lp1249
I516
ag595
aa(lp1250
I517
ag578
aaaa(lp1251
I519
aI521
ag519
a(lp1252
(lp1253
I519
ag627
aa(lp1254
I520
ag611
aa(lp1255
I521
ag630
aaaa(lp1256
I523
aI527
ag528
a(lp1257
(lp1258
I523
ag829
aa(lp1259
I524
ag580
aa(lp1260
I525
ag829
aa(lp1261
I526
ag829
aa(lp1262
I527
ag672
aaaa(lp1263
I529
aI532
aS'with'
p1264
a(lp1265
(lp1266
I529
ag642
aa(lp1267
I530
ag597
aa(lp1268
I531
ag595
aa(lp1269
I532
ag623
aaaa(lp1270
I534
aI538
aS'their'
p1271
a(lp1272
(lp1273
I534
ag595
aa(lp1274
I535
ag623
aa(lp1275
I536
ag592
aa(lp1276
I537
ag597
aa(lp1277
I538
ag582
aaaa(lp1278
I540
aI548
ag537
a(lp1279
(lp1280
I540
ag638
aa(lp1281
I541
ag592
aa(lp1282
I542
ag589
aa(lp1283
I543
ag592
aa(lp1284
I544
ag586
aa(lp1285
I545
ag595
aa(lp1286
I546
ag597
aa(lp1287
I547
ag578
aa(lp1288
I548
ag600
aaaa(lp1289
I550
aI551
aS'of'
p1290
a(lp1291
(lp1292
I550
ag578
aa(lp1293
I551
ag606
aaaa(lp1294
I553
aI558
ag546
a(lp1295
(lp1296
I553
ag676
aa(lp1297
I554
ag578
aa(lp1298
I555
ag630
aa(lp1299
I556
ag592
aa(lp1300
I557
ag589
aa(lp1301
I558
ag638
aaaa(lp1302
I561
aI564
aS'most'
p1303
a(lp1304
(lp1305
I561
ag676
aa(lp1306
I562
ag578
aa(lp1307
I563
ag638
aa(lp1308
I564
ag595
aaaa(lp1309
I566
aI569
ag555
a(lp1310
(lp1311
I566
ag606
aa(lp1312
I567
ag582
aa(lp1313
I568
ag592
aa(lp1314
I569
ag592
aaaa(lp1315
I571
aI572
aS'to'
p1316
a(lp1317
(lp1318
I571
ag595
aa(lp1319
I572
ag578
aaaa(lp1320
I574
aI577
ag564
a(lp1321
(lp1322
I574
ag613
aa(lp1323
I575
ag597
aa(lp1324
I576
ag592
aa(lp1325
I577
ag642
aaaa(lp1326
I579
aI580
aS'as'
p1327
a(lp1328
(lp1329
I579
ag611
aa(lp1330
I580
ag638
aaaa(lp1331
I582
aI582
ag611
a(lp1332
(lp1333
I582
ag611
aaaasS'cleanCharacterMap'
p1334
(lp1335
g577
ag579
ag581
a(lp1336
I3
aS' '
p1337
aag585
ag587
ag588
ag590
ag591
ag593
ag594
ag596
ag598
ag599
a(lp1338
I14
ag1337
aag604
ag605
a(lp1339
I17
ag1337
aag609
ag610
ag612
ag614
ag615
ag616
ag617
ag618
ag619
a(lp1340
I27
ag1337
aag622
ag624
ag625
ag626
ag628
ag629
ag631
a(lp1341
I35
ag1337
aag636
ag637
a(lp1342
I38
ag1337
aag641
ag643
ag644
ag645
a(lp1343
I43
ag1337
aag649
ag650
a(lp1344
I46
ag1337
aag653
ag654
ag655
ag656
ag658
a(lp1345
I52
ag1337
aag662
ag663
a(lp1346
I55
ag1337
aag666
ag667
ag668
ag670
ag671
a(lp1347
I62
ag1337
aag675
ag677
ag678
ag679
ag680
ag681
a(lp1348
I70
ag1337
aag684
ag685
ag686
ag687
ag688
ag689
ag690
a(lp1349
I78
ag1337
aag693
ag695
a(lp1350
I82
ag1337
aag699
ag701
ag703
ag704
a(lp1351
I87
ag1337
aag707
ag708
ag709
ag710
ag711
a(lp1352
I93
ag1337
aag715
ag716
ag717
ag718
a(lp1353
I98
ag1337
aag721
ag722
ag723
ag724
a(lp1354
I103
ag1337
aag727
ag728
ag729
ag730
ag731
a(lp1355
I110
ag1337
aag735
ag736
a(lp1356
I113
ag1337
aag739
ag740
ag741
ag742
a(lp1357
I118
ag1337
aag746
ag747
a(lp1358
I121
ag1337
aag751
ag752
a(lp1359
I124
ag1337
aag755
ag756
ag757
ag758
ag759
a(lp1360
I130
ag1337
aag763
ag764
ag765
a(lp1361
I134
ag1337
aag769
ag770
a(lp1362
I137
ag1337
aag773
ag774
ag775
ag776
a(lp1363
I143
ag1337
aag780
ag781
ag782
ag783
ag784
ag785
a(lp1364
I150
ag1337
aag789
ag790
a(lp1365
I153
ag1337
aag794
ag795
ag796
a(lp1366
I157
ag1337
aag800
ag801
a(lp1367
I160
ag1337
aag805
ag806
ag807
a(lp1368
I164
ag1337
aag810
ag811
ag812
ag813
ag814
ag815
ag816
a(lp1369
I172
ag1337
aag820
ag821
ag822
a(lp1370
I176
ag1337
aag825
ag826
ag827
ag828
ag830
ag831
a(lp1371
I183
ag1337
aag834
ag835
a(lp1372
I186
ag1337
aag838
ag839
ag840
a(lp1373
I190
ag1337
aag844
ag845
ag846
a(lp1374
I194
ag1337
aag849
ag850
ag851
a(lp1375
I198
ag1337
aag854
ag855
ag856
a(lp1376
I202
ag1337
aag859
ag860
ag861
ag862
a(lp1377
I207
ag1337
aag866
ag867
ag868
ag869
a(lp1378
I212
ag1337
aag872
ag873
ag874
ag875
a(lp1379
I218
ag1337
aag879
ag880
a(lp1380
I221
ag1337
aag883
ag884
ag885
ag886
ag887
ag888
ag889
a(lp1381
I229
ag1337
aag893
ag894
ag895
a(lp1382
I233
ag1337
aag898
ag899
ag900
ag901
ag902
ag903
a(lp1383
I240
ag1337
aag907
ag908
ag909
ag910
a(lp1384
I245
ag1337
aag913
ag914
ag915
a(lp1385
I249
ag1337
aag918
ag919
ag920
ag921
a(lp1386
I254
ag1337
aag925
ag926
a(lp1387
I257
ag1337
aag929
ag930
ag931
ag932
a(lp1388
I263
ag1337
aag936
ag937
a(lp1389
I266
ag1337
aag940
ag941
ag942
ag943
a(lp1390
I271
ag1337
aag947
ag948
ag949
ag950
a(lp1391
I276
ag1337
aag953
ag954
a(lp1392
I280
ag1337
aag957
ag958
ag959
ag960
ag961
ag962
ag963
ag964
ag965
ag966
a(lp1393
I291
ag1337
aag971
ag972
a(lp1394
I294
ag1337
aag976
ag977
ag978
a(lp1395
I298
ag1337
aag981
ag982
ag983
ag984
a(lp1396
I303
ag1337
aag988
ag989
ag990
a(lp1397
I307
ag1337
aag994
ag995
a(lp1398
I310
ag1337
aag998
ag999
ag1000
ag1001
ag1002
ag1003
ag1004
a(lp1399
I318
ag1337
aag1007
ag1008
ag1009
ag1010
a(lp1400
I325
ag1337
aag1013
ag1014
ag1015
ag1016
a(lp1401
I330
ag1337
aag1019
ag1020
ag1021
ag1022
ag1023
ag1024
ag1025
ag1026
a(lp1402
I339
ag1337
aag1029
ag1030
ag1031
ag1032
ag1033
a(lp1403
I345
ag1337
aag1037
ag1038
ag1039
ag1040
a(lp1404
I350
ag1337
aag1043
ag1044
ag1045
ag1046
ag1047
a(lp1405
I356
ag1337
aag1050
ag1051
ag1052
ag1053
ag1054
ag1055
ag1056
ag1057
a(lp1406
I365
ag1337
aag1060
ag1061
ag1062
ag1063
ag1064
a(lp1407
I371
ag1337
aag1067
a(lp1408
I373
ag1337
aag1070
ag1071
ag1072
ag1073
ag1074
a(lp1409
I379
ag1337
aag1078
ag1079
a(lp1410
I382
ag1337
aag1082
a(lp1411
I384
ag1337
aag1085
ag1086
ag1087
ag1088
a(lp1412
I389
ag1337
aag1092
ag1093
ag1094
ag1095
a(lp1413
I394
ag1337
aag1099
ag1100
a(lp1414
I397
ag1337
aag1103
ag1104
ag1105
ag1106
ag1107
ag1108
a(lp1415
I404
ag1337
aag1112
ag1113
ag1114
ag1115
a(lp1416
I412
ag1337
aag1118
ag1119
ag1120
a(lp1417
I416
ag1337
aag1123
ag1124
ag1125
a(lp1418
I420
ag1337
aa(lp1419
I422
ag1337
aag1129
ag1130
ag1131
a(lp1420
I426
ag1337
aag1135
ag1136
ag1137
a(lp1421
I430
ag1337
aag1140
ag1141
ag1142
ag1143
ag1144
a(lp1422
I436
ag1337
aag1148
ag1149
a(lp1423
I439
ag1337
aag1153
ag1154
ag1155
ag1156
ag1157
a(lp1424
I445
ag1337
aag1160
ag1161
ag1162
a(lp1425
I449
ag1337
aag1165
ag1166
ag1167
ag1168
ag1169
a(lp1426
I455
ag1337
aag1173
ag1174
a(lp1427
I458
ag1337
aag1177
ag1178
ag1179
ag1180
ag1181
a(lp1428
I464
ag1337
aag1185
ag1186
a(lp1429
I467
ag1337
aag1190
ag1191
ag1192
a(lp1430
I471
ag1337
aag1195
ag1196
ag1197
ag1198
ag1199
ag1200
ag1201
ag1202
a(lp1431
I481
ag1337
aag1206
ag1207
a(lp1432
I484
ag1337
aag1211
ag1212
ag1213
a(lp1433
I488
ag1337
aag1216
ag1217
ag1218
ag1219
ag1220
a(lp1434
I495
ag1337
aag1223
ag1224
ag1225
ag1226
ag1227
ag1228
ag1229
a(lp1435
I503
ag1337
aag1232
ag1233
ag1234
a(lp1436
I507
ag1337
aag1237
ag1238
ag1239
ag1240
a(lp1437
I512
ag1337
aag1244
ag1245
a(lp1438
I515
ag1337
aag1249
ag1250
a(lp1439
I518
ag1337
aag1253
ag1254
ag1255
a(lp1440
I522
ag1337
aag1258
ag1259
ag1260
ag1261
ag1262
a(lp1441
I528
ag1337
aag1266
ag1267
ag1268
ag1269
a(lp1442
I533
ag1337
aag1273
ag1274
ag1275
ag1276
ag1277
a(lp1443
I539
ag1337
aag1280
ag1281
ag1282
ag1283
ag1284
ag1285
ag1286
ag1287
ag1288
a(lp1444
I549
ag1337
aag1292
ag1293
a(lp1445
I552
ag1337
aag1296
ag1297
ag1298
ag1299
ag1300
ag1301
a(lp1446
I560
ag1337
aag1305
ag1306
ag1307
ag1308
a(lp1447
I565
ag1337
aag1311
ag1312
ag1313
ag1314
a(lp1448
I570
ag1337
aag1318
ag1319
a(lp1449
I573
ag1337
aag1322
ag1323
ag1324
ag1325
a(lp1450
I578
ag1337
aag1329
ag1330
a(lp1451
I581
ag1337
aag1333
a(lp1452
I583
ag1337
aa(lp1453
I584
ag967
aa(lp1454
I585
ag580
aa(lp1455
I586
ag592
aa(lp1456
I587
ag638
aa(lp1457
I588
ag595
aasS'text'
p1458
S"our collection of favourite hotbodz as well as links we enjoy. monday, january 19, 2009 blast into 2009 here's to 2009 as we blast out of 2008. thanks to all of our readers who helped us top the 100 000 mark this year. we promise you plenty more hot bodz in 2009, so stay with us. everything of the best for an awesome 2009!! dave treasure trail this yummy treasure trail i found on a blog that is linked here... boy box - see the links to other hot sites we enjoy on the side-blog to the right. another new link is to bad puppy with their selection of models, most free to view as a guest."
p1459
sS'cleanWordMap'
p1460
(lp1461
g583
ag607
ag620
ag639
ag651
ag664
ag673
ag682
ag691
ag697
ag705
ag719
ag725
ag737
ag753
ag771
ag778
ag808
ag823
ag832
ag836
ag847
ag852
ag857
ag870
ag881
ag896
ag911
ag916
ag927
ag938
ag951
ag955
ag979
ag996
ag1005
ag1011
ag1017
ag1027
ag1041
ag1048
ag1058
ag1068
ag1083
ag1101
ag1116
ag1121
ag1127
ag1138
ag1158
ag1163
ag1175
ag1193
ag1214
ag1221
ag1230
ag1235
ag1251
ag1256
ag1278
ag1294
ag1309
ag1320
asS'lines'
p1462
(lp1463
VOur collection of favourite HotBodz as well as links we enjoy.\u000a
p1464
aVMonday, January 19, 2009\u000a
p1465
aVBlast into 2009\u000a
p1466
aVHere's to 2009 as we blast out of 2008. Thanks to all of our readers who helped us top the 100 000 mark this year. We promise you plenty more hot bodz in 2009, so stay with us. Everything of the best for an awesome 2009!! Dave\u000a
p1467
aVTreasure trail\u000a
p1468
aVThis yummy treasure trail I found on a blog that is linked here... Boy Box - see the links to other hot sites we enjoy on the side-blog to the right. Another new link is to Bad Puppy with their selection of models, most free to view as a guest.
p1469
asS'docType'
p1470
S'src'
p1471
sS'newfmap'
p1472
(lp1473
g4
ag8
ag10
ag12
ag14
ag17
ag19
ag21
ag23
ag26
ag28
ag30
ag32
ag35
ag37
ag39
ag41
ag44
ag46
ag48
ag50
ag53
ag55
ag57
ag59
ag62
ag64
ag66
ag68
ag71
ag73
ag75
ag77
ag80
ag82
ag84
ag86
ag89
ag91
ag93
ag95
ag98
ag100
ag102
ag104
ag107
ag109
ag111
ag113
ag116
ag118
ag120
ag122
ag125
ag127
ag129
ag131
ag134
ag136
ag138
ag140
ag143
ag145
ag147
ag149
ag152
ag154
ag156
ag158
ag161
ag163
ag165
ag167
ag170
ag172
ag174
ag176
ag179
ag181
ag183
ag185
ag188
ag190
ag192
ag194
ag197
ag199
ag201
ag203
ag206
ag208
ag210
ag212
ag215
ag217
ag219
ag221
ag224
ag226
ag228
ag230
ag233
ag235
ag237
ag239
ag242
ag244
ag246
ag248
ag251
ag253
ag255
ag257
ag260
ag262
ag264
ag266
ag269
ag271
ag273
ag275
ag278
ag280
ag282
ag284
ag287
ag289
ag291
ag293
ag296
ag298
ag300
ag302
ag305
ag307
ag309
ag311
ag314
ag316
ag318
ag320
ag323
ag325
ag327
ag329
ag332
ag334
ag336
ag338
ag341
ag343
ag345
ag347
ag350
ag352
ag354
ag356
ag359
ag361
ag363
ag365
ag368
ag370
ag372
ag374
ag377
ag379
ag381
ag383
ag386
ag388
ag390
ag392
ag395
ag397
ag399
ag401
ag404
ag406
ag408
ag410
ag413
ag415
ag417
ag419
ag422
ag424
ag426
ag428
ag431
ag433
ag435
ag437
ag440
ag442
ag444
ag446
ag449
ag451
ag453
ag455
ag458
ag460
ag462
ag464
ag467
ag469
ag471
ag473
ag476
ag478
ag480
ag482
ag485
ag487
ag489
ag491
ag494
ag496
ag498
ag500
ag503
ag505
ag507
ag509
ag512
ag514
ag516
ag518
ag521
ag523
ag525
ag527
ag530
ag532
ag534
ag536
ag539
ag541
ag543
ag545
ag548
ag550
ag552
ag554
ag557
ag559
ag561
ag563
ag566
ag568
ag570
asS'featureMap'
p1474
(lp1475
(lp1476
I4
aI13
ag5
ag6
ag9
ag11
ag13
aa(lp1477
I18
aI26
ag15
ag16
ag18
ag20
ag22
aa(lp1478
I28
aI34
ag24
ag25
ag27
ag29
ag31
aa(lp1479
I39
aI42
ag33
ag34
ag36
ag38
ag40
aa(lp1480
I47
aI51
ag42
ag43
ag45
ag47
ag49
aa(lp1481
I56
aI60
ag51
ag52
ag54
ag56
ag58
aa(lp1482
I63
aI68
ag60
ag61
ag63
ag65
ag67
aa(lp1483
I71
aI77
ag69
ag70
ag72
ag74
ag76
aa(lp1484
I79
aI80
ag78
ag79
ag81
ag83
ag85
aa(lp1485
I83
aI86
ag87
ag88
ag90
ag92
ag94
aa(lp1486
I88
aI92
ag96
ag97
ag99
ag101
ag103
aa(lp1487
I99
aI102
ag105
ag106
ag108
ag110
ag112
aa(lp1488
I104
aI109
ag114
ag115
ag117
ag119
ag121
aa(lp1489
I114
aI117
ag123
ag124
ag126
ag128
ag130
aa(lp1490
I125
aI129
ag132
ag133
ag135
ag137
ag139
aa(lp1491
I138
aI141
ag141
ag142
ag144
ag146
ag148
aa(lp1492
I144
aI149
ag150
ag151
ag153
ag155
ag157
aa(lp1493
I165
aI171
ag159
ag160
ag162
ag164
ag166
aa(lp1494
I177
aI182
ag168
ag169
ag171
ag173
ag175
aa(lp1495
I184
aI185
ag177
ag178
ag180
ag182
ag184
aa(lp1496
I187
aI189
ag186
ag187
ag189
ag191
ag193
aa(lp1497
I195
aI197
ag195
ag196
ag198
ag200
ag202
aa(lp1498
I199
aI201
ag204
ag205
ag207
ag209
ag211
aa(lp1499
I203
aI206
ag213
ag214
ag216
ag218
ag220
aa(lp1500
I213
aI216
ag222
ag223
ag225
ag227
ag229
aa(lp1501
I222
aI228
ag231
ag232
ag234
ag236
ag238
aa(lp1502
I234
aI239
ag240
ag241
ag243
ag245
ag247
aa(lp1503
I246
aI248
ag249
ag250
ag252
ag254
ag256
aa(lp1504
I250
aI253
ag258
ag259
ag261
ag263
ag265
aa(lp1505
I258
aI261
ag267
ag268
ag270
ag272
ag274
aa(lp1506
I267
aI270
ag276
ag277
ag279
ag281
ag283
aa(lp1507
I277
aI278
ag285
ag286
ag288
ag290
ag292
aa(lp1508
I281
aI290
ag294
ag295
ag297
ag299
ag301
aa(lp1509
I299
aI302
ag303
ag304
ag306
ag308
ag310
aa(lp1510
I311
aI317
ag312
ag313
ag315
ag317
ag319
aa(lp1511
I319
aI322
ag321
ag322
ag324
ag326
ag328
aa(lp1512
I326
aI329
ag330
ag331
ag333
ag335
ag337
aa(lp1513
I331
aI338
ag339
ag340
ag342
ag344
ag346
aa(lp1514
I340
aI344
ag348
ag349
ag351
ag353
ag355
aa(lp1515
I351
aI355
ag357
ag358
ag360
ag362
ag364
aa(lp1516
I357
aI364
ag366
ag367
ag369
ag371
ag373
aa(lp1517
I366
aI370
ag375
ag376
ag378
ag380
ag382
aa(lp1518
I374
aI378
ag384
ag385
ag387
ag389
ag391
aa(lp1519
I385
aI388
ag393
ag394
ag396
ag398
ag400
aa(lp1520
I398
aI403
ag402
ag403
ag405
ag407
ag409
aa(lp1521
I413
aI415
ag411
ag412
ag414
ag416
ag418
aa(lp1522
I417
aI419
ag420
ag421
ag423
ag425
ag427
aa(lp1523
I423
aI425
ag429
ag430
ag432
ag434
ag436
aa(lp1524
I431
aI435
ag438
ag439
ag441
ag443
ag445
aa(lp1525
I446
aI448
ag447
ag448
ag450
ag452
ag454
aa(lp1526
I450
aI454
ag456
ag457
ag459
ag461
ag463
aa(lp1527
I459
aI463
ag465
ag466
ag468
ag470
ag472
aa(lp1528
I472
aI480
ag474
ag475
ag477
ag479
ag481
aa(lp1529
I489
aI493
ag483
ag484
ag486
ag488
ag490
aa(lp1530
I496
aI502
ag492
ag493
ag495
ag497
ag499
aa(lp1531
I504
aI506
ag501
ag502
ag504
ag506
ag508
aa(lp1532
I508
aI511
ag510
ag511
ag513
ag515
ag517
aa(lp1533
I519
aI521
ag519
ag520
ag522
ag524
ag526
aa(lp1534
I523
aI527
ag528
ag529
ag531
ag533
ag535
aa(lp1535
I540
aI548
ag537
ag538
ag540
ag542
ag544
aa(lp1536
I553
aI558
ag546
ag547
ag549
ag551
ag553
aa(lp1537
I566
aI569
ag555
ag556
ag558
ag560
ag562
aa(lp1538
I574
aI577
ag564
ag565
ag567
ag569
ag571
aasS'characterMap'
p1539
(lp1540
g577
ag579
ag581
ag1336
ag585
ag587
ag588
ag590
ag591
ag593
ag594
ag596
ag598
ag599
ag1338
ag604
ag605
ag1339
ag609
ag610
ag612
ag614
ag615
ag616
ag617
ag618
ag619
ag1340
ag622
ag624
ag625
ag626
ag628
ag629
ag631
ag1341
ag636
ag637
ag1342
ag641
ag643
ag644
ag645
ag1343
ag649
ag650
ag1344
ag653
ag654
ag655
ag656
ag658
ag1345
ag662
ag663
ag1346
ag666
ag667
ag668
ag670
ag671
a(lp1541
I61
aS'.'
p1542
aag1347
ag675
ag677
ag678
ag679
ag680
ag681
a(lp1543
I69
aS','
p1544
aag1348
ag684
ag685
ag686
ag687
ag688
ag689
ag690
ag1349
ag693
ag695
a(lp1545
I81
ag1544
aag1350
ag699
ag701
ag703
ag704
ag1351
ag707
ag708
ag709
ag710
ag711
ag1352
ag715
ag716
ag717
ag718
ag1353
ag721
ag722
ag723
ag724
ag1354
ag727
ag728
ag729
ag730
a(lp1546
I108
aS"'"
p1547
aag731
ag1355
ag735
ag736
ag1356
ag739
ag740
ag741
ag742
ag1357
ag746
ag747
ag1358
ag751
ag752
ag1359
ag755
ag756
ag757
ag758
ag759
ag1360
ag763
ag764
ag765
ag1361
ag769
ag770
ag1362
ag773
ag774
ag775
ag776
a(lp1548
I142
ag1542
aag1363
ag780
ag781
ag782
ag783
ag784
ag785
ag1364
ag789
ag790
ag1365
ag794
ag795
ag796
ag1366
ag800
ag801
ag1367
ag805
ag806
ag807
ag1368
ag810
ag811
ag812
ag813
ag814
ag815
ag816
ag1369
ag820
ag821
ag822
ag1370
ag825
ag826
ag827
ag828
ag830
ag831
ag1371
ag834
ag835
ag1372
ag838
ag839
ag840
ag1373
ag844
ag845
ag846
ag1374
ag849
ag850
ag851
ag1375
ag854
ag855
ag856
ag1376
ag859
ag860
ag861
ag862
ag1377
ag866
ag867
ag868
ag869
ag1378
ag872
ag873
ag874
ag875
a(lp1549
I217
ag1542
aag1379
ag879
ag880
ag1380
ag883
ag884
ag885
ag886
ag887
ag888
ag889
ag1381
ag893
ag894
ag895
ag1382
ag898
ag899
ag900
ag901
ag902
ag903
ag1383
ag907
ag908
ag909
ag910
ag1384
ag913
ag914
ag915
ag1385
ag918
ag919
ag920
ag921
ag1386
ag925
ag926
ag1387
ag929
ag930
ag931
ag932
a(lp1550
I262
ag1544
aag1388
ag936
ag937
ag1389
ag940
ag941
ag942
ag943
ag1390
ag947
ag948
ag949
ag950
ag1391
ag953
ag954
a(lp1551
I279
ag1542
aag1392
ag957
ag958
ag959
ag960
ag961
ag962
ag963
ag964
ag965
ag966
ag1393
ag971
ag972
ag1394
ag976
ag977
ag978
ag1395
ag981
ag982
ag983
ag984
ag1396
ag988
ag989
ag990
ag1397
ag994
ag995
ag1398
ag998
ag999
ag1000
ag1001
ag1002
ag1003
ag1004
ag1399
ag1007
ag1008
ag1009
ag1010
a(lp1552
I323
aS'!'
p1553
aa(lp1554
I324
ag1553
aag1400
ag1013
ag1014
ag1015
ag1016
ag1401
ag1019
ag1020
ag1021
ag1022
ag1023
ag1024
ag1025
ag1026
ag1402
ag1029
ag1030
ag1031
ag1032
ag1033
ag1403
ag1037
ag1038
ag1039
ag1040
ag1404
ag1043
ag1044
ag1045
ag1046
ag1047
ag1405
ag1050
ag1051
ag1052
ag1053
ag1054
ag1055
ag1056
ag1057
ag1406
ag1060
ag1061
ag1062
ag1063
ag1064
ag1407
ag1067
ag1408
ag1070
ag1071
ag1072
ag1073
ag1074
ag1409
ag1078
ag1079
ag1410
ag1082
ag1411
ag1085
ag1086
ag1087
ag1088
ag1412
ag1092
ag1093
ag1094
ag1095
ag1413
ag1099
ag1100
ag1414
ag1103
ag1104
ag1105
ag1106
ag1107
ag1108
ag1415
ag1112
ag1113
ag1114
ag1115
a(lp1555
I409
ag1542
aa(lp1556
I410
ag1542
aa(lp1557
I411
ag1542
aag1416
ag1118
ag1119
ag1120
ag1417
ag1123
ag1124
ag1125
ag1418
a(lp1558
I421
aS'-'
p1559
aag1419
ag1129
ag1130
ag1131
ag1420
ag1135
ag1136
ag1137
ag1421
ag1140
ag1141
ag1142
ag1143
ag1144
ag1422
ag1148
ag1149
ag1423
ag1153
ag1154
ag1155
ag1156
ag1157
ag1424
ag1160
ag1161
ag1162
ag1425
ag1165
ag1166
ag1167
ag1168
ag1169
ag1426
ag1173
ag1174
ag1427
ag1177
ag1178
ag1179
ag1180
ag1181
ag1428
ag1185
ag1186
ag1429
ag1190
ag1191
ag1192
ag1430
ag1195
ag1196
ag1197
ag1198
a(lp1560
I476
ag1559
aag1199
ag1200
ag1201
ag1202
ag1431
ag1206
ag1207
ag1432
ag1211
ag1212
ag1213
ag1433
ag1216
ag1217
ag1218
ag1219
ag1220
a(lp1561
I494
ag1542
aag1434
ag1223
ag1224
ag1225
ag1226
ag1227
ag1228
ag1229
ag1435
ag1232
ag1233
ag1234
ag1436
ag1237
ag1238
ag1239
ag1240
ag1437
ag1244
ag1245
ag1438
ag1249
ag1250
ag1439
ag1253
ag1254
ag1255
ag1440
ag1258
ag1259
ag1260
ag1261
ag1262
ag1441
ag1266
ag1267
ag1268
ag1269
ag1442
ag1273
ag1274
ag1275
ag1276
ag1277
ag1443
ag1280
ag1281
ag1282
ag1283
ag1284
ag1285
ag1286
ag1287
ag1288
ag1444
ag1292
ag1293
ag1445
ag1296
ag1297
ag1298
ag1299
ag1300
ag1301
a(lp1562
I559
ag1544
aag1446
ag1305
ag1306
ag1307
ag1308
ag1447
ag1311
ag1312
ag1313
ag1314
ag1448
ag1318
ag1319
ag1449
ag1322
ag1323
ag1324
ag1325
ag1450
ag1329
ag1330
ag1451
ag1333
ag1452
ag1453
ag1454
ag1455
ag1456
ag1457
a(lp1563
I589
ag1542
aasS'docName'
p1564
S'source-document00757.txt'
p1565
sb.