(iModel.Document
Document
p0
(dp1
S'fmap'
p2
(lp3
(lp4
I0
aI2
aS'hot'
p5
a(lp6
S'*'
p7
ag5
aaa(lp8
I0
aI2
ag5
a(lp9
g7
ag5
aaa(lp10
I0
aI2
ag5
a(lp11
g7
ag5
aaa(lp12
I0
aI2
ag5
a(lp13
g7
ag5
aaa(lp14
I4
aI10
aS'summers'
p15
a(lp16
g5
ag15
aaa(lp17
I4
aI10
ag15
a(lp18
g7
ag15
aaa(lp19
I4
aI10
ag15
a(lp20
g7
ag15
aaa(lp21
I4
aI10
ag15
a(lp22
g7
ag15
aaa(lp23
I13
aI17
aS'harsh'
p24
a(lp25
g15
ag24
aaa(lp26
I13
aI17
ag24
a(lp27
g5
ag24
aaa(lp28
I13
aI17
ag24
a(lp29
g7
ag24
aaa(lp30
I13
aI17
ag24
a(lp31
g7
ag24
aaa(lp32
I20
aI23
aS'cold'
p33
a(lp34
g24
ag33
aaa(lp35
I20
aI23
ag33
a(lp36
g15
ag33
aaa(lp37
I20
aI23
ag33
a(lp38
g5
ag33
aaa(lp39
I20
aI23
ag33
a(lp40
g7
ag33
aaa(lp41
I25
aI31
aS'winters'
p42
a(lp43
g33
ag42
aaa(lp44
I25
aI31
ag42
a(lp45
g24
ag42
aaa(lp46
I25
aI31
ag42
a(lp47
g15
ag42
aaa(lp48
I25
aI31
ag42
a(lp49
g5
ag42
aaa(lp50
I33
aI38
aS'plains'
p51
a(lp52
g42
ag51
aaa(lp53
I33
aI38
ag51
a(lp54
g33
ag51
aaa(lp55
I33
aI38
ag51
a(lp56
g24
ag51
aaa(lp57
I33
aI38
ag51
a(lp58
g15
ag51
aaa(lp59
I41
aI48
aS'prairies'
p60
a(lp61
g51
ag60
aaa(lp62
I41
aI48
ag60
a(lp63
g42
ag60
aaa(lp64
I41
aI48
ag60
a(lp65
g33
ag60
aaa(lp66
I41
aI48
ag60
a(lp67
g24
ag60
aaa(lp68
I51
aI57
aS'rolling'
p69
a(lp70
g60
ag69
aaa(lp71
I51
aI57
ag69
a(lp72
g51
ag69
aaa(lp73
I51
aI57
ag69
a(lp74
g42
ag69
aaa(lp75
I51
aI57
ag69
a(lp76
g33
ag69
aaa(lp77
I59
aI63
aS'hills'
p78
a(lp79
g69
ag78
aaa(lp80
I59
aI63
ag78
a(lp81
g60
ag78
aaa(lp82
I59
aI63
ag78
a(lp83
g51
ag78
aaa(lp84
I59
aI63
ag78
a(lp85
g42
ag78
aaa(lp86
I74
aI80
aS'grasses'
p87
a(lp88
g78
ag87
aaa(lp89
I74
aI80
ag87
a(lp90
g69
ag87
aaa(lp91
I74
aI80
ag87
a(lp92
g60
ag87
aaa(lp93
I74
aI80
ag87
a(lp94
g51
ag87
aaa(lp95
I87
aI91
aS'sioux'
p96
a(lp97
g87
ag96
aaa(lp98
I87
aI91
ag96
a(lp99
g78
ag96
aaa(lp100
I87
aI91
ag96
a(lp101
g69
ag96
aaa(lp102
I87
aI91
ag96
a(lp103
g60
ag96
aaa(lp104
I93
aI97
aS'moved'
p105
a(lp106
g96
ag105
aaa(lp107
I93
aI97
ag105
a(lp108
g87
ag105
aaa(lp109
I93
aI97
ag105
a(lp110
g78
ag105
aaa(lp111
I93
aI97
ag105
a(lp112
g69
ag105
aaa(lp113
I99
aI104
aS'around'
p114
a(lp115
g105
ag114
aaa(lp116
I99
aI104
ag114
a(lp117
g96
ag114
aaa(lp118
I99
aI104
ag114
a(lp119
g87
ag114
aaa(lp120
I99
aI104
ag114
a(lp121
g78
ag114
aaa(lp122
I110
aI115
aS'region'
p123
a(lp124
g114
ag123
aaa(lp125
I110
aI115
ag123
a(lp126
g105
ag123
aaa(lp127
I110
aI115
ag123
a(lp128
g96
ag123
aaa(lp129
I110
aI115
ag123
a(lp130
g87
ag123
aaa(lp131
I120
aI123
aS'hunt'
p132
a(lp133
g123
ag132
aaa(lp134
I120
aI123
ag132
a(lp135
g114
ag132
aaa(lp136
I120
aI123
ag132
a(lp137
g105
ag132
aaa(lp138
I120
aI123
ag132
a(lp139
g96
ag132
aaa(lp140
I129
aI135
aS'buffalo'
p141
a(lp142
g132
ag141
aaa(lp143
I129
aI135
ag141
a(lp144
g123
ag141
aaa(lp145
I129
aI135
ag141
a(lp146
g114
ag141
aaa(lp147
I129
aI135
ag141
a(lp148
g105
ag141
aaa(lp149
I143
aI146
aS'used'
p150
a(lp151
g141
ag150
aaa(lp152
I143
aI146
ag150
a(lp153
g132
ag150
aaa(lp154
I143
aI146
ag150
a(lp155
g123
ag150
aaa(lp156
I143
aI146
ag150
a(lp157
g114
ag150
aaa(lp158
I148
aI153
aS'horses'
p159
a(lp160
g150
ag159
aaa(lp161
I148
aI153
ag159
a(lp162
g141
ag159
aaa(lp163
I148
aI153
ag159
a(lp164
g132
ag159
aaa(lp165
I148
aI153
ag159
a(lp166
g123
ag159
aaa(lp167
I158
aI160
aS'get'
p168
a(lp169
g159
ag168
aaa(lp170
I158
aI160
ag168
a(lp171
g150
ag168
aaa(lp172
I158
aI160
ag168
a(lp173
g141
ag168
aaa(lp174
I158
aI160
ag168
a(lp175
g132
ag168
aaa(lp176
I162
aI167
aS'places'
p177
a(lp178
g168
ag177
aaa(lp179
I162
aI167
ag177
a(lp180
g159
ag177
aaa(lp181
I162
aI167
ag177
a(lp182
g150
ag177
aaa(lp183
I162
aI167
ag177
a(lp184
g141
ag177
aaa(lp185
I170
aI178
aS'southwest'
p186
a(lp187
g177
ag186
aaa(lp188
I170
aI178
ag186
a(lp189
g168
ag186
aaa(lp190
I170
aI178
ag186
a(lp191
g159
ag186
aaa(lp192
I170
aI178
ag186
a(lp193
g150
ag186
aaa(lp194
I180
aI184
aS'adobe'
p195
a(lp196
g186
ag195
aaa(lp197
I180
aI184
ag195
a(lp198
g177
ag195
aaa(lp199
I180
aI184
ag195
a(lp200
g168
ag195
aaa(lp201
I180
aI184
ag195
a(lp202
g159
ag195
aaa(lp203
I189
aI192
aS'clay'
p204
a(lp205
g195
ag204
aaa(lp206
I189
aI192
ag204
a(lp207
g186
ag204
aaa(lp208
I189
aI192
ag204
a(lp209
g177
ag204
aaa(lp210
I189
aI192
ag204
a(lp211
g168
ag204
aaa(lp212
I194
aI199
aS'houses'
p213
a(lp214
g204
ag213
aaa(lp215
I194
aI199
ag213
a(lp216
g195
ag213
aaa(lp217
I194
aI199
ag213
a(lp218
g186
ag213
aaa(lp219
I194
aI199
ag213
a(lp220
g177
ag213
aaa(lp221
I220
aI220
aS'1'
p222
a(lp223
g213
ag222
aaa(lp224
I220
aI220
ag222
a(lp225
g204
ag222
aaa(lp226
I220
aI220
ag222
a(lp227
g195
ag222
aaa(lp228
I220
aI220
ag222
a(lp229
g186
ag222
aaa(lp230
I222
aI226
aS'story'
p231
a(lp232
g222
ag231
aaa(lp233
I222
aI226
ag231
a(lp234
g213
ag231
aaa(lp235
I222
aI226
ag231
a(lp236
g204
ag231
aaa(lp237
I222
aI226
ag231
a(lp238
g195
ag231
aaa(lp239
I228
aI233
aS'walked'
p240
a(lp241
g231
ag240
aaa(lp242
I228
aI233
ag240
a(lp243
g222
ag240
aaa(lp244
I228
aI233
ag240
a(lp245
g213
ag240
aaa(lp246
I228
aI233
ag240
a(lp247
g204
ag240
aaa(lp248
I235
aI237
aS'hot'
p249
a(lp250
g240
ag249
aaa(lp251
I235
aI237
ag249
a(lp252
g231
ag249
aaa(lp253
I235
aI237
ag249
a(lp254
g222
ag249
aaa(lp255
I235
aI237
ag249
a(lp256
g213
ag249
aaa(lp257
I239
aI242
aS'days'
p258
a(lp259
g249
ag258
aaa(lp260
I239
aI242
ag258
a(lp261
g240
ag258
aaa(lp262
I239
aI242
ag258
a(lp263
g231
ag258
aaa(lp264
I239
aI242
ag258
a(lp265
g222
ag258
aaa(lp266
I245
aI248
aS'cold'
p267
a(lp268
g258
ag267
aaa(lp269
I245
aI248
ag267
a(lp270
g249
ag267
aaa(lp271
I245
aI248
ag267
a(lp272
g240
ag267
aaa(lp273
I245
aI248
ag267
a(lp274
g231
ag267
aaa(lp275
I250
aI255
aS'nights'
p276
a(lp277
g267
ag276
aaa(lp278
I250
aI255
ag276
a(lp279
g258
ag276
aaa(lp280
I250
aI255
ag276
a(lp281
g249
ag276
aaa(lp282
I250
aI255
ag276
a(lp283
g240
ag276
aaa(lp284
I258
aI263
aS'little'
p285
a(lp286
g276
ag285
aaa(lp287
I258
aI263
ag285
a(lp288
g267
ag285
aaa(lp289
I258
aI263
ag285
a(lp290
g258
ag285
aaa(lp291
I258
aI263
ag285
a(lp292
g249
ag285
aaa(lp293
I265
aI272
aS'rainfall'
p294
a(lp295
g285
ag294
aaa(lp296
I265
aI272
ag294
a(lp297
g276
ag294
aaa(lp298
I265
aI272
ag294
a(lp299
g267
ag294
aaa(lp300
I265
aI272
ag294
a(lp301
g258
ag294
aaa(lp302
I274
aI277
aS'high'
p303
a(lp304
g294
ag303
aaa(lp305
I274
aI277
ag303
a(lp306
g285
ag303
aaa(lp307
I274
aI277
ag303
a(lp308
g276
ag303
aaa(lp309
I274
aI277
ag303
a(lp310
g267
ag303
aaa(lp311
I279
aI287
aS'flatlands'
p312
a(lp313
g303
ag312
aaa(lp314
I279
aI287
ag312
a(lp315
g294
ag312
aaa(lp316
I279
aI287
ag312
a(lp317
g285
ag312
aaa(lp318
I279
aI287
ag312
a(lp319
g276
ag312
aaa(lp320
I289
aI294
aS'cactus'
p321
a(lp322
g312
ag321
aaa(lp323
I289
aI294
ag321
a(lp324
g303
ag321
aaa(lp325
I289
aI294
ag321
a(lp326
g294
ag321
aaa(lp327
I289
aI294
ag321
a(lp328
g285
ag321
aaa(lp329
I304
aI307
aS'main'
p330
a(lp331
g321
ag330
aaa(lp332
I304
aI307
ag330
a(lp333
g312
ag330
aaa(lp334
I304
aI307
ag330
a(lp335
g303
ag330
aaa(lp336
I304
aI307
ag330
a(lp337
g294
ag330
aaa(lp338
I309
aI313
aS'plant'
p339
a(lp340
g330
ag339
aaa(lp341
I309
aI313
ag339
a(lp342
g321
ag339
aaa(lp343
I309
aI313
ag339
a(lp344
g312
ag339
aaa(lp345
I309
aI313
ag339
a(lp346
g303
ag339
aaa(lp347
I321
aI326
aS'farmed'
p348
a(lp349
g339
ag348
aaa(lp350
I321
aI326
ag348
a(lp351
g330
ag348
aaa(lp352
I321
aI326
ag348
a(lp353
g321
ag348
aaa(lp354
I321
aI326
ag348
a(lp355
g312
ag348
aaa(lp356
I332
aI335
aS'land'
p357
a(lp358
g348
ag357
aaa(lp359
I332
aI335
ag357
a(lp360
g339
ag357
aaa(lp361
I332
aI335
ag357
a(lp362
g330
ag357
aaa(lp363
I332
aI335
ag357
a(lp364
g321
ag357
aaa(lp365
I343
aI347
aS'lived'
p366
a(lp367
g357
ag366
aaa(lp368
I343
aI347
ag366
a(lp369
g348
ag366
aaa(lp370
I343
aI347
ag366
a(lp371
g339
ag366
aaa(lp372
I343
aI347
ag366
a(lp373
g330
ag366
aaa(lp374
I352
aI359
aS'villages'
p375
a(lp376
g366
ag375
aaa(lp377
I352
aI359
ag375
a(lp378
g357
ag375
aaa(lp379
I352
aI359
ag375
a(lp380
g348
ag375
aaa(lp381
I352
aI359
ag375
a(lp382
g339
ag375
aaa(lp383
I364
aI368
aS'adobe'
p384
a(lp385
g375
ag384
aaa(lp386
I364
aI368
ag384
a(lp387
g366
ag384
aaa(lp388
I364
aI368
ag384
a(lp389
g357
ag384
aaa(lp390
I364
aI368
ag384
a(lp391
g348
ag384
aaa(lp392
I373
aI376
aS'clay'
p393
a(lp394
g384
ag393
aaa(lp395
I373
aI376
ag393
a(lp396
g375
ag393
aaa(lp397
I373
aI376
ag393
a(lp398
g366
ag393
aaa(lp399
I373
aI376
ag393
a(lp400
g357
ag393
aaa(lp401
I378
aI383
aS'houses'
p402
a(lp403
g393
ag402
aaa(lp404
I378
aI383
ag402
a(lp405
g384
ag402
aaa(lp406
I378
aI383
ag402
a(lp407
g375
ag402
aaa(lp408
I378
aI383
ag402
a(lp409
g366
ag402
aaa(lp410
I386
aI389
aS'take'
p411
a(lp412
g402
ag411
aaa(lp413
I386
aI389
ag411
a(lp414
g393
ag411
aaa(lp415
I386
aI389
ag411
a(lp416
g384
ag411
aaa(lp417
I386
aI389
ag411
a(lp418
g375
ag411
aaa(lp419
I393
aI396
aS'look'
p420
a(lp421
g411
ag420
aaa(lp422
I393
aI396
ag420
a(lp423
g402
ag420
aaa(lp424
I393
aI396
ag420
a(lp425
g393
ag420
aaa(lp426
I393
aI396
ag420
a(lp427
g384
ag420
aaa(lp428
I406
aI410
aS'great'
p429
a(lp430
g420
ag429
aaa(lp431
I406
aI410
ag429
a(lp432
g411
ag429
aaa(lp433
I406
aI410
ag429
a(lp434
g402
ag429
aaa(lp435
I406
aI410
ag429
a(lp436
g393
ag429
aaa(lp437
I412
aI418
aS'webpage'
p438
a(lp439
g429
ag438
aaa(lp440
I412
aI418
ag438
a(lp441
g420
ag438
aaa(lp442
I412
aI418
ag438
a(lp443
g411
ag438
aaa(lp444
I412
aI418
ag438
a(lp445
g402
ag438
aaa(lp446
I423
aI428
aS'native'
p447
a(lp448
g438
ag447
aaa(lp449
I423
aI428
ag447
a(lp450
g429
ag447
aaa(lp451
I423
aI428
ag447
a(lp452
g420
ag447
aaa(lp453
I423
aI428
ag447
a(lp454
g411
ag447
aaa(lp455
I430
aI437
aS'american'
p456
a(lp457
g447
ag456
aaa(lp458
I430
aI437
ag456
a(lp459
g438
ag456
aaa(lp460
I430
aI437
ag456
a(lp461
g429
ag456
aaa(lp462
I430
aI437
ag456
a(lp463
g420
ag456
aaa(lp464
I439
aI444
aS'tribes'
p465
a(lp466
g456
ag465
aaa(lp467
I439
aI444
ag465
a(lp468
g447
ag465
aaa(lp469
I439
aI444
ag465
a(lp470
g438
ag465
aaa(lp471
I439
aI444
ag465
a(lp472
g429
ag465
aaa(lp473
I455
aI458
aS'made'
p474
a(lp475
g465
ag474
aaa(lp476
I455
aI458
ag474
a(lp477
g456
ag474
aaa(lp478
I455
aI458
ag474
a(lp479
g447
ag474
aaa(lp480
I455
aI458
ag474
a(lp481
g438
ag474
aaa(lp482
I469
aI476
aS'students'
p483
a(lp484
g474
ag483
aaa(lp485
I469
aI476
ag483
a(lp486
g465
ag483
aaa(lp487
I469
aI476
ag483
a(lp488
g456
ag483
aaa(lp489
I469
aI476
ag483
a(lp490
g447
ag483
aaa(lp491
I484
aI492
aS'beautiful'
p492
a(lp493
g483
ag492
aaa(lp494
I484
aI492
ag492
a(lp495
g474
ag492
aaa(lp496
I484
aI492
ag492
a(lp497
g465
ag492
aaa(lp498
I484
aI492
ag492
a(lp499
g456
ag492
aaa(lp500
I494
aI500
aS'artwork'
p501
a(lp502
g492
ag501
aaa(lp503
I494
aI500
ag501
a(lp504
g483
ag501
aaa(lp505
I494
aI500
ag501
a(lp506
g474
ag501
aaa(lp507
I494
aI500
ag501
a(lp508
g465
ag501
aaa(lp509
I502
aI505
aS'made'
p510
a(lp511
g501
ag510
aaa(lp512
I502
aI505
ag510
a(lp513
g492
ag510
aaa(lp514
I502
aI505
ag510
a(lp515
g483
ag510
aaa(lp516
I502
aI505
ag510
a(lp517
g474
ag510
aaa(lp518
I512
aI514
aS'2nd'
p519
a(lp520
g510
ag519
aaa(lp521
I512
aI514
ag519
a(lp522
g501
ag519
aaa(lp523
I512
aI514
ag519
a(lp524
g492
ag519
aaa(lp525
I512
aI514
ag519
a(lp526
g483
ag519
aaa(lp527
I516
aI521
aS'grader'
p528
a(lp529
g519
ag528
aaa(lp530
I516
aI521
ag528
a(lp531
g510
ag528
aaa(lp532
I516
aI521
ag528
a(lp533
g501
ag528
aaa(lp534
I516
aI521
ag528
a(lp535
g492
ag528
aaa(lp536
I528
aI535
aS'compares'
p537
a(lp538
g528
ag537
aaa(lp539
I528
aI535
ag537
a(lp540
g519
ag537
aaa(lp541
I528
aI535
ag537
a(lp542
g510
ag537
aaa(lp543
I528
aI535
ag537
a(lp544
g501
ag537
aaa(lp545
I537
aI542
aS'native'
p546
a(lp547
g537
ag546
aaa(lp548
I537
aI542
ag546
a(lp549
g528
ag546
aaa(lp550
I537
aI542
ag546
a(lp551
g519
ag546
aaa(lp552
I537
aI542
ag546
a(lp553
g510
ag546
aaa(lp554
I544
aI551
aS'american'
p555
a(lp556
g546
ag555
aaa(lp557
I544
aI551
ag555
a(lp558
g537
ag555
aaa(lp559
I544
aI551
ag555
a(lp560
g528
ag555
aaa(lp561
I544
aI551
ag555
a(lp562
g519
ag555
aaa(lp563
I553
aI558
aS'tribes'
p564
a(lp565
g555
ag564
aaa(lp566
I553
aI558
ag564
a(lp567
g546
ag564
aaa(lp568
I553
aI558
ag564
a(lp569
g537
ag564
aaa(lp570
I553
aI558
ag564
a(lp571
g528
ag564
aaa(lp572
I561
aI565
aS'lets'
p573
a(lp574
g564
ag573
aaa(lp575
I561
aI565
ag573
a(lp576
g555
ag573
aaa(lp577
I561
aI565
ag573
a(lp578
g546
ag573
aaa(lp579
I561
aI565
ag573
a(lp580
g537
ag573
aaa(lp581
I567
aI572
aS'switch'
p582
a(lp583
g573
ag582
aaa(lp584
I567
aI572
ag582
a(lp585
g564
ag582
aaa(lp586
I567
aI572
ag582
a(lp587
g555
ag582
aaa(lp588
I567
aI572
ag582
a(lp589
g546
ag582
aaa(lp590
I574
aI578
aS'gears'
p591
a(lp592
g582
ag591
aaa(lp593
I574
aI578
ag591
a(lp594
g573
ag591
aaa(lp595
I574
aI578
ag591
a(lp596
g564
ag591
aaa(lp597
I574
aI578
ag591
a(lp598
g555
ag591
aaa(lp599
I584
aI589
aS'review'
p600
a(lp601
g591
ag600
aaa(lp602
I584
aI589
ag600
a(lp603
g582
ag600
aaa(lp604
I584
aI589
ag600
a(lp605
g573
ag600
aaa(lp606
I584
aI589
ag600
a(lp607
g564
ag600
aaa(lp608
I595
aI601
aS'ancient'
p609
a(lp610
g600
ag609
aaa(lp611
I595
aI601
ag609
a(lp612
g591
ag609
aaa(lp613
I595
aI601
ag609
a(lp614
g582
ag609
aaa(lp615
I595
aI601
ag609
a(lp616
g573
ag609
aaa(lp617
I603
aI610
aS'cultures'
p618
a(lp619
g609
ag618
aaa(lp620
I603
aI610
ag618
a(lp621
g600
ag618
aaa(lp622
I603
aI610
ag618
a(lp623
g591
ag618
aaa(lp624
I603
aI610
ag618
a(lp625
g582
ag618
aaa(lp626
I619
aI626
aS'studying'
p627
a(lp628
g618
ag627
aaa(lp629
I619
aI626
ag627
a(lp630
g609
ag627
aaa(lp631
I619
aI626
ag627
a(lp632
g600
ag627
aaa(lp633
I619
aI626
ag627
a(lp634
g591
ag627
aaa(lp635
I629
aI635
aS'ancient'
p636
a(lp637
g627
ag636
aaa(lp638
I629
aI635
ag636
a(lp639
g618
ag636
aaa(lp640
I629
aI635
ag636
a(lp641
g609
ag636
aaa(lp642
I629
aI635
ag636
a(lp643
g600
ag636
aaasS'wordMap'
p644
(lp645
(lp646
I0
aI2
ag5
a(lp647
(lp648
I0
aS'h'
p649
aa(lp650
I1
aS'o'
p651
aa(lp652
I2
aS't'
p653
aaaa(lp654
I4
aI10
ag15
a(lp655
(lp656
I4
aS's'
p657
aa(lp658
I5
aS'u'
p659
aa(lp660
I6
aS'm'
p661
aa(lp662
I7
ag661
aa(lp663
I8
aS'e'
p664
aa(lp665
I9
aS'r'
p666
aa(lp667
I10
ag657
aaaa(lp668
I13
aI17
ag24
a(lp669
(lp670
I13
ag649
aa(lp671
I14
aS'a'
p672
aa(lp673
I15
ag666
aa(lp674
I16
ag657
aa(lp675
I17
ag649
aaaa(lp676
I20
aI23
ag33
a(lp677
(lp678
I20
aS'c'
p679
aa(lp680
I21
ag651
aa(lp681
I22
aS'l'
p682
aa(lp683
I23
aS'd'
p684
aaaa(lp685
I25
aI31
ag42
a(lp686
(lp687
I25
aS'w'
p688
aa(lp689
I26
aS'i'
p690
aa(lp691
I27
aS'n'
p692
aa(lp693
I28
ag653
aa(lp694
I29
ag664
aa(lp695
I30
ag666
aa(lp696
I31
ag657
aaaa(lp697
I33
aI38
ag51
a(lp698
(lp699
I33
aS'p'
p700
aa(lp701
I34
ag682
aa(lp702
I35
ag672
aa(lp703
I36
ag690
aa(lp704
I37
ag692
aa(lp705
I38
ag657
aaaa(lp706
I41
aI48
ag60
a(lp707
(lp708
I41
ag700
aa(lp709
I42
ag666
aa(lp710
I43
ag672
aa(lp711
I44
ag690
aa(lp712
I45
ag666
aa(lp713
I46
ag690
aa(lp714
I47
ag664
aa(lp715
I48
ag657
aaaa(lp716
I51
aI57
ag69
a(lp717
(lp718
I51
ag666
aa(lp719
I52
ag651
aa(lp720
I53
ag682
aa(lp721
I54
ag682
aa(lp722
I55
ag690
aa(lp723
I56
ag692
aa(lp724
I57
aS'g'
p725
aaaa(lp726
I59
aI63
ag78
a(lp727
(lp728
I59
ag649
aa(lp729
I60
ag690
aa(lp730
I61
ag682
aa(lp731
I62
ag682
aa(lp732
I63
ag657
aaaa(lp733
I65
aI68
aS'they'
p734
a(lp735
(lp736
I65
ag653
aa(lp737
I66
ag649
aa(lp738
I67
ag664
aa(lp739
I68
aS'y'
p740
aaaa(lp741
I70
aI72
aS'had'
p742
a(lp743
(lp744
I70
ag649
aa(lp745
I71
ag672
aa(lp746
I72
ag684
aaaa(lp747
I74
aI80
ag87
a(lp748
(lp749
I74
ag725
aa(lp750
I75
ag666
aa(lp751
I76
ag672
aa(lp752
I77
ag657
aa(lp753
I78
ag657
aa(lp754
I79
ag664
aa(lp755
I80
ag657
aaaa(lp756
I83
aI85
aS'the'
p757
a(lp758
(lp759
I83
ag653
aa(lp760
I84
ag649
aa(lp761
I85
ag664
aaaa(lp762
I87
aI91
ag96
a(lp763
(lp764
I87
ag657
aa(lp765
I88
ag690
aa(lp766
I89
ag651
aa(lp767
I90
ag659
aa(lp768
I91
aS'x'
p769
aaaa(lp770
I93
aI97
ag105
a(lp771
(lp772
I93
ag661
aa(lp773
I94
ag651
aa(lp774
I95
aS'v'
p775
aa(lp776
I96
ag664
aa(lp777
I97
ag684
aaaa(lp778
I99
aI104
ag114
a(lp779
(lp780
I99
ag672
aa(lp781
I100
ag666
aa(lp782
I101
ag651
aa(lp783
I102
ag659
aa(lp784
I103
ag692
aa(lp785
I104
ag684
aaaa(lp786
I106
aI108
aS'the'
p787
a(lp788
(lp789
I106
ag653
aa(lp790
I107
ag649
aa(lp791
I108
ag664
aaaa(lp792
I110
aI115
ag123
a(lp793
(lp794
I110
ag666
aa(lp795
I111
ag664
aa(lp796
I112
ag725
aa(lp797
I113
ag690
aa(lp798
I114
ag651
aa(lp799
I115
ag692
aaaa(lp800
I117
aI118
aS'to'
p801
a(lp802
(lp803
I117
ag653
aa(lp804
I118
ag651
aaaa(lp805
I120
aI123
ag132
a(lp806
(lp807
I120
ag649
aa(lp808
I121
ag659
aa(lp809
I122
ag692
aa(lp810
I123
ag653
aaaa(lp811
I125
aI127
aS'for'
p812
a(lp813
(lp814
I125
aS'f'
p815
aa(lp816
I126
ag651
aa(lp817
I127
ag666
aaaa(lp818
I129
aI135
ag141
a(lp819
(lp820
I129
aS'b'
p821
aa(lp822
I130
ag659
aa(lp823
I131
ag815
aa(lp824
I132
ag815
aa(lp825
I133
ag672
aa(lp826
I134
ag682
aa(lp827
I135
ag651
aaaa(lp828
I138
aI141
aS'they'
p829
a(lp830
(lp831
I138
ag653
aa(lp832
I139
ag649
aa(lp833
I140
ag664
aa(lp834
I141
ag740
aaaa(lp835
I143
aI146
ag150
a(lp836
(lp837
I143
ag659
aa(lp838
I144
ag657
aa(lp839
I145
ag664
aa(lp840
I146
ag684
aaaa(lp841
I148
aI153
ag159
a(lp842
(lp843
I148
ag649
aa(lp844
I149
ag651
aa(lp845
I150
ag666
aa(lp846
I151
ag657
aa(lp847
I152
ag664
aa(lp848
I153
ag657
aaaa(lp849
I155
aI156
aS'to'
p850
a(lp851
(lp852
I155
ag653
aa(lp853
I156
ag651
aaaa(lp854
I158
aI160
ag168
a(lp855
(lp856
I158
ag725
aa(lp857
I159
ag664
aa(lp858
I160
ag653
aaaa(lp859
I162
aI167
ag177
a(lp860
(lp861
I162
ag700
aa(lp862
I163
ag682
aa(lp863
I164
ag672
aa(lp864
I165
ag679
aa(lp865
I166
ag664
aa(lp866
I167
ag657
aaaa(lp867
I170
aI178
ag186
a(lp868
(lp869
I170
ag657
aa(lp870
I171
ag651
aa(lp871
I172
ag659
aa(lp872
I173
ag653
aa(lp873
I174
ag649
aa(lp874
I175
ag688
aa(lp875
I176
ag664
aa(lp876
I177
ag657
aa(lp877
I178
ag653
aaaa(lp878
I180
aI184
ag195
a(lp879
(lp880
I180
ag672
aa(lp881
I181
ag684
aa(lp882
I182
ag651
aa(lp883
I183
ag821
aa(lp884
I184
ag664
aaaa(lp885
I186
aI187
aS'or'
p886
a(lp887
(lp888
I186
ag651
aa(lp889
I187
ag666
aaaa(lp890
I189
aI192
ag204
a(lp891
(lp892
I189
ag679
aa(lp893
I190
ag682
aa(lp894
I191
ag672
aa(lp895
I192
ag740
aaaa(lp896
I194
aI199
ag213
a(lp897
(lp898
I194
ag649
aa(lp899
I195
ag651
aa(lp900
I196
ag659
aa(lp901
I197
ag657
aa(lp902
I198
ag664
aa(lp903
I199
ag657
aaaa(lp904
I201
aI204
aS'that'
p905
a(lp906
(lp907
I201
ag653
aa(lp908
I202
ag649
aa(lp909
I203
ag672
aa(lp910
I204
ag653
aaaa(lp911
I206
aI208
aS'had'
p912
a(lp913
(lp914
I206
ag649
aa(lp915
I207
ag672
aa(lp916
I208
ag684
aaaa(lp917
I210
aI213
aS'more'
p918
a(lp919
(lp920
I210
ag661
aa(lp921
I211
ag651
aa(lp922
I212
ag666
aa(lp923
I213
ag664
aaaa(lp924
I215
aI218
aS'than'
p925
a(lp926
(lp927
I215
ag653
aa(lp928
I216
ag649
aa(lp929
I217
ag672
aa(lp930
I218
ag692
aaaa(lp931
I220
aI220
ag222
a(lp932
(lp933
I220
ag222
aaaa(lp934
I222
aI226
ag231
a(lp935
(lp936
I222
ag657
aa(lp937
I223
ag653
aa(lp938
I224
ag651
aa(lp939
I225
ag666
aa(lp940
I226
ag740
aaaa(lp941
I228
aI233
ag240
a(lp942
(lp943
I228
ag688
aa(lp944
I229
ag672
aa(lp945
I230
ag682
aa(lp946
I231
aS'k'
p947
aa(lp948
I232
ag664
aa(lp949
I233
ag684
aaaa(lp950
I235
aI237
ag249
a(lp951
(lp952
I235
ag649
aa(lp953
I236
ag651
aa(lp954
I237
ag653
aaaa(lp955
I239
aI242
ag258
a(lp956
(lp957
I239
ag684
aa(lp958
I240
ag672
aa(lp959
I241
ag740
aa(lp960
I242
ag657
aaaa(lp961
I245
aI248
ag267
a(lp962
(lp963
I245
ag679
aa(lp964
I246
ag651
aa(lp965
I247
ag682
aa(lp966
I248
ag684
aaaa(lp967
I250
aI255
ag276
a(lp968
(lp969
I250
ag692
aa(lp970
I251
ag690
aa(lp971
I252
ag725
aa(lp972
I253
ag649
aa(lp973
I254
ag653
aa(lp974
I255
ag657
aaaa(lp975
I258
aI263
ag285
a(lp976
(lp977
I258
ag682
aa(lp978
I259
ag690
aa(lp979
I260
ag653
aa(lp980
I261
ag653
aa(lp981
I262
ag682
aa(lp982
I263
ag664
aaaa(lp983
I265
aI272
ag294
a(lp984
(lp985
I265
ag666
aa(lp986
I266
ag672
aa(lp987
I267
ag690
aa(lp988
I268
ag692
aa(lp989
I269
ag815
aa(lp990
I270
ag672
aa(lp991
I271
ag682
aa(lp992
I272
ag682
aaaa(lp993
I274
aI277
ag303
a(lp994
(lp995
I274
ag649
aa(lp996
I275
ag690
aa(lp997
I276
ag725
aa(lp998
I277
ag649
aaaa(lp999
I279
aI287
ag312
a(lp1000
(lp1001
I279
ag815
aa(lp1002
I280
ag682
aa(lp1003
I281
ag672
aa(lp1004
I282
ag653
aa(lp1005
I283
ag682
aa(lp1006
I284
ag672
aa(lp1007
I285
ag692
aa(lp1008
I286
ag684
aa(lp1009
I287
ag657
aaaa(lp1010
I289
aI294
ag321
a(lp1011
(lp1012
I289
ag679
aa(lp1013
I290
ag672
aa(lp1014
I291
ag679
aa(lp1015
I292
ag653
aa(lp1016
I293
ag659
aa(lp1017
I294
ag657
aaaa(lp1018
I296
aI298
aS'was'
p1019
a(lp1020
(lp1021
I296
ag688
aa(lp1022
I297
ag672
aa(lp1023
I298
ag657
aaaa(lp1024
I300
aI302
aS'the'
p1025
a(lp1026
(lp1027
I300
ag653
aa(lp1028
I301
ag649
aa(lp1029
I302
ag664
aaaa(lp1030
I304
aI307
ag330
a(lp1031
(lp1032
I304
ag661
aa(lp1033
I305
ag672
aa(lp1034
I306
ag690
aa(lp1035
I307
ag692
aaaa(lp1036
I309
aI313
ag339
a(lp1037
(lp1038
I309
ag700
aa(lp1039
I310
ag682
aa(lp1040
I311
ag672
aa(lp1041
I312
ag692
aa(lp1042
I313
ag653
aaaa(lp1043
I316
aI319
aS'they'
p1044
a(lp1045
(lp1046
I316
ag653
aa(lp1047
I317
ag649
aa(lp1048
I318
ag664
aa(lp1049
I319
ag740
aaaa(lp1050
I321
aI326
ag348
a(lp1051
(lp1052
I321
ag815
aa(lp1053
I322
ag672
aa(lp1054
I323
ag666
aa(lp1055
I324
ag661
aa(lp1056
I325
ag664
aa(lp1057
I326
ag684
aaaa(lp1058
I328
aI330
aS'the'
p1059
a(lp1060
(lp1061
I328
ag653
aa(lp1062
I329
ag649
aa(lp1063
I330
ag664
aaaa(lp1064
I332
aI335
ag357
a(lp1065
(lp1066
I332
ag682
aa(lp1067
I333
ag672
aa(lp1068
I334
ag692
aa(lp1069
I335
ag684
aaaa(lp1070
I338
aI341
aS'they'
p1071
a(lp1072
(lp1073
I338
ag653
aa(lp1074
I339
ag649
aa(lp1075
I340
ag664
aa(lp1076
I341
ag740
aaaa(lp1077
I343
aI347
ag366
a(lp1078
(lp1079
I343
ag682
aa(lp1080
I344
ag690
aa(lp1081
I345
ag775
aa(lp1082
I346
ag664
aa(lp1083
I347
ag684
aaaa(lp1084
I349
aI350
aS'in'
p1085
a(lp1086
(lp1087
I349
ag690
aa(lp1088
I350
ag692
aaaa(lp1089
I352
aI359
ag375
a(lp1090
(lp1091
I352
ag775
aa(lp1092
I353
ag690
aa(lp1093
I354
ag682
aa(lp1094
I355
ag682
aa(lp1095
I356
ag672
aa(lp1096
I357
ag725
aa(lp1097
I358
ag664
aa(lp1098
I359
ag657
aaaa(lp1099
I361
aI362
aS'in'
p1100
a(lp1101
(lp1102
I361
ag690
aa(lp1103
I362
ag692
aaaa(lp1104
I364
aI368
ag384
a(lp1105
(lp1106
I364
ag672
aa(lp1107
I365
ag684
aa(lp1108
I366
ag651
aa(lp1109
I367
ag821
aa(lp1110
I368
ag664
aaaa(lp1111
I370
aI371
aS'or'
p1112
a(lp1113
(lp1114
I370
ag651
aa(lp1115
I371
ag666
aaaa(lp1116
I373
aI376
ag393
a(lp1117
(lp1118
I373
ag679
aa(lp1119
I374
ag682
aa(lp1120
I375
ag672
aa(lp1121
I376
ag740
aaaa(lp1122
I378
aI383
ag402
a(lp1123
(lp1124
I378
ag649
aa(lp1125
I379
ag651
aa(lp1126
I380
ag659
aa(lp1127
I381
ag657
aa(lp1128
I382
ag664
aa(lp1129
I383
ag657
aaaa(lp1130
I386
aI389
ag411
a(lp1131
(lp1132
I386
ag653
aa(lp1133
I387
ag672
aa(lp1134
I388
ag947
aa(lp1135
I389
ag664
aaaa(lp1136
I391
aI391
ag672
a(lp1137
(lp1138
I391
ag672
aaaa(lp1139
I393
aI396
ag420
a(lp1140
(lp1141
I393
ag682
aa(lp1142
I394
ag651
aa(lp1143
I395
ag651
aa(lp1144
I396
ag947
aaaa(lp1145
I398
aI399
aS'at'
p1146
a(lp1147
(lp1148
I398
ag672
aa(lp1149
I399
ag653
aaaa(lp1150
I401
aI404
aS'this'
p1151
a(lp1152
(lp1153
I401
ag653
aa(lp1154
I402
ag649
aa(lp1155
I403
ag690
aa(lp1156
I404
ag657
aaaa(lp1157
I406
aI410
ag429
a(lp1158
(lp1159
I406
ag725
aa(lp1160
I407
ag666
aa(lp1161
I408
ag664
aa(lp1162
I409
ag672
aa(lp1163
I410
ag653
aaaa(lp1164
I412
aI418
ag438
a(lp1165
(lp1166
I412
ag688
aa(lp1167
I413
ag664
aa(lp1168
I414
ag821
aa(lp1169
I415
ag700
aa(lp1170
I416
ag672
aa(lp1171
I417
ag725
aa(lp1172
I418
ag664
aaaa(lp1173
I420
aI421
aS'on'
p1174
a(lp1175
(lp1176
I420
ag651
aa(lp1177
I421
ag692
aaaa(lp1178
I423
aI428
ag447
a(lp1179
(lp1180
I423
ag692
aa(lp1181
I424
ag672
aa(lp1182
I425
ag653
aa(lp1183
I426
ag690
aa(lp1184
I427
ag775
aa(lp1185
I428
ag664
aaaa(lp1186
I430
aI437
ag456
a(lp1187
(lp1188
I430
ag672
aa(lp1189
I431
ag661
aa(lp1190
I432
ag664
aa(lp1191
I433
ag666
aa(lp1192
I434
ag690
aa(lp1193
I435
ag679
aa(lp1194
I436
ag672
aa(lp1195
I437
ag692
aaaa(lp1196
I439
aI444
ag465
a(lp1197
(lp1198
I439
ag653
aa(lp1199
I440
ag666
aa(lp1200
I441
ag690
aa(lp1201
I442
ag821
aa(lp1202
I443
ag664
aa(lp1203
I444
ag657
aaaa(lp1204
I448
aI449
aS'it'
p1205
a(lp1206
(lp1207
I448
ag690
aa(lp1208
I449
ag653
aaaa(lp1209
I451
aI453
aS'was'
p1210
a(lp1211
(lp1212
I451
ag688
aa(lp1213
I452
ag672
aa(lp1214
I453
ag657
aaaa(lp1215
I455
aI458
ag474
a(lp1216
(lp1217
I455
ag661
aa(lp1218
I456
ag672
aa(lp1219
I457
ag684
aa(lp1220
I458
ag664
aaaa(lp1221
I460
aI461
aS'by'
p1222
a(lp1223
(lp1224
I460
ag821
aa(lp1225
I461
ag740
aaaa(lp1226
I463
aI467
aS'other'
p1227
a(lp1228
(lp1229
I463
ag651
aa(lp1230
I464
ag653
aa(lp1231
I465
ag649
aa(lp1232
I466
ag664
aa(lp1233
I467
ag666
aaaa(lp1234
I469
aI476
ag483
a(lp1235
(lp1236
I469
ag657
aa(lp1237
I470
ag653
aa(lp1238
I471
ag659
aa(lp1239
I472
ag684
aa(lp1240
I473
ag664
aa(lp1241
I474
ag692
aa(lp1242
I475
ag653
aa(lp1243
I476
ag657
aaaa(lp1244
I479
aI482
aS'some'
p1245
a(lp1246
(lp1247
I479
ag657
aa(lp1248
I480
ag651
aa(lp1249
I481
ag661
aa(lp1250
I482
ag664
aaaa(lp1251
I484
aI492
ag492
a(lp1252
(lp1253
I484
ag821
aa(lp1254
I485
ag664
aa(lp1255
I486
ag672
aa(lp1256
I487
ag659
aa(lp1257
I488
ag653
aa(lp1258
I489
ag690
aa(lp1259
I490
ag815
aa(lp1260
I491
ag659
aa(lp1261
I492
ag682
aaaa(lp1262
I494
aI500
ag501
a(lp1263
(lp1264
I494
ag672
aa(lp1265
I495
ag666
aa(lp1266
I496
ag653
aa(lp1267
I497
ag688
aa(lp1268
I498
ag651
aa(lp1269
I499
ag666
aa(lp1270
I500
ag947
aaaa(lp1271
I502
aI505
ag510
a(lp1272
(lp1273
I502
ag661
aa(lp1274
I503
ag672
aa(lp1275
I504
ag684
aa(lp1276
I505
ag664
aaaa(lp1277
I507
aI508
aS'by'
p1278
a(lp1279
(lp1280
I507
ag821
aa(lp1281
I508
ag740
aaaa(lp1282
I510
aI510
ag672
a(lp1283
(lp1284
I510
ag672
aaaa(lp1285
I512
aI514
ag519
a(lp1286
(lp1287
I512
aS'2'
p1288
aa(lp1289
I513
ag692
aa(lp1290
I514
ag684
aaaa(lp1291
I516
aI521
ag528
a(lp1292
(lp1293
I516
ag725
aa(lp1294
I517
ag666
aa(lp1295
I518
ag672
aa(lp1296
I519
ag684
aa(lp1297
I520
ag664
aa(lp1298
I521
ag666
aaaa(lp1299
I523
aI526
aS'that'
p1300
a(lp1301
(lp1302
I523
ag653
aa(lp1303
I524
ag649
aa(lp1304
I525
ag672
aa(lp1305
I526
ag653
aaaa(lp1306
I528
aI535
ag537
a(lp1307
(lp1308
I528
ag679
aa(lp1309
I529
ag651
aa(lp1310
I530
ag661
aa(lp1311
I531
ag700
aa(lp1312
I532
ag672
aa(lp1313
I533
ag666
aa(lp1314
I534
ag664
aa(lp1315
I535
ag657
aaaa(lp1316
I537
aI542
ag546
a(lp1317
(lp1318
I537
ag692
aa(lp1319
I538
ag672
aa(lp1320
I539
ag653
aa(lp1321
I540
ag690
aa(lp1322
I541
ag775
aa(lp1323
I542
ag664
aaaa(lp1324
I544
aI551
ag555
a(lp1325
(lp1326
I544
ag672
aa(lp1327
I545
ag661
aa(lp1328
I546
ag664
aa(lp1329
I547
ag666
aa(lp1330
I548
ag690
aa(lp1331
I549
ag679
aa(lp1332
I550
ag672
aa(lp1333
I551
ag692
aaaa(lp1334
I553
aI558
ag564
a(lp1335
(lp1336
I553
ag653
aa(lp1337
I554
ag666
aa(lp1338
I555
ag690
aa(lp1339
I556
ag821
aa(lp1340
I557
ag664
aa(lp1341
I558
ag657
aaaa(lp1342
I561
aI565
ag573
a(lp1343
(lp1344
I561
ag682
aa(lp1345
I562
ag664
aa(lp1346
I563
ag653
aa(lp1347
I565
ag657
aaaa(lp1348
I567
aI572
ag582
a(lp1349
(lp1350
I567
ag657
aa(lp1351
I568
ag688
aa(lp1352
I569
ag690
aa(lp1353
I570
ag653
aa(lp1354
I571
ag679
aa(lp1355
I572
ag649
aaaa(lp1356
I574
aI578
ag591
a(lp1357
(lp1358
I574
ag725
aa(lp1359
I575
ag664
aa(lp1360
I576
ag672
aa(lp1361
I577
ag666
aa(lp1362
I578
ag657
aaaa(lp1363
I580
aI582
aS'and'
p1364
a(lp1365
(lp1366
I580
ag672
aa(lp1367
I581
ag692
aa(lp1368
I582
ag684
aaaa(lp1369
I584
aI589
ag600
a(lp1370
(lp1371
I584
ag666
aa(lp1372
I585
ag664
aa(lp1373
I586
ag775
aa(lp1374
I587
ag690
aa(lp1375
I588
ag664
aa(lp1376
I589
ag688
aaaa(lp1377
I591
aI593
aS'the'
p1378
a(lp1379
(lp1380
I591
ag653
aa(lp1381
I592
ag649
aa(lp1382
I593
ag664
aaaa(lp1383
I595
aI601
ag609
a(lp1384
(lp1385
I595
ag672
aa(lp1386
I596
ag692
aa(lp1387
I597
ag679
aa(lp1388
I598
ag690
aa(lp1389
I599
ag664
aa(lp1390
I600
ag692
aa(lp1391
I601
ag653
aaaa(lp1392
I603
aI610
ag618
a(lp1393
(lp1394
I603
ag679
aa(lp1395
I604
ag659
aa(lp1396
I605
ag682
aa(lp1397
I606
ag653
aa(lp1398
I607
ag659
aa(lp1399
I608
ag666
aa(lp1400
I609
ag664
aa(lp1401
I610
ag657
aaaa(lp1402
I612
aI613
aS'we'
p1403
a(lp1404
(lp1405
I612
ag688
aa(lp1406
I613
ag664
aaaa(lp1407
I615
aI617
aS'are'
p1408
a(lp1409
(lp1410
I615
ag672
aa(lp1411
I616
ag666
aa(lp1412
I617
ag664
aaaa(lp1413
I619
aI626
ag627
a(lp1414
(lp1415
I619
ag657
aa(lp1416
I620
ag653
aa(lp1417
I621
ag659
aa(lp1418
I622
ag684
aa(lp1419
I623
ag740
aa(lp1420
I624
ag690
aa(lp1421
I625
ag692
aa(lp1422
I626
ag725
aaaa(lp1423
I629
aI635
ag636
a(lp1424
(lp1425
I629
ag672
aa(lp1426
I630
ag692
aa(lp1427
I631
ag679
aa(lp1428
I632
ag690
aa(lp1429
I633
ag664
aa(lp1430
I634
ag692
aa(lp1431
I635
ag653
aaaasS'cleanCharacterMap'
p1432
(lp1433
g648
ag650
ag652
a(lp1434
I3
aS' '
p1435
aag656
ag658
ag660
ag662
ag663
ag665
ag667
a(lp1436
I12
ag1435
aag670
ag671
ag673
ag674
ag675
a(lp1437
I19
ag1435
aag678
ag680
ag681
ag683
a(lp1438
I24
ag1435
aag687
ag689
ag691
ag693
ag694
ag695
ag696
a(lp1439
I32
ag1435
aag699
ag701
ag702
ag703
ag704
ag705
a(lp1440
I40
ag1435
aag708
ag709
ag710
ag711
ag712
ag713
ag714
ag715
a(lp1441
I50
ag1435
aag718
ag719
ag720
ag721
ag722
ag723
ag724
a(lp1442
I58
ag1435
aag728
ag729
ag730
ag731
ag732
a(lp1443
I64
ag1435
aag736
ag737
ag738
ag739
a(lp1444
I69
ag1435
aag744
ag745
ag746
a(lp1445
I73
ag1435
aag749
ag750
ag751
ag752
ag753
ag754
ag755
a(lp1446
I82
ag1435
aag759
ag760
ag761
a(lp1447
I86
ag1435
aag764
ag765
ag766
ag767
ag768
a(lp1448
I92
ag1435
aag772
ag773
ag774
ag776
ag777
a(lp1449
I98
ag1435
aag780
ag781
ag782
ag783
ag784
ag785
a(lp1450
I105
ag1435
aag789
ag790
ag791
a(lp1451
I109
ag1435
aag794
ag795
ag796
ag797
ag798
ag799
a(lp1452
I116
ag1435
aag803
ag804
a(lp1453
I119
ag1435
aag807
ag808
ag809
ag810
a(lp1454
I124
ag1435
aag814
ag816
ag817
a(lp1455
I128
ag1435
aag820
ag822
ag823
ag824
ag825
ag826
ag827
a(lp1456
I137
ag1435
aag831
ag832
ag833
ag834
a(lp1457
I142
ag1435
aag837
ag838
ag839
ag840
a(lp1458
I147
ag1435
aag843
ag844
ag845
ag846
ag847
ag848
a(lp1459
I154
ag1435
aag852
ag853
a(lp1460
I157
ag1435
aag856
ag857
ag858
a(lp1461
I161
ag1435
aag861
ag862
ag863
ag864
ag865
ag866
a(lp1462
I169
ag1435
aag869
ag870
ag871
ag872
ag873
ag874
ag875
ag876
ag877
a(lp1463
I179
ag1435
aag880
ag881
ag882
ag883
ag884
a(lp1464
I185
ag1435
aag888
ag889
a(lp1465
I188
ag1435
aag892
ag893
ag894
ag895
a(lp1466
I193
ag1435
aag898
ag899
ag900
ag901
ag902
ag903
a(lp1467
I200
ag1435
aag907
ag908
ag909
ag910
a(lp1468
I205
ag1435
aag914
ag915
ag916
a(lp1469
I209
ag1435
aag920
ag921
ag922
ag923
a(lp1470
I214
ag1435
aag927
ag928
ag929
ag930
a(lp1471
I219
ag1435
aag933
a(lp1472
I221
ag1435
aag936
ag937
ag938
ag939
ag940
a(lp1473
I227
ag1435
aag943
ag944
ag945
ag946
ag948
ag949
a(lp1474
I234
ag1435
aag952
ag953
ag954
a(lp1475
I238
ag1435
aag957
ag958
ag959
ag960
a(lp1476
I244
ag1435
aag963
ag964
ag965
ag966
a(lp1477
I249
ag1435
aag969
ag970
ag971
ag972
ag973
ag974
a(lp1478
I257
ag1435
aag977
ag978
ag979
ag980
ag981
ag982
a(lp1479
I264
ag1435
aag985
ag986
ag987
ag988
ag989
ag990
ag991
ag992
a(lp1480
I273
ag1435
aag995
ag996
ag997
ag998
a(lp1481
I278
ag1435
aag1001
ag1002
ag1003
ag1004
ag1005
ag1006
ag1007
ag1008
ag1009
a(lp1482
I288
ag1435
aag1012
ag1013
ag1014
ag1015
ag1016
ag1017
a(lp1483
I295
ag1435
aag1021
ag1022
ag1023
a(lp1484
I299
ag1435
aag1027
ag1028
ag1029
a(lp1485
I303
ag1435
aag1032
ag1033
ag1034
ag1035
a(lp1486
I308
ag1435
aag1038
ag1039
ag1040
ag1041
ag1042
a(lp1487
I315
ag1435
aag1046
ag1047
ag1048
ag1049
a(lp1488
I320
ag1435
aag1052
ag1053
ag1054
ag1055
ag1056
ag1057
a(lp1489
I327
ag1435
aag1061
ag1062
ag1063
a(lp1490
I331
ag1435
aag1066
ag1067
ag1068
ag1069
a(lp1491
I337
ag1435
aag1073
ag1074
ag1075
ag1076
a(lp1492
I342
ag1435
aag1079
ag1080
ag1081
ag1082
ag1083
a(lp1493
I348
ag1435
aag1087
ag1088
a(lp1494
I351
ag1435
aag1091
ag1092
ag1093
ag1094
ag1095
ag1096
ag1097
ag1098
a(lp1495
I360
ag1435
aag1102
ag1103
a(lp1496
I363
ag1435
aag1106
ag1107
ag1108
ag1109
ag1110
a(lp1497
I369
ag1435
aag1114
ag1115
a(lp1498
I372
ag1435
aag1118
ag1119
ag1120
ag1121
a(lp1499
I377
ag1435
aag1124
ag1125
ag1126
ag1127
ag1128
ag1129
a(lp1500
I385
ag1435
aag1132
ag1133
ag1134
ag1135
a(lp1501
I390
ag1435
aag1138
a(lp1502
I392
ag1435
aag1141
ag1142
ag1143
ag1144
a(lp1503
I397
ag1435
aag1148
ag1149
a(lp1504
I400
ag1435
aag1153
ag1154
ag1155
ag1156
a(lp1505
I405
ag1435
aag1159
ag1160
ag1161
ag1162
ag1163
a(lp1506
I411
ag1435
aag1166
ag1167
ag1168
ag1169
ag1170
ag1171
ag1172
a(lp1507
I419
ag1435
aag1176
ag1177
a(lp1508
I422
ag1435
aag1180
ag1181
ag1182
ag1183
ag1184
ag1185
a(lp1509
I429
ag1435
aag1188
ag1189
ag1190
ag1191
ag1192
ag1193
ag1194
ag1195
a(lp1510
I438
ag1435
aag1198
ag1199
ag1200
ag1201
ag1202
ag1203
a(lp1511
I445
ag1435
aa(lp1512
I447
ag1435
aag1207
ag1208
a(lp1513
I450
ag1435
aag1212
ag1213
ag1214
a(lp1514
I454
ag1435
aag1217
ag1218
ag1219
ag1220
a(lp1515
I459
ag1435
aag1224
ag1225
a(lp1516
I462
ag1435
aag1229
ag1230
ag1231
ag1232
ag1233
a(lp1517
I468
ag1435
aag1236
ag1237
ag1238
ag1239
ag1240
ag1241
ag1242
ag1243
a(lp1518
I478
ag1435
aag1247
ag1248
ag1249
ag1250
a(lp1519
I483
ag1435
aag1253
ag1254
ag1255
ag1256
ag1257
ag1258
ag1259
ag1260
ag1261
a(lp1520
I493
ag1435
aag1264
ag1265
ag1266
ag1267
ag1268
ag1269
ag1270
a(lp1521
I501
ag1435
aag1273
ag1274
ag1275
ag1276
a(lp1522
I506
ag1435
aag1280
ag1281
a(lp1523
I509
ag1435
aag1284
a(lp1524
I511
ag1435
aag1287
ag1289
ag1290
a(lp1525
I515
ag1435
aag1293
ag1294
ag1295
ag1296
ag1297
ag1298
a(lp1526
I522
ag1435
aag1302
ag1303
ag1304
ag1305
a(lp1527
I527
ag1435
aag1308
ag1309
ag1310
ag1311
ag1312
ag1313
ag1314
ag1315
a(lp1528
I536
ag1435
aag1318
ag1319
ag1320
ag1321
ag1322
ag1323
a(lp1529
I543
ag1435
aag1326
ag1327
ag1328
ag1329
ag1330
ag1331
ag1332
ag1333
a(lp1530
I552
ag1435
aag1336
ag1337
ag1338
ag1339
ag1340
ag1341
a(lp1531
I560
ag1435
aag1344
ag1345
ag1346
ag1347
a(lp1532
I566
ag1435
aag1350
ag1351
ag1352
ag1353
ag1354
ag1355
a(lp1533
I573
ag1435
aag1358
ag1359
ag1360
ag1361
ag1362
a(lp1534
I579
ag1435
aag1366
ag1367
ag1368
a(lp1535
I583
ag1435
aag1371
ag1372
ag1373
ag1374
ag1375
ag1376
a(lp1536
I590
ag1435
aag1380
ag1381
ag1382
a(lp1537
I594
ag1435
aag1385
ag1386
ag1387
ag1388
ag1389
ag1390
ag1391
a(lp1538
I602
ag1435
aag1394
ag1395
ag1396
ag1397
ag1398
ag1399
ag1400
ag1401
a(lp1539
I611
ag1435
aag1405
ag1406
a(lp1540
I614
ag1435
aag1410
ag1411
ag1412
a(lp1541
I618
ag1435
aag1415
ag1416
ag1417
ag1418
ag1419
ag1420
ag1421
ag1422
a(lp1542
I628
ag1435
aag1425
ag1426
ag1427
ag1428
ag1429
ag1430
ag1431
a(lp1543
I636
ag1435
aa(lp1544
I637
ag679
aa(lp1545
I638
ag659
aa(lp1546
I639
ag682
aa(lp1547
I640
ag653
aa(lp1548
I641
ag659
aa(lp1549
I642
ag666
aa(lp1550
I643
ag664
aasS'text'
p1551
S"hot summers; harsh, cold winters plains, prairies, rolling hills they had grasses. the sioux moved around the region to hunt for buffalo. they used horses to get places. southwest adobe or clay houses that had more than 1 story walked hot days, cold nights, little rainfall high flatlands cactus was the main plant. they farmed the land. they lived in villages in adobe or clay houses. take a look at this great webpage on native american tribes . it was made by other students! some beautiful artwork made by a 2nd grader that compares native american tribes: let's switch gears and review the ancient cultures we are studying: ancient culture"
p1552
sS'cleanWordMap'
p1553
(lp1554
g646
ag654
ag668
ag676
ag685
ag697
ag706
ag716
ag726
ag747
ag762
ag770
ag778
ag792
ag805
ag818
ag835
ag841
ag854
ag859
ag867
ag878
ag890
ag896
ag931
ag934
ag941
ag950
ag955
ag961
ag967
ag975
ag983
ag993
ag999
ag1010
ag1030
ag1036
ag1050
ag1064
ag1077
ag1089
ag1104
ag1116
ag1122
ag1130
ag1139
ag1157
ag1164
ag1178
ag1186
ag1196
ag1215
ag1234
ag1251
ag1262
ag1271
ag1285
ag1291
ag1306
ag1316
ag1324
ag1334
ag1342
ag1348
ag1356
ag1369
ag1383
ag1392
ag1413
ag1423
asS'lines'
p1555
(lp1556
VHot summers; Harsh, cold winters\u000a
p1557
aVPlains, Prairies, Rolling Hills\u000a
p1558
aVThey had grasses.\u000a
p1559
aVThe Sioux moved around the region to hunt for buffalo. They used horses to get places.\u000a
p1560
aVSouthwest\u000a
p1561
aVAdobe or clay houses that had more than 1 story\u000a
p1562
aVWalked\u000a
p1563
aVHot days, Cold Nights, Little Rainfall\u000a
p1564
aVHigh Flatlands\u000a
p1565
aVCactus was the main plant.\u000a
p1566
aVThey farmed the land. They lived in villages in adobe or clay houses.\u000a
p1567
aVTake a look at this great webpage on Native American tribes . It was made by other students!\u000a
p1568
aVSome beautiful artwork made by a 2nd grader that compares Native American Tribes:\u000a
p1569
aVLet's switch gears and review the Ancient Cultures we are studying:\u000a
p1570
aVAncient Culture
p1571
asS'docType'
p1572
S'src'
p1573
sS'newfmap'
p1574
(lp1575
g4
ag8
ag10
ag12
ag14
ag17
ag19
ag21
ag23
ag26
ag28
ag30
ag32
ag35
ag37
ag39
ag41
ag44
ag46
ag48
ag50
ag53
ag55
ag57
ag59
ag62
ag64
ag66
ag68
ag71
ag73
ag75
ag77
ag80
ag82
ag84
ag86
ag89
ag91
ag93
ag95
ag98
ag100
ag102
ag104
ag107
ag109
ag111
ag113
ag116
ag118
ag120
ag122
ag125
ag127
ag129
ag131
ag134
ag136
ag138
ag140
ag143
ag145
ag147
ag149
ag152
ag154
ag156
ag158
ag161
ag163
ag165
ag167
ag170
ag172
ag174
ag176
ag179
ag181
ag183
ag185
ag188
ag190
ag192
ag194
ag197
ag199
ag201
ag203
ag206
ag208
ag210
ag212
ag215
ag217
ag219
ag221
ag224
ag226
ag228
ag230
ag233
ag235
ag237
ag239
ag242
ag244
ag246
ag248
ag251
ag253
ag255
ag257
ag260
ag262
ag264
ag266
ag269
ag271
ag273
ag275
ag278
ag280
ag282
ag284
ag287
ag289
ag291
ag293
ag296
ag298
ag300
ag302
ag305
ag307
ag309
ag311
ag314
ag316
ag318
ag320
ag323
ag325
ag327
ag329
ag332
ag334
ag336
ag338
ag341
ag343
ag345
ag347
ag350
ag352
ag354
ag356
ag359
ag361
ag363
ag365
ag368
ag370
ag372
ag374
ag377
ag379
ag381
ag383
ag386
ag388
ag390
ag392
ag395
ag397
ag399
ag401
ag404
ag406
ag408
ag410
ag413
ag415
ag417
ag419
ag422
ag424
ag426
ag428
ag431
ag433
ag435
ag437
ag440
ag442
ag444
ag446
ag449
ag451
ag453
ag455
ag458
ag460
ag462
ag464
ag467
ag469
ag471
ag473
ag476
ag478
ag480
ag482
ag485
ag487
ag489
ag491
ag494
ag496
ag498
ag500
ag503
ag505
ag507
ag509
ag512
ag514
ag516
ag518
ag521
ag523
ag525
ag527
ag530
ag532
ag534
ag536
ag539
ag541
ag543
ag545
ag548
ag550
ag552
ag554
ag557
ag559
ag561
ag563
ag566
ag568
ag570
ag572
ag575
ag577
ag579
ag581
ag584
ag586
ag588
ag590
ag593
ag595
ag597
ag599
ag602
ag604
ag606
ag608
ag611
ag613
ag615
ag617
ag620
ag622
ag624
ag626
ag629
ag631
ag633
ag635
ag638
ag640
ag642
asS'featureMap'
p1576
(lp1577
(lp1578
I0
aI2
ag5
ag6
ag9
ag11
ag13
aa(lp1579
I4
aI10
ag15
ag16
ag18
ag20
ag22
aa(lp1580
I13
aI17
ag24
ag25
ag27
ag29
ag31
aa(lp1581
I20
aI23
ag33
ag34
ag36
ag38
ag40
aa(lp1582
I25
aI31
ag42
ag43
ag45
ag47
ag49
aa(lp1583
I33
aI38
ag51
ag52
ag54
ag56
ag58
aa(lp1584
I41
aI48
ag60
ag61
ag63
ag65
ag67
aa(lp1585
I51
aI57
ag69
ag70
ag72
ag74
ag76
aa(lp1586
I59
aI63
ag78
ag79
ag81
ag83
ag85
aa(lp1587
I74
aI80
ag87
ag88
ag90
ag92
ag94
aa(lp1588
I87
aI91
ag96
ag97
ag99
ag101
ag103
aa(lp1589
I93
aI97
ag105
ag106
ag108
ag110
ag112
aa(lp1590
I99
aI104
ag114
ag115
ag117
ag119
ag121
aa(lp1591
I110
aI115
ag123
ag124
ag126
ag128
ag130
aa(lp1592
I120
aI123
ag132
ag133
ag135
ag137
ag139
aa(lp1593
I129
aI135
ag141
ag142
ag144
ag146
ag148
aa(lp1594
I143
aI146
ag150
ag151
ag153
ag155
ag157
aa(lp1595
I148
aI153
ag159
ag160
ag162
ag164
ag166
aa(lp1596
I158
aI160
ag168
ag169
ag171
ag173
ag175
aa(lp1597
I162
aI167
ag177
ag178
ag180
ag182
ag184
aa(lp1598
I170
aI178
ag186
ag187
ag189
ag191
ag193
aa(lp1599
I180
aI184
ag195
ag196
ag198
ag200
ag202
aa(lp1600
I189
aI192
ag204
ag205
ag207
ag209
ag211
aa(lp1601
I194
aI199
ag213
ag214
ag216
ag218
ag220
aa(lp1602
I220
aI220
ag222
ag223
ag225
ag227
ag229
aa(lp1603
I222
aI226
ag231
ag232
ag234
ag236
ag238
aa(lp1604
I228
aI233
ag240
ag241
ag243
ag245
ag247
aa(lp1605
I235
aI237
ag249
ag250
ag252
ag254
ag256
aa(lp1606
I239
aI242
ag258
ag259
ag261
ag263
ag265
aa(lp1607
I245
aI248
ag267
ag268
ag270
ag272
ag274
aa(lp1608
I250
aI255
ag276
ag277
ag279
ag281
ag283
aa(lp1609
I258
aI263
ag285
ag286
ag288
ag290
ag292
aa(lp1610
I265
aI272
ag294
ag295
ag297
ag299
ag301
aa(lp1611
I274
aI277
ag303
ag304
ag306
ag308
ag310
aa(lp1612
I279
aI287
ag312
ag313
ag315
ag317
ag319
aa(lp1613
I289
aI294
ag321
ag322
ag324
ag326
ag328
aa(lp1614
I304
aI307
ag330
ag331
ag333
ag335
ag337
aa(lp1615
I309
aI313
ag339
ag340
ag342
ag344
ag346
aa(lp1616
I321
aI326
ag348
ag349
ag351
ag353
ag355
aa(lp1617
I332
aI335
ag357
ag358
ag360
ag362
ag364
aa(lp1618
I343
aI347
ag366
ag367
ag369
ag371
ag373
aa(lp1619
I352
aI359
ag375
ag376
ag378
ag380
ag382
aa(lp1620
I364
aI368
ag384
ag385
ag387
ag389
ag391
aa(lp1621
I373
aI376
ag393
ag394
ag396
ag398
ag400
aa(lp1622
I378
aI383
ag402
ag403
ag405
ag407
ag409
aa(lp1623
I386
aI389
ag411
ag412
ag414
ag416
ag418
aa(lp1624
I393
aI396
ag420
ag421
ag423
ag425
ag427
aa(lp1625
I406
aI410
ag429
ag430
ag432
ag434
ag436
aa(lp1626
I412
aI418
ag438
ag439
ag441
ag443
ag445
aa(lp1627
I423
aI428
ag447
ag448
ag450
ag452
ag454
aa(lp1628
I430
aI437
ag456
ag457
ag459
ag461
ag463
aa(lp1629
I439
aI444
ag465
ag466
ag468
ag470
ag472
aa(lp1630
I455
aI458
ag474
ag475
ag477
ag479
ag481
aa(lp1631
I469
aI476
ag483
ag484
ag486
ag488
ag490
aa(lp1632
I484
aI492
ag492
ag493
ag495
ag497
ag499
aa(lp1633
I494
aI500
ag501
ag502
ag504
ag506
ag508
aa(lp1634
I502
aI505
ag510
ag511
ag513
ag515
ag517
aa(lp1635
I512
aI514
ag519
ag520
ag522
ag524
ag526
aa(lp1636
I516
aI521
ag528
ag529
ag531
ag533
ag535
aa(lp1637
I528
aI535
ag537
ag538
ag540
ag542
ag544
aa(lp1638
I537
aI542
ag546
ag547
ag549
ag551
ag553
aa(lp1639
I544
aI551
ag555
ag556
ag558
ag560
ag562
aa(lp1640
I553
aI558
ag564
ag565
ag567
ag569
ag571
aa(lp1641
I561
aI565
ag573
ag574
ag576
ag578
ag580
aa(lp1642
I567
aI572
ag582
ag583
ag585
ag587
ag589
aa(lp1643
I574
aI578
ag591
ag592
ag594
ag596
ag598
aa(lp1644
I584
aI589
ag600
ag601
ag603
ag605
ag607
aa(lp1645
I595
aI601
ag609
ag610
ag612
ag614
ag616
aa(lp1646
I603
aI610
ag618
ag619
ag621
ag623
ag625
aa(lp1647
I619
aI626
ag627
ag628
ag630
ag632
ag634
aa(lp1648
I629
aI635
ag636
ag637
ag639
ag641
ag643
aasS'characterMap'
p1649
(lp1650
g648
ag650
ag652
ag1434
ag656
ag658
ag660
ag662
ag663
ag665
ag667
a(lp1651
I11
aS';'
p1652
aag1436
ag670
ag671
ag673
ag674
ag675
a(lp1653
I18
aS','
p1654
aag1437
ag678
ag680
ag681
ag683
ag1438
ag687
ag689
ag691
ag693
ag694
ag695
ag696
ag1439
ag699
ag701
ag702
ag703
ag704
ag705
a(lp1655
I39
ag1654
aag1440
ag708
ag709
ag710
ag711
ag712
ag713
ag714
ag715
a(lp1656
I49
ag1654
aag1441
ag718
ag719
ag720
ag721
ag722
ag723
ag724
ag1442
ag728
ag729
ag730
ag731
ag732
ag1443
ag736
ag737
ag738
ag739
ag1444
ag744
ag745
ag746
ag1445
ag749
ag750
ag751
ag752
ag753
ag754
ag755
a(lp1657
I81
aS'.'
p1658
aag1446
ag759
ag760
ag761
ag1447
ag764
ag765
ag766
ag767
ag768
ag1448
ag772
ag773
ag774
ag776
ag777
ag1449
ag780
ag781
ag782
ag783
ag784
ag785
ag1450
ag789
ag790
ag791
ag1451
ag794
ag795
ag796
ag797
ag798
ag799
ag1452
ag803
ag804
ag1453
ag807
ag808
ag809
ag810
ag1454
ag814
ag816
ag817
ag1455
ag820
ag822
ag823
ag824
ag825
ag826
ag827
a(lp1659
I136
ag1658
aag1456
ag831
ag832
ag833
ag834
ag1457
ag837
ag838
ag839
ag840
ag1458
ag843
ag844
ag845
ag846
ag847
ag848
ag1459
ag852
ag853
ag1460
ag856
ag857
ag858
ag1461
ag861
ag862
ag863
ag864
ag865
ag866
a(lp1660
I168
ag1658
aag1462
ag869
ag870
ag871
ag872
ag873
ag874
ag875
ag876
ag877
ag1463
ag880
ag881
ag882
ag883
ag884
ag1464
ag888
ag889
ag1465
ag892
ag893
ag894
ag895
ag1466
ag898
ag899
ag900
ag901
ag902
ag903
ag1467
ag907
ag908
ag909
ag910
ag1468
ag914
ag915
ag916
ag1469
ag920
ag921
ag922
ag923
ag1470
ag927
ag928
ag929
ag930
ag1471
ag933
ag1472
ag936
ag937
ag938
ag939
ag940
ag1473
ag943
ag944
ag945
ag946
ag948
ag949
ag1474
ag952
ag953
ag954
ag1475
ag957
ag958
ag959
ag960
a(lp1661
I243
ag1654
aag1476
ag963
ag964
ag965
ag966
ag1477
ag969
ag970
ag971
ag972
ag973
ag974
a(lp1662
I256
ag1654
aag1478
ag977
ag978
ag979
ag980
ag981
ag982
ag1479
ag985
ag986
ag987
ag988
ag989
ag990
ag991
ag992
ag1480
ag995
ag996
ag997
ag998
ag1481
ag1001
ag1002
ag1003
ag1004
ag1005
ag1006
ag1007
ag1008
ag1009
ag1482
ag1012
ag1013
ag1014
ag1015
ag1016
ag1017
ag1483
ag1021
ag1022
ag1023
ag1484
ag1027
ag1028
ag1029
ag1485
ag1032
ag1033
ag1034
ag1035
ag1486
ag1038
ag1039
ag1040
ag1041
ag1042
a(lp1663
I314
ag1658
aag1487
ag1046
ag1047
ag1048
ag1049
ag1488
ag1052
ag1053
ag1054
ag1055
ag1056
ag1057
ag1489
ag1061
ag1062
ag1063
ag1490
ag1066
ag1067
ag1068
ag1069
a(lp1664
I336
ag1658
aag1491
ag1073
ag1074
ag1075
ag1076
ag1492
ag1079
ag1080
ag1081
ag1082
ag1083
ag1493
ag1087
ag1088
ag1494
ag1091
ag1092
ag1093
ag1094
ag1095
ag1096
ag1097
ag1098
ag1495
ag1102
ag1103
ag1496
ag1106
ag1107
ag1108
ag1109
ag1110
ag1497
ag1114
ag1115
ag1498
ag1118
ag1119
ag1120
ag1121
ag1499
ag1124
ag1125
ag1126
ag1127
ag1128
ag1129
a(lp1665
I384
ag1658
aag1500
ag1132
ag1133
ag1134
ag1135
ag1501
ag1138
ag1502
ag1141
ag1142
ag1143
ag1144
ag1503
ag1148
ag1149
ag1504
ag1153
ag1154
ag1155
ag1156
ag1505
ag1159
ag1160
ag1161
ag1162
ag1163
ag1506
ag1166
ag1167
ag1168
ag1169
ag1170
ag1171
ag1172
ag1507
ag1176
ag1177
ag1508
ag1180
ag1181
ag1182
ag1183
ag1184
ag1185
ag1509
ag1188
ag1189
ag1190
ag1191
ag1192
ag1193
ag1194
ag1195
ag1510
ag1198
ag1199
ag1200
ag1201
ag1202
ag1203
ag1511
a(lp1666
I446
ag1658
aag1512
ag1207
ag1208
ag1513
ag1212
ag1213
ag1214
ag1514
ag1217
ag1218
ag1219
ag1220
ag1515
ag1224
ag1225
ag1516
ag1229
ag1230
ag1231
ag1232
ag1233
ag1517
ag1236
ag1237
ag1238
ag1239
ag1240
ag1241
ag1242
ag1243
a(lp1667
I477
aS'!'
p1668
aag1518
ag1247
ag1248
ag1249
ag1250
ag1519
ag1253
ag1254
ag1255
ag1256
ag1257
ag1258
ag1259
ag1260
ag1261
ag1520
ag1264
ag1265
ag1266
ag1267
ag1268
ag1269
ag1270
ag1521
ag1273
ag1274
ag1275
ag1276
ag1522
ag1280
ag1281
ag1523
ag1284
ag1524
ag1287
ag1289
ag1290
ag1525
ag1293
ag1294
ag1295
ag1296
ag1297
ag1298
ag1526
ag1302
ag1303
ag1304
ag1305
ag1527
ag1308
ag1309
ag1310
ag1311
ag1312
ag1313
ag1314
ag1315
ag1528
ag1318
ag1319
ag1320
ag1321
ag1322
ag1323
ag1529
ag1326
ag1327
ag1328
ag1329
ag1330
ag1331
ag1332
ag1333
ag1530
ag1336
ag1337
ag1338
ag1339
ag1340
ag1341
a(lp1669
I559
aS':'
p1670
aag1531
ag1344
ag1345
ag1346
a(lp1671
I564
aS"'"
p1672
aag1347
ag1532
ag1350
ag1351
ag1352
ag1353
ag1354
ag1355
ag1533
ag1358
ag1359
ag1360
ag1361
ag1362
ag1534
ag1366
ag1367
ag1368
ag1535
ag1371
ag1372
ag1373
ag1374
ag1375
ag1376
ag1536
ag1380
ag1381
ag1382
ag1537
ag1385
ag1386
ag1387
ag1388
ag1389
ag1390
ag1391
ag1538
ag1394
ag1395
ag1396
ag1397
ag1398
ag1399
ag1400
ag1401
ag1539
ag1405
ag1406
ag1540
ag1410
ag1411
ag1412
ag1541
ag1415
ag1416
ag1417
ag1418
ag1419
ag1420
ag1421
ag1422
a(lp1673
I627
ag1670
aag1542
ag1425
ag1426
ag1427
ag1428
ag1429
ag1430
ag1431
ag1543
ag1544
ag1545
ag1546
ag1547
ag1548
ag1549
ag1550
asS'docName'
p1674
S'source-document00818.txt'
p1675
sb.