(iModel.Document
Document
p0
(dp1
S'fmap'
p2
(lp3
(lp4
I5
aI8
aS'page'
p5
a(lp6
S'*'
p7
ag5
aaa(lp8
I5
aI8
ag5
a(lp9
g7
ag5
aaa(lp10
I5
aI8
ag5
a(lp11
g7
ag5
aaa(lp12
I5
aI8
ag5
a(lp13
g7
ag5
aaa(lp14
I13
aI17
aS'empty'
p15
a(lp16
g5
ag15
aaa(lp17
I13
aI17
ag15
a(lp18
g7
ag15
aaa(lp19
I13
aI17
ag15
a(lp20
g7
ag15
aaa(lp21
I13
aI17
ag15
a(lp22
g7
ag15
aaa(lp23
I20
aI22
aS'use'
p24
a(lp25
g15
ag24
aaa(lp26
I20
aI22
ag24
a(lp27
g5
ag24
aaa(lp28
I20
aI22
ag24
a(lp29
g7
ag24
aaa(lp30
I20
aI22
ag24
a(lp31
g7
ag24
aaa(lp32
I28
aI31
aS'edit'
p33
a(lp34
g24
ag33
aaa(lp35
I28
aI31
ag33
a(lp36
g15
ag33
aaa(lp37
I28
aI31
ag33
a(lp38
g5
ag33
aaa(lp39
I28
aI31
ag33
a(lp40
g7
ag33
aaa(lp41
I33
aI39
aS'article'
p42
a(lp43
g33
ag42
aaa(lp44
I33
aI39
ag42
a(lp45
g24
ag42
aaa(lp46
I33
aI39
ag42
a(lp47
g15
ag42
aaa(lp48
I33
aI39
ag42
a(lp49
g5
ag42
aaa(lp50
I41
aI44
aS'link'
p51
a(lp52
g42
ag51
aaa(lp53
I41
aI44
ag51
a(lp54
g33
ag51
aaa(lp55
I41
aI44
ag51
a(lp56
g24
ag51
aaa(lp57
I41
aI44
ag51
a(lp58
g15
ag51
aaa(lp59
I53
aI55
aS'top'
p60
a(lp61
g51
ag60
aaa(lp62
I53
aI55
ag60
a(lp63
g42
ag60
aaa(lp64
I53
aI55
ag60
a(lp65
g33
ag60
aaa(lp66
I53
aI55
ag60
a(lp67
g24
ag60
aaa(lp68
I57
aI61
aS'right'
p69
a(lp70
g60
ag69
aaa(lp71
I57
aI61
ag69
a(lp72
g51
ag69
aaa(lp73
I57
aI61
ag69
a(lp74
g42
ag69
aaa(lp75
I57
aI61
ag69
a(lp76
g33
ag69
aaa(lp77
I71
aI74
aS'page'
p78
a(lp79
g69
ag78
aaa(lp80
I71
aI74
ag78
a(lp81
g60
ag78
aaa(lp82
I71
aI74
ag78
a(lp83
g51
ag78
aaa(lp84
I71
aI74
ag78
a(lp85
g42
ag78
aaa(lp86
I79
aI82
aS'edit'
p87
a(lp88
g78
ag87
aaa(lp89
I79
aI82
ag87
a(lp90
g69
ag87
aaa(lp91
I79
aI82
ag87
a(lp92
g60
ag87
aaa(lp93
I79
aI82
ag87
a(lp94
g51
ag87
aaa(lp95
I85
aI88
aS'plot'
p96
a(lp97
g87
ag96
aaa(lp98
I85
aI88
ag96
a(lp99
g78
ag96
aaa(lp100
I85
aI88
ag96
a(lp101
g69
ag96
aaa(lp102
I85
aI88
ag96
a(lp103
g60
ag96
aaa(lp104
I90
aI96
aS'summary'
p105
a(lp106
g96
ag105
aaa(lp107
I90
aI96
ag105
a(lp108
g87
ag105
aaa(lp109
I90
aI96
ag105
a(lp110
g78
ag105
aaa(lp111
I90
aI96
ag105
a(lp112
g69
ag105
aaa(lp113
I98
aI100
aS'add'
p114
a(lp115
g105
ag114
aaa(lp116
I98
aI100
ag114
a(lp117
g96
ag114
aaa(lp118
I98
aI100
ag114
a(lp119
g87
ag114
aaa(lp120
I98
aI100
ag114
a(lp121
g78
ag114
aaa(lp122
I104
aI110
aS'creator'
p123
a(lp124
g114
ag123
aaa(lp125
I104
aI110
ag123
a(lp126
g105
ag123
aaa(lp127
I104
aI110
ag123
a(lp128
g96
ag123
aaa(lp129
I104
aI110
ag123
a(lp130
g87
ag123
aaa(lp131
I112
aI117
aS'credit'
p132
a(lp133
g123
ag132
aaa(lp134
I112
aI117
ag132
a(lp135
g114
ag132
aaa(lp136
I112
aI117
ag132
a(lp137
g105
ag132
aaa(lp138
I112
aI117
ag132
a(lp139
g96
ag132
aaa(lp140
I127
aI131
aS'issue'
p141
a(lp142
g132
ag141
aaa(lp143
I127
aI131
ag141
a(lp144
g123
ag141
aaa(lp145
I127
aI131
ag141
a(lp146
g114
ag141
aaa(lp147
I127
aI131
ag141
a(lp148
g105
ag141
aaa(lp149
I133
aI138
aS'search'
p150
a(lp151
g141
ag150
aaa(lp152
I133
aI138
ag150
a(lp153
g132
ag150
aaa(lp154
I133
aI138
ag150
a(lp155
g123
ag150
aaa(lp156
I133
aI138
ag150
a(lp157
g114
ag150
aaa(lp158
I146
aI152
aS'creator'
p159
a(lp160
g150
ag159
aaa(lp161
I146
aI152
ag159
a(lp162
g141
ag159
aaa(lp163
I146
aI152
ag159
a(lp164
g132
ag159
aaa(lp165
I146
aI152
ag159
a(lp166
g123
ag159
aaa(lp167
I157
aI161
aS'dont'
p168
a(lp169
g159
ag168
aaa(lp170
I157
aI161
ag168
a(lp171
g150
ag168
aaa(lp172
I157
aI161
ag168
a(lp173
g141
ag168
aaa(lp174
I157
aI161
ag168
a(lp175
g132
ag168
aaa(lp176
I172
aI179
aS'creators'
p177
a(lp178
g168
ag177
aaa(lp179
I172
aI179
ag177
a(lp180
g159
ag177
aaa(lp181
I172
aI179
ag177
a(lp182
g150
ag177
aaa(lp183
I172
aI179
ag177
a(lp184
g141
ag177
aaa(lp185
I181
aI188
aS'attached'
p186
a(lp187
g177
ag186
aaa(lp188
I181
aI188
ag186
a(lp189
g168
ag186
aaa(lp190
I181
aI188
ag186
a(lp191
g159
ag186
aaa(lp192
I181
aI188
ag186
a(lp193
g150
ag186
aaa(lp194
I198
aI202
aS'issue'
p195
a(lp196
g186
ag195
aaa(lp197
I198
aI202
ag195
a(lp198
g177
ag195
aaa(lp199
I198
aI202
ag195
a(lp200
g168
ag195
aaa(lp201
I198
aI202
ag195
a(lp202
g159
ag195
aaa(lp203
I205
aI208
aS'help'
p204
a(lp205
g195
ag204
aaa(lp206
I205
aI208
ag204
a(lp207
g186
ag204
aaa(lp208
I205
aI208
ag204
a(lp209
g177
ag204
aaa(lp210
I205
aI208
ag204
a(lp211
g168
ag204
aaa(lp212
I210
aI211
aS'us'
p213
a(lp214
g204
ag213
aaa(lp215
I210
aI211
ag213
a(lp216
g195
ag213
aaa(lp217
I210
aI211
ag213
a(lp218
g186
ag213
aaa(lp219
I210
aI211
ag213
a(lp220
g177
ag213
aaa(lp221
I213
aI216
aS'fill'
p222
a(lp223
g213
ag222
aaa(lp224
I213
aI216
ag222
a(lp225
g204
ag222
aaa(lp226
I213
aI216
ag222
a(lp227
g195
ag222
aaa(lp228
I213
aI216
ag222
a(lp229
g186
ag222
aaa(lp230
I225
aI234
aS'characters'
p231
a(lp232
g222
ag231
aaa(lp233
I225
aI234
ag231
a(lp234
g213
ag231
aaa(lp235
I225
aI234
ag231
a(lp236
g204
ag231
aaa(lp237
I225
aI234
ag231
a(lp238
g195
ag231
aaa(lp239
I236
aI238
aS'add'
p240
a(lp241
g231
ag240
aaa(lp242
I236
aI238
ag240
a(lp243
g222
ag240
aaa(lp244
I236
aI238
ag240
a(lp245
g213
ag240
aaa(lp246
I236
aI238
ag240
a(lp247
g204
ag240
aaa(lp248
I242
aI250
aS'character'
p249
a(lp250
g240
ag249
aaa(lp251
I242
aI250
ag249
a(lp252
g231
ag249
aaa(lp253
I242
aI250
ag249
a(lp254
g222
ag249
aaa(lp255
I242
aI250
ag249
a(lp256
g213
ag249
aaa(lp257
I252
aI257
aS'credit'
p258
a(lp259
g249
ag258
aaa(lp260
I252
aI257
ag258
a(lp261
g240
ag258
aaa(lp262
I252
aI257
ag258
a(lp263
g231
ag258
aaa(lp264
I252
aI257
ag258
a(lp265
g222
ag258
aaa(lp266
I267
aI270
aS'book'
p267
a(lp268
g258
ag267
aaa(lp269
I267
aI270
ag267
a(lp270
g249
ag267
aaa(lp271
I267
aI270
ag267
a(lp272
g240
ag267
aaa(lp273
I267
aI270
ag267
a(lp274
g231
ag267
aaa(lp275
I272
aI277
aS'search'
p276
a(lp277
g267
ag276
aaa(lp278
I272
aI277
ag276
a(lp279
g258
ag276
aaa(lp280
I272
aI277
ag276
a(lp281
g249
ag276
aaa(lp282
I272
aI277
ag276
a(lp283
g240
ag276
aaa(lp284
I285
aI293
aS'character'
p285
a(lp286
g276
ag285
aaa(lp287
I285
aI293
ag285
a(lp288
g267
ag285
aaa(lp289
I285
aI293
ag285
a(lp290
g258
ag285
aaa(lp291
I285
aI293
ag285
a(lp292
g249
ag285
aaa(lp293
I298
aI302
aS'dont'
p294
a(lp295
g285
ag294
aaa(lp296
I298
aI302
ag294
a(lp297
g276
ag294
aaa(lp298
I298
aI302
ag294
a(lp299
g267
ag294
aaa(lp300
I298
aI302
ag294
a(lp301
g258
ag294
aaa(lp302
I313
aI322
aS'characters'
p303
a(lp304
g294
ag303
aaa(lp305
I313
aI322
ag303
a(lp306
g285
ag303
aaa(lp307
I313
aI322
ag303
a(lp308
g276
ag303
aaa(lp309
I313
aI322
ag303
a(lp310
g267
ag303
aaa(lp311
I324
aI331
aS'attached'
p312
a(lp313
g303
ag312
aaa(lp314
I324
aI331
ag312
a(lp315
g294
ag312
aaa(lp316
I324
aI331
ag312
a(lp317
g285
ag312
aaa(lp318
I324
aI331
ag312
a(lp319
g276
ag312
aaa(lp320
I341
aI344
aS'book'
p321
a(lp322
g312
ag321
aaa(lp323
I341
aI344
ag321
a(lp324
g303
ag321
aaa(lp325
I341
aI344
ag321
a(lp326
g294
ag321
aaa(lp327
I341
aI344
ag321
a(lp328
g285
ag321
aaa(lp329
I347
aI350
aS'help'
p330
a(lp331
g321
ag330
aaa(lp332
I347
aI350
ag330
a(lp333
g312
ag330
aaa(lp334
I347
aI350
ag330
a(lp335
g303
ag330
aaa(lp336
I347
aI350
ag330
a(lp337
g294
ag330
aaa(lp338
I352
aI353
aS'us'
p339
a(lp340
g330
ag339
aaa(lp341
I352
aI353
ag339
a(lp342
g321
ag339
aaa(lp343
I352
aI353
ag339
a(lp344
g312
ag339
aaa(lp345
I352
aI353
ag339
a(lp346
g303
ag339
aaa(lp347
I355
aI358
aS'fill'
p348
a(lp349
g339
ag348
aaa(lp350
I355
aI358
ag348
a(lp351
g330
ag348
aaa(lp352
I355
aI358
ag348
a(lp353
g321
ag348
aaa(lp354
I355
aI358
ag348
a(lp355
g312
ag348
aaa(lp356
I367
aI375
aS'locations'
p357
a(lp358
g348
ag357
aaa(lp359
I367
aI375
ag357
a(lp360
g339
ag357
aaa(lp361
I367
aI375
ag357
a(lp362
g330
ag357
aaa(lp363
I367
aI375
ag357
a(lp364
g321
ag357
aaa(lp365
I377
aI379
aS'add'
p366
a(lp367
g357
ag366
aaa(lp368
I377
aI379
ag366
a(lp369
g348
ag366
aaa(lp370
I377
aI379
ag366
a(lp371
g339
ag366
aaa(lp372
I377
aI379
ag366
a(lp373
g330
ag366
aaa(lp374
I383
aI390
aS'location'
p375
a(lp376
g366
ag375
aaa(lp377
I383
aI390
ag375
a(lp378
g357
ag375
aaa(lp379
I383
aI390
ag375
a(lp380
g348
ag375
aaa(lp381
I383
aI390
ag375
a(lp382
g339
ag375
aaa(lp383
I392
aI397
aS'credit'
p384
a(lp385
g375
ag384
aaa(lp386
I392
aI397
ag384
a(lp387
g366
ag384
aaa(lp388
I392
aI397
ag384
a(lp389
g357
ag384
aaa(lp390
I392
aI397
ag384
a(lp391
g348
ag384
aaa(lp392
I407
aI410
aS'book'
p393
a(lp394
g384
ag393
aaa(lp395
I407
aI410
ag393
a(lp396
g375
ag393
aaa(lp397
I407
aI410
ag393
a(lp398
g366
ag393
aaa(lp399
I407
aI410
ag393
a(lp400
g357
ag393
aaa(lp401
I412
aI417
aS'search'
p402
a(lp403
g393
ag402
aaa(lp404
I412
aI417
ag402
a(lp405
g384
ag402
aaa(lp406
I412
aI417
ag402
a(lp407
g375
ag402
aaa(lp408
I412
aI417
ag402
a(lp409
g366
ag402
aaa(lp410
I425
aI432
aS'location'
p411
a(lp412
g402
ag411
aaa(lp413
I425
aI432
ag411
a(lp414
g393
ag411
aaa(lp415
I425
aI432
ag411
a(lp416
g384
ag411
aaa(lp417
I425
aI432
ag411
a(lp418
g375
ag411
aaa(lp419
I437
aI441
aS'dont'
p420
a(lp421
g411
ag420
aaa(lp422
I437
aI441
ag420
a(lp423
g402
ag420
aaa(lp424
I437
aI441
ag420
a(lp425
g393
ag420
aaa(lp426
I437
aI441
ag420
a(lp427
g384
ag420
aaa(lp428
I452
aI460
aS'locations'
p429
a(lp430
g420
ag429
aaa(lp431
I452
aI460
ag429
a(lp432
g411
ag429
aaa(lp433
I452
aI460
ag429
a(lp434
g402
ag429
aaa(lp435
I452
aI460
ag429
a(lp436
g393
ag429
aaa(lp437
I462
aI469
aS'attached'
p438
a(lp439
g429
ag438
aaa(lp440
I462
aI469
ag438
a(lp441
g420
ag438
aaa(lp442
I462
aI469
ag438
a(lp443
g411
ag438
aaa(lp444
I462
aI469
ag438
a(lp445
g402
ag438
aaa(lp446
I479
aI482
aS'book'
p447
a(lp448
g438
ag447
aaa(lp449
I479
aI482
ag447
a(lp450
g429
ag447
aaa(lp451
I479
aI482
ag447
a(lp452
g420
ag447
aaa(lp453
I479
aI482
ag447
a(lp454
g411
ag447
aaa(lp455
I485
aI488
aS'help'
p456
a(lp457
g447
ag456
aaa(lp458
I485
aI488
ag456
a(lp459
g438
ag456
aaa(lp460
I485
aI488
ag456
a(lp461
g429
ag456
aaa(lp462
I485
aI488
ag456
a(lp463
g420
ag456
aaa(lp464
I490
aI491
aS'us'
p465
a(lp466
g456
ag465
aaa(lp467
I490
aI491
ag465
a(lp468
g447
ag465
aaa(lp469
I490
aI491
ag465
a(lp470
g438
ag465
aaa(lp471
I490
aI491
ag465
a(lp472
g429
ag465
aaa(lp473
I493
aI496
aS'fill'
p474
a(lp475
g465
ag474
aaa(lp476
I493
aI496
ag474
a(lp477
g456
ag474
aaa(lp478
I493
aI496
ag474
a(lp479
g447
ag474
aaa(lp480
I493
aI496
ag474
a(lp481
g438
ag474
aaa(lp482
I505
aI512
aS'concepts'
p483
a(lp484
g474
ag483
aaa(lp485
I505
aI512
ag483
a(lp486
g465
ag483
aaa(lp487
I505
aI512
ag483
a(lp488
g456
ag483
aaa(lp489
I505
aI512
ag483
a(lp490
g447
ag483
aaa(lp491
I514
aI516
aS'add'
p492
a(lp493
g483
ag492
aaa(lp494
I514
aI516
ag492
a(lp495
g474
ag492
aaa(lp496
I514
aI516
ag492
a(lp497
g465
ag492
aaa(lp498
I514
aI516
ag492
a(lp499
g456
ag492
aaa(lp500
I520
aI526
aS'concept'
p501
a(lp502
g492
ag501
aaa(lp503
I520
aI526
ag501
a(lp504
g483
ag501
aaa(lp505
I520
aI526
ag501
a(lp506
g474
ag501
aaa(lp507
I520
aI526
ag501
a(lp508
g465
ag501
aaa(lp509
I528
aI533
aS'credit'
p510
a(lp511
g501
ag510
aaa(lp512
I528
aI533
ag510
a(lp513
g492
ag510
aaa(lp514
I528
aI533
ag510
a(lp515
g483
ag510
aaa(lp516
I528
aI533
ag510
a(lp517
g474
ag510
aaa(lp518
I543
aI546
aS'book'
p519
a(lp520
g510
ag519
aaa(lp521
I543
aI546
ag519
a(lp522
g501
ag519
aaa(lp523
I543
aI546
ag519
a(lp524
g492
ag519
aaa(lp525
I543
aI546
ag519
a(lp526
g483
ag519
aaa(lp527
I548
aI553
aS'search'
p528
a(lp529
g519
ag528
aaa(lp530
I548
aI553
ag528
a(lp531
g510
ag528
aaa(lp532
I548
aI553
ag528
a(lp533
g501
ag528
aaa(lp534
I548
aI553
ag528
a(lp535
g492
ag528
aaa(lp536
I561
aI567
aS'concept'
p537
a(lp538
g528
ag537
aaa(lp539
I561
aI567
ag537
a(lp540
g519
ag537
aaa(lp541
I561
aI567
ag537
a(lp542
g510
ag537
aaa(lp543
I561
aI567
ag537
a(lp544
g501
ag537
aaa(lp545
I572
aI576
aS'dont'
p546
a(lp547
g537
ag546
aaa(lp548
I572
aI576
ag546
a(lp549
g528
ag546
aaa(lp550
I572
aI576
ag546
a(lp551
g519
ag546
aaa(lp552
I572
aI576
ag546
a(lp553
g510
ag546
aaa(lp554
I587
aI594
aS'concepts'
p555
a(lp556
g546
ag555
aaa(lp557
I587
aI594
ag555
a(lp558
g537
ag555
aaa(lp559
I587
aI594
ag555
a(lp560
g528
ag555
aaa(lp561
I587
aI594
ag555
a(lp562
g519
ag555
aaa(lp563
I596
aI603
aS'attached'
p564
a(lp565
g555
ag564
aaa(lp566
I596
aI603
ag564
a(lp567
g546
ag564
aaa(lp568
I596
aI603
ag564
a(lp569
g537
ag564
aaa(lp570
I596
aI603
ag564
a(lp571
g528
ag564
aaa(lp572
I613
aI616
aS'book'
p573
a(lp574
g564
ag573
aaa(lp575
I613
aI616
ag573
a(lp576
g555
ag573
aaa(lp577
I613
aI616
ag573
a(lp578
g546
ag573
aaa(lp579
I613
aI616
ag573
a(lp580
g537
ag573
aaa(lp581
I619
aI622
aS'help'
p582
a(lp583
g573
ag582
aaa(lp584
I619
aI622
ag582
a(lp585
g564
ag582
aaa(lp586
I619
aI622
ag582
a(lp587
g555
ag582
aaa(lp588
I619
aI622
ag582
a(lp589
g546
ag582
aaa(lp590
I624
aI625
aS'us'
p591
a(lp592
g582
ag591
aaa(lp593
I624
aI625
ag591
a(lp594
g573
ag591
aaa(lp595
I624
aI625
ag591
a(lp596
g564
ag591
aaa(lp597
I624
aI625
ag591
a(lp598
g555
ag591
aaa(lp599
I627
aI630
aS'fill'
p600
a(lp601
g591
ag600
aaa(lp602
I627
aI630
ag600
a(lp603
g582
ag600
aaa(lp604
I627
aI630
ag600
a(lp605
g573
ag600
aaa(lp606
I627
aI630
ag600
a(lp607
g564
ag600
aaa(lp608
I639
aI645
aS'objects'
p609
a(lp610
g600
ag609
aaa(lp611
I639
aI645
ag609
a(lp612
g591
ag609
aaa(lp613
I639
aI645
ag609
a(lp614
g582
ag609
aaa(lp615
I639
aI645
ag609
a(lp616
g573
ag609
aaa(lp617
I647
aI649
aS'add'
p618
a(lp619
g609
ag618
aaa(lp620
I647
aI649
ag618
a(lp621
g600
ag618
aaa(lp622
I647
aI649
ag618
a(lp623
g591
ag618
aaa(lp624
I647
aI649
ag618
a(lp625
g582
ag618
aaa(lp626
I654
aI659
aS'object'
p627
a(lp628
g618
ag627
aaa(lp629
I654
aI659
ag627
a(lp630
g609
ag627
aaa(lp631
I654
aI659
ag627
a(lp632
g600
ag627
aaa(lp633
I654
aI659
ag627
a(lp634
g591
ag627
aaa(lp635
I661
aI666
aS'credit'
p636
a(lp637
g627
ag636
aaa(lp638
I661
aI666
ag636
a(lp639
g618
ag636
aaa(lp640
I661
aI666
ag636
a(lp641
g609
ag636
aaa(lp642
I661
aI666
ag636
a(lp643
g600
ag636
aaa(lp644
I676
aI679
aS'book'
p645
a(lp646
g636
ag645
aaa(lp647
I676
aI679
ag645
a(lp648
g627
ag645
aaa(lp649
I676
aI679
ag645
a(lp650
g618
ag645
aaa(lp651
I676
aI679
ag645
a(lp652
g609
ag645
aaa(lp653
I681
aI686
aS'search'
p654
a(lp655
g645
ag654
aaa(lp656
I681
aI686
ag654
a(lp657
g636
ag654
aaa(lp658
I681
aI686
ag654
a(lp659
g627
ag654
aaa(lp660
I681
aI686
ag654
a(lp661
g618
ag654
aaasS'wordMap'
p662
(lp663
(lp664
I0
aI3
aS'this'
p665
a(lp666
(lp667
I0
aS't'
p668
aa(lp669
I1
aS'h'
p670
aa(lp671
I2
aS'i'
p672
aa(lp673
I3
aS's'
p674
aaaa(lp675
I5
aI8
ag5
a(lp676
(lp677
I5
aS'p'
p678
aa(lp679
I6
aS'a'
p680
aa(lp681
I7
aS'g'
p682
aa(lp683
I8
aS'e'
p684
aaaa(lp685
I10
aI11
aS'is'
p686
a(lp687
(lp688
I10
ag672
aa(lp689
I11
ag674
aaaa(lp690
I13
aI17
ag15
a(lp691
(lp692
I13
ag684
aa(lp693
I14
aS'm'
p694
aa(lp695
I15
ag678
aa(lp696
I16
ag668
aa(lp697
I17
aS'y'
p698
aaaa(lp699
I20
aI22
ag24
a(lp700
(lp701
I20
aS'u'
p702
aa(lp703
I21
ag674
aa(lp704
I22
ag684
aaaa(lp705
I24
aI26
aS'the'
p706
a(lp707
(lp708
I24
ag668
aa(lp709
I25
ag670
aa(lp710
I26
ag684
aaaa(lp711
I28
aI31
ag33
a(lp712
(lp713
I28
ag684
aa(lp714
I29
aS'd'
p715
aa(lp716
I30
ag672
aa(lp717
I31
ag668
aaaa(lp718
I33
aI39
ag42
a(lp719
(lp720
I33
ag680
aa(lp721
I34
aS'r'
p722
aa(lp723
I35
ag668
aa(lp724
I36
ag672
aa(lp725
I37
aS'c'
p726
aa(lp727
I38
aS'l'
p728
aa(lp729
I39
ag684
aaaa(lp730
I41
aI44
ag51
a(lp731
(lp732
I41
ag728
aa(lp733
I42
ag672
aa(lp734
I43
aS'n'
p735
aa(lp736
I44
aS'k'
p737
aaaa(lp738
I46
aI47
aS'in'
p739
a(lp740
(lp741
I46
ag672
aa(lp742
I47
ag735
aaaa(lp743
I49
aI51
aS'the'
p744
a(lp745
(lp746
I49
ag668
aa(lp747
I50
ag670
aa(lp748
I51
ag684
aaaa(lp749
I53
aI55
ag60
a(lp750
(lp751
I53
ag668
aa(lp752
I54
aS'o'
p753
aa(lp754
I55
ag678
aaaa(lp755
I57
aI61
ag69
a(lp756
(lp757
I57
ag722
aa(lp758
I58
ag672
aa(lp759
I59
ag682
aa(lp760
I60
ag670
aa(lp761
I61
ag668
aaaa(lp762
I63
aI64
aS'of'
p763
a(lp764
(lp765
I63
ag753
aa(lp766
I64
aS'f'
p767
aaaa(lp768
I66
aI69
aS'this'
p769
a(lp770
(lp771
I66
ag668
aa(lp772
I67
ag670
aa(lp773
I68
ag672
aa(lp774
I69
ag674
aaaa(lp775
I71
aI74
ag78
a(lp776
(lp777
I71
ag678
aa(lp778
I72
ag680
aa(lp779
I73
ag682
aa(lp780
I74
ag684
aaaa(lp781
I76
aI77
aS'to'
p782
a(lp783
(lp784
I76
ag668
aa(lp785
I77
ag753
aaaa(lp786
I79
aI82
ag87
a(lp787
(lp788
I79
ag684
aa(lp789
I80
ag715
aa(lp790
I81
ag672
aa(lp791
I82
ag668
aaaa(lp792
I85
aI88
ag96
a(lp793
(lp794
I85
ag678
aa(lp795
I86
ag728
aa(lp796
I87
ag753
aa(lp797
I88
ag668
aaaa(lp798
I90
aI96
ag105
a(lp799
(lp800
I90
ag674
aa(lp801
I91
ag702
aa(lp802
I92
ag694
aa(lp803
I93
ag694
aa(lp804
I94
ag680
aa(lp805
I95
ag722
aa(lp806
I96
ag698
aaaa(lp807
I98
aI100
ag114
a(lp808
(lp809
I98
ag680
aa(lp810
I99
ag715
aa(lp811
I100
ag715
aaaa(lp812
I102
aI102
ag680
a(lp813
(lp814
I102
ag680
aaaa(lp815
I104
aI110
ag123
a(lp816
(lp817
I104
ag726
aa(lp818
I105
ag722
aa(lp819
I106
ag684
aa(lp820
I107
ag680
aa(lp821
I108
ag668
aa(lp822
I109
ag753
aa(lp823
I110
ag722
aaaa(lp824
I112
aI117
ag132
a(lp825
(lp826
I112
ag726
aa(lp827
I113
ag722
aa(lp828
I114
ag684
aa(lp829
I115
ag715
aa(lp830
I116
ag672
aa(lp831
I117
ag668
aaaa(lp832
I119
aI120
aS'to'
p833
a(lp834
(lp835
I119
ag668
aa(lp836
I120
ag753
aaaa(lp837
I122
aI125
aS'this'
p838
a(lp839
(lp840
I122
ag668
aa(lp841
I123
ag670
aa(lp842
I124
ag672
aa(lp843
I125
ag674
aaaa(lp844
I127
aI131
ag141
a(lp845
(lp846
I127
ag672
aa(lp847
I128
ag674
aa(lp848
I129
ag674
aa(lp849
I130
ag702
aa(lp850
I131
ag684
aaaa(lp851
I133
aI138
ag150
a(lp852
(lp853
I133
ag674
aa(lp854
I134
ag684
aa(lp855
I135
ag680
aa(lp856
I136
ag722
aa(lp857
I137
ag726
aa(lp858
I138
ag670
aaaa(lp859
I140
aI142
aS'for'
p860
a(lp861
(lp862
I140
ag767
aa(lp863
I141
ag753
aa(lp864
I142
ag722
aaaa(lp865
I144
aI144
ag680
a(lp866
(lp867
I144
ag680
aaaa(lp868
I146
aI152
ag159
a(lp869
(lp870
I146
ag726
aa(lp871
I147
ag722
aa(lp872
I148
ag684
aa(lp873
I149
ag680
aa(lp874
I150
ag668
aa(lp875
I151
ag753
aa(lp876
I152
ag722
aaaa(lp877
I154
aI155
aS'we'
p878
a(lp879
(lp880
I154
aS'w'
p881
aa(lp882
I155
ag684
aaaa(lp883
I157
aI161
ag168
a(lp884
(lp885
I157
ag715
aa(lp886
I158
ag753
aa(lp887
I159
ag735
aa(lp888
I161
ag668
aaaa(lp889
I163
aI166
aS'have'
p890
a(lp891
(lp892
I163
ag670
aa(lp893
I164
ag680
aa(lp894
I165
aS'v'
p895
aa(lp896
I166
ag684
aaaa(lp897
I168
aI170
aS'any'
p898
a(lp899
(lp900
I168
ag680
aa(lp901
I169
ag735
aa(lp902
I170
ag698
aaaa(lp903
I172
aI179
ag177
a(lp904
(lp905
I172
ag726
aa(lp906
I173
ag722
aa(lp907
I174
ag684
aa(lp908
I175
ag680
aa(lp909
I176
ag668
aa(lp910
I177
ag753
aa(lp911
I178
ag722
aa(lp912
I179
ag674
aaaa(lp913
I181
aI188
ag186
a(lp914
(lp915
I181
ag680
aa(lp916
I182
ag668
aa(lp917
I183
ag668
aa(lp918
I184
ag680
aa(lp919
I185
ag726
aa(lp920
I186
ag670
aa(lp921
I187
ag684
aa(lp922
I188
ag715
aaaa(lp923
I190
aI191
aS'to'
p924
a(lp925
(lp926
I190
ag668
aa(lp927
I191
ag753
aaaa(lp928
I193
aI196
aS'this'
p929
a(lp930
(lp931
I193
ag668
aa(lp932
I194
ag670
aa(lp933
I195
ag672
aa(lp934
I196
ag674
aaaa(lp935
I198
aI202
ag195
a(lp936
(lp937
I198
ag672
aa(lp938
I199
ag674
aa(lp939
I200
ag674
aa(lp940
I201
ag702
aa(lp941
I202
ag684
aaaa(lp942
I205
aI208
ag204
a(lp943
(lp944
I205
ag670
aa(lp945
I206
ag684
aa(lp946
I207
ag728
aa(lp947
I208
ag678
aaaa(lp948
I210
aI211
ag213
a(lp949
(lp950
I210
ag702
aa(lp951
I211
ag674
aaaa(lp952
I213
aI216
ag222
a(lp953
(lp954
I213
ag767
aa(lp955
I214
ag672
aa(lp956
I215
ag728
aa(lp957
I216
ag728
aaaa(lp958
I218
aI219
aS'it'
p959
a(lp960
(lp961
I218
ag672
aa(lp962
I219
ag668
aaaa(lp963
I221
aI222
aS'in'
p964
a(lp965
(lp966
I221
ag672
aa(lp967
I222
ag735
aaaa(lp968
I225
aI234
ag231
a(lp969
(lp970
I225
ag726
aa(lp971
I226
ag670
aa(lp972
I227
ag680
aa(lp973
I228
ag722
aa(lp974
I229
ag680
aa(lp975
I230
ag726
aa(lp976
I231
ag668
aa(lp977
I232
ag684
aa(lp978
I233
ag722
aa(lp979
I234
ag674
aaaa(lp980
I236
aI238
ag240
a(lp981
(lp982
I236
ag680
aa(lp983
I237
ag715
aa(lp984
I238
ag715
aaaa(lp985
I240
aI240
ag680
a(lp986
(lp987
I240
ag680
aaaa(lp988
I242
aI250
ag249
a(lp989
(lp990
I242
ag726
aa(lp991
I243
ag670
aa(lp992
I244
ag680
aa(lp993
I245
ag722
aa(lp994
I246
ag680
aa(lp995
I247
ag726
aa(lp996
I248
ag668
aa(lp997
I249
ag684
aa(lp998
I250
ag722
aaaa(lp999
I252
aI257
ag258
a(lp1000
(lp1001
I252
ag726
aa(lp1002
I253
ag722
aa(lp1003
I254
ag684
aa(lp1004
I255
ag715
aa(lp1005
I256
ag672
aa(lp1006
I257
ag668
aaaa(lp1007
I259
aI260
aS'to'
p1008
a(lp1009
(lp1010
I259
ag668
aa(lp1011
I260
ag753
aaaa(lp1012
I262
aI265
aS'this'
p1013
a(lp1014
(lp1015
I262
ag668
aa(lp1016
I263
ag670
aa(lp1017
I264
ag672
aa(lp1018
I265
ag674
aaaa(lp1019
I267
aI270
ag267
a(lp1020
(lp1021
I267
aS'b'
p1022
aa(lp1023
I268
ag753
aa(lp1024
I269
ag753
aa(lp1025
I270
ag737
aaaa(lp1026
I272
aI277
ag276
a(lp1027
(lp1028
I272
ag674
aa(lp1029
I273
ag684
aa(lp1030
I274
ag680
aa(lp1031
I275
ag722
aa(lp1032
I276
ag726
aa(lp1033
I277
ag670
aaaa(lp1034
I279
aI281
aS'for'
p1035
a(lp1036
(lp1037
I279
ag767
aa(lp1038
I280
ag753
aa(lp1039
I281
ag722
aaaa(lp1040
I283
aI283
ag680
a(lp1041
(lp1042
I283
ag680
aaaa(lp1043
I285
aI293
ag285
a(lp1044
(lp1045
I285
ag726
aa(lp1046
I286
ag670
aa(lp1047
I287
ag680
aa(lp1048
I288
ag722
aa(lp1049
I289
ag680
aa(lp1050
I290
ag726
aa(lp1051
I291
ag668
aa(lp1052
I292
ag684
aa(lp1053
I293
ag722
aaaa(lp1054
I295
aI296
aS'we'
p1055
a(lp1056
(lp1057
I295
ag881
aa(lp1058
I296
ag684
aaaa(lp1059
I298
aI302
ag294
a(lp1060
(lp1061
I298
ag715
aa(lp1062
I299
ag753
aa(lp1063
I300
ag735
aa(lp1064
I302
ag668
aaaa(lp1065
I304
aI307
aS'have'
p1066
a(lp1067
(lp1068
I304
ag670
aa(lp1069
I305
ag680
aa(lp1070
I306
ag895
aa(lp1071
I307
ag684
aaaa(lp1072
I309
aI311
aS'any'
p1073
a(lp1074
(lp1075
I309
ag680
aa(lp1076
I310
ag735
aa(lp1077
I311
ag698
aaaa(lp1078
I313
aI322
ag303
a(lp1079
(lp1080
I313
ag726
aa(lp1081
I314
ag670
aa(lp1082
I315
ag680
aa(lp1083
I316
ag722
aa(lp1084
I317
ag680
aa(lp1085
I318
ag726
aa(lp1086
I319
ag668
aa(lp1087
I320
ag684
aa(lp1088
I321
ag722
aa(lp1089
I322
ag674
aaaa(lp1090
I324
aI331
ag312
a(lp1091
(lp1092
I324
ag680
aa(lp1093
I325
ag668
aa(lp1094
I326
ag668
aa(lp1095
I327
ag680
aa(lp1096
I328
ag726
aa(lp1097
I329
ag670
aa(lp1098
I330
ag684
aa(lp1099
I331
ag715
aaaa(lp1100
I333
aI334
aS'to'
p1101
a(lp1102
(lp1103
I333
ag668
aa(lp1104
I334
ag753
aaaa(lp1105
I336
aI339
aS'this'
p1106
a(lp1107
(lp1108
I336
ag668
aa(lp1109
I337
ag670
aa(lp1110
I338
ag672
aa(lp1111
I339
ag674
aaaa(lp1112
I341
aI344
ag321
a(lp1113
(lp1114
I341
ag1022
aa(lp1115
I342
ag753
aa(lp1116
I343
ag753
aa(lp1117
I344
ag737
aaaa(lp1118
I347
aI350
ag330
a(lp1119
(lp1120
I347
ag670
aa(lp1121
I348
ag684
aa(lp1122
I349
ag728
aa(lp1123
I350
ag678
aaaa(lp1124
I352
aI353
ag339
a(lp1125
(lp1126
I352
ag702
aa(lp1127
I353
ag674
aaaa(lp1128
I355
aI358
ag348
a(lp1129
(lp1130
I355
ag767
aa(lp1131
I356
ag672
aa(lp1132
I357
ag728
aa(lp1133
I358
ag728
aaaa(lp1134
I360
aI361
aS'it'
p1135
a(lp1136
(lp1137
I360
ag672
aa(lp1138
I361
ag668
aaaa(lp1139
I363
aI364
aS'in'
p1140
a(lp1141
(lp1142
I363
ag672
aa(lp1143
I364
ag735
aaaa(lp1144
I367
aI375
ag357
a(lp1145
(lp1146
I367
ag728
aa(lp1147
I368
ag753
aa(lp1148
I369
ag726
aa(lp1149
I370
ag680
aa(lp1150
I371
ag668
aa(lp1151
I372
ag672
aa(lp1152
I373
ag753
aa(lp1153
I374
ag735
aa(lp1154
I375
ag674
aaaa(lp1155
I377
aI379
ag366
a(lp1156
(lp1157
I377
ag680
aa(lp1158
I378
ag715
aa(lp1159
I379
ag715
aaaa(lp1160
I381
aI381
ag680
a(lp1161
(lp1162
I381
ag680
aaaa(lp1163
I383
aI390
ag375
a(lp1164
(lp1165
I383
ag728
aa(lp1166
I384
ag753
aa(lp1167
I385
ag726
aa(lp1168
I386
ag680
aa(lp1169
I387
ag668
aa(lp1170
I388
ag672
aa(lp1171
I389
ag753
aa(lp1172
I390
ag735
aaaa(lp1173
I392
aI397
ag384
a(lp1174
(lp1175
I392
ag726
aa(lp1176
I393
ag722
aa(lp1177
I394
ag684
aa(lp1178
I395
ag715
aa(lp1179
I396
ag672
aa(lp1180
I397
ag668
aaaa(lp1181
I399
aI400
aS'to'
p1182
a(lp1183
(lp1184
I399
ag668
aa(lp1185
I400
ag753
aaaa(lp1186
I402
aI405
aS'this'
p1187
a(lp1188
(lp1189
I402
ag668
aa(lp1190
I403
ag670
aa(lp1191
I404
ag672
aa(lp1192
I405
ag674
aaaa(lp1193
I407
aI410
ag393
a(lp1194
(lp1195
I407
ag1022
aa(lp1196
I408
ag753
aa(lp1197
I409
ag753
aa(lp1198
I410
ag737
aaaa(lp1199
I412
aI417
ag402
a(lp1200
(lp1201
I412
ag674
aa(lp1202
I413
ag684
aa(lp1203
I414
ag680
aa(lp1204
I415
ag722
aa(lp1205
I416
ag726
aa(lp1206
I417
ag670
aaaa(lp1207
I419
aI421
aS'for'
p1208
a(lp1209
(lp1210
I419
ag767
aa(lp1211
I420
ag753
aa(lp1212
I421
ag722
aaaa(lp1213
I423
aI423
ag680
a(lp1214
(lp1215
I423
ag680
aaaa(lp1216
I425
aI432
ag411
a(lp1217
(lp1218
I425
ag728
aa(lp1219
I426
ag753
aa(lp1220
I427
ag726
aa(lp1221
I428
ag680
aa(lp1222
I429
ag668
aa(lp1223
I430
ag672
aa(lp1224
I431
ag753
aa(lp1225
I432
ag735
aaaa(lp1226
I434
aI435
aS'we'
p1227
a(lp1228
(lp1229
I434
ag881
aa(lp1230
I435
ag684
aaaa(lp1231
I437
aI441
ag420
a(lp1232
(lp1233
I437
ag715
aa(lp1234
I438
ag753
aa(lp1235
I439
ag735
aa(lp1236
I441
ag668
aaaa(lp1237
I443
aI446
aS'have'
p1238
a(lp1239
(lp1240
I443
ag670
aa(lp1241
I444
ag680
aa(lp1242
I445
ag895
aa(lp1243
I446
ag684
aaaa(lp1244
I448
aI450
aS'any'
p1245
a(lp1246
(lp1247
I448
ag680
aa(lp1248
I449
ag735
aa(lp1249
I450
ag698
aaaa(lp1250
I452
aI460
ag429
a(lp1251
(lp1252
I452
ag728
aa(lp1253
I453
ag753
aa(lp1254
I454
ag726
aa(lp1255
I455
ag680
aa(lp1256
I456
ag668
aa(lp1257
I457
ag672
aa(lp1258
I458
ag753
aa(lp1259
I459
ag735
aa(lp1260
I460
ag674
aaaa(lp1261
I462
aI469
ag438
a(lp1262
(lp1263
I462
ag680
aa(lp1264
I463
ag668
aa(lp1265
I464
ag668
aa(lp1266
I465
ag680
aa(lp1267
I466
ag726
aa(lp1268
I467
ag670
aa(lp1269
I468
ag684
aa(lp1270
I469
ag715
aaaa(lp1271
I471
aI472
aS'to'
p1272
a(lp1273
(lp1274
I471
ag668
aa(lp1275
I472
ag753
aaaa(lp1276
I474
aI477
aS'this'
p1277
a(lp1278
(lp1279
I474
ag668
aa(lp1280
I475
ag670
aa(lp1281
I476
ag672
aa(lp1282
I477
ag674
aaaa(lp1283
I479
aI482
ag447
a(lp1284
(lp1285
I479
ag1022
aa(lp1286
I480
ag753
aa(lp1287
I481
ag753
aa(lp1288
I482
ag737
aaaa(lp1289
I485
aI488
ag456
a(lp1290
(lp1291
I485
ag670
aa(lp1292
I486
ag684
aa(lp1293
I487
ag728
aa(lp1294
I488
ag678
aaaa(lp1295
I490
aI491
ag465
a(lp1296
(lp1297
I490
ag702
aa(lp1298
I491
ag674
aaaa(lp1299
I493
aI496
ag474
a(lp1300
(lp1301
I493
ag767
aa(lp1302
I494
ag672
aa(lp1303
I495
ag728
aa(lp1304
I496
ag728
aaaa(lp1305
I498
aI499
aS'it'
p1306
a(lp1307
(lp1308
I498
ag672
aa(lp1309
I499
ag668
aaaa(lp1310
I501
aI502
aS'in'
p1311
a(lp1312
(lp1313
I501
ag672
aa(lp1314
I502
ag735
aaaa(lp1315
I505
aI512
ag483
a(lp1316
(lp1317
I505
ag726
aa(lp1318
I506
ag753
aa(lp1319
I507
ag735
aa(lp1320
I508
ag726
aa(lp1321
I509
ag684
aa(lp1322
I510
ag678
aa(lp1323
I511
ag668
aa(lp1324
I512
ag674
aaaa(lp1325
I514
aI516
ag492
a(lp1326
(lp1327
I514
ag680
aa(lp1328
I515
ag715
aa(lp1329
I516
ag715
aaaa(lp1330
I518
aI518
ag680
a(lp1331
(lp1332
I518
ag680
aaaa(lp1333
I520
aI526
ag501
a(lp1334
(lp1335
I520
ag726
aa(lp1336
I521
ag753
aa(lp1337
I522
ag735
aa(lp1338
I523
ag726
aa(lp1339
I524
ag684
aa(lp1340
I525
ag678
aa(lp1341
I526
ag668
aaaa(lp1342
I528
aI533
ag510
a(lp1343
(lp1344
I528
ag726
aa(lp1345
I529
ag722
aa(lp1346
I530
ag684
aa(lp1347
I531
ag715
aa(lp1348
I532
ag672
aa(lp1349
I533
ag668
aaaa(lp1350
I535
aI536
aS'to'
p1351
a(lp1352
(lp1353
I535
ag668
aa(lp1354
I536
ag753
aaaa(lp1355
I538
aI541
aS'this'
p1356
a(lp1357
(lp1358
I538
ag668
aa(lp1359
I539
ag670
aa(lp1360
I540
ag672
aa(lp1361
I541
ag674
aaaa(lp1362
I543
aI546
ag519
a(lp1363
(lp1364
I543
ag1022
aa(lp1365
I544
ag753
aa(lp1366
I545
ag753
aa(lp1367
I546
ag737
aaaa(lp1368
I548
aI553
ag528
a(lp1369
(lp1370
I548
ag674
aa(lp1371
I549
ag684
aa(lp1372
I550
ag680
aa(lp1373
I551
ag722
aa(lp1374
I552
ag726
aa(lp1375
I553
ag670
aaaa(lp1376
I555
aI557
aS'for'
p1377
a(lp1378
(lp1379
I555
ag767
aa(lp1380
I556
ag753
aa(lp1381
I557
ag722
aaaa(lp1382
I559
aI559
ag680
a(lp1383
(lp1384
I559
ag680
aaaa(lp1385
I561
aI567
ag537
a(lp1386
(lp1387
I561
ag726
aa(lp1388
I562
ag753
aa(lp1389
I563
ag735
aa(lp1390
I564
ag726
aa(lp1391
I565
ag684
aa(lp1392
I566
ag678
aa(lp1393
I567
ag668
aaaa(lp1394
I569
aI570
aS'we'
p1395
a(lp1396
(lp1397
I569
ag881
aa(lp1398
I570
ag684
aaaa(lp1399
I572
aI576
ag546
a(lp1400
(lp1401
I572
ag715
aa(lp1402
I573
ag753
aa(lp1403
I574
ag735
aa(lp1404
I576
ag668
aaaa(lp1405
I578
aI581
aS'have'
p1406
a(lp1407
(lp1408
I578
ag670
aa(lp1409
I579
ag680
aa(lp1410
I580
ag895
aa(lp1411
I581
ag684
aaaa(lp1412
I583
aI585
aS'any'
p1413
a(lp1414
(lp1415
I583
ag680
aa(lp1416
I584
ag735
aa(lp1417
I585
ag698
aaaa(lp1418
I587
aI594
ag555
a(lp1419
(lp1420
I587
ag726
aa(lp1421
I588
ag753
aa(lp1422
I589
ag735
aa(lp1423
I590
ag726
aa(lp1424
I591
ag684
aa(lp1425
I592
ag678
aa(lp1426
I593
ag668
aa(lp1427
I594
ag674
aaaa(lp1428
I596
aI603
ag564
a(lp1429
(lp1430
I596
ag680
aa(lp1431
I597
ag668
aa(lp1432
I598
ag668
aa(lp1433
I599
ag680
aa(lp1434
I600
ag726
aa(lp1435
I601
ag670
aa(lp1436
I602
ag684
aa(lp1437
I603
ag715
aaaa(lp1438
I605
aI606
aS'to'
p1439
a(lp1440
(lp1441
I605
ag668
aa(lp1442
I606
ag753
aaaa(lp1443
I608
aI611
aS'this'
p1444
a(lp1445
(lp1446
I608
ag668
aa(lp1447
I609
ag670
aa(lp1448
I610
ag672
aa(lp1449
I611
ag674
aaaa(lp1450
I613
aI616
ag573
a(lp1451
(lp1452
I613
ag1022
aa(lp1453
I614
ag753
aa(lp1454
I615
ag753
aa(lp1455
I616
ag737
aaaa(lp1456
I619
aI622
ag582
a(lp1457
(lp1458
I619
ag670
aa(lp1459
I620
ag684
aa(lp1460
I621
ag728
aa(lp1461
I622
ag678
aaaa(lp1462
I624
aI625
ag591
a(lp1463
(lp1464
I624
ag702
aa(lp1465
I625
ag674
aaaa(lp1466
I627
aI630
ag600
a(lp1467
(lp1468
I627
ag767
aa(lp1469
I628
ag672
aa(lp1470
I629
ag728
aa(lp1471
I630
ag728
aaaa(lp1472
I632
aI633
aS'it'
p1473
a(lp1474
(lp1475
I632
ag672
aa(lp1476
I633
ag668
aaaa(lp1477
I635
aI636
aS'in'
p1478
a(lp1479
(lp1480
I635
ag672
aa(lp1481
I636
ag735
aaaa(lp1482
I639
aI645
ag609
a(lp1483
(lp1484
I639
ag753
aa(lp1485
I640
ag1022
aa(lp1486
I641
aS'j'
p1487
aa(lp1488
I642
ag684
aa(lp1489
I643
ag726
aa(lp1490
I644
ag668
aa(lp1491
I645
ag674
aaaa(lp1492
I647
aI649
ag618
a(lp1493
(lp1494
I647
ag680
aa(lp1495
I648
ag715
aa(lp1496
I649
ag715
aaaa(lp1497
I651
aI652
aS'an'
p1498
a(lp1499
(lp1500
I651
ag680
aa(lp1501
I652
ag735
aaaa(lp1502
I654
aI659
ag627
a(lp1503
(lp1504
I654
ag753
aa(lp1505
I655
ag1022
aa(lp1506
I656
ag1487
aa(lp1507
I657
ag684
aa(lp1508
I658
ag726
aa(lp1509
I659
ag668
aaaa(lp1510
I661
aI666
ag636
a(lp1511
(lp1512
I661
ag726
aa(lp1513
I662
ag722
aa(lp1514
I663
ag684
aa(lp1515
I664
ag715
aa(lp1516
I665
ag672
aa(lp1517
I666
ag668
aaaa(lp1518
I668
aI669
aS'to'
p1519
a(lp1520
(lp1521
I668
ag668
aa(lp1522
I669
ag753
aaaa(lp1523
I671
aI674
aS'this'
p1524
a(lp1525
(lp1526
I671
ag668
aa(lp1527
I672
ag670
aa(lp1528
I673
ag672
aa(lp1529
I674
ag674
aaaa(lp1530
I676
aI679
ag645
a(lp1531
(lp1532
I676
ag1022
aa(lp1533
I677
ag753
aa(lp1534
I678
ag753
aa(lp1535
I679
ag737
aaaa(lp1536
I681
aI686
ag654
a(lp1537
(lp1538
I681
ag674
aa(lp1539
I682
ag684
aa(lp1540
I683
ag680
aa(lp1541
I684
ag722
aa(lp1542
I685
ag726
aa(lp1543
I686
ag670
aaaa(lp1544
I688
aI690
aS'for'
p1545
a(lp1546
(lp1547
I688
ag767
aa(lp1548
I689
ag753
aa(lp1549
I690
ag722
aaaa(lp1550
I692
aI693
aS'an'
p1551
a(lp1552
(lp1553
I692
ag680
aa(lp1554
I693
ag735
aaaasS'cleanCharacterMap'
p1555
(lp1556
g667
ag669
ag671
ag673
a(lp1557
I4
aS' '
p1558
aag677
ag679
ag681
ag683
a(lp1559
I9
ag1558
aag688
ag689
a(lp1560
I12
ag1558
aag692
ag693
ag695
ag696
ag697
a(lp1561
I19
ag1558
aag701
ag703
ag704
a(lp1562
I23
ag1558
aag708
ag709
ag710
a(lp1563
I27
ag1558
aag713
ag714
ag716
ag717
a(lp1564
I32
ag1558
aag720
ag721
ag723
ag724
ag725
ag727
ag729
a(lp1565
I40
ag1558
aag732
ag733
ag734
ag736
a(lp1566
I45
ag1558
aag741
ag742
a(lp1567
I48
ag1558
aag746
ag747
ag748
a(lp1568
I52
ag1558
aag751
ag752
ag754
a(lp1569
I56
ag1558
aag757
ag758
ag759
ag760
ag761
a(lp1570
I62
ag1558
aag765
ag766
a(lp1571
I65
ag1558
aag771
ag772
ag773
ag774
a(lp1572
I70
ag1558
aag777
ag778
ag779
ag780
a(lp1573
I75
ag1558
aag784
ag785
a(lp1574
I78
ag1558
aag788
ag789
ag790
ag791
a(lp1575
I84
ag1558
aag794
ag795
ag796
ag797
a(lp1576
I89
ag1558
aag800
ag801
ag802
ag803
ag804
ag805
ag806
a(lp1577
I97
ag1558
aag809
ag810
ag811
a(lp1578
I101
ag1558
aag814
a(lp1579
I103
ag1558
aag817
ag818
ag819
ag820
ag821
ag822
ag823
a(lp1580
I111
ag1558
aag826
ag827
ag828
ag829
ag830
ag831
a(lp1581
I118
ag1558
aag835
ag836
a(lp1582
I121
ag1558
aag840
ag841
ag842
ag843
a(lp1583
I126
ag1558
aag846
ag847
ag848
ag849
ag850
a(lp1584
I132
ag1558
aag853
ag854
ag855
ag856
ag857
ag858
a(lp1585
I139
ag1558
aag862
ag863
ag864
a(lp1586
I143
ag1558
aag867
a(lp1587
I145
ag1558
aag870
ag871
ag872
ag873
ag874
ag875
ag876
a(lp1588
I153
ag1558
aag880
ag882
a(lp1589
I156
ag1558
aag885
ag886
ag887
ag888
a(lp1590
I162
ag1558
aag892
ag893
ag894
ag896
a(lp1591
I167
ag1558
aag900
ag901
ag902
a(lp1592
I171
ag1558
aag905
ag906
ag907
ag908
ag909
ag910
ag911
ag912
a(lp1593
I180
ag1558
aag915
ag916
ag917
ag918
ag919
ag920
ag921
ag922
a(lp1594
I189
ag1558
aag926
ag927
a(lp1595
I192
ag1558
aag931
ag932
ag933
ag934
a(lp1596
I197
ag1558
aag937
ag938
ag939
ag940
ag941
a(lp1597
I204
ag1558
aag944
ag945
ag946
ag947
a(lp1598
I209
ag1558
aag950
ag951
a(lp1599
I212
ag1558
aag954
ag955
ag956
ag957
a(lp1600
I217
ag1558
aag961
ag962
a(lp1601
I220
ag1558
aag966
ag967
a(lp1602
I224
ag1558
aag970
ag971
ag972
ag973
ag974
ag975
ag976
ag977
ag978
ag979
a(lp1603
I235
ag1558
aag982
ag983
ag984
a(lp1604
I239
ag1558
aag987
a(lp1605
I241
ag1558
aag990
ag991
ag992
ag993
ag994
ag995
ag996
ag997
ag998
a(lp1606
I251
ag1558
aag1001
ag1002
ag1003
ag1004
ag1005
ag1006
a(lp1607
I258
ag1558
aag1010
ag1011
a(lp1608
I261
ag1558
aag1015
ag1016
ag1017
ag1018
a(lp1609
I266
ag1558
aag1021
ag1023
ag1024
ag1025
a(lp1610
I271
ag1558
aag1028
ag1029
ag1030
ag1031
ag1032
ag1033
a(lp1611
I278
ag1558
aag1037
ag1038
ag1039
a(lp1612
I282
ag1558
aag1042
a(lp1613
I284
ag1558
aag1045
ag1046
ag1047
ag1048
ag1049
ag1050
ag1051
ag1052
ag1053
a(lp1614
I294
ag1558
aag1057
ag1058
a(lp1615
I297
ag1558
aag1061
ag1062
ag1063
ag1064
a(lp1616
I303
ag1558
aag1068
ag1069
ag1070
ag1071
a(lp1617
I308
ag1558
aag1075
ag1076
ag1077
a(lp1618
I312
ag1558
aag1080
ag1081
ag1082
ag1083
ag1084
ag1085
ag1086
ag1087
ag1088
ag1089
a(lp1619
I323
ag1558
aag1092
ag1093
ag1094
ag1095
ag1096
ag1097
ag1098
ag1099
a(lp1620
I332
ag1558
aag1103
ag1104
a(lp1621
I335
ag1558
aag1108
ag1109
ag1110
ag1111
a(lp1622
I340
ag1558
aag1114
ag1115
ag1116
ag1117
a(lp1623
I346
ag1558
aag1120
ag1121
ag1122
ag1123
a(lp1624
I351
ag1558
aag1126
ag1127
a(lp1625
I354
ag1558
aag1130
ag1131
ag1132
ag1133
a(lp1626
I359
ag1558
aag1137
ag1138
a(lp1627
I362
ag1558
aag1142
ag1143
a(lp1628
I366
ag1558
aag1146
ag1147
ag1148
ag1149
ag1150
ag1151
ag1152
ag1153
ag1154
a(lp1629
I376
ag1558
aag1157
ag1158
ag1159
a(lp1630
I380
ag1558
aag1162
a(lp1631
I382
ag1558
aag1165
ag1166
ag1167
ag1168
ag1169
ag1170
ag1171
ag1172
a(lp1632
I391
ag1558
aag1175
ag1176
ag1177
ag1178
ag1179
ag1180
a(lp1633
I398
ag1558
aag1184
ag1185
a(lp1634
I401
ag1558
aag1189
ag1190
ag1191
ag1192
a(lp1635
I406
ag1558
aag1195
ag1196
ag1197
ag1198
a(lp1636
I411
ag1558
aag1201
ag1202
ag1203
ag1204
ag1205
ag1206
a(lp1637
I418
ag1558
aag1210
ag1211
ag1212
a(lp1638
I422
ag1558
aag1215
a(lp1639
I424
ag1558
aag1218
ag1219
ag1220
ag1221
ag1222
ag1223
ag1224
ag1225
a(lp1640
I433
ag1558
aag1229
ag1230
a(lp1641
I436
ag1558
aag1233
ag1234
ag1235
ag1236
a(lp1642
I442
ag1558
aag1240
ag1241
ag1242
ag1243
a(lp1643
I447
ag1558
aag1247
ag1248
ag1249
a(lp1644
I451
ag1558
aag1252
ag1253
ag1254
ag1255
ag1256
ag1257
ag1258
ag1259
ag1260
a(lp1645
I461
ag1558
aag1263
ag1264
ag1265
ag1266
ag1267
ag1268
ag1269
ag1270
a(lp1646
I470
ag1558
aag1274
ag1275
a(lp1647
I473
ag1558
aag1279
ag1280
ag1281
ag1282
a(lp1648
I478
ag1558
aag1285
ag1286
ag1287
ag1288
a(lp1649
I484
ag1558
aag1291
ag1292
ag1293
ag1294
a(lp1650
I489
ag1558
aag1297
ag1298
a(lp1651
I492
ag1558
aag1301
ag1302
ag1303
ag1304
a(lp1652
I497
ag1558
aag1308
ag1309
a(lp1653
I500
ag1558
aag1313
ag1314
a(lp1654
I504
ag1558
aag1317
ag1318
ag1319
ag1320
ag1321
ag1322
ag1323
ag1324
a(lp1655
I513
ag1558
aag1327
ag1328
ag1329
a(lp1656
I517
ag1558
aag1332
a(lp1657
I519
ag1558
aag1335
ag1336
ag1337
ag1338
ag1339
ag1340
ag1341
a(lp1658
I527
ag1558
aag1344
ag1345
ag1346
ag1347
ag1348
ag1349
a(lp1659
I534
ag1558
aag1353
ag1354
a(lp1660
I537
ag1558
aag1358
ag1359
ag1360
ag1361
a(lp1661
I542
ag1558
aag1364
ag1365
ag1366
ag1367
a(lp1662
I547
ag1558
aag1370
ag1371
ag1372
ag1373
ag1374
ag1375
a(lp1663
I554
ag1558
aag1379
ag1380
ag1381
a(lp1664
I558
ag1558
aag1384
a(lp1665
I560
ag1558
aag1387
ag1388
ag1389
ag1390
ag1391
ag1392
ag1393
a(lp1666
I568
ag1558
aag1397
ag1398
a(lp1667
I571
ag1558
aag1401
ag1402
ag1403
ag1404
a(lp1668
I577
ag1558
aag1408
ag1409
ag1410
ag1411
a(lp1669
I582
ag1558
aag1415
ag1416
ag1417
a(lp1670
I586
ag1558
aag1420
ag1421
ag1422
ag1423
ag1424
ag1425
ag1426
ag1427
a(lp1671
I595
ag1558
aag1430
ag1431
ag1432
ag1433
ag1434
ag1435
ag1436
ag1437
a(lp1672
I604
ag1558
aag1441
ag1442
a(lp1673
I607
ag1558
aag1446
ag1447
ag1448
ag1449
a(lp1674
I612
ag1558
aag1452
ag1453
ag1454
ag1455
a(lp1675
I618
ag1558
aag1458
ag1459
ag1460
ag1461
a(lp1676
I623
ag1558
aag1464
ag1465
a(lp1677
I626
ag1558
aag1468
ag1469
ag1470
ag1471
a(lp1678
I631
ag1558
aag1475
ag1476
a(lp1679
I634
ag1558
aag1480
ag1481
a(lp1680
I638
ag1558
aag1484
ag1485
ag1486
ag1488
ag1489
ag1490
ag1491
a(lp1681
I646
ag1558
aag1494
ag1495
ag1496
a(lp1682
I650
ag1558
aag1500
ag1501
a(lp1683
I653
ag1558
aag1504
ag1505
ag1506
ag1507
ag1508
ag1509
a(lp1684
I660
ag1558
aag1512
ag1513
ag1514
ag1515
ag1516
ag1517
a(lp1685
I667
ag1558
aag1521
ag1522
a(lp1686
I670
ag1558
aag1526
ag1527
ag1528
ag1529
a(lp1687
I675
ag1558
aag1532
ag1533
ag1534
ag1535
a(lp1688
I680
ag1558
aag1538
ag1539
ag1540
ag1541
ag1542
ag1543
a(lp1689
I687
ag1558
aag1547
ag1548
ag1549
a(lp1690
I691
ag1558
aag1553
ag1554
a(lp1691
I694
ag1558
aa(lp1692
I695
ag753
aa(lp1693
I696
ag1022
aa(lp1694
I697
ag1487
aa(lp1695
I698
ag684
aa(lp1696
I699
ag726
aa(lp1697
I700
ag668
aasS'text'
p1698
S"this page is empty. use the edit article link in the top right of this page to edit. plot summary add a creator credit to this issue search for a creator we don't have any creators attached to this issue. help us fill it in! characters add a character credit to this book search for a character we don't have any characters attached to this book. help us fill it in! locations add a location credit to this book search for a location we don't have any locations attached to this book. help us fill it in! concepts add a concept credit to this book search for a concept we don't have any concepts attached to this book. help us fill it in! objects add an object credit to this book search for an object"
p1699
sS'cleanWordMap'
p1700
(lp1701
g675
ag690
ag699
ag711
ag718
ag730
ag749
ag755
ag775
ag786
ag792
ag798
ag807
ag815
ag824
ag844
ag851
ag868
ag883
ag903
ag913
ag935
ag942
ag948
ag952
ag968
ag980
ag988
ag999
ag1019
ag1026
ag1043
ag1059
ag1078
ag1090
ag1112
ag1118
ag1124
ag1128
ag1144
ag1155
ag1163
ag1173
ag1193
ag1199
ag1216
ag1231
ag1250
ag1261
ag1283
ag1289
ag1295
ag1299
ag1315
ag1325
ag1333
ag1342
ag1362
ag1368
ag1385
ag1399
ag1418
ag1428
ag1450
ag1456
ag1462
ag1466
ag1482
ag1492
ag1502
ag1510
ag1530
ag1536
asS'lines'
p1702
(lp1703
VThis page is empty. Use the edit article link in the top right of this page to edit.\u000a
p1704
aVPlot Summary\u000a
p1705
aVAdd a creator credit to this issue\u000a
p1706
aVSearch for a creator\u000a
p1707
aVWe don't have any creators attached to this issue. Help us fill it in!\u000a
p1708
aVCharacters\u000a
p1709
aVAdd a character credit to this book\u000a
p1710
aVSearch for a character\u000a
p1711
aVWe don't have any characters attached to this book. Help us fill it in!\u000a
p1712
aVLocations\u000a
p1713
aVAdd a location credit to this book\u000a
p1714
aVSearch for a location\u000a
p1715
aVWe don't have any locations attached to this book. Help us fill it in!\u000a
p1716
aVConcepts\u000a
p1717
aVAdd a concept credit to this book\u000a
p1718
aVSearch for a concept\u000a
p1719
aVWe don't have any concepts attached to this book. Help us fill it in!\u000a
p1720
aVObjects\u000a
p1721
aVAdd an object credit to this book\u000a
p1722
aVSearch for an object
p1723
asS'docType'
p1724
S'src'
p1725
sS'newfmap'
p1726
(lp1727
g4
ag8
ag10
ag12
ag14
ag17
ag19
ag21
ag23
ag26
ag28
ag30
ag32
ag35
ag37
ag39
ag41
ag44
ag46
ag48
ag50
ag53
ag55
ag57
ag59
ag62
ag64
ag66
ag68
ag71
ag73
ag75
ag77
ag80
ag82
ag84
ag86
ag89
ag91
ag93
ag95
ag98
ag100
ag102
ag104
ag107
ag109
ag111
ag113
ag116
ag118
ag120
ag122
ag125
ag127
ag129
ag131
ag136
ag138
ag140
ag143
ag145
ag147
ag149
ag154
ag158
ag161
ag163
ag165
ag167
ag170
ag172
ag174
ag176
ag179
ag181
ag183
ag185
ag188
ag190
ag192
ag194
ag197
ag199
ag201
ag203
ag206
ag208
ag210
ag212
ag215
ag217
ag219
ag221
ag224
ag226
ag228
ag230
ag233
ag235
ag237
ag239
ag242
ag244
ag246
ag248
ag251
ag253
ag255
ag257
ag262
ag264
ag266
ag269
ag271
ag273
ag275
ag280
ag284
ag287
ag289
ag291
ag293
ag296
ag298
ag300
ag302
ag305
ag307
ag309
ag311
ag314
ag316
ag318
ag320
ag323
ag325
ag327
ag329
ag332
ag334
ag336
ag338
ag341
ag343
ag345
ag347
ag350
ag352
ag354
ag356
ag359
ag361
ag363
ag365
ag368
ag370
ag372
ag374
ag377
ag379
ag381
ag383
ag388
ag390
ag392
ag395
ag397
ag399
ag401
ag406
ag410
ag413
ag415
ag417
ag419
ag422
ag424
ag426
ag428
ag431
ag433
ag435
ag437
ag440
ag442
ag444
ag446
ag449
ag451
ag453
ag455
ag458
ag460
ag462
ag464
ag467
ag469
ag471
ag473
ag476
ag478
ag480
ag482
ag485
ag487
ag489
ag491
ag494
ag496
ag498
ag500
ag503
ag505
ag507
ag509
ag514
ag516
ag518
ag521
ag523
ag525
ag527
ag532
ag536
ag539
ag541
ag543
ag545
ag548
ag550
ag552
ag554
ag557
ag559
ag561
ag563
ag566
ag568
ag570
ag572
ag575
ag577
ag579
ag581
ag584
ag586
ag588
ag590
ag593
ag595
ag597
ag599
ag602
ag604
ag606
ag608
ag611
ag613
ag615
ag617
ag620
ag622
ag624
ag626
ag629
ag631
ag633
ag635
ag640
ag642
ag644
ag647
ag649
ag651
ag653
ag658
asS'featureMap'
p1728
(lp1729
(lp1730
I5
aI8
ag5
ag6
ag9
ag11
ag13
aa(lp1731
I13
aI17
ag15
ag16
ag18
ag20
ag22
aa(lp1732
I20
aI22
ag24
ag25
ag27
ag29
ag31
aa(lp1733
I28
aI31
ag33
ag34
ag36
ag38
ag40
aa(lp1734
I33
aI39
ag42
ag43
ag45
ag47
ag49
aa(lp1735
I41
aI44
ag51
ag52
ag54
ag56
ag58
aa(lp1736
I53
aI55
ag60
ag61
ag63
ag65
ag67
aa(lp1737
I57
aI61
ag69
ag70
ag72
ag74
ag76
aa(lp1738
I71
aI74
ag78
ag79
ag81
ag83
ag85
aa(lp1739
I79
aI82
ag87
ag88
ag90
ag92
ag94
aa(lp1740
I85
aI88
ag96
ag97
ag99
ag101
ag103
aa(lp1741
I90
aI96
ag105
ag106
ag108
ag110
ag112
aa(lp1742
I98
aI100
ag114
ag115
ag117
ag119
ag121
aa(lp1743
I104
aI110
ag123
ag124
ag126
ag128
ag130
aa(lp1744
I112
aI117
ag132
ag133
ag135
ag137
ag139
aa(lp1745
I127
aI131
ag141
ag142
ag144
ag146
ag148
aa(lp1746
I133
aI138
ag150
ag151
ag153
ag155
ag157
aa(lp1747
I146
aI152
ag159
ag160
ag162
ag164
ag166
aa(lp1748
I157
aI161
ag168
ag169
ag171
ag173
ag175
aa(lp1749
I172
aI179
ag177
ag178
ag180
ag182
ag184
aa(lp1750
I181
aI188
ag186
ag187
ag189
ag191
ag193
aa(lp1751
I198
aI202
ag195
ag196
ag198
ag200
ag202
aa(lp1752
I205
aI208
ag204
ag205
ag207
ag209
ag211
aa(lp1753
I210
aI211
ag213
ag214
ag216
ag218
ag220
aa(lp1754
I213
aI216
ag222
ag223
ag225
ag227
ag229
aa(lp1755
I225
aI234
ag231
ag232
ag234
ag236
ag238
aa(lp1756
I236
aI238
ag240
ag241
ag243
ag245
ag247
aa(lp1757
I242
aI250
ag249
ag250
ag252
ag254
ag256
aa(lp1758
I252
aI257
ag258
ag259
ag261
ag263
ag265
aa(lp1759
I267
aI270
ag267
ag268
ag270
ag272
ag274
aa(lp1760
I272
aI277
ag276
ag277
ag279
ag281
ag283
aa(lp1761
I285
aI293
ag285
ag286
ag288
ag290
ag292
aa(lp1762
I298
aI302
ag294
ag295
ag297
ag299
ag301
aa(lp1763
I313
aI322
ag303
ag304
ag306
ag308
ag310
aa(lp1764
I324
aI331
ag312
ag313
ag315
ag317
ag319
aa(lp1765
I341
aI344
ag321
ag322
ag324
ag326
ag328
aa(lp1766
I347
aI350
ag330
ag331
ag333
ag335
ag337
aa(lp1767
I352
aI353
ag339
ag340
ag342
ag344
ag346
aa(lp1768
I355
aI358
ag348
ag349
ag351
ag353
ag355
aa(lp1769
I367
aI375
ag357
ag358
ag360
ag362
ag364
aa(lp1770
I377
aI379
ag366
ag367
ag369
ag371
ag373
aa(lp1771
I383
aI390
ag375
ag376
ag378
ag380
ag382
aa(lp1772
I392
aI397
ag384
ag385
ag387
ag389
ag391
aa(lp1773
I407
aI410
ag393
ag394
ag396
ag398
ag400
aa(lp1774
I412
aI417
ag402
ag403
ag405
ag407
ag409
aa(lp1775
I425
aI432
ag411
ag412
ag414
ag416
ag418
aa(lp1776
I437
aI441
ag420
ag421
ag423
ag425
ag427
aa(lp1777
I452
aI460
ag429
ag430
ag432
ag434
ag436
aa(lp1778
I462
aI469
ag438
ag439
ag441
ag443
ag445
aa(lp1779
I479
aI482
ag447
ag448
ag450
ag452
ag454
aa(lp1780
I485
aI488
ag456
ag457
ag459
ag461
ag463
aa(lp1781
I490
aI491
ag465
ag466
ag468
ag470
ag472
aa(lp1782
I493
aI496
ag474
ag475
ag477
ag479
ag481
aa(lp1783
I505
aI512
ag483
ag484
ag486
ag488
ag490
aa(lp1784
I514
aI516
ag492
ag493
ag495
ag497
ag499
aa(lp1785
I520
aI526
ag501
ag502
ag504
ag506
ag508
aa(lp1786
I528
aI533
ag510
ag511
ag513
ag515
ag517
aa(lp1787
I543
aI546
ag519
ag520
ag522
ag524
ag526
aa(lp1788
I548
aI553
ag528
ag529
ag531
ag533
ag535
aa(lp1789
I561
aI567
ag537
ag538
ag540
ag542
ag544
aa(lp1790
I572
aI576
ag546
ag547
ag549
ag551
ag553
aa(lp1791
I587
aI594
ag555
ag556
ag558
ag560
ag562
aa(lp1792
I596
aI603
ag564
ag565
ag567
ag569
ag571
aa(lp1793
I613
aI616
ag573
ag574
ag576
ag578
ag580
aa(lp1794
I619
aI622
ag582
ag583
ag585
ag587
ag589
aa(lp1795
I624
aI625
ag591
ag592
ag594
ag596
ag598
aa(lp1796
I627
aI630
ag600
ag601
ag603
ag605
ag607
aa(lp1797
I639
aI645
ag609
ag610
ag612
ag614
ag616
aa(lp1798
I647
aI649
ag618
ag619
ag621
ag623
ag625
aa(lp1799
I654
aI659
ag627
ag628
ag630
ag632
ag634
aa(lp1800
I661
aI666
ag636
ag637
ag639
ag641
ag643
aa(lp1801
I676
aI679
ag645
ag646
ag648
ag650
ag652
aa(lp1802
I681
aI686
ag654
ag655
ag657
ag659
ag661
aasS'characterMap'
p1803
(lp1804
g667
ag669
ag671
ag673
ag1557
ag677
ag679
ag681
ag683
ag1559
ag688
ag689
ag1560
ag692
ag693
ag695
ag696
ag697
a(lp1805
I18
aS'.'
p1806
aag1561
ag701
ag703
ag704
ag1562
ag708
ag709
ag710
ag1563
ag713
ag714
ag716
ag717
ag1564
ag720
ag721
ag723
ag724
ag725
ag727
ag729
ag1565
ag732
ag733
ag734
ag736
ag1566
ag741
ag742
ag1567
ag746
ag747
ag748
ag1568
ag751
ag752
ag754
ag1569
ag757
ag758
ag759
ag760
ag761
ag1570
ag765
ag766
ag1571
ag771
ag772
ag773
ag774
ag1572
ag777
ag778
ag779
ag780
ag1573
ag784
ag785
ag1574
ag788
ag789
ag790
ag791
a(lp1807
I83
ag1806
aag1575
ag794
ag795
ag796
ag797
ag1576
ag800
ag801
ag802
ag803
ag804
ag805
ag806
ag1577
ag809
ag810
ag811
ag1578
ag814
ag1579
ag817
ag818
ag819
ag820
ag821
ag822
ag823
ag1580
ag826
ag827
ag828
ag829
ag830
ag831
ag1581
ag835
ag836
ag1582
ag840
ag841
ag842
ag843
ag1583
ag846
ag847
ag848
ag849
ag850
ag1584
ag853
ag854
ag855
ag856
ag857
ag858
ag1585
ag862
ag863
ag864
ag1586
ag867
ag1587
ag870
ag871
ag872
ag873
ag874
ag875
ag876
ag1588
ag880
ag882
ag1589
ag885
ag886
ag887
a(lp1808
I160
aS"'"
p1809
aag888
ag1590
ag892
ag893
ag894
ag896
ag1591
ag900
ag901
ag902
ag1592
ag905
ag906
ag907
ag908
ag909
ag910
ag911
ag912
ag1593
ag915
ag916
ag917
ag918
ag919
ag920
ag921
ag922
ag1594
ag926
ag927
ag1595
ag931
ag932
ag933
ag934
ag1596
ag937
ag938
ag939
ag940
ag941
a(lp1810
I203
ag1806
aag1597
ag944
ag945
ag946
ag947
ag1598
ag950
ag951
ag1599
ag954
ag955
ag956
ag957
ag1600
ag961
ag962
ag1601
ag966
ag967
a(lp1811
I223
aS'!'
p1812
aag1602
ag970
ag971
ag972
ag973
ag974
ag975
ag976
ag977
ag978
ag979
ag1603
ag982
ag983
ag984
ag1604
ag987
ag1605
ag990
ag991
ag992
ag993
ag994
ag995
ag996
ag997
ag998
ag1606
ag1001
ag1002
ag1003
ag1004
ag1005
ag1006
ag1607
ag1010
ag1011
ag1608
ag1015
ag1016
ag1017
ag1018
ag1609
ag1021
ag1023
ag1024
ag1025
ag1610
ag1028
ag1029
ag1030
ag1031
ag1032
ag1033
ag1611
ag1037
ag1038
ag1039
ag1612
ag1042
ag1613
ag1045
ag1046
ag1047
ag1048
ag1049
ag1050
ag1051
ag1052
ag1053
ag1614
ag1057
ag1058
ag1615
ag1061
ag1062
ag1063
a(lp1813
I301
ag1809
aag1064
ag1616
ag1068
ag1069
ag1070
ag1071
ag1617
ag1075
ag1076
ag1077
ag1618
ag1080
ag1081
ag1082
ag1083
ag1084
ag1085
ag1086
ag1087
ag1088
ag1089
ag1619
ag1092
ag1093
ag1094
ag1095
ag1096
ag1097
ag1098
ag1099
ag1620
ag1103
ag1104
ag1621
ag1108
ag1109
ag1110
ag1111
ag1622
ag1114
ag1115
ag1116
ag1117
a(lp1814
I345
ag1806
aag1623
ag1120
ag1121
ag1122
ag1123
ag1624
ag1126
ag1127
ag1625
ag1130
ag1131
ag1132
ag1133
ag1626
ag1137
ag1138
ag1627
ag1142
ag1143
a(lp1815
I365
ag1812
aag1628
ag1146
ag1147
ag1148
ag1149
ag1150
ag1151
ag1152
ag1153
ag1154
ag1629
ag1157
ag1158
ag1159
ag1630
ag1162
ag1631
ag1165
ag1166
ag1167
ag1168
ag1169
ag1170
ag1171
ag1172
ag1632
ag1175
ag1176
ag1177
ag1178
ag1179
ag1180
ag1633
ag1184
ag1185
ag1634
ag1189
ag1190
ag1191
ag1192
ag1635
ag1195
ag1196
ag1197
ag1198
ag1636
ag1201
ag1202
ag1203
ag1204
ag1205
ag1206
ag1637
ag1210
ag1211
ag1212
ag1638
ag1215
ag1639
ag1218
ag1219
ag1220
ag1221
ag1222
ag1223
ag1224
ag1225
ag1640
ag1229
ag1230
ag1641
ag1233
ag1234
ag1235
a(lp1816
I440
ag1809
aag1236
ag1642
ag1240
ag1241
ag1242
ag1243
ag1643
ag1247
ag1248
ag1249
ag1644
ag1252
ag1253
ag1254
ag1255
ag1256
ag1257
ag1258
ag1259
ag1260
ag1645
ag1263
ag1264
ag1265
ag1266
ag1267
ag1268
ag1269
ag1270
ag1646
ag1274
ag1275
ag1647
ag1279
ag1280
ag1281
ag1282
ag1648
ag1285
ag1286
ag1287
ag1288
a(lp1817
I483
ag1806
aag1649
ag1291
ag1292
ag1293
ag1294
ag1650
ag1297
ag1298
ag1651
ag1301
ag1302
ag1303
ag1304
ag1652
ag1308
ag1309
ag1653
ag1313
ag1314
a(lp1818
I503
ag1812
aag1654
ag1317
ag1318
ag1319
ag1320
ag1321
ag1322
ag1323
ag1324
ag1655
ag1327
ag1328
ag1329
ag1656
ag1332
ag1657
ag1335
ag1336
ag1337
ag1338
ag1339
ag1340
ag1341
ag1658
ag1344
ag1345
ag1346
ag1347
ag1348
ag1349
ag1659
ag1353
ag1354
ag1660
ag1358
ag1359
ag1360
ag1361
ag1661
ag1364
ag1365
ag1366
ag1367
ag1662
ag1370
ag1371
ag1372
ag1373
ag1374
ag1375
ag1663
ag1379
ag1380
ag1381
ag1664
ag1384
ag1665
ag1387
ag1388
ag1389
ag1390
ag1391
ag1392
ag1393
ag1666
ag1397
ag1398
ag1667
ag1401
ag1402
ag1403
a(lp1819
I575
ag1809
aag1404
ag1668
ag1408
ag1409
ag1410
ag1411
ag1669
ag1415
ag1416
ag1417
ag1670
ag1420
ag1421
ag1422
ag1423
ag1424
ag1425
ag1426
ag1427
ag1671
ag1430
ag1431
ag1432
ag1433
ag1434
ag1435
ag1436
ag1437
ag1672
ag1441
ag1442
ag1673
ag1446
ag1447
ag1448
ag1449
ag1674
ag1452
ag1453
ag1454
ag1455
a(lp1820
I617
ag1806
aag1675
ag1458
ag1459
ag1460
ag1461
ag1676
ag1464
ag1465
ag1677
ag1468
ag1469
ag1470
ag1471
ag1678
ag1475
ag1476
ag1679
ag1480
ag1481
a(lp1821
I637
ag1812
aag1680
ag1484
ag1485
ag1486
ag1488
ag1489
ag1490
ag1491
ag1681
ag1494
ag1495
ag1496
ag1682
ag1500
ag1501
ag1683
ag1504
ag1505
ag1506
ag1507
ag1508
ag1509
ag1684
ag1512
ag1513
ag1514
ag1515
ag1516
ag1517
ag1685
ag1521
ag1522
ag1686
ag1526
ag1527
ag1528
ag1529
ag1687
ag1532
ag1533
ag1534
ag1535
ag1688
ag1538
ag1539
ag1540
ag1541
ag1542
ag1543
ag1689
ag1547
ag1548
ag1549
ag1690
ag1553
ag1554
ag1691
ag1692
ag1693
ag1694
ag1695
ag1696
ag1697
asS'docName'
p1822
S'source-document02269.txt'
p1823
sb.