(iModel.Document
Document
p0
(dp1
S'fmap'
p2
(lp3
(lp4
I0
aI4
aS'video'
p5
a(lp6
S'*'
p7
ag5
aaa(lp8
I0
aI4
ag5
a(lp9
g7
ag5
aaa(lp10
I0
aI4
ag5
a(lp11
g7
ag5
aaa(lp12
I0
aI4
ag5
a(lp13
g7
ag5
aaa(lp14
I6
aI11
aS'cheats'
p15
a(lp16
g5
ag15
aaa(lp17
I6
aI11
ag15
a(lp18
g7
ag15
aaa(lp19
I6
aI11
ag15
a(lp20
g7
ag15
aaa(lp21
I6
aI11
ag15
a(lp22
g7
ag15
aaa(lp23
I13
aI18
aS'boards'
p24
a(lp25
g15
ag24
aaa(lp26
I13
aI18
ag24
a(lp27
g5
ag24
aaa(lp28
I13
aI18
ag24
a(lp29
g7
ag24
aaa(lp30
I13
aI18
ag24
a(lp31
g7
ag24
aaa(lp32
I20
aI22
aS'buy'
p33
a(lp34
g24
ag33
aaa(lp35
I20
aI22
ag33
a(lp36
g15
ag33
aaa(lp37
I20
aI22
ag33
a(lp38
g5
ag33
aaa(lp39
I20
aI22
ag33
a(lp40
g7
ag33
aaa(lp41
I28
aI33
aS'guitar'
p42
a(lp43
g33
ag42
aaa(lp44
I28
aI33
ag42
a(lp45
g24
ag42
aaa(lp46
I28
aI33
ag42
a(lp47
g15
ag42
aaa(lp48
I28
aI33
ag42
a(lp49
g5
ag42
aaa(lp50
I35
aI38
aS'hero'
p51
a(lp52
g42
ag51
aaa(lp53
I35
aI38
ag51
a(lp54
g33
ag51
aaa(lp55
I35
aI38
ag51
a(lp56
g24
ag51
aaa(lp57
I35
aI38
ag51
a(lp58
g15
ag51
aaa(lp59
I41
aI45
aS'world'
p60
a(lp61
g51
ag60
aaa(lp62
I41
aI45
ag60
a(lp63
g42
ag60
aaa(lp64
I41
aI45
ag60
a(lp65
g33
ag60
aaa(lp66
I41
aI45
ag60
a(lp67
g24
ag60
aaa(lp68
I47
aI50
aS'tour'
p69
a(lp70
g60
ag69
aaa(lp71
I47
aI50
ag69
a(lp72
g51
ag69
aaa(lp73
I47
aI50
ag69
a(lp74
g42
ag69
aaa(lp75
I47
aI50
ag69
a(lp76
g33
ag69
aaa(lp77
I52
aI55
aS'sets'
p78
a(lp79
g69
ag78
aaa(lp80
I52
aI55
ag78
a(lp81
g60
ag78
aaa(lp82
I52
aI55
ag78
a(lp83
g51
ag78
aaa(lp84
I52
aI55
ag78
a(lp85
g42
ag78
aaa(lp86
I60
aI63
aS'even'
p87
a(lp88
g78
ag87
aaa(lp89
I60
aI63
ag87
a(lp90
g69
ag87
aaa(lp91
I60
aI63
ag87
a(lp92
g60
ag87
aaa(lp93
I60
aI63
ag87
a(lp94
g51
ag87
aaa(lp95
I65
aI70
aS'bigger'
p96
a(lp97
g87
ag96
aaa(lp98
I65
aI70
ag96
a(lp99
g78
ag96
aaa(lp100
I65
aI70
ag96
a(lp101
g69
ag96
aaa(lp102
I65
aI70
ag96
a(lp103
g60
ag96
aaa(lp104
I72
aI76
aS'stage'
p105
a(lp106
g96
ag105
aaa(lp107
I72
aI76
ag105
a(lp108
g87
ag105
aaa(lp109
I72
aI76
ag105
a(lp110
g78
ag105
aaa(lp111
I72
aI76
ag105
a(lp112
g69
ag105
aaa(lp113
I87
aI93
aS'players'
p114
a(lp115
g105
ag114
aaa(lp116
I87
aI93
ag114
a(lp117
g96
ag114
aaa(lp118
I87
aI93
ag114
a(lp119
g87
ag114
aaa(lp120
I87
aI93
ag114
a(lp121
g78
ag114
aaa(lp122
I99
aI104
aS'create'
p123
a(lp124
g114
ag123
aaa(lp125
I99
aI104
ag123
a(lp126
g105
ag123
aaa(lp127
I99
aI104
ag123
a(lp128
g96
ag123
aaa(lp129
I99
aI104
ag123
a(lp130
g87
ag123
aaa(lp131
I112
aI117
aS'dreams'
p132
a(lp133
g123
ag132
aaa(lp134
I112
aI117
ag132
a(lp135
g114
ag132
aaa(lp136
I112
aI117
ag132
a(lp137
g105
ag132
aaa(lp138
I112
aI117
ag132
a(lp139
g96
ag132
aaa(lp140
I122
aI128
aS'musical'
p141
a(lp142
g132
ag141
aaa(lp143
I122
aI128
ag141
a(lp144
g123
ag141
aaa(lp145
I122
aI128
ag141
a(lp146
g114
ag141
aaa(lp147
I122
aI128
ag141
a(lp148
g105
ag141
aaa(lp149
I130
aI136
aS'stardom'
p150
a(lp151
g141
ag150
aaa(lp152
I130
aI136
ag150
a(lp153
g132
ag150
aaa(lp154
I130
aI136
ag150
a(lp155
g123
ag150
aaa(lp156
I130
aI136
ag150
a(lp157
g114
ag150
aaa(lp158
I146
aI150
aS'newly'
p159
a(lp160
g150
ag159
aaa(lp161
I146
aI150
ag159
a(lp162
g141
ag159
aaa(lp163
I146
aI150
ag159
a(lp164
g132
ag159
aaa(lp165
I146
aI150
ag159
a(lp166
g123
ag159
aaa(lp167
I152
aI156
aS'added'
p168
a(lp169
g159
ag168
aaa(lp170
I152
aI156
ag168
a(lp171
g150
ag168
aaa(lp172
I152
aI156
ag168
a(lp173
g141
ag168
aaa(lp174
I152
aI156
ag168
a(lp175
g132
ag168
aaa(lp176
I158
aI163
aS'battle'
p177
a(lp178
g168
ag177
aaa(lp179
I158
aI163
ag177
a(lp180
g159
ag177
aaa(lp181
I158
aI163
ag177
a(lp182
g150
ag177
aaa(lp183
I158
aI163
ag177
a(lp184
g141
ag177
aaa(lp185
I172
aI176
aS'bands'
p186
a(lp187
g177
ag186
aaa(lp188
I172
aI176
ag186
a(lp189
g168
ag186
aaa(lp190
I172
aI176
ag186
a(lp191
g159
ag186
aaa(lp192
I172
aI176
ag186
a(lp193
g150
ag186
aaa(lp194
I178
aI181
aS'mode'
p195
a(lp196
g186
ag195
aaa(lp197
I178
aI181
ag195
a(lp198
g177
ag195
aaa(lp199
I178
aI181
ag195
a(lp200
g168
ag195
aaa(lp201
I178
aI181
ag195
a(lp202
g159
ag195
aaa(lp203
I185
aI189
aS'total'
p204
a(lp205
g195
ag204
aaa(lp206
I185
aI189
ag204
a(lp207
g186
ag204
aaa(lp208
I185
aI189
ag204
a(lp209
g177
ag204
aaa(lp210
I185
aI189
ag204
a(lp211
g168
ag204
aaa(lp212
I194
aI198
aS'eight'
p213
a(lp214
g204
ag213
aaa(lp215
I194
aI198
ag213
a(lp216
g195
ag213
aaa(lp217
I194
aI198
ag213
a(lp218
g186
ag213
aaa(lp219
I194
aI198
ag213
a(lp220
g177
ag213
aaa(lp221
I200
aI206
aS'players'
p222
a(lp223
g213
ag222
aaa(lp224
I200
aI206
ag222
a(lp225
g204
ag222
aaa(lp226
I200
aI206
ag222
a(lp227
g195
ag222
aaa(lp228
I200
aI206
ag222
a(lp229
g186
ag222
aaa(lp230
I212
aI213
aS'go'
p231
a(lp232
g222
ag231
aaa(lp233
I212
aI213
ag231
a(lp234
g213
ag231
aaa(lp235
I212
aI213
ag231
a(lp236
g204
ag231
aaa(lp237
I212
aI213
ag231
a(lp238
g195
ag231
aaa(lp239
I215
aI218
aS'head'
p240
a(lp241
g231
ag240
aaa(lp242
I215
aI218
ag240
a(lp243
g222
ag240
aaa(lp244
I215
aI218
ag240
a(lp245
g213
ag240
aaa(lp246
I215
aI218
ag240
a(lp247
g204
ag240
aaa(lp248
I223
aI226
aS'head'
p249
a(lp250
g240
ag249
aaa(lp251
I223
aI226
ag249
a(lp252
g231
ag249
aaa(lp253
I223
aI226
ag249
a(lp254
g222
ag249
aaa(lp255
I223
aI226
ag249
a(lp256
g213
ag249
aaa(lp257
I228
aI233
aS'online'
p258
a(lp259
g249
ag258
aaa(lp260
I228
aI233
ag258
a(lp261
g240
ag258
aaa(lp262
I228
aI233
ag258
a(lp263
g231
ag258
aaa(lp264
I228
aI233
ag258
a(lp265
g222
ag258
aaa(lp266
I238
aI240
aS'see'
p267
a(lp268
g258
ag267
aaa(lp269
I238
aI240
ag267
a(lp270
g249
ag267
aaa(lp271
I238
aI240
ag267
a(lp272
g240
ag267
aaa(lp273
I238
aI240
ag267
a(lp274
g231
ag267
aaa(lp275
I250
aI256
aS'produce'
p276
a(lp277
g267
ag276
aaa(lp278
I250
aI256
ag276
a(lp279
g258
ag276
aaa(lp280
I250
aI256
ag276
a(lp281
g249
ag276
aaa(lp282
I250
aI256
ag276
a(lp283
g240
ag276
aaa(lp284
I267
aI273
aS'stellar'
p285
a(lp286
g276
ag285
aaa(lp287
I267
aI273
ag285
a(lp288
g267
ag285
aaa(lp289
I267
aI273
ag285
a(lp290
g258
ag285
aaa(lp291
I267
aI273
ag285
a(lp292
g249
ag285
aaa(lp293
I275
aI279
aS'sound'
p294
a(lp295
g285
ag294
aaa(lp296
I275
aI279
ag294
a(lp297
g276
ag294
aaa(lp298
I275
aI279
ag294
a(lp299
g267
ag294
aaa(lp300
I275
aI279
ag294
a(lp301
g258
ag294
aaa(lp302
I282
aI285
aS'also'
p303
a(lp304
g294
ag303
aaa(lp305
I282
aI285
ag303
a(lp306
g285
ag303
aaa(lp307
I282
aI285
ag303
a(lp308
g276
ag303
aaa(lp309
I282
aI285
ag303
a(lp310
g267
ag303
aaa(lp311
I287
aI290
aS'four'
p312
a(lp313
g303
ag312
aaa(lp314
I287
aI290
ag312
a(lp315
g294
ag312
aaa(lp316
I287
aI290
ag312
a(lp317
g285
ag312
aaa(lp318
I287
aI290
ag312
a(lp319
g276
ag312
aaa(lp320
I292
aI298
aS'players'
p321
a(lp322
g312
ag321
aaa(lp323
I292
aI298
ag321
a(lp324
g303
ag321
aaa(lp325
I292
aI298
ag321
a(lp326
g294
ag321
aaa(lp327
I292
aI298
ag321
a(lp328
g285
ag321
aaa(lp329
I319
aI322
aS'band'
p330
a(lp331
g321
ag330
aaa(lp332
I319
aI322
ag330
a(lp333
g312
ag330
aaa(lp334
I319
aI322
ag330
a(lp335
g303
ag330
aaa(lp336
I319
aI322
ag330
a(lp337
g294
ag330
aaa(lp338
I328
aI331
aS'play'
p339
a(lp340
g330
ag339
aaa(lp341
I328
aI331
ag339
a(lp342
g321
ag339
aaa(lp343
I328
aI331
ag339
a(lp344
g312
ag339
aaa(lp345
I328
aI331
ag339
a(lp346
g303
ag339
aaa(lp347
I334
aI339
aS'either'
p348
a(lp349
g339
ag348
aaa(lp350
I334
aI339
ag348
a(lp351
g330
ag348
aaa(lp352
I334
aI339
ag348
a(lp353
g321
ag348
aaa(lp354
I334
aI339
ag348
a(lp355
g312
ag348
aaa(lp356
I347
aI353
aS'offline'
p357
a(lp358
g348
ag357
aaa(lp359
I347
aI353
ag357
a(lp360
g339
ag357
aaa(lp361
I347
aI353
ag357
a(lp362
g330
ag357
aaa(lp363
I347
aI353
ag357
a(lp364
g321
ag357
aaa(lp365
I366
aI372
aS'variety'
p366
a(lp367
g357
ag366
aaa(lp368
I366
aI372
ag366
a(lp369
g348
ag366
aaa(lp370
I366
aI372
ag366
a(lp371
g339
ag366
aaa(lp372
I366
aI372
ag366
a(lp373
g330
ag366
aaa(lp374
I377
aI383
aS'musical'
p375
a(lp376
g366
ag375
aaa(lp377
I377
aI383
ag375
a(lp378
g357
ag375
aaa(lp379
I377
aI383
ag375
a(lp380
g348
ag375
aaa(lp381
I377
aI383
ag375
a(lp382
g339
ag375
aaa(lp383
I385
aI390
aS'venues'
p384
a(lp385
g375
ag384
aaa(lp386
I385
aI390
ag384
a(lp387
g366
ag384
aaa(lp388
I385
aI390
ag384
a(lp389
g357
ag384
aaa(lp390
I385
aI390
ag384
a(lp391
g348
ag384
aaa(lp392
I402
aI407
aS'player'
p393
a(lp394
g384
ag393
aaa(lp395
I402
aI407
ag393
a(lp396
g375
ag393
aaa(lp397
I402
aI407
ag393
a(lp398
g366
ag393
aaa(lp399
I402
aI407
ag393
a(lp400
g357
ag393
aaa(lp401
I409
aI413
aS'wants'
p402
a(lp403
g393
ag402
aaa(lp404
I409
aI413
ag402
a(lp405
g384
ag402
aaa(lp406
I409
aI413
ag402
a(lp407
g375
ag402
aaa(lp408
I409
aI413
ag402
a(lp409
g366
ag402
aaa(lp410
I418
aI420
aS'try'
p411
a(lp412
g402
ag411
aaa(lp413
I418
aI420
ag411
a(lp414
g393
ag411
aaa(lp415
I418
aI420
ag411
a(lp416
g384
ag411
aaa(lp417
I418
aI420
ag411
a(lp418
g375
ag411
aaa(lp419
I432
aI435
aS'hand'
p420
a(lp421
g411
ag420
aaa(lp422
I432
aI435
ag420
a(lp423
g402
ag420
aaa(lp424
I432
aI435
ag420
a(lp425
g393
ag420
aaa(lp426
I432
aI435
ag420
a(lp427
g384
ag420
aaa(lp428
I444
aI447
aS'game'
p429
a(lp430
g420
ag429
aaa(lp431
I444
aI447
ag429
a(lp432
g411
ag429
aaa(lp433
I444
aI447
ag429
a(lp434
g402
ag429
aaa(lp435
I444
aI447
ag429
a(lp436
g393
ag429
aaa(lp437
I450
aI456
aS'however'
p438
a(lp439
g429
ag438
aaa(lp440
I450
aI456
ag438
a(lp441
g420
ag438
aaa(lp442
I450
aI456
ag438
a(lp443
g411
ag438
aaa(lp444
I450
aI456
ag438
a(lp445
g402
ag438
aaa(lp446
I472
aI476
aS'tried'
p447
a(lp448
g438
ag447
aaa(lp449
I472
aI476
ag447
a(lp450
g429
ag447
aaa(lp451
I472
aI476
ag447
a(lp452
g420
ag447
aaa(lp453
I472
aI476
ag447
a(lp454
g411
ag447
aaa(lp455
I482
aI485
aS'true'
p456
a(lp457
g447
ag456
aaa(lp458
I482
aI485
ag456
a(lp459
g438
ag456
aaa(lp460
I482
aI485
ag456
a(lp461
g429
ag456
aaa(lp462
I482
aI485
ag456
a(lp463
g420
ag456
aaa(lp464
I487
aI492
aS'single'
p465
a(lp466
g456
ag465
aaa(lp467
I487
aI492
ag465
a(lp468
g447
ag465
aaa(lp469
I487
aI492
ag465
a(lp470
g438
ag465
aaa(lp471
I487
aI492
ag465
a(lp472
g429
ag465
aaa(lp473
I494
aI499
aS'player'
p474
a(lp475
g465
ag474
aaa(lp476
I494
aI499
ag474
a(lp477
g456
ag474
aaa(lp478
I494
aI499
ag474
a(lp479
g447
ag474
aaa(lp480
I494
aI499
ag474
a(lp481
g438
ag474
aaa(lp482
I501
aI504
aS'mode'
p483
a(lp484
g474
ag483
aaa(lp485
I501
aI504
ag483
a(lp486
g465
ag483
aaa(lp487
I501
aI504
ag483
a(lp488
g456
ag483
aaa(lp489
I501
aI504
ag483
a(lp490
g447
ag483
aaa(lp491
I506
aI514
aS'available'
p492
a(lp493
g483
ag492
aaa(lp494
I506
aI514
ag492
a(lp495
g474
ag492
aaa(lp496
I506
aI514
ag492
a(lp497
g465
ag492
aaa(lp498
I506
aI514
ag492
a(lp499
g456
ag492
aaa(lp500
I522
aI528
aS'players'
p501
a(lp502
g492
ag501
aaa(lp503
I522
aI528
ag501
a(lp504
g483
ag501
aaa(lp505
I522
aI528
ag501
a(lp506
g474
ag501
aaa(lp507
I522
aI528
ag501
a(lp508
g465
ag501
aaa(lp509
I534
aI541
aS'progress'
p510
a(lp511
g501
ag510
aaa(lp512
I534
aI541
ag510
a(lp513
g492
ag510
aaa(lp514
I534
aI541
ag510
a(lp515
g483
ag510
aaa(lp516
I534
aI541
ag510
a(lp517
g474
ag510
aaa(lp518
I550
aI552
aS'way'
p519
a(lp520
g510
ag519
aaa(lp521
I550
aI552
ag519
a(lp522
g501
ag519
aaa(lp523
I550
aI552
ag519
a(lp524
g492
ag519
aaa(lp525
I550
aI552
ag519
a(lp526
g483
ag519
aaa(lp527
I559
aI562
aS'like'
p528
a(lp529
g519
ag528
aaa(lp530
I559
aI562
ag528
a(lp531
g510
ag528
aaa(lp532
I559
aI562
ag528
a(lp533
g501
ag528
aaa(lp534
I559
aI562
ag528
a(lp535
g492
ag528
aaa(lp536
I565
aI570
aS'rating'
p537
a(lp538
g528
ag537
aaa(lp539
I565
aI570
ag537
a(lp540
g519
ag537
aaa(lp541
I565
aI570
ag537
a(lp542
g510
ag537
aaa(lp543
I565
aI570
ag537
a(lp544
g501
ag537
aaa(lp545
I573
aI576
aS'100'
p546
a(lp547
g537
ag546
aaa(lp548
I573
aI576
ag546
a(lp549
g528
ag546
aaa(lp550
I573
aI576
ag546
a(lp551
g519
ag546
aaa(lp552
I573
aI576
ag546
a(lp553
g510
ag546
aaa(lp554
I579
aI583
aS'votes'
p555
a(lp556
g546
ag555
aaa(lp557
I579
aI583
ag555
a(lp558
g537
ag555
aaa(lp559
I579
aI583
ag555
a(lp560
g528
ag555
aaa(lp561
I579
aI583
ag555
a(lp562
g519
ag555
aaasS'wordMap'
p563
(lp564
(lp565
I0
aI4
ag5
a(lp566
(lp567
I0
aS'v'
p568
aa(lp569
I1
aS'i'
p570
aa(lp571
I2
aS'd'
p572
aa(lp573
I3
aS'e'
p574
aa(lp575
I4
aS'o'
p576
aaaa(lp577
I6
aI11
ag15
a(lp578
(lp579
I6
aS'c'
p580
aa(lp581
I7
aS'h'
p582
aa(lp583
I8
ag574
aa(lp584
I9
aS'a'
p585
aa(lp586
I10
aS't'
p587
aa(lp588
I11
aS's'
p589
aaaa(lp590
I13
aI18
ag24
a(lp591
(lp592
I13
aS'b'
p593
aa(lp594
I14
ag576
aa(lp595
I15
ag585
aa(lp596
I16
aS'r'
p597
aa(lp598
I17
ag572
aa(lp599
I18
ag589
aaaa(lp600
I20
aI22
ag33
a(lp601
(lp602
I20
ag593
aa(lp603
I21
aS'u'
p604
aa(lp605
I22
aS'y'
p606
aaaa(lp607
I24
aI26
aS'now'
p608
a(lp609
(lp610
I24
aS'n'
p611
aa(lp612
I25
ag576
aa(lp613
I26
aS'w'
p614
aaaa(lp615
I28
aI33
ag42
a(lp616
(lp617
I28
aS'g'
p618
aa(lp619
I29
ag604
aa(lp620
I30
ag570
aa(lp621
I31
ag587
aa(lp622
I32
ag585
aa(lp623
I33
ag597
aaaa(lp624
I35
aI38
ag51
a(lp625
(lp626
I35
ag582
aa(lp627
I36
ag574
aa(lp628
I37
ag597
aa(lp629
I38
ag576
aaaa(lp630
I41
aI45
ag60
a(lp631
(lp632
I41
ag614
aa(lp633
I42
ag576
aa(lp634
I43
ag597
aa(lp635
I44
aS'l'
p636
aa(lp637
I45
ag572
aaaa(lp638
I47
aI50
ag69
a(lp639
(lp640
I47
ag587
aa(lp641
I48
ag576
aa(lp642
I49
ag604
aa(lp643
I50
ag597
aaaa(lp644
I52
aI55
ag78
a(lp645
(lp646
I52
ag589
aa(lp647
I53
ag574
aa(lp648
I54
ag587
aa(lp649
I55
ag589
aaaa(lp650
I57
aI58
aS'an'
p651
a(lp652
(lp653
I57
ag585
aa(lp654
I58
ag611
aaaa(lp655
I60
aI63
ag87
a(lp656
(lp657
I60
ag574
aa(lp658
I61
ag568
aa(lp659
I62
ag574
aa(lp660
I63
ag611
aaaa(lp661
I65
aI70
ag96
a(lp662
(lp663
I65
ag593
aa(lp664
I66
ag570
aa(lp665
I67
ag618
aa(lp666
I68
ag618
aa(lp667
I69
ag574
aa(lp668
I70
ag597
aaaa(lp669
I72
aI76
ag105
a(lp670
(lp671
I72
ag589
aa(lp672
I73
ag587
aa(lp673
I74
ag585
aa(lp674
I75
ag618
aa(lp675
I76
ag574
aaaa(lp676
I78
aI79
aS'on'
p677
a(lp678
(lp679
I78
ag576
aa(lp680
I79
ag611
aaaa(lp681
I81
aI85
aS'which'
p682
a(lp683
(lp684
I81
ag614
aa(lp685
I82
ag582
aa(lp686
I83
ag570
aa(lp687
I84
ag580
aa(lp688
I85
ag582
aaaa(lp689
I87
aI93
ag114
a(lp690
(lp691
I87
aS'p'
p692
aa(lp693
I88
ag636
aa(lp694
I89
ag585
aa(lp695
I90
ag606
aa(lp696
I91
ag574
aa(lp697
I92
ag597
aa(lp698
I93
ag589
aaaa(lp699
I95
aI97
aS'can'
p700
a(lp701
(lp702
I95
ag580
aa(lp703
I96
ag585
aa(lp704
I97
ag611
aaaa(lp705
I99
aI104
ag123
a(lp706
(lp707
I99
ag580
aa(lp708
I100
ag597
aa(lp709
I101
ag574
aa(lp710
I102
ag585
aa(lp711
I103
ag587
aa(lp712
I104
ag574
aaaa(lp713
I106
aI110
aS'their'
p714
a(lp715
(lp716
I106
ag587
aa(lp717
I107
ag582
aa(lp718
I108
ag574
aa(lp719
I109
ag570
aa(lp720
I110
ag597
aaaa(lp721
I112
aI117
ag132
a(lp722
(lp723
I112
ag572
aa(lp724
I113
ag597
aa(lp725
I114
ag574
aa(lp726
I115
ag585
aa(lp727
I116
aS'm'
p728
aa(lp729
I117
ag589
aaaa(lp730
I119
aI120
aS'of'
p731
a(lp732
(lp733
I119
ag576
aa(lp734
I120
aS'f'
p735
aaaa(lp736
I122
aI128
ag141
a(lp737
(lp738
I122
ag728
aa(lp739
I123
ag604
aa(lp740
I124
ag589
aa(lp741
I125
ag570
aa(lp742
I126
ag580
aa(lp743
I127
ag585
aa(lp744
I128
ag636
aaaa(lp745
I130
aI136
ag150
a(lp746
(lp747
I130
ag589
aa(lp748
I131
ag587
aa(lp749
I132
ag585
aa(lp750
I133
ag597
aa(lp751
I134
ag572
aa(lp752
I135
ag576
aa(lp753
I136
ag728
aaaa(lp754
I139
aI140
aS'in'
p755
a(lp756
(lp757
I139
ag570
aa(lp758
I140
ag611
aaaa(lp759
I142
aI144
aS'the'
p760
a(lp761
(lp762
I142
ag587
aa(lp763
I143
ag582
aa(lp764
I144
ag574
aaaa(lp765
I146
aI150
ag159
a(lp766
(lp767
I146
ag611
aa(lp768
I147
ag574
aa(lp769
I148
ag614
aa(lp770
I149
ag636
aa(lp771
I150
ag606
aaaa(lp772
I152
aI156
ag168
a(lp773
(lp774
I152
ag585
aa(lp775
I153
ag572
aa(lp776
I154
ag572
aa(lp777
I155
ag574
aa(lp778
I156
ag572
aaaa(lp779
I158
aI163
ag177
a(lp780
(lp781
I158
ag593
aa(lp782
I159
ag585
aa(lp783
I160
ag587
aa(lp784
I161
ag587
aa(lp785
I162
ag636
aa(lp786
I163
ag574
aaaa(lp787
I165
aI166
aS'of'
p788
a(lp789
(lp790
I165
ag576
aa(lp791
I166
ag735
aaaa(lp792
I168
aI170
aS'the'
p793
a(lp794
(lp795
I168
ag587
aa(lp796
I169
ag582
aa(lp797
I170
ag574
aaaa(lp798
I172
aI176
ag186
a(lp799
(lp800
I172
ag593
aa(lp801
I173
ag585
aa(lp802
I174
ag611
aa(lp803
I175
ag572
aa(lp804
I176
ag589
aaaa(lp805
I178
aI181
ag195
a(lp806
(lp807
I178
ag728
aa(lp808
I179
ag576
aa(lp809
I180
ag572
aa(lp810
I181
ag574
aaaa(lp811
I183
aI183
ag585
a(lp812
(lp813
I183
ag585
aaaa(lp814
I185
aI189
ag204
a(lp815
(lp816
I185
ag587
aa(lp817
I186
ag576
aa(lp818
I187
ag587
aa(lp819
I188
ag585
aa(lp820
I189
ag636
aaaa(lp821
I191
aI192
aS'of'
p822
a(lp823
(lp824
I191
ag576
aa(lp825
I192
ag735
aaaa(lp826
I194
aI198
ag213
a(lp827
(lp828
I194
ag574
aa(lp829
I195
ag570
aa(lp830
I196
ag618
aa(lp831
I197
ag582
aa(lp832
I198
ag587
aaaa(lp833
I200
aI206
ag222
a(lp834
(lp835
I200
ag692
aa(lp836
I201
ag636
aa(lp837
I202
ag585
aa(lp838
I203
ag606
aa(lp839
I204
ag574
aa(lp840
I205
ag597
aa(lp841
I206
ag589
aaaa(lp842
I208
aI210
aS'can'
p843
a(lp844
(lp845
I208
ag580
aa(lp846
I209
ag585
aa(lp847
I210
ag611
aaaa(lp848
I212
aI213
ag231
a(lp849
(lp850
I212
ag618
aa(lp851
I213
ag576
aaaa(lp852
I215
aI218
ag240
a(lp853
(lp854
I215
ag582
aa(lp855
I216
ag574
aa(lp856
I217
ag585
aa(lp857
I218
ag572
aaaa(lp858
I220
aI221
aS'to'
p859
a(lp860
(lp861
I220
ag587
aa(lp862
I221
ag576
aaaa(lp863
I223
aI226
ag249
a(lp864
(lp865
I223
ag582
aa(lp866
I224
ag574
aa(lp867
I225
ag585
aa(lp868
I226
ag572
aaaa(lp869
I228
aI233
ag258
a(lp870
(lp871
I228
ag576
aa(lp872
I229
ag611
aa(lp873
I230
ag636
aa(lp874
I231
ag570
aa(lp875
I232
ag611
aa(lp876
I233
ag574
aaaa(lp877
I235
aI236
aS'to'
p878
a(lp879
(lp880
I235
ag587
aa(lp881
I236
ag576
aaaa(lp882
I238
aI240
ag267
a(lp883
(lp884
I238
ag589
aa(lp885
I239
ag574
aa(lp886
I240
ag574
aaaa(lp887
I242
aI244
aS'who'
p888
a(lp889
(lp890
I242
ag614
aa(lp891
I243
ag582
aa(lp892
I244
ag576
aaaa(lp893
I246
aI248
aS'can'
p894
a(lp895
(lp896
I246
ag580
aa(lp897
I247
ag585
aa(lp898
I248
ag611
aaaa(lp899
I250
aI256
ag276
a(lp900
(lp901
I250
ag692
aa(lp902
I251
ag597
aa(lp903
I252
ag576
aa(lp904
I253
ag572
aa(lp905
I254
ag604
aa(lp906
I255
ag580
aa(lp907
I256
ag574
aaaa(lp908
I258
aI260
aS'the'
p909
a(lp910
(lp911
I258
ag587
aa(lp912
I259
ag582
aa(lp913
I260
ag574
aaaa(lp914
I262
aI265
aS'most'
p915
a(lp916
(lp917
I262
ag728
aa(lp918
I263
ag576
aa(lp919
I264
ag589
aa(lp920
I265
ag587
aaaa(lp921
I267
aI273
ag285
a(lp922
(lp923
I267
ag589
aa(lp924
I268
ag587
aa(lp925
I269
ag574
aa(lp926
I270
ag636
aa(lp927
I271
ag636
aa(lp928
I272
ag585
aa(lp929
I273
ag597
aaaa(lp930
I275
aI279
ag294
a(lp931
(lp932
I275
ag589
aa(lp933
I276
ag576
aa(lp934
I277
ag604
aa(lp935
I278
ag611
aa(lp936
I279
ag572
aaaa(lp937
I282
aI285
ag303
a(lp938
(lp939
I282
ag585
aa(lp940
I283
ag636
aa(lp941
I284
ag589
aa(lp942
I285
ag576
aaaa(lp943
I287
aI290
ag312
a(lp944
(lp945
I287
ag735
aa(lp946
I288
ag576
aa(lp947
I289
ag604
aa(lp948
I290
ag597
aaaa(lp949
I292
aI298
ag321
a(lp950
(lp951
I292
ag692
aa(lp952
I293
ag636
aa(lp953
I294
ag585
aa(lp954
I295
ag606
aa(lp955
I296
ag574
aa(lp956
I297
ag597
aa(lp957
I298
ag589
aaaa(lp958
I300
aI302
aS'can'
p959
a(lp960
(lp961
I300
ag580
aa(lp962
I301
ag585
aa(lp963
I302
ag611
aaaa(lp964
I304
aI307
aS'from'
p965
a(lp966
(lp967
I304
ag735
aa(lp968
I305
ag597
aa(lp969
I306
ag576
aa(lp970
I307
ag728
aaaa(lp971
I309
aI313
aS'their'
p972
a(lp973
(lp974
I309
ag587
aa(lp975
I310
ag582
aa(lp976
I311
ag574
aa(lp977
I312
ag570
aa(lp978
I313
ag597
aaaa(lp979
I315
aI317
aS'own'
p980
a(lp981
(lp982
I315
ag576
aa(lp983
I316
ag614
aa(lp984
I317
ag611
aaaa(lp985
I319
aI322
ag330
a(lp986
(lp987
I319
ag593
aa(lp988
I320
ag585
aa(lp989
I321
ag611
aa(lp990
I322
ag572
aaaa(lp991
I324
aI326
aS'and'
p992
a(lp993
(lp994
I324
ag585
aa(lp995
I325
ag611
aa(lp996
I326
ag572
aaaa(lp997
I328
aI331
ag339
a(lp998
(lp999
I328
ag692
aa(lp1000
I329
ag636
aa(lp1001
I330
ag585
aa(lp1002
I331
ag606
aaaa(lp1003
I334
aI339
ag348
a(lp1004
(lp1005
I334
ag574
aa(lp1006
I335
ag570
aa(lp1007
I336
ag587
aa(lp1008
I337
ag582
aa(lp1009
I338
ag574
aa(lp1010
I339
ag597
aaaa(lp1011
I341
aI342
aS'on'
p1012
a(lp1013
(lp1014
I341
ag576
aa(lp1015
I342
ag611
aaaa(lp1016
I344
aI345
aS'or'
p1017
a(lp1018
(lp1019
I344
ag576
aa(lp1020
I345
ag597
aaaa(lp1021
I347
aI353
ag357
a(lp1022
(lp1023
I347
ag576
aa(lp1024
I348
ag735
aa(lp1025
I349
ag735
aa(lp1026
I350
ag636
aa(lp1027
I351
ag570
aa(lp1028
I352
ag611
aa(lp1029
I353
ag574
aaaa(lp1030
I356
aI362
aS'through'
p1031
a(lp1032
(lp1033
I356
ag587
aa(lp1034
I357
ag582
aa(lp1035
I358
ag597
aa(lp1036
I359
ag576
aa(lp1037
I360
ag604
aa(lp1038
I361
ag618
aa(lp1039
I362
ag582
aaaa(lp1040
I364
aI364
ag585
a(lp1041
(lp1042
I364
ag585
aaaa(lp1043
I366
aI372
ag366
a(lp1044
(lp1045
I366
ag568
aa(lp1046
I367
ag585
aa(lp1047
I368
ag597
aa(lp1048
I369
ag570
aa(lp1049
I370
ag574
aa(lp1050
I371
ag587
aa(lp1051
I372
ag606
aaaa(lp1052
I374
aI375
aS'of'
p1053
a(lp1054
(lp1055
I374
ag576
aa(lp1056
I375
ag735
aaaa(lp1057
I377
aI383
ag375
a(lp1058
(lp1059
I377
ag728
aa(lp1060
I378
ag604
aa(lp1061
I379
ag589
aa(lp1062
I380
ag570
aa(lp1063
I381
ag580
aa(lp1064
I382
ag585
aa(lp1065
I383
ag636
aaaa(lp1066
I385
aI390
ag384
a(lp1067
(lp1068
I385
ag568
aa(lp1069
I386
ag574
aa(lp1070
I387
ag611
aa(lp1071
I388
ag604
aa(lp1072
I389
ag574
aa(lp1073
I390
ag589
aaaa(lp1074
I393
aI396
aS'when'
p1075
a(lp1076
(lp1077
I393
ag614
aa(lp1078
I394
ag582
aa(lp1079
I395
ag574
aa(lp1080
I396
ag611
aaaa(lp1081
I398
aI400
aS'the'
p1082
a(lp1083
(lp1084
I398
ag587
aa(lp1085
I399
ag582
aa(lp1086
I400
ag574
aaaa(lp1087
I402
aI407
ag393
a(lp1088
(lp1089
I402
ag692
aa(lp1090
I403
ag636
aa(lp1091
I404
ag585
aa(lp1092
I405
ag606
aa(lp1093
I406
ag574
aa(lp1094
I407
ag597
aaaa(lp1095
I409
aI413
ag402
a(lp1096
(lp1097
I409
ag614
aa(lp1098
I410
ag585
aa(lp1099
I411
ag611
aa(lp1100
I412
ag587
aa(lp1101
I413
ag589
aaaa(lp1102
I415
aI416
aS'to'
p1103
a(lp1104
(lp1105
I415
ag587
aa(lp1106
I416
ag576
aaaa(lp1107
I418
aI420
ag411
a(lp1108
(lp1109
I418
ag587
aa(lp1110
I419
ag597
aa(lp1111
I420
ag606
aaaa(lp1112
I422
aI426
aS'their'
p1113
a(lp1114
(lp1115
I422
ag587
aa(lp1116
I423
ag582
aa(lp1117
I424
ag574
aa(lp1118
I425
ag570
aa(lp1119
I426
ag597
aaaa(lp1120
I428
aI430
aS'own'
p1121
a(lp1122
(lp1123
I428
ag576
aa(lp1124
I429
ag614
aa(lp1125
I430
ag611
aaaa(lp1126
I432
aI435
ag420
a(lp1127
(lp1128
I432
ag582
aa(lp1129
I433
ag585
aa(lp1130
I434
ag611
aa(lp1131
I435
ag572
aaaa(lp1132
I437
aI438
aS'at'
p1133
a(lp1134
(lp1135
I437
ag585
aa(lp1136
I438
ag587
aaaa(lp1137
I440
aI442
aS'the'
p1138
a(lp1139
(lp1140
I440
ag587
aa(lp1141
I441
ag582
aa(lp1142
I442
ag574
aaaa(lp1143
I444
aI447
ag429
a(lp1144
(lp1145
I444
ag618
aa(lp1146
I445
ag585
aa(lp1147
I446
ag728
aa(lp1148
I447
ag574
aaaa(lp1149
I450
aI456
ag438
a(lp1150
(lp1151
I450
ag582
aa(lp1152
I451
ag576
aa(lp1153
I452
ag614
aa(lp1154
I453
ag574
aa(lp1155
I454
ag568
aa(lp1156
I455
ag574
aa(lp1157
I456
ag597
aaaa(lp1158
I459
aI463
aS'there'
p1159
a(lp1160
(lp1161
I459
ag587
aa(lp1162
I460
ag582
aa(lp1163
I461
ag574
aa(lp1164
I462
ag597
aa(lp1165
I463
ag574
aaaa(lp1166
I465
aI466
aS'is'
p1167
a(lp1168
(lp1169
I465
ag570
aa(lp1170
I466
ag589
aaaa(lp1171
I468
aI470
aS'the'
p1172
a(lp1173
(lp1174
I468
ag587
aa(lp1175
I469
ag582
aa(lp1176
I470
ag574
aaaa(lp1177
I472
aI476
ag447
a(lp1178
(lp1179
I472
ag587
aa(lp1180
I473
ag597
aa(lp1181
I474
ag570
aa(lp1182
I475
ag574
aa(lp1183
I476
ag572
aaaa(lp1184
I478
aI480
aS'and'
p1185
a(lp1186
(lp1187
I478
ag585
aa(lp1188
I479
ag611
aa(lp1189
I480
ag572
aaaa(lp1190
I482
aI485
ag456
a(lp1191
(lp1192
I482
ag587
aa(lp1193
I483
ag597
aa(lp1194
I484
ag604
aa(lp1195
I485
ag574
aaaa(lp1196
I487
aI492
ag465
a(lp1197
(lp1198
I487
ag589
aa(lp1199
I488
ag570
aa(lp1200
I489
ag611
aa(lp1201
I490
ag618
aa(lp1202
I491
ag636
aa(lp1203
I492
ag574
aaaa(lp1204
I494
aI499
ag474
a(lp1205
(lp1206
I494
ag692
aa(lp1207
I495
ag636
aa(lp1208
I496
ag585
aa(lp1209
I497
ag606
aa(lp1210
I498
ag574
aa(lp1211
I499
ag597
aaaa(lp1212
I501
aI504
ag483
a(lp1213
(lp1214
I501
ag728
aa(lp1215
I502
ag576
aa(lp1216
I503
ag572
aa(lp1217
I504
ag574
aaaa(lp1218
I506
aI514
ag492
a(lp1219
(lp1220
I506
ag585
aa(lp1221
I507
ag568
aa(lp1222
I508
ag585
aa(lp1223
I509
ag570
aa(lp1224
I510
ag636
aa(lp1225
I511
ag585
aa(lp1226
I512
ag593
aa(lp1227
I513
ag636
aa(lp1228
I514
ag574
aaaa(lp1229
I516
aI520
aS'where'
p1230
a(lp1231
(lp1232
I516
ag614
aa(lp1233
I517
ag582
aa(lp1234
I518
ag574
aa(lp1235
I519
ag597
aa(lp1236
I520
ag574
aaaa(lp1237
I522
aI528
ag501
a(lp1238
(lp1239
I522
ag692
aa(lp1240
I523
ag636
aa(lp1241
I524
ag585
aa(lp1242
I525
ag606
aa(lp1243
I526
ag574
aa(lp1244
I527
ag597
aa(lp1245
I528
ag589
aaaa(lp1246
I530
aI532
aS'can'
p1247
a(lp1248
(lp1249
I530
ag580
aa(lp1250
I531
ag585
aa(lp1251
I532
ag611
aaaa(lp1252
I534
aI541
ag510
a(lp1253
(lp1254
I534
ag692
aa(lp1255
I535
ag597
aa(lp1256
I536
ag576
aa(lp1257
I537
ag618
aa(lp1258
I538
ag597
aa(lp1259
I539
ag574
aa(lp1260
I540
ag589
aa(lp1261
I541
ag589
aaaa(lp1262
I543
aI544
aS'in'
p1263
a(lp1264
(lp1265
I543
ag570
aa(lp1266
I544
ag611
aaaa(lp1267
I546
aI548
aS'any'
p1268
a(lp1269
(lp1270
I546
ag585
aa(lp1271
I547
ag611
aa(lp1272
I548
ag606
aaaa(lp1273
I550
aI552
ag519
a(lp1274
(lp1275
I550
ag614
aa(lp1276
I551
ag585
aa(lp1277
I552
ag606
aaaa(lp1278
I554
aI557
aS'they'
p1279
a(lp1280
(lp1281
I554
ag587
aa(lp1282
I555
ag582
aa(lp1283
I556
ag574
aa(lp1284
I557
ag606
aaaa(lp1285
I559
aI562
ag528
a(lp1286
(lp1287
I559
ag636
aa(lp1288
I560
ag570
aa(lp1289
I561
aS'k'
p1290
aa(lp1291
I562
ag574
aaaa(lp1292
I565
aI570
ag537
a(lp1293
(lp1294
I565
ag597
aa(lp1295
I566
ag585
aa(lp1296
I567
ag587
aa(lp1297
I568
ag570
aa(lp1298
I569
ag611
aa(lp1299
I570
ag618
aaaa(lp1300
I573
aI576
ag546
a(lp1301
(lp1302
I573
aS'1'
p1303
aa(lp1304
I574
aS'0'
p1305
aa(lp1306
I576
ag1305
aaaa(lp1307
I579
aI583
ag555
a(lp1308
(lp1309
I579
ag568
aa(lp1310
I580
ag576
aa(lp1311
I581
ag587
aa(lp1312
I582
ag574
aa(lp1313
I583
ag589
aaaasS'cleanCharacterMap'
p1314
(lp1315
g567
ag569
ag571
ag573
ag575
a(lp1316
I5
aS' '
p1317
aag579
ag581
ag583
ag584
ag586
ag588
a(lp1318
I12
ag1317
aag592
ag594
ag595
ag596
ag598
ag599
a(lp1319
I19
ag1317
aag602
ag603
ag605
a(lp1320
I23
ag1317
aag610
ag612
ag613
a(lp1321
I27
ag1317
aag617
ag619
ag620
ag621
ag622
ag623
a(lp1322
I34
ag1317
aag626
ag627
ag628
ag629
a(lp1323
I40
ag1317
aag632
ag633
ag634
ag635
ag637
a(lp1324
I46
ag1317
aag640
ag641
ag642
ag643
a(lp1325
I51
ag1317
aag646
ag647
ag648
ag649
a(lp1326
I56
ag1317
aag653
ag654
a(lp1327
I59
ag1317
aag657
ag658
ag659
ag660
a(lp1328
I64
ag1317
aag663
ag664
ag665
ag666
ag667
ag668
a(lp1329
I71
ag1317
aag671
ag672
ag673
ag674
ag675
a(lp1330
I77
ag1317
aag679
ag680
a(lp1331
I80
ag1317
aag684
ag685
ag686
ag687
ag688
a(lp1332
I86
ag1317
aag691
ag693
ag694
ag695
ag696
ag697
ag698
a(lp1333
I94
ag1317
aag702
ag703
ag704
a(lp1334
I98
ag1317
aag707
ag708
ag709
ag710
ag711
ag712
a(lp1335
I105
ag1317
aag716
ag717
ag718
ag719
ag720
a(lp1336
I111
ag1317
aag723
ag724
ag725
ag726
ag727
ag729
a(lp1337
I118
ag1317
aag733
ag734
a(lp1338
I121
ag1317
aag738
ag739
ag740
ag741
ag742
ag743
ag744
a(lp1339
I129
ag1317
aag747
ag748
ag749
ag750
ag751
ag752
ag753
a(lp1340
I138
ag1317
aag757
ag758
a(lp1341
I141
ag1317
aag762
ag763
ag764
a(lp1342
I145
ag1317
aag767
ag768
ag769
ag770
ag771
a(lp1343
I151
ag1317
aag774
ag775
ag776
ag777
ag778
a(lp1344
I157
ag1317
aag781
ag782
ag783
ag784
ag785
ag786
a(lp1345
I164
ag1317
aag790
ag791
a(lp1346
I167
ag1317
aag795
ag796
ag797
a(lp1347
I171
ag1317
aag800
ag801
ag802
ag803
ag804
a(lp1348
I177
ag1317
aag807
ag808
ag809
ag810
a(lp1349
I182
ag1317
aag813
a(lp1350
I184
ag1317
aag816
ag817
ag818
ag819
ag820
a(lp1351
I190
ag1317
aag824
ag825
a(lp1352
I193
ag1317
aag828
ag829
ag830
ag831
ag832
a(lp1353
I199
ag1317
aag835
ag836
ag837
ag838
ag839
ag840
ag841
a(lp1354
I207
ag1317
aag845
ag846
ag847
a(lp1355
I211
ag1317
aag850
ag851
a(lp1356
I214
ag1317
aag854
ag855
ag856
ag857
a(lp1357
I219
ag1317
aag861
ag862
a(lp1358
I222
ag1317
aag865
ag866
ag867
ag868
a(lp1359
I227
ag1317
aag871
ag872
ag873
ag874
ag875
ag876
a(lp1360
I234
ag1317
aag880
ag881
a(lp1361
I237
ag1317
aag884
ag885
ag886
a(lp1362
I241
ag1317
aag890
ag891
ag892
a(lp1363
I245
ag1317
aag896
ag897
ag898
a(lp1364
I249
ag1317
aag901
ag902
ag903
ag904
ag905
ag906
ag907
a(lp1365
I257
ag1317
aag911
ag912
ag913
a(lp1366
I261
ag1317
aag917
ag918
ag919
ag920
a(lp1367
I266
ag1317
aag923
ag924
ag925
ag926
ag927
ag928
ag929
a(lp1368
I274
ag1317
aag932
ag933
ag934
ag935
ag936
a(lp1369
I281
ag1317
aag939
ag940
ag941
ag942
a(lp1370
I286
ag1317
aag945
ag946
ag947
ag948
a(lp1371
I291
ag1317
aag951
ag952
ag953
ag954
ag955
ag956
ag957
a(lp1372
I299
ag1317
aag961
ag962
ag963
a(lp1373
I303
ag1317
aag967
ag968
ag969
ag970
a(lp1374
I308
ag1317
aag974
ag975
ag976
ag977
ag978
a(lp1375
I314
ag1317
aag982
ag983
ag984
a(lp1376
I318
ag1317
aag987
ag988
ag989
ag990
a(lp1377
I323
ag1317
aag994
ag995
ag996
a(lp1378
I327
ag1317
aag999
ag1000
ag1001
ag1002
a(lp1379
I333
ag1317
aag1005
ag1006
ag1007
ag1008
ag1009
ag1010
a(lp1380
I340
ag1317
aag1014
ag1015
a(lp1381
I343
ag1317
aag1019
ag1020
a(lp1382
I346
ag1317
aag1023
ag1024
ag1025
ag1026
ag1027
ag1028
ag1029
a(lp1383
I355
ag1317
aag1033
ag1034
ag1035
ag1036
ag1037
ag1038
ag1039
a(lp1384
I363
ag1317
aag1042
a(lp1385
I365
ag1317
aag1045
ag1046
ag1047
ag1048
ag1049
ag1050
ag1051
a(lp1386
I373
ag1317
aag1055
ag1056
a(lp1387
I376
ag1317
aag1059
ag1060
ag1061
ag1062
ag1063
ag1064
ag1065
a(lp1388
I384
ag1317
aag1068
ag1069
ag1070
ag1071
ag1072
ag1073
a(lp1389
I392
ag1317
aag1077
ag1078
ag1079
ag1080
a(lp1390
I397
ag1317
aag1084
ag1085
ag1086
a(lp1391
I401
ag1317
aag1089
ag1090
ag1091
ag1092
ag1093
ag1094
a(lp1392
I408
ag1317
aag1097
ag1098
ag1099
ag1100
ag1101
a(lp1393
I414
ag1317
aag1105
ag1106
a(lp1394
I417
ag1317
aag1109
ag1110
ag1111
a(lp1395
I421
ag1317
aag1115
ag1116
ag1117
ag1118
ag1119
a(lp1396
I427
ag1317
aag1123
ag1124
ag1125
a(lp1397
I431
ag1317
aag1128
ag1129
ag1130
ag1131
a(lp1398
I436
ag1317
aag1135
ag1136
a(lp1399
I439
ag1317
aag1140
ag1141
ag1142
a(lp1400
I443
ag1317
aag1145
ag1146
ag1147
ag1148
a(lp1401
I449
ag1317
aag1151
ag1152
ag1153
ag1154
ag1155
ag1156
ag1157
a(lp1402
I458
ag1317
aag1161
ag1162
ag1163
ag1164
ag1165
a(lp1403
I464
ag1317
aag1169
ag1170
a(lp1404
I467
ag1317
aag1174
ag1175
ag1176
a(lp1405
I471
ag1317
aag1179
ag1180
ag1181
ag1182
ag1183
a(lp1406
I477
ag1317
aag1187
ag1188
ag1189
a(lp1407
I481
ag1317
aag1192
ag1193
ag1194
ag1195
a(lp1408
I486
ag1317
aag1198
ag1199
ag1200
ag1201
ag1202
ag1203
a(lp1409
I493
ag1317
aag1206
ag1207
ag1208
ag1209
ag1210
ag1211
a(lp1410
I500
ag1317
aag1214
ag1215
ag1216
ag1217
a(lp1411
I505
ag1317
aag1220
ag1221
ag1222
ag1223
ag1224
ag1225
ag1226
ag1227
ag1228
a(lp1412
I515
ag1317
aag1232
ag1233
ag1234
ag1235
ag1236
a(lp1413
I521
ag1317
aag1239
ag1240
ag1241
ag1242
ag1243
ag1244
ag1245
a(lp1414
I529
ag1317
aag1249
ag1250
ag1251
a(lp1415
I533
ag1317
aag1254
ag1255
ag1256
ag1257
ag1258
ag1259
ag1260
ag1261
a(lp1416
I542
ag1317
aag1265
ag1266
a(lp1417
I545
ag1317
aag1270
ag1271
ag1272
a(lp1418
I549
ag1317
aag1275
ag1276
ag1277
a(lp1419
I553
ag1317
aag1281
ag1282
ag1283
ag1284
a(lp1420
I558
ag1317
aag1287
ag1288
ag1289
ag1291
a(lp1421
I564
ag1317
aag1294
ag1295
ag1296
ag1297
ag1298
ag1299
a(lp1422
I572
ag1317
aag1302
ag1304
ag1306
a(lp1423
I578
ag1317
aag1309
ag1310
ag1311
ag1312
ag1313
a(lp1424
I585
ag1317
aa(lp1425
I586
aS'2'
p1426
aasS'text'
p1427
S'video cheats boards buy now guitar hero: world tour sets an even bigger stage on which players can create their dreams of musical stardom. in the newly added battle of the bands mode a total of eight players can go head to head online to see who can produce the most stellar sound. also four players can from their own band and play, either on or offline, through a variety of musical venues. when the player wants to try their own hand at the game, however, there is the tried and true single player mode available where players can progress in any way they like. rating: 10.0, votes: 2'
p1428
sS'cleanWordMap'
p1429
(lp1430
g565
ag577
ag590
ag600
ag615
ag624
ag630
ag638
ag644
ag655
ag661
ag669
ag689
ag705
ag721
ag736
ag745
ag765
ag772
ag779
ag798
ag805
ag814
ag826
ag833
ag848
ag852
ag863
ag869
ag882
ag899
ag921
ag930
ag937
ag943
ag949
ag985
ag997
ag1003
ag1021
ag1043
ag1057
ag1066
ag1087
ag1095
ag1107
ag1126
ag1143
ag1149
ag1177
ag1190
ag1196
ag1204
ag1212
ag1218
ag1237
ag1252
ag1273
ag1285
ag1292
ag1300
ag1307
asS'lines'
p1431
(lp1432
VVideo Cheats Boards Buy Now\u000a
p1433
aVGuitar Hero: World Tour sets an even bigger stage on which players can create their dreams of musical stardom. In the newly added Battle of The Bands mode a total of eight players can go head to head online to see who can produce the most stellar sound. Also four players can from their own band and play, either on or offline, through a variety of musical venues. When the player wants to try their own hand at the game, however, there is the tried and true Single Player mode available where players can progress in any way they like.\u000a
p1434
aVRating: 10.0, votes: 2
p1435
asS'docType'
p1436
S'src'
p1437
sS'newfmap'
p1438
(lp1439
g4
ag8
ag10
ag12
ag14
ag17
ag19
ag21
ag23
ag26
ag28
ag30
ag32
ag35
ag37
ag39
ag41
ag44
ag46
ag48
ag50
ag53
ag55
ag57
ag59
ag62
ag64
ag66
ag68
ag71
ag73
ag75
ag77
ag80
ag82
ag84
ag86
ag89
ag91
ag93
ag95
ag98
ag100
ag102
ag104
ag107
ag109
ag111
ag113
ag116
ag118
ag120
ag122
ag125
ag127
ag129
ag131
ag134
ag136
ag138
ag140
ag143
ag145
ag147
ag149
ag152
ag154
ag156
ag158
ag161
ag163
ag165
ag167
ag170
ag172
ag174
ag176
ag179
ag181
ag183
ag185
ag188
ag190
ag192
ag194
ag197
ag199
ag201
ag203
ag206
ag208
ag210
ag212
ag215
ag217
ag219
ag221
ag224
ag226
ag228
ag230
ag233
ag235
ag237
ag239
ag242
ag244
ag246
ag248
ag251
ag253
ag255
ag257
ag260
ag262
ag264
ag266
ag269
ag271
ag273
ag275
ag278
ag280
ag282
ag284
ag287
ag289
ag291
ag293
ag296
ag298
ag300
ag302
ag305
ag307
ag309
ag311
ag314
ag316
ag318
ag320
ag323
ag325
ag327
ag329
ag332
ag334
ag336
ag338
ag341
ag343
ag345
ag347
ag350
ag352
ag354
ag356
ag359
ag361
ag363
ag365
ag368
ag370
ag372
ag374
ag377
ag379
ag381
ag383
ag386
ag388
ag390
ag392
ag395
ag397
ag399
ag401
ag404
ag406
ag408
ag410
ag413
ag415
ag417
ag419
ag422
ag424
ag426
ag428
ag431
ag433
ag435
ag437
ag440
ag442
ag444
ag446
ag449
ag451
ag453
ag455
ag458
ag460
ag462
ag464
ag467
ag469
ag471
ag473
ag476
ag478
ag480
ag482
ag485
ag487
ag489
ag491
ag494
ag496
ag498
ag500
ag503
ag505
ag507
ag509
ag512
ag514
ag516
ag518
ag521
ag523
ag525
ag527
ag530
ag532
ag534
ag536
ag539
ag541
ag543
ag545
ag548
ag550
ag552
ag554
ag557
ag559
ag561
asS'featureMap'
p1440
(lp1441
(lp1442
I0
aI4
ag5
ag6
ag9
ag11
ag13
aa(lp1443
I6
aI11
ag15
ag16
ag18
ag20
ag22
aa(lp1444
I13
aI18
ag24
ag25
ag27
ag29
ag31
aa(lp1445
I20
aI22
ag33
ag34
ag36
ag38
ag40
aa(lp1446
I28
aI33
ag42
ag43
ag45
ag47
ag49
aa(lp1447
I35
aI38
ag51
ag52
ag54
ag56
ag58
aa(lp1448
I41
aI45
ag60
ag61
ag63
ag65
ag67
aa(lp1449
I47
aI50
ag69
ag70
ag72
ag74
ag76
aa(lp1450
I52
aI55
ag78
ag79
ag81
ag83
ag85
aa(lp1451
I60
aI63
ag87
ag88
ag90
ag92
ag94
aa(lp1452
I65
aI70
ag96
ag97
ag99
ag101
ag103
aa(lp1453
I72
aI76
ag105
ag106
ag108
ag110
ag112
aa(lp1454
I87
aI93
ag114
ag115
ag117
ag119
ag121
aa(lp1455
I99
aI104
ag123
ag124
ag126
ag128
ag130
aa(lp1456
I112
aI117
ag132
ag133
ag135
ag137
ag139
aa(lp1457
I122
aI128
ag141
ag142
ag144
ag146
ag148
aa(lp1458
I130
aI136
ag150
ag151
ag153
ag155
ag157
aa(lp1459
I146
aI150
ag159
ag160
ag162
ag164
ag166
aa(lp1460
I152
aI156
ag168
ag169
ag171
ag173
ag175
aa(lp1461
I158
aI163
ag177
ag178
ag180
ag182
ag184
aa(lp1462
I172
aI176
ag186
ag187
ag189
ag191
ag193
aa(lp1463
I178
aI181
ag195
ag196
ag198
ag200
ag202
aa(lp1464
I185
aI189
ag204
ag205
ag207
ag209
ag211
aa(lp1465
I194
aI198
ag213
ag214
ag216
ag218
ag220
aa(lp1466
I200
aI206
ag222
ag223
ag225
ag227
ag229
aa(lp1467
I212
aI213
ag231
ag232
ag234
ag236
ag238
aa(lp1468
I215
aI218
ag240
ag241
ag243
ag245
ag247
aa(lp1469
I223
aI226
ag249
ag250
ag252
ag254
ag256
aa(lp1470
I228
aI233
ag258
ag259
ag261
ag263
ag265
aa(lp1471
I238
aI240
ag267
ag268
ag270
ag272
ag274
aa(lp1472
I250
aI256
ag276
ag277
ag279
ag281
ag283
aa(lp1473
I267
aI273
ag285
ag286
ag288
ag290
ag292
aa(lp1474
I275
aI279
ag294
ag295
ag297
ag299
ag301
aa(lp1475
I282
aI285
ag303
ag304
ag306
ag308
ag310
aa(lp1476
I287
aI290
ag312
ag313
ag315
ag317
ag319
aa(lp1477
I292
aI298
ag321
ag322
ag324
ag326
ag328
aa(lp1478
I319
aI322
ag330
ag331
ag333
ag335
ag337
aa(lp1479
I328
aI331
ag339
ag340
ag342
ag344
ag346
aa(lp1480
I334
aI339
ag348
ag349
ag351
ag353
ag355
aa(lp1481
I347
aI353
ag357
ag358
ag360
ag362
ag364
aa(lp1482
I366
aI372
ag366
ag367
ag369
ag371
ag373
aa(lp1483
I377
aI383
ag375
ag376
ag378
ag380
ag382
aa(lp1484
I385
aI390
ag384
ag385
ag387
ag389
ag391
aa(lp1485
I402
aI407
ag393
ag394
ag396
ag398
ag400
aa(lp1486
I409
aI413
ag402
ag403
ag405
ag407
ag409
aa(lp1487
I418
aI420
ag411
ag412
ag414
ag416
ag418
aa(lp1488
I432
aI435
ag420
ag421
ag423
ag425
ag427
aa(lp1489
I444
aI447
ag429
ag430
ag432
ag434
ag436
aa(lp1490
I450
aI456
ag438
ag439
ag441
ag443
ag445
aa(lp1491
I472
aI476
ag447
ag448
ag450
ag452
ag454
aa(lp1492
I482
aI485
ag456
ag457
ag459
ag461
ag463
aa(lp1493
I487
aI492
ag465
ag466
ag468
ag470
ag472
aa(lp1494
I494
aI499
ag474
ag475
ag477
ag479
ag481
aa(lp1495
I501
aI504
ag483
ag484
ag486
ag488
ag490
aa(lp1496
I506
aI514
ag492
ag493
ag495
ag497
ag499
aa(lp1497
I522
aI528
ag501
ag502
ag504
ag506
ag508
aa(lp1498
I534
aI541
ag510
ag511
ag513
ag515
ag517
aa(lp1499
I550
aI552
ag519
ag520
ag522
ag524
ag526
aa(lp1500
I559
aI562
ag528
ag529
ag531
ag533
ag535
aa(lp1501
I565
aI570
ag537
ag538
ag540
ag542
ag544
aa(lp1502
I573
aI576
ag546
ag547
ag549
ag551
ag553
aa(lp1503
I579
aI583
ag555
ag556
ag558
ag560
ag562
aasS'characterMap'
p1504
(lp1505
g567
ag569
ag571
ag573
ag575
ag1316
ag579
ag581
ag583
ag584
ag586
ag588
ag1318
ag592
ag594
ag595
ag596
ag598
ag599
ag1319
ag602
ag603
ag605
ag1320
ag610
ag612
ag613
ag1321
ag617
ag619
ag620
ag621
ag622
ag623
ag1322
ag626
ag627
ag628
ag629
a(lp1506
I39
aS':'
p1507
aag1323
ag632
ag633
ag634
ag635
ag637
ag1324
ag640
ag641
ag642
ag643
ag1325
ag646
ag647
ag648
ag649
ag1326
ag653
ag654
ag1327
ag657
ag658
ag659
ag660
ag1328
ag663
ag664
ag665
ag666
ag667
ag668
ag1329
ag671
ag672
ag673
ag674
ag675
ag1330
ag679
ag680
ag1331
ag684
ag685
ag686
ag687
ag688
ag1332
ag691
ag693
ag694
ag695
ag696
ag697
ag698
ag1333
ag702
ag703
ag704
ag1334
ag707
ag708
ag709
ag710
ag711
ag712
ag1335
ag716
ag717
ag718
ag719
ag720
ag1336
ag723
ag724
ag725
ag726
ag727
ag729
ag1337
ag733
ag734
ag1338
ag738
ag739
ag740
ag741
ag742
ag743
ag744
ag1339
ag747
ag748
ag749
ag750
ag751
ag752
ag753
a(lp1508
I137
aS'.'
p1509
aag1340
ag757
ag758
ag1341
ag762
ag763
ag764
ag1342
ag767
ag768
ag769
ag770
ag771
ag1343
ag774
ag775
ag776
ag777
ag778
ag1344
ag781
ag782
ag783
ag784
ag785
ag786
ag1345
ag790
ag791
ag1346
ag795
ag796
ag797
ag1347
ag800
ag801
ag802
ag803
ag804
ag1348
ag807
ag808
ag809
ag810
ag1349
ag813
ag1350
ag816
ag817
ag818
ag819
ag820
ag1351
ag824
ag825
ag1352
ag828
ag829
ag830
ag831
ag832
ag1353
ag835
ag836
ag837
ag838
ag839
ag840
ag841
ag1354
ag845
ag846
ag847
ag1355
ag850
ag851
ag1356
ag854
ag855
ag856
ag857
ag1357
ag861
ag862
ag1358
ag865
ag866
ag867
ag868
ag1359
ag871
ag872
ag873
ag874
ag875
ag876
ag1360
ag880
ag881
ag1361
ag884
ag885
ag886
ag1362
ag890
ag891
ag892
ag1363
ag896
ag897
ag898
ag1364
ag901
ag902
ag903
ag904
ag905
ag906
ag907
ag1365
ag911
ag912
ag913
ag1366
ag917
ag918
ag919
ag920
ag1367
ag923
ag924
ag925
ag926
ag927
ag928
ag929
ag1368
ag932
ag933
ag934
ag935
ag936
a(lp1510
I280
ag1509
aag1369
ag939
ag940
ag941
ag942
ag1370
ag945
ag946
ag947
ag948
ag1371
ag951
ag952
ag953
ag954
ag955
ag956
ag957
ag1372
ag961
ag962
ag963
ag1373
ag967
ag968
ag969
ag970
ag1374
ag974
ag975
ag976
ag977
ag978
ag1375
ag982
ag983
ag984
ag1376
ag987
ag988
ag989
ag990
ag1377
ag994
ag995
ag996
ag1378
ag999
ag1000
ag1001
ag1002
a(lp1511
I332
aS','
p1512
aag1379
ag1005
ag1006
ag1007
ag1008
ag1009
ag1010
ag1380
ag1014
ag1015
ag1381
ag1019
ag1020
ag1382
ag1023
ag1024
ag1025
ag1026
ag1027
ag1028
ag1029
a(lp1513
I354
ag1512
aag1383
ag1033
ag1034
ag1035
ag1036
ag1037
ag1038
ag1039
ag1384
ag1042
ag1385
ag1045
ag1046
ag1047
ag1048
ag1049
ag1050
ag1051
ag1386
ag1055
ag1056
ag1387
ag1059
ag1060
ag1061
ag1062
ag1063
ag1064
ag1065
ag1388
ag1068
ag1069
ag1070
ag1071
ag1072
ag1073
a(lp1514
I391
ag1509
aag1389
ag1077
ag1078
ag1079
ag1080
ag1390
ag1084
ag1085
ag1086
ag1391
ag1089
ag1090
ag1091
ag1092
ag1093
ag1094
ag1392
ag1097
ag1098
ag1099
ag1100
ag1101
ag1393
ag1105
ag1106
ag1394
ag1109
ag1110
ag1111
ag1395
ag1115
ag1116
ag1117
ag1118
ag1119
ag1396
ag1123
ag1124
ag1125
ag1397
ag1128
ag1129
ag1130
ag1131
ag1398
ag1135
ag1136
ag1399
ag1140
ag1141
ag1142
ag1400
ag1145
ag1146
ag1147
ag1148
a(lp1515
I448
ag1512
aag1401
ag1151
ag1152
ag1153
ag1154
ag1155
ag1156
ag1157
a(lp1516
I457
ag1512
aag1402
ag1161
ag1162
ag1163
ag1164
ag1165
ag1403
ag1169
ag1170
ag1404
ag1174
ag1175
ag1176
ag1405
ag1179
ag1180
ag1181
ag1182
ag1183
ag1406
ag1187
ag1188
ag1189
ag1407
ag1192
ag1193
ag1194
ag1195
ag1408
ag1198
ag1199
ag1200
ag1201
ag1202
ag1203
ag1409
ag1206
ag1207
ag1208
ag1209
ag1210
ag1211
ag1410
ag1214
ag1215
ag1216
ag1217
ag1411
ag1220
ag1221
ag1222
ag1223
ag1224
ag1225
ag1226
ag1227
ag1228
ag1412
ag1232
ag1233
ag1234
ag1235
ag1236
ag1413
ag1239
ag1240
ag1241
ag1242
ag1243
ag1244
ag1245
ag1414
ag1249
ag1250
ag1251
ag1415
ag1254
ag1255
ag1256
ag1257
ag1258
ag1259
ag1260
ag1261
ag1416
ag1265
ag1266
ag1417
ag1270
ag1271
ag1272
ag1418
ag1275
ag1276
ag1277
ag1419
ag1281
ag1282
ag1283
ag1284
ag1420
ag1287
ag1288
ag1289
ag1291
a(lp1517
I563
ag1509
aag1421
ag1294
ag1295
ag1296
ag1297
ag1298
ag1299
a(lp1518
I571
ag1507
aag1422
ag1302
ag1304
a(lp1519
I575
ag1509
aag1306
a(lp1520
I577
ag1512
aag1423
ag1309
ag1310
ag1311
ag1312
ag1313
a(lp1521
I584
ag1507
aag1424
ag1425
asS'docName'
p1522
S'source-document00988.txt'
p1523
sb.