(iModel.Document
Document
p0
(dp1
S'fmap'
p2
(lp3
(lp4
I3
aI8
aS'invite'
p5
a(lp6
S'*'
p7
ag5
aaa(lp8
I3
aI8
ag5
a(lp9
g7
ag5
aaa(lp10
I3
aI8
ag5
a(lp11
g7
ag5
aaa(lp12
I3
aI8
ag5
a(lp13
g7
ag5
aaa(lp14
I17
aI21
aS'visit'
p15
a(lp16
g5
ag15
aaa(lp17
I17
aI21
ag15
a(lp18
g7
ag15
aaa(lp19
I17
aI21
ag15
a(lp20
g7
ag15
aaa(lp21
I17
aI21
ag15
a(lp22
g7
ag15
aaa(lp23
I39
aI46
aS'students'
p24
a(lp25
g15
ag24
aaa(lp26
I39
aI46
ag24
a(lp27
g5
ag24
aaa(lp28
I39
aI46
ag24
a(lp29
g7
ag24
aaa(lp30
I39
aI46
ag24
a(lp31
g7
ag24
aaa(lp32
I56
aI62
aS'sharing'
p33
a(lp34
g24
ag33
aaa(lp35
I56
aI62
ag33
a(lp36
g15
ag33
aaa(lp37
I56
aI62
ag33
a(lp38
g5
ag33
aaa(lp39
I56
aI62
ag33
a(lp40
g7
ag33
aaa(lp41
I70
aI80
aS'experiences'
p42
a(lp43
g33
ag42
aaa(lp44
I70
aI80
ag42
a(lp45
g24
ag42
aaa(lp46
I70
aI80
ag42
a(lp47
g15
ag42
aaa(lp48
I70
aI80
ag42
a(lp49
g5
ag42
aaa(lp50
I88
aI91
aS'life'
p51
a(lp52
g42
ag51
aaa(lp53
I88
aI91
ag51
a(lp54
g33
ag51
aaa(lp55
I88
aI91
ag51
a(lp56
g24
ag51
aaa(lp57
I88
aI91
ag51
a(lp58
g15
ag51
aaa(lp59
I97
aI100
aS'work'
p60
a(lp61
g51
ag60
aaa(lp62
I97
aI100
ag60
a(lp63
g42
ag60
aaa(lp64
I97
aI100
ag60
a(lp65
g33
ag60
aaa(lp66
I97
aI100
ag60
a(lp67
g24
ag60
aaa(lp68
I105
aI108
aS'mayo'
p69
a(lp70
g60
ag69
aaa(lp71
I105
aI108
ag69
a(lp72
g51
ag69
aaa(lp73
I105
aI108
ag69
a(lp74
g42
ag69
aaa(lp75
I105
aI108
ag69
a(lp76
g33
ag69
aaa(lp77
I110
aI115
aS'clinic'
p78
a(lp79
g69
ag78
aaa(lp80
I110
aI115
ag78
a(lp81
g60
ag78
aaa(lp82
I110
aI115
ag78
a(lp83
g51
ag78
aaa(lp84
I110
aI115
ag78
a(lp85
g42
ag78
aaa(lp86
I121
aI129
aS'encourage'
p87
a(lp88
g78
ag87
aaa(lp89
I121
aI129
ag87
a(lp90
g69
ag87
aaa(lp91
I121
aI129
ag87
a(lp92
g60
ag87
aaa(lp93
I121
aI129
ag87
a(lp94
g51
ag87
aaa(lp95
I138
aI140
aS'ask'
p96
a(lp97
g87
ag96
aaa(lp98
I138
aI140
ag96
a(lp99
g78
ag96
aaa(lp100
I138
aI140
ag96
a(lp101
g69
ag96
aaa(lp102
I138
aI140
ag96
a(lp103
g60
ag96
aaa(lp104
I146
aI154
aS'questions'
p105
a(lp106
g96
ag105
aaa(lp107
I146
aI154
ag105
a(lp108
g87
ag105
aaa(lp109
I146
aI154
ag105
a(lp110
g78
ag105
aaa(lp111
I146
aI154
ag105
a(lp112
g69
ag105
aaa(lp113
I160
aI162
aS'may'
p114
a(lp115
g105
ag114
aaa(lp116
I160
aI162
ag114
a(lp117
g96
ag114
aaa(lp118
I160
aI162
ag114
a(lp119
g87
ag114
aaa(lp120
I160
aI162
ag114
a(lp121
g78
ag114
aaa(lp122
I170
aI173
aS'blog'
p123
a(lp124
g114
ag123
aaa(lp125
I170
aI173
ag123
a(lp126
g105
ag123
aaa(lp127
I170
aI173
ag123
a(lp128
g96
ag123
aaa(lp129
I170
aI173
ag123
a(lp130
g87
ag123
aaa(lp131
I175
aI181
aS'adetolu'
p132
a(lp133
g123
ag132
aaa(lp134
I175
aI181
ag132
a(lp135
g114
ag132
aaa(lp136
I175
aI181
ag132
a(lp137
g105
ag132
aaa(lp138
I175
aI181
ag132
a(lp139
g96
ag132
aaa(lp140
I191
aI196
aS'always'
p141
a(lp142
g132
ag141
aaa(lp143
I191
aI196
ag141
a(lp144
g123
ag141
aaa(lp145
I191
aI196
ag141
a(lp146
g114
ag141
aaa(lp147
I191
aI196
ag141
a(lp148
g105
ag141
aaa(lp149
I205
aI208
aS'goal'
p150
a(lp151
g141
ag150
aaa(lp152
I205
aI208
ag150
a(lp153
g132
ag150
aaa(lp154
I205
aI208
ag150
a(lp155
g123
ag150
aaa(lp156
I205
aI208
ag150
a(lp157
g114
ag150
aaa(lp158
I213
aI216
aS'mine'
p159
a(lp160
g150
ag159
aaa(lp161
I213
aI216
ag159
a(lp162
g141
ag159
aaa(lp163
I213
aI216
ag159
a(lp164
g132
ag159
aaa(lp165
I213
aI216
ag159
a(lp166
g123
ag159
aaa(lp167
I221
aI223
aS'try'
p168
a(lp169
g159
ag168
aaa(lp170
I221
aI223
ag168
a(lp171
g150
ag168
aaa(lp172
I221
aI223
ag168
a(lp173
g141
ag168
aaa(lp174
I221
aI223
ag168
a(lp175
g132
ag168
aaa(lp176
I228
aI233
aS'create'
p177
a(lp178
g168
ag177
aaa(lp179
I228
aI233
ag177
a(lp180
g159
ag177
aaa(lp181
I228
aI233
ag177
a(lp182
g150
ag177
aaa(lp183
I228
aI233
ag177
a(lp184
g141
ag177
aaa(lp185
I237
aI242
aS'better'
p186
a(lp187
g177
ag186
aaa(lp188
I237
aI242
ag186
a(lp189
g168
ag186
aaa(lp190
I237
aI242
ag186
a(lp191
g159
ag186
aaa(lp192
I237
aI242
ag186
a(lp193
g150
ag186
aaa(lp194
I244
aI248
aS'world'
p195
a(lp196
g186
ag195
aaa(lp197
I244
aI248
ag195
a(lp198
g177
ag195
aaa(lp199
I244
aI248
ag195
a(lp200
g168
ag195
aaa(lp201
I244
aI248
ag195
a(lp202
g159
ag195
aaa(lp203
I253
aI260
aS'medicine'
p204
a(lp205
g195
ag204
aaa(lp206
I253
aI260
ag204
a(lp207
g186
ag204
aaa(lp208
I253
aI260
ag204
a(lp209
g177
ag204
aaa(lp210
I253
aI260
ag204
a(lp211
g168
ag204
aaa(lp212
I266
aI271
aS'people'
p213
a(lp214
g204
ag213
aaa(lp215
I266
aI271
ag213
a(lp216
g195
ag213
aaa(lp217
I266
aI271
ag213
a(lp218
g186
ag213
aaa(lp219
I266
aI271
ag213
a(lp220
g177
ag213
aaa(lp221
I282
aI285
aS'many'
p222
a(lp223
g213
ag222
aaa(lp224
I282
aI285
ag222
a(lp225
g204
ag222
aaa(lp226
I282
aI285
ag222
a(lp227
g195
ag222
aaa(lp228
I282
aI285
ag222
a(lp229
g186
ag222
aaa(lp230
I287
aI291
aS'years'
p231
a(lp232
g222
ag231
aaa(lp233
I287
aI291
ag231
a(lp234
g213
ag231
aaa(lp235
I287
aI291
ag231
a(lp236
g204
ag231
aaa(lp237
I287
aI291
ag231
a(lp238
g195
ag231
aaa(lp239
I296
aI303
aS'didn\xe2\x80\x99t'
p240
a(lp241
g231
ag240
aaa(lp242
I296
aI303
ag240
a(lp243
g222
ag240
aaa(lp244
I296
aI303
ag240
a(lp245
g213
ag240
aaa(lp246
I296
aI303
ag240
a(lp247
g204
ag240
aaa(lp248
I305
aI308
aS'know'
p249
a(lp250
g240
ag249
aaa(lp251
I305
aI308
ag249
a(lp252
g231
ag249
aaa(lp253
I305
aI308
ag249
a(lp254
g222
ag249
aaa(lp255
I305
aI308
ag249
a(lp256
g213
ag249
aaa(lp257
I316
aI320
aS'could'
p258
a(lp259
g249
ag258
aaa(lp260
I316
aI320
ag258
a(lp261
g240
ag258
aaa(lp262
I316
aI320
ag258
a(lp263
g231
ag258
aaa(lp264
I316
aI320
ag258
a(lp265
g222
ag258
aaa(lp266
I330
aI332
aS'\xe2\x80\xa6'
p267
a(lp268
g258
ag267
aaa(lp269
I330
aI332
ag267
a(lp270
g249
ag267
aaa(lp271
I330
aI332
ag267
a(lp272
g240
ag267
aaa(lp273
I330
aI332
ag267
a(lp274
g231
ag267
aaa(lp275
I344
aI346
aS'see'
p276
a(lp277
g267
ag276
aaa(lp278
I344
aI346
ag276
a(lp279
g258
ag276
aaa(lp280
I344
aI346
ag276
a(lp281
g249
ag276
aaa(lp282
I344
aI346
ag276
a(lp283
g240
ag276
aaa(lp284
I357
aI361
aS'dream'
p285
a(lp286
g276
ag285
aaa(lp287
I357
aI361
ag285
a(lp288
g267
ag285
aaa(lp289
I357
aI361
ag285
a(lp290
g258
ag285
aaa(lp291
I357
aI361
ag285
a(lp292
g249
ag285
aaa(lp293
I363
aI367
aS'could'
p294
a(lp295
g285
ag294
aaa(lp296
I363
aI367
ag294
a(lp297
g276
ag294
aaa(lp298
I363
aI367
ag294
a(lp299
g267
ag294
aaa(lp300
I363
aI367
ag294
a(lp301
g258
ag294
aaa(lp302
I369
aI372
aS'come'
p303
a(lp304
g294
ag303
aaa(lp305
I369
aI372
ag303
a(lp306
g285
ag303
aaa(lp307
I369
aI372
ag303
a(lp308
g276
ag303
aaa(lp309
I369
aI372
ag303
a(lp310
g267
ag303
aaa(lp311
I374
aI377
aS'true'
p312
a(lp313
g303
ag312
aaa(lp314
I374
aI377
ag312
a(lp315
g294
ag312
aaa(lp316
I374
aI377
ag312
a(lp317
g285
ag312
aaa(lp318
I374
aI377
ag312
a(lp319
g276
ag312
aaa(lp320
I389
aI393
aS'brian'
p321
a(lp322
g312
ag321
aaa(lp323
I389
aI393
ag321
a(lp324
g303
ag321
aaa(lp325
I389
aI393
ag321
a(lp326
g294
ag321
aaa(lp327
I389
aI393
ag321
a(lp328
g285
ag321
aaa(lp329
I396
aI403
aS'combined'
p330
a(lp331
g321
ag330
aaa(lp332
I396
aI403
ag330
a(lp333
g312
ag330
aaa(lp334
I396
aI403
ag330
a(lp335
g303
ag330
aaa(lp336
I396
aI403
ag330
a(lp337
g294
ag330
aaa(lp338
I410
aI412
aS'two'
p339
a(lp340
g330
ag339
aaa(lp341
I410
aI412
ag339
a(lp342
g321
ag339
aaa(lp343
I410
aI412
ag339
a(lp344
g312
ag339
aaa(lp345
I410
aI412
ag339
a(lp346
g303
ag339
aaa(lp347
I414
aI420
aS'degrees'
p348
a(lp349
g339
ag348
aaa(lp350
I414
aI420
ag348
a(lp351
g330
ag348
aaa(lp352
I414
aI420
ag348
a(lp353
g321
ag348
aaa(lp354
I414
aI420
ag348
a(lp355
g312
ag348
aaa(lp356
I422
aI427
aS'enable'
p357
a(lp358
g348
ag357
aaa(lp359
I422
aI427
ag357
a(lp360
g339
ag357
aaa(lp361
I422
aI427
ag357
a(lp362
g330
ag357
aaa(lp363
I422
aI427
ag357
a(lp364
g321
ag357
aaa(lp365
I436
aI440
aS'reach'
p366
a(lp367
g357
ag366
aaa(lp368
I436
aI440
ag366
a(lp369
g348
ag366
aaa(lp370
I436
aI440
ag366
a(lp371
g339
ag366
aaa(lp372
I436
aI440
ag366
a(lp373
g330
ag366
aaa(lp374
I451
aI457
aS'bedside'
p375
a(lp376
g366
ag375
aaa(lp377
I451
aI457
ag375
a(lp378
g357
ag375
aaa(lp379
I451
aI457
ag375
a(lp380
g348
ag375
aaa(lp381
I451
aI457
ag375
a(lp382
g339
ag375
aaa(lp383
I466
aI475
aS'government'
p384
a(lp385
g375
ag384
aaa(lp386
I466
aI475
ag384
a(lp387
g366
ag384
aaa(lp388
I466
aI475
ag384
a(lp389
g357
ag384
aaa(lp390
I466
aI475
ag384
a(lp391
g348
ag384
aaa(lp392
I477
aI482
aS'bodies'
p393
a(lp394
g384
ag393
aaa(lp395
I477
aI482
ag393
a(lp396
g375
ag393
aaa(lp397
I477
aI482
ag393
a(lp398
g366
ag393
aaa(lp399
I477
aI482
ag393
a(lp400
g357
ag393
aaa(lp401
I488
aI496
aS'corporate'
p402
a(lp403
g393
ag402
aaa(lp404
I488
aI496
ag402
a(lp405
g384
ag402
aaa(lp406
I488
aI496
ag402
a(lp407
g375
ag402
aaa(lp408
I488
aI496
ag402
a(lp409
g366
ag402
aaa(lp410
I498
aI507
aS'boardrooms'
p411
a(lp412
g402
ag411
aaa(lp413
I498
aI507
ag411
a(lp414
g393
ag411
aaa(lp415
I498
aI507
ag411
a(lp416
g384
ag411
aaa(lp417
I498
aI507
ag411
a(lp418
g375
ag411
aaa(lp419
I514
aI518
aS'shape'
p420
a(lp421
g411
ag420
aaa(lp422
I514
aI518
ag420
a(lp423
g402
ag420
aaa(lp424
I514
aI518
ag420
a(lp425
g393
ag420
aaa(lp426
I514
aI518
ag420
a(lp427
g384
ag420
aaa(lp428
I524
aI530
aS'ability'
p429
a(lp430
g420
ag429
aaa(lp431
I524
aI530
ag429
a(lp432
g411
ag429
aaa(lp433
I524
aI530
ag429
a(lp434
g402
ag429
aaa(lp435
I524
aI530
ag429
a(lp436
g393
ag429
aaa(lp437
I535
aI541
aS'provide'
p438
a(lp439
g429
ag438
aaa(lp440
I535
aI541
ag438
a(lp441
g420
ag438
aaa(lp442
I535
aI541
ag438
a(lp443
g411
ag438
aaa(lp444
I535
aI541
ag438
a(lp445
g402
ag438
aaa(lp446
I543
aI549
aS'medical'
p447
a(lp448
g438
ag447
aaa(lp449
I543
aI549
ag447
a(lp450
g429
ag447
aaa(lp451
I543
aI549
ag447
a(lp452
g420
ag447
aaa(lp453
I543
aI549
ag447
a(lp454
g411
ag447
aaa(lp455
I551
aI554
aS'care'
p456
a(lp457
g447
ag456
aaa(lp458
I551
aI554
ag456
a(lp459
g438
ag456
aaa(lp460
I551
aI554
ag456
a(lp461
g429
ag456
aaa(lp462
I551
aI554
ag456
a(lp463
g420
ag456
aaasS'wordMap'
p464
(lp465
(lp466
I0
aI1
aS'we'
p467
a(lp468
(lp469
I0
aS'w'
p470
aa(lp471
I1
aS'e'
p472
aaaa(lp473
I3
aI8
ag5
a(lp474
(lp475
I3
aS'i'
p476
aa(lp477
I4
aS'n'
p478
aa(lp479
I5
aS'v'
p480
aa(lp481
I6
ag476
aa(lp482
I7
aS't'
p483
aa(lp484
I8
ag472
aaaa(lp485
I10
aI12
aS'you'
p486
a(lp487
(lp488
I10
aS'y'
p489
aa(lp490
I11
aS'o'
p491
aa(lp492
I12
aS'u'
p493
aaaa(lp494
I14
aI15
aS'to'
p495
a(lp496
(lp497
I14
ag483
aa(lp498
I15
ag491
aaaa(lp499
I17
aI21
ag15
a(lp500
(lp501
I17
ag480
aa(lp502
I18
ag476
aa(lp503
I19
aS's'
p504
aa(lp505
I20
ag476
aa(lp506
I21
ag483
aaaa(lp507
I23
aI25
aS'our'
p508
a(lp509
(lp510
I23
ag491
aa(lp511
I24
ag493
aa(lp512
I25
aS'r'
p513
aaaa(lp514
I29
aI33
aS'where'
p515
a(lp516
(lp517
I29
ag470
aa(lp518
I30
aS'h'
p519
aa(lp520
I31
ag472
aa(lp521
I32
ag513
aa(lp522
I33
ag472
aaaa(lp523
I35
aI37
aS'the'
p524
a(lp525
(lp526
I35
ag483
aa(lp527
I36
ag519
aa(lp528
I37
ag472
aaaa(lp529
I39
aI46
ag24
a(lp530
(lp531
I39
ag504
aa(lp532
I40
ag483
aa(lp533
I41
ag493
aa(lp534
I42
aS'd'
p535
aa(lp536
I43
ag472
aa(lp537
I44
ag478
aa(lp538
I45
ag483
aa(lp539
I46
ag504
aaaa(lp540
I48
aI51
aS'will'
p541
a(lp542
(lp543
I48
ag470
aa(lp544
I49
ag476
aa(lp545
I50
aS'l'
p546
aa(lp547
I51
ag546
aaaa(lp548
I53
aI54
aS'be'
p549
a(lp550
(lp551
I53
aS'b'
p552
aa(lp553
I54
ag472
aaaa(lp554
I56
aI62
ag33
a(lp555
(lp556
I56
ag504
aa(lp557
I57
ag519
aa(lp558
I58
aS'a'
p559
aa(lp560
I59
ag513
aa(lp561
I60
ag476
aa(lp562
I61
ag478
aa(lp563
I62
aS'g'
p564
aaaa(lp565
I64
aI68
aS'their'
p566
a(lp567
(lp568
I64
ag483
aa(lp569
I65
ag519
aa(lp570
I66
ag472
aa(lp571
I67
ag476
aa(lp572
I68
ag513
aaaa(lp573
I70
aI80
ag42
a(lp574
(lp575
I70
ag472
aa(lp576
I71
aS'x'
p577
aa(lp578
I72
aS'p'
p579
aa(lp580
I73
ag472
aa(lp581
I74
ag513
aa(lp582
I75
ag476
aa(lp583
I76
ag472
aa(lp584
I77
ag478
aa(lp585
I78
aS'c'
p586
aa(lp587
I79
ag472
aa(lp588
I80
ag504
aaaa(lp589
I82
aI86
aS'about'
p590
a(lp591
(lp592
I82
ag559
aa(lp593
I83
ag552
aa(lp594
I84
ag491
aa(lp595
I85
ag493
aa(lp596
I86
ag483
aaaa(lp597
I88
aI91
ag51
a(lp598
(lp599
I88
ag546
aa(lp600
I89
ag476
aa(lp601
I90
aS'f'
p602
aa(lp603
I91
ag472
aaaa(lp604
I93
aI95
aS'and'
p605
a(lp606
(lp607
I93
ag559
aa(lp608
I94
ag478
aa(lp609
I95
ag535
aaaa(lp610
I97
aI100
ag60
a(lp611
(lp612
I97
ag470
aa(lp613
I98
ag491
aa(lp614
I99
ag513
aa(lp615
I100
aS'k'
p616
aaaa(lp617
I102
aI103
aS'at'
p618
a(lp619
(lp620
I102
ag559
aa(lp621
I103
ag483
aaaa(lp622
I105
aI108
ag69
a(lp623
(lp624
I105
aS'm'
p625
aa(lp626
I106
ag559
aa(lp627
I107
ag489
aa(lp628
I108
ag491
aaaa(lp629
I110
aI115
ag78
a(lp630
(lp631
I110
ag586
aa(lp632
I111
ag546
aa(lp633
I112
ag476
aa(lp634
I113
ag478
aa(lp635
I114
ag476
aa(lp636
I115
ag586
aaaa(lp637
I118
aI119
aS'we'
p638
a(lp639
(lp640
I118
ag470
aa(lp641
I119
ag472
aaaa(lp642
I121
aI129
ag87
a(lp643
(lp644
I121
ag472
aa(lp645
I122
ag478
aa(lp646
I123
ag586
aa(lp647
I124
ag491
aa(lp648
I125
ag493
aa(lp649
I126
ag513
aa(lp650
I127
ag559
aa(lp651
I128
ag564
aa(lp652
I129
ag472
aaaa(lp653
I131
aI133
aS'you'
p654
a(lp655
(lp656
I131
ag489
aa(lp657
I132
ag491
aa(lp658
I133
ag493
aaaa(lp659
I135
aI136
aS'to'
p660
a(lp661
(lp662
I135
ag483
aa(lp663
I136
ag491
aaaa(lp664
I138
aI140
ag96
a(lp665
(lp666
I138
ag559
aa(lp667
I139
ag504
aa(lp668
I140
ag616
aaaa(lp669
I142
aI144
aS'any'
p670
a(lp671
(lp672
I142
ag559
aa(lp673
I143
ag478
aa(lp674
I144
ag489
aaaa(lp675
I146
aI154
ag105
a(lp676
(lp677
I146
aS'q'
p678
aa(lp679
I147
ag493
aa(lp680
I148
ag472
aa(lp681
I149
ag504
aa(lp682
I150
ag483
aa(lp683
I151
ag476
aa(lp684
I152
ag491
aa(lp685
I153
ag478
aa(lp686
I154
ag504
aaaa(lp687
I156
aI158
aS'you'
p688
a(lp689
(lp690
I156
ag489
aa(lp691
I157
ag491
aa(lp692
I158
ag493
aaaa(lp693
I160
aI162
ag114
a(lp694
(lp695
I160
ag625
aa(lp696
I161
ag559
aa(lp697
I162
ag489
aaaa(lp698
I164
aI167
aS'have'
p699
a(lp700
(lp701
I164
ag519
aa(lp702
I165
ag559
aa(lp703
I166
ag480
aa(lp704
I167
ag472
aaaa(lp705
I170
aI173
ag123
a(lp706
(lp707
I170
ag552
aa(lp708
I171
ag546
aa(lp709
I172
ag491
aa(lp710
I173
ag564
aaaa(lp711
I175
aI181
ag132
a(lp712
(lp713
I175
ag559
aa(lp714
I176
ag535
aa(lp715
I177
ag472
aa(lp716
I178
ag483
aa(lp717
I179
ag491
aa(lp718
I180
ag546
aa(lp719
I181
ag493
aaaa(lp720
I184
aI185
aS'it'
p721
a(lp722
(lp723
I184
ag476
aa(lp724
I185
ag483
aaaa(lp725
I187
aI189
aS'has'
p726
a(lp727
(lp728
I187
ag519
aa(lp729
I188
ag559
aa(lp730
I189
ag504
aaaa(lp731
I191
aI196
ag141
a(lp732
(lp733
I191
ag559
aa(lp734
I192
ag546
aa(lp735
I193
ag470
aa(lp736
I194
ag559
aa(lp737
I195
ag489
aa(lp738
I196
ag504
aaaa(lp739
I198
aI201
aS'been'
p740
a(lp741
(lp742
I198
ag552
aa(lp743
I199
ag472
aa(lp744
I200
ag472
aa(lp745
I201
ag478
aaaa(lp746
I203
aI203
ag559
a(lp747
(lp748
I203
ag559
aaaa(lp749
I205
aI208
ag150
a(lp750
(lp751
I205
ag564
aa(lp752
I206
ag491
aa(lp753
I207
ag559
aa(lp754
I208
ag546
aaaa(lp755
I210
aI211
aS'of'
p756
a(lp757
(lp758
I210
ag491
aa(lp759
I211
ag602
aaaa(lp760
I213
aI216
ag159
a(lp761
(lp762
I213
ag625
aa(lp763
I214
ag476
aa(lp764
I215
ag478
aa(lp765
I216
ag472
aaaa(lp766
I218
aI219
aS'to'
p767
a(lp768
(lp769
I218
ag483
aa(lp770
I219
ag491
aaaa(lp771
I221
aI223
ag168
a(lp772
(lp773
I221
ag483
aa(lp774
I222
ag513
aa(lp775
I223
ag489
aaaa(lp776
I225
aI226
aS'to'
p777
a(lp778
(lp779
I225
ag483
aa(lp780
I226
ag491
aaaa(lp781
I228
aI233
ag177
a(lp782
(lp783
I228
ag586
aa(lp784
I229
ag513
aa(lp785
I230
ag472
aa(lp786
I231
ag559
aa(lp787
I232
ag483
aa(lp788
I233
ag472
aaaa(lp789
I235
aI235
ag559
a(lp790
(lp791
I235
ag559
aaaa(lp792
I237
aI242
ag186
a(lp793
(lp794
I237
ag552
aa(lp795
I238
ag472
aa(lp796
I239
ag483
aa(lp797
I240
ag483
aa(lp798
I241
ag472
aa(lp799
I242
ag513
aaaa(lp800
I244
aI248
ag195
a(lp801
(lp802
I244
ag470
aa(lp803
I245
ag491
aa(lp804
I246
ag513
aa(lp805
I247
ag546
aa(lp806
I248
ag535
aaaa(lp807
I250
aI251
aS'of'
p808
a(lp809
(lp810
I250
ag491
aa(lp811
I251
ag602
aaaa(lp812
I253
aI260
ag204
a(lp813
(lp814
I253
ag625
aa(lp815
I254
ag472
aa(lp816
I255
ag535
aa(lp817
I256
ag476
aa(lp818
I257
ag586
aa(lp819
I258
ag476
aa(lp820
I259
ag478
aa(lp821
I260
ag472
aaaa(lp822
I262
aI264
aS'for'
p823
a(lp824
(lp825
I262
ag602
aa(lp826
I263
ag491
aa(lp827
I264
ag513
aaaa(lp828
I266
aI271
ag213
a(lp829
(lp830
I266
ag579
aa(lp831
I267
ag472
aa(lp832
I268
ag491
aa(lp833
I269
ag579
aa(lp834
I270
ag546
aa(lp835
I271
ag472
aaaa(lp836
I274
aI276
aS'but'
p837
a(lp838
(lp839
I274
ag552
aa(lp840
I275
ag493
aa(lp841
I276
ag483
aaaa(lp842
I278
aI280
aS'for'
p843
a(lp844
(lp845
I278
ag602
aa(lp846
I279
ag491
aa(lp847
I280
ag513
aaaa(lp848
I282
aI285
ag222
a(lp849
(lp850
I282
ag625
aa(lp851
I283
ag559
aa(lp852
I284
ag478
aa(lp853
I285
ag489
aaaa(lp854
I287
aI291
ag231
a(lp855
(lp856
I287
ag489
aa(lp857
I288
ag472
aa(lp858
I289
ag559
aa(lp859
I290
ag513
aa(lp860
I291
ag504
aaaa(lp861
I294
aI294
ag476
a(lp862
(lp863
I294
ag476
aaaa(lp864
I296
aI303
ag240
a(lp865
(lp866
I296
ag535
aa(lp867
I297
ag476
aa(lp868
I298
ag535
aa(lp869
I299
ag478
aa(lp870
I300
aS'\xe2'
p871
aa(lp872
I301
aS'\x80'
p873
aa(lp874
I302
aS'\x99'
p875
aa(lp876
I303
ag483
aaaa(lp877
I305
aI308
ag249
a(lp878
(lp879
I305
ag616
aa(lp880
I306
ag478
aa(lp881
I307
ag491
aa(lp882
I308
ag470
aaaa(lp883
I310
aI312
aS'how'
p884
a(lp885
(lp886
I310
ag519
aa(lp887
I311
ag491
aa(lp888
I312
ag470
aaaa(lp889
I314
aI314
ag476
a(lp890
(lp891
I314
ag476
aaaa(lp892
I316
aI320
ag258
a(lp893
(lp894
I316
ag586
aa(lp895
I317
ag491
aa(lp896
I318
ag493
aa(lp897
I319
ag546
aa(lp898
I320
ag535
aaaa(lp899
I322
aI323
aS'do'
p900
a(lp901
(lp902
I322
ag535
aa(lp903
I323
ag491
aaaa(lp904
I325
aI328
aS'that'
p905
a(lp906
(lp907
I325
ag483
aa(lp908
I326
ag519
aa(lp909
I327
ag559
aa(lp910
I328
ag483
aaaa(lp911
I330
aI332
ag267
a(lp912
(lp913
I330
ag871
aa(lp914
I331
ag873
aa(lp915
I332
aS'\xa6'
p916
aaaa(lp917
I334
aI336
aS'and'
p918
a(lp919
(lp920
I334
ag559
aa(lp921
I335
ag478
aa(lp922
I336
ag535
aaaa(lp923
I338
aI340
aS'now'
p924
a(lp925
(lp926
I338
ag478
aa(lp927
I339
ag491
aa(lp928
I340
ag470
aaaa(lp929
I342
aI342
ag476
a(lp930
(lp931
I342
ag476
aaaa(lp932
I344
aI346
ag276
a(lp933
(lp934
I344
ag504
aa(lp935
I345
ag472
aa(lp936
I346
ag472
aaaa(lp937
I348
aI350
aS'how'
p938
a(lp939
(lp940
I348
ag519
aa(lp941
I349
ag491
aa(lp942
I350
ag470
aaaa(lp943
I352
aI355
aS'this'
p944
a(lp945
(lp946
I352
ag483
aa(lp947
I353
ag519
aa(lp948
I354
ag476
aa(lp949
I355
ag504
aaaa(lp950
I357
aI361
ag285
a(lp951
(lp952
I357
ag535
aa(lp953
I358
ag513
aa(lp954
I359
ag472
aa(lp955
I360
ag559
aa(lp956
I361
ag625
aaaa(lp957
I363
aI367
ag294
a(lp958
(lp959
I363
ag586
aa(lp960
I364
ag491
aa(lp961
I365
ag493
aa(lp962
I366
ag546
aa(lp963
I367
ag535
aaaa(lp964
I369
aI372
ag303
a(lp965
(lp966
I369
ag586
aa(lp967
I370
ag491
aa(lp968
I371
ag625
aa(lp969
I372
ag472
aaaa(lp970
I374
aI377
ag312
a(lp971
(lp972
I374
ag483
aa(lp973
I375
ag513
aa(lp974
I376
ag493
aa(lp975
I377
ag472
aaaa(lp976
I381
aI384
aS'more'
p977
a(lp978
(lp979
I381
ag625
aa(lp980
I382
ag491
aa(lp981
I383
ag513
aa(lp982
I384
ag472
aaaa(lp983
I389
aI393
ag321
a(lp984
(lp985
I389
ag552
aa(lp986
I390
ag513
aa(lp987
I391
ag476
aa(lp988
I392
ag559
aa(lp989
I393
ag478
aaaa(lp990
I396
aI403
ag330
a(lp991
(lp992
I396
ag586
aa(lp993
I397
ag491
aa(lp994
I398
ag625
aa(lp995
I399
ag552
aa(lp996
I400
ag476
aa(lp997
I401
ag478
aa(lp998
I402
ag472
aa(lp999
I403
ag535
aaaa(lp1000
I406
aI408
aS'the'
p1001
a(lp1002
(lp1003
I406
ag483
aa(lp1004
I407
ag519
aa(lp1005
I408
ag472
aaaa(lp1006
I410
aI412
ag339
a(lp1007
(lp1008
I410
ag483
aa(lp1009
I411
ag470
aa(lp1010
I412
ag491
aaaa(lp1011
I414
aI420
ag348
a(lp1012
(lp1013
I414
ag535
aa(lp1014
I415
ag472
aa(lp1015
I416
ag564
aa(lp1016
I417
ag513
aa(lp1017
I418
ag472
aa(lp1018
I419
ag472
aa(lp1019
I420
ag504
aaaa(lp1020
I422
aI427
ag357
a(lp1021
(lp1022
I422
ag472
aa(lp1023
I423
ag478
aa(lp1024
I424
ag559
aa(lp1025
I425
ag552
aa(lp1026
I426
ag546
aa(lp1027
I427
ag472
aaaa(lp1028
I429
aI431
aS'you'
p1029
a(lp1030
(lp1031
I429
ag489
aa(lp1032
I430
ag491
aa(lp1033
I431
ag493
aaaa(lp1034
I433
aI434
aS'to'
p1035
a(lp1036
(lp1037
I433
ag483
aa(lp1038
I434
ag491
aaaa(lp1039
I436
aI440
ag366
a(lp1040
(lp1041
I436
ag513
aa(lp1042
I437
ag472
aa(lp1043
I438
ag559
aa(lp1044
I439
ag586
aa(lp1045
I440
ag519
aaaa(lp1046
I442
aI445
aS'from'
p1047
a(lp1048
(lp1049
I442
ag602
aa(lp1050
I443
ag513
aa(lp1051
I444
ag491
aa(lp1052
I445
ag625
aaaa(lp1053
I447
aI449
aS'the'
p1054
a(lp1055
(lp1056
I447
ag483
aa(lp1057
I448
ag519
aa(lp1058
I449
ag472
aaaa(lp1059
I451
aI457
ag375
a(lp1060
(lp1061
I451
ag552
aa(lp1062
I452
ag472
aa(lp1063
I453
ag535
aa(lp1064
I454
ag504
aa(lp1065
I455
ag476
aa(lp1066
I456
ag535
aa(lp1067
I457
ag472
aaaa(lp1068
I459
aI460
aS'to'
p1069
a(lp1070
(lp1071
I459
ag483
aa(lp1072
I460
ag491
aaaa(lp1073
I462
aI464
aS'the'
p1074
a(lp1075
(lp1076
I462
ag483
aa(lp1077
I463
ag519
aa(lp1078
I464
ag472
aaaa(lp1079
I466
aI475
ag384
a(lp1080
(lp1081
I466
ag564
aa(lp1082
I467
ag491
aa(lp1083
I468
ag480
aa(lp1084
I469
ag472
aa(lp1085
I470
ag513
aa(lp1086
I471
ag478
aa(lp1087
I472
ag625
aa(lp1088
I473
ag472
aa(lp1089
I474
ag478
aa(lp1090
I475
ag483
aaaa(lp1091
I477
aI482
ag393
a(lp1092
(lp1093
I477
ag552
aa(lp1094
I478
ag491
aa(lp1095
I479
ag535
aa(lp1096
I480
ag476
aa(lp1097
I481
ag472
aa(lp1098
I482
ag504
aaaa(lp1099
I484
aI486
aS'and'
p1100
a(lp1101
(lp1102
I484
ag559
aa(lp1103
I485
ag478
aa(lp1104
I486
ag535
aaaa(lp1105
I488
aI496
ag402
a(lp1106
(lp1107
I488
ag586
aa(lp1108
I489
ag491
aa(lp1109
I490
ag513
aa(lp1110
I491
ag579
aa(lp1111
I492
ag491
aa(lp1112
I493
ag513
aa(lp1113
I494
ag559
aa(lp1114
I495
ag483
aa(lp1115
I496
ag472
aaaa(lp1116
I498
aI507
ag411
a(lp1117
(lp1118
I498
ag552
aa(lp1119
I499
ag491
aa(lp1120
I500
ag559
aa(lp1121
I501
ag513
aa(lp1122
I502
ag535
aa(lp1123
I503
ag513
aa(lp1124
I504
ag491
aa(lp1125
I505
ag491
aa(lp1126
I506
ag625
aa(lp1127
I507
ag504
aaaa(lp1128
I509
aI512
aS'that'
p1129
a(lp1130
(lp1131
I509
ag483
aa(lp1132
I510
ag519
aa(lp1133
I511
ag559
aa(lp1134
I512
ag483
aaaa(lp1135
I514
aI518
ag420
a(lp1136
(lp1137
I514
ag504
aa(lp1138
I515
ag519
aa(lp1139
I516
ag559
aa(lp1140
I517
ag579
aa(lp1141
I518
ag472
aaaa(lp1142
I520
aI522
aS'our'
p1143
a(lp1144
(lp1145
I520
ag491
aa(lp1146
I521
ag493
aa(lp1147
I522
ag513
aaaa(lp1148
I524
aI530
ag429
a(lp1149
(lp1150
I524
ag559
aa(lp1151
I525
ag552
aa(lp1152
I526
ag476
aa(lp1153
I527
ag546
aa(lp1154
I528
ag476
aa(lp1155
I529
ag483
aa(lp1156
I530
ag489
aaaa(lp1157
I532
aI533
aS'to'
p1158
a(lp1159
(lp1160
I532
ag483
aa(lp1161
I533
ag491
aaaa(lp1162
I535
aI541
ag438
a(lp1163
(lp1164
I535
ag579
aa(lp1165
I536
ag513
aa(lp1166
I537
ag491
aa(lp1167
I538
ag480
aa(lp1168
I539
ag476
aa(lp1169
I540
ag535
aa(lp1170
I541
ag472
aaaa(lp1171
I543
aI549
ag447
a(lp1172
(lp1173
I543
ag625
aa(lp1174
I544
ag472
aa(lp1175
I545
ag535
aa(lp1176
I546
ag476
aa(lp1177
I547
ag586
aa(lp1178
I548
ag559
aa(lp1179
I549
ag546
aaaa(lp1180
I551
aI554
ag456
a(lp1181
(lp1182
I551
ag586
aa(lp1183
I552
ag559
aa(lp1184
I553
ag513
aa(lp1185
I554
ag472
aaaasS'cleanCharacterMap'
p1186
(lp1187
g469
ag471
a(lp1188
I2
aS' '
p1189
aag475
ag477
ag479
ag481
ag482
ag484
a(lp1190
I9
ag1189
aag488
ag490
ag492
a(lp1191
I13
ag1189
aag497
ag498
a(lp1192
I16
ag1189
aag501
ag502
ag503
ag505
ag506
a(lp1193
I22
ag1189
aag510
ag511
ag512
a(lp1194
I26
ag1189
aa(lp1195
I28
ag1189
aag517
ag518
ag520
ag521
ag522
a(lp1196
I34
ag1189
aag526
ag527
ag528
a(lp1197
I38
ag1189
aag531
ag532
ag533
ag534
ag536
ag537
ag538
ag539
a(lp1198
I47
ag1189
aag543
ag544
ag545
ag547
a(lp1199
I52
ag1189
aag551
ag553
a(lp1200
I55
ag1189
aag556
ag557
ag558
ag560
ag561
ag562
ag563
a(lp1201
I63
ag1189
aag568
ag569
ag570
ag571
ag572
a(lp1202
I69
ag1189
aag575
ag576
ag578
ag580
ag581
ag582
ag583
ag584
ag585
ag587
ag588
a(lp1203
I81
ag1189
aag592
ag593
ag594
ag595
ag596
a(lp1204
I87
ag1189
aag599
ag600
ag601
ag603
a(lp1205
I92
ag1189
aag607
ag608
ag609
a(lp1206
I96
ag1189
aag612
ag613
ag614
ag615
a(lp1207
I101
ag1189
aag620
ag621
a(lp1208
I104
ag1189
aag624
ag626
ag627
ag628
a(lp1209
I109
ag1189
aag631
ag632
ag633
ag634
ag635
ag636
a(lp1210
I117
ag1189
aag640
ag641
a(lp1211
I120
ag1189
aag644
ag645
ag646
ag647
ag648
ag649
ag650
ag651
ag652
a(lp1212
I130
ag1189
aag656
ag657
ag658
a(lp1213
I134
ag1189
aag662
ag663
a(lp1214
I137
ag1189
aag666
ag667
ag668
a(lp1215
I141
ag1189
aag672
ag673
ag674
a(lp1216
I145
ag1189
aag677
ag679
ag680
ag681
ag682
ag683
ag684
ag685
ag686
a(lp1217
I155
ag1189
aag690
ag691
ag692
a(lp1218
I159
ag1189
aag695
ag696
ag697
a(lp1219
I163
ag1189
aag701
ag702
ag703
ag704
a(lp1220
I169
ag1189
aag707
ag708
ag709
ag710
a(lp1221
I174
ag1189
aag713
ag714
ag715
ag716
ag717
ag718
ag719
a(lp1222
I182
ag1189
aag723
ag724
a(lp1223
I186
ag1189
aag728
ag729
ag730
a(lp1224
I190
ag1189
aag733
ag734
ag735
ag736
ag737
ag738
a(lp1225
I197
ag1189
aag742
ag743
ag744
ag745
a(lp1226
I202
ag1189
aag748
a(lp1227
I204
ag1189
aag751
ag752
ag753
ag754
a(lp1228
I209
ag1189
aag758
ag759
a(lp1229
I212
ag1189
aag762
ag763
ag764
ag765
a(lp1230
I217
ag1189
aag769
ag770
a(lp1231
I220
ag1189
aag773
ag774
ag775
a(lp1232
I224
ag1189
aag779
ag780
a(lp1233
I227
ag1189
aag783
ag784
ag785
ag786
ag787
ag788
a(lp1234
I234
ag1189
aag791
a(lp1235
I236
ag1189
aag794
ag795
ag796
ag797
ag798
ag799
a(lp1236
I243
ag1189
aag802
ag803
ag804
ag805
ag806
a(lp1237
I249
ag1189
aag810
ag811
a(lp1238
I252
ag1189
aag814
ag815
ag816
ag817
ag818
ag819
ag820
ag821
a(lp1239
I261
ag1189
aag825
ag826
ag827
a(lp1240
I265
ag1189
aag830
ag831
ag832
ag833
ag834
ag835
a(lp1241
I273
ag1189
aag839
ag840
ag841
a(lp1242
I277
ag1189
aag845
ag846
ag847
a(lp1243
I281
ag1189
aag850
ag851
ag852
ag853
a(lp1244
I286
ag1189
aag856
ag857
ag858
ag859
ag860
a(lp1245
I293
ag1189
aag863
a(lp1246
I295
ag1189
aag866
ag867
ag868
ag869
ag870
ag872
ag874
ag876
a(lp1247
I304
ag1189
aag879
ag880
ag881
ag882
a(lp1248
I309
ag1189
aag886
ag887
ag888
a(lp1249
I313
ag1189
aag891
a(lp1250
I315
ag1189
aag894
ag895
ag896
ag897
ag898
a(lp1251
I321
ag1189
aag902
ag903
a(lp1252
I324
ag1189
aag907
ag908
ag909
ag910
a(lp1253
I329
ag1189
aag913
ag914
ag915
a(lp1254
I333
ag1189
aag920
ag921
ag922
a(lp1255
I337
ag1189
aag926
ag927
ag928
a(lp1256
I341
ag1189
aag931
a(lp1257
I343
ag1189
aag934
ag935
ag936
a(lp1258
I347
ag1189
aag940
ag941
ag942
a(lp1259
I351
ag1189
aag946
ag947
ag948
ag949
a(lp1260
I356
ag1189
aag952
ag953
ag954
ag955
ag956
a(lp1261
I362
ag1189
aag959
ag960
ag961
ag962
ag963
a(lp1262
I368
ag1189
aag966
ag967
ag968
ag969
a(lp1263
I373
ag1189
aag972
ag973
ag974
ag975
a(lp1264
I380
ag1189
aag979
ag980
ag981
ag982
a(lp1265
I388
ag1189
aag985
ag986
ag987
ag988
ag989
a(lp1266
I394
ag1189
aag992
ag993
ag994
ag995
ag996
ag997
ag998
ag999
a(lp1267
I405
ag1189
aag1003
ag1004
ag1005
a(lp1268
I409
ag1189
aag1008
ag1009
ag1010
a(lp1269
I413
ag1189
aag1013
ag1014
ag1015
ag1016
ag1017
ag1018
ag1019
a(lp1270
I421
ag1189
aag1022
ag1023
ag1024
ag1025
ag1026
ag1027
a(lp1271
I428
ag1189
aag1031
ag1032
ag1033
a(lp1272
I432
ag1189
aag1037
ag1038
a(lp1273
I435
ag1189
aag1041
ag1042
ag1043
ag1044
ag1045
a(lp1274
I441
ag1189
aag1049
ag1050
ag1051
ag1052
a(lp1275
I446
ag1189
aag1056
ag1057
ag1058
a(lp1276
I450
ag1189
aag1061
ag1062
ag1063
ag1064
ag1065
ag1066
ag1067
a(lp1277
I458
ag1189
aag1071
ag1072
a(lp1278
I461
ag1189
aag1076
ag1077
ag1078
a(lp1279
I465
ag1189
aag1081
ag1082
ag1083
ag1084
ag1085
ag1086
ag1087
ag1088
ag1089
ag1090
a(lp1280
I476
ag1189
aag1093
ag1094
ag1095
ag1096
ag1097
ag1098
a(lp1281
I483
ag1189
aag1102
ag1103
ag1104
a(lp1282
I487
ag1189
aag1107
ag1108
ag1109
ag1110
ag1111
ag1112
ag1113
ag1114
ag1115
a(lp1283
I497
ag1189
aag1118
ag1119
ag1120
ag1121
ag1122
ag1123
ag1124
ag1125
ag1126
ag1127
a(lp1284
I508
ag1189
aag1131
ag1132
ag1133
ag1134
a(lp1285
I513
ag1189
aag1137
ag1138
ag1139
ag1140
ag1141
a(lp1286
I519
ag1189
aag1145
ag1146
ag1147
a(lp1287
I523
ag1189
aag1150
ag1151
ag1152
ag1153
ag1154
ag1155
ag1156
a(lp1288
I531
ag1189
aag1160
ag1161
a(lp1289
I534
ag1189
aag1164
ag1165
ag1166
ag1167
ag1168
ag1169
ag1170
a(lp1290
I542
ag1189
aag1173
ag1174
ag1175
ag1176
ag1177
ag1178
ag1179
a(lp1291
I550
ag1189
aag1182
ag1183
ag1184
ag1185
a(lp1292
I557
ag1189
aa(lp1293
I558
ag625
aa(lp1294
I559
ag491
aa(lp1295
I560
ag513
aa(lp1296
I561
ag472
aasS'text'
p1297
S'we invite you to visit our , where the students will be sharing their experiences about life and work at mayo clinic. we encourage you to ask any questions you may have. blog adetolu "it has always been a goal of mine to try to create a better world of medicine for people. but for many years, i didn\xe2\x80\x99t know how i could do that \xe2\x80\xa6 and now i see how this dream could come true." more... brian "combined, the two degrees enable you to reach from the bedside to the government bodies and corporate boardrooms that shape our ability to provide medical care." more...'
p1298
sS'cleanWordMap'
p1299
(lp1300
g473
ag499
ag529
ag554
ag573
ag597
ag610
ag622
ag629
ag642
ag664
ag675
ag693
ag705
ag711
ag731
ag749
ag760
ag771
ag781
ag792
ag800
ag812
ag828
ag848
ag854
ag864
ag877
ag892
ag911
ag932
ag950
ag957
ag964
ag970
ag983
ag990
ag1006
ag1011
ag1020
ag1039
ag1059
ag1079
ag1091
ag1105
ag1116
ag1135
ag1148
ag1162
ag1171
ag1180
asS'lines'
p1301
(lp1302
VWe invite you to visit our , where the students will be sharing their experiences about life and work at Mayo Clinic. We encourage you to ask any questions you may have. Blog\u000a
p1303
aVADETOLU\u000a
p1304
aV"It has always been a goal of mine to try to create a better world of medicine for people. But for many years, I didn\u2019t know how I could do that \u2026 and now I see how this dream could come true." more...\u000a
p1305
aVBRIAN\u000a
p1306
aV"Combined, the two degrees enable you to reach from the bedside to the government bodies and corporate boardrooms that shape our ability to provide medical care." more...
p1307
asS'docType'
p1308
S'src'
p1309
sS'newfmap'
p1310
(lp1311
g4
ag8
ag10
ag12
ag14
ag17
ag19
ag21
ag23
ag26
ag28
ag30
ag32
ag35
ag37
ag39
ag41
ag44
ag46
ag48
ag50
ag53
ag55
ag57
ag59
ag62
ag64
ag66
ag68
ag71
ag73
ag75
ag77
ag80
ag82
ag84
ag86
ag89
ag91
ag93
ag95
ag98
ag100
ag102
ag104
ag107
ag109
ag111
ag113
ag116
ag118
ag120
ag122
ag125
ag127
ag129
ag131
ag134
ag136
ag138
ag140
ag143
ag145
ag147
ag149
ag152
ag154
ag156
ag158
ag161
ag163
ag165
ag167
ag170
ag172
ag174
ag176
ag179
ag181
ag183
ag185
ag188
ag190
ag192
ag194
ag197
ag199
ag201
ag203
ag206
ag208
ag210
ag212
ag215
ag217
ag219
ag221
ag224
ag226
ag228
ag230
ag233
ag235
ag237
ag239
ag242
ag244
ag246
ag248
ag251
ag253
ag255
ag257
ag260
ag262
ag264
ag266
ag269
ag271
ag273
ag275
ag278
ag280
ag282
ag284
ag287
ag289
ag291
ag293
ag296
ag298
ag300
ag302
ag305
ag307
ag309
ag311
ag314
ag316
ag318
ag320
ag323
ag325
ag327
ag329
ag332
ag334
ag336
ag338
ag341
ag343
ag345
ag347
ag350
ag352
ag354
ag356
ag359
ag361
ag363
ag365
ag368
ag370
ag372
ag374
ag377
ag379
ag381
ag383
ag386
ag388
ag390
ag392
ag395
ag397
ag399
ag401
ag404
ag406
ag408
ag410
ag413
ag415
ag417
ag419
ag422
ag424
ag426
ag428
ag431
ag433
ag435
ag437
ag440
ag442
ag444
ag446
ag449
ag451
ag453
ag455
ag458
ag460
ag462
asS'featureMap'
p1312
(lp1313
(lp1314
I3
aI8
ag5
ag6
ag9
ag11
ag13
aa(lp1315
I17
aI21
ag15
ag16
ag18
ag20
ag22
aa(lp1316
I39
aI46
ag24
ag25
ag27
ag29
ag31
aa(lp1317
I56
aI62
ag33
ag34
ag36
ag38
ag40
aa(lp1318
I70
aI80
ag42
ag43
ag45
ag47
ag49
aa(lp1319
I88
aI91
ag51
ag52
ag54
ag56
ag58
aa(lp1320
I97
aI100
ag60
ag61
ag63
ag65
ag67
aa(lp1321
I105
aI108
ag69
ag70
ag72
ag74
ag76
aa(lp1322
I110
aI115
ag78
ag79
ag81
ag83
ag85
aa(lp1323
I121
aI129
ag87
ag88
ag90
ag92
ag94
aa(lp1324
I138
aI140
ag96
ag97
ag99
ag101
ag103
aa(lp1325
I146
aI154
ag105
ag106
ag108
ag110
ag112
aa(lp1326
I160
aI162
ag114
ag115
ag117
ag119
ag121
aa(lp1327
I170
aI173
ag123
ag124
ag126
ag128
ag130
aa(lp1328
I175
aI181
ag132
ag133
ag135
ag137
ag139
aa(lp1329
I191
aI196
ag141
ag142
ag144
ag146
ag148
aa(lp1330
I205
aI208
ag150
ag151
ag153
ag155
ag157
aa(lp1331
I213
aI216
ag159
ag160
ag162
ag164
ag166
aa(lp1332
I221
aI223
ag168
ag169
ag171
ag173
ag175
aa(lp1333
I228
aI233
ag177
ag178
ag180
ag182
ag184
aa(lp1334
I237
aI242
ag186
ag187
ag189
ag191
ag193
aa(lp1335
I244
aI248
ag195
ag196
ag198
ag200
ag202
aa(lp1336
I253
aI260
ag204
ag205
ag207
ag209
ag211
aa(lp1337
I266
aI271
ag213
ag214
ag216
ag218
ag220
aa(lp1338
I282
aI285
ag222
ag223
ag225
ag227
ag229
aa(lp1339
I287
aI291
ag231
ag232
ag234
ag236
ag238
aa(lp1340
I296
aI303
ag240
ag241
ag243
ag245
ag247
aa(lp1341
I305
aI308
ag249
ag250
ag252
ag254
ag256
aa(lp1342
I316
aI320
ag258
ag259
ag261
ag263
ag265
aa(lp1343
I330
aI332
ag267
ag268
ag270
ag272
ag274
aa(lp1344
I344
aI346
ag276
ag277
ag279
ag281
ag283
aa(lp1345
I357
aI361
ag285
ag286
ag288
ag290
ag292
aa(lp1346
I363
aI367
ag294
ag295
ag297
ag299
ag301
aa(lp1347
I369
aI372
ag303
ag304
ag306
ag308
ag310
aa(lp1348
I374
aI377
ag312
ag313
ag315
ag317
ag319
aa(lp1349
I389
aI393
ag321
ag322
ag324
ag326
ag328
aa(lp1350
I396
aI403
ag330
ag331
ag333
ag335
ag337
aa(lp1351
I410
aI412
ag339
ag340
ag342
ag344
ag346
aa(lp1352
I414
aI420
ag348
ag349
ag351
ag353
ag355
aa(lp1353
I422
aI427
ag357
ag358
ag360
ag362
ag364
aa(lp1354
I436
aI440
ag366
ag367
ag369
ag371
ag373
aa(lp1355
I451
aI457
ag375
ag376
ag378
ag380
ag382
aa(lp1356
I466
aI475
ag384
ag385
ag387
ag389
ag391
aa(lp1357
I477
aI482
ag393
ag394
ag396
ag398
ag400
aa(lp1358
I488
aI496
ag402
ag403
ag405
ag407
ag409
aa(lp1359
I498
aI507
ag411
ag412
ag414
ag416
ag418
aa(lp1360
I514
aI518
ag420
ag421
ag423
ag425
ag427
aa(lp1361
I524
aI530
ag429
ag430
ag432
ag434
ag436
aa(lp1362
I535
aI541
ag438
ag439
ag441
ag443
ag445
aa(lp1363
I543
aI549
ag447
ag448
ag450
ag452
ag454
aa(lp1364
I551
aI554
ag456
ag457
ag459
ag461
ag463
aasS'characterMap'
p1365
(lp1366
g469
ag471
ag1188
ag475
ag477
ag479
ag481
ag482
ag484
ag1190
ag488
ag490
ag492
ag1191
ag497
ag498
ag1192
ag501
ag502
ag503
ag505
ag506
ag1193
ag510
ag511
ag512
ag1194
a(lp1367
I27
aS','
p1368
aag1195
ag517
ag518
ag520
ag521
ag522
ag1196
ag526
ag527
ag528
ag1197
ag531
ag532
ag533
ag534
ag536
ag537
ag538
ag539
ag1198
ag543
ag544
ag545
ag547
ag1199
ag551
ag553
ag1200
ag556
ag557
ag558
ag560
ag561
ag562
ag563
ag1201
ag568
ag569
ag570
ag571
ag572
ag1202
ag575
ag576
ag578
ag580
ag581
ag582
ag583
ag584
ag585
ag587
ag588
ag1203
ag592
ag593
ag594
ag595
ag596
ag1204
ag599
ag600
ag601
ag603
ag1205
ag607
ag608
ag609
ag1206
ag612
ag613
ag614
ag615
ag1207
ag620
ag621
ag1208
ag624
ag626
ag627
ag628
ag1209
ag631
ag632
ag633
ag634
ag635
ag636
a(lp1369
I116
aS'.'
p1370
aag1210
ag640
ag641
ag1211
ag644
ag645
ag646
ag647
ag648
ag649
ag650
ag651
ag652
ag1212
ag656
ag657
ag658
ag1213
ag662
ag663
ag1214
ag666
ag667
ag668
ag1215
ag672
ag673
ag674
ag1216
ag677
ag679
ag680
ag681
ag682
ag683
ag684
ag685
ag686
ag1217
ag690
ag691
ag692
ag1218
ag695
ag696
ag697
ag1219
ag701
ag702
ag703
ag704
a(lp1371
I168
ag1370
aag1220
ag707
ag708
ag709
ag710
ag1221
ag713
ag714
ag715
ag716
ag717
ag718
ag719
ag1222
a(lp1372
I183
aS'"'
p1373
aag723
ag724
ag1223
ag728
ag729
ag730
ag1224
ag733
ag734
ag735
ag736
ag737
ag738
ag1225
ag742
ag743
ag744
ag745
ag1226
ag748
ag1227
ag751
ag752
ag753
ag754
ag1228
ag758
ag759
ag1229
ag762
ag763
ag764
ag765
ag1230
ag769
ag770
ag1231
ag773
ag774
ag775
ag1232
ag779
ag780
ag1233
ag783
ag784
ag785
ag786
ag787
ag788
ag1234
ag791
ag1235
ag794
ag795
ag796
ag797
ag798
ag799
ag1236
ag802
ag803
ag804
ag805
ag806
ag1237
ag810
ag811
ag1238
ag814
ag815
ag816
ag817
ag818
ag819
ag820
ag821
ag1239
ag825
ag826
ag827
ag1240
ag830
ag831
ag832
ag833
ag834
ag835
a(lp1374
I272
ag1370
aag1241
ag839
ag840
ag841
ag1242
ag845
ag846
ag847
ag1243
ag850
ag851
ag852
ag853
ag1244
ag856
ag857
ag858
ag859
ag860
a(lp1375
I292
ag1368
aag1245
ag863
ag1246
ag866
ag867
ag868
ag869
ag870
ag872
ag874
ag876
ag1247
ag879
ag880
ag881
ag882
ag1248
ag886
ag887
ag888
ag1249
ag891
ag1250
ag894
ag895
ag896
ag897
ag898
ag1251
ag902
ag903
ag1252
ag907
ag908
ag909
ag910
ag1253
ag913
ag914
ag915
ag1254
ag920
ag921
ag922
ag1255
ag926
ag927
ag928
ag1256
ag931
ag1257
ag934
ag935
ag936
ag1258
ag940
ag941
ag942
ag1259
ag946
ag947
ag948
ag949
ag1260
ag952
ag953
ag954
ag955
ag956
ag1261
ag959
ag960
ag961
ag962
ag963
ag1262
ag966
ag967
ag968
ag969
ag1263
ag972
ag973
ag974
ag975
a(lp1376
I378
ag1370
aa(lp1377
I379
ag1373
aag1264
ag979
ag980
ag981
ag982
a(lp1378
I385
ag1370
aa(lp1379
I386
ag1370
aa(lp1380
I387
ag1370
aag1265
ag985
ag986
ag987
ag988
ag989
ag1266
a(lp1381
I395
ag1373
aag992
ag993
ag994
ag995
ag996
ag997
ag998
ag999
a(lp1382
I404
ag1368
aag1267
ag1003
ag1004
ag1005
ag1268
ag1008
ag1009
ag1010
ag1269
ag1013
ag1014
ag1015
ag1016
ag1017
ag1018
ag1019
ag1270
ag1022
ag1023
ag1024
ag1025
ag1026
ag1027
ag1271
ag1031
ag1032
ag1033
ag1272
ag1037
ag1038
ag1273
ag1041
ag1042
ag1043
ag1044
ag1045
ag1274
ag1049
ag1050
ag1051
ag1052
ag1275
ag1056
ag1057
ag1058
ag1276
ag1061
ag1062
ag1063
ag1064
ag1065
ag1066
ag1067
ag1277
ag1071
ag1072
ag1278
ag1076
ag1077
ag1078
ag1279
ag1081
ag1082
ag1083
ag1084
ag1085
ag1086
ag1087
ag1088
ag1089
ag1090
ag1280
ag1093
ag1094
ag1095
ag1096
ag1097
ag1098
ag1281
ag1102
ag1103
ag1104
ag1282
ag1107
ag1108
ag1109
ag1110
ag1111
ag1112
ag1113
ag1114
ag1115
ag1283
ag1118
ag1119
ag1120
ag1121
ag1122
ag1123
ag1124
ag1125
ag1126
ag1127
ag1284
ag1131
ag1132
ag1133
ag1134
ag1285
ag1137
ag1138
ag1139
ag1140
ag1141
ag1286
ag1145
ag1146
ag1147
ag1287
ag1150
ag1151
ag1152
ag1153
ag1154
ag1155
ag1156
ag1288
ag1160
ag1161
ag1289
ag1164
ag1165
ag1166
ag1167
ag1168
ag1169
ag1170
ag1290
ag1173
ag1174
ag1175
ag1176
ag1177
ag1178
ag1179
ag1291
ag1182
ag1183
ag1184
ag1185
a(lp1383
I555
ag1370
aa(lp1384
I556
ag1373
aag1292
ag1293
ag1294
ag1295
ag1296
a(lp1385
I562
ag1370
aa(lp1386
I563
ag1370
aa(lp1387
I564
ag1370
aasS'docName'
p1388
S'source-document00673.txt'
p1389
sb.