(iModel.Document
Document
p0
(dp1
S'fmap'
p2
(lp3
(lp4
I0
aI9
aS'overcoming'
p5
a(lp6
S'*'
p7
ag5
aaa(lp8
I0
aI9
ag5
a(lp9
g7
ag5
aaa(lp10
I0
aI9
ag5
a(lp11
g7
ag5
aaa(lp12
I0
aI9
ag5
a(lp13
g7
ag5
aaa(lp14
I15
aI18
aS'fear'
p15
a(lp16
g5
ag15
aaa(lp17
I15
aI18
ag15
a(lp18
g7
ag15
aaa(lp19
I15
aI18
ag15
a(lp20
g7
ag15
aaa(lp21
I15
aI18
ag15
a(lp22
g7
ag15
aaa(lp23
I23
aI29
aS'selling'
p24
a(lp25
g15
ag24
aaa(lp26
I23
aI29
ag24
a(lp27
g5
ag24
aaa(lp28
I23
aI29
ag24
a(lp29
g7
ag24
aaa(lp30
I23
aI29
ag24
a(lp31
g7
ag24
aaa(lp32
I32
aI32
aS'\xa0'
p33
a(lp34
g24
ag33
aaa(lp35
I32
aI32
ag33
a(lp36
g15
ag33
aaa(lp37
I32
aI32
ag33
a(lp38
g5
ag33
aaa(lp39
I32
aI32
ag33
a(lp40
g7
ag33
aaa(lp41
I38
aI41
aS'many'
p42
a(lp43
g33
ag42
aaa(lp44
I38
aI41
ag42
a(lp45
g24
ag42
aaa(lp46
I38
aI41
ag42
a(lp47
g15
ag42
aaa(lp48
I38
aI41
ag42
a(lp49
g5
ag42
aaa(lp50
I54
aI57
aS'fear'
p51
a(lp52
g42
ag51
aaa(lp53
I54
aI57
ag51
a(lp54
g33
ag51
aaa(lp55
I54
aI57
ag51
a(lp56
g24
ag51
aaa(lp57
I54
aI57
ag51
a(lp58
g15
ag51
aaa(lp59
I62
aI68
aS'selling'
p60
a(lp61
g51
ag60
aaa(lp62
I62
aI68
ag60
a(lp63
g42
ag60
aaa(lp64
I62
aI68
ag60
a(lp65
g33
ag60
aaa(lp66
I62
aI68
ag60
a(lp67
g24
ag60
aaa(lp68
I75
aI78
aS'huge'
p69
a(lp70
g60
ag69
aaa(lp71
I75
aI78
ag69
a(lp72
g51
ag69
aaa(lp73
I75
aI78
ag69
a(lp74
g42
ag69
aaa(lp75
I75
aI78
ag69
a(lp76
g33
ag69
aaa(lp77
I80
aI88
aS'challenge'
p78
a(lp79
g69
ag78
aaa(lp80
I80
aI88
ag78
a(lp81
g60
ag78
aaa(lp82
I80
aI88
ag78
a(lp83
g51
ag78
aaa(lp84
I80
aI88
ag78
a(lp85
g42
ag78
aaa(lp86
I94
aI101
aS'obstacle'
p87
a(lp88
g78
ag87
aaa(lp89
I94
aI101
ag87
a(lp90
g69
ag87
aaa(lp91
I94
aI101
ag87
a(lp92
g60
ag87
aaa(lp93
I94
aI101
ag87
a(lp94
g51
ag87
aaa(lp95
I116
aI118
aS'day'
p96
a(lp97
g87
ag96
aaa(lp98
I116
aI118
ag96
a(lp99
g78
ag96
aaa(lp100
I116
aI118
ag96
a(lp101
g69
ag96
aaa(lp102
I116
aI118
ag96
a(lp103
g60
ag96
aaa(lp104
I123
aI125
aS'day'
p105
a(lp106
g96
ag105
aaa(lp107
I123
aI125
ag105
a(lp108
g87
ag105
aaa(lp109
I123
aI125
ag105
a(lp110
g78
ag105
aaa(lp111
I123
aI125
ag105
a(lp112
g69
ag105
aaa(lp113
I132
aI136
aS'first'
p114
a(lp115
g105
ag114
aaa(lp116
I132
aI136
ag114
a(lp117
g96
ag114
aaa(lp118
I132
aI136
ag114
a(lp119
g87
ag114
aaa(lp120
I132
aI136
ag114
a(lp121
g78
ag114
aaa(lp122
I138
aI142
aS'thing'
p123
a(lp124
g114
ag123
aaa(lp125
I138
aI142
ag123
a(lp126
g105
ag123
aaa(lp127
I138
aI142
ag123
a(lp128
g96
ag123
aaa(lp129
I138
aI142
ag123
a(lp130
g87
ag123
aaa(lp131
I148
aI151
aS'need'
p132
a(lp133
g123
ag132
aaa(lp134
I148
aI151
ag132
a(lp135
g114
ag132
aaa(lp136
I148
aI151
ag132
a(lp137
g105
ag132
aaa(lp138
I148
aI151
ag132
a(lp139
g96
ag132
aaa(lp140
I162
aI165
aS'find'
p141
a(lp142
g132
ag141
aaa(lp143
I162
aI165
ag141
a(lp144
g123
ag141
aaa(lp145
I162
aI165
ag141
a(lp146
g114
ag141
aaa(lp147
I162
aI165
ag141
a(lp148
g105
ag141
aaa(lp149
I171
aI177
aS'exactly'
p150
a(lp151
g141
ag150
aaa(lp152
I171
aI177
ag150
a(lp153
g132
ag150
aaa(lp154
I171
aI177
ag150
a(lp155
g123
ag150
aaa(lp156
I171
aI177
ag150
a(lp157
g114
ag150
aaa(lp158
I190
aI195
aS'youre'
p159
a(lp160
g150
ag159
aaa(lp161
I190
aI195
ag159
a(lp162
g141
ag159
aaa(lp163
I190
aI195
ag159
a(lp164
g132
ag159
aaa(lp165
I190
aI195
ag159
a(lp166
g123
ag159
aaa(lp167
I197
aI202
aS'afraid'
p168
a(lp169
g159
ag168
aaa(lp170
I197
aI202
ag168
a(lp171
g150
ag168
aaa(lp172
I197
aI202
ag168
a(lp173
g141
ag168
aaa(lp174
I197
aI202
ag168
a(lp175
g132
ag168
aaa(lp176
I216
aI221
aS'afraid'
p177
a(lp178
g168
ag177
aaa(lp179
I216
aI221
ag177
a(lp180
g159
ag177
aaa(lp181
I216
aI221
ag177
a(lp182
g150
ag177
aaa(lp183
I216
aI221
ag177
a(lp184
g141
ag177
aaa(lp185
I226
aI232
aS'success'
p186
a(lp187
g177
ag186
aaa(lp188
I226
aI232
ag186
a(lp189
g168
ag186
aaa(lp190
I226
aI232
ag186
a(lp191
g159
ag186
aaa(lp192
I226
aI232
ag186
a(lp193
g150
ag186
aaa(lp194
I235
aI241
aS'believe'
p195
a(lp196
g186
ag195
aaa(lp197
I235
aI241
ag195
a(lp198
g177
ag195
aaa(lp199
I235
aI241
ag195
a(lp200
g168
ag195
aaa(lp201
I235
aI241
ag195
a(lp202
g159
ag195
aaa(lp203
I270
aI275
aS'actual'
p204
a(lp205
g195
ag204
aaa(lp206
I270
aI275
ag204
a(lp207
g186
ag204
aaa(lp208
I270
aI275
ag204
a(lp209
g177
ag204
aaa(lp210
I270
aI275
ag204
a(lp211
g168
ag204
aaa(lp212
I277
aI280
aS'fear'
p213
a(lp214
g204
ag213
aaa(lp215
I277
aI280
ag213
a(lp216
g195
ag213
aaa(lp217
I277
aI280
ag213
a(lp218
g186
ag213
aaa(lp219
I277
aI280
ag213
a(lp220
g177
ag213
aaa(lp221
I290
aI294
aS'folks'
p222
a(lp223
g213
ag222
aaa(lp224
I290
aI294
ag222
a(lp225
g204
ag222
aaa(lp226
I290
aI294
ag222
a(lp227
g195
ag222
aaa(lp228
I290
aI294
ag222
a(lp229
g186
ag222
aaa(lp230
I305
aI310
aS'afraid'
p231
a(lp232
g222
ag231
aaa(lp233
I305
aI310
ag231
a(lp234
g213
ag231
aaa(lp235
I305
aI310
ag231
a(lp236
g204
ag231
aaa(lp237
I305
aI310
ag231
a(lp238
g195
ag231
aaa(lp239
I315
aI321
aS'failure'
p240
a(lp241
g231
ag240
aaa(lp242
I315
aI321
ag240
a(lp243
g222
ag240
aaa(lp244
I315
aI321
ag240
a(lp245
g213
ag240
aaa(lp246
I315
aI321
ag240
a(lp247
g204
ag240
aaa(lp248
I326
aI334
aS'rejection'
p249
a(lp250
g240
ag249
aaa(lp251
I326
aI334
ag249
a(lp252
g231
ag249
aaa(lp253
I326
aI334
ag249
a(lp254
g222
ag249
aaa(lp255
I326
aI334
ag249
a(lp256
g213
ag249
aaa(lp257
I344
aI347
aS'fear'
p258
a(lp259
g249
ag258
aaa(lp260
I344
aI347
ag258
a(lp261
g240
ag258
aaa(lp262
I344
aI347
ag258
a(lp263
g231
ag258
aaa(lp264
I344
aI347
ag258
a(lp265
g222
ag258
aaa(lp266
I355
aI363
aS'perceived'
p267
a(lp268
g258
ag267
aaa(lp269
I355
aI363
ag267
a(lp270
g249
ag267
aaa(lp271
I355
aI363
ag267
a(lp272
g240
ag267
aaa(lp273
I355
aI363
ag267
a(lp274
g231
ag267
aaa(lp275
I374
aI378
aS'pushy'
p276
a(lp277
g267
ag276
aaa(lp278
I374
aI378
ag276
a(lp279
g258
ag276
aaa(lp280
I374
aI378
ag276
a(lp281
g249
ag276
aaa(lp282
I374
aI378
ag276
a(lp283
g240
ag276
aaa(lp284
I389
aI396
aS'secretly'
p285
a(lp286
g276
ag285
aaa(lp287
I389
aI396
ag285
a(lp288
g267
ag285
aaa(lp289
I389
aI396
ag285
a(lp290
g258
ag285
aaa(lp291
I389
aI396
ag285
a(lp292
g249
ag285
aaa(lp293
I401
aI406
aS'course'
p294
a(lp295
g285
ag294
aaa(lp296
I401
aI406
ag294
a(lp297
g276
ag294
aaa(lp298
I401
aI406
ag294
a(lp299
g267
ag294
aaa(lp300
I401
aI406
ag294
a(lp301
g258
ag294
aaa(lp302
I409
aI412
aS'fear'
p303
a(lp304
g294
ag303
aaa(lp305
I409
aI412
ag303
a(lp306
g285
ag303
aaa(lp307
I409
aI412
ag303
a(lp308
g276
ag303
aaa(lp309
I409
aI412
ag303
a(lp310
g267
ag303
aaa(lp311
I424
aI430
aS'product'
p312
a(lp313
g303
ag312
aaa(lp314
I424
aI430
ag312
a(lp315
g294
ag312
aaa(lp316
I424
aI430
ag312
a(lp317
g285
ag312
aaa(lp318
I424
aI430
ag312
a(lp319
g276
ag312
aaa(lp320
I432
aI434
aS'may'
p321
a(lp322
g312
ag321
aaa(lp323
I432
aI434
ag321
a(lp324
g303
ag321
aaa(lp325
I432
aI434
ag321
a(lp326
g294
ag321
aaa(lp327
I432
aI434
ag321
a(lp328
g285
ag321
aaa(lp329
I440
aI443
aS'meet'
p330
a(lp331
g321
ag330
aaa(lp332
I440
aI443
ag330
a(lp333
g312
ag330
aaa(lp334
I440
aI443
ag330
a(lp335
g303
ag330
aaa(lp336
I440
aI443
ag330
a(lp337
g294
ag330
aaa(lp338
I449
aI460
aS'expectations'
p339
a(lp340
g330
ag339
aaa(lp341
I449
aI460
ag339
a(lp342
g321
ag339
aaa(lp343
I449
aI460
ag339
a(lp344
g312
ag339
aaa(lp345
I449
aI460
ag339
a(lp346
g303
ag339
aaa(lp347
I470
aI477
aS'customer'
p348
a(lp349
g339
ag348
aaa(lp350
I470
aI477
ag348
a(lp351
g330
ag348
aaa(lp352
I470
aI477
ag348
a(lp353
g321
ag348
aaa(lp354
I470
aI477
ag348
a(lp355
g312
ag348
aaa(lp356
I484
aI488
aS'cant'
p357
a(lp358
g348
ag357
aaa(lp359
I484
aI488
ag357
a(lp360
g339
ag357
aaa(lp361
I484
aI488
ag357
a(lp362
g330
ag357
aaa(lp363
I484
aI488
ag357
a(lp364
g321
ag357
aaa(lp365
I490
aI493
aS'come'
p366
a(lp367
g357
ag366
aaa(lp368
I490
aI493
ag366
a(lp369
g348
ag366
aaa(lp370
I490
aI493
ag366
a(lp371
g339
ag366
aaa(lp372
I490
aI493
ag366
a(lp373
g330
ag366
aaa(lp374
I505
aI512
aS'solution'
p375
a(lp376
g366
ag375
aaa(lp377
I505
aI512
ag375
a(lp378
g357
ag375
aaa(lp379
I505
aI512
ag375
a(lp380
g348
ag375
aaa(lp381
I505
aI512
ag375
a(lp382
g339
ag375
aaa(lp383
I521
aI525
aS'dont'
p384
a(lp385
g375
ag384
aaa(lp386
I521
aI525
ag384
a(lp387
g366
ag384
aaa(lp388
I521
aI525
ag384
a(lp389
g357
ag384
aaa(lp390
I521
aI525
ag384
a(lp391
g348
ag384
aaa(lp392
I527
aI530
aS'know'
p393
a(lp394
g384
ag393
aaa(lp395
I527
aI530
ag393
a(lp396
g375
ag393
aaa(lp397
I527
aI530
ag393
a(lp398
g366
ag393
aaa(lp399
I527
aI530
ag393
a(lp400
g357
ag393
aaa(lp401
I541
aI547
aS'problem'
p402
a(lp403
g393
ag402
aaa(lp404
I541
aI547
ag402
a(lp405
g384
ag402
aaa(lp406
I541
aI547
ag402
a(lp407
g375
ag402
aaa(lp408
I541
aI547
ag402
a(lp409
g366
ag402
aaa(lp410
I554
aI554
ag33
a(lp411
g402
ag33
aaa(lp412
I554
aI554
ag33
a(lp413
g393
ag33
aaa(lp414
I554
aI554
ag33
a(lp415
g384
ag33
aaa(lp416
I554
aI554
ag33
a(lp417
g375
ag33
aaa(lp418
I556
aI562
aS'theres'
p419
a(lp420
g33
ag419
aaa(lp421
I556
aI562
ag419
a(lp422
g402
ag419
aaa(lp423
I556
aI562
ag419
a(lp424
g393
ag419
aaa(lp425
I556
aI562
ag419
a(lp426
g384
ag419
aaa(lp427
I566
aI569
aS'huge'
p428
a(lp429
g419
ag428
aaa(lp430
I566
aI569
ag428
a(lp431
g33
ag428
aaa(lp432
I566
aI569
ag428
a(lp433
g402
ag428
aaa(lp434
I566
aI569
ag428
a(lp435
g393
ag428
aaa(lp436
I571
aI583
aS'misconception'
p437
a(lp438
g428
ag437
aaa(lp439
I571
aI583
ag437
a(lp440
g419
ag437
aaa(lp441
I571
aI583
ag437
a(lp442
g33
ag437
aaa(lp443
I571
aI583
ag437
a(lp444
g402
ag437
aaa(lp445
I588
aI593
aS'direct'
p446
a(lp447
g437
ag446
aaa(lp448
I588
aI593
ag446
a(lp449
g428
ag446
aaa(lp450
I588
aI593
ag446
a(lp451
g419
ag446
aaa(lp452
I588
aI593
ag446
a(lp453
g33
ag446
aaa(lp454
I595
aI599
aS'sales'
p455
a(lp456
g446
ag455
aaa(lp457
I595
aI599
ag455
a(lp458
g437
ag455
aaa(lp459
I595
aI599
ag455
a(lp460
g428
ag455
aaa(lp461
I595
aI599
ag455
a(lp462
g419
ag455
aaa(lp463
I616
aI620
aS'think'
p464
a(lp465
g455
ag464
aaa(lp466
I616
aI620
ag464
a(lp467
g446
ag464
aaa(lp468
I616
aI620
ag464
a(lp469
g437
ag464
aaa(lp470
I616
aI620
ag464
a(lp471
g428
ag464
aaa(lp472
I622
aI627
aS'youre'
p473
a(lp474
g464
ag473
aaa(lp475
I622
aI627
ag473
a(lp476
g455
ag473
aaa(lp477
I622
aI627
ag473
a(lp478
g446
ag473
aaa(lp479
I622
aI627
ag473
a(lp480
g437
ag473
aaa(lp481
I630
aI637
aS'imposing'
p482
a(lp483
g473
ag482
aaa(lp484
I630
aI637
ag482
a(lp485
g464
ag482
aaa(lp486
I630
aI637
ag482
a(lp487
g455
ag482
aaa(lp488
I630
aI637
ag482
a(lp489
g446
ag482
aaa(lp490
I648
aI654
aS'friends'
p491
a(lp492
g482
ag491
aaa(lp493
I648
aI654
ag491
a(lp494
g473
ag491
aaa(lp495
I648
aI654
ag491
a(lp496
g464
ag491
aaa(lp497
I648
aI654
ag491
a(lp498
g455
ag491
aaa(lp499
I657
aI662
aS'family'
p500
a(lp501
g491
ag500
aaa(lp502
I657
aI662
ag500
a(lp503
g482
ag500
aaa(lp504
I657
aI662
ag500
a(lp505
g473
ag500
aaa(lp506
I657
aI662
ag500
a(lp507
g464
ag500
aaa(lp508
I674
aI681
aS'customer'
p509
a(lp510
g500
ag509
aaa(lp511
I674
aI681
ag509
a(lp512
g491
ag509
aaa(lp513
I674
aI681
ag509
a(lp514
g482
ag509
aaa(lp515
I674
aI681
ag509
a(lp516
g473
ag509
aaa(lp517
I686
aI692
aS'general'
p518
a(lp519
g509
ag518
aaa(lp520
I686
aI692
ag518
a(lp521
g500
ag518
aaa(lp522
I686
aI692
ag518
a(lp523
g491
ag518
aaa(lp524
I686
aI692
ag518
a(lp525
g482
ag518
aaa(lp526
I698
aI701
aS'long'
p527
a(lp528
g518
ag527
aaa(lp529
I698
aI701
ag527
a(lp530
g509
ag527
aaa(lp531
I698
aI701
ag527
a(lp532
g500
ag527
aaa(lp533
I698
aI701
ag527
a(lp534
g491
ag527
aaa(lp535
I710
aI713
aS'feel'
p536
a(lp537
g527
ag536
aaa(lp538
I710
aI713
ag536
a(lp539
g518
ag536
aaa(lp540
I710
aI713
ag536
a(lp541
g509
ag536
aaa(lp542
I710
aI713
ag536
a(lp543
g500
ag536
aaa(lp544
I718
aI723
aS'though'
p545
a(lp546
g536
ag545
aaa(lp547
I718
aI723
ag545
a(lp548
g527
ag545
aaa(lp549
I718
aI723
ag545
a(lp550
g518
ag545
aaa(lp551
I718
aI723
ag545
a(lp552
g509
ag545
aaa(lp553
I725
aI730
aS'youre'
p554
a(lp555
g545
ag554
aaa(lp556
I725
aI730
ag554
a(lp557
g536
ag554
aaa(lp558
I725
aI730
ag554
a(lp559
g527
ag554
aaa(lp560
I725
aI730
ag554
a(lp561
g518
ag554
aaa(lp562
I732
aI745
aS'imposingyou'
p563
a(lp564
g554
ag563
aaa(lp565
I732
aI745
ag563
a(lp566
g545
ag563
aaa(lp567
I732
aI745
ag563
a(lp568
g536
ag563
aaa(lp569
I732
aI745
ag563
a(lp570
g527
ag563
aaa(lp571
I756
aI759
aS'need'
p572
a(lp573
g563
ag572
aaa(lp574
I756
aI759
ag572
a(lp575
g554
ag572
aaa(lp576
I756
aI759
ag572
a(lp577
g545
ag572
aaa(lp578
I756
aI759
ag572
a(lp579
g536
ag572
aaa(lp580
I764
aI767
aS'love'
p581
a(lp582
g572
ag581
aaa(lp583
I764
aI767
ag581
a(lp584
g563
ag581
aaa(lp585
I764
aI767
ag581
a(lp586
g554
ag581
aaa(lp587
I764
aI767
ag581
a(lp588
g545
ag581
aaa(lp589
I774
aI780
aS'product'
p590
a(lp591
g581
ag590
aaa(lp592
I774
aI780
ag590
a(lp593
g572
ag590
aaa(lp594
I774
aI780
ag590
a(lp595
g563
ag590
aaa(lp596
I774
aI780
ag590
a(lp597
g554
ag590
aaa(lp598
I786
aI789
aS'feel'
p599
a(lp600
g590
ag599
aaa(lp601
I786
aI789
ag599
a(lp602
g581
ag599
aaa(lp603
I786
aI789
ag599
a(lp604
g572
ag599
aaa(lp605
I786
aI789
ag599
a(lp606
g563
ag599
aaa(lp607
I794
aI799
aS'though'
p608
a(lp609
g599
ag608
aaa(lp610
I794
aI799
ag608
a(lp611
g590
ag608
aaa(lp612
I794
aI799
ag608
a(lp613
g581
ag608
aaa(lp614
I794
aI799
ag608
a(lp615
g572
ag608
aaa(lp616
I809
aI816
aS'offering'
p617
a(lp618
g608
ag617
aaa(lp619
I809
aI816
ag617
a(lp620
g599
ag617
aaa(lp621
I809
aI816
ag617
a(lp622
g590
ag617
aaa(lp623
I809
aI816
ag617
a(lp624
g581
ag617
aaa(lp625
I820
aI826
aS'service'
p626
a(lp627
g617
ag626
aaa(lp628
I820
aI826
ag626
a(lp629
g608
ag626
aaa(lp630
I820
aI826
ag626
a(lp631
g599
ag626
aaa(lp632
I820
aI826
ag626
a(lp633
g590
ag626
aaa(lp634
I829
aI834
aS'youre'
p635
a(lp636
g626
ag635
aaa(lp637
I829
aI834
ag635
a(lp638
g617
ag635
aaa(lp639
I829
aI834
ag635
a(lp640
g608
ag635
aaa(lp641
I829
aI834
ag635
a(lp642
g599
ag635
aaa(lp643
I836
aI842
aS'filling'
p644
a(lp645
g635
ag644
aaa(lp646
I836
aI842
ag644
a(lp647
g626
ag644
aaa(lp648
I836
aI842
ag644
a(lp649
g617
ag644
aaa(lp650
I836
aI842
ag644
a(lp651
g608
ag644
aaa(lp652
I846
aI849
aS'need'
p653
a(lp654
g644
ag653
aaa(lp655
I846
aI849
ag653
a(lp656
g635
ag653
aaa(lp657
I846
aI849
ag653
a(lp658
g626
ag653
aaa(lp659
I846
aI849
ag653
a(lp660
g617
ag653
aaa(lp661
I853
aI853
ag33
a(lp662
g653
ag33
aaa(lp663
I853
aI853
ag33
a(lp664
g644
ag33
aaa(lp665
I853
aI853
ag33
a(lp666
g635
ag33
aaa(lp667
I853
aI853
ag33
a(lp668
g626
ag33
aaa(lp669
I855
aI860
aS'people'
p670
a(lp671
g33
ag670
aaa(lp672
I855
aI860
ag670
a(lp673
g653
ag670
aaa(lp674
I855
aI860
ag670
a(lp675
g644
ag670
aaa(lp676
I855
aI860
ag670
a(lp677
g635
ag670
aaa(lp678
I866
aI877
aS'naturalborn'
p679
a(lp680
g670
ag679
aaa(lp681
I866
aI877
ag679
a(lp682
g33
ag679
aaa(lp683
I866
aI877
ag679
a(lp684
g653
ag679
aaa(lp685
I866
aI877
ag679
a(lp686
g644
ag679
aaa(lp687
I879
aI885
aS'sellers'
p688
a(lp689
g679
ag688
aaa(lp690
I879
aI885
ag688
a(lp691
g670
ag688
aaa(lp692
I879
aI885
ag688
a(lp693
g33
ag688
aaa(lp694
I879
aI885
ag688
a(lp695
g653
ag688
aaa(lp696
I896
aI900
aS'dont'
p697
a(lp698
g688
ag697
aaa(lp699
I896
aI900
ag697
a(lp700
g679
ag697
aaa(lp701
I896
aI900
ag697
a(lp702
g670
ag697
aaa(lp703
I896
aI900
ag697
a(lp704
g33
ag697
aaa(lp705
I902
aI908
aS'realize'
p706
a(lp707
g697
ag706
aaa(lp708
I902
aI908
ag706
a(lp709
g688
ag706
aaa(lp710
I902
aI908
ag706
a(lp711
g679
ag706
aaa(lp712
I902
aI908
ag706
a(lp713
g670
ag706
aaa(lp714
I928
aI933
aS'making'
p715
a(lp716
g706
ag715
aaa(lp717
I928
aI933
ag715
a(lp718
g697
ag715
aaa(lp719
I928
aI933
ag715
a(lp720
g688
ag715
aaa(lp721
I928
aI933
ag715
a(lp722
g679
ag715
aaa(lp723
I935
aI939
aS'money'
p724
a(lp725
g715
ag724
aaa(lp726
I935
aI939
ag724
a(lp727
g706
ag724
aaa(lp728
I935
aI939
ag724
a(lp729
g697
ag724
aaa(lp730
I935
aI939
ag724
a(lp731
g688
ag724
aaa(lp732
I950
aI954
aS'lets'
p733
a(lp734
g724
ag733
aaa(lp735
I950
aI954
ag733
a(lp736
g715
ag733
aaa(lp737
I950
aI954
ag733
a(lp738
g706
ag733
aaa(lp739
I950
aI954
ag733
a(lp740
g697
ag733
aaa(lp741
I956
aI958
aS'say'
p742
a(lp743
g733
ag742
aaa(lp744
I956
aI958
ag742
a(lp745
g724
ag742
aaa(lp746
I956
aI958
ag742
a(lp747
g715
ag742
aaa(lp748
I956
aI958
ag742
a(lp749
g706
ag742
aaa(lp750
I964
aI965
aS'go'
p751
a(lp752
g742
ag751
aaa(lp753
I964
aI965
ag751
a(lp754
g733
ag751
aaa(lp755
I964
aI965
ag751
a(lp756
g724
ag751
aaa(lp757
I964
aI965
ag751
a(lp758
g715
ag751
aaa(lp759
I972
aI976
aS'movie'
p760
a(lp761
g751
ag760
aaa(lp762
I972
aI976
ag760
a(lp763
g742
ag760
aaa(lp764
I972
aI976
ag760
a(lp765
g733
ag760
aaa(lp766
I972
aI976
ag760
a(lp767
g724
ag760
aaa(lp768
I987
aI991
aS'loved'
p769
a(lp770
g760
ag769
aaa(lp771
I987
aI991
ag769
a(lp772
g751
ag769
aaa(lp773
I987
aI991
ag769
a(lp774
g742
ag769
aaa(lp775
I987
aI991
ag769
a(lp776
g733
ag769
aaa(lp777
I1008
aI1013
aS'friend'
p778
a(lp779
g769
ag778
aaa(lp780
I1008
aI1013
ag778
a(lp781
g760
ag778
aaa(lp782
I1008
aI1013
ag778
a(lp783
g751
ag778
aaa(lp784
I1008
aI1013
ag778
a(lp785
g742
ag778
aaa(lp786
I1024
aI1027
aS'know'
p787
a(lp788
g778
ag787
aaa(lp789
I1024
aI1027
ag787
a(lp790
g769
ag787
aaa(lp791
I1024
aI1027
ag787
a(lp792
g760
ag787
aaa(lp793
I1024
aI1027
ag787
a(lp794
g751
ag787
aaa(lp795
I1029
aI1033
aS'would'
p796
a(lp797
g787
ag796
aaa(lp798
I1029
aI1033
ag796
a(lp799
g778
ag796
aaa(lp800
I1029
aI1033
ag796
a(lp801
g769
ag796
aaa(lp802
I1029
aI1033
ag796
a(lp803
g760
ag796
aaa(lp804
I1035
aI1039
aS'enjoy'
p805
a(lp806
g796
ag805
aaa(lp807
I1035
aI1039
ag805
a(lp808
g787
ag805
aaa(lp809
I1035
aI1039
ag805
a(lp810
g778
ag805
aaa(lp811
I1035
aI1039
ag805
a(lp812
g769
ag805
aaa(lp813
I1049
aI1056
aS'wouldnt'
p814
a(lp815
g805
ag814
aaa(lp816
I1049
aI1056
ag814
a(lp817
g796
ag814
aaa(lp818
I1049
aI1056
ag814
a(lp819
g787
ag814
aaa(lp820
I1049
aI1056
ag814
a(lp821
g778
ag814
aaa(lp822
I1062
aI1070
aS'recommend'
p823
a(lp824
g814
ag823
aaa(lp825
I1062
aI1070
ag823
a(lp826
g805
ag823
aaa(lp827
I1062
aI1070
ag823
a(lp828
g796
ag823
aaa(lp829
I1062
aI1070
ag823
a(lp830
g787
ag823
aaa(lp831
I1078
aI1084
aS'himher'
p832
a(lp833
g823
ag832
aaa(lp834
I1078
aI1084
ag832
a(lp835
g814
ag832
aaa(lp836
I1078
aI1084
ag832
a(lp837
g805
ag832
aaa(lp838
I1078
aI1084
ag832
a(lp839
g796
ag832
aaa(lp840
I1088
aI1088
ag33
a(lp841
g832
ag33
aaa(lp842
I1088
aI1088
ag33
a(lp843
g823
ag33
aaa(lp844
I1088
aI1088
ag33
a(lp845
g814
ag33
aaa(lp846
I1088
aI1088
ag33
a(lp847
g805
ag33
aaa(lp848
I1111
aI1114
aS'soon'
p849
a(lp850
g33
ag849
aaa(lp851
I1111
aI1114
ag849
a(lp852
g832
ag849
aaa(lp853
I1111
aI1114
ag849
a(lp854
g823
ag849
aaa(lp855
I1111
aI1114
ag849
a(lp856
g814
ag849
aaa(lp857
I1122
aI1123
aS'go'
p858
a(lp859
g849
ag858
aaa(lp860
I1122
aI1123
ag858
a(lp861
g33
ag858
aaa(lp862
I1122
aI1123
ag858
a(lp863
g832
ag858
aaa(lp864
I1122
aI1123
ag858
a(lp865
g823
ag858
aaa(lp866
I1130
aI1134
aS'sales'
p867
a(lp868
g858
ag867
aaa(lp869
I1130
aI1134
ag867
a(lp870
g849
ag867
aaa(lp871
I1130
aI1134
ag867
a(lp872
g33
ag867
aaa(lp873
I1130
aI1134
ag867
a(lp874
g832
ag867
aaa(lp875
I1139
aI1151
aS'automatically'
p876
a(lp877
g867
ag876
aaa(lp878
I1139
aI1151
ag876
a(lp879
g858
ag876
aaa(lp880
I1139
aI1151
ag876
a(lp881
g849
ag876
aaa(lp882
I1139
aI1151
ag876
a(lp883
g33
ag876
aaa(lp884
I1153
aI1156
aS'feel'
p885
a(lp886
g876
ag885
aaa(lp887
I1153
aI1156
ag885
a(lp888
g867
ag885
aaa(lp889
I1153
aI1156
ag885
a(lp890
g858
ag885
aaa(lp891
I1153
aI1156
ag885
a(lp892
g849
ag885
aaa(lp893
I1161
aI1166
aS'though'
p894
a(lp895
g885
ag894
aaa(lp896
I1161
aI1166
ag894
a(lp897
g876
ag894
aaa(lp898
I1161
aI1166
ag894
a(lp899
g867
ag894
aaa(lp900
I1161
aI1166
ag894
a(lp901
g858
ag894
aaa(lp902
I1175
aI1183
aS'recommend'
p903
a(lp904
g894
ag903
aaa(lp905
I1175
aI1183
ag903
a(lp906
g885
ag903
aaa(lp907
I1175
aI1183
ag903
a(lp908
g876
ag903
aaa(lp909
I1175
aI1183
ag903
a(lp910
g867
ag903
aaa(lp911
I1189
aI1196
aS'products'
p912
a(lp913
g903
ag912
aaa(lp914
I1189
aI1196
ag912
a(lp915
g894
ag912
aaa(lp916
I1189
aI1196
ag912
a(lp917
g885
ag912
aaa(lp918
I1189
aI1196
ag912
a(lp919
g876
ag912
aaa(lp920
I1201
aI1204
aS'sell'
p921
a(lp922
g912
ag921
aaa(lp923
I1201
aI1204
ag921
a(lp924
g903
ag921
aaa(lp925
I1201
aI1204
ag921
a(lp926
g894
ag921
aaa(lp927
I1201
aI1204
ag921
a(lp928
g885
ag921
aaa(lp929
I1225
aI1228
aS'tend'
p930
a(lp931
g921
ag930
aaa(lp932
I1225
aI1228
ag930
a(lp933
g912
ag930
aaa(lp934
I1225
aI1228
ag930
a(lp935
g903
ag930
aaa(lp936
I1225
aI1228
ag930
a(lp937
g894
ag930
aaa(lp938
I1233
aI1236
aS'feel'
p939
a(lp940
g930
ag939
aaa(lp941
I1233
aI1236
ag939
a(lp942
g921
ag939
aaa(lp943
I1233
aI1236
ag939
a(lp944
g912
ag939
aaa(lp945
I1233
aI1236
ag939
a(lp946
g903
ag939
aaa(lp947
I1238
aI1243
aS'guilty'
p948
a(lp949
g939
ag948
aaa(lp950
I1238
aI1243
ag948
a(lp951
g930
ag948
aaa(lp952
I1238
aI1243
ag948
a(lp953
g921
ag948
aaa(lp954
I1238
aI1243
ag948
a(lp955
g912
ag948
aaa(lp956
I1253
aI1255
aS'wee'
p957
a(lp958
g948
ag957
aaa(lp959
I1253
aI1255
ag957
a(lp960
g939
ag957
aaa(lp961
I1253
aI1255
ag957
a(lp962
g930
ag957
aaa(lp963
I1253
aI1255
ag957
a(lp964
g921
ag957
aaa(lp965
I1257
aI1261
aS'going'
p966
a(lp967
g957
ag966
aaa(lp968
I1257
aI1261
ag966
a(lp969
g948
ag966
aaa(lp970
I1257
aI1261
ag966
a(lp971
g939
ag966
aaa(lp972
I1257
aI1261
ag966
a(lp973
g930
ag966
aaa(lp974
I1266
aI1269
aS'make'
p975
a(lp976
g966
ag975
aaa(lp977
I1266
aI1269
ag975
a(lp978
g957
ag975
aaa(lp979
I1266
aI1269
ag975
a(lp980
g948
ag975
aaa(lp981
I1266
aI1269
ag975
a(lp982
g939
ag975
aaa(lp983
I1273
aI1278
aS'profit'
p984
a(lp985
g975
ag984
aaa(lp986
I1273
aI1278
ag984
a(lp987
g966
ag984
aaa(lp988
I1273
aI1278
ag984
a(lp989
g957
ag984
aaa(lp990
I1273
aI1278
ag984
a(lp991
g948
ag984
aaa(lp992
I1292
aI1292
ag33
a(lp993
g984
ag33
aaa(lp994
I1292
aI1292
ag33
a(lp995
g975
ag33
aaa(lp996
I1292
aI1292
ag33
a(lp997
g966
ag33
aaa(lp998
I1292
aI1292
ag33
a(lp999
g957
ag33
aaa(lp1000
I1305
aI1307
aS'one'
p1001
a(lp1002
g33
ag1001
aaa(lp1003
I1305
aI1307
ag1001
a(lp1004
g984
ag1001
aaa(lp1005
I1305
aI1307
ag1001
a(lp1006
g975
ag1001
aaa(lp1007
I1305
aI1307
ag1001
a(lp1008
g966
ag1001
aaa(lp1009
I1320
aI1323
aS'fear'
p1010
a(lp1011
g1001
ag1010
aaa(lp1012
I1320
aI1323
ag1010
a(lp1013
g33
ag1010
aaa(lp1014
I1320
aI1323
ag1010
a(lp1015
g984
ag1010
aaa(lp1016
I1320
aI1323
ag1010
a(lp1017
g975
ag1010
aaa(lp1018
I1328
aI1334
aS'selling'
p1019
a(lp1020
g1010
ag1019
aaa(lp1021
I1328
aI1334
ag1019
a(lp1022
g1001
ag1019
aaa(lp1023
I1328
aI1334
ag1019
a(lp1024
g33
ag1019
aaa(lp1025
I1328
aI1334
ag1019
a(lp1026
g984
ag1019
aaa(lp1027
I1337
aI1340
aS'take'
p1028
a(lp1029
g1019
ag1028
aaa(lp1030
I1337
aI1340
ag1028
a(lp1031
g1010
ag1028
aaa(lp1032
I1337
aI1340
ag1028
a(lp1033
g1001
ag1028
aaa(lp1034
I1337
aI1340
ag1028
a(lp1035
g33
ag1028
aaa(lp1036
I1347
aI1350
aS'time'
p1037
a(lp1038
g1028
ag1037
aaa(lp1039
I1347
aI1350
ag1037
a(lp1040
g1019
ag1037
aaa(lp1041
I1347
aI1350
ag1037
a(lp1042
g1010
ag1037
aaa(lp1043
I1347
aI1350
ag1037
a(lp1044
g1001
ag1037
aaa(lp1045
I1352
aI1356
aS'today'
p1046
a(lp1047
g1037
ag1046
aaa(lp1048
I1352
aI1356
ag1046
a(lp1049
g1028
ag1046
aaa(lp1050
I1352
aI1356
ag1046
a(lp1051
g1019
ag1046
aaa(lp1052
I1352
aI1356
ag1046
a(lp1053
g1010
ag1046
aaa(lp1054
I1361
aI1366
aS'figure'
p1055
a(lp1056
g1046
ag1055
aaa(lp1057
I1361
aI1366
ag1055
a(lp1058
g1037
ag1055
aaa(lp1059
I1361
aI1366
ag1055
a(lp1060
g1028
ag1055
aaa(lp1061
I1361
aI1366
ag1055
a(lp1062
g1019
ag1055
aaa(lp1063
I1376
aI1380
aS'cause'
p1064
a(lp1065
g1055
ag1064
aaa(lp1066
I1376
aI1380
ag1064
a(lp1067
g1046
ag1064
aaa(lp1068
I1376
aI1380
ag1064
a(lp1069
g1037
ag1064
aaa(lp1070
I1376
aI1380
ag1064
a(lp1071
g1028
ag1064
aaa(lp1072
I1390
aI1393
aS'fear'
p1073
a(lp1074
g1064
ag1073
aaa(lp1075
I1390
aI1393
ag1073
a(lp1076
g1055
ag1073
aaa(lp1077
I1390
aI1393
ag1073
a(lp1078
g1046
ag1073
aaa(lp1079
I1390
aI1393
ag1073
a(lp1080
g1037
ag1073
aaa(lp1081
I1400
aI1403
aS'take'
p1082
a(lp1083
g1073
ag1082
aaa(lp1084
I1400
aI1403
ag1082
a(lp1085
g1064
ag1082
aaa(lp1086
I1400
aI1403
ag1082
a(lp1087
g1055
ag1082
aaa(lp1088
I1400
aI1403
ag1082
a(lp1089
g1046
ag1082
aaa(lp1090
I1405
aI1410
aS'action'
p1091
a(lp1092
g1082
ag1091
aaa(lp1093
I1405
aI1410
ag1091
a(lp1094
g1073
ag1091
aaa(lp1095
I1405
aI1410
ag1091
a(lp1096
g1064
ag1091
aaa(lp1097
I1405
aI1410
ag1091
a(lp1098
g1055
ag1091
aaa(lp1099
I1415
aI1417
aS'fix'
p1100
a(lp1101
g1091
ag1100
aaa(lp1102
I1415
aI1417
ag1100
a(lp1103
g1082
ag1100
aaa(lp1104
I1415
aI1417
ag1100
a(lp1105
g1073
ag1100
aaa(lp1106
I1415
aI1417
ag1100
a(lp1107
g1064
ag1100
aaa(lp1108
I1424
aI1424
ag33
a(lp1109
g1100
ag33
aaa(lp1110
I1424
aI1424
ag33
a(lp1111
g1091
ag33
aaa(lp1112
I1424
aI1424
ag33
a(lp1113
g1082
ag33
aaa(lp1114
I1424
aI1424
ag33
a(lp1115
g1073
ag33
aaa(lp1116
I1444
aI1450
aS'authors'
p1117
a(lp1118
g33
ag1117
aaa(lp1119
I1444
aI1450
ag1117
a(lp1120
g1100
ag1117
aaa(lp1121
I1444
aI1450
ag1117
a(lp1122
g1091
ag1117
aaa(lp1123
I1444
aI1450
ag1117
a(lp1124
g1082
ag1117
aaa(lp1125
I1453
aI1456
aS'kara'
p1126
a(lp1127
g1117
ag1126
aaa(lp1128
I1453
aI1456
ag1126
a(lp1129
g33
ag1126
aaa(lp1130
I1453
aI1456
ag1126
a(lp1131
g1100
ag1126
aaa(lp1132
I1453
aI1456
ag1126
a(lp1133
g1091
ag1126
aaa(lp1134
I1458
aI1462
aS'kelso'
p1135
a(lp1136
g1126
ag1135
aaa(lp1137
I1458
aI1462
ag1135
a(lp1138
g1117
ag1135
aaa(lp1139
I1458
aI1462
ag1135
a(lp1140
g33
ag1135
aaa(lp1141
I1458
aI1462
ag1135
a(lp1142
g1100
ag1135
aaa(lp1143
I1466
aI1470
aS'anita'
p1144
a(lp1145
g1135
ag1144
aaa(lp1146
I1466
aI1470
ag1144
a(lp1147
g1126
ag1144
aaa(lp1148
I1466
aI1470
ag1144
a(lp1149
g1117
ag1144
aaa(lp1150
I1466
aI1470
ag1144
a(lp1151
g33
ag1144
aaa(lp1152
I1472
aI1478
aS'defrank'
p1153
a(lp1154
g1144
ag1153
aaa(lp1155
I1472
aI1478
ag1153
a(lp1156
g1135
ag1153
aaa(lp1157
I1472
aI1478
ag1153
a(lp1158
g1126
ag1153
aaa(lp1159
I1472
aI1478
ag1153
a(lp1160
g1117
ag1153
aaa(lp1161
I1484
aI1486
aS'two'
p1162
a(lp1163
g1153
ag1162
aaa(lp1164
I1484
aI1486
ag1162
a(lp1165
g1144
ag1162
aaa(lp1166
I1484
aI1486
ag1162
a(lp1167
g1135
ag1162
aaa(lp1168
I1484
aI1486
ag1162
a(lp1169
g1126
ag1162
aaa(lp1170
I1488
aI1491
aS'busy'
p1171
a(lp1172
g1162
ag1171
aaa(lp1173
I1488
aI1491
ag1171
a(lp1174
g1153
ag1171
aaa(lp1175
I1488
aI1491
ag1171
a(lp1176
g1144
ag1171
aaa(lp1177
I1488
aI1491
ag1171
a(lp1178
g1135
ag1171
aaa(lp1179
I1493
aI1497
aS'wahms'
p1180
a(lp1181
g1171
ag1180
aaa(lp1182
I1493
aI1497
ag1180
a(lp1183
g1162
ag1180
aaa(lp1184
I1493
aI1497
ag1180
a(lp1185
g1153
ag1180
aaa(lp1186
I1493
aI1497
ag1180
a(lp1187
g1144
ag1180
aaa(lp1188
I1508
aI1513
aS'owners'
p1189
a(lp1190
g1180
ag1189
aaa(lp1191
I1508
aI1513
ag1189
a(lp1192
g1171
ag1189
aaa(lp1193
I1508
aI1513
ag1189
a(lp1194
g1162
ag1189
aaa(lp1195
I1508
aI1513
ag1189
a(lp1196
g1153
ag1189
aaa(lp1197
I1518
aI1523
aS'direct'
p1198
a(lp1199
g1189
ag1198
aaa(lp1200
I1518
aI1523
ag1198
a(lp1201
g1180
ag1198
aaa(lp1202
I1518
aI1523
ag1198
a(lp1203
g1171
ag1198
aaa(lp1204
I1518
aI1523
ag1198
a(lp1205
g1162
ag1198
aaa(lp1206
I1525
aI1529
aS'sales'
p1207
a(lp1208
g1198
ag1207
aaa(lp1209
I1525
aI1529
ag1207
a(lp1210
g1189
ag1207
aaa(lp1211
I1525
aI1529
ag1207
a(lp1212
g1180
ag1207
aaa(lp1213
I1525
aI1529
ag1207
a(lp1214
g1171
ag1207
aaa(lp1215
I1531
aI1537
aS'helpers'
p1216
a(lp1217
g1207
ag1216
aaa(lp1218
I1531
aI1537
ag1216
a(lp1219
g1198
ag1216
aaa(lp1220
I1531
aI1537
ag1216
a(lp1221
g1189
ag1216
aaa(lp1222
I1531
aI1537
ag1216
a(lp1223
g1180
ag1216
aaa(lp1224
I1540
aI1544
aS'learn'
p1225
a(lp1226
g1216
ag1225
aaa(lp1227
I1540
aI1544
ag1225
a(lp1228
g1207
ag1225
aaa(lp1229
I1540
aI1544
ag1225
a(lp1230
g1198
ag1225
aaa(lp1231
I1540
aI1544
ag1225
a(lp1232
g1189
ag1225
aaa(lp1233
I1561
aI1570
aS'successful'
p1234
a(lp1235
g1225
ag1234
aaa(lp1236
I1561
aI1570
ag1234
a(lp1237
g1216
ag1234
aaa(lp1238
I1561
aI1570
ag1234
a(lp1239
g1207
ag1234
aaa(lp1240
I1561
aI1570
ag1234
a(lp1241
g1198
ag1234
aaa(lp1242
I1580
aI1586
aS'company'
p1243
a(lp1244
g1234
ag1243
aaa(lp1245
I1580
aI1586
ag1243
a(lp1246
g1225
ag1243
aaa(lp1247
I1580
aI1586
ag1243
a(lp1248
g1216
ag1243
aaa(lp1249
I1580
aI1586
ag1243
a(lp1250
g1207
ag1243
aaasS'wordMap'
p1251
(lp1252
(lp1253
I0
aI9
ag5
a(lp1254
(lp1255
I0
aS'o'
p1256
aa(lp1257
I1
aS'v'
p1258
aa(lp1259
I2
aS'e'
p1260
aa(lp1261
I3
aS'r'
p1262
aa(lp1263
I4
aS'c'
p1264
aa(lp1265
I5
ag1256
aa(lp1266
I6
aS'm'
p1267
aa(lp1268
I7
aS'i'
p1269
aa(lp1270
I8
aS'n'
p1271
aa(lp1272
I9
aS'g'
p1273
aaaa(lp1274
I11
aI13
aS'the'
p1275
a(lp1276
(lp1277
I11
aS't'
p1278
aa(lp1279
I12
aS'h'
p1280
aa(lp1281
I13
ag1260
aaaa(lp1282
I15
aI18
ag15
a(lp1283
(lp1284
I15
aS'f'
p1285
aa(lp1286
I16
ag1260
aa(lp1287
I17
aS'a'
p1288
aa(lp1289
I18
ag1262
aaaa(lp1290
I20
aI21
aS'of'
p1291
a(lp1292
(lp1293
I20
ag1256
aa(lp1294
I21
ag1285
aaaa(lp1295
I23
aI29
ag24
a(lp1296
(lp1297
I23
aS's'
p1298
aa(lp1299
I24
ag1260
aa(lp1300
I25
aS'l'
p1301
aa(lp1302
I26
ag1301
aa(lp1303
I27
ag1269
aa(lp1304
I28
ag1271
aa(lp1305
I29
ag1273
aaaa(lp1306
I32
aI32
ag33
a(lp1307
(lp1308
I32
ag33
aaaa(lp1309
I34
aI36
aS'for'
p1310
a(lp1311
(lp1312
I34
ag1285
aa(lp1313
I35
ag1256
aa(lp1314
I36
ag1262
aaaa(lp1315
I38
aI41
ag42
a(lp1316
(lp1317
I38
ag1267
aa(lp1318
I39
ag1288
aa(lp1319
I40
ag1271
aa(lp1320
I41
aS'y'
p1321
aaaa(lp1322
I43
aI44
aS'of'
p1323
a(lp1324
(lp1325
I43
ag1256
aa(lp1326
I44
ag1285
aaaa(lp1327
I46
aI48
aS'you'
p1328
a(lp1329
(lp1330
I46
ag1321
aa(lp1331
I47
ag1256
aa(lp1332
I48
aS'u'
p1333
aaaa(lp1334
I50
aI52
aS'the'
p1335
a(lp1336
(lp1337
I50
ag1278
aa(lp1338
I51
ag1280
aa(lp1339
I52
ag1260
aaaa(lp1340
I54
aI57
ag51
a(lp1341
(lp1342
I54
ag1285
aa(lp1343
I55
ag1260
aa(lp1344
I56
ag1288
aa(lp1345
I57
ag1262
aaaa(lp1346
I59
aI60
aS'of'
p1347
a(lp1348
(lp1349
I59
ag1256
aa(lp1350
I60
ag1285
aaaa(lp1351
I62
aI68
ag60
a(lp1352
(lp1353
I62
ag1298
aa(lp1354
I63
ag1260
aa(lp1355
I64
ag1301
aa(lp1356
I65
ag1301
aa(lp1357
I66
ag1269
aa(lp1358
I67
ag1271
aa(lp1359
I68
ag1273
aaaa(lp1360
I70
aI71
aS'is'
p1361
a(lp1362
(lp1363
I70
ag1269
aa(lp1364
I71
ag1298
aaaa(lp1365
I73
aI73
ag1288
a(lp1366
(lp1367
I73
ag1288
aaaa(lp1368
I75
aI78
ag69
a(lp1369
(lp1370
I75
ag1280
aa(lp1371
I76
ag1333
aa(lp1372
I77
ag1273
aa(lp1373
I78
ag1260
aaaa(lp1374
I80
aI88
ag78
a(lp1375
(lp1376
I80
ag1264
aa(lp1377
I81
ag1280
aa(lp1378
I82
ag1288
aa(lp1379
I83
ag1301
aa(lp1380
I84
ag1301
aa(lp1381
I85
ag1260
aa(lp1382
I86
ag1271
aa(lp1383
I87
ag1273
aa(lp1384
I88
ag1260
aaaa(lp1385
I90
aI92
aS'and'
p1386
a(lp1387
(lp1388
I90
ag1288
aa(lp1389
I91
ag1271
aa(lp1390
I92
aS'd'
p1391
aaaa(lp1392
I94
aI101
ag87
a(lp1393
(lp1394
I94
ag1256
aa(lp1395
I95
aS'b'
p1396
aa(lp1397
I96
ag1298
aa(lp1398
I97
ag1278
aa(lp1399
I98
ag1288
aa(lp1400
I99
ag1264
aa(lp1401
I100
ag1301
aa(lp1402
I101
ag1260
aaaa(lp1403
I103
aI105
aS'for'
p1404
a(lp1405
(lp1406
I103
ag1285
aa(lp1407
I104
ag1256
aa(lp1408
I105
ag1262
aaaa(lp1409
I107
aI109
aS'you'
p1410
a(lp1411
(lp1412
I107
ag1321
aa(lp1413
I108
ag1256
aa(lp1414
I109
ag1333
aaaa(lp1415
I111
aI114
aS'from'
p1416
a(lp1417
(lp1418
I111
ag1285
aa(lp1419
I112
ag1262
aa(lp1420
I113
ag1256
aa(lp1421
I114
ag1267
aaaa(lp1422
I116
aI118
ag96
a(lp1423
(lp1424
I116
ag1391
aa(lp1425
I117
ag1288
aa(lp1426
I118
ag1321
aaaa(lp1427
I120
aI121
aS'to'
p1428
a(lp1429
(lp1430
I120
ag1278
aa(lp1431
I121
ag1256
aaaa(lp1432
I123
aI125
ag105
a(lp1433
(lp1434
I123
ag1391
aa(lp1435
I124
ag1288
aa(lp1436
I125
ag1321
aaaa(lp1437
I128
aI130
aS'the'
p1438
a(lp1439
(lp1440
I128
ag1278
aa(lp1441
I129
ag1280
aa(lp1442
I130
ag1260
aaaa(lp1443
I132
aI136
ag114
a(lp1444
(lp1445
I132
ag1285
aa(lp1446
I133
ag1269
aa(lp1447
I134
ag1262
aa(lp1448
I135
ag1298
aa(lp1449
I136
ag1278
aaaa(lp1450
I138
aI142
ag123
a(lp1451
(lp1452
I138
ag1278
aa(lp1453
I139
ag1280
aa(lp1454
I140
ag1269
aa(lp1455
I141
ag1271
aa(lp1456
I142
ag1273
aaaa(lp1457
I144
aI146
aS'you'
p1458
a(lp1459
(lp1460
I144
ag1321
aa(lp1461
I145
ag1256
aa(lp1462
I146
ag1333
aaaa(lp1463
I148
aI151
ag132
a(lp1464
(lp1465
I148
ag1271
aa(lp1466
I149
ag1260
aa(lp1467
I150
ag1260
aa(lp1468
I151
ag1391
aaaa(lp1469
I153
aI154
aS'to'
p1470
a(lp1471
(lp1472
I153
ag1278
aa(lp1473
I154
ag1256
aaaa(lp1474
I156
aI157
aS'do'
p1475
a(lp1476
(lp1477
I156
ag1391
aa(lp1478
I157
ag1256
aaaa(lp1479
I159
aI160
aS'is'
p1480
a(lp1481
(lp1482
I159
ag1269
aa(lp1483
I160
ag1298
aaaa(lp1484
I162
aI165
ag141
a(lp1485
(lp1486
I162
ag1285
aa(lp1487
I163
ag1269
aa(lp1488
I164
ag1271
aa(lp1489
I165
ag1391
aaaa(lp1490
I167
aI169
aS'out'
p1491
a(lp1492
(lp1493
I167
ag1256
aa(lp1494
I168
ag1333
aa(lp1495
I169
ag1278
aaaa(lp1496
I171
aI177
ag150
a(lp1497
(lp1498
I171
ag1260
aa(lp1499
I172
aS'x'
p1500
aa(lp1501
I173
ag1288
aa(lp1502
I174
ag1264
aa(lp1503
I175
ag1278
aa(lp1504
I176
ag1301
aa(lp1505
I177
ag1321
aaaa(lp1506
I179
aI182
aS'what'
p1507
a(lp1508
(lp1509
I179
aS'w'
p1510
aa(lp1511
I180
ag1280
aa(lp1512
I181
ag1288
aa(lp1513
I182
ag1278
aaaa(lp1514
I184
aI185
aS'it'
p1515
a(lp1516
(lp1517
I184
ag1269
aa(lp1518
I185
ag1278
aaaa(lp1519
I187
aI188
aS'is'
p1520
a(lp1521
(lp1522
I187
ag1269
aa(lp1523
I188
ag1298
aaaa(lp1524
I190
aI195
ag159
a(lp1525
(lp1526
I190
ag1321
aa(lp1527
I191
ag1256
aa(lp1528
I192
ag1333
aa(lp1529
I194
ag1262
aa(lp1530
I195
ag1260
aaaa(lp1531
I197
aI202
ag168
a(lp1532
(lp1533
I197
ag1288
aa(lp1534
I198
ag1285
aa(lp1535
I199
ag1262
aa(lp1536
I200
ag1288
aa(lp1537
I201
ag1269
aa(lp1538
I202
ag1391
aaaa(lp1539
I204
aI205
aS'of'
p1540
a(lp1541
(lp1542
I204
ag1256
aa(lp1543
I205
ag1285
aaaa(lp1544
I208
aI210
aS'are'
p1545
a(lp1546
(lp1547
I208
ag1288
aa(lp1548
I209
ag1262
aa(lp1549
I210
ag1260
aaaa(lp1550
I212
aI214
aS'you'
p1551
a(lp1552
(lp1553
I212
ag1321
aa(lp1554
I213
ag1256
aa(lp1555
I214
ag1333
aaaa(lp1556
I216
aI221
ag177
a(lp1557
(lp1558
I216
ag1288
aa(lp1559
I217
ag1285
aa(lp1560
I218
ag1262
aa(lp1561
I219
ag1288
aa(lp1562
I220
ag1269
aa(lp1563
I221
ag1391
aaaa(lp1564
I223
aI224
aS'of'
p1565
a(lp1566
(lp1567
I223
ag1256
aa(lp1568
I224
ag1285
aaaa(lp1569
I226
aI232
ag186
a(lp1570
(lp1571
I226
ag1298
aa(lp1572
I227
ag1333
aa(lp1573
I228
ag1264
aa(lp1574
I229
ag1264
aa(lp1575
I230
ag1260
aa(lp1576
I231
ag1298
aa(lp1577
I232
ag1298
aaaa(lp1578
I235
aI241
ag195
a(lp1579
(lp1580
I235
ag1396
aa(lp1581
I236
ag1260
aa(lp1582
I237
ag1301
aa(lp1583
I238
ag1269
aa(lp1584
I239
ag1260
aa(lp1585
I240
ag1258
aa(lp1586
I241
ag1260
aaaa(lp1587
I243
aI244
aS'it'
p1588
a(lp1589
(lp1590
I243
ag1269
aa(lp1591
I244
ag1278
aaaa(lp1592
I246
aI247
aS'or'
p1593
a(lp1594
(lp1595
I246
ag1256
aa(lp1596
I247
ag1262
aaaa(lp1597
I249
aI251
aS'not'
p1598
a(lp1599
(lp1600
I249
ag1271
aa(lp1601
I250
ag1256
aa(lp1602
I251
ag1278
aaaa(lp1603
I253
aI257
aS'there'
p1604
a(lp1605
(lp1606
I253
ag1278
aa(lp1607
I254
ag1280
aa(lp1608
I255
ag1260
aa(lp1609
I256
ag1262
aa(lp1610
I257
ag1260
aaaa(lp1611
I259
aI262
aS'this'
p1612
a(lp1613
(lp1614
I259
ag1278
aa(lp1615
I260
ag1280
aa(lp1616
I261
ag1269
aa(lp1617
I262
ag1298
aaaa(lp1618
I264
aI265
aS'is'
p1619
a(lp1620
(lp1621
I264
ag1269
aa(lp1622
I265
ag1298
aaaa(lp1623
I267
aI268
aS'an'
p1624
a(lp1625
(lp1626
I267
ag1288
aa(lp1627
I268
ag1271
aaaa(lp1628
I270
aI275
ag204
a(lp1629
(lp1630
I270
ag1288
aa(lp1631
I271
ag1264
aa(lp1632
I272
ag1278
aa(lp1633
I273
ag1333
aa(lp1634
I274
ag1288
aa(lp1635
I275
ag1301
aaaa(lp1636
I277
aI280
ag213
a(lp1637
(lp1638
I277
ag1285
aa(lp1639
I278
ag1260
aa(lp1640
I279
ag1288
aa(lp1641
I280
ag1262
aaaa(lp1642
I282
aI283
aS'of'
p1643
a(lp1644
(lp1645
I282
ag1256
aa(lp1646
I283
ag1285
aaaa(lp1647
I285
aI288
aS'some'
p1648
a(lp1649
(lp1650
I285
ag1298
aa(lp1651
I286
ag1256
aa(lp1652
I287
ag1267
aa(lp1653
I288
ag1260
aaaa(lp1654
I290
aI294
ag222
a(lp1655
(lp1656
I290
ag1285
aa(lp1657
I291
ag1256
aa(lp1658
I292
ag1301
aa(lp1659
I293
aS'k'
p1660
aa(lp1661
I294
ag1298
aaaa(lp1662
I297
aI299
aS'are'
p1663
a(lp1664
(lp1665
I297
ag1288
aa(lp1666
I298
ag1262
aa(lp1667
I299
ag1260
aaaa(lp1668
I301
aI303
aS'you'
p1669
a(lp1670
(lp1671
I301
ag1321
aa(lp1672
I302
ag1256
aa(lp1673
I303
ag1333
aaaa(lp1674
I305
aI310
ag231
a(lp1675
(lp1676
I305
ag1288
aa(lp1677
I306
ag1285
aa(lp1678
I307
ag1262
aa(lp1679
I308
ag1288
aa(lp1680
I309
ag1269
aa(lp1681
I310
ag1391
aaaa(lp1682
I312
aI313
aS'of'
p1683
a(lp1684
(lp1685
I312
ag1256
aa(lp1686
I313
ag1285
aaaa(lp1687
I315
aI321
ag240
a(lp1688
(lp1689
I315
ag1285
aa(lp1690
I316
ag1288
aa(lp1691
I317
ag1269
aa(lp1692
I318
ag1301
aa(lp1693
I319
ag1333
aa(lp1694
I320
ag1262
aa(lp1695
I321
ag1260
aaaa(lp1696
I323
aI324
aS'or'
p1697
a(lp1698
(lp1699
I323
ag1256
aa(lp1700
I324
ag1262
aaaa(lp1701
I326
aI334
ag249
a(lp1702
(lp1703
I326
ag1262
aa(lp1704
I327
ag1260
aa(lp1705
I328
aS'j'
p1706
aa(lp1707
I329
ag1260
aa(lp1708
I330
ag1264
aa(lp1709
I331
ag1278
aa(lp1710
I332
ag1269
aa(lp1711
I333
ag1256
aa(lp1712
I334
ag1271
aaaa(lp1713
I337
aI338
aS'do'
p1714
a(lp1715
(lp1716
I337
ag1391
aa(lp1717
I338
ag1256
aaaa(lp1718
I340
aI342
aS'you'
p1719
a(lp1720
(lp1721
I340
ag1321
aa(lp1722
I341
ag1256
aa(lp1723
I342
ag1333
aaaa(lp1724
I344
aI347
ag258
a(lp1725
(lp1726
I344
ag1285
aa(lp1727
I345
ag1260
aa(lp1728
I346
ag1288
aa(lp1729
I347
ag1262
aaaa(lp1730
I349
aI353
aS'being'
p1731
a(lp1732
(lp1733
I349
ag1396
aa(lp1734
I350
ag1260
aa(lp1735
I351
ag1269
aa(lp1736
I352
ag1271
aa(lp1737
I353
ag1273
aaaa(lp1738
I355
aI363
ag267
a(lp1739
(lp1740
I355
aS'p'
p1741
aa(lp1742
I356
ag1260
aa(lp1743
I357
ag1262
aa(lp1744
I358
ag1264
aa(lp1745
I359
ag1260
aa(lp1746
I360
ag1269
aa(lp1747
I361
ag1258
aa(lp1748
I362
ag1260
aa(lp1749
I363
ag1391
aaaa(lp1750
I365
aI366
aS'as'
p1751
a(lp1752
(lp1753
I365
ag1288
aa(lp1754
I366
ag1298
aaaa(lp1755
I368
aI372
aS'being'
p1756
a(lp1757
(lp1758
I368
ag1396
aa(lp1759
I369
ag1260
aa(lp1760
I370
ag1269
aa(lp1761
I371
ag1271
aa(lp1762
I372
ag1273
aaaa(lp1763
I374
aI378
ag276
a(lp1764
(lp1765
I374
ag1741
aa(lp1766
I375
ag1333
aa(lp1767
I376
ag1298
aa(lp1768
I377
ag1280
aa(lp1769
I378
ag1321
aaaa(lp1770
I381
aI382
aS'do'
p1771
a(lp1772
(lp1773
I381
ag1391
aa(lp1774
I382
ag1256
aaaa(lp1775
I384
aI386
aS'you'
p1776
a(lp1777
(lp1778
I384
ag1321
aa(lp1779
I385
ag1256
aa(lp1780
I386
ag1333
aaaa(lp1781
I389
aI396
ag285
a(lp1782
(lp1783
I389
ag1298
aa(lp1784
I390
ag1260
aa(lp1785
I391
ag1264
aa(lp1786
I392
ag1262
aa(lp1787
I393
ag1260
aa(lp1788
I394
ag1278
aa(lp1789
I395
ag1301
aa(lp1790
I396
ag1321
aaaa(lp1791
I398
aI399
aS'of'
p1792
a(lp1793
(lp1794
I398
ag1256
aa(lp1795
I399
ag1285
aaaa(lp1796
I401
aI406
ag294
a(lp1797
(lp1798
I401
ag1264
aa(lp1799
I402
ag1256
aa(lp1800
I403
ag1333
aa(lp1801
I404
ag1262
aa(lp1802
I405
ag1298
aa(lp1803
I406
ag1260
aaaa(lp1804
I409
aI412
ag303
a(lp1805
(lp1806
I409
ag1285
aa(lp1807
I410
ag1260
aa(lp1808
I411
ag1288
aa(lp1809
I412
ag1262
aaaa(lp1810
I414
aI417
aS'that'
p1811
a(lp1812
(lp1813
I414
ag1278
aa(lp1814
I415
ag1280
aa(lp1815
I416
ag1288
aa(lp1816
I417
ag1278
aaaa(lp1817
I419
aI422
aS'your'
p1818
a(lp1819
(lp1820
I419
ag1321
aa(lp1821
I420
ag1256
aa(lp1822
I421
ag1333
aa(lp1823
I422
ag1262
aaaa(lp1824
I424
aI430
ag312
a(lp1825
(lp1826
I424
ag1741
aa(lp1827
I425
ag1262
aa(lp1828
I426
ag1256
aa(lp1829
I427
ag1391
aa(lp1830
I428
ag1333
aa(lp1831
I429
ag1264
aa(lp1832
I430
ag1278
aaaa(lp1833
I432
aI434
ag321
a(lp1834
(lp1835
I432
ag1267
aa(lp1836
I433
ag1288
aa(lp1837
I434
ag1321
aaaa(lp1838
I436
aI438
aS'not'
p1839
a(lp1840
(lp1841
I436
ag1271
aa(lp1842
I437
ag1256
aa(lp1843
I438
ag1278
aaaa(lp1844
I440
aI443
ag330
a(lp1845
(lp1846
I440
ag1267
aa(lp1847
I441
ag1260
aa(lp1848
I442
ag1260
aa(lp1849
I443
ag1278
aaaa(lp1850
I445
aI447
aS'the'
p1851
a(lp1852
(lp1853
I445
ag1278
aa(lp1854
I446
ag1280
aa(lp1855
I447
ag1260
aaaa(lp1856
I449
aI460
ag339
a(lp1857
(lp1858
I449
ag1260
aa(lp1859
I450
ag1500
aa(lp1860
I451
ag1741
aa(lp1861
I452
ag1260
aa(lp1862
I453
ag1264
aa(lp1863
I454
ag1278
aa(lp1864
I455
ag1288
aa(lp1865
I456
ag1278
aa(lp1866
I457
ag1269
aa(lp1867
I458
ag1256
aa(lp1868
I459
ag1271
aa(lp1869
I460
ag1298
aaaa(lp1870
I462
aI463
aS'of'
p1871
a(lp1872
(lp1873
I462
ag1256
aa(lp1874
I463
ag1285
aaaa(lp1875
I465
aI468
aS'your'
p1876
a(lp1877
(lp1878
I465
ag1321
aa(lp1879
I466
ag1256
aa(lp1880
I467
ag1333
aa(lp1881
I468
ag1262
aaaa(lp1882
I470
aI477
ag348
a(lp1883
(lp1884
I470
ag1264
aa(lp1885
I471
ag1333
aa(lp1886
I472
ag1298
aa(lp1887
I473
ag1278
aa(lp1888
I474
ag1256
aa(lp1889
I475
ag1267
aa(lp1890
I476
ag1260
aa(lp1891
I477
ag1262
aaaa(lp1892
I480
aI482
aS'you'
p1893
a(lp1894
(lp1895
I480
ag1321
aa(lp1896
I481
ag1256
aa(lp1897
I482
ag1333
aaaa(lp1898
I484
aI488
ag357
a(lp1899
(lp1900
I484
ag1264
aa(lp1901
I485
ag1288
aa(lp1902
I486
ag1271
aa(lp1903
I488
ag1278
aaaa(lp1904
I490
aI493
ag366
a(lp1905
(lp1906
I490
ag1264
aa(lp1907
I491
ag1256
aa(lp1908
I492
ag1267
aa(lp1909
I493
ag1260
aaaa(lp1910
I495
aI496
aS'up'
p1911
a(lp1912
(lp1913
I495
ag1333
aa(lp1914
I496
ag1741
aaaa(lp1915
I498
aI501
aS'with'
p1916
a(lp1917
(lp1918
I498
ag1510
aa(lp1919
I499
ag1269
aa(lp1920
I500
ag1278
aa(lp1921
I501
ag1280
aaaa(lp1922
I503
aI503
ag1288
a(lp1923
(lp1924
I503
ag1288
aaaa(lp1925
I505
aI512
ag375
a(lp1926
(lp1927
I505
ag1298
aa(lp1928
I506
ag1256
aa(lp1929
I507
ag1301
aa(lp1930
I508
ag1333
aa(lp1931
I509
ag1278
aa(lp1932
I510
ag1269
aa(lp1933
I511
ag1256
aa(lp1934
I512
ag1271
aaaa(lp1935
I514
aI515
aS'if'
p1936
a(lp1937
(lp1938
I514
ag1269
aa(lp1939
I515
ag1285
aaaa(lp1940
I517
aI519
aS'you'
p1941
a(lp1942
(lp1943
I517
ag1321
aa(lp1944
I518
ag1256
aa(lp1945
I519
ag1333
aaaa(lp1946
I521
aI525
ag384
a(lp1947
(lp1948
I521
ag1391
aa(lp1949
I522
ag1256
aa(lp1950
I523
ag1271
aa(lp1951
I525
ag1278
aaaa(lp1952
I527
aI530
ag393
a(lp1953
(lp1954
I527
ag1660
aa(lp1955
I528
ag1271
aa(lp1956
I529
ag1256
aa(lp1957
I530
ag1510
aaaa(lp1958
I532
aI535
aS'what'
p1959
a(lp1960
(lp1961
I532
ag1510
aa(lp1962
I533
ag1280
aa(lp1963
I534
ag1288
aa(lp1964
I535
ag1278
aaaa(lp1965
I537
aI539
aS'the'
p1966
a(lp1967
(lp1968
I537
ag1278
aa(lp1969
I538
ag1280
aa(lp1970
I539
ag1260
aaaa(lp1971
I541
aI547
ag402
a(lp1972
(lp1973
I541
ag1741
aa(lp1974
I542
ag1262
aa(lp1975
I543
ag1256
aa(lp1976
I544
ag1396
aa(lp1977
I545
ag1301
aa(lp1978
I546
ag1260
aa(lp1979
I547
ag1267
aaaa(lp1980
I549
aI550
aS'is'
p1981
a(lp1982
(lp1983
I549
ag1269
aa(lp1984
I550
ag1298
aaaa(lp1985
I554
aI554
ag33
a(lp1986
(lp1987
I554
ag33
aaaa(lp1988
I556
aI562
ag419
a(lp1989
(lp1990
I556
ag1278
aa(lp1991
I557
ag1280
aa(lp1992
I558
ag1260
aa(lp1993
I559
ag1262
aa(lp1994
I560
ag1260
aa(lp1995
I562
ag1298
aaaa(lp1996
I564
aI564
ag1288
a(lp1997
(lp1998
I564
ag1288
aaaa(lp1999
I566
aI569
ag428
a(lp2000
(lp2001
I566
ag1280
aa(lp2002
I567
ag1333
aa(lp2003
I568
ag1273
aa(lp2004
I569
ag1260
aaaa(lp2005
I571
aI583
ag437
a(lp2006
(lp2007
I571
ag1267
aa(lp2008
I572
ag1269
aa(lp2009
I573
ag1298
aa(lp2010
I574
ag1264
aa(lp2011
I575
ag1256
aa(lp2012
I576
ag1271
aa(lp2013
I577
ag1264
aa(lp2014
I578
ag1260
aa(lp2015
I579
ag1741
aa(lp2016
I580
ag1278
aa(lp2017
I581
ag1269
aa(lp2018
I582
ag1256
aa(lp2019
I583
ag1271
aaaa(lp2020
I585
aI586
aS'in'
p2021
a(lp2022
(lp2023
I585
ag1269
aa(lp2024
I586
ag1271
aaaa(lp2025
I588
aI593
ag446
a(lp2026
(lp2027
I588
ag1391
aa(lp2028
I589
ag1269
aa(lp2029
I590
ag1262
aa(lp2030
I591
ag1260
aa(lp2031
I592
ag1264
aa(lp2032
I593
ag1278
aaaa(lp2033
I595
aI599
ag455
a(lp2034
(lp2035
I595
ag1298
aa(lp2036
I596
ag1288
aa(lp2037
I597
ag1301
aa(lp2038
I598
ag1260
aa(lp2039
I599
ag1298
aaaa(lp2040
I601
aI605
aS'being'
p2041
a(lp2042
(lp2043
I601
ag1396
aa(lp2044
I602
ag1260
aa(lp2045
I603
ag1269
aa(lp2046
I604
ag1271
aa(lp2047
I605
ag1273
aaaa(lp2048
I607
aI610
aS'that'
p2049
a(lp2050
(lp2051
I607
ag1278
aa(lp2052
I608
ag1280
aa(lp2053
I609
ag1288
aa(lp2054
I610
ag1278
aaaa(lp2055
I612
aI614
aS'you'
p2056
a(lp2057
(lp2058
I612
ag1321
aa(lp2059
I613
ag1256
aa(lp2060
I614
ag1333
aaaa(lp2061
I616
aI620
ag464
a(lp2062
(lp2063
I616
ag1278
aa(lp2064
I617
ag1280
aa(lp2065
I618
ag1269
aa(lp2066
I619
ag1271
aa(lp2067
I620
ag1660
aaaa(lp2068
I622
aI627
ag473
a(lp2069
(lp2070
I622
ag1321
aa(lp2071
I623
ag1256
aa(lp2072
I624
ag1333
aa(lp2073
I626
ag1262
aa(lp2074
I627
ag1260
aaaa(lp2075
I630
aI637
ag482
a(lp2076
(lp2077
I630
ag1269
aa(lp2078
I631
ag1267
aa(lp2079
I632
ag1741
aa(lp2080
I633
ag1256
aa(lp2081
I634
ag1298
aa(lp2082
I635
ag1269
aa(lp2083
I636
ag1271
aa(lp2084
I637
ag1273
aaaa(lp2085
I640
aI641
aS'on'
p2086
a(lp2087
(lp2088
I640
ag1256
aa(lp2089
I641
ag1271
aaaa(lp2090
I643
aI646
aS'your'
p2091
a(lp2092
(lp2093
I643
ag1321
aa(lp2094
I644
ag1256
aa(lp2095
I645
ag1333
aa(lp2096
I646
ag1262
aaaa(lp2097
I648
aI654
ag491
a(lp2098
(lp2099
I648
ag1285
aa(lp2100
I649
ag1262
aa(lp2101
I650
ag1269
aa(lp2102
I651
ag1260
aa(lp2103
I652
ag1271
aa(lp2104
I653
ag1391
aa(lp2105
I654
ag1298
aaaa(lp2106
I657
aI662
ag500
a(lp2107
(lp2108
I657
ag1285
aa(lp2109
I658
ag1288
aa(lp2110
I659
ag1267
aa(lp2111
I660
ag1269
aa(lp2112
I661
ag1301
aa(lp2113
I662
ag1321
aaaa(lp2114
I664
aI665
aS'or'
p2115
a(lp2116
(lp2117
I664
ag1256
aa(lp2118
I665
ag1262
aaaa(lp2119
I667
aI670
aS'just'
p2120
a(lp2121
(lp2122
I667
ag1706
aa(lp2123
I668
ag1333
aa(lp2124
I669
ag1298
aa(lp2125
I670
ag1278
aaaa(lp2126
I672
aI672
ag1288
a(lp2127
(lp2128
I672
ag1288
aaaa(lp2129
I674
aI681
ag509
a(lp2130
(lp2131
I674
ag1264
aa(lp2132
I675
ag1333
aa(lp2133
I676
ag1298
aa(lp2134
I677
ag1278
aa(lp2135
I678
ag1256
aa(lp2136
I679
ag1267
aa(lp2137
I680
ag1260
aa(lp2138
I681
ag1262
aaaa(lp2139
I683
aI684
aS'in'
p2140
a(lp2141
(lp2142
I683
ag1269
aa(lp2143
I684
ag1271
aaaa(lp2144
I686
aI692
ag518
a(lp2145
(lp2146
I686
ag1273
aa(lp2147
I687
ag1260
aa(lp2148
I688
ag1271
aa(lp2149
I689
ag1260
aa(lp2150
I690
ag1262
aa(lp2151
I691
ag1288
aa(lp2152
I692
ag1301
aaaa(lp2153
I695
aI696
aS'as'
p2154
a(lp2155
(lp2156
I695
ag1288
aa(lp2157
I696
ag1298
aaaa(lp2158
I698
aI701
ag527
a(lp2159
(lp2160
I698
ag1301
aa(lp2161
I699
ag1256
aa(lp2162
I700
ag1271
aa(lp2163
I701
ag1273
aaaa(lp2164
I703
aI704
aS'as'
p2165
a(lp2166
(lp2167
I703
ag1288
aa(lp2168
I704
ag1298
aaaa(lp2169
I706
aI708
aS'you'
p2170
a(lp2171
(lp2172
I706
ag1321
aa(lp2173
I707
ag1256
aa(lp2174
I708
ag1333
aaaa(lp2175
I710
aI713
ag536
a(lp2176
(lp2177
I710
ag1285
aa(lp2178
I711
ag1260
aa(lp2179
I712
ag1260
aa(lp2180
I713
ag1301
aaaa(lp2181
I715
aI716
aS'as'
p2182
a(lp2183
(lp2184
I715
ag1288
aa(lp2185
I716
ag1298
aaaa(lp2186
I718
aI723
ag545
a(lp2187
(lp2188
I718
ag1278
aa(lp2189
I719
ag1280
aa(lp2190
I720
ag1256
aa(lp2191
I721
ag1333
aa(lp2192
I722
ag1273
aa(lp2193
I723
ag1280
aaaa(lp2194
I725
aI730
ag554
a(lp2195
(lp2196
I725
ag1321
aa(lp2197
I726
ag1256
aa(lp2198
I727
ag1333
aa(lp2199
I729
ag1262
aa(lp2200
I730
ag1260
aaaa(lp2201
I732
aI745
ag563
a(lp2202
(lp2203
I732
ag1269
aa(lp2204
I733
ag1267
aa(lp2205
I734
ag1741
aa(lp2206
I735
ag1256
aa(lp2207
I736
ag1298
aa(lp2208
I737
ag1269
aa(lp2209
I738
ag1271
aa(lp2210
I739
ag1273
aa(lp2211
I743
ag1321
aa(lp2212
I744
ag1256
aa(lp2213
I745
ag1333
aaaa(lp2214
I747
aI749
aS'are'
p2215
a(lp2216
(lp2217
I747
ag1288
aa(lp2218
I748
ag1262
aa(lp2219
I749
ag1260
aaaa(lp2220
I752
aI754
aS'you'
p2221
a(lp2222
(lp2223
I752
ag1321
aa(lp2224
I753
ag1256
aa(lp2225
I754
ag1333
aaaa(lp2226
I756
aI759
ag572
a(lp2227
(lp2228
I756
ag1271
aa(lp2229
I757
ag1260
aa(lp2230
I758
ag1260
aa(lp2231
I759
ag1391
aaaa(lp2232
I761
aI762
aS'to'
p2233
a(lp2234
(lp2235
I761
ag1278
aa(lp2236
I762
ag1256
aaaa(lp2237
I764
aI767
ag581
a(lp2238
(lp2239
I764
ag1301
aa(lp2240
I765
ag1256
aa(lp2241
I766
ag1258
aa(lp2242
I767
ag1260
aaaa(lp2243
I769
aI772
aS'your'
p2244
a(lp2245
(lp2246
I769
ag1321
aa(lp2247
I770
ag1256
aa(lp2248
I771
ag1333
aa(lp2249
I772
ag1262
aaaa(lp2250
I774
aI780
ag590
a(lp2251
(lp2252
I774
ag1741
aa(lp2253
I775
ag1262
aa(lp2254
I776
ag1256
aa(lp2255
I777
ag1391
aa(lp2256
I778
ag1333
aa(lp2257
I779
ag1264
aa(lp2258
I780
ag1278
aaaa(lp2259
I782
aI784
aS'and'
p2260
a(lp2261
(lp2262
I782
ag1288
aa(lp2263
I783
ag1271
aa(lp2264
I784
ag1391
aaaa(lp2265
I786
aI789
ag599
a(lp2266
(lp2267
I786
ag1285
aa(lp2268
I787
ag1260
aa(lp2269
I788
ag1260
aa(lp2270
I789
ag1301
aaaa(lp2271
I791
aI792
aS'as'
p2272
a(lp2273
(lp2274
I791
ag1288
aa(lp2275
I792
ag1298
aaaa(lp2276
I794
aI799
ag608
a(lp2277
(lp2278
I794
ag1278
aa(lp2279
I795
ag1280
aa(lp2280
I796
ag1256
aa(lp2281
I797
ag1333
aa(lp2282
I798
ag1273
aa(lp2283
I799
ag1280
aaaa(lp2284
I801
aI803
aS'you'
p2285
a(lp2286
(lp2287
I801
ag1321
aa(lp2288
I802
ag1256
aa(lp2289
I803
ag1333
aaaa(lp2290
I805
aI807
aS'are'
p2291
a(lp2292
(lp2293
I805
ag1288
aa(lp2294
I806
ag1262
aa(lp2295
I807
ag1260
aaaa(lp2296
I809
aI816
ag617
a(lp2297
(lp2298
I809
ag1256
aa(lp2299
I810
ag1285
aa(lp2300
I811
ag1285
aa(lp2301
I812
ag1260
aa(lp2302
I813
ag1262
aa(lp2303
I814
ag1269
aa(lp2304
I815
ag1271
aa(lp2305
I816
ag1273
aaaa(lp2306
I818
aI818
ag1288
a(lp2307
(lp2308
I818
ag1288
aaaa(lp2309
I820
aI826
ag626
a(lp2310
(lp2311
I820
ag1298
aa(lp2312
I821
ag1260
aa(lp2313
I822
ag1262
aa(lp2314
I823
ag1258
aa(lp2315
I824
ag1269
aa(lp2316
I825
ag1264
aa(lp2317
I826
ag1260
aaaa(lp2318
I829
aI834
ag635
a(lp2319
(lp2320
I829
ag1321
aa(lp2321
I830
ag1256
aa(lp2322
I831
ag1333
aa(lp2323
I833
ag1262
aa(lp2324
I834
ag1260
aaaa(lp2325
I836
aI842
ag644
a(lp2326
(lp2327
I836
ag1285
aa(lp2328
I837
ag1269
aa(lp2329
I838
ag1301
aa(lp2330
I839
ag1301
aa(lp2331
I840
ag1269
aa(lp2332
I841
ag1271
aa(lp2333
I842
ag1273
aaaa(lp2334
I844
aI844
ag1288
a(lp2335
(lp2336
I844
ag1288
aaaa(lp2337
I846
aI849
ag653
a(lp2338
(lp2339
I846
ag1271
aa(lp2340
I847
ag1260
aa(lp2341
I848
ag1260
aa(lp2342
I849
ag1391
aaaa(lp2343
I853
aI853
ag33
a(lp2344
(lp2345
I853
ag33
aaaa(lp2346
I855
aI860
ag670
a(lp2347
(lp2348
I855
ag1741
aa(lp2349
I856
ag1260
aa(lp2350
I857
ag1256
aa(lp2351
I858
ag1741
aa(lp2352
I859
ag1301
aa(lp2353
I860
ag1260
aaaa(lp2354
I862
aI864
aS'are'
p2355
a(lp2356
(lp2357
I862
ag1288
aa(lp2358
I863
ag1262
aa(lp2359
I864
ag1260
aaaa(lp2360
I866
aI877
ag679
a(lp2361
(lp2362
I866
ag1271
aa(lp2363
I867
ag1288
aa(lp2364
I868
ag1278
aa(lp2365
I869
ag1333
aa(lp2366
I870
ag1262
aa(lp2367
I871
ag1288
aa(lp2368
I872
ag1301
aa(lp2369
I874
ag1396
aa(lp2370
I875
ag1256
aa(lp2371
I876
ag1262
aa(lp2372
I877
ag1271
aaaa(lp2373
I879
aI885
ag688
a(lp2374
(lp2375
I879
ag1298
aa(lp2376
I880
ag1260
aa(lp2377
I881
ag1301
aa(lp2378
I882
ag1301
aa(lp2379
I883
ag1260
aa(lp2380
I884
ag1262
aa(lp2381
I885
ag1298
aaaa(lp2382
I888
aI889
aS'we'
p2383
a(lp2384
(lp2385
I888
ag1510
aa(lp2386
I889
ag1260
aaaa(lp2387
I891
aI894
aS'just'
p2388
a(lp2389
(lp2390
I891
ag1706
aa(lp2391
I892
ag1333
aa(lp2392
I893
ag1298
aa(lp2393
I894
ag1278
aaaa(lp2394
I896
aI900
ag697
a(lp2395
(lp2396
I896
ag1391
aa(lp2397
I897
ag1256
aa(lp2398
I898
ag1271
aa(lp2399
I900
ag1278
aaaa(lp2400
I902
aI908
ag706
a(lp2401
(lp2402
I902
ag1262
aa(lp2403
I903
ag1260
aa(lp2404
I904
ag1288
aa(lp2405
I905
ag1301
aa(lp2406
I906
ag1269
aa(lp2407
I907
aS'z'
p2408
aa(lp2409
I908
ag1260
aaaa(lp2410
I910
aI911
aS'it'
p2411
a(lp2412
(lp2413
I910
ag1269
aa(lp2414
I911
ag1278
aaaa(lp2415
I913
aI916
aS'when'
p2416
a(lp2417
(lp2418
I913
ag1510
aa(lp2419
I914
ag1280
aa(lp2420
I915
ag1260
aa(lp2421
I916
ag1271
aaaa(lp2422
I918
aI922
aS'were'
p2423
a(lp2424
(lp2425
I918
ag1510
aa(lp2426
I919
ag1260
aa(lp2427
I921
ag1262
aa(lp2428
I922
ag1260
aaaa(lp2429
I924
aI926
aS'not'
p2430
a(lp2431
(lp2432
I924
ag1271
aa(lp2433
I925
ag1256
aa(lp2434
I926
ag1278
aaaa(lp2435
I928
aI933
ag715
a(lp2436
(lp2437
I928
ag1267
aa(lp2438
I929
ag1288
aa(lp2439
I930
ag1660
aa(lp2440
I931
ag1269
aa(lp2441
I932
ag1271
aa(lp2442
I933
ag1273
aaaa(lp2443
I935
aI939
ag724
a(lp2444
(lp2445
I935
ag1267
aa(lp2446
I936
ag1256
aa(lp2447
I937
ag1271
aa(lp2448
I938
ag1260
aa(lp2449
I939
ag1321
aaaa(lp2450
I941
aI944
aS'from'
p2451
a(lp2452
(lp2453
I941
ag1285
aa(lp2454
I942
ag1262
aa(lp2455
I943
ag1256
aa(lp2456
I944
ag1267
aaaa(lp2457
I946
aI947
aS'it'
p2458
a(lp2459
(lp2460
I946
ag1269
aa(lp2461
I947
ag1278
aaaa(lp2462
I950
aI954
ag733
a(lp2463
(lp2464
I950
ag1301
aa(lp2465
I951
ag1260
aa(lp2466
I952
ag1278
aa(lp2467
I954
ag1298
aaaa(lp2468
I956
aI958
ag742
a(lp2469
(lp2470
I956
ag1298
aa(lp2471
I957
ag1288
aa(lp2472
I958
ag1321
aaaa(lp2473
I960
aI962
aS'you'
p2474
a(lp2475
(lp2476
I960
ag1321
aa(lp2477
I961
ag1256
aa(lp2478
I962
ag1333
aaaa(lp2479
I964
aI965
ag751
a(lp2480
(lp2481
I964
ag1273
aa(lp2482
I965
ag1256
aaaa(lp2483
I967
aI968
aS'to'
p2484
a(lp2485
(lp2486
I967
ag1278
aa(lp2487
I968
ag1256
aaaa(lp2488
I970
aI970
ag1288
a(lp2489
(lp2490
I970
ag1288
aaaa(lp2491
I972
aI976
ag760
a(lp2492
(lp2493
I972
ag1267
aa(lp2494
I973
ag1256
aa(lp2495
I974
ag1258
aa(lp2496
I975
ag1269
aa(lp2497
I976
ag1260
aaaa(lp2498
I978
aI981
aS'that'
p2499
a(lp2500
(lp2501
I978
ag1278
aa(lp2502
I979
ag1280
aa(lp2503
I980
ag1288
aa(lp2504
I981
ag1278
aaaa(lp2505
I983
aI985
aS'you'
p2506
a(lp2507
(lp2508
I983
ag1321
aa(lp2509
I984
ag1256
aa(lp2510
I985
ag1333
aaaa(lp2511
I987
aI991
ag769
a(lp2512
(lp2513
I987
ag1301
aa(lp2514
I988
ag1256
aa(lp2515
I989
ag1258
aa(lp2516
I990
ag1260
aa(lp2517
I991
ag1391
aaaa(lp2518
I993
aI995
aS'and'
p2519
a(lp2520
(lp2521
I993
ag1288
aa(lp2522
I994
ag1271
aa(lp2523
I995
ag1391
aaaa(lp2524
I997
aI999
aS'you'
p2525
a(lp2526
(lp2527
I997
ag1321
aa(lp2528
I998
ag1256
aa(lp2529
I999
ag1333
aaaa(lp2530
I1001
aI1004
aS'have'
p2531
a(lp2532
(lp2533
I1001
ag1280
aa(lp2534
I1002
ag1288
aa(lp2535
I1003
ag1258
aa(lp2536
I1004
ag1260
aaaa(lp2537
I1006
aI1006
ag1288
a(lp2538
(lp2539
I1006
ag1288
aaaa(lp2540
I1008
aI1013
ag778
a(lp2541
(lp2542
I1008
ag1285
aa(lp2543
I1009
ag1262
aa(lp2544
I1010
ag1269
aa(lp2545
I1011
ag1260
aa(lp2546
I1012
ag1271
aa(lp2547
I1013
ag1391
aaaa(lp2548
I1015
aI1018
aS'that'
p2549
a(lp2550
(lp2551
I1015
ag1278
aa(lp2552
I1016
ag1280
aa(lp2553
I1017
ag1288
aa(lp2554
I1018
ag1278
aaaa(lp2555
I1020
aI1022
aS'you'
p2556
a(lp2557
(lp2558
I1020
ag1321
aa(lp2559
I1021
ag1256
aa(lp2560
I1022
ag1333
aaaa(lp2561
I1024
aI1027
ag787
a(lp2562
(lp2563
I1024
ag1660
aa(lp2564
I1025
ag1271
aa(lp2565
I1026
ag1256
aa(lp2566
I1027
ag1510
aaaa(lp2567
I1029
aI1033
ag796
a(lp2568
(lp2569
I1029
ag1510
aa(lp2570
I1030
ag1256
aa(lp2571
I1031
ag1333
aa(lp2572
I1032
ag1301
aa(lp2573
I1033
ag1391
aaaa(lp2574
I1035
aI1039
ag805
a(lp2575
(lp2576
I1035
ag1260
aa(lp2577
I1036
ag1271
aa(lp2578
I1037
ag1706
aa(lp2579
I1038
ag1256
aa(lp2580
I1039
ag1321
aaaa(lp2581
I1041
aI1042
aS'it'
p2582
a(lp2583
(lp2584
I1041
ag1269
aa(lp2585
I1042
ag1278
aaaa(lp2586
I1044
aI1046
aS'too'
p2587
a(lp2588
(lp2589
I1044
ag1278
aa(lp2590
I1045
ag1256
aa(lp2591
I1046
ag1256
aaaa(lp2592
I1049
aI1056
ag814
a(lp2593
(lp2594
I1049
ag1510
aa(lp2595
I1050
ag1256
aa(lp2596
I1051
ag1333
aa(lp2597
I1052
ag1301
aa(lp2598
I1053
ag1391
aa(lp2599
I1054
ag1271
aa(lp2600
I1056
ag1278
aaaa(lp2601
I1058
aI1060
aS'you'
p2602
a(lp2603
(lp2604
I1058
ag1321
aa(lp2605
I1059
ag1256
aa(lp2606
I1060
ag1333
aaaa(lp2607
I1062
aI1070
ag823
a(lp2608
(lp2609
I1062
ag1262
aa(lp2610
I1063
ag1260
aa(lp2611
I1064
ag1264
aa(lp2612
I1065
ag1256
aa(lp2613
I1066
ag1267
aa(lp2614
I1067
ag1267
aa(lp2615
I1068
ag1260
aa(lp2616
I1069
ag1271
aa(lp2617
I1070
ag1391
aaaa(lp2618
I1072
aI1073
aS'it'
p2619
a(lp2620
(lp2621
I1072
ag1269
aa(lp2622
I1073
ag1278
aaaa(lp2623
I1075
aI1076
aS'to'
p2624
a(lp2625
(lp2626
I1075
ag1278
aa(lp2627
I1076
ag1256
aaaa(lp2628
I1078
aI1084
ag832
a(lp2629
(lp2630
I1078
ag1280
aa(lp2631
I1079
ag1269
aa(lp2632
I1080
ag1267
aa(lp2633
I1082
ag1280
aa(lp2634
I1083
ag1260
aa(lp2635
I1084
ag1262
aaaa(lp2636
I1088
aI1088
ag33
a(lp2637
(lp2638
I1088
ag33
aaaa(lp2639
I1090
aI1091
aS'so'
p2640
a(lp2641
(lp2642
I1090
ag1298
aa(lp2643
I1091
ag1256
aaaa(lp2644
I1093
aI1095
aS'why'
p2645
a(lp2646
(lp2647
I1093
ag1510
aa(lp2648
I1094
ag1280
aa(lp2649
I1095
ag1321
aaaa(lp2650
I1097
aI1098
aS'is'
p2651
a(lp2652
(lp2653
I1097
ag1269
aa(lp2654
I1098
ag1298
aaaa(lp2655
I1100
aI1101
aS'it'
p2656
a(lp2657
(lp2658
I1100
ag1269
aa(lp2659
I1101
ag1278
aaaa(lp2660
I1103
aI1106
aS'that'
p2661
a(lp2662
(lp2663
I1103
ag1278
aa(lp2664
I1104
ag1280
aa(lp2665
I1105
ag1288
aa(lp2666
I1106
ag1278
aaaa(lp2667
I1108
aI1109
aS'as'
p2668
a(lp2669
(lp2670
I1108
ag1288
aa(lp2671
I1109
ag1298
aaaa(lp2672
I1111
aI1114
ag849
a(lp2673
(lp2674
I1111
ag1298
aa(lp2675
I1112
ag1256
aa(lp2676
I1113
ag1256
aa(lp2677
I1114
ag1271
aaaa(lp2678
I1116
aI1117
aS'as'
p2679
a(lp2680
(lp2681
I1116
ag1288
aa(lp2682
I1117
ag1298
aaaa(lp2683
I1119
aI1120
aS'we'
p2684
a(lp2685
(lp2686
I1119
ag1510
aa(lp2687
I1120
ag1260
aaaa(lp2688
I1122
aI1123
ag858
a(lp2689
(lp2690
I1122
ag1273
aa(lp2691
I1123
ag1256
aaaa(lp2692
I1125
aI1128
aS'into'
p2693
a(lp2694
(lp2695
I1125
ag1269
aa(lp2696
I1126
ag1271
aa(lp2697
I1127
ag1278
aa(lp2698
I1128
ag1256
aaaa(lp2699
I1130
aI1134
ag867
a(lp2700
(lp2701
I1130
ag1298
aa(lp2702
I1131
ag1288
aa(lp2703
I1132
ag1301
aa(lp2704
I1133
ag1260
aa(lp2705
I1134
ag1298
aaaa(lp2706
I1136
aI1137
aS'we'
p2707
a(lp2708
(lp2709
I1136
ag1510
aa(lp2710
I1137
ag1260
aaaa(lp2711
I1139
aI1151
ag876
a(lp2712
(lp2713
I1139
ag1288
aa(lp2714
I1140
ag1333
aa(lp2715
I1141
ag1278
aa(lp2716
I1142
ag1256
aa(lp2717
I1143
ag1267
aa(lp2718
I1144
ag1288
aa(lp2719
I1145
ag1278
aa(lp2720
I1146
ag1269
aa(lp2721
I1147
ag1264
aa(lp2722
I1148
ag1288
aa(lp2723
I1149
ag1301
aa(lp2724
I1150
ag1301
aa(lp2725
I1151
ag1321
aaaa(lp2726
I1153
aI1156
ag885
a(lp2727
(lp2728
I1153
ag1285
aa(lp2729
I1154
ag1260
aa(lp2730
I1155
ag1260
aa(lp2731
I1156
ag1301
aaaa(lp2732
I1158
aI1159
aS'as'
p2733
a(lp2734
(lp2735
I1158
ag1288
aa(lp2736
I1159
ag1298
aaaa(lp2737
I1161
aI1166
ag894
a(lp2738
(lp2739
I1161
ag1278
aa(lp2740
I1162
ag1280
aa(lp2741
I1163
ag1256
aa(lp2742
I1164
ag1333
aa(lp2743
I1165
ag1273
aa(lp2744
I1166
ag1280
aaaa(lp2745
I1168
aI1169
aS'we'
p2746
a(lp2747
(lp2748
I1168
ag1510
aa(lp2749
I1169
ag1260
aaaa(lp2750
I1171
aI1173
aS'can'
p2751
a(lp2752
(lp2753
I1171
ag1264
aa(lp2754
I1172
ag1288
aa(lp2755
I1173
ag1271
aaaa(lp2756
I1175
aI1183
ag903
a(lp2757
(lp2758
I1175
ag1262
aa(lp2759
I1176
ag1260
aa(lp2760
I1177
ag1264
aa(lp2761
I1178
ag1256
aa(lp2762
I1179
ag1267
aa(lp2763
I1180
ag1267
aa(lp2764
I1181
ag1260
aa(lp2765
I1182
ag1271
aa(lp2766
I1183
ag1391
aaaa(lp2767
I1185
aI1187
aS'the'
p2768
a(lp2769
(lp2770
I1185
ag1278
aa(lp2771
I1186
ag1280
aa(lp2772
I1187
ag1260
aaaa(lp2773
I1189
aI1196
ag912
a(lp2774
(lp2775
I1189
ag1741
aa(lp2776
I1190
ag1262
aa(lp2777
I1191
ag1256
aa(lp2778
I1192
ag1391
aa(lp2779
I1193
ag1333
aa(lp2780
I1194
ag1264
aa(lp2781
I1195
ag1278
aa(lp2782
I1196
ag1298
aaaa(lp2783
I1198
aI1199
aS'we'
p2784
a(lp2785
(lp2786
I1198
ag1510
aa(lp2787
I1199
ag1260
aaaa(lp2788
I1201
aI1204
ag921
a(lp2789
(lp2790
I1201
ag1298
aa(lp2791
I1202
ag1260
aa(lp2792
I1203
ag1301
aa(lp2793
I1204
ag1301
aaaa(lp2794
I1207
aI1209
aS'why'
p2795
a(lp2796
(lp2797
I1207
ag1510
aa(lp2798
I1208
ag1280
aa(lp2799
I1209
ag1321
aaaa(lp2800
I1211
aI1212
aS'is'
p2801
a(lp2802
(lp2803
I1211
ag1269
aa(lp2804
I1212
ag1298
aaaa(lp2805
I1214
aI1215
aS'it'
p2806
a(lp2807
(lp2808
I1214
ag1269
aa(lp2809
I1215
ag1278
aaaa(lp2810
I1217
aI1220
aS'that'
p2811
a(lp2812
(lp2813
I1217
ag1278
aa(lp2814
I1218
ag1280
aa(lp2815
I1219
ag1288
aa(lp2816
I1220
ag1278
aaaa(lp2817
I1222
aI1223
aS'we'
p2818
a(lp2819
(lp2820
I1222
ag1510
aa(lp2821
I1223
ag1260
aaaa(lp2822
I1225
aI1228
ag930
a(lp2823
(lp2824
I1225
ag1278
aa(lp2825
I1226
ag1260
aa(lp2826
I1227
ag1271
aa(lp2827
I1228
ag1391
aaaa(lp2828
I1230
aI1231
aS'to'
p2829
a(lp2830
(lp2831
I1230
ag1278
aa(lp2832
I1231
ag1256
aaaa(lp2833
I1233
aI1236
ag939
a(lp2834
(lp2835
I1233
ag1285
aa(lp2836
I1234
ag1260
aa(lp2837
I1235
ag1260
aa(lp2838
I1236
ag1301
aaaa(lp2839
I1238
aI1243
ag948
a(lp2840
(lp2841
I1238
ag1273
aa(lp2842
I1239
ag1333
aa(lp2843
I1240
ag1269
aa(lp2844
I1241
ag1301
aa(lp2845
I1242
ag1278
aa(lp2846
I1243
ag1321
aaaa(lp2847
I1245
aI1251
aS'because'
p2848
a(lp2849
(lp2850
I1245
ag1396
aa(lp2851
I1246
ag1260
aa(lp2852
I1247
ag1264
aa(lp2853
I1248
ag1288
aa(lp2854
I1249
ag1333
aa(lp2855
I1250
ag1298
aa(lp2856
I1251
ag1260
aaaa(lp2857
I1253
aI1255
ag957
a(lp2858
(lp2859
I1253
ag1510
aa(lp2860
I1254
ag1260
aa(lp2861
I1255
ag1260
aaaa(lp2862
I1257
aI1261
ag966
a(lp2863
(lp2864
I1257
ag1273
aa(lp2865
I1258
ag1256
aa(lp2866
I1259
ag1269
aa(lp2867
I1260
ag1271
aa(lp2868
I1261
ag1273
aaaa(lp2869
I1263
aI1264
aS'to'
p2870
a(lp2871
(lp2872
I1263
ag1278
aa(lp2873
I1264
ag1256
aaaa(lp2874
I1266
aI1269
ag975
a(lp2875
(lp2876
I1266
ag1267
aa(lp2877
I1267
ag1288
aa(lp2878
I1268
ag1660
aa(lp2879
I1269
ag1260
aaaa(lp2880
I1271
aI1271
ag1288
a(lp2881
(lp2882
I1271
ag1288
aaaa(lp2883
I1273
aI1278
ag984
a(lp2884
(lp2885
I1273
ag1741
aa(lp2886
I1274
ag1262
aa(lp2887
I1275
ag1256
aa(lp2888
I1276
ag1285
aa(lp2889
I1277
ag1269
aa(lp2890
I1278
ag1278
aaaa(lp2891
I1280
aI1282
aS'off'
p2892
a(lp2893
(lp2894
I1280
ag1256
aa(lp2895
I1281
ag1285
aa(lp2896
I1282
ag1285
aaaa(lp2897
I1284
aI1285
aS'of'
p2898
a(lp2899
(lp2900
I1284
ag1256
aa(lp2901
I1285
ag1285
aaaa(lp2902
I1287
aI1288
aS'it'
p2903
a(lp2904
(lp2905
I1287
ag1269
aa(lp2906
I1288
ag1278
aaaa(lp2907
I1292
aI1292
ag33
a(lp2908
(lp2909
I1292
ag33
aaaa(lp2910
I1294
aI1295
aS'if'
p2911
a(lp2912
(lp2913
I1294
ag1269
aa(lp2914
I1295
ag1285
aaaa(lp2915
I1297
aI1299
aS'you'
p2916
a(lp2917
(lp2918
I1297
ag1321
aa(lp2919
I1298
ag1256
aa(lp2920
I1299
ag1333
aaaa(lp2921
I1301
aI1303
aS'are'
p2922
a(lp2923
(lp2924
I1301
ag1288
aa(lp2925
I1302
ag1262
aa(lp2926
I1303
ag1260
aaaa(lp2927
I1305
aI1307
ag1001
a(lp2928
(lp2929
I1305
ag1256
aa(lp2930
I1306
ag1271
aa(lp2931
I1307
ag1260
aaaa(lp2932
I1309
aI1312
aS'that'
p2933
a(lp2934
(lp2935
I1309
ag1278
aa(lp2936
I1310
ag1280
aa(lp2937
I1311
ag1288
aa(lp2938
I1312
ag1278
aaaa(lp2939
I1314
aI1316
aS'has'
p2940
a(lp2941
(lp2942
I1314
ag1280
aa(lp2943
I1315
ag1288
aa(lp2944
I1316
ag1298
aaaa(lp2945
I1318
aI1318
ag1288
a(lp2946
(lp2947
I1318
ag1288
aaaa(lp2948
I1320
aI1323
ag1010
a(lp2949
(lp2950
I1320
ag1285
aa(lp2951
I1321
ag1260
aa(lp2952
I1322
ag1288
aa(lp2953
I1323
ag1262
aaaa(lp2954
I1325
aI1326
aS'of'
p2955
a(lp2956
(lp2957
I1325
ag1256
aa(lp2958
I1326
ag1285
aaaa(lp2959
I1328
aI1334
ag1019
a(lp2960
(lp2961
I1328
ag1298
aa(lp2962
I1329
ag1260
aa(lp2963
I1330
ag1301
aa(lp2964
I1331
ag1301
aa(lp2965
I1332
ag1269
aa(lp2966
I1333
ag1271
aa(lp2967
I1334
ag1273
aaaa(lp2968
I1337
aI1340
ag1028
a(lp2969
(lp2970
I1337
ag1278
aa(lp2971
I1338
ag1288
aa(lp2972
I1339
ag1660
aa(lp2973
I1340
ag1260
aaaa(lp2974
I1342
aI1345
aS'some'
p2975
a(lp2976
(lp2977
I1342
ag1298
aa(lp2978
I1343
ag1256
aa(lp2979
I1344
ag1267
aa(lp2980
I1345
ag1260
aaaa(lp2981
I1347
aI1350
ag1037
a(lp2982
(lp2983
I1347
ag1278
aa(lp2984
I1348
ag1269
aa(lp2985
I1349
ag1267
aa(lp2986
I1350
ag1260
aaaa(lp2987
I1352
aI1356
ag1046
a(lp2988
(lp2989
I1352
ag1278
aa(lp2990
I1353
ag1256
aa(lp2991
I1354
ag1391
aa(lp2992
I1355
ag1288
aa(lp2993
I1356
ag1321
aaaa(lp2994
I1358
aI1359
aS'to'
p2995
a(lp2996
(lp2997
I1358
ag1278
aa(lp2998
I1359
ag1256
aaaa(lp2999
I1361
aI1366
ag1055
a(lp3000
(lp3001
I1361
ag1285
aa(lp3002
I1362
ag1269
aa(lp3003
I1363
ag1273
aa(lp3004
I1364
ag1333
aa(lp3005
I1365
ag1262
aa(lp3006
I1366
ag1260
aaaa(lp3007
I1368
aI1370
aS'out'
p3008
a(lp3009
(lp3010
I1368
ag1256
aa(lp3011
I1369
ag1333
aa(lp3012
I1370
ag1278
aaaa(lp3013
I1372
aI1374
aS'the'
p3014
a(lp3015
(lp3016
I1372
ag1278
aa(lp3017
I1373
ag1280
aa(lp3018
I1374
ag1260
aaaa(lp3019
I1376
aI1380
ag1064
a(lp3020
(lp3021
I1376
ag1264
aa(lp3022
I1377
ag1288
aa(lp3023
I1378
ag1333
aa(lp3024
I1379
ag1298
aa(lp3025
I1380
ag1260
aaaa(lp3026
I1382
aI1383
aS'of'
p3027
a(lp3028
(lp3029
I1382
ag1256
aa(lp3030
I1383
ag1285
aaaa(lp3031
I1385
aI1388
aS'your'
p3032
a(lp3033
(lp3034
I1385
ag1321
aa(lp3035
I1386
ag1256
aa(lp3036
I1387
ag1333
aa(lp3037
I1388
ag1262
aaaa(lp3038
I1390
aI1393
ag1073
a(lp3039
(lp3040
I1390
ag1285
aa(lp3041
I1391
ag1260
aa(lp3042
I1392
ag1288
aa(lp3043
I1393
ag1262
aaaa(lp3044
I1396
aI1398
aS'and'
p3045
a(lp3046
(lp3047
I1396
ag1288
aa(lp3048
I1397
ag1271
aa(lp3049
I1398
ag1391
aaaa(lp3050
I1400
aI1403
ag1082
a(lp3051
(lp3052
I1400
ag1278
aa(lp3053
I1401
ag1288
aa(lp3054
I1402
ag1660
aa(lp3055
I1403
ag1260
aaaa(lp3056
I1405
aI1410
ag1091
a(lp3057
(lp3058
I1405
ag1288
aa(lp3059
I1406
ag1264
aa(lp3060
I1407
ag1278
aa(lp3061
I1408
ag1269
aa(lp3062
I1409
ag1256
aa(lp3063
I1410
ag1271
aaaa(lp3064
I1412
aI1413
aS'to'
p3065
a(lp3066
(lp3067
I1412
ag1278
aa(lp3068
I1413
ag1256
aaaa(lp3069
I1415
aI1417
ag1100
a(lp3070
(lp3071
I1415
ag1285
aa(lp3072
I1416
ag1269
aa(lp3073
I1417
ag1500
aaaa(lp3074
I1419
aI1420
aS'it'
p3075
a(lp3076
(lp3077
I1419
ag1269
aa(lp3078
I1420
ag1278
aaaa(lp3079
I1424
aI1424
ag33
a(lp3080
(lp3081
I1424
ag33
aaaa(lp3082
I1434
aI1438
aS'about'
p3083
a(lp3084
(lp3085
I1434
ag1288
aa(lp3086
I1435
ag1396
aa(lp3087
I1436
ag1256
aa(lp3088
I1437
ag1333
aa(lp3089
I1438
ag1278
aaaa(lp3090
I1440
aI1442
aS'the'
p3091
a(lp3092
(lp3093
I1440
ag1278
aa(lp3094
I1441
ag1280
aa(lp3095
I1442
ag1260
aaaa(lp3096
I1444
aI1450
ag1117
a(lp3097
(lp3098
I1444
ag1288
aa(lp3099
I1445
ag1333
aa(lp3100
I1446
ag1278
aa(lp3101
I1447
ag1280
aa(lp3102
I1448
ag1256
aa(lp3103
I1449
ag1262
aa(lp3104
I1450
ag1298
aaaa(lp3105
I1453
aI1456
ag1126
a(lp3106
(lp3107
I1453
ag1660
aa(lp3108
I1454
ag1288
aa(lp3109
I1455
ag1262
aa(lp3110
I1456
ag1288
aaaa(lp3111
I1458
aI1462
ag1135
a(lp3112
(lp3113
I1458
ag1660
aa(lp3114
I1459
ag1260
aa(lp3115
I1460
ag1301
aa(lp3116
I1461
ag1298
aa(lp3117
I1462
ag1256
aaaa(lp3118
I1466
aI1470
ag1144
a(lp3119
(lp3120
I1466
ag1288
aa(lp3121
I1467
ag1271
aa(lp3122
I1468
ag1269
aa(lp3123
I1469
ag1278
aa(lp3124
I1470
ag1288
aaaa(lp3125
I1472
aI1478
ag1153
a(lp3126
(lp3127
I1472
ag1391
aa(lp3128
I1473
ag1260
aa(lp3129
I1474
ag1285
aa(lp3130
I1475
ag1262
aa(lp3131
I1476
ag1288
aa(lp3132
I1477
ag1271
aa(lp3133
I1478
ag1660
aaaa(lp3134
I1480
aI1482
aS'are'
p3135
a(lp3136
(lp3137
I1480
ag1288
aa(lp3138
I1481
ag1262
aa(lp3139
I1482
ag1260
aaaa(lp3140
I1484
aI1486
ag1162
a(lp3141
(lp3142
I1484
ag1278
aa(lp3143
I1485
ag1510
aa(lp3144
I1486
ag1256
aaaa(lp3145
I1488
aI1491
ag1171
a(lp3146
(lp3147
I1488
ag1396
aa(lp3148
I1489
ag1333
aa(lp3149
I1490
ag1298
aa(lp3150
I1491
ag1321
aaaa(lp3151
I1493
aI1497
ag1180
a(lp3152
(lp3153
I1493
ag1510
aa(lp3154
I1494
ag1288
aa(lp3155
I1495
ag1280
aa(lp3156
I1496
ag1267
aa(lp3157
I1497
ag1298
aaaa(lp3158
I1500
aI1502
aS'and'
p3159
a(lp3160
(lp3161
I1500
ag1288
aa(lp3162
I1501
ag1271
aa(lp3163
I1502
ag1391
aaaa(lp3164
I1504
aI1506
aS'the'
p3165
a(lp3166
(lp3167
I1504
ag1278
aa(lp3168
I1505
ag1280
aa(lp3169
I1506
ag1260
aaaa(lp3170
I1508
aI1513
ag1189
a(lp3171
(lp3172
I1508
ag1256
aa(lp3173
I1509
ag1510
aa(lp3174
I1510
ag1271
aa(lp3175
I1511
ag1260
aa(lp3176
I1512
ag1262
aa(lp3177
I1513
ag1298
aaaa(lp3178
I1515
aI1516
aS'of'
p3179
a(lp3180
(lp3181
I1515
ag1256
aa(lp3182
I1516
ag1285
aaaa(lp3183
I1518
aI1523
ag1198
a(lp3184
(lp3185
I1518
ag1391
aa(lp3186
I1519
ag1269
aa(lp3187
I1520
ag1262
aa(lp3188
I1521
ag1260
aa(lp3189
I1522
ag1264
aa(lp3190
I1523
ag1278
aaaa(lp3191
I1525
aI1529
ag1207
a(lp3192
(lp3193
I1525
ag1298
aa(lp3194
I1526
ag1288
aa(lp3195
I1527
ag1301
aa(lp3196
I1528
ag1260
aa(lp3197
I1529
ag1298
aaaa(lp3198
I1531
aI1537
ag1216
a(lp3199
(lp3200
I1531
ag1280
aa(lp3201
I1532
ag1260
aa(lp3202
I1533
ag1301
aa(lp3203
I1534
ag1741
aa(lp3204
I1535
ag1260
aa(lp3205
I1536
ag1262
aa(lp3206
I1537
ag1298
aaaa(lp3207
I1540
aI1544
ag1225
a(lp3208
(lp3209
I1540
ag1301
aa(lp3210
I1541
ag1260
aa(lp3211
I1542
ag1288
aa(lp3212
I1543
ag1262
aa(lp3213
I1544
ag1271
aaaa(lp3214
I1546
aI1548
aS'how'
p3215
a(lp3216
(lp3217
I1546
ag1280
aa(lp3218
I1547
ag1256
aa(lp3219
I1548
ag1510
aaaa(lp3220
I1550
aI1552
aS'you'
p3221
a(lp3222
(lp3223
I1550
ag1321
aa(lp3224
I1551
ag1256
aa(lp3225
I1552
ag1333
aaaa(lp3226
I1554
aI1556
aS'can'
p3227
a(lp3228
(lp3229
I1554
ag1264
aa(lp3230
I1555
ag1288
aa(lp3231
I1556
ag1271
aaaa(lp3232
I1558
aI1559
aS'be'
p3233
a(lp3234
(lp3235
I1558
ag1396
aa(lp3236
I1559
ag1260
aaaa(lp3237
I1561
aI1570
ag1234
a(lp3238
(lp3239
I1561
ag1298
aa(lp3240
I1562
ag1333
aa(lp3241
I1563
ag1264
aa(lp3242
I1564
ag1264
aa(lp3243
I1565
ag1260
aa(lp3244
I1566
ag1298
aa(lp3245
I1567
ag1298
aa(lp3246
I1568
ag1285
aa(lp3247
I1569
ag1333
aa(lp3248
I1570
ag1301
aaaa(lp3249
I1572
aI1573
aS'in'
p3250
a(lp3251
(lp3252
I1572
ag1269
aa(lp3253
I1573
ag1271
aaaa(lp3254
I1575
aI1578
aS'your'
p3255
a(lp3256
(lp3257
I1575
ag1321
aa(lp3258
I1576
ag1256
aa(lp3259
I1577
ag1333
aa(lp3260
I1578
ag1262
aaaa(lp3261
I1580
aI1586
ag1243
a(lp3262
(lp3263
I1580
ag1264
aa(lp3264
I1581
ag1256
aa(lp3265
I1582
ag1267
aa(lp3266
I1583
ag1741
aa(lp3267
I1584
ag1288
aa(lp3268
I1585
ag1271
aa(lp3269
I1586
ag1321
aaaa(lp3270
I1588
aI1589
aS'by'
p3271
a(lp3272
(lp3273
I1588
ag1396
aa(lp3274
I1589
ag1321
aaaasS'cleanCharacterMap'
p3275
(lp3276
g1255
ag1257
ag1259
ag1261
ag1263
ag1265
ag1266
ag1268
ag1270
ag1272
a(lp3277
I10
aS' '
p3278
aag1277
ag1279
ag1281
a(lp3279
I14
ag3278
aag1284
ag1286
ag1287
ag1289
a(lp3280
I19
ag3278
aag1293
ag1294
a(lp3281
I22
ag3278
aag1297
ag1299
ag1300
ag1302
ag1303
ag1304
ag1305
a(lp3282
I30
ag3278
aag1308
a(lp3283
I33
ag3278
aag1312
ag1313
ag1314
a(lp3284
I37
ag3278
aag1317
ag1318
ag1319
ag1320
a(lp3285
I42
ag3278
aag1325
ag1326
a(lp3286
I45
ag3278
aag1330
ag1331
ag1332
a(lp3287
I49
ag3278
aag1337
ag1338
ag1339
a(lp3288
I53
ag3278
aag1342
ag1343
ag1344
ag1345
a(lp3289
I58
ag3278
aag1349
ag1350
a(lp3290
I61
ag3278
aag1353
ag1354
ag1355
ag1356
ag1357
ag1358
ag1359
a(lp3291
I69
ag3278
aag1363
ag1364
a(lp3292
I72
ag3278
aag1367
a(lp3293
I74
ag3278
aag1370
ag1371
ag1372
ag1373
a(lp3294
I79
ag3278
aag1376
ag1377
ag1378
ag1379
ag1380
ag1381
ag1382
ag1383
ag1384
a(lp3295
I89
ag3278
aag1388
ag1389
ag1390
a(lp3296
I93
ag3278
aag1394
ag1395
ag1397
ag1398
ag1399
ag1400
ag1401
ag1402
a(lp3297
I102
ag3278
aag1406
ag1407
ag1408
a(lp3298
I106
ag3278
aag1412
ag1413
ag1414
a(lp3299
I110
ag3278
aag1418
ag1419
ag1420
ag1421
a(lp3300
I115
ag3278
aag1424
ag1425
ag1426
a(lp3301
I119
ag3278
aag1430
ag1431
a(lp3302
I122
ag3278
aag1434
ag1435
ag1436
a(lp3303
I127
ag3278
aag1440
ag1441
ag1442
a(lp3304
I131
ag3278
aag1445
ag1446
ag1447
ag1448
ag1449
a(lp3305
I137
ag3278
aag1452
ag1453
ag1454
ag1455
ag1456
a(lp3306
I143
ag3278
aag1460
ag1461
ag1462
a(lp3307
I147
ag3278
aag1465
ag1466
ag1467
ag1468
a(lp3308
I152
ag3278
aag1472
ag1473
a(lp3309
I155
ag3278
aag1477
ag1478
a(lp3310
I158
ag3278
aag1482
ag1483
a(lp3311
I161
ag3278
aag1486
ag1487
ag1488
ag1489
a(lp3312
I166
ag3278
aag1493
ag1494
ag1495
a(lp3313
I170
ag3278
aag1498
ag1499
ag1501
ag1502
ag1503
ag1504
ag1505
a(lp3314
I178
ag3278
aag1509
ag1511
ag1512
ag1513
a(lp3315
I183
ag3278
aag1517
ag1518
a(lp3316
I186
ag3278
aag1522
ag1523
a(lp3317
I189
ag3278
aag1526
ag1527
ag1528
ag1529
ag1530
a(lp3318
I196
ag3278
aag1533
ag1534
ag1535
ag1536
ag1537
ag1538
a(lp3319
I203
ag3278
aag1542
ag1543
a(lp3320
I207
ag3278
aag1547
ag1548
ag1549
a(lp3321
I211
ag3278
aag1553
ag1554
ag1555
a(lp3322
I215
ag3278
aag1558
ag1559
ag1560
ag1561
ag1562
ag1563
a(lp3323
I222
ag3278
aag1567
ag1568
a(lp3324
I225
ag3278
aag1571
ag1572
ag1573
ag1574
ag1575
ag1576
ag1577
a(lp3325
I234
ag3278
aag1580
ag1581
ag1582
ag1583
ag1584
ag1585
ag1586
a(lp3326
I242
ag3278
aag1590
ag1591
a(lp3327
I245
ag3278
aag1595
ag1596
a(lp3328
I248
ag3278
aag1600
ag1601
ag1602
a(lp3329
I252
ag3278
aag1606
ag1607
ag1608
ag1609
ag1610
a(lp3330
I258
ag3278
aag1614
ag1615
ag1616
ag1617
a(lp3331
I263
ag3278
aag1621
ag1622
a(lp3332
I266
ag3278
aag1626
ag1627
a(lp3333
I269
ag3278
aag1630
ag1631
ag1632
ag1633
ag1634
ag1635
a(lp3334
I276
ag3278
aag1638
ag1639
ag1640
ag1641
a(lp3335
I281
ag3278
aag1645
ag1646
a(lp3336
I284
ag3278
aag1650
ag1651
ag1652
ag1653
a(lp3337
I289
ag3278
aag1656
ag1657
ag1658
ag1659
ag1661
a(lp3338
I296
ag3278
aag1665
ag1666
ag1667
a(lp3339
I300
ag3278
aag1671
ag1672
ag1673
a(lp3340
I304
ag3278
aag1676
ag1677
ag1678
ag1679
ag1680
ag1681
a(lp3341
I311
ag3278
aag1685
ag1686
a(lp3342
I314
ag3278
aag1689
ag1690
ag1691
ag1692
ag1693
ag1694
ag1695
a(lp3343
I322
ag3278
aag1699
ag1700
a(lp3344
I325
ag3278
aag1703
ag1704
ag1705
ag1707
ag1708
ag1709
ag1710
ag1711
ag1712
a(lp3345
I336
ag3278
aag1716
ag1717
a(lp3346
I339
ag3278
aag1721
ag1722
ag1723
a(lp3347
I343
ag3278
aag1726
ag1727
ag1728
ag1729
a(lp3348
I348
ag3278
aag1733
ag1734
ag1735
ag1736
ag1737
a(lp3349
I354
ag3278
aag1740
ag1742
ag1743
ag1744
ag1745
ag1746
ag1747
ag1748
ag1749
a(lp3350
I364
ag3278
aag1753
ag1754
a(lp3351
I367
ag3278
aag1758
ag1759
ag1760
ag1761
ag1762
a(lp3352
I373
ag3278
aag1765
ag1766
ag1767
ag1768
ag1769
a(lp3353
I380
ag3278
aag1773
ag1774
a(lp3354
I383
ag3278
aag1778
ag1779
ag1780
a(lp3355
I387
ag3278
aag1783
ag1784
ag1785
ag1786
ag1787
ag1788
ag1789
ag1790
a(lp3356
I397
ag3278
aag1794
ag1795
a(lp3357
I400
ag3278
aag1798
ag1799
ag1800
ag1801
ag1802
ag1803
a(lp3358
I408
ag3278
aag1806
ag1807
ag1808
ag1809
a(lp3359
I413
ag3278
aag1813
ag1814
ag1815
ag1816
a(lp3360
I418
ag3278
aag1820
ag1821
ag1822
ag1823
a(lp3361
I423
ag3278
aag1826
ag1827
ag1828
ag1829
ag1830
ag1831
ag1832
a(lp3362
I431
ag3278
aag1835
ag1836
ag1837
a(lp3363
I435
ag3278
aag1841
ag1842
ag1843
a(lp3364
I439
ag3278
aag1846
ag1847
ag1848
ag1849
a(lp3365
I444
ag3278
aag1853
ag1854
ag1855
a(lp3366
I448
ag3278
aag1858
ag1859
ag1860
ag1861
ag1862
ag1863
ag1864
ag1865
ag1866
ag1867
ag1868
ag1869
a(lp3367
I461
ag3278
aag1873
ag1874
a(lp3368
I464
ag3278
aag1878
ag1879
ag1880
ag1881
a(lp3369
I469
ag3278
aag1884
ag1885
ag1886
ag1887
ag1888
ag1889
ag1890
ag1891
a(lp3370
I479
ag3278
aag1895
ag1896
ag1897
a(lp3371
I483
ag3278
aag1900
ag1901
ag1902
ag1903
a(lp3372
I489
ag3278
aag1906
ag1907
ag1908
ag1909
a(lp3373
I494
ag3278
aag1913
ag1914
a(lp3374
I497
ag3278
aag1918
ag1919
ag1920
ag1921
a(lp3375
I502
ag3278
aag1924
a(lp3376
I504
ag3278
aag1927
ag1928
ag1929
ag1930
ag1931
ag1932
ag1933
ag1934
a(lp3377
I513
ag3278
aag1938
ag1939
a(lp3378
I516
ag3278
aag1943
ag1944
ag1945
a(lp3379
I520
ag3278
aag1948
ag1949
ag1950
ag1951
a(lp3380
I526
ag3278
aag1954
ag1955
ag1956
ag1957
a(lp3381
I531
ag3278
aag1961
ag1962
ag1963
ag1964
a(lp3382
I536
ag3278
aag1968
ag1969
ag1970
a(lp3383
I540
ag3278
aag1973
ag1974
ag1975
ag1976
ag1977
ag1978
ag1979
a(lp3384
I548
ag3278
aag1983
ag1984
a(lp3385
I552
ag3278
aag1987
a(lp3386
I555
ag3278
aag1990
ag1991
ag1992
ag1993
ag1994
ag1995
a(lp3387
I563
ag3278
aag1998
a(lp3388
I565
ag3278
aag2001
ag2002
ag2003
ag2004
a(lp3389
I570
ag3278
aag2007
ag2008
ag2009
ag2010
ag2011
ag2012
ag2013
ag2014
ag2015
ag2016
ag2017
ag2018
ag2019
a(lp3390
I584
ag3278
aag2023
ag2024
a(lp3391
I587
ag3278
aag2027
ag2028
ag2029
ag2030
ag2031
ag2032
a(lp3392
I594
ag3278
aag2035
ag2036
ag2037
ag2038
ag2039
a(lp3393
I600
ag3278
aag2043
ag2044
ag2045
ag2046
ag2047
a(lp3394
I606
ag3278
aag2051
ag2052
ag2053
ag2054
a(lp3395
I611
ag3278
aag2058
ag2059
ag2060
a(lp3396
I615
ag3278
aag2063
ag2064
ag2065
ag2066
ag2067
a(lp3397
I621
ag3278
aag2070
ag2071
ag2072
ag2073
ag2074
a(lp3398
I628
ag3278
aag2077
ag2078
ag2079
ag2080
ag2081
ag2082
ag2083
ag2084
a(lp3399
I639
ag3278
aag2088
ag2089
a(lp3400
I642
ag3278
aag2093
ag2094
ag2095
ag2096
a(lp3401
I647
ag3278
aag2099
ag2100
ag2101
ag2102
ag2103
ag2104
ag2105
a(lp3402
I656
ag3278
aag2108
ag2109
ag2110
ag2111
ag2112
ag2113
a(lp3403
I663
ag3278
aag2117
ag2118
a(lp3404
I666
ag3278
aag2122
ag2123
ag2124
ag2125
a(lp3405
I671
ag3278
aag2128
a(lp3406
I673
ag3278
aag2131
ag2132
ag2133
ag2134
ag2135
ag2136
ag2137
ag2138
a(lp3407
I682
ag3278
aag2142
ag2143
a(lp3408
I685
ag3278
aag2146
ag2147
ag2148
ag2149
ag2150
ag2151
ag2152
a(lp3409
I694
ag3278
aag2156
ag2157
a(lp3410
I697
ag3278
aag2160
ag2161
ag2162
ag2163
a(lp3411
I702
ag3278
aag2167
ag2168
a(lp3412
I705
ag3278
aag2172
ag2173
ag2174
a(lp3413
I709
ag3278
aag2177
ag2178
ag2179
ag2180
a(lp3414
I714
ag3278
aag2184
ag2185
a(lp3415
I717
ag3278
aag2188
ag2189
ag2190
ag2191
ag2192
ag2193
a(lp3416
I724
ag3278
aag2196
ag2197
ag2198
ag2199
ag2200
a(lp3417
I731
ag3278
aag2203
ag2204
ag2205
ag2206
ag2207
ag2208
ag2209
ag2210
ag2211
ag2212
ag2213
a(lp3418
I746
ag3278
aag2217
ag2218
ag2219
a(lp3419
I751
ag3278
aag2223
ag2224
ag2225
a(lp3420
I755
ag3278
aag2228
ag2229
ag2230
ag2231
a(lp3421
I760
ag3278
aag2235
ag2236
a(lp3422
I763
ag3278
aag2239
ag2240
ag2241
ag2242
a(lp3423
I768
ag3278
aag2246
ag2247
ag2248
ag2249
a(lp3424
I773
ag3278
aag2252
ag2253
ag2254
ag2255
ag2256
ag2257
ag2258
a(lp3425
I781
ag3278
aag2262
ag2263
ag2264
a(lp3426
I785
ag3278
aag2267
ag2268
ag2269
ag2270
a(lp3427
I790
ag3278
aag2274
ag2275
a(lp3428
I793
ag3278
aag2278
ag2279
ag2280
ag2281
ag2282
ag2283
a(lp3429
I800
ag3278
aag2287
ag2288
ag2289
a(lp3430
I804
ag3278
aag2293
ag2294
ag2295
a(lp3431
I808
ag3278
aag2298
ag2299
ag2300
ag2301
ag2302
ag2303
ag2304
ag2305
a(lp3432
I817
ag3278
aag2308
a(lp3433
I819
ag3278
aag2311
ag2312
ag2313
ag2314
ag2315
ag2316
ag2317
a(lp3434
I828
ag3278
aag2320
ag2321
ag2322
ag2323
ag2324
a(lp3435
I835
ag3278
aag2327
ag2328
ag2329
ag2330
ag2331
ag2332
ag2333
a(lp3436
I843
ag3278
aag2336
a(lp3437
I845
ag3278
aag2339
ag2340
ag2341
ag2342
a(lp3438
I851
ag3278
aag2345
a(lp3439
I854
ag3278
aag2348
ag2349
ag2350
ag2351
ag2352
ag2353
a(lp3440
I861
ag3278
aag2357
ag2358
ag2359
a(lp3441
I865
ag3278
aag2362
ag2363
ag2364
ag2365
ag2366
ag2367
ag2368
ag2369
ag2370
ag2371
ag2372
a(lp3442
I878
ag3278
aag2375
ag2376
ag2377
ag2378
ag2379
ag2380
ag2381
a(lp3443
I887
ag3278
aag2385
ag2386
a(lp3444
I890
ag3278
aag2390
ag2391
ag2392
ag2393
a(lp3445
I895
ag3278
aag2396
ag2397
ag2398
ag2399
a(lp3446
I901
ag3278
aag2402
ag2403
ag2404
ag2405
ag2406
ag2407
ag2409
a(lp3447
I909
ag3278
aag2413
ag2414
a(lp3448
I912
ag3278
aag2418
ag2419
ag2420
ag2421
a(lp3449
I917
ag3278
aag2425
ag2426
ag2427
ag2428
a(lp3450
I923
ag3278
aag2432
ag2433
ag2434
a(lp3451
I927
ag3278
aag2437
ag2438
ag2439
ag2440
ag2441
ag2442
a(lp3452
I934
ag3278
aag2445
ag2446
ag2447
ag2448
ag2449
a(lp3453
I940
ag3278
aag2453
ag2454
ag2455
ag2456
a(lp3454
I945
ag3278
aag2460
ag2461
a(lp3455
I949
ag3278
aag2464
ag2465
ag2466
ag2467
a(lp3456
I955
ag3278
aag2470
ag2471
ag2472
a(lp3457
I959
ag3278
aag2476
ag2477
ag2478
a(lp3458
I963
ag3278
aag2481
ag2482
a(lp3459
I966
ag3278
aag2486
ag2487
a(lp3460
I969
ag3278
aag2490
a(lp3461
I971
ag3278
aag2493
ag2494
ag2495
ag2496
ag2497
a(lp3462
I977
ag3278
aag2501
ag2502
ag2503
ag2504
a(lp3463
I982
ag3278
aag2508
ag2509
ag2510
a(lp3464
I986
ag3278
aag2513
ag2514
ag2515
ag2516
ag2517
a(lp3465
I992
ag3278
aag2521
ag2522
ag2523
a(lp3466
I996
ag3278
aag2527
ag2528
ag2529
a(lp3467
I1000
ag3278
aag2533
ag2534
ag2535
ag2536
a(lp3468
I1005
ag3278
aag2539
a(lp3469
I1007
ag3278
aag2542
ag2543
ag2544
ag2545
ag2546
ag2547
a(lp3470
I1014
ag3278
aag2551
ag2552
ag2553
ag2554
a(lp3471
I1019
ag3278
aag2558
ag2559
ag2560
a(lp3472
I1023
ag3278
aag2563
ag2564
ag2565
ag2566
a(lp3473
I1028
ag3278
aag2569
ag2570
ag2571
ag2572
ag2573
a(lp3474
I1034
ag3278
aag2576
ag2577
ag2578
ag2579
ag2580
a(lp3475
I1040
ag3278
aag2584
ag2585
a(lp3476
I1043
ag3278
aag2589
ag2590
ag2591
a(lp3477
I1048
ag3278
aag2594
ag2595
ag2596
ag2597
ag2598
ag2599
ag2600
a(lp3478
I1057
ag3278
aag2604
ag2605
ag2606
a(lp3479
I1061
ag3278
aag2609
ag2610
ag2611
ag2612
ag2613
ag2614
ag2615
ag2616
ag2617
a(lp3480
I1071
ag3278
aag2621
ag2622
a(lp3481
I1074
ag3278
aag2626
ag2627
a(lp3482
I1077
ag3278
aag2630
ag2631
ag2632
ag2633
ag2634
ag2635
a(lp3483
I1086
ag3278
aag2638
a(lp3484
I1089
ag3278
aag2642
ag2643
a(lp3485
I1092
ag3278
aag2647
ag2648
ag2649
a(lp3486
I1096
ag3278
aag2653
ag2654
a(lp3487
I1099
ag3278
aag2658
ag2659
a(lp3488
I1102
ag3278
aag2663
ag2664
ag2665
ag2666
a(lp3489
I1107
ag3278
aag2670
ag2671
a(lp3490
I1110
ag3278
aag2674
ag2675
ag2676
ag2677
a(lp3491
I1115
ag3278
aag2681
ag2682
a(lp3492
I1118
ag3278
aag2686
ag2687
a(lp3493
I1121
ag3278
aag2690
ag2691
a(lp3494
I1124
ag3278
aag2695
ag2696
ag2697
ag2698
a(lp3495
I1129
ag3278
aag2701
ag2702
ag2703
ag2704
ag2705
a(lp3496
I1135
ag3278
aag2709
ag2710
a(lp3497
I1138
ag3278
aag2713
ag2714
ag2715
ag2716
ag2717
ag2718
ag2719
ag2720
ag2721
ag2722
ag2723
ag2724
ag2725
a(lp3498
I1152
ag3278
aag2728
ag2729
ag2730
ag2731
a(lp3499
I1157
ag3278
aag2735
ag2736
a(lp3500
I1160
ag3278
aag2739
ag2740
ag2741
ag2742
ag2743
ag2744
a(lp3501
I1167
ag3278
aag2748
ag2749
a(lp3502
I1170
ag3278
aag2753
ag2754
ag2755
a(lp3503
I1174
ag3278
aag2758
ag2759
ag2760
ag2761
ag2762
ag2763
ag2764
ag2765
ag2766
a(lp3504
I1184
ag3278
aag2770
ag2771
ag2772
a(lp3505
I1188
ag3278
aag2775
ag2776
ag2777
ag2778
ag2779
ag2780
ag2781
ag2782
a(lp3506
I1197
ag3278
aag2786
ag2787
a(lp3507
I1200
ag3278
aag2790
ag2791
ag2792
ag2793
a(lp3508
I1206
ag3278
aag2797
ag2798
ag2799
a(lp3509
I1210
ag3278
aag2803
ag2804
a(lp3510
I1213
ag3278
aag2808
ag2809
a(lp3511
I1216
ag3278
aag2813
ag2814
ag2815
ag2816
a(lp3512
I1221
ag3278
aag2820
ag2821
a(lp3513
I1224
ag3278
aag2824
ag2825
ag2826
ag2827
a(lp3514
I1229
ag3278
aag2831
ag2832
a(lp3515
I1232
ag3278
aag2835
ag2836
ag2837
ag2838
a(lp3516
I1237
ag3278
aag2841
ag2842
ag2843
ag2844
ag2845
ag2846
a(lp3517
I1244
ag3278
aag2850
ag2851
ag2852
ag2853
ag2854
ag2855
ag2856
a(lp3518
I1252
ag3278
aag2859
ag2860
ag2861
a(lp3519
I1256
ag3278
aag2864
ag2865
ag2866
ag2867
ag2868
a(lp3520
I1262
ag3278
aag2872
ag2873
a(lp3521
I1265
ag3278
aag2876
ag2877
ag2878
ag2879
a(lp3522
I1270
ag3278
aag2882
a(lp3523
I1272
ag3278
aag2885
ag2886
ag2887
ag2888
ag2889
ag2890
a(lp3524
I1279
ag3278
aag2894
ag2895
ag2896
a(lp3525
I1283
ag3278
aag2900
ag2901
a(lp3526
I1286
ag3278
aag2905
ag2906
a(lp3527
I1290
ag3278
aag2909
a(lp3528
I1293
ag3278
aag2913
ag2914
a(lp3529
I1296
ag3278
aag2918
ag2919
ag2920
a(lp3530
I1300
ag3278
aag2924
ag2925
ag2926
a(lp3531
I1304
ag3278
aag2929
ag2930
ag2931
a(lp3532
I1308
ag3278
aag2935
ag2936
ag2937
ag2938
a(lp3533
I1313
ag3278
aag2942
ag2943
ag2944
a(lp3534
I1317
ag3278
aag2947
a(lp3535
I1319
ag3278
aag2950
ag2951
ag2952
ag2953
a(lp3536
I1324
ag3278
aag2957
ag2958
a(lp3537
I1327
ag3278
aag2961
ag2962
ag2963
ag2964
ag2965
ag2966
ag2967
a(lp3538
I1336
ag3278
aag2970
ag2971
ag2972
ag2973
a(lp3539
I1341
ag3278
aag2977
ag2978
ag2979
ag2980
a(lp3540
I1346
ag3278
aag2983
ag2984
ag2985
ag2986
a(lp3541
I1351
ag3278
aag2989
ag2990
ag2991
ag2992
ag2993
a(lp3542
I1357
ag3278
aag2997
ag2998
a(lp3543
I1360
ag3278
aag3001
ag3002
ag3003
ag3004
ag3005
ag3006
a(lp3544
I1367
ag3278
aag3010
ag3011
ag3012
a(lp3545
I1371
ag3278
aag3016
ag3017
ag3018
a(lp3546
I1375
ag3278
aag3021
ag3022
ag3023
ag3024
ag3025
a(lp3547
I1381
ag3278
aag3029
ag3030
a(lp3548
I1384
ag3278
aag3034
ag3035
ag3036
ag3037
a(lp3549
I1389
ag3278
aag3040
ag3041
ag3042
ag3043
a(lp3550
I1395
ag3278
aag3047
ag3048
ag3049
a(lp3551
I1399
ag3278
aag3052
ag3053
ag3054
ag3055
a(lp3552
I1404
ag3278
aag3058
ag3059
ag3060
ag3061
ag3062
ag3063
a(lp3553
I1411
ag3278
aag3067
ag3068
a(lp3554
I1414
ag3278
aag3071
ag3072
ag3073
a(lp3555
I1418
ag3278
aag3077
ag3078
a(lp3556
I1422
ag3278
aag3081
a(lp3557
I1425
ag3278
aa(lp3558
I1433
ag3278
aag3085
ag3086
ag3087
ag3088
ag3089
a(lp3559
I1439
ag3278
aag3093
ag3094
ag3095
a(lp3560
I1443
ag3278
aag3098
ag3099
ag3100
ag3101
ag3102
ag3103
ag3104
a(lp3561
I1452
ag3278
aag3107
ag3108
ag3109
ag3110
a(lp3562
I1457
ag3278
aag3113
ag3114
ag3115
ag3116
ag3117
a(lp3563
I1463
ag3278
aa(lp3564
I1465
ag3278
aag3120
ag3121
ag3122
ag3123
ag3124
a(lp3565
I1471
ag3278
aag3127
ag3128
ag3129
ag3130
ag3131
ag3132
ag3133
a(lp3566
I1479
ag3278
aag3137
ag3138
ag3139
a(lp3567
I1483
ag3278
aag3142
ag3143
ag3144
a(lp3568
I1487
ag3278
aag3147
ag3148
ag3149
ag3150
a(lp3569
I1492
ag3278
aag3153
ag3154
ag3155
ag3156
ag3157
a(lp3570
I1499
ag3278
aag3161
ag3162
ag3163
a(lp3571
I1503
ag3278
aag3167
ag3168
ag3169
a(lp3572
I1507
ag3278
aag3172
ag3173
ag3174
ag3175
ag3176
ag3177
a(lp3573
I1514
ag3278
aag3181
ag3182
a(lp3574
I1517
ag3278
aag3185
ag3186
ag3187
ag3188
ag3189
ag3190
a(lp3575
I1524
ag3278
aag3193
ag3194
ag3195
ag3196
ag3197
a(lp3576
I1530
ag3278
aag3200
ag3201
ag3202
ag3203
ag3204
ag3205
ag3206
a(lp3577
I1539
ag3278
aag3209
ag3210
ag3211
ag3212
ag3213
a(lp3578
I1545
ag3278
aag3217
ag3218
ag3219
a(lp3579
I1549
ag3278
aag3223
ag3224
ag3225
a(lp3580
I1553
ag3278
aag3229
ag3230
ag3231
a(lp3581
I1557
ag3278
aag3235
ag3236
a(lp3582
I1560
ag3278
aag3239
ag3240
ag3241
ag3242
ag3243
ag3244
ag3245
ag3246
ag3247
ag3248
a(lp3583
I1571
ag3278
aag3252
ag3253
a(lp3584
I1574
ag3278
aag3257
ag3258
ag3259
ag3260
a(lp3585
I1579
ag3278
aag3263
ag3264
ag3265
ag3266
ag3267
ag3268
ag3269
a(lp3586
I1587
ag3278
aag3273
ag3274
a(lp3587
I1590
ag3278
aa(lp3588
I1591
ag1258
aa(lp3589
I1592
ag1269
aa(lp3590
I1593
ag1298
aa(lp3591
I1594
ag1269
aa(lp3592
I1595
ag1278
aa(lp3593
I1596
ag1269
aa(lp3594
I1597
ag1271
aa(lp3595
I1598
ag1273
aasS'text'
p3596
S"overcoming the fear of selling \xc2\xa0 for many of you the fear of selling is a huge challenge and obstacle for you from day to day. the first thing you need to do is find out exactly what it is you're afraid of. are you afraid of success? believe it or not there this is an actual fear of some folks. are you afraid of failure or rejection? do you fear being perceived as being pushy? do you (secretly of course) fear that your product may not meet the expectations of your customer? you can't come up with a solution if you don't know what the problem is. \xc2\xa0 there's a huge misconception in direct sales being that you think you're 'imposing' on your friends, family or just a customer in general. as long as you feel as though you're imposing...you are. you need to love your product and feel as though you are offering a service. you're filling a need. \xc2\xa0 people are natural-born sellers. we just don't realize it when we're not making money from it. let's say you go to a movie that you loved and you have a friend that you know would enjoy it too. wouldn't you recommend it to him/her? \xc2\xa0 so why is it that as soon as we go into sales we automatically feel as though we can recommend the products we sell. why is it that we tend to feel guilty because wee going to make a profit off of it? \xc2\xa0 if you are one that has a fear of selling, take some time today to figure out the cause of your fear, and take action to fix it! \xc2\xa0 ~~~~~~~ about the authors: kara kelso & anita defrank are two busy wahms, and the owners of direct sales helpers. learn how you can be successful in your company by visiting:"
p3597
sS'cleanWordMap'
p3598
(lp3599
g1253
ag1282
ag1295
ag1306
ag1315
ag1340
ag1351
ag1368
ag1374
ag1392
ag1422
ag1432
ag1443
ag1450
ag1463
ag1484
ag1496
ag1524
ag1531
ag1556
ag1569
ag1578
ag1628
ag1636
ag1654
ag1674
ag1687
ag1701
ag1724
ag1738
ag1763
ag1781
ag1796
ag1804
ag1824
ag1833
ag1844
ag1856
ag1882
ag1898
ag1904
ag1925
ag1946
ag1952
ag1971
ag1985
ag1988
ag1999
ag2005
ag2025
ag2033
ag2061
ag2068
ag2075
ag2097
ag2106
ag2129
ag2144
ag2158
ag2175
ag2186
ag2194
ag2201
ag2226
ag2237
ag2250
ag2265
ag2276
ag2296
ag2309
ag2318
ag2325
ag2337
ag2343
ag2346
ag2360
ag2373
ag2394
ag2400
ag2435
ag2443
ag2462
ag2468
ag2479
ag2491
ag2511
ag2540
ag2561
ag2567
ag2574
ag2592
ag2607
ag2628
ag2636
ag2672
ag2688
ag2699
ag2711
ag2726
ag2737
ag2756
ag2773
ag2788
ag2822
ag2833
ag2839
ag2857
ag2862
ag2874
ag2883
ag2907
ag2927
ag2948
ag2959
ag2968
ag2981
ag2987
ag2999
ag3019
ag3038
ag3050
ag3056
ag3069
ag3079
ag3096
ag3105
ag3111
ag3118
ag3125
ag3140
ag3145
ag3151
ag3170
ag3183
ag3191
ag3198
ag3207
ag3237
ag3261
asS'lines'
p3600
(lp3601
VOvercoming the Fear of Selling\u000a
p3602
aV\u000a
p3603
aVFor many of you the Fear of Selling is a huge challenge and obstacle for you from day to day. The first thing you need to do is find out exactly what it is you're afraid of. Are you afraid of success? Believe it or not there this is an actual fear of some folks. Are you afraid of failure or rejection? Do you fear being perceived as being pushy? Do you (secretly of course) fear that your product may not meet the expectations of your customer? You can't come up with a solution if you don't know what the problem is.\u000a
p3604
aV\u000a
p3605
aVThere's a huge misconception in direct sales being that you think you're 'imposing' on your friends, family or just a customer in general. As long as you feel as though you're imposing...you are. You need to love your product and feel as though you are offering a service. You're filling a need.\u000a
p3606
aV\u000a
p3607
aVPeople are natural-born sellers. We just don't realize it when we're not making money from it. Let's say you go to a movie that you loved and you have a friend that you know would enjoy it too. Wouldn't you recommend it to him/her?\u000a
p3608
aV\u000a
p3609
aVSo why is it that as soon as we go into sales we automatically feel as though we can recommend the products we sell. Why is it that we tend to feel guilty because wee going to make a profit off of it?\u000a
p3610
aV\u000a
p3611
aVIf you are one that has a fear of selling, take some time today to figure out the cause of your fear, and take action to fix it!\u000a
p3612
aV\u000a
p3613
aV~~~~~~~ About the Authors: Kara Kelso & Anita DeFrank are two busy wahms, and the owners of Direct Sales Helpers. Learn how you can be successful in your company by visiting:
p3614
asS'docType'
p3615
S'src'
p3616
sS'newfmap'
p3617
(lp3618
g4
ag8
ag10
ag12
ag14
ag17
ag19
ag21
ag23
ag26
ag28
ag30
ag32
ag35
ag37
ag39
ag41
ag44
ag46
ag48
ag50
ag53
ag55
ag57
ag59
ag62
ag64
ag66
ag68
ag71
ag73
ag75
ag77
ag80
ag82
ag84
ag86
ag89
ag91
ag93
ag95
ag98
ag100
ag102
ag104
ag107
ag109
ag111
ag113
ag116
ag118
ag120
ag122
ag125
ag127
ag129
ag131
ag134
ag136
ag138
ag140
ag143
ag145
ag147
ag149
ag152
ag154
ag156
ag158
ag161
ag163
ag165
ag167
ag170
ag172
ag174
ag176
ag179
ag181
ag183
ag185
ag188
ag190
ag192
ag194
ag197
ag199
ag201
ag203
ag206
ag208
ag210
ag212
ag215
ag217
ag219
ag221
ag224
ag226
ag228
ag230
ag233
ag235
ag237
ag239
ag242
ag244
ag246
ag248
ag251
ag253
ag255
ag257
ag260
ag262
ag264
ag266
ag269
ag271
ag273
ag275
ag278
ag280
ag282
ag284
ag287
ag289
ag291
ag293
ag296
ag298
ag300
ag302
ag305
ag307
ag309
ag311
ag314
ag316
ag318
ag320
ag323
ag325
ag327
ag329
ag332
ag334
ag336
ag338
ag341
ag343
ag345
ag347
ag350
ag352
ag354
ag356
ag359
ag361
ag363
ag365
ag368
ag370
ag372
ag374
ag377
ag379
ag381
ag383
ag386
ag388
ag390
ag392
ag395
ag397
ag399
ag401
ag404
ag406
ag408
ag410
ag412
ag414
ag416
ag418
ag421
ag423
ag425
ag427
ag430
ag432
ag434
ag436
ag439
ag441
ag443
ag445
ag448
ag450
ag452
ag454
ag457
ag459
ag461
ag463
ag466
ag468
ag470
ag472
ag475
ag477
ag479
ag481
ag484
ag486
ag488
ag490
ag493
ag495
ag497
ag499
ag502
ag504
ag506
ag508
ag511
ag513
ag515
ag517
ag520
ag522
ag524
ag526
ag529
ag531
ag533
ag535
ag538
ag540
ag542
ag544
ag547
ag549
ag551
ag553
ag556
ag558
ag560
ag562
ag565
ag567
ag569
ag571
ag574
ag576
ag578
ag580
ag583
ag585
ag587
ag589
ag592
ag594
ag596
ag598
ag601
ag603
ag605
ag607
ag610
ag612
ag614
ag616
ag619
ag621
ag623
ag625
ag628
ag630
ag632
ag634
ag637
ag639
ag641
ag643
ag646
ag648
ag650
ag652
ag655
ag657
ag659
ag661
ag663
ag665
ag667
ag669
ag672
ag674
ag676
ag678
ag681
ag683
ag685
ag687
ag690
ag692
ag694
ag696
ag699
ag701
ag703
ag705
ag708
ag710
ag712
ag714
ag717
ag719
ag721
ag723
ag726
ag728
ag730
ag732
ag735
ag737
ag739
ag741
ag744
ag746
ag748
ag750
ag753
ag755
ag757
ag759
ag762
ag764
ag766
ag768
ag771
ag773
ag775
ag777
ag780
ag782
ag784
ag786
ag789
ag791
ag793
ag795
ag798
ag800
ag802
ag804
ag807
ag809
ag811
ag813
ag816
ag818
ag820
ag822
ag825
ag827
ag829
ag831
ag834
ag836
ag838
ag840
ag842
ag844
ag846
ag848
ag851
ag853
ag855
ag857
ag860
ag862
ag864
ag866
ag869
ag871
ag873
ag875
ag878
ag880
ag882
ag884
ag887
ag889
ag891
ag893
ag896
ag898
ag900
ag902
ag905
ag907
ag909
ag911
ag914
ag916
ag918
ag920
ag923
ag925
ag927
ag929
ag932
ag934
ag936
ag938
ag941
ag943
ag945
ag947
ag950
ag952
ag954
ag956
ag959
ag961
ag963
ag965
ag968
ag970
ag972
ag974
ag977
ag979
ag981
ag983
ag986
ag988
ag990
ag992
ag994
ag996
ag998
ag1000
ag1003
ag1005
ag1007
ag1009
ag1012
ag1014
ag1016
ag1018
ag1021
ag1023
ag1025
ag1027
ag1030
ag1032
ag1034
ag1036
ag1039
ag1041
ag1043
ag1045
ag1048
ag1050
ag1052
ag1054
ag1057
ag1059
ag1061
ag1063
ag1066
ag1068
ag1070
ag1072
ag1075
ag1077
ag1079
ag1081
ag1084
ag1086
ag1088
ag1090
ag1093
ag1095
ag1097
ag1099
ag1102
ag1104
ag1106
ag1108
ag1110
ag1112
ag1114
ag1116
ag1119
ag1121
ag1123
ag1125
ag1128
ag1130
ag1132
ag1134
ag1137
ag1139
ag1141
ag1143
ag1146
ag1148
ag1150
ag1152
ag1155
ag1157
ag1159
ag1161
ag1164
ag1166
ag1168
ag1170
ag1173
ag1175
ag1177
ag1179
ag1182
ag1184
ag1186
ag1188
ag1191
ag1193
ag1195
ag1197
ag1200
ag1202
ag1204
ag1206
ag1209
ag1211
ag1213
ag1215
ag1218
ag1220
ag1222
ag1224
ag1227
ag1229
ag1231
ag1233
ag1236
ag1238
ag1240
ag1242
ag1245
ag1247
ag1249
asS'featureMap'
p3619
(lp3620
(lp3621
I0
aI9
ag5
ag6
ag9
ag11
ag13
aa(lp3622
I15
aI18
ag15
ag16
ag18
ag20
ag22
aa(lp3623
I23
aI29
ag24
ag25
ag27
ag29
ag31
aa(lp3624
I32
aI32
ag33
ag34
ag36
ag38
ag40
aa(lp3625
I38
aI41
ag42
ag43
ag45
ag47
ag49
aa(lp3626
I54
aI57
ag51
ag52
ag54
ag56
ag58
aa(lp3627
I62
aI68
ag60
ag61
ag63
ag65
ag67
aa(lp3628
I75
aI78
ag69
ag70
ag72
ag74
ag76
aa(lp3629
I80
aI88
ag78
ag79
ag81
ag83
ag85
aa(lp3630
I94
aI101
ag87
ag88
ag90
ag92
ag94
aa(lp3631
I116
aI118
ag96
ag97
ag99
ag101
ag103
aa(lp3632
I123
aI125
ag105
ag106
ag108
ag110
ag112
aa(lp3633
I132
aI136
ag114
ag115
ag117
ag119
ag121
aa(lp3634
I138
aI142
ag123
ag124
ag126
ag128
ag130
aa(lp3635
I148
aI151
ag132
ag133
ag135
ag137
ag139
aa(lp3636
I162
aI165
ag141
ag142
ag144
ag146
ag148
aa(lp3637
I171
aI177
ag150
ag151
ag153
ag155
ag157
aa(lp3638
I190
aI195
ag159
ag160
ag162
ag164
ag166
aa(lp3639
I197
aI202
ag168
ag169
ag171
ag173
ag175
aa(lp3640
I216
aI221
ag177
ag178
ag180
ag182
ag184
aa(lp3641
I226
aI232
ag186
ag187
ag189
ag191
ag193
aa(lp3642
I235
aI241
ag195
ag196
ag198
ag200
ag202
aa(lp3643
I270
aI275
ag204
ag205
ag207
ag209
ag211
aa(lp3644
I277
aI280
ag213
ag214
ag216
ag218
ag220
aa(lp3645
I290
aI294
ag222
ag223
ag225
ag227
ag229
aa(lp3646
I305
aI310
ag231
ag232
ag234
ag236
ag238
aa(lp3647
I315
aI321
ag240
ag241
ag243
ag245
ag247
aa(lp3648
I326
aI334
ag249
ag250
ag252
ag254
ag256
aa(lp3649
I344
aI347
ag258
ag259
ag261
ag263
ag265
aa(lp3650
I355
aI363
ag267
ag268
ag270
ag272
ag274
aa(lp3651
I374
aI378
ag276
ag277
ag279
ag281
ag283
aa(lp3652
I389
aI396
ag285
ag286
ag288
ag290
ag292
aa(lp3653
I401
aI406
ag294
ag295
ag297
ag299
ag301
aa(lp3654
I409
aI412
ag303
ag304
ag306
ag308
ag310
aa(lp3655
I424
aI430
ag312
ag313
ag315
ag317
ag319
aa(lp3656
I432
aI434
ag321
ag322
ag324
ag326
ag328
aa(lp3657
I440
aI443
ag330
ag331
ag333
ag335
ag337
aa(lp3658
I449
aI460
ag339
ag340
ag342
ag344
ag346
aa(lp3659
I470
aI477
ag348
ag349
ag351
ag353
ag355
aa(lp3660
I484
aI488
ag357
ag358
ag360
ag362
ag364
aa(lp3661
I490
aI493
ag366
ag367
ag369
ag371
ag373
aa(lp3662
I505
aI512
ag375
ag376
ag378
ag380
ag382
aa(lp3663
I521
aI525
ag384
ag385
ag387
ag389
ag391
aa(lp3664
I527
aI530
ag393
ag394
ag396
ag398
ag400
aa(lp3665
I541
aI547
ag402
ag403
ag405
ag407
ag409
aa(lp3666
I554
aI554
ag33
ag411
ag413
ag415
ag417
aa(lp3667
I556
aI562
ag419
ag420
ag422
ag424
ag426
aa(lp3668
I566
aI569
ag428
ag429
ag431
ag433
ag435
aa(lp3669
I571
aI583
ag437
ag438
ag440
ag442
ag444
aa(lp3670
I588
aI593
ag446
ag447
ag449
ag451
ag453
aa(lp3671
I595
aI599
ag455
ag456
ag458
ag460
ag462
aa(lp3672
I616
aI620
ag464
ag465
ag467
ag469
ag471
aa(lp3673
I622
aI627
ag473
ag474
ag476
ag478
ag480
aa(lp3674
I630
aI637
ag482
ag483
ag485
ag487
ag489
aa(lp3675
I648
aI654
ag491
ag492
ag494
ag496
ag498
aa(lp3676
I657
aI662
ag500
ag501
ag503
ag505
ag507
aa(lp3677
I674
aI681
ag509
ag510
ag512
ag514
ag516
aa(lp3678
I686
aI692
ag518
ag519
ag521
ag523
ag525
aa(lp3679
I698
aI701
ag527
ag528
ag530
ag532
ag534
aa(lp3680
I710
aI713
ag536
ag537
ag539
ag541
ag543
aa(lp3681
I718
aI723
ag545
ag546
ag548
ag550
ag552
aa(lp3682
I725
aI730
ag554
ag555
ag557
ag559
ag561
aa(lp3683
I732
aI745
ag563
ag564
ag566
ag568
ag570
aa(lp3684
I756
aI759
ag572
ag573
ag575
ag577
ag579
aa(lp3685
I764
aI767
ag581
ag582
ag584
ag586
ag588
aa(lp3686
I774
aI780
ag590
ag591
ag593
ag595
ag597
aa(lp3687
I786
aI789
ag599
ag600
ag602
ag604
ag606
aa(lp3688
I794
aI799
ag608
ag609
ag611
ag613
ag615
aa(lp3689
I809
aI816
ag617
ag618
ag620
ag622
ag624
aa(lp3690
I820
aI826
ag626
ag627
ag629
ag631
ag633
aa(lp3691
I829
aI834
ag635
ag636
ag638
ag640
ag642
aa(lp3692
I836
aI842
ag644
ag645
ag647
ag649
ag651
aa(lp3693
I846
aI849
ag653
ag654
ag656
ag658
ag660
aa(lp3694
I853
aI853
ag33
ag662
ag664
ag666
ag668
aa(lp3695
I855
aI860
ag670
ag671
ag673
ag675
ag677
aa(lp3696
I866
aI877
ag679
ag680
ag682
ag684
ag686
aa(lp3697
I879
aI885
ag688
ag689
ag691
ag693
ag695
aa(lp3698
I896
aI900
ag697
ag698
ag700
ag702
ag704
aa(lp3699
I902
aI908
ag706
ag707
ag709
ag711
ag713
aa(lp3700
I928
aI933
ag715
ag716
ag718
ag720
ag722
aa(lp3701
I935
aI939
ag724
ag725
ag727
ag729
ag731
aa(lp3702
I950
aI954
ag733
ag734
ag736
ag738
ag740
aa(lp3703
I956
aI958
ag742
ag743
ag745
ag747
ag749
aa(lp3704
I964
aI965
ag751
ag752
ag754
ag756
ag758
aa(lp3705
I972
aI976
ag760
ag761
ag763
ag765
ag767
aa(lp3706
I987
aI991
ag769
ag770
ag772
ag774
ag776
aa(lp3707
I1008
aI1013
ag778
ag779
ag781
ag783
ag785
aa(lp3708
I1024
aI1027
ag787
ag788
ag790
ag792
ag794
aa(lp3709
I1029
aI1033
ag796
ag797
ag799
ag801
ag803
aa(lp3710
I1035
aI1039
ag805
ag806
ag808
ag810
ag812
aa(lp3711
I1049
aI1056
ag814
ag815
ag817
ag819
ag821
aa(lp3712
I1062
aI1070
ag823
ag824
ag826
ag828
ag830
aa(lp3713
I1078
aI1084
ag832
ag833
ag835
ag837
ag839
aa(lp3714
I1088
aI1088
ag33
ag841
ag843
ag845
ag847
aa(lp3715
I1111
aI1114
ag849
ag850
ag852
ag854
ag856
aa(lp3716
I1122
aI1123
ag858
ag859
ag861
ag863
ag865
aa(lp3717
I1130
aI1134
ag867
ag868
ag870
ag872
ag874
aa(lp3718
I1139
aI1151
ag876
ag877
ag879
ag881
ag883
aa(lp3719
I1153
aI1156
ag885
ag886
ag888
ag890
ag892
aa(lp3720
I1161
aI1166
ag894
ag895
ag897
ag899
ag901
aa(lp3721
I1175
aI1183
ag903
ag904
ag906
ag908
ag910
aa(lp3722
I1189
aI1196
ag912
ag913
ag915
ag917
ag919
aa(lp3723
I1201
aI1204
ag921
ag922
ag924
ag926
ag928
aa(lp3724
I1225
aI1228
ag930
ag931
ag933
ag935
ag937
aa(lp3725
I1233
aI1236
ag939
ag940
ag942
ag944
ag946
aa(lp3726
I1238
aI1243
ag948
ag949
ag951
ag953
ag955
aa(lp3727
I1253
aI1255
ag957
ag958
ag960
ag962
ag964
aa(lp3728
I1257
aI1261
ag966
ag967
ag969
ag971
ag973
aa(lp3729
I1266
aI1269
ag975
ag976
ag978
ag980
ag982
aa(lp3730
I1273
aI1278
ag984
ag985
ag987
ag989
ag991
aa(lp3731
I1292
aI1292
ag33
ag993
ag995
ag997
ag999
aa(lp3732
I1305
aI1307
ag1001
ag1002
ag1004
ag1006
ag1008
aa(lp3733
I1320
aI1323
ag1010
ag1011
ag1013
ag1015
ag1017
aa(lp3734
I1328
aI1334
ag1019
ag1020
ag1022
ag1024
ag1026
aa(lp3735
I1337
aI1340
ag1028
ag1029
ag1031
ag1033
ag1035
aa(lp3736
I1347
aI1350
ag1037
ag1038
ag1040
ag1042
ag1044
aa(lp3737
I1352
aI1356
ag1046
ag1047
ag1049
ag1051
ag1053
aa(lp3738
I1361
aI1366
ag1055
ag1056
ag1058
ag1060
ag1062
aa(lp3739
I1376
aI1380
ag1064
ag1065
ag1067
ag1069
ag1071
aa(lp3740
I1390
aI1393
ag1073
ag1074
ag1076
ag1078
ag1080
aa(lp3741
I1400
aI1403
ag1082
ag1083
ag1085
ag1087
ag1089
aa(lp3742
I1405
aI1410
ag1091
ag1092
ag1094
ag1096
ag1098
aa(lp3743
I1415
aI1417
ag1100
ag1101
ag1103
ag1105
ag1107
aa(lp3744
I1424
aI1424
ag33
ag1109
ag1111
ag1113
ag1115
aa(lp3745
I1444
aI1450
ag1117
ag1118
ag1120
ag1122
ag1124
aa(lp3746
I1453
aI1456
ag1126
ag1127
ag1129
ag1131
ag1133
aa(lp3747
I1458
aI1462
ag1135
ag1136
ag1138
ag1140
ag1142
aa(lp3748
I1466
aI1470
ag1144
ag1145
ag1147
ag1149
ag1151
aa(lp3749
I1472
aI1478
ag1153
ag1154
ag1156
ag1158
ag1160
aa(lp3750
I1484
aI1486
ag1162
ag1163
ag1165
ag1167
ag1169
aa(lp3751
I1488
aI1491
ag1171
ag1172
ag1174
ag1176
ag1178
aa(lp3752
I1493
aI1497
ag1180
ag1181
ag1183
ag1185
ag1187
aa(lp3753
I1508
aI1513
ag1189
ag1190
ag1192
ag1194
ag1196
aa(lp3754
I1518
aI1523
ag1198
ag1199
ag1201
ag1203
ag1205
aa(lp3755
I1525
aI1529
ag1207
ag1208
ag1210
ag1212
ag1214
aa(lp3756
I1531
aI1537
ag1216
ag1217
ag1219
ag1221
ag1223
aa(lp3757
I1540
aI1544
ag1225
ag1226
ag1228
ag1230
ag1232
aa(lp3758
I1561
aI1570
ag1234
ag1235
ag1237
ag1239
ag1241
aa(lp3759
I1580
aI1586
ag1243
ag1244
ag1246
ag1248
ag1250
aasS'characterMap'
p3760
(lp3761
g1255
ag1257
ag1259
ag1261
ag1263
ag1265
ag1266
ag1268
ag1270
ag1272
ag3277
ag1277
ag1279
ag1281
ag3279
ag1284
ag1286
ag1287
ag1289
ag3280
ag1293
ag1294
ag3281
ag1297
ag1299
ag1300
ag1302
ag1303
ag1304
ag1305
ag3282
a(lp3762
I31
aS'\xc2'
p3763
aag1308
ag3283
ag1312
ag1313
ag1314
ag3284
ag1317
ag1318
ag1319
ag1320
ag3285
ag1325
ag1326
ag3286
ag1330
ag1331
ag1332
ag3287
ag1337
ag1338
ag1339
ag3288
ag1342
ag1343
ag1344
ag1345
ag3289
ag1349
ag1350
ag3290
ag1353
ag1354
ag1355
ag1356
ag1357
ag1358
ag1359
ag3291
ag1363
ag1364
ag3292
ag1367
ag3293
ag1370
ag1371
ag1372
ag1373
ag3294
ag1376
ag1377
ag1378
ag1379
ag1380
ag1381
ag1382
ag1383
ag1384
ag3295
ag1388
ag1389
ag1390
ag3296
ag1394
ag1395
ag1397
ag1398
ag1399
ag1400
ag1401
ag1402
ag3297
ag1406
ag1407
ag1408
ag3298
ag1412
ag1413
ag1414
ag3299
ag1418
ag1419
ag1420
ag1421
ag3300
ag1424
ag1425
ag1426
ag3301
ag1430
ag1431
ag3302
ag1434
ag1435
ag1436
a(lp3764
I126
aS'.'
p3765
aag3303
ag1440
ag1441
ag1442
ag3304
ag1445
ag1446
ag1447
ag1448
ag1449
ag3305
ag1452
ag1453
ag1454
ag1455
ag1456
ag3306
ag1460
ag1461
ag1462
ag3307
ag1465
ag1466
ag1467
ag1468
ag3308
ag1472
ag1473
ag3309
ag1477
ag1478
ag3310
ag1482
ag1483
ag3311
ag1486
ag1487
ag1488
ag1489
ag3312
ag1493
ag1494
ag1495
ag3313
ag1498
ag1499
ag1501
ag1502
ag1503
ag1504
ag1505
ag3314
ag1509
ag1511
ag1512
ag1513
ag3315
ag1517
ag1518
ag3316
ag1522
ag1523
ag3317
ag1526
ag1527
ag1528
a(lp3766
I193
aS"'"
p3767
aag1529
ag1530
ag3318
ag1533
ag1534
ag1535
ag1536
ag1537
ag1538
ag3319
ag1542
ag1543
a(lp3768
I206
ag3765
aag3320
ag1547
ag1548
ag1549
ag3321
ag1553
ag1554
ag1555
ag3322
ag1558
ag1559
ag1560
ag1561
ag1562
ag1563
ag3323
ag1567
ag1568
ag3324
ag1571
ag1572
ag1573
ag1574
ag1575
ag1576
ag1577
a(lp3769
I233
aS'?'
p3770
aag3325
ag1580
ag1581
ag1582
ag1583
ag1584
ag1585
ag1586
ag3326
ag1590
ag1591
ag3327
ag1595
ag1596
ag3328
ag1600
ag1601
ag1602
ag3329
ag1606
ag1607
ag1608
ag1609
ag1610
ag3330
ag1614
ag1615
ag1616
ag1617
ag3331
ag1621
ag1622
ag3332
ag1626
ag1627
ag3333
ag1630
ag1631
ag1632
ag1633
ag1634
ag1635
ag3334
ag1638
ag1639
ag1640
ag1641
ag3335
ag1645
ag1646
ag3336
ag1650
ag1651
ag1652
ag1653
ag3337
ag1656
ag1657
ag1658
ag1659
ag1661
a(lp3771
I295
ag3765
aag3338
ag1665
ag1666
ag1667
ag3339
ag1671
ag1672
ag1673
ag3340
ag1676
ag1677
ag1678
ag1679
ag1680
ag1681
ag3341
ag1685
ag1686
ag3342
ag1689
ag1690
ag1691
ag1692
ag1693
ag1694
ag1695
ag3343
ag1699
ag1700
ag3344
ag1703
ag1704
ag1705
ag1707
ag1708
ag1709
ag1710
ag1711
ag1712
a(lp3772
I335
ag3770
aag3345
ag1716
ag1717
ag3346
ag1721
ag1722
ag1723
ag3347
ag1726
ag1727
ag1728
ag1729
ag3348
ag1733
ag1734
ag1735
ag1736
ag1737
ag3349
ag1740
ag1742
ag1743
ag1744
ag1745
ag1746
ag1747
ag1748
ag1749
ag3350
ag1753
ag1754
ag3351
ag1758
ag1759
ag1760
ag1761
ag1762
ag3352
ag1765
ag1766
ag1767
ag1768
ag1769
a(lp3773
I379
ag3770
aag3353
ag1773
ag1774
ag3354
ag1778
ag1779
ag1780
ag3355
a(lp3774
I388
aS'('
p3775
aag1783
ag1784
ag1785
ag1786
ag1787
ag1788
ag1789
ag1790
ag3356
ag1794
ag1795
ag3357
ag1798
ag1799
ag1800
ag1801
ag1802
ag1803
a(lp3776
I407
aS')'
p3777
aag3358
ag1806
ag1807
ag1808
ag1809
ag3359
ag1813
ag1814
ag1815
ag1816
ag3360
ag1820
ag1821
ag1822
ag1823
ag3361
ag1826
ag1827
ag1828
ag1829
ag1830
ag1831
ag1832
ag3362
ag1835
ag1836
ag1837
ag3363
ag1841
ag1842
ag1843
ag3364
ag1846
ag1847
ag1848
ag1849
ag3365
ag1853
ag1854
ag1855
ag3366
ag1858
ag1859
ag1860
ag1861
ag1862
ag1863
ag1864
ag1865
ag1866
ag1867
ag1868
ag1869
ag3367
ag1873
ag1874
ag3368
ag1878
ag1879
ag1880
ag1881
ag3369
ag1884
ag1885
ag1886
ag1887
ag1888
ag1889
ag1890
ag1891
a(lp3778
I478
ag3770
aag3370
ag1895
ag1896
ag1897
ag3371
ag1900
ag1901
ag1902
a(lp3779
I487
ag3767
aag1903
ag3372
ag1906
ag1907
ag1908
ag1909
ag3373
ag1913
ag1914
ag3374
ag1918
ag1919
ag1920
ag1921
ag3375
ag1924
ag3376
ag1927
ag1928
ag1929
ag1930
ag1931
ag1932
ag1933
ag1934
ag3377
ag1938
ag1939
ag3378
ag1943
ag1944
ag1945
ag3379
ag1948
ag1949
ag1950
a(lp3780
I524
ag3767
aag1951
ag3380
ag1954
ag1955
ag1956
ag1957
ag3381
ag1961
ag1962
ag1963
ag1964
ag3382
ag1968
ag1969
ag1970
ag3383
ag1973
ag1974
ag1975
ag1976
ag1977
ag1978
ag1979
ag3384
ag1983
ag1984
a(lp3781
I551
ag3765
aag3385
a(lp3782
I553
ag3763
aag1987
ag3386
ag1990
ag1991
ag1992
ag1993
ag1994
a(lp3783
I561
ag3767
aag1995
ag3387
ag1998
ag3388
ag2001
ag2002
ag2003
ag2004
ag3389
ag2007
ag2008
ag2009
ag2010
ag2011
ag2012
ag2013
ag2014
ag2015
ag2016
ag2017
ag2018
ag2019
ag3390
ag2023
ag2024
ag3391
ag2027
ag2028
ag2029
ag2030
ag2031
ag2032
ag3392
ag2035
ag2036
ag2037
ag2038
ag2039
ag3393
ag2043
ag2044
ag2045
ag2046
ag2047
ag3394
ag2051
ag2052
ag2053
ag2054
ag3395
ag2058
ag2059
ag2060
ag3396
ag2063
ag2064
ag2065
ag2066
ag2067
ag3397
ag2070
ag2071
ag2072
a(lp3784
I625
ag3767
aag2073
ag2074
ag3398
a(lp3785
I629
ag3767
aag2077
ag2078
ag2079
ag2080
ag2081
ag2082
ag2083
ag2084
a(lp3786
I638
ag3767
aag3399
ag2088
ag2089
ag3400
ag2093
ag2094
ag2095
ag2096
ag3401
ag2099
ag2100
ag2101
ag2102
ag2103
ag2104
ag2105
a(lp3787
I655
aS','
p3788
aag3402
ag2108
ag2109
ag2110
ag2111
ag2112
ag2113
ag3403
ag2117
ag2118
ag3404
ag2122
ag2123
ag2124
ag2125
ag3405
ag2128
ag3406
ag2131
ag2132
ag2133
ag2134
ag2135
ag2136
ag2137
ag2138
ag3407
ag2142
ag2143
ag3408
ag2146
ag2147
ag2148
ag2149
ag2150
ag2151
ag2152
a(lp3789
I693
ag3765
aag3409
ag2156
ag2157
ag3410
ag2160
ag2161
ag2162
ag2163
ag3411
ag2167
ag2168
ag3412
ag2172
ag2173
ag2174
ag3413
ag2177
ag2178
ag2179
ag2180
ag3414
ag2184
ag2185
ag3415
ag2188
ag2189
ag2190
ag2191
ag2192
ag2193
ag3416
ag2196
ag2197
ag2198
a(lp3790
I728
ag3767
aag2199
ag2200
ag3417
ag2203
ag2204
ag2205
ag2206
ag2207
ag2208
ag2209
ag2210
a(lp3791
I740
ag3765
aa(lp3792
I741
ag3765
aa(lp3793
I742
ag3765
aag2211
ag2212
ag2213
ag3418
ag2217
ag2218
ag2219
a(lp3794
I750
ag3765
aag3419
ag2223
ag2224
ag2225
ag3420
ag2228
ag2229
ag2230
ag2231
ag3421
ag2235
ag2236
ag3422
ag2239
ag2240
ag2241
ag2242
ag3423
ag2246
ag2247
ag2248
ag2249
ag3424
ag2252
ag2253
ag2254
ag2255
ag2256
ag2257
ag2258
ag3425
ag2262
ag2263
ag2264
ag3426
ag2267
ag2268
ag2269
ag2270
ag3427
ag2274
ag2275
ag3428
ag2278
ag2279
ag2280
ag2281
ag2282
ag2283
ag3429
ag2287
ag2288
ag2289
ag3430
ag2293
ag2294
ag2295
ag3431
ag2298
ag2299
ag2300
ag2301
ag2302
ag2303
ag2304
ag2305
ag3432
ag2308
ag3433
ag2311
ag2312
ag2313
ag2314
ag2315
ag2316
ag2317
a(lp3795
I827
ag3765
aag3434
ag2320
ag2321
ag2322
a(lp3796
I832
ag3767
aag2323
ag2324
ag3435
ag2327
ag2328
ag2329
ag2330
ag2331
ag2332
ag2333
ag3436
ag2336
ag3437
ag2339
ag2340
ag2341
ag2342
a(lp3797
I850
ag3765
aag3438
a(lp3798
I852
ag3763
aag2345
ag3439
ag2348
ag2349
ag2350
ag2351
ag2352
ag2353
ag3440
ag2357
ag2358
ag2359
ag3441
ag2362
ag2363
ag2364
ag2365
ag2366
ag2367
ag2368
a(lp3799
I873
aS'-'
p3800
aag2369
ag2370
ag2371
ag2372
ag3442
ag2375
ag2376
ag2377
ag2378
ag2379
ag2380
ag2381
a(lp3801
I886
ag3765
aag3443
ag2385
ag2386
ag3444
ag2390
ag2391
ag2392
ag2393
ag3445
ag2396
ag2397
ag2398
a(lp3802
I899
ag3767
aag2399
ag3446
ag2402
ag2403
ag2404
ag2405
ag2406
ag2407
ag2409
ag3447
ag2413
ag2414
ag3448
ag2418
ag2419
ag2420
ag2421
ag3449
ag2425
ag2426
a(lp3803
I920
ag3767
aag2427
ag2428
ag3450
ag2432
ag2433
ag2434
ag3451
ag2437
ag2438
ag2439
ag2440
ag2441
ag2442
ag3452
ag2445
ag2446
ag2447
ag2448
ag2449
ag3453
ag2453
ag2454
ag2455
ag2456
ag3454
ag2460
ag2461
a(lp3804
I948
ag3765
aag3455
ag2464
ag2465
ag2466
a(lp3805
I953
ag3767
aag2467
ag3456
ag2470
ag2471
ag2472
ag3457
ag2476
ag2477
ag2478
ag3458
ag2481
ag2482
ag3459
ag2486
ag2487
ag3460
ag2490
ag3461
ag2493
ag2494
ag2495
ag2496
ag2497
ag3462
ag2501
ag2502
ag2503
ag2504
ag3463
ag2508
ag2509
ag2510
ag3464
ag2513
ag2514
ag2515
ag2516
ag2517
ag3465
ag2521
ag2522
ag2523
ag3466
ag2527
ag2528
ag2529
ag3467
ag2533
ag2534
ag2535
ag2536
ag3468
ag2539
ag3469
ag2542
ag2543
ag2544
ag2545
ag2546
ag2547
ag3470
ag2551
ag2552
ag2553
ag2554
ag3471
ag2558
ag2559
ag2560
ag3472
ag2563
ag2564
ag2565
ag2566
ag3473
ag2569
ag2570
ag2571
ag2572
ag2573
ag3474
ag2576
ag2577
ag2578
ag2579
ag2580
ag3475
ag2584
ag2585
ag3476
ag2589
ag2590
ag2591
a(lp3806
I1047
ag3765
aag3477
ag2594
ag2595
ag2596
ag2597
ag2598
ag2599
a(lp3807
I1055
ag3767
aag2600
ag3478
ag2604
ag2605
ag2606
ag3479
ag2609
ag2610
ag2611
ag2612
ag2613
ag2614
ag2615
ag2616
ag2617
ag3480
ag2621
ag2622
ag3481
ag2626
ag2627
ag3482
ag2630
ag2631
ag2632
a(lp3808
I1081
aS'/'
p3809
aag2633
ag2634
ag2635
a(lp3810
I1085
ag3770
aag3483
a(lp3811
I1087
ag3763
aag2638
ag3484
ag2642
ag2643
ag3485
ag2647
ag2648
ag2649
ag3486
ag2653
ag2654
ag3487
ag2658
ag2659
ag3488
ag2663
ag2664
ag2665
ag2666
ag3489
ag2670
ag2671
ag3490
ag2674
ag2675
ag2676
ag2677
ag3491
ag2681
ag2682
ag3492
ag2686
ag2687
ag3493
ag2690
ag2691
ag3494
ag2695
ag2696
ag2697
ag2698
ag3495
ag2701
ag2702
ag2703
ag2704
ag2705
ag3496
ag2709
ag2710
ag3497
ag2713
ag2714
ag2715
ag2716
ag2717
ag2718
ag2719
ag2720
ag2721
ag2722
ag2723
ag2724
ag2725
ag3498
ag2728
ag2729
ag2730
ag2731
ag3499
ag2735
ag2736
ag3500
ag2739
ag2740
ag2741
ag2742
ag2743
ag2744
ag3501
ag2748
ag2749
ag3502
ag2753
ag2754
ag2755
ag3503
ag2758
ag2759
ag2760
ag2761
ag2762
ag2763
ag2764
ag2765
ag2766
ag3504
ag2770
ag2771
ag2772
ag3505
ag2775
ag2776
ag2777
ag2778
ag2779
ag2780
ag2781
ag2782
ag3506
ag2786
ag2787
ag3507
ag2790
ag2791
ag2792
ag2793
a(lp3812
I1205
ag3765
aag3508
ag2797
ag2798
ag2799
ag3509
ag2803
ag2804
ag3510
ag2808
ag2809
ag3511
ag2813
ag2814
ag2815
ag2816
ag3512
ag2820
ag2821
ag3513
ag2824
ag2825
ag2826
ag2827
ag3514
ag2831
ag2832
ag3515
ag2835
ag2836
ag2837
ag2838
ag3516
ag2841
ag2842
ag2843
ag2844
ag2845
ag2846
ag3517
ag2850
ag2851
ag2852
ag2853
ag2854
ag2855
ag2856
ag3518
ag2859
ag2860
ag2861
ag3519
ag2864
ag2865
ag2866
ag2867
ag2868
ag3520
ag2872
ag2873
ag3521
ag2876
ag2877
ag2878
ag2879
ag3522
ag2882
ag3523
ag2885
ag2886
ag2887
ag2888
ag2889
ag2890
ag3524
ag2894
ag2895
ag2896
ag3525
ag2900
ag2901
ag3526
ag2905
ag2906
a(lp3813
I1289
ag3770
aag3527
a(lp3814
I1291
ag3763
aag2909
ag3528
ag2913
ag2914
ag3529
ag2918
ag2919
ag2920
ag3530
ag2924
ag2925
ag2926
ag3531
ag2929
ag2930
ag2931
ag3532
ag2935
ag2936
ag2937
ag2938
ag3533
ag2942
ag2943
ag2944
ag3534
ag2947
ag3535
ag2950
ag2951
ag2952
ag2953
ag3536
ag2957
ag2958
ag3537
ag2961
ag2962
ag2963
ag2964
ag2965
ag2966
ag2967
a(lp3815
I1335
ag3788
aag3538
ag2970
ag2971
ag2972
ag2973
ag3539
ag2977
ag2978
ag2979
ag2980
ag3540
ag2983
ag2984
ag2985
ag2986
ag3541
ag2989
ag2990
ag2991
ag2992
ag2993
ag3542
ag2997
ag2998
ag3543
ag3001
ag3002
ag3003
ag3004
ag3005
ag3006
ag3544
ag3010
ag3011
ag3012
ag3545
ag3016
ag3017
ag3018
ag3546
ag3021
ag3022
ag3023
ag3024
ag3025
ag3547
ag3029
ag3030
ag3548
ag3034
ag3035
ag3036
ag3037
ag3549
ag3040
ag3041
ag3042
ag3043
a(lp3816
I1394
ag3788
aag3550
ag3047
ag3048
ag3049
ag3551
ag3052
ag3053
ag3054
ag3055
ag3552
ag3058
ag3059
ag3060
ag3061
ag3062
ag3063
ag3553
ag3067
ag3068
ag3554
ag3071
ag3072
ag3073
ag3555
ag3077
ag3078
a(lp3817
I1421
aS'!'
p3818
aag3556
a(lp3819
I1423
ag3763
aag3081
ag3557
a(lp3820
I1426
aS'~'
p3821
aa(lp3822
I1427
ag3821
aa(lp3823
I1428
ag3821
aa(lp3824
I1429
ag3821
aa(lp3825
I1430
ag3821
aa(lp3826
I1431
ag3821
aa(lp3827
I1432
ag3821
aag3558
ag3085
ag3086
ag3087
ag3088
ag3089
ag3559
ag3093
ag3094
ag3095
ag3560
ag3098
ag3099
ag3100
ag3101
ag3102
ag3103
ag3104
a(lp3828
I1451
aS':'
p3829
aag3561
ag3107
ag3108
ag3109
ag3110
ag3562
ag3113
ag3114
ag3115
ag3116
ag3117
ag3563
a(lp3830
I1464
aS'&'
p3831
aag3564
ag3120
ag3121
ag3122
ag3123
ag3124
ag3565
ag3127
ag3128
ag3129
ag3130
ag3131
ag3132
ag3133
ag3566
ag3137
ag3138
ag3139
ag3567
ag3142
ag3143
ag3144
ag3568
ag3147
ag3148
ag3149
ag3150
ag3569
ag3153
ag3154
ag3155
ag3156
ag3157
a(lp3832
I1498
ag3788
aag3570
ag3161
ag3162
ag3163
ag3571
ag3167
ag3168
ag3169
ag3572
ag3172
ag3173
ag3174
ag3175
ag3176
ag3177
ag3573
ag3181
ag3182
ag3574
ag3185
ag3186
ag3187
ag3188
ag3189
ag3190
ag3575
ag3193
ag3194
ag3195
ag3196
ag3197
ag3576
ag3200
ag3201
ag3202
ag3203
ag3204
ag3205
ag3206
a(lp3833
I1538
ag3765
aag3577
ag3209
ag3210
ag3211
ag3212
ag3213
ag3578
ag3217
ag3218
ag3219
ag3579
ag3223
ag3224
ag3225
ag3580
ag3229
ag3230
ag3231
ag3581
ag3235
ag3236
ag3582
ag3239
ag3240
ag3241
ag3242
ag3243
ag3244
ag3245
ag3246
ag3247
ag3248
ag3583
ag3252
ag3253
ag3584
ag3257
ag3258
ag3259
ag3260
ag3585
ag3263
ag3264
ag3265
ag3266
ag3267
ag3268
ag3269
ag3586
ag3273
ag3274
ag3587
ag3588
ag3589
ag3590
ag3591
ag3592
ag3593
ag3594
ag3595
a(lp3834
I1599
ag3829
aasS'docName'
p3835
S'source-document01493.txt'
p3836
sb.