(iModel.Document
Document
p0
(dp1
S'fmap'
p2
(lp3
(lp4
I0
aI7
aS'dramatic'
p5
a(lp6
S'*'
p7
ag5
aaa(lp8
I0
aI7
ag5
a(lp9
g7
ag5
aaa(lp10
I0
aI7
ag5
a(lp11
g7
ag5
aaa(lp12
I0
aI7
ag5
a(lp13
g7
ag5
aaa(lp14
I9
aI12
aS'text'
p15
a(lp16
g5
ag15
aaa(lp17
I9
aI12
ag15
a(lp18
g7
ag15
aaa(lp19
I9
aI12
ag15
a(lp20
g7
ag15
aaa(lp21
I9
aI12
ag15
a(lp22
g7
ag15
aaa(lp23
I17
aI20
aS'fire'
p24
a(lp25
g15
ag24
aaa(lp26
I17
aI20
ag24
a(lp27
g5
ag24
aaa(lp28
I17
aI20
ag24
a(lp29
g7
ag24
aaa(lp30
I17
aI20
ag24
a(lp31
g7
ag24
aaa(lp32
I22
aI27
aS'effect'
p33
a(lp34
g24
ag33
aaa(lp35
I22
aI27
ag33
a(lp36
g15
ag33
aaa(lp37
I22
aI27
ag33
a(lp38
g5
ag33
aaa(lp39
I22
aI27
ag33
a(lp40
g7
ag33
aaa(lp41
I32
aI40
aS'photoshop'
p42
a(lp43
g33
ag42
aaa(lp44
I32
aI40
ag42
a(lp45
g24
ag42
aaa(lp46
I32
aI40
ag42
a(lp47
g15
ag42
aaa(lp48
I32
aI40
ag42
a(lp49
g5
ag42
aaa(lp50
I42
aI47
aS'posted'
p51
a(lp52
g42
ag51
aaa(lp53
I42
aI47
ag51
a(lp54
g33
ag51
aaa(lp55
I42
aI47
ag51
a(lp56
g24
ag51
aaa(lp57
I42
aI47
ag51
a(lp58
g15
ag51
aaa(lp59
I52
aI53
aS'17'
p60
a(lp61
g51
ag60
aaa(lp62
I52
aI53
ag60
a(lp63
g42
ag60
aaa(lp64
I52
aI53
ag60
a(lp65
g33
ag60
aaa(lp66
I52
aI53
ag60
a(lp67
g24
ag60
aaa(lp68
I56
aI58
aS'feb'
p69
a(lp70
g60
ag69
aaa(lp71
I56
aI58
ag69
a(lp72
g51
ag69
aaa(lp73
I56
aI58
ag69
a(lp74
g42
ag69
aaa(lp75
I56
aI58
ag69
a(lp76
g33
ag69
aaa(lp77
I61
aI64
aS'2009'
p78
a(lp79
g69
ag78
aaa(lp80
I61
aI64
ag78
a(lp81
g60
ag78
aaa(lp82
I61
aI64
ag78
a(lp83
g51
ag78
aaa(lp84
I61
aI64
ag78
a(lp85
g42
ag78
aaa(lp86
I72
aI78
aS'sitebox'
p87
a(lp88
g78
ag87
aaa(lp89
I72
aI78
ag87
a(lp90
g69
ag87
aaa(lp91
I72
aI78
ag87
a(lp92
g60
ag87
aaa(lp93
I72
aI78
ag87
a(lp94
g51
ag87
aaa(lp95
I80
aI88
aS'tutorials'
p96
a(lp97
g87
ag96
aaa(lp98
I80
aI88
ag96
a(lp99
g78
ag96
aaa(lp100
I80
aI88
ag96
a(lp101
g69
ag96
aaa(lp102
I80
aI88
ag96
a(lp103
g60
ag96
aaa(lp104
I90
aI95
aS'flames'
p105
a(lp106
g96
ag105
aaa(lp107
I90
aI95
ag105
a(lp108
g87
ag105
aaa(lp109
I90
aI95
ag105
a(lp110
g78
ag105
aaa(lp111
I90
aI95
ag105
a(lp112
g69
ag105
aaa(lp113
I101
aI112
aS'particularly'
p114
a(lp115
g105
ag114
aaa(lp116
I101
aI112
ag114
a(lp117
g96
ag114
aaa(lp118
I101
aI112
ag114
a(lp119
g87
ag114
aaa(lp120
I101
aI112
ag114
a(lp121
g78
ag114
aaa(lp122
I114
aI117
aS'hard'
p123
a(lp124
g114
ag123
aaa(lp125
I114
aI117
ag123
a(lp126
g105
ag123
aaa(lp127
I114
aI117
ag123
a(lp128
g96
ag123
aaa(lp129
I114
aI117
ag123
a(lp130
g87
ag123
aaa(lp131
I122
aI127
aS'render'
p132
a(lp133
g123
ag132
aaa(lp134
I122
aI127
ag132
a(lp135
g114
ag132
aaa(lp136
I122
aI127
ag132
a(lp137
g105
ag132
aaa(lp138
I122
aI127
ag132
a(lp139
g96
ag132
aaa(lp140
I132
aI140
aS'photoshop'
p141
a(lp142
g132
ag141
aaa(lp143
I132
aI140
ag141
a(lp144
g123
ag141
aaa(lp145
I132
aI140
ag141
a(lp146
g114
ag141
aaa(lp147
I132
aI140
ag141
a(lp148
g105
ag141
aaa(lp149
I155
aI162
aS'tutorial'
p150
a(lp151
g141
ag150
aaa(lp152
I155
aI162
ag150
a(lp153
g132
ag150
aaa(lp154
I155
aI162
ag150
a(lp155
g123
ag150
aaa(lp156
I155
aI162
ag150
a(lp157
g114
ag150
aaa(lp158
I164
aI169
aS'i\xe2\x80\x99ll'
p159
a(lp160
g150
ag159
aaa(lp161
I164
aI169
ag159
a(lp162
g141
ag159
aaa(lp163
I164
aI169
ag159
a(lp164
g132
ag159
aaa(lp165
I164
aI169
ag159
a(lp166
g123
ag159
aaa(lp167
I171
aI174
aS'show'
p168
a(lp169
g159
ag168
aaa(lp170
I171
aI174
ag168
a(lp171
g150
ag168
aaa(lp172
I171
aI174
ag168
a(lp173
g141
ag168
aaa(lp174
I171
aI174
ag168
a(lp175
g132
ag168
aaa(lp176
I187
aI189
aS'use'
p177
a(lp178
g168
ag177
aaa(lp179
I187
aI189
ag177
a(lp180
g159
ag177
aaa(lp181
I187
aI189
ag177
a(lp182
g150
ag177
aaa(lp183
I187
aI189
ag177
a(lp184
g141
ag177
aaa(lp185
I193
aI202
aS'photograph'
p186
a(lp187
g177
ag186
aaa(lp188
I193
aI202
ag186
a(lp189
g168
ag186
aaa(lp190
I193
aI202
ag186
a(lp191
g159
ag186
aaa(lp192
I193
aI202
ag186
a(lp193
g150
ag186
aaa(lp194
I207
aI210
aS'fire'
p195
a(lp196
g186
ag195
aaa(lp197
I207
aI210
ag195
a(lp198
g177
ag195
aaa(lp199
I207
aI210
ag195
a(lp200
g168
ag195
aaa(lp201
I207
aI210
ag195
a(lp202
g159
ag195
aaa(lp203
I215
aI217
aS'set'
p204
a(lp205
g195
ag204
aaa(lp206
I215
aI217
ag204
a(lp207
g186
ag204
aaa(lp208
I215
aI217
ag204
a(lp209
g177
ag204
aaa(lp210
I215
aI217
ag204
a(lp211
g168
ag204
aaa(lp212
I219
aI222
aS'text'
p213
a(lp214
g204
ag213
aaa(lp215
I219
aI222
ag213
a(lp216
g195
ag213
aaa(lp217
I219
aI222
ag213
a(lp218
g186
ag213
aaa(lp219
I219
aI222
ag213
a(lp220
g177
ag213
aaa(lp221
I231
aI235
aS'match'
p222
a(lp223
g213
ag222
aaa(lp224
I231
aI235
ag222
a(lp225
g204
ag222
aaa(lp226
I231
aI235
ag222
a(lp227
g195
ag222
aaa(lp228
I231
aI235
ag222
a(lp229
g186
ag222
aaa(lp230
I238
aI244
aS'we\xe2\x80\x99ll'
p231
a(lp232
g222
ag231
aaa(lp233
I238
aI244
ag231
a(lp234
g213
ag231
aaa(lp235
I238
aI244
ag231
a(lp236
g204
ag231
aaa(lp237
I238
aI244
ag231
a(lp238
g195
ag231
aaa(lp239
I246
aI251
aS'render'
p240
a(lp241
g231
ag240
aaa(lp242
I246
aI251
ag240
a(lp243
g222
ag240
aaa(lp244
I246
aI251
ag240
a(lp245
g213
ag240
aaa(lp246
I246
aI251
ag240
a(lp247
g204
ag240
aaa(lp248
I257
aI260
aS'look'
p249
a(lp250
g240
ag249
aaa(lp251
I257
aI260
ag249
a(lp252
g231
ag249
aaa(lp253
I257
aI260
ag249
a(lp254
g222
ag249
aaa(lp255
I257
aI260
ag249
a(lp256
g213
ag249
aaa(lp257
I267
aI270
aS'nice'
p258
a(lp259
g249
ag258
aaa(lp260
I267
aI270
ag258
a(lp261
g240
ag258
aaa(lp262
I267
aI270
ag258
a(lp263
g231
ag258
aaa(lp264
I267
aI270
ag258
a(lp265
g222
ag258
aaa(lp266
I272
aI275
aS'dark'
p267
a(lp268
g258
ag267
aaa(lp269
I272
aI275
ag267
a(lp270
g249
ag267
aaa(lp271
I272
aI275
ag267
a(lp272
g240
ag267
aaa(lp273
I272
aI275
ag267
a(lp274
g231
ag267
aaa(lp275
I277
aI286
aS'background'
p276
a(lp277
g267
ag276
aaa(lp278
I277
aI286
ag276
a(lp279
g258
ag276
aaa(lp280
I277
aI286
ag276
a(lp281
g249
ag276
aaa(lp282
I277
aI286
ag276
a(lp283
g240
ag276
aaa(lp284
I295
aI302
aS'gorgeous'
p285
a(lp286
g276
ag285
aaa(lp287
I295
aI302
ag285
a(lp288
g267
ag285
aaa(lp289
I295
aI302
ag285
a(lp290
g258
ag285
aaa(lp291
I295
aI302
ag285
a(lp292
g249
ag285
aaa(lp293
I304
aI307
aS'text'
p294
a(lp295
g285
ag294
aaa(lp296
I304
aI307
ag294
a(lp297
g276
ag294
aaa(lp298
I304
aI307
ag294
a(lp299
g267
ag294
aaa(lp300
I304
aI307
ag294
a(lp301
g258
ag294
aaa(lp302
I309
aI314
aS'effect'
p303
a(lp304
g294
ag303
aaa(lp305
I309
aI314
ag303
a(lp306
g285
ag303
aaa(lp307
I309
aI314
ag303
a(lp308
g276
ag303
aaa(lp309
I309
aI314
ag303
a(lp310
g267
ag303
aaa(lp311
I319
aI326
aS'complete'
p312
a(lp313
g303
ag312
aaa(lp314
I319
aI326
ag312
a(lp315
g294
ag312
aaa(lp316
I319
aI326
ag312
a(lp317
g285
ag312
aaa(lp318
I319
aI326
ag312
a(lp319
g276
ag312
aaa(lp320
I332
aI336
aS'image'
p321
a(lp322
g312
ag321
aaa(lp323
I332
aI336
ag321
a(lp324
g303
ag321
aaa(lp325
I332
aI336
ag321
a(lp326
g294
ag321
aaa(lp327
I332
aI336
ag321
a(lp328
g285
ag321
aaa(lp329
I342
aI347
aS'always'
p330
a(lp331
g321
ag330
aaa(lp332
I342
aI347
ag330
a(lp333
g312
ag330
aaa(lp334
I342
aI347
ag330
a(lp335
g303
ag330
aaa(lp336
I342
aI347
ag330
a(lp337
g294
ag330
aaa(lp338
I349
aI355
aS'we\xe2\x80\x99ll'
p339
a(lp340
g330
ag339
aaa(lp341
I349
aI355
ag339
a(lp342
g321
ag339
aaa(lp343
I349
aI355
ag339
a(lp344
g312
ag339
aaa(lp345
I349
aI355
ag339
a(lp346
g303
ag339
aaa(lp347
I357
aI361
aS'begin'
p348
a(lp349
g339
ag348
aaa(lp350
I357
aI361
ag348
a(lp351
g330
ag348
aaa(lp352
I357
aI361
ag348
a(lp353
g321
ag348
aaa(lp354
I357
aI361
ag348
a(lp355
g312
ag348
aaa(lp356
I372
aI376
aS'final'
p357
a(lp358
g348
ag357
aaa(lp359
I372
aI376
ag357
a(lp360
g339
ag357
aaa(lp361
I372
aI376
ag357
a(lp362
g330
ag357
aaa(lp363
I372
aI376
ag357
a(lp364
g321
ag357
aaa(lp365
I378
aI383
aS'result'
p366
a(lp367
g357
ag366
aaa(lp368
I378
aI383
ag366
a(lp369
g348
ag366
aaa(lp370
I378
aI383
ag366
a(lp371
g339
ag366
aaa(lp372
I378
aI383
ag366
a(lp373
g330
ag366
aaa(lp374
I397
aI399
aS'see'
p375
a(lp376
g366
ag375
aaa(lp377
I397
aI399
ag375
a(lp378
g357
ag375
aaa(lp379
I397
aI399
ag375
a(lp380
g348
ag375
aaa(lp381
I397
aI399
ag375
a(lp382
g339
ag375
aaa(lp383
I407
aI413
aS'we\xe2\x80\x99re'
p384
a(lp385
g375
ag384
aaa(lp386
I407
aI413
ag384
a(lp387
g366
ag384
aaa(lp388
I407
aI413
ag384
a(lp389
g357
ag384
aaa(lp390
I407
aI413
ag384
a(lp391
g348
ag384
aaa(lp392
I415
aI419
aS'going'
p393
a(lp394
g384
ag393
aaa(lp395
I415
aI419
ag393
a(lp396
g375
ag393
aaa(lp397
I415
aI419
ag393
a(lp398
g366
ag393
aaa(lp399
I415
aI419
ag393
a(lp400
g357
ag393
aaa(lp401
I422
aI427
aS'it\xe2\x80\x99s'
p402
a(lp403
g393
ag402
aaa(lp404
I422
aI427
ag402
a(lp405
g384
ag402
aaa(lp406
I422
aI427
ag402
a(lp407
g375
ag402
aaa(lp408
I422
aI427
ag402
a(lp409
g366
ag402
aaa(lp410
I434
aI437
aS'nice'
p411
a(lp412
g402
ag411
aaa(lp413
I434
aI437
ag411
a(lp414
g393
ag411
aaa(lp415
I434
aI437
ag411
a(lp416
g384
ag411
aaa(lp417
I434
aI437
ag411
a(lp418
g375
ag411
aaa(lp419
I439
aI441
aS'big'
p420
a(lp421
g411
ag420
aaa(lp422
I439
aI441
ag420
a(lp423
g402
ag420
aaa(lp424
I439
aI441
ag420
a(lp425
g393
ag420
aaa(lp426
I439
aI441
ag420
a(lp427
g384
ag420
aaa(lp428
I443
aI448
aS'canvas'
p429
a(lp430
g420
ag429
aaa(lp431
I443
aI448
ag429
a(lp432
g411
ag429
aaa(lp433
I443
aI448
ag429
a(lp434
g402
ag429
aaa(lp435
I443
aI448
ag429
a(lp436
g393
ag429
aaa(lp437
I460
aI464
aS'serve'
p438
a(lp439
g429
ag438
aaa(lp440
I460
aI464
ag438
a(lp441
g420
ag438
aaa(lp442
I460
aI464
ag438
a(lp443
g411
ag438
aaa(lp444
I460
aI464
ag438
a(lp445
g402
ag438
aaa(lp446
I473
aI479
aS'desktop'
p447
a(lp448
g438
ag447
aaa(lp449
I473
aI479
ag447
a(lp450
g429
ag447
aaa(lp451
I473
aI479
ag447
a(lp452
g420
ag447
aaa(lp453
I473
aI479
ag447
a(lp454
g411
ag447
aaa(lp455
I481
aI490
aS'background'
p456
a(lp457
g447
ag456
aaa(lp458
I481
aI490
ag456
a(lp459
g438
ag456
aaa(lp460
I481
aI490
ag456
a(lp461
g429
ag456
aaa(lp462
I481
aI490
ag456
a(lp463
g420
ag456
aaa(lp464
I498
aI503
aS'laptop'
p465
a(lp466
g456
ag465
aaa(lp467
I498
aI503
ag465
a(lp468
g447
ag465
aaa(lp469
I498
aI503
ag465
a(lp470
g438
ag465
aaa(lp471
I498
aI503
ag465
a(lp472
g429
ag465
aaa(lp473
I513
aI516
aS'next'
p474
a(lp475
g465
ag474
aaa(lp476
I513
aI516
ag474
a(lp477
g456
ag474
aaa(lp478
I513
aI516
ag474
a(lp479
g447
ag474
aaa(lp480
I513
aI516
ag474
a(lp481
g438
ag474
aaa(lp482
I518
aI521
aS'week'
p483
a(lp484
g474
ag483
aaa(lp485
I518
aI521
ag483
a(lp486
g465
ag483
aaa(lp487
I518
aI521
ag483
a(lp488
g456
ag483
aaa(lp489
I518
aI521
ag483
a(lp490
g447
ag483
aaasS'wordMap'
p491
(lp492
(lp493
I0
aI7
ag5
a(lp494
(lp495
I0
aS'd'
p496
aa(lp497
I1
aS'r'
p498
aa(lp499
I2
aS'a'
p500
aa(lp501
I3
aS'm'
p502
aa(lp503
I4
ag500
aa(lp504
I5
aS't'
p505
aa(lp506
I6
aS'i'
p507
aa(lp508
I7
aS'c'
p509
aaaa(lp510
I9
aI12
ag15
a(lp511
(lp512
I9
ag505
aa(lp513
I10
aS'e'
p514
aa(lp515
I11
aS'x'
p516
aa(lp517
I12
ag505
aaaa(lp518
I14
aI15
aS'on'
p519
a(lp520
(lp521
I14
aS'o'
p522
aa(lp523
I15
aS'n'
p524
aaaa(lp525
I17
aI20
ag24
a(lp526
(lp527
I17
aS'f'
p528
aa(lp529
I18
ag507
aa(lp530
I19
ag498
aa(lp531
I20
ag514
aaaa(lp532
I22
aI27
ag33
a(lp533
(lp534
I22
ag514
aa(lp535
I23
ag528
aa(lp536
I24
ag528
aa(lp537
I25
ag514
aa(lp538
I26
ag509
aa(lp539
I27
ag505
aaaa(lp540
I29
aI30
aS'in'
p541
a(lp542
(lp543
I29
ag507
aa(lp544
I30
ag524
aaaa(lp545
I32
aI40
ag42
a(lp546
(lp547
I32
aS'p'
p548
aa(lp549
I33
aS'h'
p550
aa(lp551
I34
ag522
aa(lp552
I35
ag505
aa(lp553
I36
ag522
aa(lp554
I37
aS's'
p555
aa(lp556
I38
ag550
aa(lp557
I39
ag522
aa(lp558
I40
ag548
aaaa(lp559
I42
aI47
ag51
a(lp560
(lp561
I42
ag548
aa(lp562
I43
ag522
aa(lp563
I44
ag555
aa(lp564
I45
ag505
aa(lp565
I46
ag514
aa(lp566
I47
ag496
aaaa(lp567
I49
aI50
aS'on'
p568
a(lp569
(lp570
I49
ag522
aa(lp571
I50
ag524
aaaa(lp572
I52
aI53
ag60
a(lp573
(lp574
I52
aS'1'
p575
aa(lp576
I53
aS'7'
p577
aaaa(lp578
I56
aI58
ag69
a(lp579
(lp580
I56
ag528
aa(lp581
I57
ag514
aa(lp582
I58
aS'b'
p583
aaaa(lp584
I61
aI64
ag78
a(lp585
(lp586
I61
aS'2'
p587
aa(lp588
I62
aS'0'
p589
aa(lp590
I63
ag589
aa(lp591
I64
aS'9'
p592
aaaa(lp593
I66
aI67
aS'by'
p594
a(lp595
(lp596
I66
ag583
aa(lp597
I67
aS'y'
p598
aaaa(lp599
I69
aI70
aS'in'
p600
a(lp601
(lp602
I69
ag507
aa(lp603
I70
ag524
aaaa(lp604
I72
aI78
ag87
a(lp605
(lp606
I72
ag555
aa(lp607
I73
ag507
aa(lp608
I74
ag505
aa(lp609
I75
ag514
aa(lp610
I76
ag583
aa(lp611
I77
ag522
aa(lp612
I78
ag516
aaaa(lp613
I80
aI88
ag96
a(lp614
(lp615
I80
ag505
aa(lp616
I81
aS'u'
p617
aa(lp618
I82
ag505
aa(lp619
I83
ag522
aa(lp620
I84
ag498
aa(lp621
I85
ag507
aa(lp622
I86
ag500
aa(lp623
I87
aS'l'
p624
aa(lp625
I88
ag555
aaaa(lp626
I90
aI95
ag105
a(lp627
(lp628
I90
ag528
aa(lp629
I91
ag624
aa(lp630
I92
ag500
aa(lp631
I93
ag502
aa(lp632
I94
ag514
aa(lp633
I95
ag555
aaaa(lp634
I97
aI99
aS'are'
p635
a(lp636
(lp637
I97
ag500
aa(lp638
I98
ag498
aa(lp639
I99
ag514
aaaa(lp640
I101
aI112
ag114
a(lp641
(lp642
I101
ag548
aa(lp643
I102
ag500
aa(lp644
I103
ag498
aa(lp645
I104
ag505
aa(lp646
I105
ag507
aa(lp647
I106
ag509
aa(lp648
I107
ag617
aa(lp649
I108
ag624
aa(lp650
I109
ag500
aa(lp651
I110
ag498
aa(lp652
I111
ag624
aa(lp653
I112
ag598
aaaa(lp654
I114
aI117
ag123
a(lp655
(lp656
I114
ag550
aa(lp657
I115
ag500
aa(lp658
I116
ag498
aa(lp659
I117
ag496
aaaa(lp660
I119
aI120
aS'to'
p661
a(lp662
(lp663
I119
ag505
aa(lp664
I120
ag522
aaaa(lp665
I122
aI127
ag132
a(lp666
(lp667
I122
ag498
aa(lp668
I123
ag514
aa(lp669
I124
ag524
aa(lp670
I125
ag496
aa(lp671
I126
ag514
aa(lp672
I127
ag498
aaaa(lp673
I129
aI130
aS'in'
p674
a(lp675
(lp676
I129
ag507
aa(lp677
I130
ag524
aaaa(lp678
I132
aI140
ag141
a(lp679
(lp680
I132
ag548
aa(lp681
I133
ag550
aa(lp682
I134
ag522
aa(lp683
I135
ag505
aa(lp684
I136
ag522
aa(lp685
I137
ag555
aa(lp686
I138
ag550
aa(lp687
I139
ag522
aa(lp688
I140
ag548
aaaa(lp689
I143
aI145
aS'but'
p690
a(lp691
(lp692
I143
ag583
aa(lp693
I144
ag617
aa(lp694
I145
ag505
aaaa(lp695
I147
aI148
aS'in'
p696
a(lp697
(lp698
I147
ag507
aa(lp699
I148
ag524
aaaa(lp700
I150
aI153
aS'this'
p701
a(lp702
(lp703
I150
ag505
aa(lp704
I151
ag550
aa(lp705
I152
ag507
aa(lp706
I153
ag555
aaaa(lp707
I155
aI162
ag150
a(lp708
(lp709
I155
ag505
aa(lp710
I156
ag617
aa(lp711
I157
ag505
aa(lp712
I158
ag522
aa(lp713
I159
ag498
aa(lp714
I160
ag507
aa(lp715
I161
ag500
aa(lp716
I162
ag624
aaaa(lp717
I164
aI169
ag159
a(lp718
(lp719
I164
ag507
aa(lp720
I165
aS'\xe2'
p721
aa(lp722
I166
aS'\x80'
p723
aa(lp724
I167
aS'\x99'
p725
aa(lp726
I168
ag624
aa(lp727
I169
ag624
aaaa(lp728
I171
aI174
ag168
a(lp729
(lp730
I171
ag555
aa(lp731
I172
ag550
aa(lp732
I173
ag522
aa(lp733
I174
aS'w'
p734
aaaa(lp735
I176
aI178
aS'you'
p736
a(lp737
(lp738
I176
ag598
aa(lp739
I177
ag522
aa(lp740
I178
ag617
aaaa(lp741
I180
aI182
aS'how'
p742
a(lp743
(lp744
I180
ag550
aa(lp745
I181
ag522
aa(lp746
I182
ag734
aaaa(lp747
I184
aI185
aS'to'
p748
a(lp749
(lp750
I184
ag505
aa(lp751
I185
ag522
aaaa(lp752
I187
aI189
ag177
a(lp753
(lp754
I187
ag617
aa(lp755
I188
ag555
aa(lp756
I189
ag514
aaaa(lp757
I191
aI191
ag500
a(lp758
(lp759
I191
ag500
aaaa(lp760
I193
aI202
ag186
a(lp761
(lp762
I193
ag548
aa(lp763
I194
ag550
aa(lp764
I195
ag522
aa(lp765
I196
ag505
aa(lp766
I197
ag522
aa(lp767
I198
aS'g'
p768
aa(lp769
I199
ag498
aa(lp770
I200
ag500
aa(lp771
I201
ag548
aa(lp772
I202
ag550
aaaa(lp773
I204
aI205
aS'of'
p774
a(lp775
(lp776
I204
ag522
aa(lp777
I205
ag528
aaaa(lp778
I207
aI210
ag195
a(lp779
(lp780
I207
ag528
aa(lp781
I208
ag507
aa(lp782
I209
ag498
aa(lp783
I210
ag514
aaaa(lp784
I212
aI213
aS'to'
p785
a(lp786
(lp787
I212
ag505
aa(lp788
I213
ag522
aaaa(lp789
I215
aI217
ag204
a(lp790
(lp791
I215
ag555
aa(lp792
I216
ag514
aa(lp793
I217
ag505
aaaa(lp794
I219
aI222
ag213
a(lp795
(lp796
I219
ag505
aa(lp797
I220
ag514
aa(lp798
I221
ag516
aa(lp799
I222
ag505
aaaa(lp800
I224
aI225
aS'to'
p801
a(lp802
(lp803
I224
ag505
aa(lp804
I225
ag522
aaaa(lp805
I227
aI229
aS'the'
p806
a(lp807
(lp808
I227
ag505
aa(lp809
I228
ag550
aa(lp810
I229
ag514
aaaa(lp811
I231
aI235
ag222
a(lp812
(lp813
I231
ag502
aa(lp814
I232
ag500
aa(lp815
I233
ag505
aa(lp816
I234
ag509
aa(lp817
I235
ag550
aaaa(lp818
I238
aI244
ag231
a(lp819
(lp820
I238
ag734
aa(lp821
I239
ag514
aa(lp822
I240
ag721
aa(lp823
I241
ag723
aa(lp824
I242
ag725
aa(lp825
I243
ag624
aa(lp826
I244
ag624
aaaa(lp827
I246
aI251
ag240
a(lp828
(lp829
I246
ag498
aa(lp830
I247
ag514
aa(lp831
I248
ag524
aa(lp832
I249
ag496
aa(lp833
I250
ag514
aa(lp834
I251
ag498
aaaa(lp835
I253
aI255
aS'the'
p836
a(lp837
(lp838
I253
ag505
aa(lp839
I254
ag550
aa(lp840
I255
ag514
aaaa(lp841
I257
aI260
ag249
a(lp842
(lp843
I257
ag624
aa(lp844
I258
ag522
aa(lp845
I259
ag522
aa(lp846
I260
aS'k'
p847
aaaa(lp848
I262
aI263
aS'on'
p849
a(lp850
(lp851
I262
ag522
aa(lp852
I263
ag524
aaaa(lp853
I265
aI265
ag500
a(lp854
(lp855
I265
ag500
aaaa(lp856
I267
aI270
ag258
a(lp857
(lp858
I267
ag524
aa(lp859
I268
ag507
aa(lp860
I269
ag509
aa(lp861
I270
ag514
aaaa(lp862
I272
aI275
ag267
a(lp863
(lp864
I272
ag496
aa(lp865
I273
ag500
aa(lp866
I274
ag498
aa(lp867
I275
ag847
aaaa(lp868
I277
aI286
ag276
a(lp869
(lp870
I277
ag583
aa(lp871
I278
ag500
aa(lp872
I279
ag509
aa(lp873
I280
ag847
aa(lp874
I281
ag768
aa(lp875
I282
ag498
aa(lp876
I283
ag522
aa(lp877
I284
ag617
aa(lp878
I285
ag524
aa(lp879
I286
ag496
aaaa(lp880
I288
aI291
aS'with'
p881
a(lp882
(lp883
I288
ag734
aa(lp884
I289
ag507
aa(lp885
I290
ag505
aa(lp886
I291
ag550
aaaa(lp887
I293
aI293
ag500
a(lp888
(lp889
I293
ag500
aaaa(lp890
I295
aI302
ag285
a(lp891
(lp892
I295
ag768
aa(lp893
I296
ag522
aa(lp894
I297
ag498
aa(lp895
I298
ag768
aa(lp896
I299
ag514
aa(lp897
I300
ag522
aa(lp898
I301
ag617
aa(lp899
I302
ag555
aaaa(lp900
I304
aI307
ag294
a(lp901
(lp902
I304
ag505
aa(lp903
I305
ag514
aa(lp904
I306
ag516
aa(lp905
I307
ag505
aaaa(lp906
I309
aI314
ag303
a(lp907
(lp908
I309
ag514
aa(lp909
I310
ag528
aa(lp910
I311
ag528
aa(lp911
I312
ag514
aa(lp912
I313
ag509
aa(lp913
I314
ag505
aaaa(lp914
I316
aI317
aS'to'
p915
a(lp916
(lp917
I316
ag505
aa(lp918
I317
ag522
aaaa(lp919
I319
aI326
ag312
a(lp920
(lp921
I319
ag509
aa(lp922
I320
ag522
aa(lp923
I321
ag502
aa(lp924
I322
ag548
aa(lp925
I323
ag624
aa(lp926
I324
ag514
aa(lp927
I325
ag505
aa(lp928
I326
ag514
aaaa(lp929
I328
aI330
aS'the'
p930
a(lp931
(lp932
I328
ag505
aa(lp933
I329
ag550
aa(lp934
I330
ag514
aaaa(lp935
I332
aI336
ag321
a(lp936
(lp937
I332
ag507
aa(lp938
I333
ag502
aa(lp939
I334
ag500
aa(lp940
I335
ag768
aa(lp941
I336
ag514
aaaa(lp942
I339
aI340
aS'as'
p943
a(lp944
(lp945
I339
ag500
aa(lp946
I340
ag555
aaaa(lp947
I342
aI347
ag330
a(lp948
(lp949
I342
ag500
aa(lp950
I343
ag624
aa(lp951
I344
ag734
aa(lp952
I345
ag500
aa(lp953
I346
ag598
aa(lp954
I347
ag555
aaaa(lp955
I349
aI355
ag339
a(lp956
(lp957
I349
ag734
aa(lp958
I350
ag514
aa(lp959
I351
ag721
aa(lp960
I352
ag723
aa(lp961
I353
ag725
aa(lp962
I354
ag624
aa(lp963
I355
ag624
aaaa(lp964
I357
aI361
ag348
a(lp965
(lp966
I357
ag583
aa(lp967
I358
ag514
aa(lp968
I359
ag768
aa(lp969
I360
ag507
aa(lp970
I361
ag524
aaaa(lp971
I363
aI366
aS'with'
p972
a(lp973
(lp974
I363
ag734
aa(lp975
I364
ag507
aa(lp976
I365
ag505
aa(lp977
I366
ag550
aaaa(lp978
I368
aI370
aS'the'
p979
a(lp980
(lp981
I368
ag505
aa(lp982
I369
ag550
aa(lp983
I370
ag514
aaaa(lp984
I372
aI376
ag357
a(lp985
(lp986
I372
ag528
aa(lp987
I373
ag507
aa(lp988
I374
ag524
aa(lp989
I375
ag500
aa(lp990
I376
ag624
aaaa(lp991
I378
aI383
ag366
a(lp992
(lp993
I378
ag498
aa(lp994
I379
ag514
aa(lp995
I380
ag555
aa(lp996
I381
ag617
aa(lp997
I382
ag624
aa(lp998
I383
ag505
aaaa(lp999
I386
aI387
aS'so'
p1000
a(lp1001
(lp1002
I386
ag555
aa(lp1003
I387
ag522
aaaa(lp1004
I389
aI391
aS'you'
p1005
a(lp1006
(lp1007
I389
ag598
aa(lp1008
I390
ag522
aa(lp1009
I391
ag617
aaaa(lp1010
I393
aI395
aS'can'
p1011
a(lp1012
(lp1013
I393
ag509
aa(lp1014
I394
ag500
aa(lp1015
I395
ag524
aaaa(lp1016
I397
aI399
ag375
a(lp1017
(lp1018
I397
ag555
aa(lp1019
I398
ag514
aa(lp1020
I399
ag514
aaaa(lp1021
I401
aI405
aS'where'
p1022
a(lp1023
(lp1024
I401
ag734
aa(lp1025
I402
ag550
aa(lp1026
I403
ag514
aa(lp1027
I404
ag498
aa(lp1028
I405
ag514
aaaa(lp1029
I407
aI413
ag384
a(lp1030
(lp1031
I407
ag734
aa(lp1032
I408
ag514
aa(lp1033
I409
ag721
aa(lp1034
I410
ag723
aa(lp1035
I411
ag725
aa(lp1036
I412
ag498
aa(lp1037
I413
ag514
aaaa(lp1038
I415
aI419
ag393
a(lp1039
(lp1040
I415
ag768
aa(lp1041
I416
ag522
aa(lp1042
I417
ag507
aa(lp1043
I418
ag524
aa(lp1044
I419
ag768
aaaa(lp1045
I422
aI427
ag402
a(lp1046
(lp1047
I422
ag507
aa(lp1048
I423
ag505
aa(lp1049
I424
ag721
aa(lp1050
I425
ag723
aa(lp1051
I426
ag725
aa(lp1052
I427
ag555
aaaa(lp1053
I429
aI430
aS'on'
p1054
a(lp1055
(lp1056
I429
ag522
aa(lp1057
I430
ag524
aaaa(lp1058
I432
aI432
ag500
a(lp1059
(lp1060
I432
ag500
aaaa(lp1061
I434
aI437
ag411
a(lp1062
(lp1063
I434
ag524
aa(lp1064
I435
ag507
aa(lp1065
I436
ag509
aa(lp1066
I437
ag514
aaaa(lp1067
I439
aI441
ag420
a(lp1068
(lp1069
I439
ag583
aa(lp1070
I440
ag507
aa(lp1071
I441
ag768
aaaa(lp1072
I443
aI448
ag429
a(lp1073
(lp1074
I443
ag509
aa(lp1075
I444
ag500
aa(lp1076
I445
ag524
aa(lp1077
I446
aS'v'
p1078
aa(lp1079
I447
ag500
aa(lp1080
I448
ag555
aaaa(lp1081
I450
aI451
aS'so'
p1082
a(lp1083
(lp1084
I450
ag555
aa(lp1085
I451
ag522
aaaa(lp1086
I453
aI454
aS'it'
p1087
a(lp1088
(lp1089
I453
ag507
aa(lp1090
I454
ag505
aaaa(lp1091
I456
aI458
aS'can'
p1092
a(lp1093
(lp1094
I456
ag509
aa(lp1095
I457
ag500
aa(lp1096
I458
ag524
aaaa(lp1097
I460
aI464
ag438
a(lp1098
(lp1099
I460
ag555
aa(lp1100
I461
ag514
aa(lp1101
I462
ag498
aa(lp1102
I463
ag1078
aa(lp1103
I464
ag514
aaaa(lp1104
I466
aI467
aS'as'
p1105
a(lp1106
(lp1107
I466
ag500
aa(lp1108
I467
ag555
aaaa(lp1109
I469
aI471
aS'the'
p1110
a(lp1111
(lp1112
I469
ag505
aa(lp1113
I470
ag550
aa(lp1114
I471
ag514
aaaa(lp1115
I473
aI479
ag447
a(lp1116
(lp1117
I473
ag496
aa(lp1118
I474
ag514
aa(lp1119
I475
ag555
aa(lp1120
I476
ag847
aa(lp1121
I477
ag505
aa(lp1122
I478
ag522
aa(lp1123
I479
ag548
aaaa(lp1124
I481
aI490
ag456
a(lp1125
(lp1126
I481
ag583
aa(lp1127
I482
ag500
aa(lp1128
I483
ag509
aa(lp1129
I484
ag847
aa(lp1130
I485
ag768
aa(lp1131
I486
ag498
aa(lp1132
I487
ag522
aa(lp1133
I488
ag617
aa(lp1134
I489
ag524
aa(lp1135
I490
ag496
aaaa(lp1136
I492
aI493
aS'on'
p1137
a(lp1138
(lp1139
I492
ag522
aa(lp1140
I493
ag524
aaaa(lp1141
I495
aI496
aS'my'
p1142
a(lp1143
(lp1144
I495
ag502
aa(lp1145
I496
ag598
aaaa(lp1146
I498
aI503
ag465
a(lp1147
(lp1148
I498
ag624
aa(lp1149
I499
ag500
aa(lp1150
I500
ag548
aa(lp1151
I501
ag505
aa(lp1152
I502
ag522
aa(lp1153
I503
ag548
aaaa(lp1154
I505
aI507
aS'for'
p1155
a(lp1156
(lp1157
I505
ag528
aa(lp1158
I506
ag522
aa(lp1159
I507
ag498
aaaa(lp1160
I509
aI511
aS'the'
p1161
a(lp1162
(lp1163
I509
ag505
aa(lp1164
I510
ag550
aa(lp1165
I511
ag514
aaaa(lp1166
I513
aI516
ag474
a(lp1167
(lp1168
I513
ag524
aa(lp1169
I514
ag514
aa(lp1170
I515
ag516
aa(lp1171
I516
ag505
aaaa(lp1172
I518
aI521
ag483
a(lp1173
(lp1174
I518
ag734
aa(lp1175
I519
ag514
aa(lp1176
I520
ag514
aa(lp1177
I521
ag847
aaaa(lp1178
I523
aI524
aS'or'
p1179
a(lp1180
(lp1181
I523
ag522
aa(lp1182
I524
ag498
aaaasS'cleanCharacterMap'
p1183
(lp1184
g495
ag497
ag499
ag501
ag503
ag504
ag506
ag508
a(lp1185
I8
aS' '
p1186
aag512
ag513
ag515
ag517
a(lp1187
I13
ag1186
aag521
ag523
a(lp1188
I16
ag1186
aag527
ag529
ag530
ag531
a(lp1189
I21
ag1186
aag534
ag535
ag536
ag537
ag538
ag539
a(lp1190
I28
ag1186
aag543
ag544
a(lp1191
I31
ag1186
aag547
ag549
ag551
ag552
ag553
ag554
ag556
ag557
ag558
a(lp1192
I41
ag1186
aag561
ag562
ag563
ag564
ag565
ag566
a(lp1193
I48
ag1186
aag570
ag571
a(lp1194
I51
ag1186
aag574
ag576
a(lp1195
I55
ag1186
aag580
ag581
ag582
a(lp1196
I60
ag1186
aag586
ag588
ag590
ag591
a(lp1197
I65
ag1186
aag596
ag597
a(lp1198
I68
ag1186
aag602
ag603
a(lp1199
I71
ag1186
aag606
ag607
ag608
ag609
ag610
ag611
ag612
a(lp1200
I79
ag1186
aag615
ag616
ag618
ag619
ag620
ag621
ag622
ag623
ag625
a(lp1201
I89
ag1186
aag628
ag629
ag630
ag631
ag632
ag633
a(lp1202
I96
ag1186
aag637
ag638
ag639
a(lp1203
I100
ag1186
aag642
ag643
ag644
ag645
ag646
ag647
ag648
ag649
ag650
ag651
ag652
ag653
a(lp1204
I113
ag1186
aag656
ag657
ag658
ag659
a(lp1205
I118
ag1186
aag663
ag664
a(lp1206
I121
ag1186
aag667
ag668
ag669
ag670
ag671
ag672
a(lp1207
I128
ag1186
aag676
ag677
a(lp1208
I131
ag1186
aag680
ag681
ag682
ag683
ag684
ag685
ag686
ag687
ag688
a(lp1209
I142
ag1186
aag692
ag693
ag694
a(lp1210
I146
ag1186
aag698
ag699
a(lp1211
I149
ag1186
aag703
ag704
ag705
ag706
a(lp1212
I154
ag1186
aag709
ag710
ag711
ag712
ag713
ag714
ag715
ag716
a(lp1213
I163
ag1186
aag719
ag720
ag722
ag724
ag726
ag727
a(lp1214
I170
ag1186
aag730
ag731
ag732
ag733
a(lp1215
I175
ag1186
aag738
ag739
ag740
a(lp1216
I179
ag1186
aag744
ag745
ag746
a(lp1217
I183
ag1186
aag750
ag751
a(lp1218
I186
ag1186
aag754
ag755
ag756
a(lp1219
I190
ag1186
aag759
a(lp1220
I192
ag1186
aag762
ag763
ag764
ag765
ag766
ag767
ag769
ag770
ag771
ag772
a(lp1221
I203
ag1186
aag776
ag777
a(lp1222
I206
ag1186
aag780
ag781
ag782
ag783
a(lp1223
I211
ag1186
aag787
ag788
a(lp1224
I214
ag1186
aag791
ag792
ag793
a(lp1225
I218
ag1186
aag796
ag797
ag798
ag799
a(lp1226
I223
ag1186
aag803
ag804
a(lp1227
I226
ag1186
aag808
ag809
ag810
a(lp1228
I230
ag1186
aag813
ag814
ag815
ag816
ag817
a(lp1229
I237
ag1186
aag820
ag821
ag822
ag823
ag824
ag825
ag826
a(lp1230
I245
ag1186
aag829
ag830
ag831
ag832
ag833
ag834
a(lp1231
I252
ag1186
aag838
ag839
ag840
a(lp1232
I256
ag1186
aag843
ag844
ag845
ag846
a(lp1233
I261
ag1186
aag851
ag852
a(lp1234
I264
ag1186
aag855
a(lp1235
I266
ag1186
aag858
ag859
ag860
ag861
a(lp1236
I271
ag1186
aag864
ag865
ag866
ag867
a(lp1237
I276
ag1186
aag870
ag871
ag872
ag873
ag874
ag875
ag876
ag877
ag878
ag879
a(lp1238
I287
ag1186
aag883
ag884
ag885
ag886
a(lp1239
I292
ag1186
aag889
a(lp1240
I294
ag1186
aag892
ag893
ag894
ag895
ag896
ag897
ag898
ag899
a(lp1241
I303
ag1186
aag902
ag903
ag904
ag905
a(lp1242
I308
ag1186
aag908
ag909
ag910
ag911
ag912
ag913
a(lp1243
I315
ag1186
aag917
ag918
a(lp1244
I318
ag1186
aag921
ag922
ag923
ag924
ag925
ag926
ag927
ag928
a(lp1245
I327
ag1186
aag932
ag933
ag934
a(lp1246
I331
ag1186
aag937
ag938
ag939
ag940
ag941
a(lp1247
I338
ag1186
aag945
ag946
a(lp1248
I341
ag1186
aag949
ag950
ag951
ag952
ag953
ag954
a(lp1249
I348
ag1186
aag957
ag958
ag959
ag960
ag961
ag962
ag963
a(lp1250
I356
ag1186
aag966
ag967
ag968
ag969
ag970
a(lp1251
I362
ag1186
aag974
ag975
ag976
ag977
a(lp1252
I367
ag1186
aag981
ag982
ag983
a(lp1253
I371
ag1186
aag986
ag987
ag988
ag989
ag990
a(lp1254
I377
ag1186
aag993
ag994
ag995
ag996
ag997
ag998
a(lp1255
I385
ag1186
aag1002
ag1003
a(lp1256
I388
ag1186
aag1007
ag1008
ag1009
a(lp1257
I392
ag1186
aag1013
ag1014
ag1015
a(lp1258
I396
ag1186
aag1018
ag1019
ag1020
a(lp1259
I400
ag1186
aag1024
ag1025
ag1026
ag1027
ag1028
a(lp1260
I406
ag1186
aag1031
ag1032
ag1033
ag1034
ag1035
ag1036
ag1037
a(lp1261
I414
ag1186
aag1040
ag1041
ag1042
ag1043
ag1044
a(lp1262
I421
ag1186
aag1047
ag1048
ag1049
ag1050
ag1051
ag1052
a(lp1263
I428
ag1186
aag1056
ag1057
a(lp1264
I431
ag1186
aag1060
a(lp1265
I433
ag1186
aag1063
ag1064
ag1065
ag1066
a(lp1266
I438
ag1186
aag1069
ag1070
ag1071
a(lp1267
I442
ag1186
aag1074
ag1075
ag1076
ag1077
ag1079
ag1080
a(lp1268
I449
ag1186
aag1084
ag1085
a(lp1269
I452
ag1186
aag1089
ag1090
a(lp1270
I455
ag1186
aag1094
ag1095
ag1096
a(lp1271
I459
ag1186
aag1099
ag1100
ag1101
ag1102
ag1103
a(lp1272
I465
ag1186
aag1107
ag1108
a(lp1273
I468
ag1186
aag1112
ag1113
ag1114
a(lp1274
I472
ag1186
aag1117
ag1118
ag1119
ag1120
ag1121
ag1122
ag1123
a(lp1275
I480
ag1186
aag1126
ag1127
ag1128
ag1129
ag1130
ag1131
ag1132
ag1133
ag1134
ag1135
a(lp1276
I491
ag1186
aag1139
ag1140
a(lp1277
I494
ag1186
aag1144
ag1145
a(lp1278
I497
ag1186
aag1148
ag1149
ag1150
ag1151
ag1152
ag1153
a(lp1279
I504
ag1186
aag1157
ag1158
ag1159
a(lp1280
I508
ag1186
aag1163
ag1164
ag1165
a(lp1281
I512
ag1186
aag1168
ag1169
ag1170
ag1171
a(lp1282
I517
ag1186
aag1174
ag1175
ag1176
ag1177
a(lp1283
I522
ag1186
aag1181
ag1182
a(lp1284
I525
ag1186
aa(lp1285
I526
ag555
aa(lp1286
I527
ag522
aasS'text'
p1287
S'dramatic text on fire effect in photoshop posted on 17. feb, 2009 by in sitebox tutorials flames are particularly hard to render in photoshop, but in this tutorial i\xe2\x80\x99ll show you how to use a photograph of fire to set text to the match. we\xe2\x80\x99ll render the look on a nice dark background with a gorgeous text effect to complete the image. as always we\xe2\x80\x99ll begin with the final result, so you can see where we\xe2\x80\x99re going. it\xe2\x80\x99s on a nice big canvas so it can serve as the desktop background on my laptop for the next week or so!'
p1288
sS'cleanWordMap'
p1289
(lp1290
g493
ag510
ag525
ag532
ag545
ag559
ag572
ag578
ag584
ag604
ag613
ag626
ag640
ag654
ag665
ag678
ag707
ag717
ag728
ag752
ag760
ag778
ag789
ag794
ag811
ag818
ag827
ag841
ag856
ag862
ag868
ag890
ag900
ag906
ag919
ag935
ag947
ag955
ag964
ag984
ag991
ag1016
ag1029
ag1038
ag1045
ag1061
ag1067
ag1072
ag1097
ag1115
ag1124
ag1146
ag1166
ag1172
asS'lines'
p1291
(lp1292
VDramatic Text on Fire Effect in Photoshop\u000a
p1293
aVPosted on 17. Feb, 2009 by in SiteBox Tutorials\u000a
p1294
aVFlames are particularly hard to render in Photoshop, but in this tutorial I\u2019ll show you how to use a photograph of fire to set text to the match. We\u2019ll render the look on a nice dark background with a gorgeous text effect to complete the image.\u000a
p1295
aVAs always we\u2019ll begin with the final result, so you can see where we\u2019re going. It\u2019s on a nice big canvas so it can serve as the desktop background on my laptop for the next week or so!
p1296
asS'docType'
p1297
S'src'
p1298
sS'newfmap'
p1299
(lp1300
g4
ag8
ag10
ag12
ag14
ag17
ag19
ag21
ag23
ag26
ag28
ag30
ag32
ag35
ag37
ag39
ag41
ag44
ag46
ag48
ag50
ag53
ag55
ag57
ag59
ag62
ag64
ag66
ag68
ag71
ag73
ag75
ag77
ag80
ag82
ag84
ag86
ag89
ag91
ag93
ag95
ag98
ag100
ag102
ag104
ag107
ag109
ag111
ag113
ag116
ag118
ag120
ag122
ag125
ag127
ag129
ag131
ag134
ag136
ag138
ag140
ag143
ag145
ag147
ag149
ag152
ag154
ag156
ag158
ag161
ag163
ag165
ag167
ag170
ag172
ag174
ag176
ag179
ag181
ag183
ag185
ag188
ag190
ag192
ag194
ag197
ag199
ag201
ag203
ag206
ag208
ag210
ag212
ag215
ag217
ag219
ag221
ag224
ag226
ag228
ag230
ag233
ag235
ag237
ag239
ag242
ag244
ag246
ag248
ag251
ag253
ag255
ag257
ag260
ag262
ag264
ag266
ag269
ag271
ag273
ag275
ag278
ag280
ag282
ag284
ag287
ag289
ag291
ag293
ag296
ag298
ag300
ag302
ag305
ag307
ag309
ag311
ag314
ag316
ag318
ag320
ag323
ag325
ag327
ag329
ag332
ag334
ag336
ag338
ag341
ag343
ag345
ag347
ag350
ag352
ag354
ag356
ag359
ag361
ag363
ag365
ag368
ag370
ag372
ag374
ag377
ag379
ag381
ag383
ag386
ag388
ag390
ag392
ag395
ag397
ag399
ag401
ag404
ag406
ag408
ag410
ag413
ag415
ag417
ag419
ag422
ag424
ag426
ag428
ag431
ag433
ag435
ag437
ag440
ag442
ag444
ag446
ag449
ag451
ag453
ag455
ag458
ag460
ag462
ag464
ag467
ag469
ag471
ag473
ag476
ag478
ag480
ag482
ag485
ag487
ag489
asS'featureMap'
p1301
(lp1302
(lp1303
I0
aI7
ag5
ag6
ag9
ag11
ag13
aa(lp1304
I9
aI12
ag15
ag16
ag18
ag20
ag22
aa(lp1305
I17
aI20
ag24
ag25
ag27
ag29
ag31
aa(lp1306
I22
aI27
ag33
ag34
ag36
ag38
ag40
aa(lp1307
I32
aI40
ag42
ag43
ag45
ag47
ag49
aa(lp1308
I42
aI47
ag51
ag52
ag54
ag56
ag58
aa(lp1309
I52
aI53
ag60
ag61
ag63
ag65
ag67
aa(lp1310
I56
aI58
ag69
ag70
ag72
ag74
ag76
aa(lp1311
I61
aI64
ag78
ag79
ag81
ag83
ag85
aa(lp1312
I72
aI78
ag87
ag88
ag90
ag92
ag94
aa(lp1313
I80
aI88
ag96
ag97
ag99
ag101
ag103
aa(lp1314
I90
aI95
ag105
ag106
ag108
ag110
ag112
aa(lp1315
I101
aI112
ag114
ag115
ag117
ag119
ag121
aa(lp1316
I114
aI117
ag123
ag124
ag126
ag128
ag130
aa(lp1317
I122
aI127
ag132
ag133
ag135
ag137
ag139
aa(lp1318
I132
aI140
ag141
ag142
ag144
ag146
ag148
aa(lp1319
I155
aI162
ag150
ag151
ag153
ag155
ag157
aa(lp1320
I164
aI169
ag159
ag160
ag162
ag164
ag166
aa(lp1321
I171
aI174
ag168
ag169
ag171
ag173
ag175
aa(lp1322
I187
aI189
ag177
ag178
ag180
ag182
ag184
aa(lp1323
I193
aI202
ag186
ag187
ag189
ag191
ag193
aa(lp1324
I207
aI210
ag195
ag196
ag198
ag200
ag202
aa(lp1325
I215
aI217
ag204
ag205
ag207
ag209
ag211
aa(lp1326
I219
aI222
ag213
ag214
ag216
ag218
ag220
aa(lp1327
I231
aI235
ag222
ag223
ag225
ag227
ag229
aa(lp1328
I238
aI244
ag231
ag232
ag234
ag236
ag238
aa(lp1329
I246
aI251
ag240
ag241
ag243
ag245
ag247
aa(lp1330
I257
aI260
ag249
ag250
ag252
ag254
ag256
aa(lp1331
I267
aI270
ag258
ag259
ag261
ag263
ag265
aa(lp1332
I272
aI275
ag267
ag268
ag270
ag272
ag274
aa(lp1333
I277
aI286
ag276
ag277
ag279
ag281
ag283
aa(lp1334
I295
aI302
ag285
ag286
ag288
ag290
ag292
aa(lp1335
I304
aI307
ag294
ag295
ag297
ag299
ag301
aa(lp1336
I309
aI314
ag303
ag304
ag306
ag308
ag310
aa(lp1337
I319
aI326
ag312
ag313
ag315
ag317
ag319
aa(lp1338
I332
aI336
ag321
ag322
ag324
ag326
ag328
aa(lp1339
I342
aI347
ag330
ag331
ag333
ag335
ag337
aa(lp1340
I349
aI355
ag339
ag340
ag342
ag344
ag346
aa(lp1341
I357
aI361
ag348
ag349
ag351
ag353
ag355
aa(lp1342
I372
aI376
ag357
ag358
ag360
ag362
ag364
aa(lp1343
I378
aI383
ag366
ag367
ag369
ag371
ag373
aa(lp1344
I397
aI399
ag375
ag376
ag378
ag380
ag382
aa(lp1345
I407
aI413
ag384
ag385
ag387
ag389
ag391
aa(lp1346
I415
aI419
ag393
ag394
ag396
ag398
ag400
aa(lp1347
I422
aI427
ag402
ag403
ag405
ag407
ag409
aa(lp1348
I434
aI437
ag411
ag412
ag414
ag416
ag418
aa(lp1349
I439
aI441
ag420
ag421
ag423
ag425
ag427
aa(lp1350
I443
aI448
ag429
ag430
ag432
ag434
ag436
aa(lp1351
I460
aI464
ag438
ag439
ag441
ag443
ag445
aa(lp1352
I473
aI479
ag447
ag448
ag450
ag452
ag454
aa(lp1353
I481
aI490
ag456
ag457
ag459
ag461
ag463
aa(lp1354
I498
aI503
ag465
ag466
ag468
ag470
ag472
aa(lp1355
I513
aI516
ag474
ag475
ag477
ag479
ag481
aa(lp1356
I518
aI521
ag483
ag484
ag486
ag488
ag490
aasS'characterMap'
p1357
(lp1358
g495
ag497
ag499
ag501
ag503
ag504
ag506
ag508
ag1185
ag512
ag513
ag515
ag517
ag1187
ag521
ag523
ag1188
ag527
ag529
ag530
ag531
ag1189
ag534
ag535
ag536
ag537
ag538
ag539
ag1190
ag543
ag544
ag1191
ag547
ag549
ag551
ag552
ag553
ag554
ag556
ag557
ag558
ag1192
ag561
ag562
ag563
ag564
ag565
ag566
ag1193
ag570
ag571
ag1194
ag574
ag576
a(lp1359
I54
aS'.'
p1360
aag1195
ag580
ag581
ag582
a(lp1361
I59
aS','
p1362
aag1196
ag586
ag588
ag590
ag591
ag1197
ag596
ag597
ag1198
ag602
ag603
ag1199
ag606
ag607
ag608
ag609
ag610
ag611
ag612
ag1200
ag615
ag616
ag618
ag619
ag620
ag621
ag622
ag623
ag625
ag1201
ag628
ag629
ag630
ag631
ag632
ag633
ag1202
ag637
ag638
ag639
ag1203
ag642
ag643
ag644
ag645
ag646
ag647
ag648
ag649
ag650
ag651
ag652
ag653
ag1204
ag656
ag657
ag658
ag659
ag1205
ag663
ag664
ag1206
ag667
ag668
ag669
ag670
ag671
ag672
ag1207
ag676
ag677
ag1208
ag680
ag681
ag682
ag683
ag684
ag685
ag686
ag687
ag688
a(lp1363
I141
ag1362
aag1209
ag692
ag693
ag694
ag1210
ag698
ag699
ag1211
ag703
ag704
ag705
ag706
ag1212
ag709
ag710
ag711
ag712
ag713
ag714
ag715
ag716
ag1213
ag719
ag720
ag722
ag724
ag726
ag727
ag1214
ag730
ag731
ag732
ag733
ag1215
ag738
ag739
ag740
ag1216
ag744
ag745
ag746
ag1217
ag750
ag751
ag1218
ag754
ag755
ag756
ag1219
ag759
ag1220
ag762
ag763
ag764
ag765
ag766
ag767
ag769
ag770
ag771
ag772
ag1221
ag776
ag777
ag1222
ag780
ag781
ag782
ag783
ag1223
ag787
ag788
ag1224
ag791
ag792
ag793
ag1225
ag796
ag797
ag798
ag799
ag1226
ag803
ag804
ag1227
ag808
ag809
ag810
ag1228
ag813
ag814
ag815
ag816
ag817
a(lp1364
I236
ag1360
aag1229
ag820
ag821
ag822
ag823
ag824
ag825
ag826
ag1230
ag829
ag830
ag831
ag832
ag833
ag834
ag1231
ag838
ag839
ag840
ag1232
ag843
ag844
ag845
ag846
ag1233
ag851
ag852
ag1234
ag855
ag1235
ag858
ag859
ag860
ag861
ag1236
ag864
ag865
ag866
ag867
ag1237
ag870
ag871
ag872
ag873
ag874
ag875
ag876
ag877
ag878
ag879
ag1238
ag883
ag884
ag885
ag886
ag1239
ag889
ag1240
ag892
ag893
ag894
ag895
ag896
ag897
ag898
ag899
ag1241
ag902
ag903
ag904
ag905
ag1242
ag908
ag909
ag910
ag911
ag912
ag913
ag1243
ag917
ag918
ag1244
ag921
ag922
ag923
ag924
ag925
ag926
ag927
ag928
ag1245
ag932
ag933
ag934
ag1246
ag937
ag938
ag939
ag940
ag941
a(lp1365
I337
ag1360
aag1247
ag945
ag946
ag1248
ag949
ag950
ag951
ag952
ag953
ag954
ag1249
ag957
ag958
ag959
ag960
ag961
ag962
ag963
ag1250
ag966
ag967
ag968
ag969
ag970
ag1251
ag974
ag975
ag976
ag977
ag1252
ag981
ag982
ag983
ag1253
ag986
ag987
ag988
ag989
ag990
ag1254
ag993
ag994
ag995
ag996
ag997
ag998
a(lp1366
I384
ag1362
aag1255
ag1002
ag1003
ag1256
ag1007
ag1008
ag1009
ag1257
ag1013
ag1014
ag1015
ag1258
ag1018
ag1019
ag1020
ag1259
ag1024
ag1025
ag1026
ag1027
ag1028
ag1260
ag1031
ag1032
ag1033
ag1034
ag1035
ag1036
ag1037
ag1261
ag1040
ag1041
ag1042
ag1043
ag1044
a(lp1367
I420
ag1360
aag1262
ag1047
ag1048
ag1049
ag1050
ag1051
ag1052
ag1263
ag1056
ag1057
ag1264
ag1060
ag1265
ag1063
ag1064
ag1065
ag1066
ag1266
ag1069
ag1070
ag1071
ag1267
ag1074
ag1075
ag1076
ag1077
ag1079
ag1080
ag1268
ag1084
ag1085
ag1269
ag1089
ag1090
ag1270
ag1094
ag1095
ag1096
ag1271
ag1099
ag1100
ag1101
ag1102
ag1103
ag1272
ag1107
ag1108
ag1273
ag1112
ag1113
ag1114
ag1274
ag1117
ag1118
ag1119
ag1120
ag1121
ag1122
ag1123
ag1275
ag1126
ag1127
ag1128
ag1129
ag1130
ag1131
ag1132
ag1133
ag1134
ag1135
ag1276
ag1139
ag1140
ag1277
ag1144
ag1145
ag1278
ag1148
ag1149
ag1150
ag1151
ag1152
ag1153
ag1279
ag1157
ag1158
ag1159
ag1280
ag1163
ag1164
ag1165
ag1281
ag1168
ag1169
ag1170
ag1171
ag1282
ag1174
ag1175
ag1176
ag1177
ag1283
ag1181
ag1182
ag1284
ag1285
ag1286
a(lp1368
I528
aS'!'
p1369
aasS'docName'
p1370
S'source-document00708.txt'
p1371
sb.