(iModel.Document
Document
p0
(dp1
S'fmap'
p2
(lp3
(lp4
I0
aI8
aS'traveling'
p5
a(lp6
S'*'
p7
ag5
aaa(lp8
I0
aI8
ag5
a(lp9
g7
ag5
aaa(lp10
I0
aI8
ag5
a(lp11
g7
ag5
aaa(lp12
I0
aI8
ag5
a(lp13
g7
ag5
aaa(lp14
I15
aI18
aS'food'
p15
a(lp16
g5
ag15
aaa(lp17
I15
aI18
ag15
a(lp18
g7
ag15
aaa(lp19
I15
aI18
ag15
a(lp20
g7
ag15
aaa(lp21
I15
aI18
ag15
a(lp22
g7
ag15
aaa(lp23
I23
aI27
aS'gifts'
p24
a(lp25
g15
ag24
aaa(lp26
I23
aI27
ag24
a(lp27
g5
ag24
aaa(lp28
I23
aI27
ag24
a(lp29
g7
ag24
aaa(lp30
I23
aI27
ag24
a(lp31
g7
ag24
aaa(lp32
I36
aI39
aS'pack'
p33
a(lp34
g24
ag33
aaa(lp35
I36
aI39
ag33
a(lp36
g15
ag33
aaa(lp37
I36
aI39
ag33
a(lp38
g5
ag33
aaa(lp39
I36
aI39
ag33
a(lp40
g7
ag33
aaa(lp41
I41
aI44
aS'food'
p42
a(lp43
g33
ag42
aaa(lp44
I41
aI44
ag42
a(lp45
g24
ag42
aaa(lp46
I41
aI44
ag42
a(lp47
g15
ag42
aaa(lp48
I41
aI44
ag42
a(lp49
g5
ag42
aaa(lp50
I50
aI53
aS'gift'
p51
a(lp52
g42
ag51
aaa(lp53
I50
aI53
ag51
a(lp54
g33
ag51
aaa(lp55
I50
aI53
ag51
a(lp56
g24
ag51
aaa(lp57
I50
aI53
ag51
a(lp58
g15
ag51
aaa(lp59
I55
aI59
aS'items'
p60
a(lp61
g51
ag60
aaa(lp62
I55
aI59
ag60
a(lp63
g42
ag60
aaa(lp64
I55
aI59
ag60
a(lp65
g33
ag60
aaa(lp66
I55
aI59
ag60
a(lp67
g24
ag60
aaa(lp68
I69
aI73
aS'comes'
p69
a(lp70
g60
ag69
aaa(lp71
I69
aI73
ag69
a(lp72
g51
ag69
aaa(lp73
I69
aI73
ag69
a(lp74
g42
ag69
aaa(lp75
I69
aI73
ag69
a(lp76
g33
ag69
aaa(lp77
I78
aI85
aS'bringing'
p78
a(lp79
g69
ag78
aaa(lp80
I78
aI85
ag78
a(lp81
g60
ag78
aaa(lp82
I78
aI85
ag78
a(lp83
g51
ag78
aaa(lp84
I78
aI85
ag78
a(lp85
g42
ag78
aaa(lp86
I87
aI91
aS'items'
p87
a(lp88
g78
ag87
aaa(lp89
I87
aI91
ag87
a(lp90
g69
ag87
aaa(lp91
I87
aI91
ag87
a(lp92
g60
ag87
aaa(lp93
I87
aI91
ag87
a(lp94
g51
ag87
aaa(lp95
I101
aI111
aS'checkpoints'
p96
a(lp97
g87
ag96
aaa(lp98
I101
aI111
ag96
a(lp99
g78
ag96
aaa(lp100
I101
aI111
ag96
a(lp101
g69
ag96
aaa(lp102
I101
aI111
ag96
a(lp103
g60
ag96
aaa(lp104
I114
aI118
aS'weve'
p105
a(lp106
g96
ag105
aaa(lp107
I114
aI118
ag105
a(lp108
g87
ag105
aaa(lp109
I114
aI118
ag105
a(lp110
g78
ag105
aaa(lp111
I114
aI118
ag105
a(lp112
g69
ag105
aaa(lp113
I120
aI123
aS'seen'
p114
a(lp115
g105
ag114
aaa(lp116
I120
aI123
ag114
a(lp117
g96
ag114
aaa(lp118
I120
aI123
ag114
a(lp119
g87
ag114
aaa(lp120
I120
aI123
ag114
a(lp121
g78
ag114
aaa(lp122
I136
aI145
aS'everything'
p123
a(lp124
g114
ag123
aaa(lp125
I136
aI145
ag123
a(lp126
g105
ag123
aaa(lp127
I136
aI145
ag123
a(lp128
g96
ag123
aaa(lp129
I136
aI145
ag123
a(lp130
g87
ag123
aaa(lp131
I148
aI156
aS'traveling'
p132
a(lp133
g123
ag132
aaa(lp134
I148
aI156
ag132
a(lp135
g114
ag132
aaa(lp136
I148
aI156
ag132
a(lp137
g105
ag132
aaa(lp138
I148
aI156
ag132
a(lp139
g96
ag132
aaa(lp140
I163
aI166
aS'food'
p141
a(lp142
g132
ag141
aaa(lp143
I163
aI166
ag141
a(lp144
g123
ag141
aaa(lp145
I163
aI166
ag141
a(lp146
g114
ag141
aaa(lp147
I163
aI166
ag141
a(lp148
g105
ag141
aaa(lp149
I171
aI175
aS'gifts'
p150
a(lp151
g141
ag150
aaa(lp152
I171
aI175
ag150
a(lp153
g132
ag150
aaa(lp154
I171
aI175
ag150
a(lp155
g123
ag150
aaa(lp156
I171
aI175
ag150
a(lp157
g114
ag150
aaa(lp158
I183
aI186
aS'even'
p159
a(lp160
g150
ag159
aaa(lp161
I183
aI186
ag159
a(lp162
g141
ag159
aaa(lp163
I183
aI186
ag159
a(lp164
g132
ag159
aaa(lp165
I183
aI186
ag159
a(lp166
g123
ag159
aaa(lp167
I188
aI193
aS'bigger'
p168
a(lp169
g159
ag168
aaa(lp170
I188
aI193
ag168
a(lp171
g150
ag168
aaa(lp172
I188
aI193
ag168
a(lp173
g141
ag168
aaa(lp174
I188
aI193
ag168
a(lp175
g132
ag168
aaa(lp176
I195
aI203
aS'challenge'
p177
a(lp178
g168
ag177
aaa(lp179
I195
aI203
ag177
a(lp180
g159
ag177
aaa(lp181
I195
aI203
ag177
a(lp182
g150
ag177
aaa(lp183
I195
aI203
ag177
a(lp184
g141
ag177
aaa(lp185
I206
aI213
aS'everyone'
p186
a(lp187
g177
ag186
aaa(lp188
I206
aI213
ag186
a(lp189
g168
ag186
aaa(lp190
I206
aI213
ag186
a(lp191
g159
ag186
aaa(lp192
I206
aI213
ag186
a(lp193
g150
ag186
aaa(lp194
I219
aI226
aS'favorite'
p195
a(lp196
g186
ag195
aaa(lp197
I219
aI226
ag195
a(lp198
g177
ag195
aaa(lp199
I219
aI226
ag195
a(lp200
g168
ag195
aaa(lp201
I219
aI226
ag195
a(lp202
g159
ag195
aaa(lp203
I228
aI232
aS'foods'
p204
a(lp205
g195
ag204
aaa(lp206
I228
aI232
ag204
a(lp207
g186
ag204
aaa(lp208
I228
aI232
ag204
a(lp209
g177
ag204
aaa(lp210
I228
aI232
ag204
a(lp211
g168
ag204
aaa(lp212
I239
aI242
aS'home'
p213
a(lp214
g204
ag213
aaa(lp215
I239
aI242
ag213
a(lp216
g195
ag213
aaa(lp217
I239
aI242
ag213
a(lp218
g186
ag213
aaa(lp219
I239
aI242
ag213
a(lp220
g177
ag213
aaa(lp221
I254
aI257
aS'want'
p222
a(lp223
g213
ag222
aaa(lp224
I254
aI257
ag222
a(lp225
g204
ag222
aaa(lp226
I254
aI257
ag222
a(lp227
g195
ag222
aaa(lp228
I254
aI257
ag222
a(lp229
g186
ag222
aaa(lp230
I262
aI266
aS'bring'
p231
a(lp232
g222
ag231
aaa(lp233
I262
aI266
ag231
a(lp234
g213
ag231
aaa(lp235
I262
aI266
ag231
a(lp236
g204
ag231
aaa(lp237
I262
aI266
ag231
a(lp238
g195
ag231
aaa(lp239
I271
aI277
aS'holiday'
p240
a(lp241
g231
ag240
aaa(lp242
I271
aI277
ag240
a(lp243
g222
ag240
aaa(lp244
I271
aI277
ag240
a(lp245
g213
ag240
aaa(lp246
I271
aI277
ag240
a(lp247
g204
ag240
aaa(lp248
I279
aI285
aS'dinners'
p249
a(lp250
g240
ag249
aaa(lp251
I279
aI285
ag249
a(lp252
g231
ag249
aaa(lp253
I279
aI285
ag249
a(lp254
g222
ag249
aaa(lp255
I279
aI285
ag249
a(lp256
g213
ag249
aaa(lp257
I291
aI295
aS'items'
p258
a(lp259
g249
ag258
aaa(lp260
I291
aI295
ag258
a(lp261
g240
ag258
aaa(lp262
I291
aI295
ag258
a(lp263
g231
ag258
aaa(lp264
I291
aI295
ag258
a(lp265
g222
ag258
aaa(lp266
I308
aI318
aS'destination'
p267
a(lp268
g258
ag267
aaa(lp269
I308
aI318
ag267
a(lp270
g249
ag267
aaa(lp271
I308
aI318
ag267
a(lp272
g240
ag267
aaa(lp273
I308
aI318
ag267
a(lp274
g231
ag267
aaa(lp275
I330
aI333
aS'want'
p276
a(lp277
g267
ag276
aaa(lp278
I330
aI333
ag276
a(lp279
g258
ag276
aaa(lp280
I330
aI333
ag276
a(lp281
g249
ag276
aaa(lp282
I330
aI333
ag276
a(lp283
g240
ag276
aaa(lp284
I338
aI342
aS'bring'
p285
a(lp286
g276
ag285
aaa(lp287
I338
aI342
ag285
a(lp288
g267
ag285
aaa(lp289
I338
aI342
ag285
a(lp290
g258
ag285
aaa(lp291
I338
aI342
ag285
a(lp292
g249
ag285
aaa(lp293
I344
aI347
aS'back'
p294
a(lp295
g285
ag294
aaa(lp296
I344
aI347
ag294
a(lp297
g276
ag294
aaa(lp298
I344
aI347
ag294
a(lp299
g267
ag294
aaa(lp300
I344
aI347
ag294
a(lp301
g258
ag294
aaa(lp302
I349
aI352
aS'home'
p303
a(lp304
g294
ag303
aaa(lp305
I349
aI352
ag303
a(lp306
g285
ag303
aaa(lp307
I349
aI352
ag303
a(lp308
g276
ag303
aaa(lp309
I349
aI352
ag303
a(lp310
g267
ag303
aaa(lp311
I359
aI362
aS'sure'
p312
a(lp313
g303
ag312
aaa(lp314
I359
aI362
ag312
a(lp315
g294
ag312
aaa(lp316
I359
aI362
ag312
a(lp317
g285
ag312
aaa(lp318
I359
aI362
ag312
a(lp319
g276
ag312
aaa(lp320
I387
aI391
aS'cant'
p321
a(lp322
g312
ag321
aaa(lp323
I387
aI391
ag321
a(lp324
g303
ag321
aaa(lp325
I387
aI391
ag321
a(lp326
g294
ag321
aaa(lp327
I387
aI391
ag321
a(lp328
g285
ag321
aaa(lp329
I393
aI397
aS'bring'
p330
a(lp331
g321
ag330
aaa(lp332
I393
aI397
ag330
a(lp333
g312
ag330
aaa(lp334
I393
aI397
ag330
a(lp335
g303
ag330
aaa(lp336
I393
aI397
ag330
a(lp337
g294
ag330
aaa(lp338
I411
aI420
aS'checkpoint'
p339
a(lp340
g330
ag339
aaa(lp341
I411
aI420
ag339
a(lp342
g321
ag339
aaa(lp343
I411
aI420
ag339
a(lp344
g312
ag339
aaa(lp345
I411
aI420
ag339
a(lp346
g303
ag339
aaa(lp347
I423
aI428
aS'heres'
p348
a(lp349
g339
ag348
aaa(lp350
I423
aI428
ag348
a(lp351
g330
ag348
aaa(lp352
I423
aI428
ag348
a(lp353
g321
ag348
aaa(lp354
I423
aI428
ag348
a(lp355
g312
ag348
aaa(lp356
I432
aI435
aS'list'
p357
a(lp358
g348
ag357
aaa(lp359
I432
aI435
ag357
a(lp360
g339
ag357
aaa(lp361
I432
aI435
ag357
a(lp362
g330
ag357
aaa(lp363
I432
aI435
ag357
a(lp364
g321
ag357
aaa(lp365
I440
aI445
aS'liquid'
p366
a(lp367
g357
ag366
aaa(lp368
I440
aI445
ag366
a(lp369
g348
ag366
aaa(lp370
I440
aI445
ag366
a(lp371
g339
ag366
aaa(lp372
I440
aI445
ag366
a(lp373
g330
ag366
aaa(lp374
I448
aI454
aS'aerosol'
p375
a(lp376
g366
ag375
aaa(lp377
I448
aI454
ag375
a(lp378
g357
ag375
aaa(lp379
I448
aI454
ag375
a(lp380
g348
ag375
aaa(lp381
I448
aI454
ag375
a(lp382
g339
ag375
aaa(lp383
I460
aI462
aS'gel'
p384
a(lp385
g375
ag384
aaa(lp386
I460
aI462
ag384
a(lp387
g366
ag384
aaa(lp388
I460
aI462
ag384
a(lp389
g357
ag384
aaa(lp390
I460
aI462
ag384
a(lp391
g348
ag384
aaa(lp392
I464
aI468
aS'items'
p393
a(lp394
g384
ag393
aaa(lp395
I464
aI468
ag393
a(lp396
g375
ag393
aaa(lp397
I464
aI468
ag393
a(lp398
g366
ag393
aaa(lp399
I464
aI468
ag393
a(lp400
g357
ag393
aaa(lp401
I487
aI489
aS'put'
p402
a(lp403
g393
ag402
aaa(lp404
I487
aI489
ag402
a(lp405
g384
ag402
aaa(lp406
I487
aI489
ag402
a(lp407
g375
ag402
aaa(lp408
I487
aI489
ag402
a(lp409
g366
ag402
aaa(lp410
I499
aI505
aS'checked'
p411
a(lp412
g402
ag411
aaa(lp413
I499
aI505
ag411
a(lp414
g393
ag411
aaa(lp415
I499
aI505
ag411
a(lp416
g384
ag411
aaa(lp417
I499
aI505
ag411
a(lp418
g375
ag411
aaa(lp419
I507
aI509
aS'bag'
p420
a(lp421
g411
ag420
aaa(lp422
I507
aI509
ag420
a(lp423
g402
ag420
aaa(lp424
I507
aI509
ag420
a(lp425
g393
ag420
aaa(lp426
I507
aI509
ag420
a(lp427
g384
ag420
aaa(lp428
I512
aI515
aS'ship'
p429
a(lp430
g420
ag429
aaa(lp431
I512
aI515
ag429
a(lp432
g411
ag429
aaa(lp433
I512
aI515
ag429
a(lp434
g402
ag429
aaa(lp435
I512
aI515
ag429
a(lp436
g393
ag429
aaa(lp437
I517
aI521
aS'ahead'
p438
a(lp439
g429
ag438
aaa(lp440
I517
aI521
ag438
a(lp441
g420
ag438
aaa(lp442
I517
aI521
ag438
a(lp443
g411
ag438
aaa(lp444
I517
aI521
ag438
a(lp445
g402
ag438
aaa(lp446
I527
aI531
aS'leave'
p447
a(lp448
g438
ag447
aaa(lp449
I527
aI531
ag447
a(lp450
g429
ag447
aaa(lp451
I527
aI531
ag447
a(lp452
g420
ag447
aaa(lp453
I527
aI531
ag447
a(lp454
g411
ag447
aaa(lp455
I536
aI539
aS'home'
p456
a(lp457
g447
ag456
aaa(lp458
I536
aI539
ag456
a(lp459
g438
ag456
aaa(lp460
I536
aI539
ag456
a(lp461
g429
ag456
aaa(lp462
I536
aI539
ag456
a(lp463
g420
ag456
aaa(lp464
I541
aI549
aS'cranberry'
p465
a(lp466
g456
ag465
aaa(lp467
I541
aI549
ag465
a(lp468
g447
ag465
aaa(lp469
I541
aI549
ag465
a(lp470
g438
ag465
aaa(lp471
I541
aI549
ag465
a(lp472
g429
ag465
aaa(lp473
I551
aI555
aS'sauce'
p474
a(lp475
g465
ag474
aaa(lp476
I551
aI555
ag474
a(lp477
g456
ag474
aaa(lp478
I551
aI555
ag474
a(lp479
g447
ag474
aaa(lp480
I551
aI555
ag474
a(lp481
g438
ag474
aaa(lp482
I557
aI562
aS'creamy'
p483
a(lp484
g474
ag483
aaa(lp485
I557
aI562
ag483
a(lp486
g465
ag483
aaa(lp487
I557
aI562
ag483
a(lp488
g456
ag483
aaa(lp489
I557
aI562
ag483
a(lp490
g447
ag483
aaa(lp491
I564
aI567
aS'dips'
p492
a(lp493
g483
ag492
aaa(lp494
I564
aI567
ag492
a(lp495
g474
ag492
aaa(lp496
I564
aI567
ag492
a(lp497
g465
ag492
aaa(lp498
I564
aI567
ag492
a(lp499
g456
ag492
aaa(lp500
I573
aI579
aS'spreads'
p501
a(lp502
g492
ag501
aaa(lp503
I573
aI579
ag501
a(lp504
g483
ag501
aaa(lp505
I573
aI579
ag501
a(lp506
g474
ag501
aaa(lp507
I573
aI579
ag501
a(lp508
g465
ag501
aaa(lp509
I582
aI588
aS'cheeses'
p510
a(lp511
g501
ag510
aaa(lp512
I582
aI588
ag510
a(lp513
g492
ag510
aaa(lp514
I582
aI588
ag510
a(lp515
g483
ag510
aaa(lp516
I582
aI588
ag510
a(lp517
g474
ag510
aaa(lp518
I591
aI596
aS'peanut'
p519
a(lp520
g510
ag519
aaa(lp521
I591
aI596
ag519
a(lp522
g501
ag519
aaa(lp523
I591
aI596
ag519
a(lp524
g492
ag519
aaa(lp525
I591
aI596
ag519
a(lp526
g483
ag519
aaa(lp527
I598
aI603
aS'butter'
p528
a(lp529
g519
ag528
aaa(lp530
I598
aI603
ag528
a(lp531
g510
ag528
aaa(lp532
I598
aI603
ag528
a(lp533
g501
ag528
aaa(lp534
I598
aI603
ag528
a(lp535
g492
ag528
aaa(lp536
I606
aI608
aS'etc'
p537
a(lp538
g528
ag537
aaa(lp539
I606
aI608
ag537
a(lp540
g519
ag537
aaa(lp541
I606
aI608
ag537
a(lp542
g510
ag537
aaa(lp543
I606
aI608
ag537
a(lp544
g501
ag537
aaa(lp545
I612
aI615
aS'gift'
p546
a(lp547
g537
ag546
aaa(lp548
I612
aI615
ag546
a(lp549
g528
ag546
aaa(lp550
I612
aI615
ag546
a(lp551
g519
ag546
aaa(lp552
I612
aI615
ag546
a(lp553
g510
ag546
aaa(lp554
I617
aI623
aS'baskets'
p555
a(lp556
g546
ag555
aaa(lp557
I617
aI623
ag555
a(lp558
g537
ag555
aaa(lp559
I617
aI623
ag555
a(lp560
g528
ag555
aaa(lp561
I617
aI623
ag555
a(lp562
g519
ag555
aaa(lp563
I630
aI633
aS'food'
p564
a(lp565
g555
ag564
aaa(lp566
I630
aI633
ag564
a(lp567
g546
ag564
aaa(lp568
I630
aI633
ag564
a(lp569
g537
ag564
aaa(lp570
I630
aI633
ag564
a(lp571
g528
ag564
aaa(lp572
I635
aI639
aS'items'
p573
a(lp574
g564
ag573
aaa(lp575
I635
aI639
ag573
a(lp576
g555
ag573
aaa(lp577
I635
aI639
ag573
a(lp578
g546
ag573
aaa(lp579
I635
aI639
ag573
a(lp580
g537
ag573
aaa(lp581
I642
aI646
aS'salsa'
p582
a(lp583
g573
ag582
aaa(lp584
I642
aI646
ag582
a(lp585
g564
ag582
aaa(lp586
I642
aI646
ag582
a(lp587
g555
ag582
aaa(lp588
I642
aI646
ag582
a(lp589
g546
ag582
aaa(lp590
I649
aI652
aS'jams'
p591
a(lp592
g582
ag591
aaa(lp593
I649
aI652
ag591
a(lp594
g573
ag591
aaa(lp595
I649
aI652
ag591
a(lp596
g564
ag591
aaa(lp597
I649
aI652
ag591
a(lp598
g555
ag591
aaa(lp599
I658
aI662
aS'salad'
p600
a(lp601
g591
ag600
aaa(lp602
I658
aI662
ag600
a(lp603
g582
ag600
aaa(lp604
I658
aI662
ag600
a(lp605
g573
ag600
aaa(lp606
I658
aI662
ag600
a(lp607
g564
ag600
aaa(lp608
I664
aI672
aS'dressings'
p609
a(lp610
g600
ag609
aaa(lp611
I664
aI672
ag609
a(lp612
g591
ag609
aaa(lp613
I664
aI672
ag609
a(lp614
g582
ag609
aaa(lp615
I664
aI672
ag609
a(lp616
g573
ag609
aaasS'wordMap'
p617
(lp618
(lp619
I0
aI8
ag5
a(lp620
(lp621
I0
aS't'
p622
aa(lp623
I1
aS'r'
p624
aa(lp625
I2
aS'a'
p626
aa(lp627
I3
aS'v'
p628
aa(lp629
I4
aS'e'
p630
aa(lp631
I5
aS'l'
p632
aa(lp633
I6
aS'i'
p634
aa(lp635
I7
aS'n'
p636
aa(lp637
I8
aS'g'
p638
aaaa(lp639
I10
aI13
aS'with'
p640
a(lp641
(lp642
I10
aS'w'
p643
aa(lp644
I11
ag634
aa(lp645
I12
ag622
aa(lp646
I13
aS'h'
p647
aaaa(lp648
I15
aI18
ag15
a(lp649
(lp650
I15
aS'f'
p651
aa(lp652
I16
aS'o'
p653
aa(lp654
I17
ag653
aa(lp655
I18
aS'd'
p656
aaaa(lp657
I20
aI21
aS'or'
p658
a(lp659
(lp660
I20
ag653
aa(lp661
I21
ag624
aaaa(lp662
I23
aI27
ag24
a(lp663
(lp664
I23
ag638
aa(lp665
I24
ag634
aa(lp666
I25
ag651
aa(lp667
I26
ag622
aa(lp668
I27
aS's'
p669
aaaa(lp670
I29
aI31
aS'how'
p671
a(lp672
(lp673
I29
ag647
aa(lp674
I30
ag653
aa(lp675
I31
ag643
aaaa(lp676
I33
aI34
aS'to'
p677
a(lp678
(lp679
I33
ag622
aa(lp680
I34
ag653
aaaa(lp681
I36
aI39
ag33
a(lp682
(lp683
I36
aS'p'
p684
aa(lp685
I37
ag626
aa(lp686
I38
aS'c'
p687
aa(lp688
I39
aS'k'
p689
aaaa(lp690
I41
aI44
ag42
a(lp691
(lp692
I41
ag651
aa(lp693
I42
ag653
aa(lp694
I43
ag653
aa(lp695
I44
ag656
aaaa(lp696
I46
aI48
aS'and'
p697
a(lp698
(lp699
I46
ag626
aa(lp700
I47
ag636
aa(lp701
I48
ag656
aaaa(lp702
I50
aI53
ag51
a(lp703
(lp704
I50
ag638
aa(lp705
I51
ag634
aa(lp706
I52
ag651
aa(lp707
I53
ag622
aaaa(lp708
I55
aI59
ag60
a(lp709
(lp710
I55
ag634
aa(lp711
I56
ag622
aa(lp712
I57
ag630
aa(lp713
I58
aS'm'
p714
aa(lp715
I59
ag669
aaaa(lp716
I61
aI64
aS'when'
p717
a(lp718
(lp719
I61
ag643
aa(lp720
I62
ag647
aa(lp721
I63
ag630
aa(lp722
I64
ag636
aaaa(lp723
I66
aI67
aS'it'
p724
a(lp725
(lp726
I66
ag634
aa(lp727
I67
ag622
aaaa(lp728
I69
aI73
ag69
a(lp729
(lp730
I69
ag687
aa(lp731
I70
ag653
aa(lp732
I71
ag714
aa(lp733
I72
ag630
aa(lp734
I73
ag669
aaaa(lp735
I75
aI76
aS'to'
p736
a(lp737
(lp738
I75
ag622
aa(lp739
I76
ag653
aaaa(lp740
I78
aI85
ag78
a(lp741
(lp742
I78
aS'b'
p743
aa(lp744
I79
ag624
aa(lp745
I80
ag634
aa(lp746
I81
ag636
aa(lp747
I82
ag638
aa(lp748
I83
ag634
aa(lp749
I84
ag636
aa(lp750
I85
ag638
aaaa(lp751
I87
aI91
ag87
a(lp752
(lp753
I87
ag634
aa(lp754
I88
ag622
aa(lp755
I89
ag630
aa(lp756
I90
ag714
aa(lp757
I91
ag669
aaaa(lp758
I93
aI99
aS'through'
p759
a(lp760
(lp761
I93
ag622
aa(lp762
I94
ag647
aa(lp763
I95
ag624
aa(lp764
I96
ag653
aa(lp765
I97
aS'u'
p766
aa(lp767
I98
ag638
aa(lp768
I99
ag647
aaaa(lp769
I101
aI111
ag96
a(lp770
(lp771
I101
ag687
aa(lp772
I102
ag647
aa(lp773
I103
ag630
aa(lp774
I104
ag687
aa(lp775
I105
ag689
aa(lp776
I106
ag684
aa(lp777
I107
ag653
aa(lp778
I108
ag634
aa(lp779
I109
ag636
aa(lp780
I110
ag622
aa(lp781
I111
ag669
aaaa(lp782
I114
aI118
ag105
a(lp783
(lp784
I114
ag643
aa(lp785
I115
ag630
aa(lp786
I117
ag628
aa(lp787
I118
ag630
aaaa(lp788
I120
aI123
ag114
a(lp789
(lp790
I120
ag669
aa(lp791
I121
ag630
aa(lp792
I122
ag630
aa(lp793
I123
ag636
aaaa(lp794
I125
aI128
aS'just'
p795
a(lp796
(lp797
I125
aS'j'
p798
aa(lp799
I126
ag766
aa(lp800
I127
ag669
aa(lp801
I128
ag622
aaaa(lp802
I130
aI134
aS'about'
p803
a(lp804
(lp805
I130
ag626
aa(lp806
I131
ag743
aa(lp807
I132
ag653
aa(lp808
I133
ag766
aa(lp809
I134
ag622
aaaa(lp810
I136
aI145
ag123
a(lp811
(lp812
I136
ag630
aa(lp813
I137
ag628
aa(lp814
I138
ag630
aa(lp815
I139
ag624
aa(lp816
I140
aS'y'
p817
aa(lp818
I141
ag622
aa(lp819
I142
ag647
aa(lp820
I143
ag634
aa(lp821
I144
ag636
aa(lp822
I145
ag638
aaaa(lp823
I148
aI156
ag132
a(lp824
(lp825
I148
ag622
aa(lp826
I149
ag624
aa(lp827
I150
ag626
aa(lp828
I151
ag628
aa(lp829
I152
ag630
aa(lp830
I153
ag632
aa(lp831
I154
ag634
aa(lp832
I155
ag636
aa(lp833
I156
ag638
aaaa(lp834
I158
aI161
aS'with'
p835
a(lp836
(lp837
I158
ag643
aa(lp838
I159
ag634
aa(lp839
I160
ag622
aa(lp840
I161
ag647
aaaa(lp841
I163
aI166
ag141
a(lp842
(lp843
I163
ag651
aa(lp844
I164
ag653
aa(lp845
I165
ag653
aa(lp846
I166
ag656
aaaa(lp847
I168
aI169
aS'or'
p848
a(lp849
(lp850
I168
ag653
aa(lp851
I169
ag624
aaaa(lp852
I171
aI175
ag150
a(lp853
(lp854
I171
ag638
aa(lp855
I172
ag634
aa(lp856
I173
ag651
aa(lp857
I174
ag622
aa(lp858
I175
ag669
aaaa(lp859
I177
aI178
aS'is'
p860
a(lp861
(lp862
I177
ag634
aa(lp863
I178
ag669
aaaa(lp864
I180
aI181
aS'an'
p865
a(lp866
(lp867
I180
ag626
aa(lp868
I181
ag636
aaaa(lp869
I183
aI186
ag159
a(lp870
(lp871
I183
ag630
aa(lp872
I184
ag628
aa(lp873
I185
ag630
aa(lp874
I186
ag636
aaaa(lp875
I188
aI193
ag168
a(lp876
(lp877
I188
ag743
aa(lp878
I189
ag634
aa(lp879
I190
ag638
aa(lp880
I191
ag638
aa(lp881
I192
ag630
aa(lp882
I193
ag624
aaaa(lp883
I195
aI203
ag177
a(lp884
(lp885
I195
ag687
aa(lp886
I196
ag647
aa(lp887
I197
ag626
aa(lp888
I198
ag632
aa(lp889
I199
ag632
aa(lp890
I200
ag630
aa(lp891
I201
ag636
aa(lp892
I202
ag638
aa(lp893
I203
ag630
aaaa(lp894
I206
aI213
ag186
a(lp895
(lp896
I206
ag630
aa(lp897
I207
ag628
aa(lp898
I208
ag630
aa(lp899
I209
ag624
aa(lp900
I210
ag817
aa(lp901
I211
ag653
aa(lp902
I212
ag636
aa(lp903
I213
ag630
aaaa(lp904
I215
aI217
aS'has'
p905
a(lp906
(lp907
I215
ag647
aa(lp908
I216
ag626
aa(lp909
I217
ag669
aaaa(lp910
I219
aI226
ag195
a(lp911
(lp912
I219
ag651
aa(lp913
I220
ag626
aa(lp914
I221
ag628
aa(lp915
I222
ag653
aa(lp916
I223
ag624
aa(lp917
I224
ag634
aa(lp918
I225
ag622
aa(lp919
I226
ag630
aaaa(lp920
I228
aI232
ag204
a(lp921
(lp922
I228
ag651
aa(lp923
I229
ag653
aa(lp924
I230
ag653
aa(lp925
I231
ag656
aa(lp926
I232
ag669
aaaa(lp927
I234
aI237
aS'from'
p928
a(lp929
(lp930
I234
ag651
aa(lp931
I235
ag624
aa(lp932
I236
ag653
aa(lp933
I237
ag714
aaaa(lp934
I239
aI242
ag213
a(lp935
(lp936
I239
ag647
aa(lp937
I240
ag653
aa(lp938
I241
ag714
aa(lp939
I242
ag630
aaaa(lp940
I244
aI247
aS'that'
p941
a(lp942
(lp943
I244
ag622
aa(lp944
I245
ag647
aa(lp945
I246
ag626
aa(lp946
I247
ag622
aaaa(lp947
I249
aI252
aS'they'
p948
a(lp949
(lp950
I249
ag622
aa(lp951
I250
ag647
aa(lp952
I251
ag630
aa(lp953
I252
ag817
aaaa(lp954
I254
aI257
ag222
a(lp955
(lp956
I254
ag643
aa(lp957
I255
ag626
aa(lp958
I256
ag636
aa(lp959
I257
ag622
aaaa(lp960
I259
aI260
aS'to'
p961
a(lp962
(lp963
I259
ag622
aa(lp964
I260
ag653
aaaa(lp965
I262
aI266
ag231
a(lp966
(lp967
I262
ag743
aa(lp968
I263
ag624
aa(lp969
I264
ag634
aa(lp970
I265
ag636
aa(lp971
I266
ag638
aaaa(lp972
I268
aI269
aS'to'
p973
a(lp974
(lp975
I268
ag622
aa(lp976
I269
ag653
aaaa(lp977
I271
aI277
ag240
a(lp978
(lp979
I271
ag647
aa(lp980
I272
ag653
aa(lp981
I273
ag632
aa(lp982
I274
ag634
aa(lp983
I275
ag656
aa(lp984
I276
ag626
aa(lp985
I277
ag817
aaaa(lp986
I279
aI285
ag249
a(lp987
(lp988
I279
ag656
aa(lp989
I280
ag634
aa(lp990
I281
ag636
aa(lp991
I282
ag636
aa(lp992
I283
ag630
aa(lp993
I284
ag624
aa(lp994
I285
ag669
aaaa(lp995
I288
aI289
aS'or'
p996
a(lp997
(lp998
I288
ag653
aa(lp999
I289
ag624
aaaa(lp1000
I291
aI295
ag258
a(lp1001
(lp1002
I291
ag634
aa(lp1003
I292
ag622
aa(lp1004
I293
ag630
aa(lp1005
I294
ag714
aa(lp1006
I295
ag669
aaaa(lp1007
I297
aI300
aS'from'
p1008
a(lp1009
(lp1010
I297
ag651
aa(lp1011
I298
ag624
aa(lp1012
I299
ag653
aa(lp1013
I300
ag714
aaaa(lp1014
I302
aI306
aS'their'
p1015
a(lp1016
(lp1017
I302
ag622
aa(lp1018
I303
ag647
aa(lp1019
I304
ag630
aa(lp1020
I305
ag634
aa(lp1021
I306
ag624
aaaa(lp1022
I308
aI318
ag267
a(lp1023
(lp1024
I308
ag656
aa(lp1025
I309
ag630
aa(lp1026
I310
ag669
aa(lp1027
I311
ag622
aa(lp1028
I312
ag634
aa(lp1029
I313
ag636
aa(lp1030
I314
ag626
aa(lp1031
I315
ag622
aa(lp1032
I316
ag634
aa(lp1033
I317
ag653
aa(lp1034
I318
ag636
aaaa(lp1035
I320
aI323
aS'that'
p1036
a(lp1037
(lp1038
I320
ag622
aa(lp1039
I321
ag647
aa(lp1040
I322
ag626
aa(lp1041
I323
ag622
aaaa(lp1042
I325
aI328
aS'they'
p1043
a(lp1044
(lp1045
I325
ag622
aa(lp1046
I326
ag647
aa(lp1047
I327
ag630
aa(lp1048
I328
ag817
aaaa(lp1049
I330
aI333
ag276
a(lp1050
(lp1051
I330
ag643
aa(lp1052
I331
ag626
aa(lp1053
I332
ag636
aa(lp1054
I333
ag622
aaaa(lp1055
I335
aI336
aS'to'
p1056
a(lp1057
(lp1058
I335
ag622
aa(lp1059
I336
ag653
aaaa(lp1060
I338
aI342
ag285
a(lp1061
(lp1062
I338
ag743
aa(lp1063
I339
ag624
aa(lp1064
I340
ag634
aa(lp1065
I341
ag636
aa(lp1066
I342
ag638
aaaa(lp1067
I344
aI347
ag294
a(lp1068
(lp1069
I344
ag743
aa(lp1070
I345
ag626
aa(lp1071
I346
ag687
aa(lp1072
I347
ag689
aaaa(lp1073
I349
aI352
ag303
a(lp1074
(lp1075
I349
ag647
aa(lp1076
I350
ag653
aa(lp1077
I351
ag714
aa(lp1078
I352
ag630
aaaa(lp1079
I355
aI357
aS'not'
p1080
a(lp1081
(lp1082
I355
ag636
aa(lp1083
I356
ag653
aa(lp1084
I357
ag622
aaaa(lp1085
I359
aI362
ag312
a(lp1086
(lp1087
I359
ag669
aa(lp1088
I360
ag766
aa(lp1089
I361
ag624
aa(lp1090
I362
ag630
aaaa(lp1091
I364
aI368
aS'about'
p1092
a(lp1093
(lp1094
I364
ag626
aa(lp1095
I365
ag743
aa(lp1096
I366
ag653
aa(lp1097
I367
ag766
aa(lp1098
I368
ag622
aaaa(lp1099
I370
aI373
aS'what'
p1100
a(lp1101
(lp1102
I370
ag643
aa(lp1103
I371
ag647
aa(lp1104
I372
ag626
aa(lp1105
I373
ag622
aaaa(lp1106
I375
aI377
aS'you'
p1107
a(lp1108
(lp1109
I375
ag817
aa(lp1110
I376
ag653
aa(lp1111
I377
ag766
aaaa(lp1112
I379
aI381
aS'can'
p1113
a(lp1114
(lp1115
I379
ag687
aa(lp1116
I380
ag626
aa(lp1117
I381
ag636
aaaa(lp1118
I383
aI385
aS'and'
p1119
a(lp1120
(lp1121
I383
ag626
aa(lp1122
I384
ag636
aa(lp1123
I385
ag656
aaaa(lp1124
I387
aI391
ag321
a(lp1125
(lp1126
I387
ag687
aa(lp1127
I388
ag626
aa(lp1128
I389
ag636
aa(lp1129
I391
ag622
aaaa(lp1130
I393
aI397
ag330
a(lp1131
(lp1132
I393
ag743
aa(lp1133
I394
ag624
aa(lp1134
I395
ag634
aa(lp1135
I396
ag636
aa(lp1136
I397
ag638
aaaa(lp1137
I399
aI405
aS'through'
p1138
a(lp1139
(lp1140
I399
ag622
aa(lp1141
I400
ag647
aa(lp1142
I401
ag624
aa(lp1143
I402
ag653
aa(lp1144
I403
ag766
aa(lp1145
I404
ag638
aa(lp1146
I405
ag647
aaaa(lp1147
I407
aI409
aS'the'
p1148
a(lp1149
(lp1150
I407
ag622
aa(lp1151
I408
ag647
aa(lp1152
I409
ag630
aaaa(lp1153
I411
aI420
ag339
a(lp1154
(lp1155
I411
ag687
aa(lp1156
I412
ag647
aa(lp1157
I413
ag630
aa(lp1158
I414
ag687
aa(lp1159
I415
ag689
aa(lp1160
I416
ag684
aa(lp1161
I417
ag653
aa(lp1162
I418
ag634
aa(lp1163
I419
ag636
aa(lp1164
I420
ag622
aaaa(lp1165
I423
aI428
ag348
a(lp1166
(lp1167
I423
ag647
aa(lp1168
I424
ag630
aa(lp1169
I425
ag624
aa(lp1170
I426
ag630
aa(lp1171
I428
ag669
aaaa(lp1172
I430
aI430
ag626
a(lp1173
(lp1174
I430
ag626
aaaa(lp1175
I432
aI435
ag357
a(lp1176
(lp1177
I432
ag632
aa(lp1178
I433
ag634
aa(lp1179
I434
ag669
aa(lp1180
I435
ag622
aaaa(lp1181
I437
aI438
aS'of'
p1182
a(lp1183
(lp1184
I437
ag653
aa(lp1185
I438
ag651
aaaa(lp1186
I440
aI445
ag366
a(lp1187
(lp1188
I440
ag632
aa(lp1189
I441
ag634
aa(lp1190
I442
aS'q'
p1191
aa(lp1192
I443
ag766
aa(lp1193
I444
ag634
aa(lp1194
I445
ag656
aaaa(lp1195
I448
aI454
ag375
a(lp1196
(lp1197
I448
ag626
aa(lp1198
I449
ag630
aa(lp1199
I450
ag624
aa(lp1200
I451
ag653
aa(lp1201
I452
ag669
aa(lp1202
I453
ag653
aa(lp1203
I454
ag632
aaaa(lp1204
I456
aI458
aS'and'
p1205
a(lp1206
(lp1207
I456
ag626
aa(lp1208
I457
ag636
aa(lp1209
I458
ag656
aaaa(lp1210
I460
aI462
ag384
a(lp1211
(lp1212
I460
ag638
aa(lp1213
I461
ag630
aa(lp1214
I462
ag632
aaaa(lp1215
I464
aI468
ag393
a(lp1216
(lp1217
I464
ag634
aa(lp1218
I465
ag622
aa(lp1219
I466
ag630
aa(lp1220
I467
ag714
aa(lp1221
I468
ag669
aaaa(lp1222
I470
aI473
aS'that'
p1223
a(lp1224
(lp1225
I470
ag622
aa(lp1226
I471
ag647
aa(lp1227
I472
ag626
aa(lp1228
I473
ag622
aaaa(lp1229
I475
aI477
aS'you'
p1230
a(lp1231
(lp1232
I475
ag817
aa(lp1233
I476
ag653
aa(lp1234
I477
ag766
aaaa(lp1235
I479
aI484
aS'should'
p1236
a(lp1237
(lp1238
I479
ag669
aa(lp1239
I480
ag647
aa(lp1240
I481
ag653
aa(lp1241
I482
ag766
aa(lp1242
I483
ag632
aa(lp1243
I484
ag656
aaaa(lp1244
I487
aI489
ag402
a(lp1245
(lp1246
I487
ag684
aa(lp1247
I488
ag766
aa(lp1248
I489
ag622
aaaa(lp1249
I491
aI492
aS'in'
p1250
a(lp1251
(lp1252
I491
ag634
aa(lp1253
I492
ag636
aaaa(lp1254
I494
aI497
aS'your'
p1255
a(lp1256
(lp1257
I494
ag817
aa(lp1258
I495
ag653
aa(lp1259
I496
ag766
aa(lp1260
I497
ag624
aaaa(lp1261
I499
aI505
ag411
a(lp1262
(lp1263
I499
ag687
aa(lp1264
I500
ag647
aa(lp1265
I501
ag630
aa(lp1266
I502
ag687
aa(lp1267
I503
ag689
aa(lp1268
I504
ag630
aa(lp1269
I505
ag656
aaaa(lp1270
I507
aI509
ag420
a(lp1271
(lp1272
I507
ag743
aa(lp1273
I508
ag626
aa(lp1274
I509
ag638
aaaa(lp1275
I512
aI515
ag429
a(lp1276
(lp1277
I512
ag669
aa(lp1278
I513
ag647
aa(lp1279
I514
ag634
aa(lp1280
I515
ag684
aaaa(lp1281
I517
aI521
ag438
a(lp1282
(lp1283
I517
ag626
aa(lp1284
I518
ag647
aa(lp1285
I519
ag630
aa(lp1286
I520
ag626
aa(lp1287
I521
ag656
aaaa(lp1288
I524
aI525
aS'or'
p1289
a(lp1290
(lp1291
I524
ag653
aa(lp1292
I525
ag624
aaaa(lp1293
I527
aI531
ag447
a(lp1294
(lp1295
I527
ag632
aa(lp1296
I528
ag630
aa(lp1297
I529
ag626
aa(lp1298
I530
ag628
aa(lp1299
I531
ag630
aaaa(lp1300
I533
aI534
aS'at'
p1301
a(lp1302
(lp1303
I533
ag626
aa(lp1304
I534
ag622
aaaa(lp1305
I536
aI539
ag456
a(lp1306
(lp1307
I536
ag647
aa(lp1308
I537
ag653
aa(lp1309
I538
ag714
aa(lp1310
I539
ag630
aaaa(lp1311
I541
aI549
ag465
a(lp1312
(lp1313
I541
ag687
aa(lp1314
I542
ag624
aa(lp1315
I543
ag626
aa(lp1316
I544
ag636
aa(lp1317
I545
ag743
aa(lp1318
I546
ag630
aa(lp1319
I547
ag624
aa(lp1320
I548
ag624
aa(lp1321
I549
ag817
aaaa(lp1322
I551
aI555
ag474
a(lp1323
(lp1324
I551
ag669
aa(lp1325
I552
ag626
aa(lp1326
I553
ag766
aa(lp1327
I554
ag687
aa(lp1328
I555
ag630
aaaa(lp1329
I557
aI562
ag483
a(lp1330
(lp1331
I557
ag687
aa(lp1332
I558
ag624
aa(lp1333
I559
ag630
aa(lp1334
I560
ag626
aa(lp1335
I561
ag714
aa(lp1336
I562
ag817
aaaa(lp1337
I564
aI567
ag492
a(lp1338
(lp1339
I564
ag656
aa(lp1340
I565
ag634
aa(lp1341
I566
ag684
aa(lp1342
I567
ag669
aaaa(lp1343
I569
aI571
aS'and'
p1344
a(lp1345
(lp1346
I569
ag626
aa(lp1347
I570
ag636
aa(lp1348
I571
ag656
aaaa(lp1349
I573
aI579
ag501
a(lp1350
(lp1351
I573
ag669
aa(lp1352
I574
ag684
aa(lp1353
I575
ag624
aa(lp1354
I576
ag630
aa(lp1355
I577
ag626
aa(lp1356
I578
ag656
aa(lp1357
I579
ag669
aaaa(lp1358
I582
aI588
ag510
a(lp1359
(lp1360
I582
ag687
aa(lp1361
I583
ag647
aa(lp1362
I584
ag630
aa(lp1363
I585
ag630
aa(lp1364
I586
ag669
aa(lp1365
I587
ag630
aa(lp1366
I588
ag669
aaaa(lp1367
I591
aI596
ag519
a(lp1368
(lp1369
I591
ag684
aa(lp1370
I592
ag630
aa(lp1371
I593
ag626
aa(lp1372
I594
ag636
aa(lp1373
I595
ag766
aa(lp1374
I596
ag622
aaaa(lp1375
I598
aI603
ag528
a(lp1376
(lp1377
I598
ag743
aa(lp1378
I599
ag766
aa(lp1379
I600
ag622
aa(lp1380
I601
ag622
aa(lp1381
I602
ag630
aa(lp1382
I603
ag624
aaaa(lp1383
I606
aI608
ag537
a(lp1384
(lp1385
I606
ag630
aa(lp1386
I607
ag622
aa(lp1387
I608
ag687
aaaa(lp1388
I612
aI615
ag546
a(lp1389
(lp1390
I612
ag638
aa(lp1391
I613
ag634
aa(lp1392
I614
ag651
aa(lp1393
I615
ag622
aaaa(lp1394
I617
aI623
ag555
a(lp1395
(lp1396
I617
ag743
aa(lp1397
I618
ag626
aa(lp1398
I619
ag669
aa(lp1399
I620
ag689
aa(lp1400
I621
ag630
aa(lp1401
I622
ag622
aa(lp1402
I623
ag669
aaaa(lp1403
I625
aI628
aS'with'
p1404
a(lp1405
(lp1406
I625
ag643
aa(lp1407
I626
ag634
aa(lp1408
I627
ag622
aa(lp1409
I628
ag647
aaaa(lp1410
I630
aI633
ag564
a(lp1411
(lp1412
I630
ag651
aa(lp1413
I631
ag653
aa(lp1414
I632
ag653
aa(lp1415
I633
ag656
aaaa(lp1416
I635
aI639
ag573
a(lp1417
(lp1418
I635
ag634
aa(lp1419
I636
ag622
aa(lp1420
I637
ag630
aa(lp1421
I638
ag714
aa(lp1422
I639
ag669
aaaa(lp1423
I642
aI646
ag582
a(lp1424
(lp1425
I642
ag669
aa(lp1426
I643
ag626
aa(lp1427
I644
ag632
aa(lp1428
I645
ag669
aa(lp1429
I646
ag626
aaaa(lp1430
I649
aI652
ag591
a(lp1431
(lp1432
I649
ag798
aa(lp1433
I650
ag626
aa(lp1434
I651
ag714
aa(lp1435
I652
ag669
aaaa(lp1436
I654
aI656
aS'and'
p1437
a(lp1438
(lp1439
I654
ag626
aa(lp1440
I655
ag636
aa(lp1441
I656
ag656
aaaa(lp1442
I658
aI662
ag600
a(lp1443
(lp1444
I658
ag669
aa(lp1445
I659
ag626
aa(lp1446
I660
ag632
aa(lp1447
I661
ag626
aa(lp1448
I662
ag656
aaaa(lp1449
I664
aI672
ag609
a(lp1450
(lp1451
I664
ag656
aa(lp1452
I665
ag624
aa(lp1453
I666
ag630
aa(lp1454
I667
ag669
aa(lp1455
I668
ag669
aa(lp1456
I669
ag634
aa(lp1457
I670
ag636
aa(lp1458
I671
ag638
aa(lp1459
I672
ag669
aaaasS'cleanCharacterMap'
p1460
(lp1461
g621
ag623
ag625
ag627
ag629
ag631
ag633
ag635
ag637
a(lp1462
I9
aS' '
p1463
aag642
ag644
ag645
ag646
a(lp1464
I14
ag1463
aag650
ag652
ag654
ag655
a(lp1465
I19
ag1463
aag660
ag661
a(lp1466
I22
ag1463
aag664
ag665
ag666
ag667
ag668
a(lp1467
I28
ag1463
aag673
ag674
ag675
a(lp1468
I32
ag1463
aag679
ag680
a(lp1469
I35
ag1463
aag683
ag685
ag686
ag688
a(lp1470
I40
ag1463
aag692
ag693
ag694
ag695
a(lp1471
I45
ag1463
aag699
ag700
ag701
a(lp1472
I49
ag1463
aag704
ag705
ag706
ag707
a(lp1473
I54
ag1463
aag710
ag711
ag712
ag713
ag715
a(lp1474
I60
ag1463
aag719
ag720
ag721
ag722
a(lp1475
I65
ag1463
aag726
ag727
a(lp1476
I68
ag1463
aag730
ag731
ag732
ag733
ag734
a(lp1477
I74
ag1463
aag738
ag739
a(lp1478
I77
ag1463
aag742
ag744
ag745
ag746
ag747
ag748
ag749
ag750
a(lp1479
I86
ag1463
aag753
ag754
ag755
ag756
ag757
a(lp1480
I92
ag1463
aag761
ag762
ag763
ag764
ag765
ag767
ag768
a(lp1481
I100
ag1463
aag771
ag772
ag773
ag774
ag775
ag776
ag777
ag778
ag779
ag780
ag781
a(lp1482
I113
ag1463
aag784
ag785
ag786
ag787
a(lp1483
I119
ag1463
aag790
ag791
ag792
ag793
a(lp1484
I124
ag1463
aag797
ag799
ag800
ag801
a(lp1485
I129
ag1463
aag805
ag806
ag807
ag808
ag809
a(lp1486
I135
ag1463
aag812
ag813
ag814
ag815
ag816
ag818
ag819
ag820
ag821
ag822
a(lp1487
I147
ag1463
aag825
ag826
ag827
ag828
ag829
ag830
ag831
ag832
ag833
a(lp1488
I157
ag1463
aag837
ag838
ag839
ag840
a(lp1489
I162
ag1463
aag843
ag844
ag845
ag846
a(lp1490
I167
ag1463
aag850
ag851
a(lp1491
I170
ag1463
aag854
ag855
ag856
ag857
ag858
a(lp1492
I176
ag1463
aag862
ag863
a(lp1493
I179
ag1463
aag867
ag868
a(lp1494
I182
ag1463
aag871
ag872
ag873
ag874
a(lp1495
I187
ag1463
aag877
ag878
ag879
ag880
ag881
ag882
a(lp1496
I194
ag1463
aag885
ag886
ag887
ag888
ag889
ag890
ag891
ag892
ag893
a(lp1497
I205
ag1463
aag896
ag897
ag898
ag899
ag900
ag901
ag902
ag903
a(lp1498
I214
ag1463
aag907
ag908
ag909
a(lp1499
I218
ag1463
aag912
ag913
ag914
ag915
ag916
ag917
ag918
ag919
a(lp1500
I227
ag1463
aag922
ag923
ag924
ag925
ag926
a(lp1501
I233
ag1463
aag930
ag931
ag932
ag933
a(lp1502
I238
ag1463
aag936
ag937
ag938
ag939
a(lp1503
I243
ag1463
aag943
ag944
ag945
ag946
a(lp1504
I248
ag1463
aag950
ag951
ag952
ag953
a(lp1505
I253
ag1463
aag956
ag957
ag958
ag959
a(lp1506
I258
ag1463
aag963
ag964
a(lp1507
I261
ag1463
aag967
ag968
ag969
ag970
ag971
a(lp1508
I267
ag1463
aag975
ag976
a(lp1509
I270
ag1463
aag979
ag980
ag981
ag982
ag983
ag984
ag985
a(lp1510
I278
ag1463
aag988
ag989
ag990
ag991
ag992
ag993
ag994
a(lp1511
I287
ag1463
aag998
ag999
a(lp1512
I290
ag1463
aag1002
ag1003
ag1004
ag1005
ag1006
a(lp1513
I296
ag1463
aag1010
ag1011
ag1012
ag1013
a(lp1514
I301
ag1463
aag1017
ag1018
ag1019
ag1020
ag1021
a(lp1515
I307
ag1463
aag1024
ag1025
ag1026
ag1027
ag1028
ag1029
ag1030
ag1031
ag1032
ag1033
ag1034
a(lp1516
I319
ag1463
aag1038
ag1039
ag1040
ag1041
a(lp1517
I324
ag1463
aag1045
ag1046
ag1047
ag1048
a(lp1518
I329
ag1463
aag1051
ag1052
ag1053
ag1054
a(lp1519
I334
ag1463
aag1058
ag1059
a(lp1520
I337
ag1463
aag1062
ag1063
ag1064
ag1065
ag1066
a(lp1521
I343
ag1463
aag1069
ag1070
ag1071
ag1072
a(lp1522
I348
ag1463
aag1075
ag1076
ag1077
ag1078
a(lp1523
I354
ag1463
aag1082
ag1083
ag1084
a(lp1524
I358
ag1463
aag1087
ag1088
ag1089
ag1090
a(lp1525
I363
ag1463
aag1094
ag1095
ag1096
ag1097
ag1098
a(lp1526
I369
ag1463
aag1102
ag1103
ag1104
ag1105
a(lp1527
I374
ag1463
aag1109
ag1110
ag1111
a(lp1528
I378
ag1463
aag1115
ag1116
ag1117
a(lp1529
I382
ag1463
aag1121
ag1122
ag1123
a(lp1530
I386
ag1463
aag1126
ag1127
ag1128
ag1129
a(lp1531
I392
ag1463
aag1132
ag1133
ag1134
ag1135
ag1136
a(lp1532
I398
ag1463
aag1140
ag1141
ag1142
ag1143
ag1144
ag1145
ag1146
a(lp1533
I406
ag1463
aag1150
ag1151
ag1152
a(lp1534
I410
ag1463
aag1155
ag1156
ag1157
ag1158
ag1159
ag1160
ag1161
ag1162
ag1163
ag1164
a(lp1535
I422
ag1463
aag1167
ag1168
ag1169
ag1170
ag1171
a(lp1536
I429
ag1463
aag1174
a(lp1537
I431
ag1463
aag1177
ag1178
ag1179
ag1180
a(lp1538
I436
ag1463
aag1184
ag1185
a(lp1539
I439
ag1463
aag1188
ag1189
ag1190
ag1192
ag1193
ag1194
a(lp1540
I447
ag1463
aag1197
ag1198
ag1199
ag1200
ag1201
ag1202
ag1203
a(lp1541
I455
ag1463
aag1207
ag1208
ag1209
a(lp1542
I459
ag1463
aag1212
ag1213
ag1214
a(lp1543
I463
ag1463
aag1217
ag1218
ag1219
ag1220
ag1221
a(lp1544
I469
ag1463
aag1225
ag1226
ag1227
ag1228
a(lp1545
I474
ag1463
aag1232
ag1233
ag1234
a(lp1546
I478
ag1463
aag1238
ag1239
ag1240
ag1241
ag1242
ag1243
a(lp1547
I485
ag1463
aag1246
ag1247
ag1248
a(lp1548
I490
ag1463
aag1252
ag1253
a(lp1549
I493
ag1463
aag1257
ag1258
ag1259
ag1260
a(lp1550
I498
ag1463
aag1263
ag1264
ag1265
ag1266
ag1267
ag1268
ag1269
a(lp1551
I506
ag1463
aag1272
ag1273
ag1274
a(lp1552
I511
ag1463
aag1277
ag1278
ag1279
ag1280
a(lp1553
I516
ag1463
aag1283
ag1284
ag1285
ag1286
ag1287
a(lp1554
I523
ag1463
aag1291
ag1292
a(lp1555
I526
ag1463
aag1295
ag1296
ag1297
ag1298
ag1299
a(lp1556
I532
ag1463
aag1303
ag1304
a(lp1557
I535
ag1463
aag1307
ag1308
ag1309
ag1310
a(lp1558
I540
ag1463
aag1313
ag1314
ag1315
ag1316
ag1317
ag1318
ag1319
ag1320
ag1321
a(lp1559
I550
ag1463
aag1324
ag1325
ag1326
ag1327
ag1328
a(lp1560
I556
ag1463
aag1331
ag1332
ag1333
ag1334
ag1335
ag1336
a(lp1561
I563
ag1463
aag1339
ag1340
ag1341
ag1342
a(lp1562
I568
ag1463
aag1346
ag1347
ag1348
a(lp1563
I572
ag1463
aag1351
ag1352
ag1353
ag1354
ag1355
ag1356
ag1357
a(lp1564
I580
ag1463
aag1360
ag1361
ag1362
ag1363
ag1364
ag1365
ag1366
a(lp1565
I590
ag1463
aag1369
ag1370
ag1371
ag1372
ag1373
ag1374
a(lp1566
I597
ag1463
aag1377
ag1378
ag1379
ag1380
ag1381
ag1382
a(lp1567
I605
ag1463
aag1385
ag1386
ag1387
a(lp1568
I611
ag1463
aag1390
ag1391
ag1392
ag1393
a(lp1569
I616
ag1463
aag1396
ag1397
ag1398
ag1399
ag1400
ag1401
ag1402
a(lp1570
I624
ag1463
aag1406
ag1407
ag1408
ag1409
a(lp1571
I629
ag1463
aag1412
ag1413
ag1414
ag1415
a(lp1572
I634
ag1463
aag1418
ag1419
ag1420
ag1421
ag1422
a(lp1573
I640
ag1463
aag1425
ag1426
ag1427
ag1428
ag1429
a(lp1574
I648
ag1463
aag1432
ag1433
ag1434
ag1435
a(lp1575
I653
ag1463
aag1439
ag1440
ag1441
a(lp1576
I657
ag1463
aag1444
ag1445
ag1446
ag1447
ag1448
a(lp1577
I663
ag1463
aag1451
ag1452
ag1453
ag1454
ag1455
ag1456
ag1457
ag1458
ag1459
a(lp1578
I674
ag1463
aa(lp1579
I675
ag638
aa(lp1580
I676
ag624
aa(lp1581
I677
ag626
aa(lp1582
I678
ag628
aa(lp1583
I679
ag817
aasS'text'
p1584
S"traveling with food or gifts how to pack food and gift items when it comes to bringing items through checkpoints, we've seen just about everything. traveling with food or gifts is an even bigger challenge. everyone has favorite foods from home that they want to bring to holiday dinners, or items from their destination that they want to bring back home. not sure about what you can and can't bring through the checkpoint? here's a list of liquid, aerosol and gel items that you should .put in your checked bag, ship ahead, or leave at home cranberry sauce creamy dips and spreads (cheeses, peanut butter, etc.) gift baskets with food items (salsa, jams and salad dressings) gravy"
p1585
sS'cleanWordMap'
p1586
(lp1587
g619
ag648
ag662
ag681
ag690
ag702
ag708
ag728
ag740
ag751
ag769
ag782
ag788
ag810
ag823
ag841
ag852
ag869
ag875
ag883
ag894
ag910
ag920
ag934
ag954
ag965
ag977
ag986
ag1000
ag1022
ag1049
ag1060
ag1067
ag1073
ag1085
ag1124
ag1130
ag1153
ag1165
ag1175
ag1186
ag1195
ag1210
ag1215
ag1244
ag1261
ag1270
ag1275
ag1281
ag1293
ag1305
ag1311
ag1322
ag1329
ag1337
ag1349
ag1358
ag1367
ag1375
ag1383
ag1388
ag1394
ag1410
ag1416
ag1423
ag1430
ag1442
ag1449
asS'lines'
p1588
(lp1589
VTraveling with Food or Gifts\u000a
p1590
aVHow to Pack Food and Gift Items\u000a
p1591
aVWhen it comes to bringing items through checkpoints, we've seen just about everything. Traveling with food or gifts is an even bigger challenge. Everyone has favorite foods from home that they want to bring to holiday dinners, or items from their destination that they want to bring back home.\u000a
p1592
aVNot sure about what you can and can't bring through the checkpoint? Here's a list of liquid, aerosol and gel items that you should .put in your checked bag, ship ahead, or leave at home\u000a
p1593
aVCranberry sauce\u000a
p1594
aVCreamy dips and spreads (cheeses, peanut butter, etc.)\u000a
p1595
aVGift baskets with food items (salsa, jams and salad dressings)\u000a
p1596
aVGravy
p1597
asS'docType'
p1598
S'src'
p1599
sS'newfmap'
p1600
(lp1601
g4
ag8
ag10
ag12
ag14
ag17
ag19
ag21
ag23
ag26
ag28
ag30
ag32
ag35
ag37
ag39
ag41
ag44
ag46
ag48
ag50
ag53
ag55
ag57
ag59
ag62
ag64
ag66
ag68
ag71
ag73
ag75
ag77
ag80
ag82
ag84
ag86
ag89
ag91
ag93
ag95
ag98
ag100
ag102
ag104
ag107
ag109
ag111
ag113
ag116
ag118
ag120
ag122
ag125
ag127
ag129
ag131
ag134
ag136
ag138
ag140
ag143
ag145
ag147
ag149
ag152
ag154
ag156
ag158
ag161
ag163
ag165
ag167
ag170
ag172
ag174
ag176
ag179
ag181
ag183
ag185
ag188
ag190
ag192
ag194
ag197
ag199
ag201
ag203
ag206
ag208
ag210
ag212
ag215
ag217
ag219
ag221
ag224
ag226
ag228
ag230
ag233
ag235
ag237
ag239
ag242
ag244
ag246
ag248
ag251
ag253
ag255
ag257
ag260
ag262
ag264
ag266
ag269
ag271
ag273
ag275
ag278
ag280
ag282
ag284
ag287
ag289
ag291
ag293
ag296
ag298
ag300
ag302
ag305
ag307
ag309
ag311
ag314
ag316
ag318
ag320
ag323
ag325
ag327
ag329
ag332
ag334
ag336
ag338
ag341
ag343
ag345
ag347
ag350
ag352
ag354
ag356
ag359
ag361
ag363
ag365
ag368
ag370
ag372
ag374
ag377
ag379
ag381
ag383
ag386
ag388
ag390
ag392
ag395
ag397
ag399
ag401
ag404
ag406
ag408
ag410
ag413
ag415
ag417
ag419
ag422
ag424
ag426
ag428
ag431
ag433
ag435
ag437
ag440
ag442
ag444
ag446
ag449
ag451
ag453
ag455
ag458
ag460
ag462
ag464
ag467
ag469
ag471
ag473
ag476
ag478
ag480
ag482
ag485
ag487
ag489
ag491
ag494
ag496
ag498
ag500
ag503
ag505
ag507
ag509
ag512
ag514
ag516
ag518
ag521
ag523
ag525
ag527
ag530
ag532
ag534
ag536
ag539
ag541
ag543
ag545
ag548
ag550
ag552
ag554
ag557
ag559
ag561
ag563
ag566
ag568
ag570
ag572
ag575
ag577
ag579
ag581
ag584
ag586
ag588
ag590
ag593
ag595
ag597
ag599
ag602
ag604
ag606
ag608
ag611
ag613
ag615
asS'featureMap'
p1602
(lp1603
(lp1604
I0
aI8
ag5
ag6
ag9
ag11
ag13
aa(lp1605
I15
aI18
ag15
ag16
ag18
ag20
ag22
aa(lp1606
I23
aI27
ag24
ag25
ag27
ag29
ag31
aa(lp1607
I36
aI39
ag33
ag34
ag36
ag38
ag40
aa(lp1608
I41
aI44
ag42
ag43
ag45
ag47
ag49
aa(lp1609
I50
aI53
ag51
ag52
ag54
ag56
ag58
aa(lp1610
I55
aI59
ag60
ag61
ag63
ag65
ag67
aa(lp1611
I69
aI73
ag69
ag70
ag72
ag74
ag76
aa(lp1612
I78
aI85
ag78
ag79
ag81
ag83
ag85
aa(lp1613
I87
aI91
ag87
ag88
ag90
ag92
ag94
aa(lp1614
I101
aI111
ag96
ag97
ag99
ag101
ag103
aa(lp1615
I114
aI118
ag105
ag106
ag108
ag110
ag112
aa(lp1616
I120
aI123
ag114
ag115
ag117
ag119
ag121
aa(lp1617
I136
aI145
ag123
ag124
ag126
ag128
ag130
aa(lp1618
I148
aI156
ag132
ag133
ag135
ag137
ag139
aa(lp1619
I163
aI166
ag141
ag142
ag144
ag146
ag148
aa(lp1620
I171
aI175
ag150
ag151
ag153
ag155
ag157
aa(lp1621
I183
aI186
ag159
ag160
ag162
ag164
ag166
aa(lp1622
I188
aI193
ag168
ag169
ag171
ag173
ag175
aa(lp1623
I195
aI203
ag177
ag178
ag180
ag182
ag184
aa(lp1624
I206
aI213
ag186
ag187
ag189
ag191
ag193
aa(lp1625
I219
aI226
ag195
ag196
ag198
ag200
ag202
aa(lp1626
I228
aI232
ag204
ag205
ag207
ag209
ag211
aa(lp1627
I239
aI242
ag213
ag214
ag216
ag218
ag220
aa(lp1628
I254
aI257
ag222
ag223
ag225
ag227
ag229
aa(lp1629
I262
aI266
ag231
ag232
ag234
ag236
ag238
aa(lp1630
I271
aI277
ag240
ag241
ag243
ag245
ag247
aa(lp1631
I279
aI285
ag249
ag250
ag252
ag254
ag256
aa(lp1632
I291
aI295
ag258
ag259
ag261
ag263
ag265
aa(lp1633
I308
aI318
ag267
ag268
ag270
ag272
ag274
aa(lp1634
I330
aI333
ag276
ag277
ag279
ag281
ag283
aa(lp1635
I338
aI342
ag285
ag286
ag288
ag290
ag292
aa(lp1636
I344
aI347
ag294
ag295
ag297
ag299
ag301
aa(lp1637
I349
aI352
ag303
ag304
ag306
ag308
ag310
aa(lp1638
I359
aI362
ag312
ag313
ag315
ag317
ag319
aa(lp1639
I387
aI391
ag321
ag322
ag324
ag326
ag328
aa(lp1640
I393
aI397
ag330
ag331
ag333
ag335
ag337
aa(lp1641
I411
aI420
ag339
ag340
ag342
ag344
ag346
aa(lp1642
I423
aI428
ag348
ag349
ag351
ag353
ag355
aa(lp1643
I432
aI435
ag357
ag358
ag360
ag362
ag364
aa(lp1644
I440
aI445
ag366
ag367
ag369
ag371
ag373
aa(lp1645
I448
aI454
ag375
ag376
ag378
ag380
ag382
aa(lp1646
I460
aI462
ag384
ag385
ag387
ag389
ag391
aa(lp1647
I464
aI468
ag393
ag394
ag396
ag398
ag400
aa(lp1648
I487
aI489
ag402
ag403
ag405
ag407
ag409
aa(lp1649
I499
aI505
ag411
ag412
ag414
ag416
ag418
aa(lp1650
I507
aI509
ag420
ag421
ag423
ag425
ag427
aa(lp1651
I512
aI515
ag429
ag430
ag432
ag434
ag436
aa(lp1652
I517
aI521
ag438
ag439
ag441
ag443
ag445
aa(lp1653
I527
aI531
ag447
ag448
ag450
ag452
ag454
aa(lp1654
I536
aI539
ag456
ag457
ag459
ag461
ag463
aa(lp1655
I541
aI549
ag465
ag466
ag468
ag470
ag472
aa(lp1656
I551
aI555
ag474
ag475
ag477
ag479
ag481
aa(lp1657
I557
aI562
ag483
ag484
ag486
ag488
ag490
aa(lp1658
I564
aI567
ag492
ag493
ag495
ag497
ag499
aa(lp1659
I573
aI579
ag501
ag502
ag504
ag506
ag508
aa(lp1660
I582
aI588
ag510
ag511
ag513
ag515
ag517
aa(lp1661
I591
aI596
ag519
ag520
ag522
ag524
ag526
aa(lp1662
I598
aI603
ag528
ag529
ag531
ag533
ag535
aa(lp1663
I606
aI608
ag537
ag538
ag540
ag542
ag544
aa(lp1664
I612
aI615
ag546
ag547
ag549
ag551
ag553
aa(lp1665
I617
aI623
ag555
ag556
ag558
ag560
ag562
aa(lp1666
I630
aI633
ag564
ag565
ag567
ag569
ag571
aa(lp1667
I635
aI639
ag573
ag574
ag576
ag578
ag580
aa(lp1668
I642
aI646
ag582
ag583
ag585
ag587
ag589
aa(lp1669
I649
aI652
ag591
ag592
ag594
ag596
ag598
aa(lp1670
I658
aI662
ag600
ag601
ag603
ag605
ag607
aa(lp1671
I664
aI672
ag609
ag610
ag612
ag614
ag616
aasS'characterMap'
p1672
(lp1673
g621
ag623
ag625
ag627
ag629
ag631
ag633
ag635
ag637
ag1462
ag642
ag644
ag645
ag646
ag1464
ag650
ag652
ag654
ag655
ag1465
ag660
ag661
ag1466
ag664
ag665
ag666
ag667
ag668
ag1467
ag673
ag674
ag675
ag1468
ag679
ag680
ag1469
ag683
ag685
ag686
ag688
ag1470
ag692
ag693
ag694
ag695
ag1471
ag699
ag700
ag701
ag1472
ag704
ag705
ag706
ag707
ag1473
ag710
ag711
ag712
ag713
ag715
ag1474
ag719
ag720
ag721
ag722
ag1475
ag726
ag727
ag1476
ag730
ag731
ag732
ag733
ag734
ag1477
ag738
ag739
ag1478
ag742
ag744
ag745
ag746
ag747
ag748
ag749
ag750
ag1479
ag753
ag754
ag755
ag756
ag757
ag1480
ag761
ag762
ag763
ag764
ag765
ag767
ag768
ag1481
ag771
ag772
ag773
ag774
ag775
ag776
ag777
ag778
ag779
ag780
ag781
a(lp1674
I112
aS','
p1675
aag1482
ag784
ag785
a(lp1676
I116
aS"'"
p1677
aag786
ag787
ag1483
ag790
ag791
ag792
ag793
ag1484
ag797
ag799
ag800
ag801
ag1485
ag805
ag806
ag807
ag808
ag809
ag1486
ag812
ag813
ag814
ag815
ag816
ag818
ag819
ag820
ag821
ag822
a(lp1678
I146
aS'.'
p1679
aag1487
ag825
ag826
ag827
ag828
ag829
ag830
ag831
ag832
ag833
ag1488
ag837
ag838
ag839
ag840
ag1489
ag843
ag844
ag845
ag846
ag1490
ag850
ag851
ag1491
ag854
ag855
ag856
ag857
ag858
ag1492
ag862
ag863
ag1493
ag867
ag868
ag1494
ag871
ag872
ag873
ag874
ag1495
ag877
ag878
ag879
ag880
ag881
ag882
ag1496
ag885
ag886
ag887
ag888
ag889
ag890
ag891
ag892
ag893
a(lp1680
I204
ag1679
aag1497
ag896
ag897
ag898
ag899
ag900
ag901
ag902
ag903
ag1498
ag907
ag908
ag909
ag1499
ag912
ag913
ag914
ag915
ag916
ag917
ag918
ag919
ag1500
ag922
ag923
ag924
ag925
ag926
ag1501
ag930
ag931
ag932
ag933
ag1502
ag936
ag937
ag938
ag939
ag1503
ag943
ag944
ag945
ag946
ag1504
ag950
ag951
ag952
ag953
ag1505
ag956
ag957
ag958
ag959
ag1506
ag963
ag964
ag1507
ag967
ag968
ag969
ag970
ag971
ag1508
ag975
ag976
ag1509
ag979
ag980
ag981
ag982
ag983
ag984
ag985
ag1510
ag988
ag989
ag990
ag991
ag992
ag993
ag994
a(lp1681
I286
ag1675
aag1511
ag998
ag999
ag1512
ag1002
ag1003
ag1004
ag1005
ag1006
ag1513
ag1010
ag1011
ag1012
ag1013
ag1514
ag1017
ag1018
ag1019
ag1020
ag1021
ag1515
ag1024
ag1025
ag1026
ag1027
ag1028
ag1029
ag1030
ag1031
ag1032
ag1033
ag1034
ag1516
ag1038
ag1039
ag1040
ag1041
ag1517
ag1045
ag1046
ag1047
ag1048
ag1518
ag1051
ag1052
ag1053
ag1054
ag1519
ag1058
ag1059
ag1520
ag1062
ag1063
ag1064
ag1065
ag1066
ag1521
ag1069
ag1070
ag1071
ag1072
ag1522
ag1075
ag1076
ag1077
ag1078
a(lp1682
I353
ag1679
aag1523
ag1082
ag1083
ag1084
ag1524
ag1087
ag1088
ag1089
ag1090
ag1525
ag1094
ag1095
ag1096
ag1097
ag1098
ag1526
ag1102
ag1103
ag1104
ag1105
ag1527
ag1109
ag1110
ag1111
ag1528
ag1115
ag1116
ag1117
ag1529
ag1121
ag1122
ag1123
ag1530
ag1126
ag1127
ag1128
a(lp1683
I390
ag1677
aag1129
ag1531
ag1132
ag1133
ag1134
ag1135
ag1136
ag1532
ag1140
ag1141
ag1142
ag1143
ag1144
ag1145
ag1146
ag1533
ag1150
ag1151
ag1152
ag1534
ag1155
ag1156
ag1157
ag1158
ag1159
ag1160
ag1161
ag1162
ag1163
ag1164
a(lp1684
I421
aS'?'
p1685
aag1535
ag1167
ag1168
ag1169
ag1170
a(lp1686
I427
ag1677
aag1171
ag1536
ag1174
ag1537
ag1177
ag1178
ag1179
ag1180
ag1538
ag1184
ag1185
ag1539
ag1188
ag1189
ag1190
ag1192
ag1193
ag1194
a(lp1687
I446
ag1675
aag1540
ag1197
ag1198
ag1199
ag1200
ag1201
ag1202
ag1203
ag1541
ag1207
ag1208
ag1209
ag1542
ag1212
ag1213
ag1214
ag1543
ag1217
ag1218
ag1219
ag1220
ag1221
ag1544
ag1225
ag1226
ag1227
ag1228
ag1545
ag1232
ag1233
ag1234
ag1546
ag1238
ag1239
ag1240
ag1241
ag1242
ag1243
ag1547
a(lp1688
I486
ag1679
aag1246
ag1247
ag1248
ag1548
ag1252
ag1253
ag1549
ag1257
ag1258
ag1259
ag1260
ag1550
ag1263
ag1264
ag1265
ag1266
ag1267
ag1268
ag1269
ag1551
ag1272
ag1273
ag1274
a(lp1689
I510
ag1675
aag1552
ag1277
ag1278
ag1279
ag1280
ag1553
ag1283
ag1284
ag1285
ag1286
ag1287
a(lp1690
I522
ag1675
aag1554
ag1291
ag1292
ag1555
ag1295
ag1296
ag1297
ag1298
ag1299
ag1556
ag1303
ag1304
ag1557
ag1307
ag1308
ag1309
ag1310
ag1558
ag1313
ag1314
ag1315
ag1316
ag1317
ag1318
ag1319
ag1320
ag1321
ag1559
ag1324
ag1325
ag1326
ag1327
ag1328
ag1560
ag1331
ag1332
ag1333
ag1334
ag1335
ag1336
ag1561
ag1339
ag1340
ag1341
ag1342
ag1562
ag1346
ag1347
ag1348
ag1563
ag1351
ag1352
ag1353
ag1354
ag1355
ag1356
ag1357
ag1564
a(lp1691
I581
aS'('
p1692
aag1360
ag1361
ag1362
ag1363
ag1364
ag1365
ag1366
a(lp1693
I589
ag1675
aag1565
ag1369
ag1370
ag1371
ag1372
ag1373
ag1374
ag1566
ag1377
ag1378
ag1379
ag1380
ag1381
ag1382
a(lp1694
I604
ag1675
aag1567
ag1385
ag1386
ag1387
a(lp1695
I609
ag1679
aa(lp1696
I610
aS')'
p1697
aag1568
ag1390
ag1391
ag1392
ag1393
ag1569
ag1396
ag1397
ag1398
ag1399
ag1400
ag1401
ag1402
ag1570
ag1406
ag1407
ag1408
ag1409
ag1571
ag1412
ag1413
ag1414
ag1415
ag1572
ag1418
ag1419
ag1420
ag1421
ag1422
ag1573
a(lp1698
I641
ag1692
aag1425
ag1426
ag1427
ag1428
ag1429
a(lp1699
I647
ag1675
aag1574
ag1432
ag1433
ag1434
ag1435
ag1575
ag1439
ag1440
ag1441
ag1576
ag1444
ag1445
ag1446
ag1447
ag1448
ag1577
ag1451
ag1452
ag1453
ag1454
ag1455
ag1456
ag1457
ag1458
ag1459
a(lp1700
I673
ag1697
aag1578
ag1579
ag1580
ag1581
ag1582
ag1583
asS'docName'
p1701
S'source-document01991.txt'
p1702
sb.