(iModel.Document
Document
p0
(dp1
S'fmap'
p2
(lp3
(lp4
I0
aI5
aS'disney'
p5
a(lp6
S'*'
p7
ag5
aaa(lp8
I0
aI5
ag5
a(lp9
g7
ag5
aaa(lp10
I0
aI5
ag5
a(lp11
g7
ag5
aaa(lp12
I0
aI5
ag5
a(lp13
g7
ag5
aaa(lp14
I14
aI17
aS'free'
p15
a(lp16
g5
ag15
aaa(lp17
I14
aI17
ag15
a(lp18
g7
ag15
aaa(lp19
I14
aI17
ag15
a(lp20
g7
ag15
aaa(lp21
I14
aI17
ag15
a(lp22
g7
ag15
aaa(lp23
I19
aI23
aS'shock'
p24
a(lp25
g15
ag24
aaa(lp26
I19
aI23
ag24
a(lp27
g5
ag24
aaa(lp28
I19
aI23
ag24
a(lp29
g7
ag24
aaa(lp30
I19
aI23
ag24
a(lp31
g7
ag24
aaa(lp32
I25
aI28
aS'wave'
p33
a(lp34
g24
ag33
aaa(lp35
I25
aI28
ag33
a(lp36
g15
ag33
aaa(lp37
I25
aI28
ag33
a(lp38
g5
ag33
aaa(lp39
I25
aI28
ag33
a(lp40
g7
ag33
aaa(lp41
I30
aI33
aS'game'
p42
a(lp43
g33
ag42
aaa(lp44
I30
aI33
ag42
a(lp45
g24
ag42
aaa(lp46
I30
aI33
ag42
a(lp47
g15
ag42
aaa(lp48
I30
aI33
ag42
a(lp49
g5
ag42
aaa(lp50
I40
aI45
aS'disney'
p51
a(lp52
g42
ag51
aaa(lp53
I40
aI45
ag51
a(lp54
g33
ag51
aaa(lp55
I40
aI45
ag51
a(lp56
g24
ag51
aaa(lp57
I40
aI45
ag51
a(lp58
g15
ag51
aaa(lp59
I60
aI67
aS'bringing'
p60
a(lp61
g51
ag60
aaa(lp62
I60
aI67
ag60
a(lp63
g42
ag60
aaa(lp64
I60
aI67
ag60
a(lp65
g33
ag60
aaa(lp66
I60
aI67
ag60
a(lp67
g24
ag60
aaa(lp68
I81
aI89
aS'dalmation'
p69
a(lp70
g60
ag69
aaa(lp71
I81
aI89
ag69
a(lp72
g51
ag69
aaa(lp73
I81
aI89
ag69
a(lp74
g42
ag69
aaa(lp75
I81
aI89
ag69
a(lp76
g33
ag69
aaa(lp77
I92
aI95
aS'help'
p78
a(lp79
g69
ag78
aaa(lp80
I92
aI95
ag78
a(lp81
g60
ag78
aaa(lp82
I92
aI95
ag78
a(lp83
g51
ag78
aaa(lp84
I92
aI95
ag78
a(lp85
g42
ag78
aaa(lp86
I102
aI106
aS'puppy'
p87
a(lp88
g78
ag87
aaa(lp89
I102
aI106
ag87
a(lp90
g69
ag87
aaa(lp91
I102
aI106
ag87
a(lp92
g60
ag87
aaa(lp93
I102
aI106
ag87
a(lp94
g51
ag87
aaa(lp95
I111
aI113
aS'eat'
p96
a(lp97
g87
ag96
aaa(lp98
I111
aI113
ag96
a(lp99
g78
ag96
aaa(lp100
I111
aI113
ag96
a(lp101
g69
ag96
aaa(lp102
I111
aI113
ag96
a(lp103
g60
ag96
aaa(lp104
I116
aI120
aS'sleep'
p105
a(lp106
g96
ag105
aaa(lp107
I116
aI120
ag105
a(lp108
g87
ag105
aaa(lp109
I116
aI120
ag105
a(lp110
g78
ag105
aaa(lp111
I116
aI120
ag105
a(lp112
g69
ag105
aaa(lp113
I123
aI126
aS'play'
p114
a(lp115
g105
ag114
aaa(lp116
I123
aI126
ag114
a(lp117
g96
ag114
aaa(lp118
I123
aI126
ag114
a(lp119
g87
ag114
aaa(lp120
I123
aI126
ag114
a(lp121
g78
ag114
aaa(lp122
I140
aI143
aS'keep'
p123
a(lp124
g114
ag123
aaa(lp125
I140
aI143
ag123
a(lp126
g105
ag123
aaa(lp127
I140
aI143
ag123
a(lp128
g96
ag123
aaa(lp129
I140
aI143
ag123
a(lp130
g87
ag123
aaa(lp131
I148
aI151
aS'warm'
p132
a(lp133
g123
ag132
aaa(lp134
I148
aI151
ag132
a(lp135
g114
ag132
aaa(lp136
I148
aI151
ag132
a(lp137
g105
ag132
aaa(lp138
I148
aI151
ag132
a(lp139
g96
ag132
aaa(lp140
I165
aI169
aS'would'
p141
a(lp142
g132
ag141
aaa(lp143
I165
aI169
ag141
a(lp144
g123
ag141
aaa(lp145
I165
aI169
ag141
a(lp146
g114
ag141
aaa(lp147
I165
aI169
ag141
a(lp148
g105
ag141
aaa(lp149
I176
aI179
aS'real'
p150
a(lp151
g141
ag150
aaa(lp152
I176
aI179
ag150
a(lp153
g132
ag150
aaa(lp154
I176
aI179
ag150
a(lp155
g123
ag150
aaa(lp156
I176
aI179
ag150
a(lp157
g114
ag150
aaa(lp158
I181
aI183
aS'pet'
p159
a(lp160
g150
ag159
aaa(lp161
I181
aI183
ag159
a(lp162
g141
ag159
aaa(lp163
I181
aI183
ag159
a(lp164
g132
ag159
aaa(lp165
I181
aI183
ag159
a(lp166
g123
ag159
aaa(lp167
I191
aI195
aS'shock'
p168
a(lp169
g159
ag168
aaa(lp170
I191
aI195
ag168
a(lp171
g150
ag168
aaa(lp172
I191
aI195
ag168
a(lp173
g141
ag168
aaa(lp174
I191
aI195
ag168
a(lp175
g132
ag168
aaa(lp176
I197
aI200
aS'wave'
p177
a(lp178
g168
ag177
aaa(lp179
I197
aI200
ag177
a(lp180
g159
ag177
aaa(lp181
I197
aI200
ag177
a(lp182
g150
ag177
aaa(lp183
I197
aI200
ag177
a(lp184
g141
ag177
aaa(lp185
I202
aI205
aS'game'
p186
a(lp187
g177
ag186
aaa(lp188
I202
aI205
ag186
a(lp189
g168
ag186
aaa(lp190
I202
aI205
ag186
a(lp191
g159
ag186
aaa(lp192
I202
aI205
ag186
a(lp193
g150
ag186
aaa(lp194
I207
aI211
aS'saves'
p195
a(lp196
g186
ag195
aaa(lp197
I207
aI211
ag195
a(lp198
g177
ag195
aaa(lp199
I207
aI211
ag195
a(lp200
g168
ag195
aaa(lp201
I207
aI211
ag195
a(lp202
g159
ag195
aaa(lp203
I231
aI234
aS'come'
p204
a(lp205
g195
ag204
aaa(lp206
I231
aI234
ag204
a(lp207
g186
ag204
aaa(lp208
I231
aI234
ag204
a(lp209
g177
ag204
aaa(lp210
I231
aI234
ag204
a(lp211
g168
ag204
aaa(lp212
I236
aI239
aS'back'
p213
a(lp214
g204
ag213
aaa(lp215
I236
aI239
ag213
a(lp216
g195
ag213
aaa(lp217
I236
aI239
ag213
a(lp218
g186
ag213
aaa(lp219
I236
aI239
ag213
a(lp220
g177
ag213
aaa(lp221
I252
aI256
aS'later'
p222
a(lp223
g213
ag222
aaa(lp224
I252
aI256
ag222
a(lp225
g204
ag222
aaa(lp226
I252
aI256
ag222
a(lp227
g195
ag222
aaa(lp228
I252
aI256
ag222
a(lp229
g186
ag222
aaa(lp230
I258
aI261
aS'date'
p231
a(lp232
g222
ag231
aaa(lp233
I258
aI261
ag231
a(lp234
g213
ag231
aaa(lp235
I258
aI261
ag231
a(lp236
g204
ag231
aaa(lp237
I258
aI261
ag231
a(lp238
g195
ag231
aaa(lp239
I274
aI277
aS'free'
p240
a(lp241
g231
ag240
aaa(lp242
I274
aI277
ag240
a(lp243
g222
ag240
aaa(lp244
I274
aI277
ag240
a(lp245
g213
ag240
aaa(lp246
I274
aI277
ag240
a(lp247
g204
ag240
aaa(lp248
I279
aI283
aS'shock'
p249
a(lp250
g240
ag249
aaa(lp251
I279
aI283
ag249
a(lp252
g231
ag249
aaa(lp253
I279
aI283
ag249
a(lp254
g222
ag249
aaa(lp255
I279
aI283
ag249
a(lp256
g213
ag249
aaa(lp257
I285
aI288
aS'wave'
p258
a(lp259
g249
ag258
aaa(lp260
I285
aI288
ag258
a(lp261
g240
ag258
aaa(lp262
I285
aI288
ag258
a(lp263
g231
ag258
aaa(lp264
I285
aI288
ag258
a(lp265
g222
ag258
aaa(lp266
I290
aI293
aS'game'
p267
a(lp268
g258
ag267
aaa(lp269
I290
aI293
ag267
a(lp270
g249
ag267
aaa(lp271
I290
aI293
ag267
a(lp272
g240
ag267
aaa(lp273
I290
aI293
ag267
a(lp274
g231
ag267
aaa(lp275
I307
aI310
aS'help'
p276
a(lp277
g267
ag276
aaa(lp278
I307
aI310
ag276
a(lp279
g258
ag276
aaa(lp280
I307
aI310
ag276
a(lp281
g249
ag276
aaa(lp282
I307
aI310
ag276
a(lp283
g240
ag276
aaa(lp284
I316
aI318
aS'101'
p285
a(lp286
g276
ag285
aaa(lp287
I316
aI318
ag285
a(lp288
g267
ag285
aaa(lp289
I316
aI318
ag285
a(lp290
g258
ag285
aaa(lp291
I316
aI318
ag285
a(lp292
g249
ag285
aaa(lp293
I320
aI329
aS'dalmations'
p294
a(lp295
g285
ag294
aaa(lp296
I320
aI329
ag294
a(lp297
g276
ag294
aaa(lp298
I320
aI329
ag294
a(lp299
g267
ag294
aaa(lp300
I320
aI329
ag294
a(lp301
g258
ag294
aaa(lp302
I331
aI335
aS'round'
p303
a(lp304
g294
ag303
aaa(lp305
I331
aI335
ag303
a(lp306
g285
ag303
aaa(lp307
I331
aI335
ag303
a(lp308
g276
ag303
aaa(lp309
I331
aI335
ag303
a(lp310
g267
ag303
aaa(lp311
I353
aI358
aS'animal'
p312
a(lp313
g303
ag312
aaa(lp314
I353
aI358
ag312
a(lp315
g294
ag312
aaa(lp316
I353
aI358
ag312
a(lp317
g285
ag312
aaa(lp318
I353
aI358
ag312
a(lp319
g276
ag312
aaa(lp320
I360
aI366
aS'friends'
p321
a(lp322
g312
ag321
aaa(lp323
I360
aI366
ag321
a(lp324
g303
ag321
aaa(lp325
I360
aI366
ag321
a(lp326
g294
ag321
aaa(lp327
I360
aI366
ag321
a(lp328
g285
ag321
aaa(lp329
I376
aI382
aS'cruella'
p330
a(lp331
g321
ag330
aaa(lp332
I376
aI382
ag330
a(lp333
g312
ag330
aaa(lp334
I376
aI382
ag330
a(lp335
g303
ag330
aaa(lp336
I376
aI382
ag330
a(lp337
g294
ag330
aaa(lp338
I384
aI385
aS'de'
p339
a(lp340
g330
ag339
aaa(lp341
I384
aI385
ag339
a(lp342
g321
ag339
aaa(lp343
I384
aI385
ag339
a(lp344
g312
ag339
aaa(lp345
I384
aI385
ag339
a(lp346
g303
ag339
aaa(lp347
I387
aI391
aS'vils'
p348
a(lp349
g339
ag348
aaa(lp350
I387
aI391
ag348
a(lp351
g330
ag348
aaa(lp352
I387
aI391
ag348
a(lp353
g321
ag348
aaa(lp354
I387
aI391
ag348
a(lp355
g312
ag348
aaa(lp356
I393
aI396
aS'evil'
p357
a(lp358
g348
ag357
aaa(lp359
I393
aI396
ag357
a(lp360
g339
ag357
aaa(lp361
I393
aI396
ag357
a(lp362
g330
ag357
aaa(lp363
I393
aI396
ag357
a(lp364
g321
ag357
aaa(lp365
I398
aI405
aS'henchmen'
p366
a(lp367
g357
ag366
aaa(lp368
I398
aI405
ag366
a(lp369
g348
ag366
aaa(lp370
I398
aI405
ag366
a(lp371
g339
ag366
aaa(lp372
I398
aI405
ag366
a(lp373
g330
ag366
aaa(lp374
I407
aI412
aS'jasper'
p375
a(lp376
g366
ag375
aaa(lp377
I407
aI412
ag375
a(lp378
g357
ag375
aaa(lp379
I407
aI412
ag375
a(lp380
g348
ag375
aaa(lp381
I407
aI412
ag375
a(lp382
g339
ag375
aaa(lp383
I418
aI423
aS'horace'
p384
a(lp385
g375
ag384
aaa(lp386
I418
aI423
ag384
a(lp387
g366
ag384
aaa(lp388
I418
aI423
ag384
a(lp389
g357
ag384
aaa(lp390
I418
aI423
ag384
a(lp391
g348
ag384
aaa(lp392
I429
aI435
aS'capture'
p393
a(lp394
g384
ag393
aaa(lp395
I429
aI435
ag393
a(lp396
g375
ag393
aaa(lp397
I429
aI435
ag393
a(lp398
g366
ag393
aaa(lp399
I429
aI435
ag393
a(lp400
g357
ag393
aaa(lp401
I450
aI454
aS'shock'
p402
a(lp403
g393
ag402
aaa(lp404
I450
aI454
ag402
a(lp405
g384
ag402
aaa(lp406
I450
aI454
ag402
a(lp407
g375
ag402
aaa(lp408
I450
aI454
ag402
a(lp409
g366
ag402
aaa(lp410
I456
aI459
aS'wave'
p411
a(lp412
g402
ag411
aaa(lp413
I456
aI459
ag411
a(lp414
g393
ag411
aaa(lp415
I456
aI459
ag411
a(lp416
g384
ag411
aaa(lp417
I456
aI459
ag411
a(lp418
g375
ag411
aaa(lp419
I461
aI464
aS'game'
p420
a(lp421
g411
ag420
aaa(lp422
I461
aI464
ag420
a(lp423
g402
ag420
aaa(lp424
I461
aI464
ag420
a(lp425
g393
ag420
aaa(lp426
I461
aI464
ag420
a(lp427
g384
ag420
aaa(lp428
I466
aI469
aS'uses'
p429
a(lp430
g420
ag429
aaa(lp431
I466
aI469
ag429
a(lp432
g411
ag429
aaa(lp433
I466
aI469
ag429
a(lp434
g402
ag429
aaa(lp435
I466
aI469
ag429
a(lp436
g393
ag429
aaa(lp437
I471
aI477
aS'musical'
p438
a(lp439
g429
ag438
aaa(lp440
I471
aI477
ag438
a(lp441
g420
ag438
aaa(lp442
I471
aI477
ag438
a(lp443
g411
ag438
aaa(lp444
I471
aI477
ag438
a(lp445
g402
ag438
aaa(lp446
I479
aI483
aS'notes'
p447
a(lp448
g438
ag447
aaa(lp449
I479
aI483
ag447
a(lp450
g429
ag447
aaa(lp451
I479
aI483
ag447
a(lp452
g420
ag447
aaa(lp453
I479
aI483
ag447
a(lp454
g411
ag447
aaa(lp455
I490
aI491
aS'10'
p456
a(lp457
g447
ag456
aaa(lp458
I490
aI491
ag456
a(lp459
g438
ag456
aaa(lp460
I490
aI491
ag456
a(lp461
g429
ag456
aaa(lp462
I490
aI491
ag456
a(lp463
g420
ag456
aaa(lp464
I493
aI501
aS'available'
p465
a(lp466
g456
ag465
aaa(lp467
I493
aI501
ag465
a(lp468
g447
ag465
aaa(lp469
I493
aI501
ag465
a(lp470
g438
ag465
aaa(lp471
I493
aI501
ag465
a(lp472
g429
ag465
aaa(lp473
I514
aI516
aS'use'
p474
a(lp475
g465
ag474
aaa(lp476
I514
aI516
ag474
a(lp477
g456
ag474
aaa(lp478
I514
aI516
ag474
a(lp479
g447
ag474
aaa(lp480
I514
aI516
ag474
a(lp481
g438
ag474
aaa(lp482
I519
aI523
aS'click'
p483
a(lp484
g474
ag483
aaa(lp485
I519
aI523
ag483
a(lp486
g465
ag483
aaa(lp487
I519
aI523
ag483
a(lp488
g456
ag483
aaa(lp489
I519
aI523
ag483
a(lp490
g447
ag483
aaa(lp491
I532
aI536
aS'notes'
p492
a(lp493
g483
ag492
aaa(lp494
I532
aI536
ag492
a(lp495
g474
ag492
aaa(lp496
I532
aI536
ag492
a(lp497
g465
ag492
aaa(lp498
I532
aI536
ag492
a(lp499
g456
ag492
aaa(lp500
I541
aI544
aS'make'
p501
a(lp502
g492
ag501
aaa(lp503
I541
aI544
ag501
a(lp504
g483
ag501
aaa(lp505
I541
aI544
ag501
a(lp506
g474
ag501
aaa(lp507
I541
aI544
ag501
a(lp508
g465
ag501
aaa(lp509
I558
aI562
aS'tunes'
p510
a(lp511
g501
ag510
aaa(lp512
I558
aI562
ag510
a(lp513
g492
ag510
aaa(lp514
I558
aI562
ag510
a(lp515
g483
ag510
aaa(lp516
I558
aI562
ag510
a(lp517
g474
ag510
aaa(lp518
I565
aI577
aS'alternatively'
p519
a(lp520
g510
ag519
aaa(lp521
I565
aI577
ag519
a(lp522
g501
ag519
aaa(lp523
I565
aI577
ag519
a(lp524
g492
ag519
aaa(lp525
I565
aI577
ag519
a(lp526
g483
ag519
aaa(lp527
I579
aI582
aS'drag'
p528
a(lp529
g519
ag528
aaa(lp530
I579
aI582
ag528
a(lp531
g510
ag528
aaa(lp532
I579
aI582
ag528
a(lp533
g501
ag528
aaa(lp534
I579
aI582
ag528
a(lp535
g492
ag528
aaa(lp536
I588
aI592
aS'notes'
p537
a(lp538
g528
ag537
aaa(lp539
I588
aI592
ag537
a(lp540
g519
ag537
aaa(lp541
I588
aI592
ag537
a(lp542
g510
ag537
aaa(lp543
I588
aI592
ag537
a(lp544
g501
ag537
aaa(lp545
I602
aI606
aS'empty'
p546
a(lp547
g537
ag546
aaa(lp548
I602
aI606
ag546
a(lp549
g528
ag546
aaa(lp550
I602
aI606
ag546
a(lp551
g519
ag546
aaa(lp552
I602
aI606
ag546
a(lp553
g510
ag546
aaa(lp554
I608
aI613
aS'circle'
p555
a(lp556
g546
ag555
aaa(lp557
I608
aI613
ag555
a(lp558
g537
ag555
aaa(lp559
I608
aI613
ag555
a(lp560
g528
ag555
aaa(lp561
I608
aI613
ag555
a(lp562
g519
ag555
aaa(lp563
I618
aI621
aS'make'
p564
a(lp565
g555
ag564
aaa(lp566
I618
aI621
ag564
a(lp567
g546
ag564
aaa(lp568
I618
aI621
ag564
a(lp569
g537
ag564
aaa(lp570
I618
aI621
ag564
a(lp571
g528
ag564
aaa(lp572
I635
aI638
aS'song'
p573
a(lp574
g564
ag573
aaa(lp575
I635
aI638
ag573
a(lp576
g555
ag573
aaa(lp577
I635
aI638
ag573
a(lp578
g546
ag573
aaa(lp579
I635
aI638
ag573
a(lp580
g537
ag573
aaa(lp581
I641
aI643
aS'101'
p582
a(lp583
g573
ag582
aaa(lp584
I641
aI643
ag582
a(lp585
g564
ag582
aaa(lp586
I641
aI643
ag582
a(lp587
g555
ag582
aaa(lp588
I641
aI643
ag582
a(lp589
g546
ag582
aaa(lp590
I645
aI654
aS'dalmations'
p591
a(lp592
g582
ag591
aaa(lp593
I645
aI654
ag591
a(lp594
g573
ag591
aaa(lp595
I645
aI654
ag591
a(lp596
g564
ag591
aaa(lp597
I645
aI654
ag591
a(lp598
g555
ag591
aaa(lp599
I657
aI659
aS'101'
p600
a(lp601
g591
ag600
aaa(lp602
I657
aI659
ag600
a(lp603
g582
ag600
aaa(lp604
I657
aI659
ag600
a(lp605
g573
ag600
aaa(lp606
I657
aI659
ag600
a(lp607
g564
ag600
aaa(lp608
I661
aI670
aS'dalmations'
p609
a(lp610
g600
ag609
aaa(lp611
I661
aI670
ag609
a(lp612
g591
ag609
aaa(lp613
I661
aI670
ag609
a(lp614
g582
ag609
aaa(lp615
I661
aI670
ag609
a(lp616
g573
ag609
aaa(lp617
I672
aI676
aS'games'
p618
a(lp619
g609
ag618
aaa(lp620
I672
aI676
ag618
a(lp621
g600
ag618
aaa(lp622
I672
aI676
ag618
a(lp623
g591
ag618
aaa(lp624
I672
aI676
ag618
a(lp625
g582
ag618
aaa(lp626
I687
aI691
aS'shock'
p627
a(lp628
g618
ag627
aaa(lp629
I687
aI691
ag627
a(lp630
g609
ag627
aaa(lp631
I687
aI691
ag627
a(lp632
g600
ag627
aaa(lp633
I687
aI691
ag627
a(lp634
g591
ag627
aaa(lp635
I693
aI696
aS'wave'
p636
a(lp637
g627
ag636
aaa(lp638
I693
aI696
ag636
a(lp639
g618
ag636
aaa(lp640
I693
aI696
ag636
a(lp641
g609
ag636
aaa(lp642
I693
aI696
ag636
a(lp643
g600
ag636
aaa(lp644
I698
aI702
aS'games'
p645
a(lp646
g636
ag645
aaa(lp647
I698
aI702
ag645
a(lp648
g627
ag645
aaa(lp649
I698
aI702
ag645
a(lp650
g618
ag645
aaa(lp651
I698
aI702
ag645
a(lp652
g609
ag645
aaa(lp653
I708
aI711
aS'free'
p654
a(lp655
g645
ag654
aaa(lp656
I708
aI711
ag654
a(lp657
g636
ag654
aaa(lp658
I708
aI711
ag654
a(lp659
g627
ag654
aaa(lp660
I708
aI711
ag654
a(lp661
g618
ag654
aaa(lp662
I713
aI717
aS'shock'
p663
a(lp664
g654
ag663
aaa(lp665
I713
aI717
ag663
a(lp666
g645
ag663
aaa(lp667
I713
aI717
ag663
a(lp668
g636
ag663
aaa(lp669
I713
aI717
ag663
a(lp670
g627
ag663
aaa(lp671
I719
aI722
aS'wave'
p672
a(lp673
g663
ag672
aaa(lp674
I719
aI722
ag672
a(lp675
g654
ag672
aaa(lp676
I719
aI722
ag672
a(lp677
g645
ag672
aaa(lp678
I719
aI722
ag672
a(lp679
g636
ag672
aaasS'wordMap'
p680
(lp681
(lp682
I0
aI5
ag5
a(lp683
(lp684
I0
aS'd'
p685
aa(lp686
I1
aS'i'
p687
aa(lp688
I2
aS's'
p689
aa(lp690
I3
aS'n'
p691
aa(lp692
I4
aS'e'
p693
aa(lp694
I5
aS'y'
p695
aaaa(lp696
I9
aI12
aS'this'
p697
a(lp698
(lp699
I9
aS't'
p700
aa(lp701
I10
aS'h'
p702
aa(lp703
I11
ag687
aa(lp704
I12
ag689
aaaa(lp705
I14
aI17
ag15
a(lp706
(lp707
I14
aS'f'
p708
aa(lp709
I15
aS'r'
p710
aa(lp711
I16
ag693
aa(lp712
I17
ag693
aaaa(lp713
I19
aI23
ag24
a(lp714
(lp715
I19
ag689
aa(lp716
I20
ag702
aa(lp717
I21
aS'o'
p718
aa(lp719
I22
aS'c'
p720
aa(lp721
I23
aS'k'
p722
aaaa(lp723
I25
aI28
ag33
a(lp724
(lp725
I25
aS'w'
p726
aa(lp727
I26
aS'a'
p728
aa(lp729
I27
aS'v'
p730
aa(lp731
I28
ag693
aaaa(lp732
I30
aI33
ag42
a(lp733
(lp734
I30
aS'g'
p735
aa(lp736
I31
ag728
aa(lp737
I32
aS'm'
p738
aa(lp739
I33
ag693
aaaa(lp740
I35
aI38
aS'from'
p741
a(lp742
(lp743
I35
ag708
aa(lp744
I36
ag710
aa(lp745
I37
ag718
aa(lp746
I38
ag738
aaaa(lp747
I40
aI45
ag51
a(lp748
(lp749
I40
ag685
aa(lp750
I41
ag687
aa(lp751
I42
ag689
aa(lp752
I43
ag691
aa(lp753
I44
ag693
aa(lp754
I45
ag695
aaaa(lp755
I47
aI48
aS'is'
p756
a(lp757
(lp758
I47
ag687
aa(lp759
I48
ag689
aaaa(lp760
I50
aI52
aS'all'
p761
a(lp762
(lp763
I50
ag728
aa(lp764
I51
aS'l'
p765
aa(lp766
I52
ag765
aaaa(lp767
I54
aI58
aS'about'
p768
a(lp769
(lp770
I54
ag728
aa(lp771
I55
aS'b'
p772
aa(lp773
I56
ag718
aa(lp774
I57
aS'u'
p775
aa(lp776
I58
ag700
aaaa(lp777
I60
aI67
ag60
a(lp778
(lp779
I60
ag772
aa(lp780
I61
ag710
aa(lp781
I62
ag687
aa(lp782
I63
ag691
aa(lp783
I64
ag735
aa(lp784
I65
ag687
aa(lp785
I66
ag691
aa(lp786
I67
ag735
aaaa(lp787
I69
aI70
aS'up'
p788
a(lp789
(lp790
I69
ag775
aa(lp791
I70
aS'p'
p792
aaaa(lp793
I72
aI75
aS'your'
p794
a(lp795
(lp796
I72
ag695
aa(lp797
I73
ag718
aa(lp798
I74
ag775
aa(lp799
I75
ag710
aaaa(lp800
I77
aI79
aS'own'
p801
a(lp802
(lp803
I77
ag718
aa(lp804
I78
ag726
aa(lp805
I79
ag691
aaaa(lp806
I81
aI89
ag69
a(lp807
(lp808
I81
ag685
aa(lp809
I82
ag728
aa(lp810
I83
ag765
aa(lp811
I84
ag738
aa(lp812
I85
ag728
aa(lp813
I86
ag700
aa(lp814
I87
ag687
aa(lp815
I88
ag718
aa(lp816
I89
ag691
aaaa(lp817
I92
aI95
ag78
a(lp818
(lp819
I92
ag702
aa(lp820
I93
ag693
aa(lp821
I94
ag765
aa(lp822
I95
ag792
aaaa(lp823
I97
aI100
aS'your'
p824
a(lp825
(lp826
I97
ag695
aa(lp827
I98
ag718
aa(lp828
I99
ag775
aa(lp829
I100
ag710
aaaa(lp830
I102
aI106
ag87
a(lp831
(lp832
I102
ag792
aa(lp833
I103
ag775
aa(lp834
I104
ag792
aa(lp835
I105
ag792
aa(lp836
I106
ag695
aaaa(lp837
I108
aI109
aS'to'
p838
a(lp839
(lp840
I108
ag700
aa(lp841
I109
ag718
aaaa(lp842
I111
aI113
ag96
a(lp843
(lp844
I111
ag693
aa(lp845
I112
ag728
aa(lp846
I113
ag700
aaaa(lp847
I116
aI120
ag105
a(lp848
(lp849
I116
ag689
aa(lp850
I117
ag765
aa(lp851
I118
ag693
aa(lp852
I119
ag693
aa(lp853
I120
ag792
aaaa(lp854
I123
aI126
ag114
a(lp855
(lp856
I123
ag792
aa(lp857
I124
ag765
aa(lp858
I125
ag728
aa(lp859
I126
ag695
aaaa(lp860
I128
aI131
aS'with'
p861
a(lp862
(lp863
I128
ag726
aa(lp864
I129
ag687
aa(lp865
I130
ag700
aa(lp866
I131
ag702
aaaa(lp867
I133
aI134
aS'it'
p868
a(lp869
(lp870
I133
ag687
aa(lp871
I134
ag700
aaaa(lp872
I136
aI138
aS'and'
p873
a(lp874
(lp875
I136
ag728
aa(lp876
I137
ag691
aa(lp877
I138
ag685
aaaa(lp878
I140
aI143
ag123
a(lp879
(lp880
I140
ag722
aa(lp881
I141
ag693
aa(lp882
I142
ag693
aa(lp883
I143
ag792
aaaa(lp884
I145
aI146
aS'it'
p885
a(lp886
(lp887
I145
ag687
aa(lp888
I146
ag700
aaaa(lp889
I148
aI151
ag132
a(lp890
(lp891
I148
ag726
aa(lp892
I149
ag728
aa(lp893
I150
ag710
aa(lp894
I151
ag738
aaaa(lp895
I153
aI156
aS'just'
p896
a(lp897
(lp898
I153
aS'j'
p899
aa(lp900
I154
ag775
aa(lp901
I155
ag689
aa(lp902
I156
ag700
aaaa(lp903
I158
aI159
aS'as'
p904
a(lp905
(lp906
I158
ag728
aa(lp907
I159
ag689
aaaa(lp908
I161
aI163
aS'you'
p909
a(lp910
(lp911
I161
ag695
aa(lp912
I162
ag718
aa(lp913
I163
ag775
aaaa(lp914
I165
aI169
ag141
a(lp915
(lp916
I165
ag726
aa(lp917
I166
ag718
aa(lp918
I167
ag775
aa(lp919
I168
ag765
aa(lp920
I169
ag685
aaaa(lp921
I171
aI174
aS'your'
p922
a(lp923
(lp924
I171
ag695
aa(lp925
I172
ag718
aa(lp926
I173
ag775
aa(lp927
I174
ag710
aaaa(lp928
I176
aI179
ag150
a(lp929
(lp930
I176
ag710
aa(lp931
I177
ag693
aa(lp932
I178
ag728
aa(lp933
I179
ag765
aaaa(lp934
I181
aI183
ag159
a(lp935
(lp936
I181
ag792
aa(lp937
I182
ag693
aa(lp938
I183
ag700
aaaa(lp939
I186
aI189
aS'this'
p940
a(lp941
(lp942
I186
ag700
aa(lp943
I187
ag702
aa(lp944
I188
ag687
aa(lp945
I189
ag689
aaaa(lp946
I191
aI195
ag168
a(lp947
(lp948
I191
ag689
aa(lp949
I192
ag702
aa(lp950
I193
ag718
aa(lp951
I194
ag720
aa(lp952
I195
ag722
aaaa(lp953
I197
aI200
ag177
a(lp954
(lp955
I197
ag726
aa(lp956
I198
ag728
aa(lp957
I199
ag730
aa(lp958
I200
ag693
aaaa(lp959
I202
aI205
ag186
a(lp960
(lp961
I202
ag735
aa(lp962
I203
ag728
aa(lp963
I204
ag738
aa(lp964
I205
ag693
aaaa(lp965
I207
aI211
ag195
a(lp966
(lp967
I207
ag689
aa(lp968
I208
ag728
aa(lp969
I209
ag730
aa(lp970
I210
ag693
aa(lp971
I211
ag689
aaaa(lp972
I213
aI218
aS'itself'
p973
a(lp974
(lp975
I213
ag687
aa(lp976
I214
ag700
aa(lp977
I215
ag689
aa(lp978
I216
ag693
aa(lp979
I217
ag765
aa(lp980
I218
ag708
aaaa(lp981
I220
aI221
aS'so'
p982
a(lp983
(lp984
I220
ag689
aa(lp985
I221
ag718
aaaa(lp986
I223
aI225
aS'you'
p987
a(lp988
(lp989
I223
ag695
aa(lp990
I224
ag718
aa(lp991
I225
ag775
aaaa(lp992
I227
aI229
aS'can'
p993
a(lp994
(lp995
I227
ag720
aa(lp996
I228
ag728
aa(lp997
I229
ag691
aaaa(lp998
I231
aI234
ag204
a(lp999
(lp1000
I231
ag720
aa(lp1001
I232
ag718
aa(lp1002
I233
ag738
aa(lp1003
I234
ag693
aaaa(lp1004
I236
aI239
ag213
a(lp1005
(lp1006
I236
ag772
aa(lp1007
I237
ag728
aa(lp1008
I238
ag720
aa(lp1009
I239
ag722
aaaa(lp1010
I241
aI242
aS'to'
p1011
a(lp1012
(lp1013
I241
ag700
aa(lp1014
I242
ag718
aaaa(lp1015
I244
aI245
aS'it'
p1016
a(lp1017
(lp1018
I244
ag687
aa(lp1019
I245
ag700
aaaa(lp1020
I247
aI248
aS'at'
p1021
a(lp1022
(lp1023
I247
ag728
aa(lp1024
I248
ag700
aaaa(lp1025
I250
aI250
ag728
a(lp1026
(lp1027
I250
ag728
aaaa(lp1028
I252
aI256
ag222
a(lp1029
(lp1030
I252
ag765
aa(lp1031
I253
ag728
aa(lp1032
I254
ag700
aa(lp1033
I255
ag693
aa(lp1034
I256
ag710
aaaa(lp1035
I258
aI261
ag231
a(lp1036
(lp1037
I258
ag685
aa(lp1038
I259
ag728
aa(lp1039
I260
ag700
aa(lp1040
I261
ag693
aaaa(lp1041
I266
aI267
aS'in'
p1042
a(lp1043
(lp1044
I266
ag687
aa(lp1045
I267
ag691
aaaa(lp1046
I269
aI272
aS'this'
p1047
a(lp1048
(lp1049
I269
ag700
aa(lp1050
I270
ag702
aa(lp1051
I271
ag687
aa(lp1052
I272
ag689
aaaa(lp1053
I274
aI277
ag240
a(lp1054
(lp1055
I274
ag708
aa(lp1056
I275
ag710
aa(lp1057
I276
ag693
aa(lp1058
I277
ag693
aaaa(lp1059
I279
aI283
ag249
a(lp1060
(lp1061
I279
ag689
aa(lp1062
I280
ag702
aa(lp1063
I281
ag718
aa(lp1064
I282
ag720
aa(lp1065
I283
ag722
aaaa(lp1066
I285
aI288
ag258
a(lp1067
(lp1068
I285
ag726
aa(lp1069
I286
ag728
aa(lp1070
I287
ag730
aa(lp1071
I288
ag693
aaaa(lp1072
I290
aI293
ag267
a(lp1073
(lp1074
I290
ag735
aa(lp1075
I291
ag728
aa(lp1076
I292
ag738
aa(lp1077
I293
ag693
aaaa(lp1078
I295
aI297
aS'you'
p1079
a(lp1080
(lp1081
I295
ag695
aa(lp1082
I296
ag718
aa(lp1083
I297
ag775
aaaa(lp1084
I299
aI302
aS'have'
p1085
a(lp1086
(lp1087
I299
ag702
aa(lp1088
I300
ag728
aa(lp1089
I301
ag730
aa(lp1090
I302
ag693
aaaa(lp1091
I304
aI305
aS'to'
p1092
a(lp1093
(lp1094
I304
ag700
aa(lp1095
I305
ag718
aaaa(lp1096
I307
aI310
ag276
a(lp1097
(lp1098
I307
ag702
aa(lp1099
I308
ag693
aa(lp1100
I309
ag765
aa(lp1101
I310
ag792
aaaa(lp1102
I312
aI314
aS'the'
p1103
a(lp1104
(lp1105
I312
ag700
aa(lp1106
I313
ag702
aa(lp1107
I314
ag693
aaaa(lp1108
I316
aI318
ag285
a(lp1109
(lp1110
I316
aS'1'
p1111
aa(lp1112
I317
aS'0'
p1113
aa(lp1114
I318
ag1111
aaaa(lp1115
I320
aI329
ag294
a(lp1116
(lp1117
I320
ag685
aa(lp1118
I321
ag728
aa(lp1119
I322
ag765
aa(lp1120
I323
ag738
aa(lp1121
I324
ag728
aa(lp1122
I325
ag700
aa(lp1123
I326
ag687
aa(lp1124
I327
ag718
aa(lp1125
I328
ag691
aa(lp1126
I329
ag689
aaaa(lp1127
I331
aI335
ag303
a(lp1128
(lp1129
I331
ag710
aa(lp1130
I332
ag718
aa(lp1131
I333
ag775
aa(lp1132
I334
ag691
aa(lp1133
I335
ag685
aaaa(lp1134
I337
aI338
aS'up'
p1135
a(lp1136
(lp1137
I337
ag775
aa(lp1138
I338
ag792
aaaa(lp1139
I340
aI342
aS'all'
p1140
a(lp1141
(lp1142
I340
ag728
aa(lp1143
I341
ag765
aa(lp1144
I342
ag765
aaaa(lp1145
I344
aI345
aS'of'
p1146
a(lp1147
(lp1148
I344
ag718
aa(lp1149
I345
ag708
aaaa(lp1150
I347
aI351
aS'their'
p1151
a(lp1152
(lp1153
I347
ag700
aa(lp1154
I348
ag702
aa(lp1155
I349
ag693
aa(lp1156
I350
ag687
aa(lp1157
I351
ag710
aaaa(lp1158
I353
aI358
ag312
a(lp1159
(lp1160
I353
ag728
aa(lp1161
I354
ag691
aa(lp1162
I355
ag687
aa(lp1163
I356
ag738
aa(lp1164
I357
ag728
aa(lp1165
I358
ag765
aaaa(lp1166
I360
aI366
ag321
a(lp1167
(lp1168
I360
ag708
aa(lp1169
I361
ag710
aa(lp1170
I362
ag687
aa(lp1171
I363
ag693
aa(lp1172
I364
ag691
aa(lp1173
I365
ag685
aa(lp1174
I366
ag689
aaaa(lp1175
I369
aI374
aS'before'
p1176
a(lp1177
(lp1178
I369
ag772
aa(lp1179
I370
ag693
aa(lp1180
I371
ag708
aa(lp1181
I372
ag718
aa(lp1182
I373
ag710
aa(lp1183
I374
ag693
aaaa(lp1184
I376
aI382
ag330
a(lp1185
(lp1186
I376
ag720
aa(lp1187
I377
ag710
aa(lp1188
I378
ag775
aa(lp1189
I379
ag693
aa(lp1190
I380
ag765
aa(lp1191
I381
ag765
aa(lp1192
I382
ag728
aaaa(lp1193
I384
aI385
ag339
a(lp1194
(lp1195
I384
ag685
aa(lp1196
I385
ag693
aaaa(lp1197
I387
aI391
ag348
a(lp1198
(lp1199
I387
ag730
aa(lp1200
I388
ag687
aa(lp1201
I389
ag765
aa(lp1202
I391
ag689
aaaa(lp1203
I393
aI396
ag357
a(lp1204
(lp1205
I393
ag693
aa(lp1206
I394
ag730
aa(lp1207
I395
ag687
aa(lp1208
I396
ag765
aaaa(lp1209
I398
aI405
ag366
a(lp1210
(lp1211
I398
ag702
aa(lp1212
I399
ag693
aa(lp1213
I400
ag691
aa(lp1214
I401
ag720
aa(lp1215
I402
ag702
aa(lp1216
I403
ag738
aa(lp1217
I404
ag693
aa(lp1218
I405
ag691
aaaa(lp1219
I407
aI412
ag375
a(lp1220
(lp1221
I407
ag899
aa(lp1222
I408
ag728
aa(lp1223
I409
ag689
aa(lp1224
I410
ag792
aa(lp1225
I411
ag693
aa(lp1226
I412
ag710
aaaa(lp1227
I414
aI416
aS'and'
p1228
a(lp1229
(lp1230
I414
ag728
aa(lp1231
I415
ag691
aa(lp1232
I416
ag685
aaaa(lp1233
I418
aI423
ag384
a(lp1234
(lp1235
I418
ag702
aa(lp1236
I419
ag718
aa(lp1237
I420
ag710
aa(lp1238
I421
ag728
aa(lp1239
I422
ag720
aa(lp1240
I423
ag693
aaaa(lp1241
I425
aI427
aS'can'
p1242
a(lp1243
(lp1244
I425
ag720
aa(lp1245
I426
ag728
aa(lp1246
I427
ag691
aaaa(lp1247
I429
aI435
ag393
a(lp1248
(lp1249
I429
ag720
aa(lp1250
I430
ag728
aa(lp1251
I431
ag792
aa(lp1252
I432
ag700
aa(lp1253
I433
ag775
aa(lp1254
I434
ag710
aa(lp1255
I435
ag693
aaaa(lp1256
I437
aI440
aS'them'
p1257
a(lp1258
(lp1259
I437
ag700
aa(lp1260
I438
ag702
aa(lp1261
I439
ag693
aa(lp1262
I440
ag738
aaaa(lp1263
I445
aI448
aS'this'
p1264
a(lp1265
(lp1266
I445
ag700
aa(lp1267
I446
ag702
aa(lp1268
I447
ag687
aa(lp1269
I448
ag689
aaaa(lp1270
I450
aI454
ag402
a(lp1271
(lp1272
I450
ag689
aa(lp1273
I451
ag702
aa(lp1274
I452
ag718
aa(lp1275
I453
ag720
aa(lp1276
I454
ag722
aaaa(lp1277
I456
aI459
ag411
a(lp1278
(lp1279
I456
ag726
aa(lp1280
I457
ag728
aa(lp1281
I458
ag730
aa(lp1282
I459
ag693
aaaa(lp1283
I461
aI464
ag420
a(lp1284
(lp1285
I461
ag735
aa(lp1286
I462
ag728
aa(lp1287
I463
ag738
aa(lp1288
I464
ag693
aaaa(lp1289
I466
aI469
ag429
a(lp1290
(lp1291
I466
ag775
aa(lp1292
I467
ag689
aa(lp1293
I468
ag693
aa(lp1294
I469
ag689
aaaa(lp1295
I471
aI477
ag438
a(lp1296
(lp1297
I471
ag738
aa(lp1298
I472
ag775
aa(lp1299
I473
ag689
aa(lp1300
I474
ag687
aa(lp1301
I475
ag720
aa(lp1302
I476
ag728
aa(lp1303
I477
ag765
aaaa(lp1304
I479
aI483
ag447
a(lp1305
(lp1306
I479
ag691
aa(lp1307
I480
ag718
aa(lp1308
I481
ag700
aa(lp1309
I482
ag693
aa(lp1310
I483
ag689
aaaa(lp1311
I485
aI488
aS'with'
p1312
a(lp1313
(lp1314
I485
ag726
aa(lp1315
I486
ag687
aa(lp1316
I487
ag700
aa(lp1317
I488
ag702
aaaa(lp1318
I490
aI491
ag456
a(lp1319
(lp1320
I490
ag1111
aa(lp1321
I491
ag1113
aaaa(lp1322
I493
aI501
ag465
a(lp1323
(lp1324
I493
ag728
aa(lp1325
I494
ag730
aa(lp1326
I495
ag728
aa(lp1327
I496
ag687
aa(lp1328
I497
ag765
aa(lp1329
I498
ag728
aa(lp1330
I499
ag772
aa(lp1331
I500
ag765
aa(lp1332
I501
ag693
aaaa(lp1333
I503
aI505
aS'for'
p1334
a(lp1335
(lp1336
I503
ag708
aa(lp1337
I504
ag718
aa(lp1338
I505
ag710
aaaa(lp1339
I507
aI509
aS'you'
p1340
a(lp1341
(lp1342
I507
ag695
aa(lp1343
I508
ag718
aa(lp1344
I509
ag775
aaaa(lp1345
I511
aI512
aS'to'
p1346
a(lp1347
(lp1348
I511
ag700
aa(lp1349
I512
ag718
aaaa(lp1350
I514
aI516
ag474
a(lp1351
(lp1352
I514
ag775
aa(lp1353
I515
ag689
aa(lp1354
I516
ag693
aaaa(lp1355
I519
aI523
ag483
a(lp1356
(lp1357
I519
ag720
aa(lp1358
I520
ag765
aa(lp1359
I521
ag687
aa(lp1360
I522
ag720
aa(lp1361
I523
ag722
aaaa(lp1362
I525
aI526
aS'on'
p1363
a(lp1364
(lp1365
I525
ag718
aa(lp1366
I526
ag691
aaaa(lp1367
I528
aI530
aS'the'
p1368
a(lp1369
(lp1370
I528
ag700
aa(lp1371
I529
ag702
aa(lp1372
I530
ag693
aaaa(lp1373
I532
aI536
ag492
a(lp1374
(lp1375
I532
ag691
aa(lp1376
I533
ag718
aa(lp1377
I534
ag700
aa(lp1378
I535
ag693
aa(lp1379
I536
ag689
aaaa(lp1380
I538
aI539
aS'to'
p1381
a(lp1382
(lp1383
I538
ag700
aa(lp1384
I539
ag718
aaaa(lp1385
I541
aI544
ag501
a(lp1386
(lp1387
I541
ag738
aa(lp1388
I542
ag728
aa(lp1389
I543
ag722
aa(lp1390
I544
ag693
aaaa(lp1391
I546
aI547
aS'up'
p1392
a(lp1393
(lp1394
I546
ag775
aa(lp1395
I547
ag792
aaaa(lp1396
I549
aI552
aS'your'
p1397
a(lp1398
(lp1399
I549
ag695
aa(lp1400
I550
ag718
aa(lp1401
I551
ag775
aa(lp1402
I552
ag710
aaaa(lp1403
I554
aI556
aS'own'
p1404
a(lp1405
(lp1406
I554
ag718
aa(lp1407
I555
ag726
aa(lp1408
I556
ag691
aaaa(lp1409
I558
aI562
ag510
a(lp1410
(lp1411
I558
ag700
aa(lp1412
I559
ag775
aa(lp1413
I560
ag691
aa(lp1414
I561
ag693
aa(lp1415
I562
ag689
aaaa(lp1416
I565
aI577
ag519
a(lp1417
(lp1418
I565
ag728
aa(lp1419
I566
ag765
aa(lp1420
I567
ag700
aa(lp1421
I568
ag693
aa(lp1422
I569
ag710
aa(lp1423
I570
ag691
aa(lp1424
I571
ag728
aa(lp1425
I572
ag700
aa(lp1426
I573
ag687
aa(lp1427
I574
ag730
aa(lp1428
I575
ag693
aa(lp1429
I576
ag765
aa(lp1430
I577
ag695
aaaa(lp1431
I579
aI582
ag528
a(lp1432
(lp1433
I579
ag685
aa(lp1434
I580
ag710
aa(lp1435
I581
ag728
aa(lp1436
I582
ag735
aaaa(lp1437
I584
aI586
aS'the'
p1438
a(lp1439
(lp1440
I584
ag700
aa(lp1441
I585
ag702
aa(lp1442
I586
ag693
aaaa(lp1443
I588
aI592
ag537
a(lp1444
(lp1445
I588
ag691
aa(lp1446
I589
ag718
aa(lp1447
I590
ag700
aa(lp1448
I591
ag693
aa(lp1449
I592
ag689
aaaa(lp1450
I594
aI597
aS'into'
p1451
a(lp1452
(lp1453
I594
ag687
aa(lp1454
I595
ag691
aa(lp1455
I596
ag700
aa(lp1456
I597
ag718
aaaa(lp1457
I599
aI600
aS'an'
p1458
a(lp1459
(lp1460
I599
ag728
aa(lp1461
I600
ag691
aaaa(lp1462
I602
aI606
ag546
a(lp1463
(lp1464
I602
ag693
aa(lp1465
I603
ag738
aa(lp1466
I604
ag792
aa(lp1467
I605
ag700
aa(lp1468
I606
ag695
aaaa(lp1469
I608
aI613
ag555
a(lp1470
(lp1471
I608
ag720
aa(lp1472
I609
ag687
aa(lp1473
I610
ag710
aa(lp1474
I611
ag720
aa(lp1475
I612
ag765
aa(lp1476
I613
ag693
aaaa(lp1477
I615
aI616
aS'to'
p1478
a(lp1479
(lp1480
I615
ag700
aa(lp1481
I616
ag718
aaaa(lp1482
I618
aI621
ag564
a(lp1483
(lp1484
I618
ag738
aa(lp1485
I619
ag728
aa(lp1486
I620
ag722
aa(lp1487
I621
ag693
aaaa(lp1488
I623
aI624
aS'up'
p1489
a(lp1490
(lp1491
I623
ag775
aa(lp1492
I624
ag792
aaaa(lp1493
I626
aI629
aS'your'
p1494
a(lp1495
(lp1496
I626
ag695
aa(lp1497
I627
ag718
aa(lp1498
I628
ag775
aa(lp1499
I629
ag710
aaaa(lp1500
I631
aI633
aS'own'
p1501
a(lp1502
(lp1503
I631
ag718
aa(lp1504
I632
ag726
aa(lp1505
I633
ag691
aaaa(lp1506
I635
aI638
ag573
a(lp1507
(lp1508
I635
ag689
aa(lp1509
I636
ag718
aa(lp1510
I637
ag691
aa(lp1511
I638
ag735
aaaa(lp1512
I641
aI643
ag582
a(lp1513
(lp1514
I641
ag1111
aa(lp1515
I642
ag1113
aa(lp1516
I643
ag1111
aaaa(lp1517
I645
aI654
ag591
a(lp1518
(lp1519
I645
ag685
aa(lp1520
I646
ag728
aa(lp1521
I647
ag765
aa(lp1522
I648
ag738
aa(lp1523
I649
ag728
aa(lp1524
I650
ag700
aa(lp1525
I651
ag687
aa(lp1526
I652
ag718
aa(lp1527
I653
ag691
aa(lp1528
I654
ag689
aaaa(lp1529
I657
aI659
ag600
a(lp1530
(lp1531
I657
ag1111
aa(lp1532
I658
ag1113
aa(lp1533
I659
ag1111
aaaa(lp1534
I661
aI670
ag609
a(lp1535
(lp1536
I661
ag685
aa(lp1537
I662
ag728
aa(lp1538
I663
ag765
aa(lp1539
I664
ag738
aa(lp1540
I665
ag728
aa(lp1541
I666
ag700
aa(lp1542
I667
ag687
aa(lp1543
I668
ag718
aa(lp1544
I669
ag691
aa(lp1545
I670
ag689
aaaa(lp1546
I672
aI676
ag618
a(lp1547
(lp1548
I672
ag735
aa(lp1549
I673
ag728
aa(lp1550
I674
ag738
aa(lp1551
I675
ag693
aa(lp1552
I676
ag689
aaaa(lp1553
I678
aI681
aS'that'
p1554
a(lp1555
(lp1556
I678
ag700
aa(lp1557
I679
ag702
aa(lp1558
I680
ag728
aa(lp1559
I681
ag700
aaaa(lp1560
I683
aI685
aS'are'
p1561
a(lp1562
(lp1563
I683
ag728
aa(lp1564
I684
ag710
aa(lp1565
I685
ag693
aaaa(lp1566
I687
aI691
ag627
a(lp1567
(lp1568
I687
ag689
aa(lp1569
I688
ag702
aa(lp1570
I689
ag718
aa(lp1571
I690
ag720
aa(lp1572
I691
ag722
aaaa(lp1573
I693
aI696
ag636
a(lp1574
(lp1575
I693
ag726
aa(lp1576
I694
ag728
aa(lp1577
I695
ag730
aa(lp1578
I696
ag693
aaaa(lp1579
I698
aI702
ag645
a(lp1580
(lp1581
I698
ag735
aa(lp1582
I699
ag728
aa(lp1583
I700
ag738
aa(lp1584
I701
ag693
aa(lp1585
I702
ag689
aaaa(lp1586
I704
aI706
aS'and'
p1587
a(lp1588
(lp1589
I704
ag728
aa(lp1590
I705
ag691
aa(lp1591
I706
ag685
aaaa(lp1592
I708
aI711
ag654
a(lp1593
(lp1594
I708
ag708
aa(lp1595
I709
ag710
aa(lp1596
I710
ag693
aa(lp1597
I711
ag693
aaaa(lp1598
I713
aI717
ag663
a(lp1599
(lp1600
I713
ag689
aa(lp1601
I714
ag702
aa(lp1602
I715
ag718
aa(lp1603
I716
ag720
aa(lp1604
I717
ag722
aaaa(lp1605
I719
aI722
ag672
a(lp1606
(lp1607
I719
ag726
aa(lp1608
I720
ag728
aa(lp1609
I721
ag730
aa(lp1610
I722
ag693
aaaasS'cleanCharacterMap'
p1611
(lp1612
g684
ag686
ag688
ag690
ag692
ag694
a(lp1613
I6
aS' '
p1614
aa(lp1615
I8
ag1614
aag699
ag701
ag703
ag704
a(lp1616
I13
ag1614
aag707
ag709
ag711
ag712
a(lp1617
I18
ag1614
aag715
ag716
ag717
ag719
ag721
a(lp1618
I24
ag1614
aag725
ag727
ag729
ag731
a(lp1619
I29
ag1614
aag734
ag736
ag737
ag739
a(lp1620
I34
ag1614
aag743
ag744
ag745
ag746
a(lp1621
I39
ag1614
aag749
ag750
ag751
ag752
ag753
ag754
a(lp1622
I46
ag1614
aag758
ag759
a(lp1623
I49
ag1614
aag763
ag764
ag766
a(lp1624
I53
ag1614
aag770
ag771
ag773
ag774
ag776
a(lp1625
I59
ag1614
aag779
ag780
ag781
ag782
ag783
ag784
ag785
ag786
a(lp1626
I68
ag1614
aag790
ag791
a(lp1627
I71
ag1614
aag796
ag797
ag798
ag799
a(lp1628
I76
ag1614
aag803
ag804
ag805
a(lp1629
I80
ag1614
aag808
ag809
ag810
ag811
ag812
ag813
ag814
ag815
ag816
a(lp1630
I91
ag1614
aag819
ag820
ag821
ag822
a(lp1631
I96
ag1614
aag826
ag827
ag828
ag829
a(lp1632
I101
ag1614
aag832
ag833
ag834
ag835
ag836
a(lp1633
I107
ag1614
aag840
ag841
a(lp1634
I110
ag1614
aag844
ag845
ag846
a(lp1635
I115
ag1614
aag849
ag850
ag851
ag852
ag853
a(lp1636
I122
ag1614
aag856
ag857
ag858
ag859
a(lp1637
I127
ag1614
aag863
ag864
ag865
ag866
a(lp1638
I132
ag1614
aag870
ag871
a(lp1639
I135
ag1614
aag875
ag876
ag877
a(lp1640
I139
ag1614
aag880
ag881
ag882
ag883
a(lp1641
I144
ag1614
aag887
ag888
a(lp1642
I147
ag1614
aag891
ag892
ag893
ag894
a(lp1643
I152
ag1614
aag898
ag900
ag901
ag902
a(lp1644
I157
ag1614
aag906
ag907
a(lp1645
I160
ag1614
aag911
ag912
ag913
a(lp1646
I164
ag1614
aag916
ag917
ag918
ag919
ag920
a(lp1647
I170
ag1614
aag924
ag925
ag926
ag927
a(lp1648
I175
ag1614
aag930
ag931
ag932
ag933
a(lp1649
I180
ag1614
aag936
ag937
ag938
a(lp1650
I185
ag1614
aag942
ag943
ag944
ag945
a(lp1651
I190
ag1614
aag948
ag949
ag950
ag951
ag952
a(lp1652
I196
ag1614
aag955
ag956
ag957
ag958
a(lp1653
I201
ag1614
aag961
ag962
ag963
ag964
a(lp1654
I206
ag1614
aag967
ag968
ag969
ag970
ag971
a(lp1655
I212
ag1614
aag975
ag976
ag977
ag978
ag979
ag980
a(lp1656
I219
ag1614
aag984
ag985
a(lp1657
I222
ag1614
aag989
ag990
ag991
a(lp1658
I226
ag1614
aag995
ag996
ag997
a(lp1659
I230
ag1614
aag1000
ag1001
ag1002
ag1003
a(lp1660
I235
ag1614
aag1006
ag1007
ag1008
ag1009
a(lp1661
I240
ag1614
aag1013
ag1014
a(lp1662
I243
ag1614
aag1018
ag1019
a(lp1663
I246
ag1614
aag1023
ag1024
a(lp1664
I249
ag1614
aag1027
a(lp1665
I251
ag1614
aag1030
ag1031
ag1032
ag1033
ag1034
a(lp1666
I257
ag1614
aag1037
ag1038
ag1039
ag1040
a(lp1667
I263
ag1614
aa(lp1668
I265
ag1614
aag1044
ag1045
a(lp1669
I268
ag1614
aag1049
ag1050
ag1051
ag1052
a(lp1670
I273
ag1614
aag1055
ag1056
ag1057
ag1058
a(lp1671
I278
ag1614
aag1061
ag1062
ag1063
ag1064
ag1065
a(lp1672
I284
ag1614
aag1068
ag1069
ag1070
ag1071
a(lp1673
I289
ag1614
aag1074
ag1075
ag1076
ag1077
a(lp1674
I294
ag1614
aag1081
ag1082
ag1083
a(lp1675
I298
ag1614
aag1087
ag1088
ag1089
ag1090
a(lp1676
I303
ag1614
aag1094
ag1095
a(lp1677
I306
ag1614
aag1098
ag1099
ag1100
ag1101
a(lp1678
I311
ag1614
aag1105
ag1106
ag1107
a(lp1679
I315
ag1614
aag1110
ag1112
ag1114
a(lp1680
I319
ag1614
aag1117
ag1118
ag1119
ag1120
ag1121
ag1122
ag1123
ag1124
ag1125
ag1126
a(lp1681
I330
ag1614
aag1129
ag1130
ag1131
ag1132
ag1133
a(lp1682
I336
ag1614
aag1137
ag1138
a(lp1683
I339
ag1614
aag1142
ag1143
ag1144
a(lp1684
I343
ag1614
aag1148
ag1149
a(lp1685
I346
ag1614
aag1153
ag1154
ag1155
ag1156
ag1157
a(lp1686
I352
ag1614
aag1160
ag1161
ag1162
ag1163
ag1164
ag1165
a(lp1687
I359
ag1614
aag1168
ag1169
ag1170
ag1171
ag1172
ag1173
ag1174
a(lp1688
I368
ag1614
aag1178
ag1179
ag1180
ag1181
ag1182
ag1183
a(lp1689
I375
ag1614
aag1186
ag1187
ag1188
ag1189
ag1190
ag1191
ag1192
a(lp1690
I383
ag1614
aag1195
ag1196
a(lp1691
I386
ag1614
aag1199
ag1200
ag1201
ag1202
a(lp1692
I392
ag1614
aag1205
ag1206
ag1207
ag1208
a(lp1693
I397
ag1614
aag1211
ag1212
ag1213
ag1214
ag1215
ag1216
ag1217
ag1218
a(lp1694
I406
ag1614
aag1221
ag1222
ag1223
ag1224
ag1225
ag1226
a(lp1695
I413
ag1614
aag1230
ag1231
ag1232
a(lp1696
I417
ag1614
aag1235
ag1236
ag1237
ag1238
ag1239
ag1240
a(lp1697
I424
ag1614
aag1244
ag1245
ag1246
a(lp1698
I428
ag1614
aag1249
ag1250
ag1251
ag1252
ag1253
ag1254
ag1255
a(lp1699
I436
ag1614
aag1259
ag1260
ag1261
ag1262
a(lp1700
I442
ag1614
aa(lp1701
I444
ag1614
aag1266
ag1267
ag1268
ag1269
a(lp1702
I449
ag1614
aag1272
ag1273
ag1274
ag1275
ag1276
a(lp1703
I455
ag1614
aag1279
ag1280
ag1281
ag1282
a(lp1704
I460
ag1614
aag1285
ag1286
ag1287
ag1288
a(lp1705
I465
ag1614
aag1291
ag1292
ag1293
ag1294
a(lp1706
I470
ag1614
aag1297
ag1298
ag1299
ag1300
ag1301
ag1302
ag1303
a(lp1707
I478
ag1614
aag1306
ag1307
ag1308
ag1309
ag1310
a(lp1708
I484
ag1614
aag1314
ag1315
ag1316
ag1317
a(lp1709
I489
ag1614
aag1320
ag1321
a(lp1710
I492
ag1614
aag1324
ag1325
ag1326
ag1327
ag1328
ag1329
ag1330
ag1331
ag1332
a(lp1711
I502
ag1614
aag1336
ag1337
ag1338
a(lp1712
I506
ag1614
aag1342
ag1343
ag1344
a(lp1713
I510
ag1614
aag1348
ag1349
a(lp1714
I513
ag1614
aag1352
ag1353
ag1354
a(lp1715
I518
ag1614
aag1357
ag1358
ag1359
ag1360
ag1361
a(lp1716
I524
ag1614
aag1365
ag1366
a(lp1717
I527
ag1614
aag1370
ag1371
ag1372
a(lp1718
I531
ag1614
aag1375
ag1376
ag1377
ag1378
ag1379
a(lp1719
I537
ag1614
aag1383
ag1384
a(lp1720
I540
ag1614
aag1387
ag1388
ag1389
ag1390
a(lp1721
I545
ag1614
aag1394
ag1395
a(lp1722
I548
ag1614
aag1399
ag1400
ag1401
ag1402
a(lp1723
I553
ag1614
aag1406
ag1407
ag1408
a(lp1724
I557
ag1614
aag1411
ag1412
ag1413
ag1414
ag1415
a(lp1725
I564
ag1614
aag1418
ag1419
ag1420
ag1421
ag1422
ag1423
ag1424
ag1425
ag1426
ag1427
ag1428
ag1429
ag1430
a(lp1726
I578
ag1614
aag1433
ag1434
ag1435
ag1436
a(lp1727
I583
ag1614
aag1440
ag1441
ag1442
a(lp1728
I587
ag1614
aag1445
ag1446
ag1447
ag1448
ag1449
a(lp1729
I593
ag1614
aag1453
ag1454
ag1455
ag1456
a(lp1730
I598
ag1614
aag1460
ag1461
a(lp1731
I601
ag1614
aag1464
ag1465
ag1466
ag1467
ag1468
a(lp1732
I607
ag1614
aag1471
ag1472
ag1473
ag1474
ag1475
ag1476
a(lp1733
I614
ag1614
aag1480
ag1481
a(lp1734
I617
ag1614
aag1484
ag1485
ag1486
ag1487
a(lp1735
I622
ag1614
aag1491
ag1492
a(lp1736
I625
ag1614
aag1496
ag1497
ag1498
ag1499
a(lp1737
I630
ag1614
aag1503
ag1504
ag1505
a(lp1738
I634
ag1614
aag1508
ag1509
ag1510
ag1511
a(lp1739
I640
ag1614
aag1514
ag1515
ag1516
a(lp1740
I644
ag1614
aag1519
ag1520
ag1521
ag1522
ag1523
ag1524
ag1525
ag1526
ag1527
ag1528
a(lp1741
I656
ag1614
aag1531
ag1532
ag1533
a(lp1742
I660
ag1614
aag1536
ag1537
ag1538
ag1539
ag1540
ag1541
ag1542
ag1543
ag1544
ag1545
a(lp1743
I671
ag1614
aag1548
ag1549
ag1550
ag1551
ag1552
a(lp1744
I677
ag1614
aag1556
ag1557
ag1558
ag1559
a(lp1745
I682
ag1614
aag1563
ag1564
ag1565
a(lp1746
I686
ag1614
aag1568
ag1569
ag1570
ag1571
ag1572
a(lp1747
I692
ag1614
aag1575
ag1576
ag1577
ag1578
a(lp1748
I697
ag1614
aag1581
ag1582
ag1583
ag1584
ag1585
a(lp1749
I703
ag1614
aag1589
ag1590
ag1591
a(lp1750
I707
ag1614
aag1594
ag1595
ag1596
ag1597
a(lp1751
I712
ag1614
aag1600
ag1601
ag1602
ag1603
ag1604
a(lp1752
I718
ag1614
aag1607
ag1608
ag1609
ag1610
a(lp1753
I723
ag1614
aa(lp1754
I724
ag735
aa(lp1755
I725
ag728
aa(lp1756
I726
ag738
aa(lp1757
I727
ag693
aa(lp1758
I728
ag689
aasS'text'
p1759
S"disney - this free shock wave game from disney is all about bringing up your own dalmation. help your puppy to eat, sleep, play with it and keep it warm just as you would your real pet. this shock wave game saves itself so you can come back to it at a later date. - in this free shock wave game you have to help the 101 dalmations round up all of their animal friends, before cruella de vil's evil henchmen jasper and horace can capture them. - this shock wave game uses musical notes with 10 available for you to use. click on the notes to make up your own tunes. alternatively drag the notes into an empty circle to make up your own song. 101 dalmations. 101 dalmations games that are shock wave games and free shock wave games."
p1760
sS'cleanWordMap'
p1761
(lp1762
g682
ag705
ag713
ag723
ag732
ag747
ag777
ag806
ag817
ag830
ag842
ag847
ag854
ag878
ag889
ag914
ag928
ag934
ag946
ag953
ag959
ag965
ag998
ag1004
ag1028
ag1035
ag1053
ag1059
ag1066
ag1072
ag1096
ag1108
ag1115
ag1127
ag1158
ag1166
ag1184
ag1193
ag1197
ag1203
ag1209
ag1219
ag1233
ag1247
ag1270
ag1277
ag1283
ag1289
ag1295
ag1304
ag1318
ag1322
ag1350
ag1355
ag1373
ag1385
ag1409
ag1416
ag1431
ag1443
ag1462
ag1469
ag1482
ag1506
ag1512
ag1517
ag1529
ag1534
ag1546
ag1566
ag1573
ag1579
ag1592
ag1598
ag1605
asS'lines'
p1763
(lp1764
VDisney\u000a
p1765
aV- This free shock wave game from Disney is all about bringing up your own Dalmation. Help your puppy to eat, sleep, play with it and keep it warm just as you would your real pet. This shock wave game saves itself so you can come back to it at a later date. - In this free shock wave game you have to help the 101 Dalmations round up all of their animal friends, before Cruella De Vil's evil henchmen Jasper and Horace can capture them. - This shock wave game uses musical notes with 10 available for you to use. Click on the notes to make up your own tunes. Alternatively drag the notes into an empty circle to make up your own song.\u000a
p1766
aV101 Dalmations. 101 dalmations games that are Shock wave games and free shock wave games.
p1767
asS'docType'
p1768
S'src'
p1769
sS'newfmap'
p1770
(lp1771
g4
ag8
ag10
ag12
ag14
ag17
ag19
ag21
ag23
ag26
ag28
ag30
ag35
ag37
ag39
ag41
ag44
ag46
ag48
ag50
ag53
ag55
ag57
ag59
ag62
ag64
ag66
ag68
ag71
ag73
ag75
ag77
ag80
ag82
ag84
ag86
ag89
ag91
ag93
ag95
ag98
ag100
ag102
ag104
ag107
ag109
ag111
ag113
ag116
ag118
ag120
ag122
ag125
ag127
ag129
ag131
ag134
ag136
ag138
ag140
ag143
ag145
ag147
ag149
ag152
ag154
ag156
ag158
ag161
ag163
ag165
ag167
ag170
ag172
ag174
ag179
ag181
ag183
ag185
ag188
ag190
ag192
ag194
ag197
ag199
ag201
ag203
ag206
ag208
ag210
ag212
ag215
ag217
ag219
ag221
ag224
ag226
ag228
ag230
ag233
ag235
ag237
ag239
ag242
ag244
ag246
ag248
ag251
ag253
ag255
ag260
ag262
ag264
ag266
ag269
ag271
ag273
ag275
ag278
ag280
ag282
ag284
ag287
ag289
ag291
ag293
ag296
ag298
ag300
ag302
ag305
ag307
ag309
ag311
ag314
ag316
ag318
ag320
ag323
ag325
ag327
ag329
ag332
ag334
ag336
ag338
ag341
ag343
ag345
ag347
ag350
ag352
ag354
ag356
ag359
ag361
ag363
ag365
ag368
ag370
ag372
ag374
ag377
ag379
ag381
ag383
ag386
ag388
ag390
ag392
ag395
ag397
ag399
ag401
ag404
ag406
ag408
ag413
ag415
ag417
ag419
ag422
ag424
ag426
ag428
ag431
ag433
ag435
ag437
ag440
ag442
ag444
ag446
ag449
ag451
ag453
ag455
ag458
ag460
ag462
ag464
ag467
ag469
ag471
ag473
ag476
ag478
ag480
ag482
ag485
ag487
ag489
ag491
ag494
ag496
ag498
ag500
ag503
ag505
ag507
ag509
ag512
ag514
ag516
ag518
ag521
ag523
ag525
ag527
ag530
ag532
ag534
ag536
ag539
ag541
ag543
ag545
ag548
ag550
ag552
ag554
ag557
ag559
ag561
ag563
ag566
ag568
ag570
ag572
ag575
ag577
ag579
ag581
ag584
ag586
ag588
ag590
ag593
ag595
ag597
ag599
ag602
ag604
ag606
ag608
ag611
ag613
ag615
ag617
ag620
ag622
ag624
ag626
ag629
ag631
ag633
ag638
ag640
ag642
ag644
ag647
ag649
ag651
ag653
ag656
ag658
ag660
ag662
ag665
ag667
ag669
ag674
ag676
ag678
asS'featureMap'
p1772
(lp1773
(lp1774
I0
aI5
ag5
ag6
ag9
ag11
ag13
aa(lp1775
I14
aI17
ag15
ag16
ag18
ag20
ag22
aa(lp1776
I19
aI23
ag24
ag25
ag27
ag29
ag31
aa(lp1777
I25
aI28
ag33
ag34
ag36
ag38
ag40
aa(lp1778
I30
aI33
ag42
ag43
ag45
ag47
ag49
aa(lp1779
I40
aI45
ag51
ag52
ag54
ag56
ag58
aa(lp1780
I60
aI67
ag60
ag61
ag63
ag65
ag67
aa(lp1781
I81
aI89
ag69
ag70
ag72
ag74
ag76
aa(lp1782
I92
aI95
ag78
ag79
ag81
ag83
ag85
aa(lp1783
I102
aI106
ag87
ag88
ag90
ag92
ag94
aa(lp1784
I111
aI113
ag96
ag97
ag99
ag101
ag103
aa(lp1785
I116
aI120
ag105
ag106
ag108
ag110
ag112
aa(lp1786
I123
aI126
ag114
ag115
ag117
ag119
ag121
aa(lp1787
I140
aI143
ag123
ag124
ag126
ag128
ag130
aa(lp1788
I148
aI151
ag132
ag133
ag135
ag137
ag139
aa(lp1789
I165
aI169
ag141
ag142
ag144
ag146
ag148
aa(lp1790
I176
aI179
ag150
ag151
ag153
ag155
ag157
aa(lp1791
I181
aI183
ag159
ag160
ag162
ag164
ag166
aa(lp1792
I191
aI195
ag168
ag169
ag171
ag173
ag175
aa(lp1793
I197
aI200
ag177
ag178
ag180
ag182
ag184
aa(lp1794
I202
aI205
ag186
ag187
ag189
ag191
ag193
aa(lp1795
I207
aI211
ag195
ag196
ag198
ag200
ag202
aa(lp1796
I231
aI234
ag204
ag205
ag207
ag209
ag211
aa(lp1797
I236
aI239
ag213
ag214
ag216
ag218
ag220
aa(lp1798
I252
aI256
ag222
ag223
ag225
ag227
ag229
aa(lp1799
I258
aI261
ag231
ag232
ag234
ag236
ag238
aa(lp1800
I274
aI277
ag240
ag241
ag243
ag245
ag247
aa(lp1801
I279
aI283
ag249
ag250
ag252
ag254
ag256
aa(lp1802
I285
aI288
ag258
ag259
ag261
ag263
ag265
aa(lp1803
I290
aI293
ag267
ag268
ag270
ag272
ag274
aa(lp1804
I307
aI310
ag276
ag277
ag279
ag281
ag283
aa(lp1805
I316
aI318
ag285
ag286
ag288
ag290
ag292
aa(lp1806
I320
aI329
ag294
ag295
ag297
ag299
ag301
aa(lp1807
I331
aI335
ag303
ag304
ag306
ag308
ag310
aa(lp1808
I353
aI358
ag312
ag313
ag315
ag317
ag319
aa(lp1809
I360
aI366
ag321
ag322
ag324
ag326
ag328
aa(lp1810
I376
aI382
ag330
ag331
ag333
ag335
ag337
aa(lp1811
I384
aI385
ag339
ag340
ag342
ag344
ag346
aa(lp1812
I387
aI391
ag348
ag349
ag351
ag353
ag355
aa(lp1813
I393
aI396
ag357
ag358
ag360
ag362
ag364
aa(lp1814
I398
aI405
ag366
ag367
ag369
ag371
ag373
aa(lp1815
I407
aI412
ag375
ag376
ag378
ag380
ag382
aa(lp1816
I418
aI423
ag384
ag385
ag387
ag389
ag391
aa(lp1817
I429
aI435
ag393
ag394
ag396
ag398
ag400
aa(lp1818
I450
aI454
ag402
ag403
ag405
ag407
ag409
aa(lp1819
I456
aI459
ag411
ag412
ag414
ag416
ag418
aa(lp1820
I461
aI464
ag420
ag421
ag423
ag425
ag427
aa(lp1821
I466
aI469
ag429
ag430
ag432
ag434
ag436
aa(lp1822
I471
aI477
ag438
ag439
ag441
ag443
ag445
aa(lp1823
I479
aI483
ag447
ag448
ag450
ag452
ag454
aa(lp1824
I490
aI491
ag456
ag457
ag459
ag461
ag463
aa(lp1825
I493
aI501
ag465
ag466
ag468
ag470
ag472
aa(lp1826
I514
aI516
ag474
ag475
ag477
ag479
ag481
aa(lp1827
I519
aI523
ag483
ag484
ag486
ag488
ag490
aa(lp1828
I532
aI536
ag492
ag493
ag495
ag497
ag499
aa(lp1829
I541
aI544
ag501
ag502
ag504
ag506
ag508
aa(lp1830
I558
aI562
ag510
ag511
ag513
ag515
ag517
aa(lp1831
I565
aI577
ag519
ag520
ag522
ag524
ag526
aa(lp1832
I579
aI582
ag528
ag529
ag531
ag533
ag535
aa(lp1833
I588
aI592
ag537
ag538
ag540
ag542
ag544
aa(lp1834
I602
aI606
ag546
ag547
ag549
ag551
ag553
aa(lp1835
I608
aI613
ag555
ag556
ag558
ag560
ag562
aa(lp1836
I618
aI621
ag564
ag565
ag567
ag569
ag571
aa(lp1837
I635
aI638
ag573
ag574
ag576
ag578
ag580
aa(lp1838
I641
aI643
ag582
ag583
ag585
ag587
ag589
aa(lp1839
I645
aI654
ag591
ag592
ag594
ag596
ag598
aa(lp1840
I657
aI659
ag600
ag601
ag603
ag605
ag607
aa(lp1841
I661
aI670
ag609
ag610
ag612
ag614
ag616
aa(lp1842
I672
aI676
ag618
ag619
ag621
ag623
ag625
aa(lp1843
I687
aI691
ag627
ag628
ag630
ag632
ag634
aa(lp1844
I693
aI696
ag636
ag637
ag639
ag641
ag643
aa(lp1845
I698
aI702
ag645
ag646
ag648
ag650
ag652
aa(lp1846
I708
aI711
ag654
ag655
ag657
ag659
ag661
aa(lp1847
I713
aI717
ag663
ag664
ag666
ag668
ag670
aa(lp1848
I719
aI722
ag672
ag673
ag675
ag677
ag679
aasS'characterMap'
p1849
(lp1850
g684
ag686
ag688
ag690
ag692
ag694
ag1613
a(lp1851
I7
aS'-'
p1852
aag1615
ag699
ag701
ag703
ag704
ag1616
ag707
ag709
ag711
ag712
ag1617
ag715
ag716
ag717
ag719
ag721
ag1618
ag725
ag727
ag729
ag731
ag1619
ag734
ag736
ag737
ag739
ag1620
ag743
ag744
ag745
ag746
ag1621
ag749
ag750
ag751
ag752
ag753
ag754
ag1622
ag758
ag759
ag1623
ag763
ag764
ag766
ag1624
ag770
ag771
ag773
ag774
ag776
ag1625
ag779
ag780
ag781
ag782
ag783
ag784
ag785
ag786
ag1626
ag790
ag791
ag1627
ag796
ag797
ag798
ag799
ag1628
ag803
ag804
ag805
ag1629
ag808
ag809
ag810
ag811
ag812
ag813
ag814
ag815
ag816
a(lp1853
I90
aS'.'
p1854
aag1630
ag819
ag820
ag821
ag822
ag1631
ag826
ag827
ag828
ag829
ag1632
ag832
ag833
ag834
ag835
ag836
ag1633
ag840
ag841
ag1634
ag844
ag845
ag846
a(lp1855
I114
aS','
p1856
aag1635
ag849
ag850
ag851
ag852
ag853
a(lp1857
I121
ag1856
aag1636
ag856
ag857
ag858
ag859
ag1637
ag863
ag864
ag865
ag866
ag1638
ag870
ag871
ag1639
ag875
ag876
ag877
ag1640
ag880
ag881
ag882
ag883
ag1641
ag887
ag888
ag1642
ag891
ag892
ag893
ag894
ag1643
ag898
ag900
ag901
ag902
ag1644
ag906
ag907
ag1645
ag911
ag912
ag913
ag1646
ag916
ag917
ag918
ag919
ag920
ag1647
ag924
ag925
ag926
ag927
ag1648
ag930
ag931
ag932
ag933
ag1649
ag936
ag937
ag938
a(lp1858
I184
ag1854
aag1650
ag942
ag943
ag944
ag945
ag1651
ag948
ag949
ag950
ag951
ag952
ag1652
ag955
ag956
ag957
ag958
ag1653
ag961
ag962
ag963
ag964
ag1654
ag967
ag968
ag969
ag970
ag971
ag1655
ag975
ag976
ag977
ag978
ag979
ag980
ag1656
ag984
ag985
ag1657
ag989
ag990
ag991
ag1658
ag995
ag996
ag997
ag1659
ag1000
ag1001
ag1002
ag1003
ag1660
ag1006
ag1007
ag1008
ag1009
ag1661
ag1013
ag1014
ag1662
ag1018
ag1019
ag1663
ag1023
ag1024
ag1664
ag1027
ag1665
ag1030
ag1031
ag1032
ag1033
ag1034
ag1666
ag1037
ag1038
ag1039
ag1040
a(lp1859
I262
ag1854
aag1667
a(lp1860
I264
ag1852
aag1668
ag1044
ag1045
ag1669
ag1049
ag1050
ag1051
ag1052
ag1670
ag1055
ag1056
ag1057
ag1058
ag1671
ag1061
ag1062
ag1063
ag1064
ag1065
ag1672
ag1068
ag1069
ag1070
ag1071
ag1673
ag1074
ag1075
ag1076
ag1077
ag1674
ag1081
ag1082
ag1083
ag1675
ag1087
ag1088
ag1089
ag1090
ag1676
ag1094
ag1095
ag1677
ag1098
ag1099
ag1100
ag1101
ag1678
ag1105
ag1106
ag1107
ag1679
ag1110
ag1112
ag1114
ag1680
ag1117
ag1118
ag1119
ag1120
ag1121
ag1122
ag1123
ag1124
ag1125
ag1126
ag1681
ag1129
ag1130
ag1131
ag1132
ag1133
ag1682
ag1137
ag1138
ag1683
ag1142
ag1143
ag1144
ag1684
ag1148
ag1149
ag1685
ag1153
ag1154
ag1155
ag1156
ag1157
ag1686
ag1160
ag1161
ag1162
ag1163
ag1164
ag1165
ag1687
ag1168
ag1169
ag1170
ag1171
ag1172
ag1173
ag1174
a(lp1861
I367
ag1856
aag1688
ag1178
ag1179
ag1180
ag1181
ag1182
ag1183
ag1689
ag1186
ag1187
ag1188
ag1189
ag1190
ag1191
ag1192
ag1690
ag1195
ag1196
ag1691
ag1199
ag1200
ag1201
a(lp1862
I390
aS"'"
p1863
aag1202
ag1692
ag1205
ag1206
ag1207
ag1208
ag1693
ag1211
ag1212
ag1213
ag1214
ag1215
ag1216
ag1217
ag1218
ag1694
ag1221
ag1222
ag1223
ag1224
ag1225
ag1226
ag1695
ag1230
ag1231
ag1232
ag1696
ag1235
ag1236
ag1237
ag1238
ag1239
ag1240
ag1697
ag1244
ag1245
ag1246
ag1698
ag1249
ag1250
ag1251
ag1252
ag1253
ag1254
ag1255
ag1699
ag1259
ag1260
ag1261
ag1262
a(lp1864
I441
ag1854
aag1700
a(lp1865
I443
ag1852
aag1701
ag1266
ag1267
ag1268
ag1269
ag1702
ag1272
ag1273
ag1274
ag1275
ag1276
ag1703
ag1279
ag1280
ag1281
ag1282
ag1704
ag1285
ag1286
ag1287
ag1288
ag1705
ag1291
ag1292
ag1293
ag1294
ag1706
ag1297
ag1298
ag1299
ag1300
ag1301
ag1302
ag1303
ag1707
ag1306
ag1307
ag1308
ag1309
ag1310
ag1708
ag1314
ag1315
ag1316
ag1317
ag1709
ag1320
ag1321
ag1710
ag1324
ag1325
ag1326
ag1327
ag1328
ag1329
ag1330
ag1331
ag1332
ag1711
ag1336
ag1337
ag1338
ag1712
ag1342
ag1343
ag1344
ag1713
ag1348
ag1349
ag1714
ag1352
ag1353
ag1354
a(lp1866
I517
ag1854
aag1715
ag1357
ag1358
ag1359
ag1360
ag1361
ag1716
ag1365
ag1366
ag1717
ag1370
ag1371
ag1372
ag1718
ag1375
ag1376
ag1377
ag1378
ag1379
ag1719
ag1383
ag1384
ag1720
ag1387
ag1388
ag1389
ag1390
ag1721
ag1394
ag1395
ag1722
ag1399
ag1400
ag1401
ag1402
ag1723
ag1406
ag1407
ag1408
ag1724
ag1411
ag1412
ag1413
ag1414
ag1415
a(lp1867
I563
ag1854
aag1725
ag1418
ag1419
ag1420
ag1421
ag1422
ag1423
ag1424
ag1425
ag1426
ag1427
ag1428
ag1429
ag1430
ag1726
ag1433
ag1434
ag1435
ag1436
ag1727
ag1440
ag1441
ag1442
ag1728
ag1445
ag1446
ag1447
ag1448
ag1449
ag1729
ag1453
ag1454
ag1455
ag1456
ag1730
ag1460
ag1461
ag1731
ag1464
ag1465
ag1466
ag1467
ag1468
ag1732
ag1471
ag1472
ag1473
ag1474
ag1475
ag1476
ag1733
ag1480
ag1481
ag1734
ag1484
ag1485
ag1486
ag1487
ag1735
ag1491
ag1492
ag1736
ag1496
ag1497
ag1498
ag1499
ag1737
ag1503
ag1504
ag1505
ag1738
ag1508
ag1509
ag1510
ag1511
a(lp1868
I639
ag1854
aag1739
ag1514
ag1515
ag1516
ag1740
ag1519
ag1520
ag1521
ag1522
ag1523
ag1524
ag1525
ag1526
ag1527
ag1528
a(lp1869
I655
ag1854
aag1741
ag1531
ag1532
ag1533
ag1742
ag1536
ag1537
ag1538
ag1539
ag1540
ag1541
ag1542
ag1543
ag1544
ag1545
ag1743
ag1548
ag1549
ag1550
ag1551
ag1552
ag1744
ag1556
ag1557
ag1558
ag1559
ag1745
ag1563
ag1564
ag1565
ag1746
ag1568
ag1569
ag1570
ag1571
ag1572
ag1747
ag1575
ag1576
ag1577
ag1578
ag1748
ag1581
ag1582
ag1583
ag1584
ag1585
ag1749
ag1589
ag1590
ag1591
ag1750
ag1594
ag1595
ag1596
ag1597
ag1751
ag1600
ag1601
ag1602
ag1603
ag1604
ag1752
ag1607
ag1608
ag1609
ag1610
ag1753
ag1754
ag1755
ag1756
ag1757
ag1758
a(lp1870
I729
ag1854
aasS'docName'
p1871
S'source-document02351.txt'
p1872
sb.