(iModel.Document
Document
p0
(dp1
S'fmap'
p2
(lp3
sS'wordMap'
p4
(lp5
sS'cleanCharacterMap'
p6
(lp7
(lp8
I1
aS' '
p9
aa(lp10
I3
ag9
aa(lp11
I4
aS'u'
p12
aa(lp13
I5
aS'n'
p14
aa(lp15
I6
aS'i'
p16
aa(lp17
I7
aS't'
p18
aa(lp19
I8
aS'e'
p20
aa(lp21
I9
aS'd'
p22
aa(lp23
I10
ag9
aa(lp24
I11
aS's'
p25
aa(lp26
I12
ag18
aa(lp27
I13
aS'a'
p28
aa(lp29
I14
ag18
aa(lp30
I15
ag20
aa(lp31
I16
ag25
aa(lp32
I17
ag9
aa(lp33
I18
aS'f'
p34
aa(lp35
I19
aS'l'
p36
aa(lp37
I20
aS'o'
p38
aa(lp39
I21
aS'r'
p40
aa(lp41
I22
ag16
aa(lp42
I23
ag22
aa(lp43
I24
ag28
aa(lp44
I25
ag9
aa(lp45
I26
aS'j'
p46
aa(lp47
I27
ag28
aa(lp48
I28
aS'c'
p49
aa(lp50
I29
aS'k'
p51
aa(lp52
I30
ag25
aa(lp53
I31
ag38
aa(lp54
I32
ag14
aa(lp55
I33
aS'v'
p56
aa(lp57
I34
ag16
aa(lp58
I35
ag36
aa(lp59
I36
ag36
aa(lp60
I37
ag20
aa(lp61
I38
ag9
aa(lp62
I39
ag46
aa(lp63
I40
ag28
aa(lp64
I41
ag49
aa(lp65
I42
ag51
aa(lp66
I43
ag25
aa(lp67
I44
ag38
aa(lp68
I45
ag14
aa(lp69
I46
ag56
aa(lp70
I47
ag16
aa(lp71
I48
ag36
aa(lp72
I49
ag36
aa(lp73
I50
ag20
aa(lp74
I51
ag9
aa(lp75
I52
ag34
aa(lp76
I53
ag36
aa(lp77
I54
ag9
aa(lp78
I55
aS'h'
p79
aa(lp80
I56
ag38
aa(lp81
I57
ag18
aa(lp82
I58
ag20
aa(lp83
I59
ag36
aa(lp84
I60
ag25
aa(lp85
I62
ag9
aa(lp86
I63
aS'm'
p87
aa(lp88
I64
ag38
aa(lp89
I65
ag18
aa(lp90
I66
ag20
aa(lp91
I67
ag36
aa(lp92
I68
ag25
aa(lp93
I69
ag9
aa(lp94
I70
ag28
aa(lp95
I71
ag14
aa(lp96
I72
ag22
aa(lp97
I73
ag9
aa(lp98
I74
ag36
aa(lp99
I75
ag38
aa(lp100
I76
ag22
aa(lp101
I77
aS'g'
p102
aa(lp103
I78
ag16
aa(lp104
I79
ag14
aa(lp105
I80
ag102
aa(lp106
I81
ag9
aa(lp107
I82
ag25
aa(lp108
I83
ag20
aa(lp109
I84
ag28
aa(lp110
I85
ag40
aa(lp111
I86
ag49
aa(lp112
I87
ag79
aa(lp113
I88
ag16
aa(lp114
I89
ag14
aa(lp115
I90
ag102
aa(lp116
I91
ag9
aa(lp117
I92
ag34
aa(lp118
I93
ag38
aa(lp119
I94
ag40
aa(lp120
I95
ag9
aa(lp121
I96
ag79
aa(lp122
I97
ag38
aa(lp123
I98
ag18
aa(lp124
I99
ag20
aa(lp125
I100
ag36
aa(lp126
I101
ag25
aa(lp127
I102
ag9
aa(lp128
I103
ag28
aa(lp129
I104
ag14
aa(lp130
I105
ag22
aa(lp131
I106
ag9
aa(lp132
I107
ag87
aa(lp133
I108
ag38
aa(lp134
I109
ag18
aa(lp135
I110
ag20
aa(lp136
I111
ag36
aa(lp137
I112
ag25
aa(lp138
I113
ag9
aa(lp139
I114
ag16
aa(lp140
I115
ag14
aa(lp141
I116
ag9
aa(lp142
I117
ag46
aa(lp143
I118
ag28
aa(lp144
I119
ag49
aa(lp145
I120
ag51
aa(lp146
I121
ag25
aa(lp147
I122
ag38
aa(lp148
I123
ag14
aa(lp149
I124
ag56
aa(lp150
I125
ag16
aa(lp151
I126
ag36
aa(lp152
I127
ag36
aa(lp153
I128
ag20
aa(lp154
I130
ag9
aa(lp155
I131
ag34
aa(lp156
I132
ag36
aa(lp157
I134
ag9
aa(lp158
I135
aS'w'
p159
aa(lp160
I136
ag79
aa(lp161
I137
ag20
aa(lp162
I138
ag18
aa(lp163
I139
ag79
aa(lp164
I140
ag20
aa(lp165
I141
ag40
aa(lp166
I142
ag9
aa(lp167
I143
aS'y'
p168
aa(lp169
I144
ag38
aa(lp170
I145
ag12
aa(lp171
I146
ag9
aa(lp172
I147
ag28
aa(lp173
I148
ag40
aa(lp174
I149
ag20
aa(lp175
I150
ag9
aa(lp176
I151
ag18
aa(lp177
I152
ag40
aa(lp178
I153
ag28
aa(lp179
I154
ag56
aa(lp180
I155
ag20
aa(lp181
I156
ag36
aa(lp182
I157
ag16
aa(lp183
I158
ag14
aa(lp184
I159
ag102
aa(lp185
I160
ag9
aa(lp186
I161
ag18
aa(lp187
I162
ag38
aa(lp188
I163
ag9
aa(lp189
I164
ag46
aa(lp190
I165
ag28
aa(lp191
I166
ag49
aa(lp192
I167
ag51
aa(lp193
I168
ag25
aa(lp194
I169
ag38
aa(lp195
I170
ag14
aa(lp196
I171
ag56
aa(lp197
I172
ag16
aa(lp198
I173
ag36
aa(lp199
I174
ag36
aa(lp200
I175
ag20
aa(lp201
I177
ag9
aa(lp202
I178
ag34
aa(lp203
I179
ag36
aa(lp204
I180
ag38
aa(lp205
I181
ag40
aa(lp206
I182
ag16
aa(lp207
I183
ag22
aa(lp208
I184
ag28
aa(lp209
I185
ag9
aa(lp210
I186
ag34
aa(lp211
I187
ag38
aa(lp212
I188
ag40
aa(lp213
I189
ag9
aa(lp214
I190
aS'b'
p215
aa(lp216
I191
ag12
aa(lp217
I192
ag25
aa(lp218
I193
ag16
aa(lp219
I194
ag14
aa(lp220
I195
ag20
aa(lp221
I196
ag25
aa(lp222
I197
ag25
aa(lp223
I198
ag9
aa(lp224
I199
ag38
aa(lp225
I200
ag40
aa(lp226
I201
ag9
aa(lp227
I202
aS'p'
p228
aa(lp229
I203
ag36
aa(lp230
I204
ag20
aa(lp231
I205
ag28
aa(lp232
I206
ag25
aa(lp233
I207
ag12
aa(lp234
I208
ag40
aa(lp235
I209
ag20
aa(lp236
I211
ag9
aa(lp237
I212
ag38
aa(lp238
I213
ag12
aa(lp239
I214
ag40
aa(lp240
I215
ag9
aa(lp241
I216
ag79
aa(lp242
I217
ag38
aa(lp243
I218
ag18
aa(lp244
I219
ag20
aa(lp245
I220
ag36
aa(lp246
I221
ag9
aa(lp247
I222
ag36
aa(lp248
I223
ag16
aa(lp249
I224
ag25
aa(lp250
I225
ag18
aa(lp251
I226
ag16
aa(lp252
I227
ag14
aa(lp253
I228
ag102
aa(lp254
I229
ag25
aa(lp255
I230
ag9
aa(lp256
I231
ag159
aa(lp257
I232
ag16
aa(lp258
I233
ag36
aa(lp259
I234
ag36
aa(lp260
I235
ag9
aa(lp261
I236
ag87
aa(lp262
I237
ag28
aa(lp263
I238
ag51
aa(lp264
I239
ag20
aa(lp265
I240
ag9
aa(lp266
I241
ag18
aa(lp267
I242
ag79
aa(lp268
I243
ag20
aa(lp269
I244
ag9
aa(lp270
I245
ag228
aa(lp271
I246
ag40
aa(lp272
I247
ag38
aa(lp273
I248
ag49
aa(lp274
I249
ag20
aa(lp275
I250
ag25
aa(lp276
I251
ag25
aa(lp277
I252
ag9
aa(lp278
I253
ag28
aa(lp279
I254
ag9
aa(lp280
I255
ag14
aa(lp281
I256
ag16
aa(lp282
I257
ag49
aa(lp283
I258
ag20
aa(lp284
I259
ag40
aa(lp285
I260
ag9
aa(lp286
I261
ag38
aa(lp287
I262
ag14
aa(lp288
I263
ag20
aa(lp289
I265
ag9
aa(lp290
I266
ag159
aa(lp291
I267
ag20
aa(lp292
I268
ag9
aa(lp293
I269
ag79
aa(lp294
I270
ag28
aa(lp295
I271
ag56
aa(lp296
I272
ag20
aa(lp297
I273
ag9
aa(lp298
I274
ag49
aa(lp299
I275
ag38
aa(lp300
I276
ag36
aa(lp301
I277
ag36
aa(lp302
I278
ag20
aa(lp303
I279
ag49
aa(lp304
I280
ag18
aa(lp305
I281
ag20
aa(lp306
I282
ag22
aa(lp307
I283
ag9
aa(lp308
I284
ag16
aa(lp309
I285
ag14
aa(lp310
I286
ag34
aa(lp311
I287
ag38
aa(lp312
I288
ag40
aa(lp313
I289
ag87
aa(lp314
I290
ag28
aa(lp315
I291
ag18
aa(lp316
I292
ag16
aa(lp317
I293
ag38
aa(lp318
I294
ag14
aa(lp319
I295
ag9
aa(lp320
I296
ag38
aa(lp321
I297
ag14
aa(lp322
I298
ag9
aa(lp323
I299
ag79
aa(lp324
I300
ag38
aa(lp325
I301
ag18
aa(lp326
I302
ag20
aa(lp327
I303
ag36
aa(lp328
I304
ag25
aa(lp329
I305
ag9
aa(lp330
I306
ag28
aa(lp331
I307
ag14
aa(lp332
I308
ag22
aa(lp333
I309
ag9
aa(lp334
I310
ag87
aa(lp335
I311
ag38
aa(lp336
I312
ag18
aa(lp337
I313
ag20
aa(lp338
I314
ag36
aa(lp339
I315
ag25
aa(lp340
I316
ag9
aa(lp341
I317
ag16
aa(lp342
I318
ag14
aa(lp343
I319
ag9
aa(lp344
I320
ag46
aa(lp345
I321
ag28
aa(lp346
I322
ag49
aa(lp347
I323
ag51
aa(lp348
I324
ag25
aa(lp349
I325
ag38
aa(lp350
I326
ag14
aa(lp351
I327
ag56
aa(lp352
I328
ag16
aa(lp353
I329
ag36
aa(lp354
I330
ag36
aa(lp355
I331
ag20
aa(lp356
I333
ag9
aa(lp357
I334
ag34
aa(lp358
I335
ag36
aa(lp359
I336
ag9
aa(lp360
I337
ag25
aa(lp361
I338
ag38
aa(lp362
I339
ag9
aa(lp363
I340
ag18
aa(lp364
I341
ag79
aa(lp365
I342
ag28
aa(lp366
I343
ag18
aa(lp367
I344
ag9
aa(lp368
I345
ag168
aa(lp369
I346
ag38
aa(lp370
I347
ag12
aa(lp371
I348
ag9
aa(lp372
I349
ag49
aa(lp373
I350
ag28
aa(lp374
I351
ag14
aa(lp375
I352
ag9
aa(lp376
I353
ag20
aa(lp377
I354
ag28
aa(lp378
I355
ag25
aa(lp379
I356
ag16
aa(lp380
I357
ag36
aa(lp381
I358
ag168
aa(lp382
I359
ag9
aa(lp383
I360
ag215
aa(lp384
I361
ag40
aa(lp385
I362
ag38
aa(lp386
I363
ag159
aa(lp387
I364
ag25
aa(lp388
I365
ag20
aa(lp389
I366
ag9
aa(lp390
I367
ag16
aa(lp391
I368
ag87
aa(lp392
I369
ag28
aa(lp393
I370
ag102
aa(lp394
I371
ag20
aa(lp395
I372
ag25
aa(lp396
I374
ag9
aa(lp397
I375
ag79
aa(lp398
I376
ag38
aa(lp399
I377
ag18
aa(lp400
I378
ag20
aa(lp401
I379
ag36
aa(lp402
I380
ag9
aa(lp403
I381
ag22
aa(lp404
I382
ag20
aa(lp405
I383
ag25
aa(lp406
I384
ag49
aa(lp407
I385
ag40
aa(lp408
I386
ag16
aa(lp409
I387
ag228
aa(lp410
I388
ag18
aa(lp411
I389
ag16
aa(lp412
I390
ag38
aa(lp413
I391
ag14
aa(lp414
I392
ag25
aa(lp415
I394
ag9
aa(lp416
I395
ag28
aa(lp417
I396
ag87
aa(lp418
I397
ag20
aa(lp419
I398
ag14
aa(lp420
I399
ag16
aa(lp421
I400
ag18
aa(lp422
I401
ag16
aa(lp423
I402
ag20
aa(lp424
I403
ag25
aa(lp425
I405
ag9
aa(lp426
I406
ag28
aa(lp427
I407
ag14
aa(lp428
I408
ag22
aa(lp429
I409
ag9
aa(lp430
I410
ag40
aa(lp431
I411
ag20
aa(lp432
I412
ag28
aa(lp433
I413
ag36
aa(lp434
I414
ag9
aa(lp435
I415
ag18
aa(lp436
I416
ag16
aa(lp437
I417
ag87
aa(lp438
I418
ag20
aa(lp439
I419
ag9
aa(lp440
I420
ag40
aa(lp441
I421
ag28
aa(lp442
I422
ag18
aa(lp443
I423
ag20
aa(lp444
I424
ag25
aa(lp445
I425
ag9
aa(lp446
I426
ag25
aa(lp447
I427
ag38
aa(lp448
I428
ag9
aa(lp449
I429
ag18
aa(lp450
I430
ag79
aa(lp451
I431
ag28
aa(lp452
I432
ag18
aa(lp453
I433
ag9
aa(lp454
I434
ag168
aa(lp455
I435
ag38
aa(lp456
I436
ag12
aa(lp457
I437
ag9
aa(lp458
I438
ag49
aa(lp459
I439
ag28
aa(lp460
I440
ag14
aa(lp461
I441
ag9
aa(lp462
I442
ag34
aa(lp463
I443
ag16
aa(lp464
I444
ag14
aa(lp465
I445
ag22
aa(lp466
I446
ag9
aa(lp467
I447
ag18
aa(lp468
I448
ag79
aa(lp469
I449
ag20
aa(lp470
I450
ag9
aa(lp471
I451
ag79
aa(lp472
I452
ag38
aa(lp473
I453
ag18
aa(lp474
I454
ag20
aa(lp475
I455
ag36
aa(lp476
I456
ag9
aa(lp477
I457
ag38
aa(lp478
I458
ag40
aa(lp479
I459
ag9
aa(lp480
I460
ag87
aa(lp481
I461
ag38
aa(lp482
I462
ag18
aa(lp483
I463
ag20
aa(lp484
I464
ag36
aa(lp485
I465
ag9
aa(lp486
I466
ag16
aa(lp487
I467
ag14
aa(lp488
I468
ag9
aa(lp489
I469
ag46
aa(lp490
I470
ag28
aa(lp491
I471
ag49
aa(lp492
I472
ag51
aa(lp493
I473
ag25
aa(lp494
I474
ag38
aa(lp495
I475
ag14
aa(lp496
I476
ag56
aa(lp497
I477
ag16
aa(lp498
I478
ag36
aa(lp499
I479
ag36
aa(lp500
I480
ag20
aa(lp501
I481
ag9
aa(lp502
I482
ag18
aa(lp503
I483
ag79
aa(lp504
I484
ag28
aa(lp505
I485
ag18
aa(lp506
I486
ag9
aa(lp507
I487
ag215
aa(lp508
I488
ag20
aa(lp509
I489
ag25
aa(lp510
I490
ag18
aa(lp511
I491
ag9
aa(lp512
I492
ag25
aa(lp513
I493
ag12
aa(lp514
I494
ag16
aa(lp515
I495
ag18
aa(lp516
I496
ag25
aa(lp517
I497
ag9
aa(lp518
I498
ag168
aa(lp519
I499
ag38
aa(lp520
I500
ag12
aa(lp521
I501
ag40
aa(lp522
I502
ag9
aa(lp523
I503
ag14
aa(lp524
I504
ag20
aa(lp525
I505
ag20
aa(lp526
I506
ag22
aa(lp527
I507
ag25
aa(lp528
I509
ag9
aa(lp529
I510
ag16
aa(lp530
I511
ag34
aa(lp531
I512
ag9
aa(lp532
I513
ag168
aa(lp533
I514
ag38
aa(lp534
I515
ag12
aa(lp535
I516
ag9
aa(lp536
I517
ag79
aa(lp537
I518
ag28
aa(lp538
I519
ag56
aa(lp539
I520
ag20
aa(lp540
I521
ag9
aa(lp541
I522
ag36
aa(lp542
I523
ag28
aa(lp543
I524
ag14
aa(lp544
I525
ag22
aa(lp545
I526
ag20
aa(lp546
I527
ag22
aa(lp547
I528
ag9
aa(lp548
I529
ag38
aa(lp549
I530
ag14
aa(lp550
I531
ag9
aa(lp551
I532
ag18
aa(lp552
I533
ag79
aa(lp553
I534
ag16
aa(lp554
I535
ag25
aa(lp555
I536
ag9
aa(lp556
I537
ag228
aa(lp557
I538
ag28
aa(lp558
I539
ag102
aa(lp559
I540
ag20
aa(lp560
I541
ag9
aa(lp561
I542
ag215
aa(lp562
I543
ag168
aa(lp563
I544
ag9
aa(lp564
I545
ag87
aa(lp565
I546
ag16
aa(lp566
I547
ag25
aa(lp567
I548
ag18
aa(lp568
I549
ag28
aa(lp569
I550
ag51
aa(lp570
I551
ag20
aa(lp571
I553
ag9
aa(lp572
I554
ag228
aa(lp573
I555
ag36
aa(lp574
I556
ag20
aa(lp575
I557
ag28
aa(lp576
I558
ag25
aa(lp577
I559
ag20
aa(lp578
I560
ag9
aa(lp579
I561
ag25
aa(lp580
I562
ag18
aa(lp581
I563
ag28
aa(lp582
I564
ag40
aa(lp583
I565
ag18
aa(lp584
I566
ag9
aa(lp585
I567
ag168
aa(lp586
I568
ag38
aa(lp587
I569
ag12
aa(lp588
I570
ag40
aa(lp589
I571
ag9
aa(lp590
I572
ag25
aa(lp591
I573
ag20
aa(lp592
I574
ag28
aa(lp593
I575
ag40
aa(lp594
I576
ag49
aa(lp595
I577
ag79
aa(lp596
I578
ag9
aa(lp597
I579
ag38
aa(lp598
I580
ag56
aa(lp599
I581
ag20
aa(lp600
I582
ag40
aa(lp601
I583
ag9
aa(lp602
I584
ag215
aa(lp603
I585
ag168
aa(lp604
I586
ag9
aa(lp605
I587
ag102
aa(lp606
I588
ag38
aa(lp607
I589
ag16
aa(lp608
I590
ag14
aa(lp609
I591
ag102
aa(lp610
I592
ag9
aa(lp611
I593
ag18
aa(lp612
I594
ag38
aa(lp613
I595
ag9
aa(lp614
I596
ag38
aa(lp615
I597
ag12
aa(lp616
I598
ag40
aa(lp617
I599
ag9
aa(lp618
I600
ag28
aa(lp619
I601
ag14
aa(lp620
I602
ag22
aa(lp621
I603
ag9
aa(lp622
I604
ag20
aa(lp623
I605
ag14
aa(lp624
I606
ag18
aa(lp625
I607
ag20
aa(lp626
I608
ag40
aa(lp627
I609
ag16
aa(lp628
I610
ag14
aa(lp629
I611
ag102
aa(lp630
I612
ag9
aa(lp631
I613
ag18
aa(lp632
I614
ag79
aa(lp633
I615
ag20
aa(lp634
I616
ag9
aa(lp635
I617
ag49
aa(lp636
I618
ag16
aa(lp637
I619
ag18
aa(lp638
I620
ag168
aa(lp639
I621
ag9
aa(lp640
I622
ag18
aa(lp641
I623
ag79
aa(lp642
I624
ag28
aa(lp643
I625
ag18
aa(lp644
I626
ag9
aa(lp645
I627
ag168
aa(lp646
I628
ag38
aa(lp647
I629
ag12
aa(lp648
I630
ag9
aa(lp649
I631
ag22
aa(lp650
I632
ag20
aa(lp651
I633
ag25
aa(lp652
I634
ag16
aa(lp653
I635
ag40
aa(lp654
I636
ag20
aa(lp655
I637
ag22
aa(lp656
I639
ag9
aa(lp657
I640
ag79
aa(lp658
I641
ag38
aa(lp659
I642
ag18
aa(lp660
I643
ag20
aa(lp661
I644
ag36
aa(lp662
I645
ag9
aa(lp663
I646
ag25
aa(lp664
I647
ag20
aa(lp665
I648
ag28
aa(lp666
I649
ag40
aa(lp667
I650
ag49
aa(lp668
I651
ag79
aasS'text'
p669
S'> > united states florida jacksonville jacksonville fl hotels, motels and lodging searching for hotels and motels in jacksonville, fl? whether you are traveling to jacksonville, florida for business or pleasure, our hotel listings will make the process a nicer one. we have collected information on hotels and motels in jacksonville, fl so that you can easily browse images, hotel descriptions, amenities, and real time rates so that you can find the hotel or motel in jacksonville that best suits your needs. if you have landed on this page by mistake, please start your search over by going to our and entering the city that you desired. hotel search'
p670
sS'cleanWordMap'
p671
(lp672
sS'lines'
p673
(lp674
V> > United States Florida Jacksonville\u000a
p675
aVJacksonville FL Hotels, Motels and Lodging\u000a
p676
aVSearching for hotels and motels in Jacksonville, FL? Whether you are traveling to Jacksonville, Florida for business or pleasure, our hotel listings will make the process a nicer one. We have collected information on hotels and motels in Jacksonville, FL so that you can easily browse images, hotel descriptions, amenities, and real time rates so that you can find the hotel or motel in Jacksonville that best suits your needs. If you have landed on this page by mistake, please start your search over by going to our and entering the city that you desired. hotel search
p677
asS'docType'
p678
S'src'
p679
sS'newfmap'
p680
(lp681
sS'featureMap'
p682
(lp683
sS'characterMap'
p684
(lp685
(lp686
I0
aS'>'
p687
aag8
a(lp688
I2
ag687
aag10
ag11
ag13
ag15
ag17
ag19
ag21
ag23
ag24
ag26
ag27
ag29
ag30
ag31
ag32
ag33
ag35
ag37
ag39
ag41
ag42
ag43
ag44
ag45
ag47
ag48
ag50
ag52
ag53
ag54
ag55
ag57
ag58
ag59
ag60
ag61
ag62
ag63
ag64
ag65
ag66
ag67
ag68
ag69
ag70
ag71
ag72
ag73
ag74
ag75
ag76
ag77
ag78
ag80
ag81
ag82
ag83
ag84
a(lp689
I61
aS','
p690
aag85
ag86
ag88
ag89
ag90
ag91
ag92
ag93
ag94
ag95
ag96
ag97
ag98
ag99
ag100
ag101
ag103
ag104
ag105
ag106
ag107
ag108
ag109
ag110
ag111
ag112
ag113
ag114
ag115
ag116
ag117
ag118
ag119
ag120
ag121
ag122
ag123
ag124
ag125
ag126
ag127
ag128
ag129
ag130
ag131
ag132
ag133
ag134
ag135
ag136
ag137
ag138
ag139
ag140
ag141
ag142
ag143
ag144
ag145
ag146
ag147
ag148
ag149
ag150
ag151
ag152
ag153
a(lp691
I129
ag690
aag154
ag155
ag156
a(lp692
I133
aS'?'
p693
aag157
ag158
ag160
ag161
ag162
ag163
ag164
ag165
ag166
ag167
ag169
ag170
ag171
ag172
ag173
ag174
ag175
ag176
ag177
ag178
ag179
ag180
ag181
ag182
ag183
ag184
ag185
ag186
ag187
ag188
ag189
ag190
ag191
ag192
ag193
ag194
ag195
ag196
ag197
ag198
ag199
ag200
a(lp694
I176
ag690
aag201
ag202
ag203
ag204
ag205
ag206
ag207
ag208
ag209
ag210
ag211
ag212
ag213
ag214
ag216
ag217
ag218
ag219
ag220
ag221
ag222
ag223
ag224
ag225
ag226
ag227
ag229
ag230
ag231
ag232
ag233
ag234
ag235
a(lp695
I210
ag690
aag236
ag237
ag238
ag239
ag240
ag241
ag242
ag243
ag244
ag245
ag246
ag247
ag248
ag249
ag250
ag251
ag252
ag253
ag254
ag255
ag256
ag257
ag258
ag259
ag260
ag261
ag262
ag263
ag264
ag265
ag266
ag267
ag268
ag269
ag270
ag271
ag272
ag273
ag274
ag275
ag276
ag277
ag278
ag279
ag280
ag281
ag282
ag283
ag284
ag285
ag286
ag287
ag288
a(lp696
I264
aS'.'
p697
aag289
ag290
ag291
ag292
ag293
ag294
ag295
ag296
ag297
ag298
ag299
ag300
ag301
ag302
ag303
ag304
ag305
ag306
ag307
ag308
ag309
ag310
ag311
ag312
ag313
ag314
ag315
ag316
ag317
ag318
ag319
ag320
ag321
ag322
ag323
ag324
ag325
ag326
ag327
ag328
ag329
ag330
ag331
ag332
ag333
ag334
ag335
ag336
ag337
ag338
ag339
ag340
ag341
ag342
ag343
ag344
ag345
ag346
ag347
ag348
ag349
ag350
ag351
ag352
ag353
ag354
ag355
a(lp698
I332
ag690
aag356
ag357
ag358
ag359
ag360
ag361
ag362
ag363
ag364
ag365
ag366
ag367
ag368
ag369
ag370
ag371
ag372
ag373
ag374
ag375
ag376
ag377
ag378
ag379
ag380
ag381
ag382
ag383
ag384
ag385
ag386
ag387
ag388
ag389
ag390
ag391
ag392
ag393
ag394
ag395
a(lp699
I373
ag690
aag396
ag397
ag398
ag399
ag400
ag401
ag402
ag403
ag404
ag405
ag406
ag407
ag408
ag409
ag410
ag411
ag412
ag413
ag414
a(lp700
I393
ag690
aag415
ag416
ag417
ag418
ag419
ag420
ag421
ag422
ag423
ag424
a(lp701
I404
ag690
aag425
ag426
ag427
ag428
ag429
ag430
ag431
ag432
ag433
ag434
ag435
ag436
ag437
ag438
ag439
ag440
ag441
ag442
ag443
ag444
ag445
ag446
ag447
ag448
ag449
ag450
ag451
ag452
ag453
ag454
ag455
ag456
ag457
ag458
ag459
ag460
ag461
ag462
ag463
ag464
ag465
ag466
ag467
ag468
ag469
ag470
ag471
ag472
ag473
ag474
ag475
ag476
ag477
ag478
ag479
ag480
ag481
ag482
ag483
ag484
ag485
ag486
ag487
ag488
ag489
ag490
ag491
ag492
ag493
ag494
ag495
ag496
ag497
ag498
ag499
ag500
ag501
ag502
ag503
ag504
ag505
ag506
ag507
ag508
ag509
ag510
ag511
ag512
ag513
ag514
ag515
ag516
ag517
ag518
ag519
ag520
ag521
ag522
ag523
ag524
ag525
ag526
ag527
a(lp702
I508
ag697
aag528
ag529
ag530
ag531
ag532
ag533
ag534
ag535
ag536
ag537
ag538
ag539
ag540
ag541
ag542
ag543
ag544
ag545
ag546
ag547
ag548
ag549
ag550
ag551
ag552
ag553
ag554
ag555
ag556
ag557
ag558
ag559
ag560
ag561
ag562
ag563
ag564
ag565
ag566
ag567
ag568
ag569
ag570
a(lp703
I552
ag690
aag571
ag572
ag573
ag574
ag575
ag576
ag577
ag578
ag579
ag580
ag581
ag582
ag583
ag584
ag585
ag586
ag587
ag588
ag589
ag590
ag591
ag592
ag593
ag594
ag595
ag596
ag597
ag598
ag599
ag600
ag601
ag602
ag603
ag604
ag605
ag606
ag607
ag608
ag609
ag610
ag611
ag612
ag613
ag614
ag615
ag616
ag617
ag618
ag619
ag620
ag621
ag622
ag623
ag624
ag625
ag626
ag627
ag628
ag629
ag630
ag631
ag632
ag633
ag634
ag635
ag636
ag637
ag638
ag639
ag640
ag641
ag642
ag643
ag644
ag645
ag646
ag647
ag648
ag649
ag650
ag651
ag652
ag653
ag654
ag655
a(lp704
I638
ag697
aag656
ag657
ag658
ag659
ag660
ag661
ag662
ag663
ag664
ag665
ag666
ag667
ag668
asS'docName'
p705
S'source-document00248.txt'
p706
sb.