(iModel.Document
Document
p0
(dp1
S'fmap'
p2
(lp3
(lp4
I0
aI0
aS'q'
p5
a(lp6
S'*'
p7
ag5
aaa(lp8
I0
aI0
ag5
a(lp9
g7
ag5
aaa(lp10
I0
aI0
ag5
a(lp11
g7
ag5
aaa(lp12
I0
aI0
ag5
a(lp13
g7
ag5
aaa(lp14
I23
aI29
aS'prepare'
p15
a(lp16
g5
ag15
aaa(lp17
I23
aI29
ag15
a(lp18
g7
ag15
aaa(lp19
I23
aI29
ag15
a(lp20
g7
ag15
aaa(lp21
I23
aI29
ag15
a(lp22
g7
ag15
aaa(lp23
I39
aI47
aS'interview'
p24
a(lp25
g15
ag24
aaa(lp26
I39
aI47
ag24
a(lp27
g5
ag24
aaa(lp28
I39
aI47
ag24
a(lp29
g7
ag24
aaa(lp30
I39
aI47
ag24
a(lp31
g7
ag24
aaa(lp32
I50
aI57
aS'research'
p33
a(lp34
g24
ag33
aaa(lp35
I50
aI57
ag33
a(lp36
g15
ag33
aaa(lp37
I50
aI57
ag33
a(lp38
g5
ag33
aaa(lp39
I50
aI57
ag33
a(lp40
g7
ag33
aaa(lp41
I81
aI88
aS'employer'
p42
a(lp43
g33
ag42
aaa(lp44
I81
aI88
ag42
a(lp45
g24
ag42
aaa(lp46
I81
aI88
ag42
a(lp47
g15
ag42
aaa(lp48
I81
aI88
ag42
a(lp49
g5
ag42
aaa(lp50
I90
aI96
aS'prepare'
p51
a(lp52
g42
ag51
aaa(lp53
I90
aI96
ag51
a(lp54
g33
ag51
aaa(lp55
I90
aI96
ag51
a(lp56
g24
ag51
aaa(lp57
I90
aI96
ag51
a(lp58
g15
ag51
aaa(lp59
I100
aI103
aS'neat'
p60
a(lp61
g51
ag60
aaa(lp62
I100
aI103
ag60
a(lp63
g42
ag60
aaa(lp64
I100
aI103
ag60
a(lp65
g33
ag60
aaa(lp66
I100
aI103
ag60
a(lp67
g24
ag60
aaa(lp68
I105
aI110
aS'folder'
p69
a(lp70
g60
ag69
aaa(lp71
I105
aI110
ag69
a(lp72
g51
ag69
aaa(lp73
I105
aI110
ag69
a(lp74
g42
ag69
aaa(lp75
I105
aI110
ag69
a(lp76
g33
ag69
aaa(lp77
I112
aI121
aS'containing'
p78
a(lp79
g69
ag78
aaa(lp80
I112
aI121
ag78
a(lp81
g60
ag78
aaa(lp82
I112
aI121
ag78
a(lp83
g51
ag78
aaa(lp84
I112
aI121
ag78
a(lp85
g42
ag78
aaa(lp86
I128
aI133
aS'resume'
p87
a(lp88
g78
ag87
aaa(lp89
I128
aI133
ag87
a(lp90
g69
ag87
aaa(lp91
I128
aI133
ag87
a(lp92
g60
ag87
aaa(lp93
I128
aI133
ag87
a(lp94
g51
ag87
aaa(lp95
I136
aI147
aS'certificates'
p96
a(lp97
g87
ag96
aaa(lp98
I136
aI147
ag96
a(lp99
g78
ag96
aaa(lp100
I136
aI147
ag96
a(lp101
g69
ag96
aaa(lp102
I136
aI147
ag96
a(lp103
g60
ag96
aaa(lp104
I150
aI159
aS'references'
p105
a(lp106
g96
ag105
aaa(lp107
I150
aI159
ag105
a(lp108
g87
ag105
aaa(lp109
I150
aI159
ag105
a(lp110
g78
ag105
aaa(lp111
I150
aI159
ag105
a(lp112
g69
ag105
aaa(lp113
I162
aI164
aS'etc'
p114
a(lp115
g105
ag114
aaa(lp116
I162
aI164
ag114
a(lp117
g96
ag114
aaa(lp118
I162
aI164
ag114
a(lp119
g87
ag114
aaa(lp120
I162
aI164
ag114
a(lp121
g78
ag114
aaa(lp122
I167
aI171
aS'dress'
p123
a(lp124
g114
ag123
aaa(lp125
I167
aI171
ag123
a(lp126
g105
ag123
aaa(lp127
I167
aI171
ag123
a(lp128
g96
ag123
aaa(lp129
I167
aI171
ag123
a(lp130
g87
ag123
aaa(lp131
I173
aI185
aS'appropriately'
p132
a(lp133
g123
ag132
aaa(lp134
I173
aI185
ag132
a(lp135
g114
ag132
aaa(lp136
I173
aI185
ag132
a(lp137
g105
ag132
aaa(lp138
I173
aI185
ag132
a(lp139
g96
ag132
aaa(lp140
I191
aI196
aS'ensure'
p141
a(lp142
g132
ag141
aaa(lp143
I191
aI196
ag141
a(lp144
g123
ag141
aaa(lp145
I191
aI196
ag141
a(lp146
g114
ag141
aaa(lp147
I191
aI196
ag141
a(lp148
g105
ag141
aaa(lp149
I200
aI203
aS'high'
p150
a(lp151
g141
ag150
aaa(lp152
I200
aI203
ag150
a(lp153
g132
ag150
aaa(lp154
I200
aI203
ag150
a(lp155
g123
ag150
aaa(lp156
I200
aI203
ag150
a(lp157
g114
ag150
aaa(lp158
I205
aI209
aS'level'
p159
a(lp160
g150
ag159
aaa(lp161
I205
aI209
ag159
a(lp162
g141
ag159
aaa(lp163
I205
aI209
ag159
a(lp164
g132
ag159
aaa(lp165
I205
aI209
ag159
a(lp166
g123
ag159
aaa(lp167
I214
aI220
aS'hygiene'
p168
a(lp169
g159
ag168
aaa(lp170
I214
aI220
ag168
a(lp171
g150
ag168
aaa(lp172
I214
aI220
ag168
a(lp173
g141
ag168
aaa(lp174
I214
aI220
ag168
a(lp175
g132
ag168
aaa(lp176
I235
aI240
aS'smoker'
p177
a(lp178
g168
ag177
aaa(lp179
I235
aI240
ag177
a(lp180
g159
ag177
aaa(lp181
I235
aI240
ag177
a(lp182
g150
ag177
aaa(lp183
I235
aI240
ag177
a(lp184
g141
ag177
aaa(lp185
I243
aI247
aS'avoid'
p186
a(lp187
g177
ag186
aaa(lp188
I243
aI247
ag186
a(lp189
g168
ag186
aaa(lp190
I243
aI247
ag186
a(lp191
g159
ag186
aaa(lp192
I243
aI247
ag186
a(lp193
g150
ag186
aaa(lp194
I249
aI255
aS'smoking'
p195
a(lp196
g186
ag195
aaa(lp197
I249
aI255
ag195
a(lp198
g177
ag195
aaa(lp199
I249
aI255
ag195
a(lp200
g168
ag195
aaa(lp201
I249
aI255
ag195
a(lp202
g159
ag195
aaa(lp203
I264
aI267
aS'long'
p204
a(lp205
g195
ag204
aaa(lp206
I264
aI267
ag204
a(lp207
g186
ag204
aaa(lp208
I264
aI267
ag204
a(lp209
g177
ag204
aaa(lp210
I264
aI267
ag204
a(lp211
g168
ag204
aaa(lp212
I272
aI279
aS'possible'
p213
a(lp214
g204
ag213
aaa(lp215
I272
aI279
ag213
a(lp216
g195
ag213
aaa(lp217
I272
aI279
ag213
a(lp218
g186
ag213
aaa(lp219
I272
aI279
ag213
a(lp220
g177
ag213
aaa(lp221
I281
aI291
aS'immediately'
p222
a(lp223
g213
ag222
aaa(lp224
I281
aI291
ag222
a(lp225
g204
ag222
aaa(lp226
I281
aI291
ag222
a(lp227
g195
ag222
aaa(lp228
I281
aI291
ag222
a(lp229
g186
ag222
aaa(lp230
I293
aI297
aS'prior'
p231
a(lp232
g222
ag231
aaa(lp233
I293
aI297
ag231
a(lp234
g213
ag231
aaa(lp235
I293
aI297
ag231
a(lp236
g204
ag231
aaa(lp237
I293
aI297
ag231
a(lp238
g195
ag231
aaa(lp239
I307
aI315
aS'interview'
p240
a(lp241
g231
ag240
aaa(lp242
I307
aI315
ag240
a(lp243
g222
ag240
aaa(lp244
I307
aI315
ag240
a(lp245
g213
ag240
aaa(lp246
I307
aI315
ag240
a(lp247
g204
ag240
aaa(lp248
I317
aI322
aS'arrive'
p249
a(lp250
g240
ag249
aaa(lp251
I317
aI322
ag249
a(lp252
g231
ag249
aaa(lp253
I317
aI322
ag249
a(lp254
g222
ag249
aaa(lp255
I317
aI322
ag249
a(lp256
g213
ag249
aaa(lp257
I324
aI325
aS'15'
p258
a(lp259
g249
ag258
aaa(lp260
I324
aI325
ag258
a(lp261
g240
ag258
aaa(lp262
I324
aI325
ag258
a(lp263
g231
ag258
aaa(lp264
I324
aI325
ag258
a(lp265
g222
ag258
aaa(lp266
I327
aI333
aS'minutes'
p267
a(lp268
g258
ag267
aaa(lp269
I327
aI333
ag267
a(lp270
g249
ag267
aaa(lp271
I327
aI333
ag267
a(lp272
g240
ag267
aaa(lp273
I327
aI333
ag267
a(lp274
g231
ag267
aaa(lp275
I335
aI339
aS'early'
p276
a(lp277
g267
ag276
aaa(lp278
I335
aI339
ag276
a(lp279
g258
ag276
aaa(lp280
I335
aI339
ag276
a(lp281
g249
ag276
aaa(lp282
I335
aI339
ag276
a(lp283
g240
ag276
aaa(lp284
I341
aI348
aS'rehearse'
p285
a(lp286
g276
ag285
aaa(lp287
I341
aI348
ag285
a(lp288
g267
ag285
aaa(lp289
I341
aI348
ag285
a(lp290
g258
ag285
aaa(lp291
I341
aI348
ag285
a(lp292
g249
ag285
aaa(lp293
I350
aI356
aS'answers'
p294
a(lp295
g285
ag294
aaa(lp296
I350
aI356
ag294
a(lp297
g276
ag294
aaa(lp298
I350
aI356
ag294
a(lp299
g267
ag294
aaa(lp300
I350
aI356
ag294
a(lp301
g258
ag294
aaa(lp302
I361
aI366
aS'likely'
p303
a(lp304
g294
ag303
aaa(lp305
I361
aI366
ag303
a(lp306
g285
ag303
aaa(lp307
I361
aI366
ag303
a(lp308
g276
ag303
aaa(lp309
I361
aI366
ag303
a(lp310
g267
ag303
aaa(lp311
I368
aI376
aS'interview'
p312
a(lp313
g303
ag312
aaa(lp314
I368
aI376
ag312
a(lp315
g294
ag312
aaa(lp316
I368
aI376
ag312
a(lp317
g285
ag312
aaa(lp318
I368
aI376
ag312
a(lp319
g276
ag312
aaa(lp320
I378
aI386
aS'questions'
p321
a(lp322
g312
ag321
aaa(lp323
I378
aI386
ag321
a(lp324
g303
ag321
aaa(lp325
I378
aI386
ag321
a(lp326
g294
ag321
aaa(lp327
I378
aI386
ag321
a(lp328
g285
ag321
aaa(lp329
I388
aI395
aS'rehearse'
p330
a(lp331
g321
ag330
aaa(lp332
I388
aI395
ag330
a(lp333
g312
ag330
aaa(lp334
I388
aI395
ag330
a(lp335
g303
ag330
aaa(lp336
I388
aI395
ag330
a(lp337
g294
ag330
aaa(lp338
I401
aI409
aS'questions'
p339
a(lp340
g330
ag339
aaa(lp341
I401
aI409
ag339
a(lp342
g321
ag339
aaa(lp343
I401
aI409
ag339
a(lp344
g312
ag339
aaa(lp345
I401
aI409
ag339
a(lp346
g303
ag339
aaa(lp347
I415
aI418
aS'want'
p348
a(lp349
g339
ag348
aaa(lp350
I415
aI418
ag348
a(lp351
g330
ag348
aaa(lp352
I415
aI418
ag348
a(lp353
g321
ag348
aaa(lp354
I415
aI418
ag348
a(lp355
g312
ag348
aaa(lp356
I423
aI425
aS'ask'
p357
a(lp358
g348
ag357
aaa(lp359
I423
aI425
ag357
a(lp360
g339
ag357
aaa(lp361
I423
aI425
ag357
a(lp362
g330
ag357
aaa(lp363
I423
aI425
ag357
a(lp364
g321
ag357
aaa(lp365
I431
aI438
aS'employer'
p366
a(lp367
g357
ag366
aaa(lp368
I431
aI438
ag366
a(lp369
g348
ag366
aaa(lp370
I431
aI438
ag366
a(lp371
g339
ag366
aaa(lp372
I431
aI438
ag366
a(lp373
g330
ag366
aaa(lp374
I440
aI444
aS'dress'
p375
a(lp376
g366
ag375
aaa(lp377
I440
aI444
ag375
a(lp378
g357
ag375
aaa(lp379
I440
aI444
ag375
a(lp380
g348
ag375
aaa(lp381
I440
aI444
ag375
a(lp382
g339
ag375
aaa(lp383
I446
aI458
aS'appropriately'
p384
a(lp385
g375
ag384
aaa(lp386
I446
aI458
ag384
a(lp387
g366
ag384
aaa(lp388
I446
aI458
ag384
a(lp389
g357
ag384
aaa(lp390
I446
aI458
ag384
a(lp391
g348
ag384
aaa(lp392
I468
aI475
aS'position'
p393
a(lp394
g384
ag393
aaa(lp395
I468
aI475
ag393
a(lp396
g375
ag393
aaa(lp397
I468
aI475
ag393
a(lp398
g366
ag393
aaa(lp399
I468
aI475
ag393
a(lp400
g357
ag393
aaa(lp401
I481
aI488
aS'industry'
p402
a(lp403
g393
ag402
aaa(lp404
I481
aI488
ag402
a(lp405
g384
ag402
aaa(lp406
I481
aI488
ag402
a(lp407
g375
ag402
aaa(lp408
I481
aI488
ag402
a(lp409
g366
ag402
aaa(lp410
I494
aI499
aS'ensure'
p411
a(lp412
g402
ag411
aaa(lp413
I494
aI499
ag411
a(lp414
g393
ag411
aaa(lp415
I494
aI499
ag411
a(lp416
g384
ag411
aaa(lp417
I494
aI499
ag411
a(lp418
g375
ag411
aaa(lp419
I503
aI506
aS'high'
p420
a(lp421
g411
ag420
aaa(lp422
I503
aI506
ag420
a(lp423
g402
ag420
aaa(lp424
I503
aI506
ag420
a(lp425
g393
ag420
aaa(lp426
I503
aI506
ag420
a(lp427
g384
ag420
aaa(lp428
I508
aI512
aS'level'
p429
a(lp430
g420
ag429
aaa(lp431
I508
aI512
ag429
a(lp432
g411
ag429
aaa(lp433
I508
aI512
ag429
a(lp434
g402
ag429
aaa(lp435
I508
aI512
ag429
a(lp436
g393
ag429
aaa(lp437
I517
aI524
aS'hygieneq'
p438
a(lp439
g429
ag438
aaa(lp440
I517
aI524
ag438
a(lp441
g420
ag438
aaa(lp442
I517
aI524
ag438
a(lp443
g411
ag438
aaa(lp444
I517
aI524
ag438
a(lp445
g402
ag438
aaa(lp446
I541
aI544
aS'wear'
p447
a(lp448
g438
ag447
aaa(lp449
I541
aI544
ag447
a(lp450
g429
ag447
aaa(lp451
I541
aI544
ag447
a(lp452
g420
ag447
aaa(lp453
I541
aI544
ag447
a(lp454
g411
ag447
aaa(lp455
I553
aI561
aS'interview'
p456
a(lp457
g447
ag456
aaa(lp458
I553
aI561
ag456
a(lp459
g438
ag456
aaa(lp460
I553
aI561
ag456
a(lp461
g429
ag456
aaa(lp462
I553
aI561
ag456
a(lp463
g420
ag456
aaa(lp464
I567
aI570
aS'sure'
p465
a(lp466
g456
ag465
aaa(lp467
I567
aI570
ag465
a(lp468
g447
ag465
aaa(lp469
I567
aI570
ag465
a(lp470
g438
ag465
aaa(lp471
I567
aI570
ag465
a(lp472
g429
ag465
aaa(lp473
I575
aI579
aS'bring'
p474
a(lp475
g465
ag474
aaa(lp476
I575
aI579
ag474
a(lp477
g456
ag474
aaa(lp478
I575
aI579
ag474
a(lp479
g447
ag474
aaa(lp480
I575
aI579
ag474
a(lp481
g438
ag474
aaa(lp482
I583
aI586
aS'copy'
p483
a(lp484
g474
ag483
aaa(lp485
I583
aI586
ag483
a(lp486
g465
ag483
aaa(lp487
I583
aI586
ag483
a(lp488
g456
ag483
aaa(lp489
I583
aI586
ag483
a(lp490
g447
ag483
aaa(lp491
I596
aI601
aS'resume'
p492
a(lp493
g483
ag492
aaa(lp494
I596
aI601
ag492
a(lp495
g474
ag492
aaa(lp496
I596
aI601
ag492
a(lp497
g465
ag492
aaa(lp498
I596
aI601
ag492
a(lp499
g456
ag492
aaa(lp500
I607
aI619
aS'references\xa0'
p501
a(lp502
g492
ag501
aaa(lp503
I607
aI619
ag501
a(lp504
g483
ag501
aaa(lp505
I607
aI619
ag501
a(lp506
g474
ag501
aaa(lp507
I607
aI619
ag501
a(lp508
g465
ag501
aaa(lp509
I627
aI632
aS'always'
p510
a(lp511
g501
ag510
aaa(lp512
I627
aI632
ag510
a(lp513
g492
ag510
aaa(lp514
I627
aI632
ag510
a(lp515
g483
ag510
aaa(lp516
I627
aI632
ag510
a(lp517
g474
ag510
aaa(lp518
I634
aI640
aS'helpful'
p519
a(lp520
g510
ag519
aaa(lp521
I634
aI640
ag519
a(lp522
g501
ag519
aaa(lp523
I634
aI640
ag519
a(lp524
g492
ag519
aaa(lp525
I634
aI640
ag519
a(lp526
g483
ag519
aaa(lp527
I649
aI656
aS'employer'
p528
a(lp529
g519
ag528
aaa(lp530
I649
aI656
ag528
a(lp531
g510
ag528
aaa(lp532
I649
aI656
ag528
a(lp533
g501
ag528
aaa(lp534
I649
aI656
ag528
a(lp535
g492
ag528
aaa(lp536
I661
aI664
aS'also'
p537
a(lp538
g528
ag537
aaa(lp539
I661
aI664
ag537
a(lp540
g519
ag537
aaa(lp541
I661
aI664
ag537
a(lp542
g510
ag537
aaa(lp543
I661
aI664
ag537
a(lp544
g501
ag537
aaa(lp545
I666
aI668
aS'see'
p546
a(lp547
g537
ag546
aaa(lp548
I666
aI668
ag546
a(lp549
g528
ag546
aaa(lp550
I666
aI668
ag546
a(lp551
g519
ag546
aaa(lp552
I666
aI668
ag546
a(lp553
g510
ag546
aaa(lp554
I670
aI675
aS'copies'
p555
a(lp556
g546
ag555
aaa(lp557
I670
aI675
ag555
a(lp558
g537
ag555
aaa(lp559
I670
aI675
ag555
a(lp560
g528
ag555
aaa(lp561
I670
aI675
ag555
a(lp562
g519
ag555
aaa(lp563
I684
aI695
aS'certificates'
p564
a(lp565
g555
ag564
aaa(lp566
I684
aI695
ag564
a(lp567
g546
ag564
aaa(lp568
I684
aI695
ag564
a(lp569
g537
ag564
aaa(lp570
I684
aI695
ag564
a(lp571
g528
ag564
aaa(lp572
I700
aI710
aS'achievement'
p573
a(lp574
g564
ag573
aaa(lp575
I700
aI710
ag573
a(lp576
g555
ag573
aaa(lp577
I700
aI710
ag573
a(lp578
g546
ag573
aaa(lp579
I700
aI710
ag573
a(lp580
g537
ag573
aaa(lp581
I715
aI727
aS'qualification'
p582
a(lp583
g573
ag582
aaa(lp584
I715
aI727
ag582
a(lp585
g564
ag582
aaa(lp586
I715
aI727
ag582
a(lp587
g555
ag582
aaa(lp588
I715
aI727
ag582
a(lp589
g546
ag582
aaa(lp590
I729
aI740
aS'certificates'
p591
a(lp592
g582
ag591
aaa(lp593
I729
aI740
ag591
a(lp594
g573
ag591
aaa(lp595
I729
aI740
ag591
a(lp596
g564
ag591
aaa(lp597
I729
aI740
ag591
a(lp598
g555
ag591
aaa(lp599
I746
aI748
aS'may'
p600
a(lp601
g591
ag600
aaa(lp602
I746
aI748
ag600
a(lp603
g582
ag600
aaa(lp604
I746
aI748
ag600
a(lp605
g573
ag600
aaa(lp606
I746
aI748
ag600
a(lp607
g564
ag600
aaa(lp608
I750
aI755
aS'haveq'
p609
a(lp610
g600
ag609
aaa(lp611
I750
aI755
ag609
a(lp612
g591
ag609
aaa(lp613
I750
aI755
ag609
a(lp614
g582
ag609
aaa(lp615
I750
aI755
ag609
a(lp616
g573
ag609
aaa(lp617
I767
aI771
aS'bring'
p618
a(lp619
g609
ag618
aaa(lp620
I767
aI771
ag618
a(lp621
g600
ag618
aaa(lp622
I767
aI771
ag618
a(lp623
g591
ag618
aaa(lp624
I767
aI771
ag618
a(lp625
g582
ag618
aaa(lp626
I773
aI780
aS'anything'
p627
a(lp628
g618
ag627
aaa(lp629
I773
aI780
ag627
a(lp630
g609
ag627
aaa(lp631
I773
aI780
ag627
a(lp632
g600
ag627
aaa(lp633
I773
aI780
ag627
a(lp634
g591
ag627
aaa(lp635
I789
aI797
aS'interview'
p636
a(lp637
g627
ag636
aaa(lp638
I789
aI797
ag636
a(lp639
g618
ag636
aaa(lp640
I789
aI797
ag636
a(lp641
g609
ag636
aaa(lp642
I789
aI797
ag636
a(lp643
g600
ag636
aaa(lp644
I814
aI818
aS'sorts'
p645
a(lp646
g636
ag645
aaa(lp647
I814
aI818
ag645
a(lp648
g627
ag645
aaa(lp649
I814
aI818
ag645
a(lp650
g618
ag645
aaa(lp651
I814
aI818
ag645
a(lp652
g609
ag645
aaa(lp653
I823
aI831
aS'questions'
p654
a(lp655
g645
ag654
aaa(lp656
I823
aI831
ag654
a(lp657
g636
ag654
aaa(lp658
I823
aI831
ag654
a(lp659
g627
ag654
aaa(lp660
I823
aI831
ag654
a(lp661
g618
ag654
aaa(lp662
I841
aI846
aS'expect'
p663
a(lp664
g654
ag663
aaa(lp665
I841
aI846
ag663
a(lp666
g645
ag663
aaa(lp667
I841
aI846
ag663
a(lp668
g636
ag663
aaa(lp669
I841
aI846
ag663
a(lp670
g627
ag663
aaa(lp671
I857
aI862
aS'attend'
p672
a(lp673
g663
ag672
aaa(lp674
I857
aI862
ag672
a(lp675
g654
ag672
aaa(lp676
I857
aI862
ag672
a(lp677
g645
ag672
aaa(lp678
I857
aI862
ag672
a(lp679
g636
ag672
aaa(lp680
I866
aI868
aS'job'
p681
a(lp682
g672
ag681
aaa(lp683
I866
aI868
ag681
a(lp684
g663
ag681
aaa(lp685
I866
aI868
ag681
a(lp686
g654
ag681
aaa(lp687
I866
aI868
ag681
a(lp688
g645
ag681
aaa(lp689
I870
aI878
aS'interview'
p690
a(lp691
g681
ag690
aaa(lp692
I870
aI878
ag690
a(lp693
g672
ag690
aaa(lp694
I870
aI878
ag690
a(lp695
g663
ag690
aaa(lp696
I870
aI878
ag690
a(lp697
g654
ag690
aaa(lp698
I886
aI889
aS'good'
p699
a(lp700
g690
ag699
aaa(lp701
I886
aI889
ag699
a(lp702
g681
ag699
aaa(lp703
I886
aI889
ag699
a(lp704
g672
ag699
aaa(lp705
I886
aI889
ag699
a(lp706
g663
ag699
aaa(lp707
I891
aI894
aS'idea'
p708
a(lp709
g699
ag708
aaa(lp710
I891
aI894
ag708
a(lp711
g690
ag708
aaa(lp712
I891
aI894
ag708
a(lp713
g681
ag708
aaa(lp714
I891
aI894
ag708
a(lp715
g672
ag708
aaa(lp716
I899
aI903
aS'write'
p717
a(lp718
g708
ag717
aaa(lp719
I899
aI903
ag717
a(lp720
g699
ag717
aaa(lp721
I899
aI903
ag717
a(lp722
g690
ag717
aaa(lp723
I899
aI903
ag717
a(lp724
g681
ag717
aaa(lp725
I910
aI916
aS'answers'
p726
a(lp727
g717
ag726
aaa(lp728
I910
aI916
ag726
a(lp729
g708
ag726
aaa(lp730
I910
aI916
ag726
a(lp731
g699
ag726
aaa(lp732
I910
aI916
ag726
a(lp733
g690
ag726
aaa(lp734
I927
aI935
aS'questions'
p735
a(lp736
g726
ag735
aaa(lp737
I927
aI935
ag735
a(lp738
g717
ag735
aaa(lp739
I927
aI935
ag735
a(lp740
g708
ag735
aaa(lp741
I927
aI935
ag735
a(lp742
g699
ag735
aaa(lp743
I942
aI949
aS'practice'
p744
a(lp745
g735
ag744
aaa(lp746
I942
aI949
ag744
a(lp747
g726
ag744
aaa(lp748
I942
aI949
ag744
a(lp749
g717
ag744
aaa(lp750
I942
aI949
ag744
a(lp751
g708
ag744
aaa(lp752
I955
aI958
aS'loud'
p753
a(lp754
g744
ag753
aaa(lp755
I955
aI958
ag753
a(lp756
g735
ag753
aaa(lp757
I955
aI958
ag753
a(lp758
g726
ag753
aaa(lp759
I955
aI958
ag753
a(lp760
g717
ag753
aaa(lp761
I973
aI983
aS'interviewq'
p762
a(lp763
g753
ag762
aaa(lp764
I973
aI983
ag762
a(lp765
g744
ag762
aaa(lp766
I973
aI983
ag762
a(lp767
g735
ag762
aaa(lp768
I973
aI983
ag762
a(lp769
g726
ag762
aaa(lp770
I991
aI994
aS'kind'
p771
a(lp772
g762
ag771
aaa(lp773
I991
aI994
ag771
a(lp774
g753
ag771
aaa(lp775
I991
aI994
ag771
a(lp776
g744
ag771
aaa(lp777
I991
aI994
ag771
a(lp778
g735
ag771
aaa(lp779
I999
aI1007
aS'questions'
p780
a(lp781
g771
ag780
aaa(lp782
I999
aI1007
ag780
a(lp783
g762
ag780
aaa(lp784
I999
aI1007
ag780
a(lp785
g753
ag780
aaa(lp786
I999
aI1007
ag780
a(lp787
g744
ag780
aaa(lp788
I1019
aI1023
aS'asked'
p789
a(lp790
g780
ag789
aaa(lp791
I1019
aI1023
ag789
a(lp792
g771
ag789
aaa(lp793
I1019
aI1023
ag789
a(lp794
g762
ag789
aaa(lp795
I1019
aI1023
ag789
a(lp796
g753
ag789
aaa(lp797
I1032
aI1040
aS'interview'
p798
a(lp799
g789
ag798
aaa(lp800
I1032
aI1040
ag798
a(lp801
g780
ag798
aaa(lp802
I1032
aI1040
ag798
a(lp803
g771
ag798
aaa(lp804
I1032
aI1040
ag798
a(lp805
g762
ag798
aaa(lp806
I1054
aI1057
aS'want'
p807
a(lp808
g798
ag807
aaa(lp809
I1054
aI1057
ag807
a(lp810
g789
ag807
aaa(lp811
I1054
aI1057
ag807
a(lp812
g780
ag807
aaa(lp813
I1054
aI1057
ag807
a(lp814
g771
ag807
aaa(lp815
I1062
aI1065
aS'work'
p816
a(lp817
g807
ag816
aaa(lp818
I1062
aI1065
ag816
a(lp819
g798
ag816
aaa(lp820
I1062
aI1065
ag816
a(lp821
g789
ag816
aaa(lp822
I1062
aI1065
ag816
a(lp823
g780
ag816
aaa(lp824
I1076
aI1082
aS'company'
p825
a(lp826
g816
ag825
aaa(lp827
I1076
aI1082
ag825
a(lp828
g807
ag825
aaa(lp829
I1076
aI1082
ag825
a(lp830
g798
ag825
aaa(lp831
I1076
aI1082
ag825
a(lp832
g789
ag825
aaa(lp833
I1090
aI1093
aS'kind'
p834
a(lp835
g825
ag834
aaa(lp836
I1090
aI1093
ag834
a(lp837
g816
ag834
aaa(lp838
I1090
aI1093
ag834
a(lp839
g807
ag834
aaa(lp840
I1090
aI1093
ag834
a(lp841
g798
ag834
aaa(lp842
I1098
aI1100
aS'job'
p843
a(lp844
g834
ag843
aaa(lp845
I1098
aI1100
ag843
a(lp846
g825
ag843
aaa(lp847
I1098
aI1100
ag843
a(lp848
g816
ag843
aaa(lp849
I1098
aI1100
ag843
a(lp850
g807
ag843
aaa(lp851
I1109
aI1112
aS'hope'
p852
a(lp853
g843
ag852
aaa(lp854
I1109
aI1112
ag852
a(lp855
g834
ag852
aaa(lp856
I1109
aI1112
ag852
a(lp857
g825
ag852
aaa(lp858
I1109
aI1112
ag852
a(lp859
g816
ag852
aaa(lp860
I1117
aI1120
aS'hold'
p861
a(lp862
g852
ag861
aaa(lp863
I1117
aI1120
ag861
a(lp864
g843
ag861
aaa(lp865
I1117
aI1120
ag861
a(lp866
g834
ag861
aaa(lp867
I1117
aI1120
ag861
a(lp868
g825
ag861
aaa(lp869
I1122
aI1125
aS'five'
p870
a(lp871
g861
ag870
aaa(lp872
I1122
aI1125
ag870
a(lp873
g852
ag870
aaa(lp874
I1122
aI1125
ag870
a(lp875
g843
ag870
aaa(lp876
I1122
aI1125
ag870
a(lp877
g834
ag870
aaa(lp878
I1127
aI1131
aS'years'
p879
a(lp880
g870
ag879
aaa(lp881
I1127
aI1131
ag879
a(lp882
g861
ag879
aaa(lp883
I1127
aI1131
ag879
a(lp884
g852
ag879
aaa(lp885
I1127
aI1131
ag879
a(lp886
g843
ag879
aaa(lp887
I1148
aI1161
aS'qualifications'
p888
a(lp889
g879
ag888
aaa(lp890
I1148
aI1161
ag888
a(lp891
g870
ag888
aaa(lp892
I1148
aI1161
ag888
a(lp893
g861
ag888
aaa(lp894
I1148
aI1161
ag888
a(lp895
g852
ag888
aaa(lp896
I1186
aI1189
aS'make'
p897
a(lp898
g888
ag897
aaa(lp899
I1186
aI1189
ag897
a(lp900
g879
ag897
aaa(lp901
I1186
aI1189
ag897
a(lp902
g870
ag897
aaa(lp903
I1186
aI1189
ag897
a(lp904
g861
ag897
aaa(lp905
I1195
aI1204
aS'successful'
p906
a(lp907
g897
ag906
aaa(lp908
I1195
aI1204
ag906
a(lp909
g888
ag906
aaa(lp910
I1195
aI1204
ag906
a(lp911
g879
ag906
aaa(lp912
I1195
aI1204
ag906
a(lp913
g870
ag906
aaa(lp914
I1214
aI1218
aS'field'
p915
a(lp916
g906
ag915
aaa(lp917
I1214
aI1218
ag915
a(lp918
g897
ag915
aaa(lp919
I1214
aI1218
ag915
a(lp920
g888
ag915
aaa(lp921
I1214
aI1218
ag915
a(lp922
g879
ag915
aaa(lp923
I1234
aI1237
aS'like'
p924
a(lp925
g915
ag924
aaa(lp926
I1234
aI1237
ag924
a(lp927
g906
ag924
aaa(lp928
I1234
aI1237
ag924
a(lp929
g897
ag924
aaa(lp930
I1234
aI1237
ag924
a(lp931
g888
ag924
aaa(lp932
I1239
aI1248
aS'mostleast'
p933
a(lp934
g924
ag933
aaa(lp935
I1239
aI1248
ag933
a(lp936
g915
ag933
aaa(lp937
I1239
aI1248
ag933
a(lp938
g906
ag933
aaa(lp939
I1239
aI1248
ag933
a(lp940
g897
ag933
aaa(lp941
I1261
aI1263
aS'old'
p942
a(lp943
g933
ag942
aaa(lp944
I1261
aI1263
ag942
a(lp945
g924
ag942
aaa(lp946
I1261
aI1263
ag942
a(lp947
g915
ag942
aaa(lp948
I1261
aI1263
ag942
a(lp949
g906
ag942
aaa(lp950
I1265
aI1267
aS'job'
p951
a(lp952
g942
ag951
aaa(lp953
I1265
aI1267
ag951
a(lp954
g933
ag951
aaa(lp955
I1265
aI1267
ag951
a(lp956
g924
ag951
aaa(lp957
I1265
aI1267
ag951
a(lp958
g915
ag951
aaa(lp959
I1283
aI1287
aS'major'
p960
a(lp961
g951
ag960
aaa(lp962
I1283
aI1287
ag960
a(lp963
g942
ag960
aaa(lp964
I1283
aI1287
ag960
a(lp965
g933
ag960
aaa(lp966
I1283
aI1287
ag960
a(lp967
g924
ag960
aaa(lp968
I1289
aI1296
aS'strength'
p969
a(lp970
g960
ag969
aaa(lp971
I1289
aI1296
ag969
a(lp972
g951
ag969
aaa(lp973
I1289
aI1296
ag969
a(lp974
g942
ag969
aaa(lp975
I1289
aI1296
ag969
a(lp976
g933
ag969
aaa(lp977
I1312
aI1316
aS'major'
p978
a(lp979
g969
ag978
aaa(lp980
I1312
aI1316
ag978
a(lp981
g960
ag978
aaa(lp982
I1312
aI1316
ag978
a(lp983
g951
ag978
aaa(lp984
I1312
aI1316
ag978
a(lp985
g942
ag978
aaa(lp986
I1318
aI1325
aS'weakness'
p987
a(lp988
g978
ag987
aaa(lp989
I1318
aI1325
ag987
a(lp990
g969
ag987
aaa(lp991
I1318
aI1325
ag987
a(lp992
g960
ag987
aaa(lp993
I1318
aI1325
ag987
a(lp994
g951
ag987
aaa(lp995
I1348
aI1352
aS'would'
p996
a(lp997
g987
ag996
aaa(lp998
I1348
aI1352
ag996
a(lp999
g978
ag996
aaa(lp1000
I1348
aI1352
ag996
a(lp1001
g969
ag996
aaa(lp1002
I1348
aI1352
ag996
a(lp1003
g960
ag996
aaa(lp1004
I1358
aI1363
aS'employ'
p1005
a(lp1006
g996
ag1005
aaa(lp1007
I1358
aI1363
ag1005
a(lp1008
g987
ag1005
aaa(lp1009
I1358
aI1363
ag1005
a(lp1010
g978
ag1005
aaa(lp1011
I1358
aI1363
ag1005
a(lp1012
g969
ag1005
aaa(lp1013
I1389
aI1393
aS'ideas'
p1014
a(lp1015
g1005
ag1014
aaa(lp1016
I1389
aI1393
ag1014
a(lp1017
g996
ag1014
aaa(lp1018
I1389
aI1393
ag1014
a(lp1019
g987
ag1014
aaa(lp1020
I1389
aI1393
ag1014
a(lp1021
g978
ag1014
aaa(lp1022
I1398
aI1403
aS'salary'
p1023
a(lp1024
g1014
ag1023
aaa(lp1025
I1398
aI1403
ag1023
a(lp1026
g1005
ag1023
aaa(lp1027
I1398
aI1403
ag1023
a(lp1028
g996
ag1023
aaa(lp1029
I1398
aI1403
ag1023
a(lp1030
g987
ag1023
aaa(lp1031
I1413
aI1417
aS'could'
p1032
a(lp1033
g1023
ag1032
aaa(lp1034
I1413
aI1417
ag1032
a(lp1035
g1014
ag1032
aaa(lp1036
I1413
aI1417
ag1032
a(lp1037
g1005
ag1032
aaa(lp1038
I1413
aI1417
ag1032
a(lp1039
g996
ag1032
aaa(lp1040
I1419
aI1424
aS'design'
p1041
a(lp1042
g1032
ag1041
aaa(lp1043
I1419
aI1424
ag1041
a(lp1044
g1023
ag1041
aaa(lp1045
I1419
aI1424
ag1041
a(lp1046
g1014
ag1041
aaa(lp1047
I1419
aI1424
ag1041
a(lp1048
g1005
ag1041
aaa(lp1049
I1435
aI1437
aS'job'
p1050
a(lp1051
g1041
ag1050
aaa(lp1052
I1435
aI1437
ag1050
a(lp1053
g1032
ag1050
aaa(lp1054
I1435
aI1437
ag1050
a(lp1055
g1023
ag1050
aaa(lp1056
I1435
aI1437
ag1050
a(lp1057
g1014
ag1050
aaa(lp1058
I1445
aI1449
aS'would'
p1059
a(lp1060
g1050
ag1059
aaa(lp1061
I1445
aI1449
ag1059
a(lp1062
g1041
ag1059
aaa(lp1063
I1445
aI1449
ag1059
a(lp1064
g1032
ag1059
aaa(lp1065
I1445
aI1449
ag1059
a(lp1066
g1023
ag1059
aaa(lp1067
I1456
aI1461
aS'duties'
p1068
a(lp1069
g1059
ag1068
aaa(lp1070
I1456
aI1461
ag1068
a(lp1071
g1050
ag1068
aaa(lp1072
I1456
aI1461
ag1068
a(lp1073
g1041
ag1068
aaa(lp1074
I1456
aI1461
ag1068
a(lp1075
g1032
ag1068
aaa(lp1076
I1483
aI1491
aS'questions'
p1077
a(lp1078
g1068
ag1077
aaa(lp1079
I1483
aI1491
ag1077
a(lp1080
g1059
ag1077
aaa(lp1081
I1483
aI1491
ag1077
a(lp1082
g1050
ag1077
aaa(lp1083
I1483
aI1491
ag1077
a(lp1084
g1041
ag1077
aaa(lp1085
I1494
aI1496
aS'try'
p1086
a(lp1087
g1077
ag1086
aaa(lp1088
I1494
aI1496
ag1086
a(lp1089
g1068
ag1086
aaa(lp1090
I1494
aI1496
ag1086
a(lp1091
g1059
ag1086
aaa(lp1092
I1494
aI1496
ag1086
a(lp1093
g1050
ag1086
aaa(lp1094
I1498
aI1504
aS'sending'
p1095
a(lp1096
g1086
ag1095
aaa(lp1097
I1498
aI1504
ag1095
a(lp1098
g1077
ag1095
aaa(lp1099
I1498
aI1504
ag1095
a(lp1100
g1068
ag1095
aaa(lp1101
I1498
aI1504
ag1095
a(lp1102
g1059
ag1095
aaa(lp1103
I1508
aI1512
aS'thank'
p1104
a(lp1105
g1095
ag1104
aaa(lp1106
I1508
aI1512
ag1104
a(lp1107
g1086
ag1104
aaa(lp1108
I1508
aI1512
ag1104
a(lp1109
g1077
ag1104
aaa(lp1110
I1508
aI1512
ag1104
a(lp1111
g1068
ag1104
aaa(lp1112
I1518
aI1523
aS'letter'
p1113
a(lp1114
g1104
ag1113
aaa(lp1115
I1518
aI1523
ag1113
a(lp1116
g1095
ag1113
aaa(lp1117
I1518
aI1523
ag1113
a(lp1118
g1086
ag1113
aaa(lp1119
I1518
aI1523
ag1113
a(lp1120
g1077
ag1113
aaa(lp1121
I1525
aI1526
aS'24'
p1122
a(lp1123
g1113
ag1122
aaa(lp1124
I1525
aI1526
ag1122
a(lp1125
g1104
ag1122
aaa(lp1126
I1525
aI1526
ag1122
a(lp1127
g1095
ag1122
aaa(lp1128
I1525
aI1526
ag1122
a(lp1129
g1086
ag1122
aaa(lp1130
I1528
aI1532
aS'hours'
p1131
a(lp1132
g1122
ag1131
aaa(lp1133
I1528
aI1532
ag1131
a(lp1134
g1113
ag1131
aaa(lp1135
I1528
aI1532
ag1131
a(lp1136
g1104
ag1131
aaa(lp1137
I1528
aI1532
ag1131
a(lp1138
g1095
ag1131
aaa(lp1139
I1544
aI1555
aS'interview\xa0'
p1140
a(lp1141
g1131
ag1140
aaa(lp1142
I1544
aI1555
ag1140
a(lp1143
g1122
ag1140
aaa(lp1144
I1544
aI1555
ag1140
a(lp1145
g1113
ag1140
aaa(lp1146
I1544
aI1555
ag1140
a(lp1147
g1104
ag1140
aaa(lp1148
I1557
aI1563
aS'chances'
p1149
a(lp1150
g1140
ag1149
aaa(lp1151
I1557
aI1563
ag1149
a(lp1152
g1131
ag1149
aaa(lp1153
I1557
aI1563
ag1149
a(lp1154
g1122
ag1149
aaa(lp1155
I1557
aI1563
ag1149
a(lp1156
g1113
ag1149
aaa(lp1157
I1569
aI1572
aS'youl'
p1158
a(lp1159
g1149
ag1158
aaa(lp1160
I1569
aI1572
ag1158
a(lp1161
g1140
ag1158
aaa(lp1162
I1569
aI1572
ag1158
a(lp1163
g1131
ag1158
aaa(lp1164
I1569
aI1572
ag1158
a(lp1165
g1122
ag1158
aaa(lp1166
I1574
aI1578
aS'stand'
p1167
a(lp1168
g1158
ag1167
aaa(lp1169
I1574
aI1578
ag1167
a(lp1170
g1149
ag1167
aaa(lp1171
I1574
aI1578
ag1167
a(lp1172
g1140
ag1167
aaa(lp1173
I1574
aI1578
ag1167
a(lp1174
g1131
ag1167
aaa(lp1175
I1593
aI1599
aS'crowdq'
p1176
a(lp1177
g1167
ag1176
aaa(lp1178
I1593
aI1599
ag1176
a(lp1179
g1158
ag1176
aaa(lp1180
I1593
aI1599
ag1176
a(lp1181
g1149
ag1176
aaa(lp1182
I1593
aI1599
ag1176
a(lp1183
g1140
ag1176
aaa(lp1184
I1629
aI1637
aS'interview'
p1185
a(lp1186
g1176
ag1185
aaa(lp1187
I1629
aI1637
ag1185
a(lp1188
g1167
ag1185
aaa(lp1189
I1629
aI1637
ag1185
a(lp1190
g1158
ag1185
aaa(lp1191
I1629
aI1637
ag1185
a(lp1192
g1149
ag1185
aaasS'wordMap'
p1193
(lp1194
(lp1195
I0
aI0
ag5
a(lp1196
(lp1197
I0
ag5
aaaa(lp1198
I3
aI6
aS'what'
p1199
a(lp1200
(lp1201
I3
aS'w'
p1202
aa(lp1203
I4
aS'h'
p1204
aa(lp1205
I5
aS'a'
p1206
aa(lp1207
I6
aS't'
p1208
aaaa(lp1209
I8
aI13
aS'should'
p1210
a(lp1211
(lp1212
I8
aS's'
p1213
aa(lp1214
I9
ag1204
aa(lp1215
I10
aS'o'
p1216
aa(lp1217
I11
aS'u'
p1218
aa(lp1219
I12
aS'l'
p1220
aa(lp1221
I13
aS'd'
p1222
aaaa(lp1223
I15
aI15
aS'i'
p1224
a(lp1225
(lp1226
I15
ag1224
aaaa(lp1227
I17
aI18
aS'do'
p1228
a(lp1229
(lp1230
I17
ag1222
aa(lp1231
I18
ag1216
aaaa(lp1232
I20
aI21
aS'to'
p1233
a(lp1234
(lp1235
I20
ag1208
aa(lp1236
I21
ag1216
aaaa(lp1237
I23
aI29
ag15
a(lp1238
(lp1239
I23
aS'p'
p1240
aa(lp1241
I24
aS'r'
p1242
aa(lp1243
I25
aS'e'
p1244
aa(lp1245
I26
ag1240
aa(lp1246
I27
ag1206
aa(lp1247
I28
ag1242
aa(lp1248
I29
ag1244
aaaa(lp1249
I31
aI33
aS'for'
p1250
a(lp1251
(lp1252
I31
aS'f'
p1253
aa(lp1254
I32
ag1216
aa(lp1255
I33
ag1242
aaaa(lp1256
I35
aI37
aS'the'
p1257
a(lp1258
(lp1259
I35
ag1208
aa(lp1260
I36
ag1204
aa(lp1261
I37
ag1244
aaaa(lp1262
I39
aI47
ag24
a(lp1263
(lp1264
I39
ag1224
aa(lp1265
I40
aS'n'
p1266
aa(lp1267
I41
ag1208
aa(lp1268
I42
ag1244
aa(lp1269
I43
ag1242
aa(lp1270
I44
aS'v'
p1271
aa(lp1272
I45
ag1224
aa(lp1273
I46
ag1244
aa(lp1274
I47
ag1202
aaaa(lp1275
I50
aI57
ag33
a(lp1276
(lp1277
I50
ag1242
aa(lp1278
I51
ag1244
aa(lp1279
I52
ag1213
aa(lp1280
I53
ag1244
aa(lp1281
I54
ag1206
aa(lp1282
I55
ag1242
aa(lp1283
I56
aS'c'
p1284
aa(lp1285
I57
ag1204
aaaa(lp1286
I59
aI61
aS'all'
p1287
a(lp1288
(lp1289
I59
ag1206
aa(lp1290
I60
ag1220
aa(lp1291
I61
ag1220
aaaa(lp1292
I63
aI65
aS'you'
p1293
a(lp1294
(lp1295
I63
aS'y'
p1296
aa(lp1297
I64
ag1216
aa(lp1298
I65
ag1218
aaaa(lp1299
I67
aI69
aS'can'
p1300
a(lp1301
(lp1302
I67
ag1284
aa(lp1303
I68
ag1206
aa(lp1304
I69
ag1266
aaaa(lp1305
I71
aI75
aS'about'
p1306
a(lp1307
(lp1308
I71
ag1206
aa(lp1309
I72
aS'b'
p1310
aa(lp1311
I73
ag1216
aa(lp1312
I74
ag1218
aa(lp1313
I75
ag1208
aaaa(lp1314
I77
aI79
aS'the'
p1315
a(lp1316
(lp1317
I77
ag1208
aa(lp1318
I78
ag1204
aa(lp1319
I79
ag1244
aaaa(lp1320
I81
aI88
ag42
a(lp1321
(lp1322
I81
ag1244
aa(lp1323
I82
aS'm'
p1324
aa(lp1325
I83
ag1240
aa(lp1326
I84
ag1220
aa(lp1327
I85
ag1216
aa(lp1328
I86
ag1296
aa(lp1329
I87
ag1244
aa(lp1330
I88
ag1242
aaaa(lp1331
I90
aI96
ag51
a(lp1332
(lp1333
I90
ag1240
aa(lp1334
I91
ag1242
aa(lp1335
I92
ag1244
aa(lp1336
I93
ag1240
aa(lp1337
I94
ag1206
aa(lp1338
I95
ag1242
aa(lp1339
I96
ag1244
aaaa(lp1340
I98
aI98
ag1206
a(lp1341
(lp1342
I98
ag1206
aaaa(lp1343
I100
aI103
ag60
a(lp1344
(lp1345
I100
ag1266
aa(lp1346
I101
ag1244
aa(lp1347
I102
ag1206
aa(lp1348
I103
ag1208
aaaa(lp1349
I105
aI110
ag69
a(lp1350
(lp1351
I105
ag1253
aa(lp1352
I106
ag1216
aa(lp1353
I107
ag1220
aa(lp1354
I108
ag1222
aa(lp1355
I109
ag1244
aa(lp1356
I110
ag1242
aaaa(lp1357
I112
aI121
ag78
a(lp1358
(lp1359
I112
ag1284
aa(lp1360
I113
ag1216
aa(lp1361
I114
ag1266
aa(lp1362
I115
ag1208
aa(lp1363
I116
ag1206
aa(lp1364
I117
ag1224
aa(lp1365
I118
ag1266
aa(lp1366
I119
ag1224
aa(lp1367
I120
ag1266
aa(lp1368
I121
aS'g'
p1369
aaaa(lp1370
I123
aI126
aS'your'
p1371
a(lp1372
(lp1373
I123
ag1296
aa(lp1374
I124
ag1216
aa(lp1375
I125
ag1218
aa(lp1376
I126
ag1242
aaaa(lp1377
I128
aI133
ag87
a(lp1378
(lp1379
I128
ag1242
aa(lp1380
I129
ag1244
aa(lp1381
I130
ag1213
aa(lp1382
I131
ag1218
aa(lp1383
I132
ag1324
aa(lp1384
I133
ag1244
aaaa(lp1385
I136
aI147
ag96
a(lp1386
(lp1387
I136
ag1284
aa(lp1388
I137
ag1244
aa(lp1389
I138
ag1242
aa(lp1390
I139
ag1208
aa(lp1391
I140
ag1224
aa(lp1392
I141
ag1253
aa(lp1393
I142
ag1224
aa(lp1394
I143
ag1284
aa(lp1395
I144
ag1206
aa(lp1396
I145
ag1208
aa(lp1397
I146
ag1244
aa(lp1398
I147
ag1213
aaaa(lp1399
I150
aI159
ag105
a(lp1400
(lp1401
I150
ag1242
aa(lp1402
I151
ag1244
aa(lp1403
I152
ag1253
aa(lp1404
I153
ag1244
aa(lp1405
I154
ag1242
aa(lp1406
I155
ag1244
aa(lp1407
I156
ag1266
aa(lp1408
I157
ag1284
aa(lp1409
I158
ag1244
aa(lp1410
I159
ag1213
aaaa(lp1411
I162
aI164
ag114
a(lp1412
(lp1413
I162
ag1244
aa(lp1414
I163
ag1208
aa(lp1415
I164
ag1284
aaaa(lp1416
I167
aI171
ag123
a(lp1417
(lp1418
I167
ag1222
aa(lp1419
I168
ag1242
aa(lp1420
I169
ag1244
aa(lp1421
I170
ag1213
aa(lp1422
I171
ag1213
aaaa(lp1423
I173
aI185
ag132
a(lp1424
(lp1425
I173
ag1206
aa(lp1426
I174
ag1240
aa(lp1427
I175
ag1240
aa(lp1428
I176
ag1242
aa(lp1429
I177
ag1216
aa(lp1430
I178
ag1240
aa(lp1431
I179
ag1242
aa(lp1432
I180
ag1224
aa(lp1433
I181
ag1206
aa(lp1434
I182
ag1208
aa(lp1435
I183
ag1244
aa(lp1436
I184
ag1220
aa(lp1437
I185
ag1296
aaaa(lp1438
I187
aI189
aS'and'
p1439
a(lp1440
(lp1441
I187
ag1206
aa(lp1442
I188
ag1266
aa(lp1443
I189
ag1222
aaaa(lp1444
I191
aI196
ag141
a(lp1445
(lp1446
I191
ag1244
aa(lp1447
I192
ag1266
aa(lp1448
I193
ag1213
aa(lp1449
I194
ag1218
aa(lp1450
I195
ag1242
aa(lp1451
I196
ag1244
aaaa(lp1452
I198
aI198
ag1206
a(lp1453
(lp1454
I198
ag1206
aaaa(lp1455
I200
aI203
ag150
a(lp1456
(lp1457
I200
ag1204
aa(lp1458
I201
ag1224
aa(lp1459
I202
ag1369
aa(lp1460
I203
ag1204
aaaa(lp1461
I205
aI209
ag159
a(lp1462
(lp1463
I205
ag1220
aa(lp1464
I206
ag1244
aa(lp1465
I207
ag1271
aa(lp1466
I208
ag1244
aa(lp1467
I209
ag1220
aaaa(lp1468
I211
aI212
aS'of'
p1469
a(lp1470
(lp1471
I211
ag1216
aa(lp1472
I212
ag1253
aaaa(lp1473
I214
aI220
ag168
a(lp1474
(lp1475
I214
ag1204
aa(lp1476
I215
ag1296
aa(lp1477
I216
ag1369
aa(lp1478
I217
ag1224
aa(lp1479
I218
ag1244
aa(lp1480
I219
ag1266
aa(lp1481
I220
ag1244
aaaa(lp1482
I222
aI223
aS'if'
p1483
a(lp1484
(lp1485
I222
ag1224
aa(lp1486
I223
ag1253
aaaa(lp1487
I225
aI227
aS'you'
p1488
a(lp1489
(lp1490
I225
ag1296
aa(lp1491
I226
ag1216
aa(lp1492
I227
ag1218
aaaa(lp1493
I229
aI231
aS'are'
p1494
a(lp1495
(lp1496
I229
ag1206
aa(lp1497
I230
ag1242
aa(lp1498
I231
ag1244
aaaa(lp1499
I233
aI233
ag1206
a(lp1500
(lp1501
I233
ag1206
aaaa(lp1502
I235
aI240
ag177
a(lp1503
(lp1504
I235
ag1213
aa(lp1505
I236
ag1324
aa(lp1506
I237
ag1216
aa(lp1507
I238
aS'k'
p1508
aa(lp1509
I239
ag1244
aa(lp1510
I240
ag1242
aaaa(lp1511
I243
aI247
ag186
a(lp1512
(lp1513
I243
ag1206
aa(lp1514
I244
ag1271
aa(lp1515
I245
ag1216
aa(lp1516
I246
ag1224
aa(lp1517
I247
ag1222
aaaa(lp1518
I249
aI255
ag195
a(lp1519
(lp1520
I249
ag1213
aa(lp1521
I250
ag1324
aa(lp1522
I251
ag1216
aa(lp1523
I252
ag1508
aa(lp1524
I253
ag1224
aa(lp1525
I254
ag1266
aa(lp1526
I255
ag1369
aaaa(lp1527
I257
aI259
aS'for'
p1528
a(lp1529
(lp1530
I257
ag1253
aa(lp1531
I258
ag1216
aa(lp1532
I259
ag1242
aaaa(lp1533
I261
aI262
aS'as'
p1534
a(lp1535
(lp1536
I261
ag1206
aa(lp1537
I262
ag1213
aaaa(lp1538
I264
aI267
ag204
a(lp1539
(lp1540
I264
ag1220
aa(lp1541
I265
ag1216
aa(lp1542
I266
ag1266
aa(lp1543
I267
ag1369
aaaa(lp1544
I269
aI270
aS'as'
p1545
a(lp1546
(lp1547
I269
ag1206
aa(lp1548
I270
ag1213
aaaa(lp1549
I272
aI279
ag213
a(lp1550
(lp1551
I272
ag1240
aa(lp1552
I273
ag1216
aa(lp1553
I274
ag1213
aa(lp1554
I275
ag1213
aa(lp1555
I276
ag1224
aa(lp1556
I277
ag1310
aa(lp1557
I278
ag1220
aa(lp1558
I279
ag1244
aaaa(lp1559
I281
aI291
ag222
a(lp1560
(lp1561
I281
ag1224
aa(lp1562
I282
ag1324
aa(lp1563
I283
ag1324
aa(lp1564
I284
ag1244
aa(lp1565
I285
ag1222
aa(lp1566
I286
ag1224
aa(lp1567
I287
ag1206
aa(lp1568
I288
ag1208
aa(lp1569
I289
ag1244
aa(lp1570
I290
ag1220
aa(lp1571
I291
ag1296
aaaa(lp1572
I293
aI297
ag231
a(lp1573
(lp1574
I293
ag1240
aa(lp1575
I294
ag1242
aa(lp1576
I295
ag1224
aa(lp1577
I296
ag1216
aa(lp1578
I297
ag1242
aaaa(lp1579
I299
aI300
aS'to'
p1580
a(lp1581
(lp1582
I299
ag1208
aa(lp1583
I300
ag1216
aaaa(lp1584
I302
aI305
aS'your'
p1585
a(lp1586
(lp1587
I302
ag1296
aa(lp1588
I303
ag1216
aa(lp1589
I304
ag1218
aa(lp1590
I305
ag1242
aaaa(lp1591
I307
aI315
ag240
a(lp1592
(lp1593
I307
ag1224
aa(lp1594
I308
ag1266
aa(lp1595
I309
ag1208
aa(lp1596
I310
ag1244
aa(lp1597
I311
ag1242
aa(lp1598
I312
ag1271
aa(lp1599
I313
ag1224
aa(lp1600
I314
ag1244
aa(lp1601
I315
ag1202
aaaa(lp1602
I317
aI322
ag249
a(lp1603
(lp1604
I317
ag1206
aa(lp1605
I318
ag1242
aa(lp1606
I319
ag1242
aa(lp1607
I320
ag1224
aa(lp1608
I321
ag1271
aa(lp1609
I322
ag1244
aaaa(lp1610
I324
aI325
ag258
a(lp1611
(lp1612
I324
aS'1'
p1613
aa(lp1614
I325
aS'5'
p1615
aaaa(lp1616
I327
aI333
ag267
a(lp1617
(lp1618
I327
ag1324
aa(lp1619
I328
ag1224
aa(lp1620
I329
ag1266
aa(lp1621
I330
ag1218
aa(lp1622
I331
ag1208
aa(lp1623
I332
ag1244
aa(lp1624
I333
ag1213
aaaa(lp1625
I335
aI339
ag276
a(lp1626
(lp1627
I335
ag1244
aa(lp1628
I336
ag1206
aa(lp1629
I337
ag1242
aa(lp1630
I338
ag1220
aa(lp1631
I339
ag1296
aaaa(lp1632
I341
aI348
ag285
a(lp1633
(lp1634
I341
ag1242
aa(lp1635
I342
ag1244
aa(lp1636
I343
ag1204
aa(lp1637
I344
ag1244
aa(lp1638
I345
ag1206
aa(lp1639
I346
ag1242
aa(lp1640
I347
ag1213
aa(lp1641
I348
ag1244
aaaa(lp1642
I350
aI356
ag294
a(lp1643
(lp1644
I350
ag1206
aa(lp1645
I351
ag1266
aa(lp1646
I352
ag1213
aa(lp1647
I353
ag1202
aa(lp1648
I354
ag1244
aa(lp1649
I355
ag1242
aa(lp1650
I356
ag1213
aaaa(lp1651
I358
aI359
aS'to'
p1652
a(lp1653
(lp1654
I358
ag1208
aa(lp1655
I359
ag1216
aaaa(lp1656
I361
aI366
ag303
a(lp1657
(lp1658
I361
ag1220
aa(lp1659
I362
ag1224
aa(lp1660
I363
ag1508
aa(lp1661
I364
ag1244
aa(lp1662
I365
ag1220
aa(lp1663
I366
ag1296
aaaa(lp1664
I368
aI376
ag312
a(lp1665
(lp1666
I368
ag1224
aa(lp1667
I369
ag1266
aa(lp1668
I370
ag1208
aa(lp1669
I371
ag1244
aa(lp1670
I372
ag1242
aa(lp1671
I373
ag1271
aa(lp1672
I374
ag1224
aa(lp1673
I375
ag1244
aa(lp1674
I376
ag1202
aaaa(lp1675
I378
aI386
ag321
a(lp1676
(lp1677
I378
ag5
aa(lp1678
I379
ag1218
aa(lp1679
I380
ag1244
aa(lp1680
I381
ag1213
aa(lp1681
I382
ag1208
aa(lp1682
I383
ag1224
aa(lp1683
I384
ag1216
aa(lp1684
I385
ag1266
aa(lp1685
I386
ag1213
aaaa(lp1686
I388
aI395
ag330
a(lp1687
(lp1688
I388
ag1242
aa(lp1689
I389
ag1244
aa(lp1690
I390
ag1204
aa(lp1691
I391
ag1244
aa(lp1692
I392
ag1206
aa(lp1693
I393
ag1242
aa(lp1694
I394
ag1213
aa(lp1695
I395
ag1244
aaaa(lp1696
I397
aI399
aS'the'
p1697
a(lp1698
(lp1699
I397
ag1208
aa(lp1700
I398
ag1204
aa(lp1701
I399
ag1244
aaaa(lp1702
I401
aI409
ag339
a(lp1703
(lp1704
I401
ag5
aa(lp1705
I402
ag1218
aa(lp1706
I403
ag1244
aa(lp1707
I404
ag1213
aa(lp1708
I405
ag1208
aa(lp1709
I406
ag1224
aa(lp1710
I407
ag1216
aa(lp1711
I408
ag1266
aa(lp1712
I409
ag1213
aaaa(lp1713
I411
aI413
aS'you'
p1714
a(lp1715
(lp1716
I411
ag1296
aa(lp1717
I412
ag1216
aa(lp1718
I413
ag1218
aaaa(lp1719
I415
aI418
ag348
a(lp1720
(lp1721
I415
ag1202
aa(lp1722
I416
ag1206
aa(lp1723
I417
ag1266
aa(lp1724
I418
ag1208
aaaa(lp1725
I420
aI421
aS'to'
p1726
a(lp1727
(lp1728
I420
ag1208
aa(lp1729
I421
ag1216
aaaa(lp1730
I423
aI425
ag357
a(lp1731
(lp1732
I423
ag1206
aa(lp1733
I424
ag1213
aa(lp1734
I425
ag1508
aaaa(lp1735
I427
aI429
aS'the'
p1736
a(lp1737
(lp1738
I427
ag1208
aa(lp1739
I428
ag1204
aa(lp1740
I429
ag1244
aaaa(lp1741
I431
aI438
ag366
a(lp1742
(lp1743
I431
ag1244
aa(lp1744
I432
ag1324
aa(lp1745
I433
ag1240
aa(lp1746
I434
ag1220
aa(lp1747
I435
ag1216
aa(lp1748
I436
ag1296
aa(lp1749
I437
ag1244
aa(lp1750
I438
ag1242
aaaa(lp1751
I440
aI444
ag375
a(lp1752
(lp1753
I440
ag1222
aa(lp1754
I441
ag1242
aa(lp1755
I442
ag1244
aa(lp1756
I443
ag1213
aa(lp1757
I444
ag1213
aaaa(lp1758
I446
aI458
ag384
a(lp1759
(lp1760
I446
ag1206
aa(lp1761
I447
ag1240
aa(lp1762
I448
ag1240
aa(lp1763
I449
ag1242
aa(lp1764
I450
ag1216
aa(lp1765
I451
ag1240
aa(lp1766
I452
ag1242
aa(lp1767
I453
ag1224
aa(lp1768
I454
ag1206
aa(lp1769
I455
ag1208
aa(lp1770
I456
ag1244
aa(lp1771
I457
ag1220
aa(lp1772
I458
ag1296
aaaa(lp1773
I460
aI462
aS'for'
p1774
a(lp1775
(lp1776
I460
ag1253
aa(lp1777
I461
ag1216
aa(lp1778
I462
ag1242
aaaa(lp1779
I464
aI466
aS'the'
p1780
a(lp1781
(lp1782
I464
ag1208
aa(lp1783
I465
ag1204
aa(lp1784
I466
ag1244
aaaa(lp1785
I468
aI475
ag393
a(lp1786
(lp1787
I468
ag1240
aa(lp1788
I469
ag1216
aa(lp1789
I470
ag1213
aa(lp1790
I471
ag1224
aa(lp1791
I472
ag1208
aa(lp1792
I473
ag1224
aa(lp1793
I474
ag1216
aa(lp1794
I475
ag1266
aaaa(lp1795
I477
aI479
aS'and'
p1796
a(lp1797
(lp1798
I477
ag1206
aa(lp1799
I478
ag1266
aa(lp1800
I479
ag1222
aaaa(lp1801
I481
aI488
ag402
a(lp1802
(lp1803
I481
ag1224
aa(lp1804
I482
ag1266
aa(lp1805
I483
ag1222
aa(lp1806
I484
ag1218
aa(lp1807
I485
ag1213
aa(lp1808
I486
ag1208
aa(lp1809
I487
ag1242
aa(lp1810
I488
ag1296
aaaa(lp1811
I490
aI492
aS'and'
p1812
a(lp1813
(lp1814
I490
ag1206
aa(lp1815
I491
ag1266
aa(lp1816
I492
ag1222
aaaa(lp1817
I494
aI499
ag411
a(lp1818
(lp1819
I494
ag1244
aa(lp1820
I495
ag1266
aa(lp1821
I496
ag1213
aa(lp1822
I497
ag1218
aa(lp1823
I498
ag1242
aa(lp1824
I499
ag1244
aaaa(lp1825
I501
aI501
ag1206
a(lp1826
(lp1827
I501
ag1206
aaaa(lp1828
I503
aI506
ag420
a(lp1829
(lp1830
I503
ag1204
aa(lp1831
I504
ag1224
aa(lp1832
I505
ag1369
aa(lp1833
I506
ag1204
aaaa(lp1834
I508
aI512
ag429
a(lp1835
(lp1836
I508
ag1220
aa(lp1837
I509
ag1244
aa(lp1838
I510
ag1271
aa(lp1839
I511
ag1244
aa(lp1840
I512
ag1220
aaaa(lp1841
I514
aI515
aS'of'
p1842
a(lp1843
(lp1844
I514
ag1216
aa(lp1845
I515
ag1253
aaaa(lp1846
I517
aI524
ag438
a(lp1847
(lp1848
I517
ag1204
aa(lp1849
I518
ag1296
aa(lp1850
I519
ag1369
aa(lp1851
I520
ag1224
aa(lp1852
I521
ag1244
aa(lp1853
I522
ag1266
aa(lp1854
I523
ag1244
aa(lp1855
I524
ag5
aaaa(lp1856
I527
aI530
aS'what'
p1857
a(lp1858
(lp1859
I527
ag1202
aa(lp1860
I528
ag1204
aa(lp1861
I529
ag1206
aa(lp1862
I530
ag1208
aaaa(lp1863
I532
aI537
aS'should'
p1864
a(lp1865
(lp1866
I532
ag1213
aa(lp1867
I533
ag1204
aa(lp1868
I534
ag1216
aa(lp1869
I535
ag1218
aa(lp1870
I536
ag1220
aa(lp1871
I537
ag1222
aaaa(lp1872
I539
aI539
ag1224
a(lp1873
(lp1874
I539
ag1224
aaaa(lp1875
I541
aI544
ag447
a(lp1876
(lp1877
I541
ag1202
aa(lp1878
I542
ag1244
aa(lp1879
I543
ag1206
aa(lp1880
I544
ag1242
aaaa(lp1881
I546
aI547
aS'to'
p1882
a(lp1883
(lp1884
I546
ag1208
aa(lp1885
I547
ag1216
aaaa(lp1886
I549
aI551
aS'the'
p1887
a(lp1888
(lp1889
I549
ag1208
aa(lp1890
I550
ag1204
aa(lp1891
I551
ag1244
aaaa(lp1892
I553
aI561
ag456
a(lp1893
(lp1894
I553
ag1224
aa(lp1895
I554
ag1266
aa(lp1896
I555
ag1208
aa(lp1897
I556
ag1244
aa(lp1898
I557
ag1242
aa(lp1899
I558
ag1271
aa(lp1900
I559
ag1224
aa(lp1901
I560
ag1244
aa(lp1902
I561
ag1202
aaaa(lp1903
I564
aI565
aS'be'
p1904
a(lp1905
(lp1906
I564
ag1310
aa(lp1907
I565
ag1244
aaaa(lp1908
I567
aI570
ag465
a(lp1909
(lp1910
I567
ag1213
aa(lp1911
I568
ag1218
aa(lp1912
I569
ag1242
aa(lp1913
I570
ag1244
aaaa(lp1914
I572
aI573
aS'to'
p1915
a(lp1916
(lp1917
I572
ag1208
aa(lp1918
I573
ag1216
aaaa(lp1919
I575
aI579
ag474
a(lp1920
(lp1921
I575
ag1310
aa(lp1922
I576
ag1242
aa(lp1923
I577
ag1224
aa(lp1924
I578
ag1266
aa(lp1925
I579
ag1369
aaaa(lp1926
I581
aI581
ag1206
a(lp1927
(lp1928
I581
ag1206
aaaa(lp1929
I583
aI586
ag483
a(lp1930
(lp1931
I583
ag1284
aa(lp1932
I584
ag1216
aa(lp1933
I585
ag1240
aa(lp1934
I586
ag1296
aaaa(lp1935
I588
aI589
aS'of'
p1936
a(lp1937
(lp1938
I588
ag1216
aa(lp1939
I589
ag1253
aaaa(lp1940
I591
aI594
aS'your'
p1941
a(lp1942
(lp1943
I591
ag1296
aa(lp1944
I592
ag1216
aa(lp1945
I593
ag1218
aa(lp1946
I594
ag1242
aaaa(lp1947
I596
aI601
ag492
a(lp1948
(lp1949
I596
ag1242
aa(lp1950
I597
ag1244
aa(lp1951
I598
ag1213
aa(lp1952
I599
ag1218
aa(lp1953
I600
ag1324
aa(lp1954
I601
ag1244
aaaa(lp1955
I603
aI605
aS'and'
p1956
a(lp1957
(lp1958
I603
ag1206
aa(lp1959
I604
ag1266
aa(lp1960
I605
ag1222
aaaa(lp1961
I607
aI619
ag501
a(lp1962
(lp1963
I607
ag1242
aa(lp1964
I608
ag1244
aa(lp1965
I609
ag1253
aa(lp1966
I610
ag1244
aa(lp1967
I611
ag1242
aa(lp1968
I612
ag1244
aa(lp1969
I613
ag1266
aa(lp1970
I614
ag1284
aa(lp1971
I615
ag1244
aa(lp1972
I616
ag1213
aa(lp1973
I619
aS'\xa0'
p1974
aaaa(lp1975
I621
aI622
aS'it'
p1976
a(lp1977
(lp1978
I621
ag1224
aa(lp1979
I622
ag1208
aaaa(lp1980
I624
aI625
aS'is'
p1981
a(lp1982
(lp1983
I624
ag1224
aa(lp1984
I625
ag1213
aaaa(lp1985
I627
aI632
ag510
a(lp1986
(lp1987
I627
ag1206
aa(lp1988
I628
ag1220
aa(lp1989
I629
ag1202
aa(lp1990
I630
ag1206
aa(lp1991
I631
ag1296
aa(lp1992
I632
ag1213
aaaa(lp1993
I634
aI640
ag519
a(lp1994
(lp1995
I634
ag1204
aa(lp1996
I635
ag1244
aa(lp1997
I636
ag1220
aa(lp1998
I637
ag1240
aa(lp1999
I638
ag1253
aa(lp2000
I639
ag1218
aa(lp2001
I640
ag1220
aaaa(lp2002
I642
aI643
aS'to'
p2003
a(lp2004
(lp2005
I642
ag1208
aa(lp2006
I643
ag1216
aaaa(lp2007
I645
aI647
aS'the'
p2008
a(lp2009
(lp2010
I645
ag1208
aa(lp2011
I646
ag1204
aa(lp2012
I647
ag1244
aaaa(lp2013
I649
aI656
ag528
a(lp2014
(lp2015
I649
ag1244
aa(lp2016
I650
ag1324
aa(lp2017
I651
ag1240
aa(lp2018
I652
ag1220
aa(lp2019
I653
ag1216
aa(lp2020
I654
ag1296
aa(lp2021
I655
ag1244
aa(lp2022
I656
ag1242
aaaa(lp2023
I658
aI659
aS'to'
p2024
a(lp2025
(lp2026
I658
ag1208
aa(lp2027
I659
ag1216
aaaa(lp2028
I661
aI664
ag537
a(lp2029
(lp2030
I661
ag1206
aa(lp2031
I662
ag1220
aa(lp2032
I663
ag1213
aa(lp2033
I664
ag1216
aaaa(lp2034
I666
aI668
ag546
a(lp2035
(lp2036
I666
ag1213
aa(lp2037
I667
ag1244
aa(lp2038
I668
ag1244
aaaa(lp2039
I670
aI675
ag555
a(lp2040
(lp2041
I670
ag1284
aa(lp2042
I671
ag1216
aa(lp2043
I672
ag1240
aa(lp2044
I673
ag1224
aa(lp2045
I674
ag1244
aa(lp2046
I675
ag1213
aaaa(lp2047
I677
aI678
aS'of'
p2048
a(lp2049
(lp2050
I677
ag1216
aa(lp2051
I678
ag1253
aaaa(lp2052
I680
aI682
aS'any'
p2053
a(lp2054
(lp2055
I680
ag1206
aa(lp2056
I681
ag1266
aa(lp2057
I682
ag1296
aaaa(lp2058
I684
aI695
ag564
a(lp2059
(lp2060
I684
ag1284
aa(lp2061
I685
ag1244
aa(lp2062
I686
ag1242
aa(lp2063
I687
ag1208
aa(lp2064
I688
ag1224
aa(lp2065
I689
ag1253
aa(lp2066
I690
ag1224
aa(lp2067
I691
ag1284
aa(lp2068
I692
ag1206
aa(lp2069
I693
ag1208
aa(lp2070
I694
ag1244
aa(lp2071
I695
ag1213
aaaa(lp2072
I697
aI698
aS'of'
p2073
a(lp2074
(lp2075
I697
ag1216
aa(lp2076
I698
ag1253
aaaa(lp2077
I700
aI710
ag573
a(lp2078
(lp2079
I700
ag1206
aa(lp2080
I701
ag1284
aa(lp2081
I702
ag1204
aa(lp2082
I703
ag1224
aa(lp2083
I704
ag1244
aa(lp2084
I705
ag1271
aa(lp2085
I706
ag1244
aa(lp2086
I707
ag1324
aa(lp2087
I708
ag1244
aa(lp2088
I709
ag1266
aa(lp2089
I710
ag1208
aaaa(lp2090
I712
aI713
aS'or'
p2091
a(lp2092
(lp2093
I712
ag1216
aa(lp2094
I713
ag1242
aaaa(lp2095
I715
aI727
ag582
a(lp2096
(lp2097
I715
ag5
aa(lp2098
I716
ag1218
aa(lp2099
I717
ag1206
aa(lp2100
I718
ag1220
aa(lp2101
I719
ag1224
aa(lp2102
I720
ag1253
aa(lp2103
I721
ag1224
aa(lp2104
I722
ag1284
aa(lp2105
I723
ag1206
aa(lp2106
I724
ag1208
aa(lp2107
I725
ag1224
aa(lp2108
I726
ag1216
aa(lp2109
I727
ag1266
aaaa(lp2110
I729
aI740
ag591
a(lp2111
(lp2112
I729
ag1284
aa(lp2113
I730
ag1244
aa(lp2114
I731
ag1242
aa(lp2115
I732
ag1208
aa(lp2116
I733
ag1224
aa(lp2117
I734
ag1253
aa(lp2118
I735
ag1224
aa(lp2119
I736
ag1284
aa(lp2120
I737
ag1206
aa(lp2121
I738
ag1208
aa(lp2122
I739
ag1244
aa(lp2123
I740
ag1213
aaaa(lp2124
I742
aI744
aS'you'
p2125
a(lp2126
(lp2127
I742
ag1296
aa(lp2128
I743
ag1216
aa(lp2129
I744
ag1218
aaaa(lp2130
I746
aI748
ag600
a(lp2131
(lp2132
I746
ag1324
aa(lp2133
I747
ag1206
aa(lp2134
I748
ag1296
aaaa(lp2135
I750
aI755
ag609
a(lp2136
(lp2137
I750
ag1204
aa(lp2138
I751
ag1206
aa(lp2139
I752
ag1271
aa(lp2140
I753
ag1244
aa(lp2141
I755
ag5
aaaa(lp2142
I758
aI763
aS'should'
p2143
a(lp2144
(lp2145
I758
ag1213
aa(lp2146
I759
ag1204
aa(lp2147
I760
ag1216
aa(lp2148
I761
ag1218
aa(lp2149
I762
ag1220
aa(lp2150
I763
ag1222
aaaa(lp2151
I765
aI765
ag1224
a(lp2152
(lp2153
I765
ag1224
aaaa(lp2154
I767
aI771
ag618
a(lp2155
(lp2156
I767
ag1310
aa(lp2157
I768
ag1242
aa(lp2158
I769
ag1224
aa(lp2159
I770
ag1266
aa(lp2160
I771
ag1369
aaaa(lp2161
I773
aI780
ag627
a(lp2162
(lp2163
I773
ag1206
aa(lp2164
I774
ag1266
aa(lp2165
I775
ag1296
aa(lp2166
I776
ag1208
aa(lp2167
I777
ag1204
aa(lp2168
I778
ag1224
aa(lp2169
I779
ag1266
aa(lp2170
I780
ag1369
aaaa(lp2171
I782
aI783
aS'to'
p2172
a(lp2173
(lp2174
I782
ag1208
aa(lp2175
I783
ag1216
aaaa(lp2176
I785
aI787
aS'the'
p2177
a(lp2178
(lp2179
I785
ag1208
aa(lp2180
I786
ag1204
aa(lp2181
I787
ag1244
aaaa(lp2182
I789
aI797
ag636
a(lp2183
(lp2184
I789
ag1224
aa(lp2185
I790
ag1266
aa(lp2186
I791
ag1208
aa(lp2187
I792
ag1244
aa(lp2188
I793
ag1242
aa(lp2189
I794
ag1271
aa(lp2190
I795
ag1224
aa(lp2191
I796
ag1244
aa(lp2192
I797
ag1202
aaaa(lp2193
I800
aI804
aS'these'
p2194
a(lp2195
(lp2196
I800
ag1208
aa(lp2197
I801
ag1204
aa(lp2198
I802
ag1244
aa(lp2199
I803
ag1213
aa(lp2200
I804
ag1244
aaaa(lp2201
I806
aI808
aS'are'
p2202
a(lp2203
(lp2204
I806
ag1206
aa(lp2205
I807
ag1242
aa(lp2206
I808
ag1244
aaaa(lp2207
I810
aI812
aS'the'
p2208
a(lp2209
(lp2210
I810
ag1208
aa(lp2211
I811
ag1204
aa(lp2212
I812
ag1244
aaaa(lp2213
I814
aI818
ag645
a(lp2214
(lp2215
I814
ag1213
aa(lp2216
I815
ag1216
aa(lp2217
I816
ag1242
aa(lp2218
I817
ag1208
aa(lp2219
I818
ag1213
aaaa(lp2220
I820
aI821
aS'of'
p2221
a(lp2222
(lp2223
I820
ag1216
aa(lp2224
I821
ag1253
aaaa(lp2225
I823
aI831
ag654
a(lp2226
(lp2227
I823
ag5
aa(lp2228
I824
ag1218
aa(lp2229
I825
ag1244
aa(lp2230
I826
ag1213
aa(lp2231
I827
ag1208
aa(lp2232
I828
ag1224
aa(lp2233
I829
ag1216
aa(lp2234
I830
ag1266
aa(lp2235
I831
ag1213
aaaa(lp2236
I833
aI835
aS'you'
p2237
a(lp2238
(lp2239
I833
ag1296
aa(lp2240
I834
ag1216
aa(lp2241
I835
ag1218
aaaa(lp2242
I837
aI839
aS'can'
p2243
a(lp2244
(lp2245
I837
ag1284
aa(lp2246
I838
ag1206
aa(lp2247
I839
ag1266
aaaa(lp2248
I841
aI846
ag663
a(lp2249
(lp2250
I841
ag1244
aa(lp2251
I842
aS'x'
p2252
aa(lp2253
I843
ag1240
aa(lp2254
I844
ag1244
aa(lp2255
I845
ag1284
aa(lp2256
I846
ag1208
aaaa(lp2257
I848
aI851
aS'when'
p2258
a(lp2259
(lp2260
I848
ag1202
aa(lp2261
I849
ag1204
aa(lp2262
I850
ag1244
aa(lp2263
I851
ag1266
aaaa(lp2264
I853
aI855
aS'you'
p2265
a(lp2266
(lp2267
I853
ag1296
aa(lp2268
I854
ag1216
aa(lp2269
I855
ag1218
aaaa(lp2270
I857
aI862
ag672
a(lp2271
(lp2272
I857
ag1206
aa(lp2273
I858
ag1208
aa(lp2274
I859
ag1208
aa(lp2275
I860
ag1244
aa(lp2276
I861
ag1266
aa(lp2277
I862
ag1222
aaaa(lp2278
I864
aI864
ag1206
a(lp2279
(lp2280
I864
ag1206
aaaa(lp2281
I866
aI868
ag681
a(lp2282
(lp2283
I866
aS'j'
p2284
aa(lp2285
I867
ag1216
aa(lp2286
I868
ag1310
aaaa(lp2287
I870
aI878
ag690
a(lp2288
(lp2289
I870
ag1224
aa(lp2290
I871
ag1266
aa(lp2291
I872
ag1208
aa(lp2292
I873
ag1244
aa(lp2293
I874
ag1242
aa(lp2294
I875
ag1271
aa(lp2295
I876
ag1224
aa(lp2296
I877
ag1244
aa(lp2297
I878
ag1202
aaaa(lp2298
I881
aI882
aS'it'
p2299
a(lp2300
(lp2301
I881
ag1224
aa(lp2302
I882
ag1208
aaaa(lp2303
I884
aI884
ag1206
a(lp2304
(lp2305
I884
ag1206
aaaa(lp2306
I886
aI889
ag699
a(lp2307
(lp2308
I886
ag1369
aa(lp2309
I887
ag1216
aa(lp2310
I888
ag1216
aa(lp2311
I889
ag1222
aaaa(lp2312
I891
aI894
ag708
a(lp2313
(lp2314
I891
ag1224
aa(lp2315
I892
ag1222
aa(lp2316
I893
ag1244
aa(lp2317
I894
ag1206
aaaa(lp2318
I896
aI897
aS'to'
p2319
a(lp2320
(lp2321
I896
ag1208
aa(lp2322
I897
ag1216
aaaa(lp2323
I899
aI903
ag717
a(lp2324
(lp2325
I899
ag1202
aa(lp2326
I900
ag1242
aa(lp2327
I901
ag1224
aa(lp2328
I902
ag1208
aa(lp2329
I903
ag1244
aaaa(lp2330
I905
aI908
aS'down'
p2331
a(lp2332
(lp2333
I905
ag1222
aa(lp2334
I906
ag1216
aa(lp2335
I907
ag1202
aa(lp2336
I908
ag1266
aaaa(lp2337
I910
aI916
ag726
a(lp2338
(lp2339
I910
ag1206
aa(lp2340
I911
ag1266
aa(lp2341
I912
ag1213
aa(lp2342
I913
ag1202
aa(lp2343
I914
ag1244
aa(lp2344
I915
ag1242
aa(lp2345
I916
ag1213
aaaa(lp2346
I918
aI919
aS'to'
p2347
a(lp2348
(lp2349
I918
ag1208
aa(lp2350
I919
ag1216
aaaa(lp2351
I921
aI925
aS'these'
p2352
a(lp2353
(lp2354
I921
ag1208
aa(lp2355
I922
ag1204
aa(lp2356
I923
ag1244
aa(lp2357
I924
ag1213
aa(lp2358
I925
ag1244
aaaa(lp2359
I927
aI935
ag735
a(lp2360
(lp2361
I927
ag5
aa(lp2362
I928
ag1218
aa(lp2363
I929
ag1244
aa(lp2364
I930
ag1213
aa(lp2365
I931
ag1208
aa(lp2366
I932
ag1224
aa(lp2367
I933
ag1216
aa(lp2368
I934
ag1266
aa(lp2369
I935
ag1213
aaaa(lp2370
I938
aI940
aS'and'
p2371
a(lp2372
(lp2373
I938
ag1206
aa(lp2374
I939
ag1266
aa(lp2375
I940
ag1222
aaaa(lp2376
I942
aI949
ag744
a(lp2377
(lp2378
I942
ag1240
aa(lp2379
I943
ag1242
aa(lp2380
I944
ag1206
aa(lp2381
I945
ag1284
aa(lp2382
I946
ag1208
aa(lp2383
I947
ag1224
aa(lp2384
I948
ag1284
aa(lp2385
I949
ag1244
aaaa(lp2386
I951
aI953
aS'out'
p2387
a(lp2388
(lp2389
I951
ag1216
aa(lp2390
I952
ag1218
aa(lp2391
I953
ag1208
aaaa(lp2392
I955
aI958
ag753
a(lp2393
(lp2394
I955
ag1220
aa(lp2395
I956
ag1216
aa(lp2396
I957
ag1218
aa(lp2397
I958
ag1222
aaaa(lp2398
I961
aI966
aS'before'
p2399
a(lp2400
(lp2401
I961
ag1310
aa(lp2402
I962
ag1244
aa(lp2403
I963
ag1253
aa(lp2404
I964
ag1216
aa(lp2405
I965
ag1242
aa(lp2406
I966
ag1244
aaaa(lp2407
I968
aI971
aS'each'
p2408
a(lp2409
(lp2410
I968
ag1244
aa(lp2411
I969
ag1206
aa(lp2412
I970
ag1284
aa(lp2413
I971
ag1204
aaaa(lp2414
I973
aI983
ag762
a(lp2415
(lp2416
I973
ag1224
aa(lp2417
I974
ag1266
aa(lp2418
I975
ag1208
aa(lp2419
I976
ag1244
aa(lp2420
I977
ag1242
aa(lp2421
I978
ag1271
aa(lp2422
I979
ag1224
aa(lp2423
I980
ag1244
aa(lp2424
I981
ag1202
aa(lp2425
I983
ag5
aaaa(lp2426
I986
aI989
aS'what'
p2427
a(lp2428
(lp2429
I986
ag1202
aa(lp2430
I987
ag1204
aa(lp2431
I988
ag1206
aa(lp2432
I989
ag1208
aaaa(lp2433
I991
aI994
ag771
a(lp2434
(lp2435
I991
ag1508
aa(lp2436
I992
ag1224
aa(lp2437
I993
ag1266
aa(lp2438
I994
ag1222
aaaa(lp2439
I996
aI997
aS'of'
p2440
a(lp2441
(lp2442
I996
ag1216
aa(lp2443
I997
ag1253
aaaa(lp2444
I999
aI1007
ag780
a(lp2445
(lp2446
I999
ag5
aa(lp2447
I1000
ag1218
aa(lp2448
I1001
ag1244
aa(lp2449
I1002
ag1213
aa(lp2450
I1003
ag1208
aa(lp2451
I1004
ag1224
aa(lp2452
I1005
ag1216
aa(lp2453
I1006
ag1266
aa(lp2454
I1007
ag1213
aaaa(lp2455
I1009
aI1012
aS'will'
p2456
a(lp2457
(lp2458
I1009
ag1202
aa(lp2459
I1010
ag1224
aa(lp2460
I1011
ag1220
aa(lp2461
I1012
ag1220
aaaa(lp2462
I1014
aI1014
ag1224
a(lp2463
(lp2464
I1014
ag1224
aaaa(lp2465
I1016
aI1017
aS'be'
p2466
a(lp2467
(lp2468
I1016
ag1310
aa(lp2469
I1017
ag1244
aaaa(lp2470
I1019
aI1023
ag789
a(lp2471
(lp2472
I1019
ag1206
aa(lp2473
I1020
ag1213
aa(lp2474
I1021
ag1508
aa(lp2475
I1022
ag1244
aa(lp2476
I1023
ag1222
aaaa(lp2477
I1025
aI1026
aS'at'
p2478
a(lp2479
(lp2480
I1025
ag1206
aa(lp2481
I1026
ag1208
aaaa(lp2482
I1028
aI1030
aS'the'
p2483
a(lp2484
(lp2485
I1028
ag1208
aa(lp2486
I1029
ag1204
aa(lp2487
I1030
ag1244
aaaa(lp2488
I1032
aI1040
ag798
a(lp2489
(lp2490
I1032
ag1224
aa(lp2491
I1033
ag1266
aa(lp2492
I1034
ag1208
aa(lp2493
I1035
ag1244
aa(lp2494
I1036
ag1242
aa(lp2495
I1037
ag1271
aa(lp2496
I1038
ag1224
aa(lp2497
I1039
ag1244
aa(lp2498
I1040
ag1202
aaaa(lp2499
I1043
aI1045
aS'why'
p2500
a(lp2501
(lp2502
I1043
ag1202
aa(lp2503
I1044
ag1204
aa(lp2504
I1045
ag1296
aaaa(lp2505
I1047
aI1048
aS'do'
p2506
a(lp2507
(lp2508
I1047
ag1222
aa(lp2509
I1048
ag1216
aaaa(lp2510
I1050
aI1052
aS'you'
p2511
a(lp2512
(lp2513
I1050
ag1296
aa(lp2514
I1051
ag1216
aa(lp2515
I1052
ag1218
aaaa(lp2516
I1054
aI1057
ag807
a(lp2517
(lp2518
I1054
ag1202
aa(lp2519
I1055
ag1206
aa(lp2520
I1056
ag1266
aa(lp2521
I1057
ag1208
aaaa(lp2522
I1059
aI1060
aS'to'
p2523
a(lp2524
(lp2525
I1059
ag1208
aa(lp2526
I1060
ag1216
aaaa(lp2527
I1062
aI1065
ag816
a(lp2528
(lp2529
I1062
ag1202
aa(lp2530
I1063
ag1216
aa(lp2531
I1064
ag1242
aa(lp2532
I1065
ag1508
aaaa(lp2533
I1067
aI1069
aS'for'
p2534
a(lp2535
(lp2536
I1067
ag1253
aa(lp2537
I1068
ag1216
aa(lp2538
I1069
ag1242
aaaa(lp2539
I1071
aI1074
aS'this'
p2540
a(lp2541
(lp2542
I1071
ag1208
aa(lp2543
I1072
ag1204
aa(lp2544
I1073
ag1224
aa(lp2545
I1074
ag1213
aaaa(lp2546
I1076
aI1082
ag825
a(lp2547
(lp2548
I1076
ag1284
aa(lp2549
I1077
ag1216
aa(lp2550
I1078
ag1324
aa(lp2551
I1079
ag1240
aa(lp2552
I1080
ag1206
aa(lp2553
I1081
ag1266
aa(lp2554
I1082
ag1296
aaaa(lp2555
I1085
aI1088
aS'what'
p2556
a(lp2557
(lp2558
I1085
ag1202
aa(lp2559
I1086
ag1204
aa(lp2560
I1087
ag1206
aa(lp2561
I1088
ag1208
aaaa(lp2562
I1090
aI1093
ag834
a(lp2563
(lp2564
I1090
ag1508
aa(lp2565
I1091
ag1224
aa(lp2566
I1092
ag1266
aa(lp2567
I1093
ag1222
aaaa(lp2568
I1095
aI1096
aS'of'
p2569
a(lp2570
(lp2571
I1095
ag1216
aa(lp2572
I1096
ag1253
aaaa(lp2573
I1098
aI1100
ag843
a(lp2574
(lp2575
I1098
ag2284
aa(lp2576
I1099
ag1216
aa(lp2577
I1100
ag1310
aaaa(lp2578
I1102
aI1103
aS'do'
p2579
a(lp2580
(lp2581
I1102
ag1222
aa(lp2582
I1103
ag1216
aaaa(lp2583
I1105
aI1107
aS'you'
p2584
a(lp2585
(lp2586
I1105
ag1296
aa(lp2587
I1106
ag1216
aa(lp2588
I1107
ag1218
aaaa(lp2589
I1109
aI1112
ag852
a(lp2590
(lp2591
I1109
ag1204
aa(lp2592
I1110
ag1216
aa(lp2593
I1111
ag1240
aa(lp2594
I1112
ag1244
aaaa(lp2595
I1114
aI1115
aS'to'
p2596
a(lp2597
(lp2598
I1114
ag1208
aa(lp2599
I1115
ag1216
aaaa(lp2600
I1117
aI1120
ag861
a(lp2601
(lp2602
I1117
ag1204
aa(lp2603
I1118
ag1216
aa(lp2604
I1119
ag1220
aa(lp2605
I1120
ag1222
aaaa(lp2606
I1122
aI1125
ag870
a(lp2607
(lp2608
I1122
ag1253
aa(lp2609
I1123
ag1224
aa(lp2610
I1124
ag1271
aa(lp2611
I1125
ag1244
aaaa(lp2612
I1127
aI1131
ag879
a(lp2613
(lp2614
I1127
ag1296
aa(lp2615
I1128
ag1244
aa(lp2616
I1129
ag1206
aa(lp2617
I1130
ag1242
aa(lp2618
I1131
ag1213
aaaa(lp2619
I1133
aI1136
aS'from'
p2620
a(lp2621
(lp2622
I1133
ag1253
aa(lp2623
I1134
ag1242
aa(lp2624
I1135
ag1216
aa(lp2625
I1136
ag1324
aaaa(lp2626
I1138
aI1140
aS'now'
p2627
a(lp2628
(lp2629
I1138
ag1266
aa(lp2630
I1139
ag1216
aa(lp2631
I1140
ag1202
aaaa(lp2632
I1143
aI1146
aS'what'
p2633
a(lp2634
(lp2635
I1143
ag1202
aa(lp2636
I1144
ag1204
aa(lp2637
I1145
ag1206
aa(lp2638
I1146
ag1208
aaaa(lp2639
I1148
aI1161
ag888
a(lp2640
(lp2641
I1148
ag5
aa(lp2642
I1149
ag1218
aa(lp2643
I1150
ag1206
aa(lp2644
I1151
ag1220
aa(lp2645
I1152
ag1224
aa(lp2646
I1153
ag1253
aa(lp2647
I1154
ag1224
aa(lp2648
I1155
ag1284
aa(lp2649
I1156
ag1206
aa(lp2650
I1157
ag1208
aa(lp2651
I1158
ag1224
aa(lp2652
I1159
ag1216
aa(lp2653
I1160
ag1266
aa(lp2654
I1161
ag1213
aaaa(lp2655
I1163
aI1164
aS'do'
p2656
a(lp2657
(lp2658
I1163
ag1222
aa(lp2659
I1164
ag1216
aaaa(lp2660
I1166
aI1168
aS'you'
p2661
a(lp2662
(lp2663
I1166
ag1296
aa(lp2664
I1167
ag1216
aa(lp2665
I1168
ag1218
aaaa(lp2666
I1170
aI1173
aS'have'
p2667
a(lp2668
(lp2669
I1170
ag1204
aa(lp2670
I1171
ag1206
aa(lp2671
I1172
ag1271
aa(lp2672
I1173
ag1244
aaaa(lp2673
I1175
aI1179
aS'which'
p2674
a(lp2675
(lp2676
I1175
ag1202
aa(lp2677
I1176
ag1204
aa(lp2678
I1177
ag1224
aa(lp2679
I1178
ag1284
aa(lp2680
I1179
ag1204
aaaa(lp2681
I1181
aI1184
aS'will'
p2682
a(lp2683
(lp2684
I1181
ag1202
aa(lp2685
I1182
ag1224
aa(lp2686
I1183
ag1220
aa(lp2687
I1184
ag1220
aaaa(lp2688
I1186
aI1189
ag897
a(lp2689
(lp2690
I1186
ag1324
aa(lp2691
I1187
ag1206
aa(lp2692
I1188
ag1508
aa(lp2693
I1189
ag1244
aaaa(lp2694
I1191
aI1193
aS'you'
p2695
a(lp2696
(lp2697
I1191
ag1296
aa(lp2698
I1192
ag1216
aa(lp2699
I1193
ag1218
aaaa(lp2700
I1195
aI1204
ag906
a(lp2701
(lp2702
I1195
ag1213
aa(lp2703
I1196
ag1218
aa(lp2704
I1197
ag1284
aa(lp2705
I1198
ag1284
aa(lp2706
I1199
ag1244
aa(lp2707
I1200
ag1213
aa(lp2708
I1201
ag1213
aa(lp2709
I1202
ag1253
aa(lp2710
I1203
ag1218
aa(lp2711
I1204
ag1220
aaaa(lp2712
I1206
aI1207
aS'in'
p2713
a(lp2714
(lp2715
I1206
ag1224
aa(lp2716
I1207
ag1266
aaaa(lp2717
I1209
aI1212
aS'this'
p2718
a(lp2719
(lp2720
I1209
ag1208
aa(lp2721
I1210
ag1204
aa(lp2722
I1211
ag1224
aa(lp2723
I1212
ag1213
aaaa(lp2724
I1214
aI1218
ag915
a(lp2725
(lp2726
I1214
ag1253
aa(lp2727
I1215
ag1224
aa(lp2728
I1216
ag1244
aa(lp2729
I1217
ag1220
aa(lp2730
I1218
ag1222
aaaa(lp2731
I1221
aI1224
aS'what'
p2732
a(lp2733
(lp2734
I1221
ag1202
aa(lp2735
I1222
ag1204
aa(lp2736
I1223
ag1206
aa(lp2737
I1224
ag1208
aaaa(lp2738
I1226
aI1228
aS'did'
p2739
a(lp2740
(lp2741
I1226
ag1222
aa(lp2742
I1227
ag1224
aa(lp2743
I1228
ag1222
aaaa(lp2744
I1230
aI1232
aS'you'
p2745
a(lp2746
(lp2747
I1230
ag1296
aa(lp2748
I1231
ag1216
aa(lp2749
I1232
ag1218
aaaa(lp2750
I1234
aI1237
ag924
a(lp2751
(lp2752
I1234
ag1220
aa(lp2753
I1235
ag1224
aa(lp2754
I1236
ag1508
aa(lp2755
I1237
ag1244
aaaa(lp2756
I1239
aI1248
ag933
a(lp2757
(lp2758
I1239
ag1324
aa(lp2759
I1240
ag1216
aa(lp2760
I1241
ag1213
aa(lp2761
I1242
ag1208
aa(lp2762
I1244
ag1220
aa(lp2763
I1245
ag1244
aa(lp2764
I1246
ag1206
aa(lp2765
I1247
ag1213
aa(lp2766
I1248
ag1208
aaaa(lp2767
I1250
aI1254
aS'about'
p2768
a(lp2769
(lp2770
I1250
ag1206
aa(lp2771
I1251
ag1310
aa(lp2772
I1252
ag1216
aa(lp2773
I1253
ag1218
aa(lp2774
I1254
ag1208
aaaa(lp2775
I1256
aI1259
aS'your'
p2776
a(lp2777
(lp2778
I1256
ag1296
aa(lp2779
I1257
ag1216
aa(lp2780
I1258
ag1218
aa(lp2781
I1259
ag1242
aaaa(lp2782
I1261
aI1263
ag942
a(lp2783
(lp2784
I1261
ag1216
aa(lp2785
I1262
ag1220
aa(lp2786
I1263
ag1222
aaaa(lp2787
I1265
aI1267
ag951
a(lp2788
(lp2789
I1265
ag2284
aa(lp2790
I1266
ag1216
aa(lp2791
I1267
ag1310
aaaa(lp2792
I1270
aI1273
aS'what'
p2793
a(lp2794
(lp2795
I1270
ag1202
aa(lp2796
I1271
ag1204
aa(lp2797
I1272
ag1206
aa(lp2798
I1273
ag1208
aaaa(lp2799
I1275
aI1276
aS'is'
p2800
a(lp2801
(lp2802
I1275
ag1224
aa(lp2803
I1276
ag1213
aaaa(lp2804
I1278
aI1281
aS'your'
p2805
a(lp2806
(lp2807
I1278
ag1296
aa(lp2808
I1279
ag1216
aa(lp2809
I1280
ag1218
aa(lp2810
I1281
ag1242
aaaa(lp2811
I1283
aI1287
ag960
a(lp2812
(lp2813
I1283
ag1324
aa(lp2814
I1284
ag1206
aa(lp2815
I1285
ag2284
aa(lp2816
I1286
ag1216
aa(lp2817
I1287
ag1242
aaaa(lp2818
I1289
aI1296
ag969
a(lp2819
(lp2820
I1289
ag1213
aa(lp2821
I1290
ag1208
aa(lp2822
I1291
ag1242
aa(lp2823
I1292
ag1244
aa(lp2824
I1293
ag1266
aa(lp2825
I1294
ag1369
aa(lp2826
I1295
ag1208
aa(lp2827
I1296
ag1204
aaaa(lp2828
I1299
aI1302
aS'what'
p2829
a(lp2830
(lp2831
I1299
ag1202
aa(lp2832
I1300
ag1204
aa(lp2833
I1301
ag1206
aa(lp2834
I1302
ag1208
aaaa(lp2835
I1304
aI1305
aS'is'
p2836
a(lp2837
(lp2838
I1304
ag1224
aa(lp2839
I1305
ag1213
aaaa(lp2840
I1307
aI1310
aS'your'
p2841
a(lp2842
(lp2843
I1307
ag1296
aa(lp2844
I1308
ag1216
aa(lp2845
I1309
ag1218
aa(lp2846
I1310
ag1242
aaaa(lp2847
I1312
aI1316
ag978
a(lp2848
(lp2849
I1312
ag1324
aa(lp2850
I1313
ag1206
aa(lp2851
I1314
ag2284
aa(lp2852
I1315
ag1216
aa(lp2853
I1316
ag1242
aaaa(lp2854
I1318
aI1325
ag987
a(lp2855
(lp2856
I1318
ag1202
aa(lp2857
I1319
ag1244
aa(lp2858
I1320
ag1206
aa(lp2859
I1321
ag1508
aa(lp2860
I1322
ag1266
aa(lp2861
I1323
ag1244
aa(lp2862
I1324
ag1213
aa(lp2863
I1325
ag1213
aaaa(lp2864
I1328
aI1329
aS'if'
p2865
a(lp2866
(lp2867
I1328
ag1224
aa(lp2868
I1329
ag1253
aaaa(lp2869
I1331
aI1333
aS'you'
p2870
a(lp2871
(lp2872
I1331
ag1296
aa(lp2873
I1332
ag1216
aa(lp2874
I1333
ag1218
aaaa(lp2875
I1335
aI1338
aS'were'
p2876
a(lp2877
(lp2878
I1335
ag1202
aa(lp2879
I1336
ag1244
aa(lp2880
I1337
ag1242
aa(lp2881
I1338
ag1244
aaaa(lp2882
I1340
aI1341
aS'me'
p2883
a(lp2884
(lp2885
I1340
ag1324
aa(lp2886
I1341
ag1244
aaaa(lp2887
I1344
aI1346
aS'why'
p2888
a(lp2889
(lp2890
I1344
ag1202
aa(lp2891
I1345
ag1204
aa(lp2892
I1346
ag1296
aaaa(lp2893
I1348
aI1352
ag996
a(lp2894
(lp2895
I1348
ag1202
aa(lp2896
I1349
ag1216
aa(lp2897
I1350
ag1218
aa(lp2898
I1351
ag1220
aa(lp2899
I1352
ag1222
aaaa(lp2900
I1354
aI1356
aS'you'
p2901
a(lp2902
(lp2903
I1354
ag1296
aa(lp2904
I1355
ag1216
aa(lp2905
I1356
ag1218
aaaa(lp2906
I1358
aI1363
ag1005
a(lp2907
(lp2908
I1358
ag1244
aa(lp2909
I1359
ag1324
aa(lp2910
I1360
ag1240
aa(lp2911
I1361
ag1220
aa(lp2912
I1362
ag1216
aa(lp2913
I1363
ag1296
aaaa(lp2914
I1365
aI1372
aS'yourself'
p2915
a(lp2916
(lp2917
I1365
ag1296
aa(lp2918
I1366
ag1216
aa(lp2919
I1367
ag1218
aa(lp2920
I1368
ag1242
aa(lp2921
I1369
ag1213
aa(lp2922
I1370
ag1244
aa(lp2923
I1371
ag1220
aa(lp2924
I1372
ag1253
aaaa(lp2925
I1375
aI1378
aS'what'
p2926
a(lp2927
(lp2928
I1375
ag1202
aa(lp2929
I1376
ag1204
aa(lp2930
I1377
ag1206
aa(lp2931
I1378
ag1208
aaaa(lp2932
I1380
aI1382
aS'are'
p2933
a(lp2934
(lp2935
I1380
ag1206
aa(lp2936
I1381
ag1242
aa(lp2937
I1382
ag1244
aaaa(lp2938
I1384
aI1387
aS'your'
p2939
a(lp2940
(lp2941
I1384
ag1296
aa(lp2942
I1385
ag1216
aa(lp2943
I1386
ag1218
aa(lp2944
I1387
ag1242
aaaa(lp2945
I1389
aI1393
ag1014
a(lp2946
(lp2947
I1389
ag1224
aa(lp2948
I1390
ag1222
aa(lp2949
I1391
ag1244
aa(lp2950
I1392
ag1206
aa(lp2951
I1393
ag1213
aaaa(lp2952
I1395
aI1396
aS'on'
p2953
a(lp2954
(lp2955
I1395
ag1216
aa(lp2956
I1396
ag1266
aaaa(lp2957
I1398
aI1403
ag1023
a(lp2958
(lp2959
I1398
ag1213
aa(lp2960
I1399
ag1206
aa(lp2961
I1400
ag1220
aa(lp2962
I1401
ag1206
aa(lp2963
I1402
ag1242
aa(lp2964
I1403
ag1296
aaaa(lp2965
I1406
aI1407
aS'if'
p2966
a(lp2967
(lp2968
I1406
ag1224
aa(lp2969
I1407
ag1253
aaaa(lp2970
I1409
aI1411
aS'you'
p2971
a(lp2972
(lp2973
I1409
ag1296
aa(lp2974
I1410
ag1216
aa(lp2975
I1411
ag1218
aaaa(lp2976
I1413
aI1417
ag1032
a(lp2977
(lp2978
I1413
ag1284
aa(lp2979
I1414
ag1216
aa(lp2980
I1415
ag1218
aa(lp2981
I1416
ag1220
aa(lp2982
I1417
ag1222
aaaa(lp2983
I1419
aI1424
ag1041
a(lp2984
(lp2985
I1419
ag1222
aa(lp2986
I1420
ag1244
aa(lp2987
I1421
ag1213
aa(lp2988
I1422
ag1224
aa(lp2989
I1423
ag1369
aa(lp2990
I1424
ag1266
aaaa(lp2991
I1426
aI1429
aS'your'
p2992
a(lp2993
(lp2994
I1426
ag1296
aa(lp2995
I1427
ag1216
aa(lp2996
I1428
ag1218
aa(lp2997
I1429
ag1242
aaaa(lp2998
I1431
aI1433
aS'own'
p2999
a(lp3000
(lp3001
I1431
ag1216
aa(lp3002
I1432
ag1202
aa(lp3003
I1433
ag1266
aaaa(lp3004
I1435
aI1437
ag1050
a(lp3005
(lp3006
I1435
ag2284
aa(lp3007
I1436
ag1216
aa(lp3008
I1437
ag1310
aaaa(lp3009
I1440
aI1443
aS'what'
p3010
a(lp3011
(lp3012
I1440
ag1202
aa(lp3013
I1441
ag1204
aa(lp3014
I1442
ag1206
aa(lp3015
I1443
ag1208
aaaa(lp3016
I1445
aI1449
ag1059
a(lp3017
(lp3018
I1445
ag1202
aa(lp3019
I1446
ag1216
aa(lp3020
I1447
ag1218
aa(lp3021
I1448
ag1220
aa(lp3022
I1449
ag1222
aaaa(lp3023
I1451
aI1454
aS'your'
p3024
a(lp3025
(lp3026
I1451
ag1296
aa(lp3027
I1452
ag1216
aa(lp3028
I1453
ag1218
aa(lp3029
I1454
ag1242
aaaa(lp3030
I1456
aI1461
ag1068
a(lp3031
(lp3032
I1456
ag1222
aa(lp3033
I1457
ag1218
aa(lp3034
I1458
ag1208
aa(lp3035
I1459
ag1224
aa(lp3036
I1460
ag1244
aa(lp3037
I1461
ag1213
aaaa(lp3038
I1463
aI1464
aS'be'
p3039
a(lp3040
(lp3041
I1463
ag1310
aa(lp3042
I1464
ag1244
aaaa(lp3043
I1467
aI1468
aS'do'
p3044
a(lp3045
(lp3046
I1467
ag1222
aa(lp3047
I1468
ag1216
aaaa(lp3048
I1470
aI1472
aS'you'
p3049
a(lp3050
(lp3051
I1470
ag1296
aa(lp3052
I1471
ag1216
aa(lp3053
I1472
ag1218
aaaa(lp3054
I1474
aI1477
aS'have'
p3055
a(lp3056
(lp3057
I1474
ag1204
aa(lp3058
I1475
ag1206
aa(lp3059
I1476
ag1271
aa(lp3060
I1477
ag1244
aaaa(lp3061
I1479
aI1481
aS'any'
p3062
a(lp3063
(lp3064
I1479
ag1206
aa(lp3065
I1480
ag1266
aa(lp3066
I1481
ag1296
aaaa(lp3067
I1483
aI1491
ag1077
a(lp3068
(lp3069
I1483
ag5
aa(lp3070
I1484
ag1218
aa(lp3071
I1485
ag1244
aa(lp3072
I1486
ag1213
aa(lp3073
I1487
ag1208
aa(lp3074
I1488
ag1224
aa(lp3075
I1489
ag1216
aa(lp3076
I1490
ag1266
aa(lp3077
I1491
ag1213
aaaa(lp3078
I1494
aI1496
ag1086
a(lp3079
(lp3080
I1494
ag1208
aa(lp3081
I1495
ag1242
aa(lp3082
I1496
ag1296
aaaa(lp3083
I1498
aI1504
ag1095
a(lp3084
(lp3085
I1498
ag1213
aa(lp3086
I1499
ag1244
aa(lp3087
I1500
ag1266
aa(lp3088
I1501
ag1222
aa(lp3089
I1502
ag1224
aa(lp3090
I1503
ag1266
aa(lp3091
I1504
ag1369
aaaa(lp3092
I1506
aI1506
ag1206
a(lp3093
(lp3094
I1506
ag1206
aaaa(lp3095
I1508
aI1512
ag1104
a(lp3096
(lp3097
I1508
ag1208
aa(lp3098
I1509
ag1204
aa(lp3099
I1510
ag1206
aa(lp3100
I1511
ag1266
aa(lp3101
I1512
ag1508
aaaa(lp3102
I1514
aI1516
aS'you'
p3103
a(lp3104
(lp3105
I1514
ag1296
aa(lp3106
I1515
ag1216
aa(lp3107
I1516
ag1218
aaaa(lp3108
I1518
aI1523
ag1113
a(lp3109
(lp3110
I1518
ag1220
aa(lp3111
I1519
ag1244
aa(lp3112
I1520
ag1208
aa(lp3113
I1521
ag1208
aa(lp3114
I1522
ag1244
aa(lp3115
I1523
ag1242
aaaa(lp3116
I1525
aI1526
ag1122
a(lp3117
(lp3118
I1525
aS'2'
p3119
aa(lp3120
I1526
aS'4'
p3121
aaaa(lp3122
I1528
aI1532
ag1131
a(lp3123
(lp3124
I1528
ag1204
aa(lp3125
I1529
ag1216
aa(lp3126
I1530
ag1218
aa(lp3127
I1531
ag1242
aa(lp3128
I1532
ag1213
aaaa(lp3129
I1534
aI1538
aS'after'
p3130
a(lp3131
(lp3132
I1534
ag1206
aa(lp3133
I1535
ag1253
aa(lp3134
I1536
ag1208
aa(lp3135
I1537
ag1244
aa(lp3136
I1538
ag1242
aaaa(lp3137
I1540
aI1542
aS'the'
p3138
a(lp3139
(lp3140
I1540
ag1208
aa(lp3141
I1541
ag1204
aa(lp3142
I1542
ag1244
aaaa(lp3143
I1544
aI1555
ag1140
a(lp3144
(lp3145
I1544
ag1224
aa(lp3146
I1545
ag1266
aa(lp3147
I1546
ag1208
aa(lp3148
I1547
ag1244
aa(lp3149
I1548
ag1242
aa(lp3150
I1549
ag1271
aa(lp3151
I1550
ag1224
aa(lp3152
I1551
ag1244
aa(lp3153
I1552
ag1202
aa(lp3154
I1555
ag1974
aaaa(lp3155
I1557
aI1563
ag1149
a(lp3156
(lp3157
I1557
ag1284
aa(lp3158
I1558
ag1204
aa(lp3159
I1559
ag1206
aa(lp3160
I1560
ag1266
aa(lp3161
I1561
ag1284
aa(lp3162
I1562
ag1244
aa(lp3163
I1563
ag1213
aaaa(lp3164
I1565
aI1567
aS'are'
p3165
a(lp3166
(lp3167
I1565
ag1206
aa(lp3168
I1566
ag1242
aa(lp3169
I1567
ag1244
aaaa(lp3170
I1569
aI1572
ag1158
a(lp3171
(lp3172
I1569
ag1296
aa(lp3173
I1570
ag1216
aa(lp3174
I1571
ag1218
aa(lp3175
I1572
ag1220
aaaa(lp3176
I1574
aI1578
ag1167
a(lp3177
(lp3178
I1574
ag1213
aa(lp3179
I1575
ag1208
aa(lp3180
I1576
ag1206
aa(lp3181
I1577
ag1266
aa(lp3182
I1578
ag1222
aaaa(lp3183
I1580
aI1582
aS'out'
p3184
a(lp3185
(lp3186
I1580
ag1216
aa(lp3187
I1581
ag1218
aa(lp3188
I1582
ag1208
aaaa(lp3189
I1584
aI1587
aS'from'
p3190
a(lp3191
(lp3192
I1584
ag1253
aa(lp3193
I1585
ag1242
aa(lp3194
I1586
ag1216
aa(lp3195
I1587
ag1324
aaaa(lp3196
I1589
aI1591
aS'the'
p3197
a(lp3198
(lp3199
I1589
ag1208
aa(lp3200
I1590
ag1204
aa(lp3201
I1591
ag1244
aaaa(lp3202
I1593
aI1599
ag1176
a(lp3203
(lp3204
I1593
ag1284
aa(lp3205
I1594
ag1242
aa(lp3206
I1595
ag1216
aa(lp3207
I1596
ag1202
aa(lp3208
I1597
ag1222
aa(lp3209
I1599
ag5
aaaa(lp3210
I1602
aI1605
aS'what'
p3211
a(lp3212
(lp3213
I1602
ag1202
aa(lp3214
I1603
ag1204
aa(lp3215
I1604
ag1206
aa(lp3216
I1605
ag1208
aaaa(lp3217
I1607
aI1612
aS'should'
p3218
a(lp3219
(lp3220
I1607
ag1213
aa(lp3221
I1608
ag1204
aa(lp3222
I1609
ag1216
aa(lp3223
I1610
ag1218
aa(lp3224
I1611
ag1220
aa(lp3225
I1612
ag1222
aaaa(lp3226
I1614
aI1614
ag1224
a(lp3227
(lp3228
I1614
ag1224
aaaa(lp3229
I1616
aI1617
aS'do'
p3230
a(lp3231
(lp3232
I1616
ag1222
aa(lp3233
I1617
ag1216
aaaa(lp3234
I1619
aI1623
aS'after'
p3235
a(lp3236
(lp3237
I1619
ag1206
aa(lp3238
I1620
ag1253
aa(lp3239
I1621
ag1208
aa(lp3240
I1622
ag1244
aa(lp3241
I1623
ag1242
aaaa(lp3242
I1625
aI1627
aS'the'
p3243
a(lp3244
(lp3245
I1625
ag1208
aa(lp3246
I1626
ag1204
aa(lp3247
I1627
ag1244
aaaa(lp3248
I1629
aI1637
ag1185
a(lp3249
(lp3250
I1629
ag1224
aa(lp3251
I1630
ag1266
aa(lp3252
I1631
ag1208
aa(lp3253
I1632
ag1244
aa(lp3254
I1633
ag1242
aa(lp3255
I1634
ag1271
aa(lp3256
I1635
ag1224
aa(lp3257
I1636
ag1244
aa(lp3258
I1637
ag1202
aaaasS'cleanCharacterMap'
p3259
(lp3260
g1197
a(lp3261
I2
aS' '
p3262
aag1201
ag1203
ag1205
ag1207
a(lp3263
I7
ag3262
aag1212
ag1214
ag1215
ag1217
ag1219
ag1221
a(lp3264
I14
ag3262
aag1226
a(lp3265
I16
ag3262
aag1230
ag1231
a(lp3266
I19
ag3262
aag1235
ag1236
a(lp3267
I22
ag3262
aag1239
ag1241
ag1243
ag1245
ag1246
ag1247
ag1248
a(lp3268
I30
ag3262
aag1252
ag1254
ag1255
a(lp3269
I34
ag3262
aag1259
ag1260
ag1261
a(lp3270
I38
ag3262
aag1264
ag1265
ag1267
ag1268
ag1269
ag1270
ag1272
ag1273
ag1274
a(lp3271
I49
ag3262
aag1277
ag1278
ag1279
ag1280
ag1281
ag1282
ag1283
ag1285
a(lp3272
I58
ag3262
aag1289
ag1290
ag1291
a(lp3273
I62
ag3262
aag1295
ag1297
ag1298
a(lp3274
I66
ag3262
aag1302
ag1303
ag1304
a(lp3275
I70
ag3262
aag1308
ag1309
ag1311
ag1312
ag1313
a(lp3276
I76
ag3262
aag1317
ag1318
ag1319
a(lp3277
I80
ag3262
aag1322
ag1323
ag1325
ag1326
ag1327
ag1328
ag1329
ag1330
a(lp3278
I89
ag3262
aag1333
ag1334
ag1335
ag1336
ag1337
ag1338
ag1339
a(lp3279
I97
ag3262
aag1342
a(lp3280
I99
ag3262
aag1345
ag1346
ag1347
ag1348
a(lp3281
I104
ag3262
aag1351
ag1352
ag1353
ag1354
ag1355
ag1356
a(lp3282
I111
ag3262
aag1359
ag1360
ag1361
ag1362
ag1363
ag1364
ag1365
ag1366
ag1367
ag1368
a(lp3283
I122
ag3262
aag1373
ag1374
ag1375
ag1376
a(lp3284
I127
ag3262
aag1379
ag1380
ag1381
ag1382
ag1383
ag1384
a(lp3285
I135
ag3262
aag1387
ag1388
ag1389
ag1390
ag1391
ag1392
ag1393
ag1394
ag1395
ag1396
ag1397
ag1398
a(lp3286
I149
ag3262
aag1401
ag1402
ag1403
ag1404
ag1405
ag1406
ag1407
ag1408
ag1409
ag1410
a(lp3287
I161
ag3262
aag1413
ag1414
ag1415
a(lp3288
I166
ag3262
aag1418
ag1419
ag1420
ag1421
ag1422
a(lp3289
I172
ag3262
aag1425
ag1426
ag1427
ag1428
ag1429
ag1430
ag1431
ag1432
ag1433
ag1434
ag1435
ag1436
ag1437
a(lp3290
I186
ag3262
aag1441
ag1442
ag1443
a(lp3291
I190
ag3262
aag1446
ag1447
ag1448
ag1449
ag1450
ag1451
a(lp3292
I197
ag3262
aag1454
a(lp3293
I199
ag3262
aag1457
ag1458
ag1459
ag1460
a(lp3294
I204
ag3262
aag1463
ag1464
ag1465
ag1466
ag1467
a(lp3295
I210
ag3262
aag1471
ag1472
a(lp3296
I213
ag3262
aag1475
ag1476
ag1477
ag1478
ag1479
ag1480
ag1481
a(lp3297
I221
ag3262
aag1485
ag1486
a(lp3298
I224
ag3262
aag1490
ag1491
ag1492
a(lp3299
I228
ag3262
aag1496
ag1497
ag1498
a(lp3300
I232
ag3262
aag1501
a(lp3301
I234
ag3262
aag1504
ag1505
ag1506
ag1507
ag1509
ag1510
a(lp3302
I242
ag3262
aag1513
ag1514
ag1515
ag1516
ag1517
a(lp3303
I248
ag3262
aag1520
ag1521
ag1522
ag1523
ag1524
ag1525
ag1526
a(lp3304
I256
ag3262
aag1530
ag1531
ag1532
a(lp3305
I260
ag3262
aag1536
ag1537
a(lp3306
I263
ag3262
aag1540
ag1541
ag1542
ag1543
a(lp3307
I268
ag3262
aag1547
ag1548
a(lp3308
I271
ag3262
aag1551
ag1552
ag1553
ag1554
ag1555
ag1556
ag1557
ag1558
a(lp3309
I280
ag3262
aag1561
ag1562
ag1563
ag1564
ag1565
ag1566
ag1567
ag1568
ag1569
ag1570
ag1571
a(lp3310
I292
ag3262
aag1574
ag1575
ag1576
ag1577
ag1578
a(lp3311
I298
ag3262
aag1582
ag1583
a(lp3312
I301
ag3262
aag1587
ag1588
ag1589
ag1590
a(lp3313
I306
ag3262
aag1593
ag1594
ag1595
ag1596
ag1597
ag1598
ag1599
ag1600
ag1601
a(lp3314
I316
ag3262
aag1604
ag1605
ag1606
ag1607
ag1608
ag1609
a(lp3315
I323
ag3262
aag1612
ag1614
a(lp3316
I326
ag3262
aag1618
ag1619
ag1620
ag1621
ag1622
ag1623
ag1624
a(lp3317
I334
ag3262
aag1627
ag1628
ag1629
ag1630
ag1631
a(lp3318
I340
ag3262
aag1634
ag1635
ag1636
ag1637
ag1638
ag1639
ag1640
ag1641
a(lp3319
I349
ag3262
aag1644
ag1645
ag1646
ag1647
ag1648
ag1649
ag1650
a(lp3320
I357
ag3262
aag1654
ag1655
a(lp3321
I360
ag3262
aag1658
ag1659
ag1660
ag1661
ag1662
ag1663
a(lp3322
I367
ag3262
aag1666
ag1667
ag1668
ag1669
ag1670
ag1671
ag1672
ag1673
ag1674
a(lp3323
I377
ag3262
aag1677
ag1678
ag1679
ag1680
ag1681
ag1682
ag1683
ag1684
ag1685
a(lp3324
I387
ag3262
aag1688
ag1689
ag1690
ag1691
ag1692
ag1693
ag1694
ag1695
a(lp3325
I396
ag3262
aag1699
ag1700
ag1701
a(lp3326
I400
ag3262
aag1704
ag1705
ag1706
ag1707
ag1708
ag1709
ag1710
ag1711
ag1712
a(lp3327
I410
ag3262
aag1716
ag1717
ag1718
a(lp3328
I414
ag3262
aag1721
ag1722
ag1723
ag1724
a(lp3329
I419
ag3262
aag1728
ag1729
a(lp3330
I422
ag3262
aag1732
ag1733
ag1734
a(lp3331
I426
ag3262
aag1738
ag1739
ag1740
a(lp3332
I430
ag3262
aag1743
ag1744
ag1745
ag1746
ag1747
ag1748
ag1749
ag1750
a(lp3333
I439
ag3262
aag1753
ag1754
ag1755
ag1756
ag1757
a(lp3334
I445
ag3262
aag1760
ag1761
ag1762
ag1763
ag1764
ag1765
ag1766
ag1767
ag1768
ag1769
ag1770
ag1771
ag1772
a(lp3335
I459
ag3262
aag1776
ag1777
ag1778
a(lp3336
I463
ag3262
aag1782
ag1783
ag1784
a(lp3337
I467
ag3262
aag1787
ag1788
ag1789
ag1790
ag1791
ag1792
ag1793
ag1794
a(lp3338
I476
ag3262
aag1798
ag1799
ag1800
a(lp3339
I480
ag3262
aag1803
ag1804
ag1805
ag1806
ag1807
ag1808
ag1809
ag1810
a(lp3340
I489
ag3262
aag1814
ag1815
ag1816
a(lp3341
I493
ag3262
aag1819
ag1820
ag1821
ag1822
ag1823
ag1824
a(lp3342
I500
ag3262
aag1827
a(lp3343
I502
ag3262
aag1830
ag1831
ag1832
ag1833
a(lp3344
I507
ag3262
aag1836
ag1837
ag1838
ag1839
ag1840
a(lp3345
I513
ag3262
aag1844
ag1845
a(lp3346
I516
ag3262
aag1848
ag1849
ag1850
ag1851
ag1852
ag1853
ag1854
ag1855
a(lp3347
I526
ag3262
aag1859
ag1860
ag1861
ag1862
a(lp3348
I531
ag3262
aag1866
ag1867
ag1868
ag1869
ag1870
ag1871
a(lp3349
I538
ag3262
aag1874
a(lp3350
I540
ag3262
aag1877
ag1878
ag1879
ag1880
a(lp3351
I545
ag3262
aag1884
ag1885
a(lp3352
I548
ag3262
aag1889
ag1890
ag1891
a(lp3353
I552
ag3262
aag1894
ag1895
ag1896
ag1897
ag1898
ag1899
ag1900
ag1901
ag1902
a(lp3354
I563
ag3262
aag1906
ag1907
a(lp3355
I566
ag3262
aag1910
ag1911
ag1912
ag1913
a(lp3356
I571
ag3262
aag1917
ag1918
a(lp3357
I574
ag3262
aag1921
ag1922
ag1923
ag1924
ag1925
a(lp3358
I580
ag3262
aag1928
a(lp3359
I582
ag3262
aag1931
ag1932
ag1933
ag1934
a(lp3360
I587
ag3262
aag1938
ag1939
a(lp3361
I590
ag3262
aag1943
ag1944
ag1945
ag1946
a(lp3362
I595
ag3262
aag1949
ag1950
ag1951
ag1952
ag1953
ag1954
a(lp3363
I602
ag3262
aag1958
ag1959
ag1960
a(lp3364
I606
ag3262
aag1963
ag1964
ag1965
ag1966
ag1967
ag1968
ag1969
ag1970
ag1971
ag1972
ag1973
a(lp3365
I620
ag3262
aag1978
ag1979
a(lp3366
I623
ag3262
aag1983
ag1984
a(lp3367
I626
ag3262
aag1987
ag1988
ag1989
ag1990
ag1991
ag1992
a(lp3368
I633
ag3262
aag1995
ag1996
ag1997
ag1998
ag1999
ag2000
ag2001
a(lp3369
I641
ag3262
aag2005
ag2006
a(lp3370
I644
ag3262
aag2010
ag2011
ag2012
a(lp3371
I648
ag3262
aag2015
ag2016
ag2017
ag2018
ag2019
ag2020
ag2021
ag2022
a(lp3372
I657
ag3262
aag2026
ag2027
a(lp3373
I660
ag3262
aag2030
ag2031
ag2032
ag2033
a(lp3374
I665
ag3262
aag2036
ag2037
ag2038
a(lp3375
I669
ag3262
aag2041
ag2042
ag2043
ag2044
ag2045
ag2046
a(lp3376
I676
ag3262
aag2050
ag2051
a(lp3377
I679
ag3262
aag2055
ag2056
ag2057
a(lp3378
I683
ag3262
aag2060
ag2061
ag2062
ag2063
ag2064
ag2065
ag2066
ag2067
ag2068
ag2069
ag2070
ag2071
a(lp3379
I696
ag3262
aag2075
ag2076
a(lp3380
I699
ag3262
aag2079
ag2080
ag2081
ag2082
ag2083
ag2084
ag2085
ag2086
ag2087
ag2088
ag2089
a(lp3381
I711
ag3262
aag2093
ag2094
a(lp3382
I714
ag3262
aag2097
ag2098
ag2099
ag2100
ag2101
ag2102
ag2103
ag2104
ag2105
ag2106
ag2107
ag2108
ag2109
a(lp3383
I728
ag3262
aag2112
ag2113
ag2114
ag2115
ag2116
ag2117
ag2118
ag2119
ag2120
ag2121
ag2122
ag2123
a(lp3384
I741
ag3262
aag2127
ag2128
ag2129
a(lp3385
I745
ag3262
aag2132
ag2133
ag2134
a(lp3386
I749
ag3262
aag2137
ag2138
ag2139
ag2140
ag2141
a(lp3387
I757
ag3262
aag2145
ag2146
ag2147
ag2148
ag2149
ag2150
a(lp3388
I764
ag3262
aag2153
a(lp3389
I766
ag3262
aag2156
ag2157
ag2158
ag2159
ag2160
a(lp3390
I772
ag3262
aag2163
ag2164
ag2165
ag2166
ag2167
ag2168
ag2169
ag2170
a(lp3391
I781
ag3262
aag2174
ag2175
a(lp3392
I784
ag3262
aag2179
ag2180
ag2181
a(lp3393
I788
ag3262
aag2184
ag2185
ag2186
ag2187
ag2188
ag2189
ag2190
ag2191
ag2192
a(lp3394
I799
ag3262
aag2196
ag2197
ag2198
ag2199
ag2200
a(lp3395
I805
ag3262
aag2204
ag2205
ag2206
a(lp3396
I809
ag3262
aag2210
ag2211
ag2212
a(lp3397
I813
ag3262
aag2215
ag2216
ag2217
ag2218
ag2219
a(lp3398
I819
ag3262
aag2223
ag2224
a(lp3399
I822
ag3262
aag2227
ag2228
ag2229
ag2230
ag2231
ag2232
ag2233
ag2234
ag2235
a(lp3400
I832
ag3262
aag2239
ag2240
ag2241
a(lp3401
I836
ag3262
aag2245
ag2246
ag2247
a(lp3402
I840
ag3262
aag2250
ag2251
ag2253
ag2254
ag2255
ag2256
a(lp3403
I847
ag3262
aag2260
ag2261
ag2262
ag2263
a(lp3404
I852
ag3262
aag2267
ag2268
ag2269
a(lp3405
I856
ag3262
aag2272
ag2273
ag2274
ag2275
ag2276
ag2277
a(lp3406
I863
ag3262
aag2280
a(lp3407
I865
ag3262
aag2283
ag2285
ag2286
a(lp3408
I869
ag3262
aag2289
ag2290
ag2291
ag2292
ag2293
ag2294
ag2295
ag2296
ag2297
a(lp3409
I880
ag3262
aag2301
ag2302
a(lp3410
I883
ag3262
aag2305
a(lp3411
I885
ag3262
aag2308
ag2309
ag2310
ag2311
a(lp3412
I890
ag3262
aag2314
ag2315
ag2316
ag2317
a(lp3413
I895
ag3262
aag2321
ag2322
a(lp3414
I898
ag3262
aag2325
ag2326
ag2327
ag2328
ag2329
a(lp3415
I904
ag3262
aag2333
ag2334
ag2335
ag2336
a(lp3416
I909
ag3262
aag2339
ag2340
ag2341
ag2342
ag2343
ag2344
ag2345
a(lp3417
I917
ag3262
aag2349
ag2350
a(lp3418
I920
ag3262
aag2354
ag2355
ag2356
ag2357
ag2358
a(lp3419
I926
ag3262
aag2361
ag2362
ag2363
ag2364
ag2365
ag2366
ag2367
ag2368
ag2369
a(lp3420
I937
ag3262
aag2373
ag2374
ag2375
a(lp3421
I941
ag3262
aag2378
ag2379
ag2380
ag2381
ag2382
ag2383
ag2384
ag2385
a(lp3422
I950
ag3262
aag2389
ag2390
ag2391
a(lp3423
I954
ag3262
aag2394
ag2395
ag2396
ag2397
a(lp3424
I960
ag3262
aag2401
ag2402
ag2403
ag2404
ag2405
ag2406
a(lp3425
I967
ag3262
aag2410
ag2411
ag2412
ag2413
a(lp3426
I972
ag3262
aag2416
ag2417
ag2418
ag2419
ag2420
ag2421
ag2422
ag2423
ag2424
ag2425
a(lp3427
I985
ag3262
aag2429
ag2430
ag2431
ag2432
a(lp3428
I990
ag3262
aag2435
ag2436
ag2437
ag2438
a(lp3429
I995
ag3262
aag2442
ag2443
a(lp3430
I998
ag3262
aag2446
ag2447
ag2448
ag2449
ag2450
ag2451
ag2452
ag2453
ag2454
a(lp3431
I1008
ag3262
aag2458
ag2459
ag2460
ag2461
a(lp3432
I1013
ag3262
aag2464
a(lp3433
I1015
ag3262
aag2468
ag2469
a(lp3434
I1018
ag3262
aag2472
ag2473
ag2474
ag2475
ag2476
a(lp3435
I1024
ag3262
aag2480
ag2481
a(lp3436
I1027
ag3262
aag2485
ag2486
ag2487
a(lp3437
I1031
ag3262
aag2490
ag2491
ag2492
ag2493
ag2494
ag2495
ag2496
ag2497
ag2498
a(lp3438
I1042
ag3262
aag2502
ag2503
ag2504
a(lp3439
I1046
ag3262
aag2508
ag2509
a(lp3440
I1049
ag3262
aag2513
ag2514
ag2515
a(lp3441
I1053
ag3262
aag2518
ag2519
ag2520
ag2521
a(lp3442
I1058
ag3262
aag2525
ag2526
a(lp3443
I1061
ag3262
aag2529
ag2530
ag2531
ag2532
a(lp3444
I1066
ag3262
aag2536
ag2537
ag2538
a(lp3445
I1070
ag3262
aag2542
ag2543
ag2544
ag2545
a(lp3446
I1075
ag3262
aag2548
ag2549
ag2550
ag2551
ag2552
ag2553
ag2554
a(lp3447
I1084
ag3262
aag2558
ag2559
ag2560
ag2561
a(lp3448
I1089
ag3262
aag2564
ag2565
ag2566
ag2567
a(lp3449
I1094
ag3262
aag2571
ag2572
a(lp3450
I1097
ag3262
aag2575
ag2576
ag2577
a(lp3451
I1101
ag3262
aag2581
ag2582
a(lp3452
I1104
ag3262
aag2586
ag2587
ag2588
a(lp3453
I1108
ag3262
aag2591
ag2592
ag2593
ag2594
a(lp3454
I1113
ag3262
aag2598
ag2599
a(lp3455
I1116
ag3262
aag2602
ag2603
ag2604
ag2605
a(lp3456
I1121
ag3262
aag2608
ag2609
ag2610
ag2611
a(lp3457
I1126
ag3262
aag2614
ag2615
ag2616
ag2617
ag2618
a(lp3458
I1132
ag3262
aag2622
ag2623
ag2624
ag2625
a(lp3459
I1137
ag3262
aag2629
ag2630
ag2631
a(lp3460
I1142
ag3262
aag2635
ag2636
ag2637
ag2638
a(lp3461
I1147
ag3262
aag2641
ag2642
ag2643
ag2644
ag2645
ag2646
ag2647
ag2648
ag2649
ag2650
ag2651
ag2652
ag2653
ag2654
a(lp3462
I1162
ag3262
aag2658
ag2659
a(lp3463
I1165
ag3262
aag2663
ag2664
ag2665
a(lp3464
I1169
ag3262
aag2669
ag2670
ag2671
ag2672
a(lp3465
I1174
ag3262
aag2676
ag2677
ag2678
ag2679
ag2680
a(lp3466
I1180
ag3262
aag2684
ag2685
ag2686
ag2687
a(lp3467
I1185
ag3262
aag2690
ag2691
ag2692
ag2693
a(lp3468
I1190
ag3262
aag2697
ag2698
ag2699
a(lp3469
I1194
ag3262
aag2702
ag2703
ag2704
ag2705
ag2706
ag2707
ag2708
ag2709
ag2710
ag2711
a(lp3470
I1205
ag3262
aag2715
ag2716
a(lp3471
I1208
ag3262
aag2720
ag2721
ag2722
ag2723
a(lp3472
I1213
ag3262
aag2726
ag2727
ag2728
ag2729
ag2730
a(lp3473
I1220
ag3262
aag2734
ag2735
ag2736
ag2737
a(lp3474
I1225
ag3262
aag2741
ag2742
ag2743
a(lp3475
I1229
ag3262
aag2747
ag2748
ag2749
a(lp3476
I1233
ag3262
aag2752
ag2753
ag2754
ag2755
a(lp3477
I1238
ag3262
aag2758
ag2759
ag2760
ag2761
ag2762
ag2763
ag2764
ag2765
ag2766
a(lp3478
I1249
ag3262
aag2770
ag2771
ag2772
ag2773
ag2774
a(lp3479
I1255
ag3262
aag2778
ag2779
ag2780
ag2781
a(lp3480
I1260
ag3262
aag2784
ag2785
ag2786
a(lp3481
I1264
ag3262
aag2789
ag2790
ag2791
a(lp3482
I1269
ag3262
aag2795
ag2796
ag2797
ag2798
a(lp3483
I1274
ag3262
aag2802
ag2803
a(lp3484
I1277
ag3262
aag2807
ag2808
ag2809
ag2810
a(lp3485
I1282
ag3262
aag2813
ag2814
ag2815
ag2816
ag2817
a(lp3486
I1288
ag3262
aag2820
ag2821
ag2822
ag2823
ag2824
ag2825
ag2826
ag2827
a(lp3487
I1298
ag3262
aag2831
ag2832
ag2833
ag2834
a(lp3488
I1303
ag3262
aag2838
ag2839
a(lp3489
I1306
ag3262
aag2843
ag2844
ag2845
ag2846
a(lp3490
I1311
ag3262
aag2849
ag2850
ag2851
ag2852
ag2853
a(lp3491
I1317
ag3262
aag2856
ag2857
ag2858
ag2859
ag2860
ag2861
ag2862
ag2863
a(lp3492
I1327
ag3262
aag2867
ag2868
a(lp3493
I1330
ag3262
aag2872
ag2873
ag2874
a(lp3494
I1334
ag3262
aag2878
ag2879
ag2880
ag2881
a(lp3495
I1339
ag3262
aag2885
ag2886
a(lp3496
I1343
ag3262
aag2890
ag2891
ag2892
a(lp3497
I1347
ag3262
aag2895
ag2896
ag2897
ag2898
ag2899
a(lp3498
I1353
ag3262
aag2903
ag2904
ag2905
a(lp3499
I1357
ag3262
aag2908
ag2909
ag2910
ag2911
ag2912
ag2913
a(lp3500
I1364
ag3262
aag2917
ag2918
ag2919
ag2920
ag2921
ag2922
ag2923
ag2924
a(lp3501
I1374
ag3262
aag2928
ag2929
ag2930
ag2931
a(lp3502
I1379
ag3262
aag2935
ag2936
ag2937
a(lp3503
I1383
ag3262
aag2941
ag2942
ag2943
ag2944
a(lp3504
I1388
ag3262
aag2947
ag2948
ag2949
ag2950
ag2951
a(lp3505
I1394
ag3262
aag2955
ag2956
a(lp3506
I1397
ag3262
aag2959
ag2960
ag2961
ag2962
ag2963
ag2964
a(lp3507
I1405
ag3262
aag2968
ag2969
a(lp3508
I1408
ag3262
aag2973
ag2974
ag2975
a(lp3509
I1412
ag3262
aag2978
ag2979
ag2980
ag2981
ag2982
a(lp3510
I1418
ag3262
aag2985
ag2986
ag2987
ag2988
ag2989
ag2990
a(lp3511
I1425
ag3262
aag2994
ag2995
ag2996
ag2997
a(lp3512
I1430
ag3262
aag3001
ag3002
ag3003
a(lp3513
I1434
ag3262
aag3006
ag3007
ag3008
a(lp3514
I1439
ag3262
aag3012
ag3013
ag3014
ag3015
a(lp3515
I1444
ag3262
aag3018
ag3019
ag3020
ag3021
ag3022
a(lp3516
I1450
ag3262
aag3026
ag3027
ag3028
ag3029
a(lp3517
I1455
ag3262
aag3032
ag3033
ag3034
ag3035
ag3036
ag3037
a(lp3518
I1462
ag3262
aag3041
ag3042
a(lp3519
I1466
ag3262
aag3046
ag3047
a(lp3520
I1469
ag3262
aag3051
ag3052
ag3053
a(lp3521
I1473
ag3262
aag3057
ag3058
ag3059
ag3060
a(lp3522
I1478
ag3262
aag3064
ag3065
ag3066
a(lp3523
I1482
ag3262
aag3069
ag3070
ag3071
ag3072
ag3073
ag3074
ag3075
ag3076
ag3077
a(lp3524
I1493
ag3262
aag3080
ag3081
ag3082
a(lp3525
I1497
ag3262
aag3085
ag3086
ag3087
ag3088
ag3089
ag3090
ag3091
a(lp3526
I1505
ag3262
aag3094
a(lp3527
I1507
ag3262
aag3097
ag3098
ag3099
ag3100
ag3101
a(lp3528
I1513
ag3262
aag3105
ag3106
ag3107
a(lp3529
I1517
ag3262
aag3110
ag3111
ag3112
ag3113
ag3114
ag3115
a(lp3530
I1524
ag3262
aag3118
ag3120
a(lp3531
I1527
ag3262
aag3124
ag3125
ag3126
ag3127
ag3128
a(lp3532
I1533
ag3262
aag3132
ag3133
ag3134
ag3135
ag3136
a(lp3533
I1539
ag3262
aag3140
ag3141
ag3142
a(lp3534
I1543
ag3262
aag3145
ag3146
ag3147
ag3148
ag3149
ag3150
ag3151
ag3152
ag3153
ag3154
a(lp3535
I1556
ag3262
aag3157
ag3158
ag3159
ag3160
ag3161
ag3162
ag3163
a(lp3536
I1564
ag3262
aag3167
ag3168
ag3169
a(lp3537
I1568
ag3262
aag3172
ag3173
ag3174
ag3175
a(lp3538
I1573
ag3262
aag3178
ag3179
ag3180
ag3181
ag3182
a(lp3539
I1579
ag3262
aag3186
ag3187
ag3188
a(lp3540
I1583
ag3262
aag3192
ag3193
ag3194
ag3195
a(lp3541
I1588
ag3262
aag3199
ag3200
ag3201
a(lp3542
I1592
ag3262
aag3204
ag3205
ag3206
ag3207
ag3208
ag3209
a(lp3543
I1601
ag3262
aag3213
ag3214
ag3215
ag3216
a(lp3544
I1606
ag3262
aag3220
ag3221
ag3222
ag3223
ag3224
ag3225
a(lp3545
I1613
ag3262
aag3228
a(lp3546
I1615
ag3262
aag3232
ag3233
a(lp3547
I1618
ag3262
aag3237
ag3238
ag3239
ag3240
ag3241
a(lp3548
I1624
ag3262
aag3245
ag3246
ag3247
a(lp3549
I1628
ag3262
aag3250
ag3251
ag3252
ag3253
ag3254
ag3255
ag3256
ag3257
ag3258
a(lp3550
I1639
ag3262
aa(lp3551
I1641
ag1974
aasS'text'
p3552
S'q. what should i do to prepare for the interview? research all you can about the employer prepare a neat folder containing your resume, certificates, references, etc. dress appropriately and ensure a high level of hygiene if you are a smoker, avoid smoking for as long as possible immediately prior to your interview arrive 15 minutes early rehearse answers to likely interview questions rehearse the questions you want to ask the employer dress appropriately for the position and industry and ensure a high level of hygieneq. what should i wear to the interview? be sure to bring a copy of your resume and references.\xc2\xa0 it is always helpful to the employer to also see copies of any certificates of achievement or qualification certificates you may have.q. should i bring anything to the interview? these are the sorts of questions you can expect when you attend a job interview. it a good idea to write down answers to these questions, and practice out loud, before each interview.q. what kind of questions will i be asked at the interview? why do you want to work for this company? what kind of job do you hope to hold five years from now? what qualifications do you have which will make you successful in this field? what did you like most/least about your old job? what is your major strength? what is your major weakness? if you were me, why would you employ yourself? what are your ideas on salary? if you could design your own job, what would your duties be? do you have any questions? try sending a thank you letter 24 hours after the interview.\xc2\xa0 chances are youl stand out from the crowd!q. what should i do after the interview? \xc2\xa0'
p3553
sS'cleanWordMap'
p3554
(lp3555
g1195
ag1237
ag1262
ag1275
ag1320
ag1331
ag1343
ag1349
ag1357
ag1377
ag1385
ag1399
ag1411
ag1416
ag1423
ag1444
ag1455
ag1461
ag1473
ag1502
ag1511
ag1518
ag1538
ag1549
ag1559
ag1572
ag1591
ag1602
ag1610
ag1616
ag1625
ag1632
ag1642
ag1656
ag1664
ag1675
ag1686
ag1702
ag1719
ag1730
ag1741
ag1751
ag1758
ag1785
ag1801
ag1817
ag1828
ag1834
ag1846
ag1875
ag1892
ag1908
ag1919
ag1929
ag1947
ag1961
ag1985
ag1993
ag2013
ag2028
ag2034
ag2039
ag2058
ag2077
ag2095
ag2110
ag2130
ag2135
ag2154
ag2161
ag2182
ag2213
ag2225
ag2248
ag2270
ag2281
ag2287
ag2306
ag2312
ag2323
ag2337
ag2359
ag2376
ag2392
ag2414
ag2433
ag2444
ag2470
ag2488
ag2516
ag2527
ag2546
ag2562
ag2573
ag2589
ag2600
ag2606
ag2612
ag2639
ag2688
ag2700
ag2724
ag2750
ag2756
ag2782
ag2787
ag2811
ag2818
ag2847
ag2854
ag2893
ag2906
ag2945
ag2957
ag2976
ag2983
ag3004
ag3016
ag3030
ag3067
ag3078
ag3083
ag3095
ag3108
ag3116
ag3122
ag3143
ag3155
ag3170
ag3176
ag3202
ag3248
asS'lines'
p3556
(lp3557
VQ. What should I do to prepare for the interview?\u000a
p3558
aVResearch all you can about the employer\u000a
p3559
aVPrepare a neat folder containing your resume, certificates, references, etc.\u000a
p3560
aVDress appropriately and ensure a high level of hygiene\u000a
p3561
aVIf you are a smoker, avoid smoking for as long as possible immediately prior to your interview\u000a
p3562
aVArrive 15 minutes early\u000a
p3563
aVRehearse answers to likely interview questions\u000a
p3564
aVRehearse the questions you want to ask the employer\u000a
p3565
aVDress appropriately for the position and industry and ensure a high level of hygieneQ. What should I wear to the interview?\u000a
p3566
aVBe sure to bring a copy of your resume and references. It is always helpful to the employer to also see copies of any certificates of achievement or qualification certificates you may have.Q. Should I bring anything to the interview?\u000a
p3567
aVThese are the sorts of questions you can expect when you attend a job interview. It a good idea to write down answers to these questions, and practice out loud, before each interview.Q. What kind of questions will I be asked at the interview?\u000a
p3568
aVWhy do you want to work for this company?\u000a
p3569
aVWhat kind of job do you hope to hold five years from now?\u000a
p3570
aVWhat qualifications do you have which will make you successful in this field?\u000a
p3571
aVWhat did you like most/least about your old job?\u000a
p3572
aVWhat is your major strength?\u000a
p3573
aVWhat is your major weakness?\u000a
p3574
aVIf you were me, why would you employ yourself?\u000a
p3575
aVWhat are your ideas on salary?\u000a
p3576
aVIf you could design your own job, what would your duties be?\u000a
p3577
aVDo you have any questions?\u000a
p3578
aVTry sending a thank you letter 24 hours after the interview. Chances are youl stand out from the crowd!Q. What should I do after the interview?\u000a
p3579
aV
p3580
asS'docType'
p3581
S'src'
p3582
sS'newfmap'
p3583
(lp3584
g4
ag8
ag10
ag12
ag14
ag17
ag19
ag21
ag23
ag26
ag28
ag30
ag32
ag35
ag37
ag39
ag41
ag44
ag46
ag48
ag50
ag53
ag55
ag57
ag59
ag62
ag64
ag66
ag68
ag71
ag73
ag75
ag77
ag80
ag82
ag84
ag86
ag89
ag91
ag93
ag95
ag98
ag100
ag102
ag104
ag107
ag109
ag111
ag113
ag116
ag118
ag120
ag122
ag125
ag127
ag129
ag131
ag134
ag136
ag138
ag140
ag143
ag145
ag147
ag149
ag152
ag154
ag156
ag158
ag161
ag163
ag165
ag167
ag170
ag172
ag174
ag176
ag179
ag181
ag183
ag185
ag188
ag190
ag192
ag194
ag197
ag199
ag201
ag203
ag206
ag208
ag210
ag212
ag215
ag217
ag219
ag221
ag224
ag226
ag228
ag230
ag233
ag235
ag237
ag239
ag242
ag244
ag246
ag248
ag251
ag253
ag255
ag257
ag260
ag262
ag264
ag266
ag269
ag271
ag273
ag275
ag278
ag280
ag282
ag284
ag287
ag289
ag291
ag293
ag296
ag298
ag300
ag302
ag305
ag307
ag309
ag311
ag314
ag316
ag318
ag320
ag323
ag325
ag327
ag329
ag332
ag334
ag336
ag338
ag341
ag343
ag345
ag347
ag350
ag352
ag354
ag356
ag359
ag361
ag363
ag365
ag368
ag370
ag372
ag374
ag377
ag379
ag381
ag383
ag386
ag388
ag390
ag392
ag395
ag397
ag399
ag401
ag404
ag406
ag408
ag410
ag413
ag415
ag417
ag419
ag422
ag424
ag426
ag428
ag431
ag433
ag435
ag437
ag440
ag442
ag444
ag446
ag449
ag451
ag453
ag455
ag458
ag460
ag462
ag464
ag467
ag469
ag471
ag473
ag476
ag478
ag480
ag482
ag485
ag487
ag489
ag491
ag494
ag496
ag498
ag500
ag503
ag505
ag507
ag509
ag512
ag514
ag516
ag518
ag521
ag523
ag525
ag527
ag530
ag532
ag534
ag536
ag539
ag541
ag543
ag545
ag548
ag550
ag552
ag554
ag557
ag559
ag561
ag563
ag566
ag568
ag570
ag572
ag575
ag577
ag579
ag581
ag584
ag586
ag588
ag590
ag593
ag595
ag597
ag599
ag602
ag604
ag606
ag608
ag611
ag613
ag615
ag617
ag620
ag622
ag624
ag626
ag629
ag631
ag633
ag635
ag638
ag640
ag642
ag644
ag647
ag649
ag651
ag653
ag656
ag658
ag660
ag662
ag665
ag667
ag669
ag671
ag674
ag676
ag678
ag680
ag683
ag685
ag687
ag689
ag692
ag694
ag696
ag698
ag701
ag703
ag705
ag707
ag710
ag712
ag714
ag716
ag719
ag721
ag723
ag725
ag728
ag730
ag732
ag734
ag737
ag739
ag741
ag743
ag746
ag748
ag750
ag752
ag755
ag757
ag759
ag761
ag764
ag766
ag768
ag770
ag773
ag775
ag777
ag779
ag782
ag784
ag786
ag788
ag791
ag793
ag795
ag797
ag800
ag802
ag804
ag806
ag809
ag811
ag813
ag815
ag818
ag820
ag822
ag824
ag827
ag829
ag831
ag833
ag836
ag838
ag840
ag842
ag845
ag847
ag849
ag851
ag854
ag856
ag858
ag860
ag863
ag865
ag867
ag869
ag872
ag874
ag876
ag878
ag881
ag883
ag885
ag887
ag890
ag892
ag894
ag896
ag899
ag901
ag903
ag905
ag908
ag910
ag912
ag914
ag917
ag919
ag921
ag923
ag926
ag928
ag930
ag932
ag935
ag937
ag939
ag941
ag944
ag946
ag948
ag950
ag953
ag955
ag957
ag959
ag962
ag964
ag966
ag968
ag971
ag973
ag975
ag977
ag980
ag982
ag984
ag986
ag989
ag991
ag993
ag995
ag998
ag1000
ag1002
ag1004
ag1007
ag1009
ag1011
ag1013
ag1016
ag1018
ag1020
ag1022
ag1025
ag1027
ag1029
ag1031
ag1034
ag1036
ag1038
ag1040
ag1043
ag1045
ag1047
ag1049
ag1052
ag1054
ag1056
ag1058
ag1061
ag1063
ag1065
ag1067
ag1070
ag1072
ag1074
ag1076
ag1079
ag1081
ag1083
ag1085
ag1088
ag1090
ag1092
ag1094
ag1097
ag1099
ag1101
ag1103
ag1106
ag1108
ag1110
ag1112
ag1115
ag1117
ag1119
ag1121
ag1124
ag1126
ag1128
ag1130
ag1133
ag1135
ag1137
ag1139
ag1142
ag1144
ag1146
ag1148
ag1151
ag1153
ag1155
ag1157
ag1160
ag1162
ag1164
ag1166
ag1169
ag1171
ag1173
ag1175
ag1178
ag1180
ag1182
ag1184
ag1187
ag1189
ag1191
asS'featureMap'
p3585
(lp3586
(lp3587
I0
aI0
ag5
ag6
ag9
ag11
ag13
aa(lp3588
I23
aI29
ag15
ag16
ag18
ag20
ag22
aa(lp3589
I39
aI47
ag24
ag25
ag27
ag29
ag31
aa(lp3590
I50
aI57
ag33
ag34
ag36
ag38
ag40
aa(lp3591
I81
aI88
ag42
ag43
ag45
ag47
ag49
aa(lp3592
I90
aI96
ag51
ag52
ag54
ag56
ag58
aa(lp3593
I100
aI103
ag60
ag61
ag63
ag65
ag67
aa(lp3594
I105
aI110
ag69
ag70
ag72
ag74
ag76
aa(lp3595
I112
aI121
ag78
ag79
ag81
ag83
ag85
aa(lp3596
I128
aI133
ag87
ag88
ag90
ag92
ag94
aa(lp3597
I136
aI147
ag96
ag97
ag99
ag101
ag103
aa(lp3598
I150
aI159
ag105
ag106
ag108
ag110
ag112
aa(lp3599
I162
aI164
ag114
ag115
ag117
ag119
ag121
aa(lp3600
I167
aI171
ag123
ag124
ag126
ag128
ag130
aa(lp3601
I173
aI185
ag132
ag133
ag135
ag137
ag139
aa(lp3602
I191
aI196
ag141
ag142
ag144
ag146
ag148
aa(lp3603
I200
aI203
ag150
ag151
ag153
ag155
ag157
aa(lp3604
I205
aI209
ag159
ag160
ag162
ag164
ag166
aa(lp3605
I214
aI220
ag168
ag169
ag171
ag173
ag175
aa(lp3606
I235
aI240
ag177
ag178
ag180
ag182
ag184
aa(lp3607
I243
aI247
ag186
ag187
ag189
ag191
ag193
aa(lp3608
I249
aI255
ag195
ag196
ag198
ag200
ag202
aa(lp3609
I264
aI267
ag204
ag205
ag207
ag209
ag211
aa(lp3610
I272
aI279
ag213
ag214
ag216
ag218
ag220
aa(lp3611
I281
aI291
ag222
ag223
ag225
ag227
ag229
aa(lp3612
I293
aI297
ag231
ag232
ag234
ag236
ag238
aa(lp3613
I307
aI315
ag240
ag241
ag243
ag245
ag247
aa(lp3614
I317
aI322
ag249
ag250
ag252
ag254
ag256
aa(lp3615
I324
aI325
ag258
ag259
ag261
ag263
ag265
aa(lp3616
I327
aI333
ag267
ag268
ag270
ag272
ag274
aa(lp3617
I335
aI339
ag276
ag277
ag279
ag281
ag283
aa(lp3618
I341
aI348
ag285
ag286
ag288
ag290
ag292
aa(lp3619
I350
aI356
ag294
ag295
ag297
ag299
ag301
aa(lp3620
I361
aI366
ag303
ag304
ag306
ag308
ag310
aa(lp3621
I368
aI376
ag312
ag313
ag315
ag317
ag319
aa(lp3622
I378
aI386
ag321
ag322
ag324
ag326
ag328
aa(lp3623
I388
aI395
ag330
ag331
ag333
ag335
ag337
aa(lp3624
I401
aI409
ag339
ag340
ag342
ag344
ag346
aa(lp3625
I415
aI418
ag348
ag349
ag351
ag353
ag355
aa(lp3626
I423
aI425
ag357
ag358
ag360
ag362
ag364
aa(lp3627
I431
aI438
ag366
ag367
ag369
ag371
ag373
aa(lp3628
I440
aI444
ag375
ag376
ag378
ag380
ag382
aa(lp3629
I446
aI458
ag384
ag385
ag387
ag389
ag391
aa(lp3630
I468
aI475
ag393
ag394
ag396
ag398
ag400
aa(lp3631
I481
aI488
ag402
ag403
ag405
ag407
ag409
aa(lp3632
I494
aI499
ag411
ag412
ag414
ag416
ag418
aa(lp3633
I503
aI506
ag420
ag421
ag423
ag425
ag427
aa(lp3634
I508
aI512
ag429
ag430
ag432
ag434
ag436
aa(lp3635
I517
aI524
ag438
ag439
ag441
ag443
ag445
aa(lp3636
I541
aI544
ag447
ag448
ag450
ag452
ag454
aa(lp3637
I553
aI561
ag456
ag457
ag459
ag461
ag463
aa(lp3638
I567
aI570
ag465
ag466
ag468
ag470
ag472
aa(lp3639
I575
aI579
ag474
ag475
ag477
ag479
ag481
aa(lp3640
I583
aI586
ag483
ag484
ag486
ag488
ag490
aa(lp3641
I596
aI601
ag492
ag493
ag495
ag497
ag499
aa(lp3642
I607
aI619
ag501
ag502
ag504
ag506
ag508
aa(lp3643
I627
aI632
ag510
ag511
ag513
ag515
ag517
aa(lp3644
I634
aI640
ag519
ag520
ag522
ag524
ag526
aa(lp3645
I649
aI656
ag528
ag529
ag531
ag533
ag535
aa(lp3646
I661
aI664
ag537
ag538
ag540
ag542
ag544
aa(lp3647
I666
aI668
ag546
ag547
ag549
ag551
ag553
aa(lp3648
I670
aI675
ag555
ag556
ag558
ag560
ag562
aa(lp3649
I684
aI695
ag564
ag565
ag567
ag569
ag571
aa(lp3650
I700
aI710
ag573
ag574
ag576
ag578
ag580
aa(lp3651
I715
aI727
ag582
ag583
ag585
ag587
ag589
aa(lp3652
I729
aI740
ag591
ag592
ag594
ag596
ag598
aa(lp3653
I746
aI748
ag600
ag601
ag603
ag605
ag607
aa(lp3654
I750
aI755
ag609
ag610
ag612
ag614
ag616
aa(lp3655
I767
aI771
ag618
ag619
ag621
ag623
ag625
aa(lp3656
I773
aI780
ag627
ag628
ag630
ag632
ag634
aa(lp3657
I789
aI797
ag636
ag637
ag639
ag641
ag643
aa(lp3658
I814
aI818
ag645
ag646
ag648
ag650
ag652
aa(lp3659
I823
aI831
ag654
ag655
ag657
ag659
ag661
aa(lp3660
I841
aI846
ag663
ag664
ag666
ag668
ag670
aa(lp3661
I857
aI862
ag672
ag673
ag675
ag677
ag679
aa(lp3662
I866
aI868
ag681
ag682
ag684
ag686
ag688
aa(lp3663
I870
aI878
ag690
ag691
ag693
ag695
ag697
aa(lp3664
I886
aI889
ag699
ag700
ag702
ag704
ag706
aa(lp3665
I891
aI894
ag708
ag709
ag711
ag713
ag715
aa(lp3666
I899
aI903
ag717
ag718
ag720
ag722
ag724
aa(lp3667
I910
aI916
ag726
ag727
ag729
ag731
ag733
aa(lp3668
I927
aI935
ag735
ag736
ag738
ag740
ag742
aa(lp3669
I942
aI949
ag744
ag745
ag747
ag749
ag751
aa(lp3670
I955
aI958
ag753
ag754
ag756
ag758
ag760
aa(lp3671
I973
aI983
ag762
ag763
ag765
ag767
ag769
aa(lp3672
I991
aI994
ag771
ag772
ag774
ag776
ag778
aa(lp3673
I999
aI1007
ag780
ag781
ag783
ag785
ag787
aa(lp3674
I1019
aI1023
ag789
ag790
ag792
ag794
ag796
aa(lp3675
I1032
aI1040
ag798
ag799
ag801
ag803
ag805
aa(lp3676
I1054
aI1057
ag807
ag808
ag810
ag812
ag814
aa(lp3677
I1062
aI1065
ag816
ag817
ag819
ag821
ag823
aa(lp3678
I1076
aI1082
ag825
ag826
ag828
ag830
ag832
aa(lp3679
I1090
aI1093
ag834
ag835
ag837
ag839
ag841
aa(lp3680
I1098
aI1100
ag843
ag844
ag846
ag848
ag850
aa(lp3681
I1109
aI1112
ag852
ag853
ag855
ag857
ag859
aa(lp3682
I1117
aI1120
ag861
ag862
ag864
ag866
ag868
aa(lp3683
I1122
aI1125
ag870
ag871
ag873
ag875
ag877
aa(lp3684
I1127
aI1131
ag879
ag880
ag882
ag884
ag886
aa(lp3685
I1148
aI1161
ag888
ag889
ag891
ag893
ag895
aa(lp3686
I1186
aI1189
ag897
ag898
ag900
ag902
ag904
aa(lp3687
I1195
aI1204
ag906
ag907
ag909
ag911
ag913
aa(lp3688
I1214
aI1218
ag915
ag916
ag918
ag920
ag922
aa(lp3689
I1234
aI1237
ag924
ag925
ag927
ag929
ag931
aa(lp3690
I1239
aI1248
ag933
ag934
ag936
ag938
ag940
aa(lp3691
I1261
aI1263
ag942
ag943
ag945
ag947
ag949
aa(lp3692
I1265
aI1267
ag951
ag952
ag954
ag956
ag958
aa(lp3693
I1283
aI1287
ag960
ag961
ag963
ag965
ag967
aa(lp3694
I1289
aI1296
ag969
ag970
ag972
ag974
ag976
aa(lp3695
I1312
aI1316
ag978
ag979
ag981
ag983
ag985
aa(lp3696
I1318
aI1325
ag987
ag988
ag990
ag992
ag994
aa(lp3697
I1348
aI1352
ag996
ag997
ag999
ag1001
ag1003
aa(lp3698
I1358
aI1363
ag1005
ag1006
ag1008
ag1010
ag1012
aa(lp3699
I1389
aI1393
ag1014
ag1015
ag1017
ag1019
ag1021
aa(lp3700
I1398
aI1403
ag1023
ag1024
ag1026
ag1028
ag1030
aa(lp3701
I1413
aI1417
ag1032
ag1033
ag1035
ag1037
ag1039
aa(lp3702
I1419
aI1424
ag1041
ag1042
ag1044
ag1046
ag1048
aa(lp3703
I1435
aI1437
ag1050
ag1051
ag1053
ag1055
ag1057
aa(lp3704
I1445
aI1449
ag1059
ag1060
ag1062
ag1064
ag1066
aa(lp3705
I1456
aI1461
ag1068
ag1069
ag1071
ag1073
ag1075
aa(lp3706
I1483
aI1491
ag1077
ag1078
ag1080
ag1082
ag1084
aa(lp3707
I1494
aI1496
ag1086
ag1087
ag1089
ag1091
ag1093
aa(lp3708
I1498
aI1504
ag1095
ag1096
ag1098
ag1100
ag1102
aa(lp3709
I1508
aI1512
ag1104
ag1105
ag1107
ag1109
ag1111
aa(lp3710
I1518
aI1523
ag1113
ag1114
ag1116
ag1118
ag1120
aa(lp3711
I1525
aI1526
ag1122
ag1123
ag1125
ag1127
ag1129
aa(lp3712
I1528
aI1532
ag1131
ag1132
ag1134
ag1136
ag1138
aa(lp3713
I1544
aI1555
ag1140
ag1141
ag1143
ag1145
ag1147
aa(lp3714
I1557
aI1563
ag1149
ag1150
ag1152
ag1154
ag1156
aa(lp3715
I1569
aI1572
ag1158
ag1159
ag1161
ag1163
ag1165
aa(lp3716
I1574
aI1578
ag1167
ag1168
ag1170
ag1172
ag1174
aa(lp3717
I1593
aI1599
ag1176
ag1177
ag1179
ag1181
ag1183
aa(lp3718
I1629
aI1637
ag1185
ag1186
ag1188
ag1190
ag1192
aasS'characterMap'
p3719
(lp3720
g1197
a(lp3721
I1
aS'.'
p3722
aag3261
ag1201
ag1203
ag1205
ag1207
ag3263
ag1212
ag1214
ag1215
ag1217
ag1219
ag1221
ag3264
ag1226
ag3265
ag1230
ag1231
ag3266
ag1235
ag1236
ag3267
ag1239
ag1241
ag1243
ag1245
ag1246
ag1247
ag1248
ag3268
ag1252
ag1254
ag1255
ag3269
ag1259
ag1260
ag1261
ag3270
ag1264
ag1265
ag1267
ag1268
ag1269
ag1270
ag1272
ag1273
ag1274
a(lp3723
I48
aS'?'
p3724
aag3271
ag1277
ag1278
ag1279
ag1280
ag1281
ag1282
ag1283
ag1285
ag3272
ag1289
ag1290
ag1291
ag3273
ag1295
ag1297
ag1298
ag3274
ag1302
ag1303
ag1304
ag3275
ag1308
ag1309
ag1311
ag1312
ag1313
ag3276
ag1317
ag1318
ag1319
ag3277
ag1322
ag1323
ag1325
ag1326
ag1327
ag1328
ag1329
ag1330
ag3278
ag1333
ag1334
ag1335
ag1336
ag1337
ag1338
ag1339
ag3279
ag1342
ag3280
ag1345
ag1346
ag1347
ag1348
ag3281
ag1351
ag1352
ag1353
ag1354
ag1355
ag1356
ag3282
ag1359
ag1360
ag1361
ag1362
ag1363
ag1364
ag1365
ag1366
ag1367
ag1368
ag3283
ag1373
ag1374
ag1375
ag1376
ag3284
ag1379
ag1380
ag1381
ag1382
ag1383
ag1384
a(lp3725
I134
aS','
p3726
aag3285
ag1387
ag1388
ag1389
ag1390
ag1391
ag1392
ag1393
ag1394
ag1395
ag1396
ag1397
ag1398
a(lp3727
I148
ag3726
aag3286
ag1401
ag1402
ag1403
ag1404
ag1405
ag1406
ag1407
ag1408
ag1409
ag1410
a(lp3728
I160
ag3726
aag3287
ag1413
ag1414
ag1415
a(lp3729
I165
ag3722
aag3288
ag1418
ag1419
ag1420
ag1421
ag1422
ag3289
ag1425
ag1426
ag1427
ag1428
ag1429
ag1430
ag1431
ag1432
ag1433
ag1434
ag1435
ag1436
ag1437
ag3290
ag1441
ag1442
ag1443
ag3291
ag1446
ag1447
ag1448
ag1449
ag1450
ag1451
ag3292
ag1454
ag3293
ag1457
ag1458
ag1459
ag1460
ag3294
ag1463
ag1464
ag1465
ag1466
ag1467
ag3295
ag1471
ag1472
ag3296
ag1475
ag1476
ag1477
ag1478
ag1479
ag1480
ag1481
ag3297
ag1485
ag1486
ag3298
ag1490
ag1491
ag1492
ag3299
ag1496
ag1497
ag1498
ag3300
ag1501
ag3301
ag1504
ag1505
ag1506
ag1507
ag1509
ag1510
a(lp3730
I241
ag3726
aag3302
ag1513
ag1514
ag1515
ag1516
ag1517
ag3303
ag1520
ag1521
ag1522
ag1523
ag1524
ag1525
ag1526
ag3304
ag1530
ag1531
ag1532
ag3305
ag1536
ag1537
ag3306
ag1540
ag1541
ag1542
ag1543
ag3307
ag1547
ag1548
ag3308
ag1551
ag1552
ag1553
ag1554
ag1555
ag1556
ag1557
ag1558
ag3309
ag1561
ag1562
ag1563
ag1564
ag1565
ag1566
ag1567
ag1568
ag1569
ag1570
ag1571
ag3310
ag1574
ag1575
ag1576
ag1577
ag1578
ag3311
ag1582
ag1583
ag3312
ag1587
ag1588
ag1589
ag1590
ag3313
ag1593
ag1594
ag1595
ag1596
ag1597
ag1598
ag1599
ag1600
ag1601
ag3314
ag1604
ag1605
ag1606
ag1607
ag1608
ag1609
ag3315
ag1612
ag1614
ag3316
ag1618
ag1619
ag1620
ag1621
ag1622
ag1623
ag1624
ag3317
ag1627
ag1628
ag1629
ag1630
ag1631
ag3318
ag1634
ag1635
ag1636
ag1637
ag1638
ag1639
ag1640
ag1641
ag3319
ag1644
ag1645
ag1646
ag1647
ag1648
ag1649
ag1650
ag3320
ag1654
ag1655
ag3321
ag1658
ag1659
ag1660
ag1661
ag1662
ag1663
ag3322
ag1666
ag1667
ag1668
ag1669
ag1670
ag1671
ag1672
ag1673
ag1674
ag3323
ag1677
ag1678
ag1679
ag1680
ag1681
ag1682
ag1683
ag1684
ag1685
ag3324
ag1688
ag1689
ag1690
ag1691
ag1692
ag1693
ag1694
ag1695
ag3325
ag1699
ag1700
ag1701
ag3326
ag1704
ag1705
ag1706
ag1707
ag1708
ag1709
ag1710
ag1711
ag1712
ag3327
ag1716
ag1717
ag1718
ag3328
ag1721
ag1722
ag1723
ag1724
ag3329
ag1728
ag1729
ag3330
ag1732
ag1733
ag1734
ag3331
ag1738
ag1739
ag1740
ag3332
ag1743
ag1744
ag1745
ag1746
ag1747
ag1748
ag1749
ag1750
ag3333
ag1753
ag1754
ag1755
ag1756
ag1757
ag3334
ag1760
ag1761
ag1762
ag1763
ag1764
ag1765
ag1766
ag1767
ag1768
ag1769
ag1770
ag1771
ag1772
ag3335
ag1776
ag1777
ag1778
ag3336
ag1782
ag1783
ag1784
ag3337
ag1787
ag1788
ag1789
ag1790
ag1791
ag1792
ag1793
ag1794
ag3338
ag1798
ag1799
ag1800
ag3339
ag1803
ag1804
ag1805
ag1806
ag1807
ag1808
ag1809
ag1810
ag3340
ag1814
ag1815
ag1816
ag3341
ag1819
ag1820
ag1821
ag1822
ag1823
ag1824
ag3342
ag1827
ag3343
ag1830
ag1831
ag1832
ag1833
ag3344
ag1836
ag1837
ag1838
ag1839
ag1840
ag3345
ag1844
ag1845
ag3346
ag1848
ag1849
ag1850
ag1851
ag1852
ag1853
ag1854
ag1855
a(lp3731
I525
ag3722
aag3347
ag1859
ag1860
ag1861
ag1862
ag3348
ag1866
ag1867
ag1868
ag1869
ag1870
ag1871
ag3349
ag1874
ag3350
ag1877
ag1878
ag1879
ag1880
ag3351
ag1884
ag1885
ag3352
ag1889
ag1890
ag1891
ag3353
ag1894
ag1895
ag1896
ag1897
ag1898
ag1899
ag1900
ag1901
ag1902
a(lp3732
I562
ag3724
aag3354
ag1906
ag1907
ag3355
ag1910
ag1911
ag1912
ag1913
ag3356
ag1917
ag1918
ag3357
ag1921
ag1922
ag1923
ag1924
ag1925
ag3358
ag1928
ag3359
ag1931
ag1932
ag1933
ag1934
ag3360
ag1938
ag1939
ag3361
ag1943
ag1944
ag1945
ag1946
ag3362
ag1949
ag1950
ag1951
ag1952
ag1953
ag1954
ag3363
ag1958
ag1959
ag1960
ag3364
ag1963
ag1964
ag1965
ag1966
ag1967
ag1968
ag1969
ag1970
ag1971
ag1972
a(lp3733
I617
ag3722
aa(lp3734
I618
aS'\xc2'
p3735
aag1973
ag3365
ag1978
ag1979
ag3366
ag1983
ag1984
ag3367
ag1987
ag1988
ag1989
ag1990
ag1991
ag1992
ag3368
ag1995
ag1996
ag1997
ag1998
ag1999
ag2000
ag2001
ag3369
ag2005
ag2006
ag3370
ag2010
ag2011
ag2012
ag3371
ag2015
ag2016
ag2017
ag2018
ag2019
ag2020
ag2021
ag2022
ag3372
ag2026
ag2027
ag3373
ag2030
ag2031
ag2032
ag2033
ag3374
ag2036
ag2037
ag2038
ag3375
ag2041
ag2042
ag2043
ag2044
ag2045
ag2046
ag3376
ag2050
ag2051
ag3377
ag2055
ag2056
ag2057
ag3378
ag2060
ag2061
ag2062
ag2063
ag2064
ag2065
ag2066
ag2067
ag2068
ag2069
ag2070
ag2071
ag3379
ag2075
ag2076
ag3380
ag2079
ag2080
ag2081
ag2082
ag2083
ag2084
ag2085
ag2086
ag2087
ag2088
ag2089
ag3381
ag2093
ag2094
ag3382
ag2097
ag2098
ag2099
ag2100
ag2101
ag2102
ag2103
ag2104
ag2105
ag2106
ag2107
ag2108
ag2109
ag3383
ag2112
ag2113
ag2114
ag2115
ag2116
ag2117
ag2118
ag2119
ag2120
ag2121
ag2122
ag2123
ag3384
ag2127
ag2128
ag2129
ag3385
ag2132
ag2133
ag2134
ag3386
ag2137
ag2138
ag2139
ag2140
a(lp3736
I754
ag3722
aag2141
a(lp3737
I756
ag3722
aag3387
ag2145
ag2146
ag2147
ag2148
ag2149
ag2150
ag3388
ag2153
ag3389
ag2156
ag2157
ag2158
ag2159
ag2160
ag3390
ag2163
ag2164
ag2165
ag2166
ag2167
ag2168
ag2169
ag2170
ag3391
ag2174
ag2175
ag3392
ag2179
ag2180
ag2181
ag3393
ag2184
ag2185
ag2186
ag2187
ag2188
ag2189
ag2190
ag2191
ag2192
a(lp3738
I798
ag3724
aag3394
ag2196
ag2197
ag2198
ag2199
ag2200
ag3395
ag2204
ag2205
ag2206
ag3396
ag2210
ag2211
ag2212
ag3397
ag2215
ag2216
ag2217
ag2218
ag2219
ag3398
ag2223
ag2224
ag3399
ag2227
ag2228
ag2229
ag2230
ag2231
ag2232
ag2233
ag2234
ag2235
ag3400
ag2239
ag2240
ag2241
ag3401
ag2245
ag2246
ag2247
ag3402
ag2250
ag2251
ag2253
ag2254
ag2255
ag2256
ag3403
ag2260
ag2261
ag2262
ag2263
ag3404
ag2267
ag2268
ag2269
ag3405
ag2272
ag2273
ag2274
ag2275
ag2276
ag2277
ag3406
ag2280
ag3407
ag2283
ag2285
ag2286
ag3408
ag2289
ag2290
ag2291
ag2292
ag2293
ag2294
ag2295
ag2296
ag2297
a(lp3739
I879
ag3722
aag3409
ag2301
ag2302
ag3410
ag2305
ag3411
ag2308
ag2309
ag2310
ag2311
ag3412
ag2314
ag2315
ag2316
ag2317
ag3413
ag2321
ag2322
ag3414
ag2325
ag2326
ag2327
ag2328
ag2329
ag3415
ag2333
ag2334
ag2335
ag2336
ag3416
ag2339
ag2340
ag2341
ag2342
ag2343
ag2344
ag2345
ag3417
ag2349
ag2350
ag3418
ag2354
ag2355
ag2356
ag2357
ag2358
ag3419
ag2361
ag2362
ag2363
ag2364
ag2365
ag2366
ag2367
ag2368
ag2369
a(lp3740
I936
ag3726
aag3420
ag2373
ag2374
ag2375
ag3421
ag2378
ag2379
ag2380
ag2381
ag2382
ag2383
ag2384
ag2385
ag3422
ag2389
ag2390
ag2391
ag3423
ag2394
ag2395
ag2396
ag2397
a(lp3741
I959
ag3726
aag3424
ag2401
ag2402
ag2403
ag2404
ag2405
ag2406
ag3425
ag2410
ag2411
ag2412
ag2413
ag3426
ag2416
ag2417
ag2418
ag2419
ag2420
ag2421
ag2422
ag2423
ag2424
a(lp3742
I982
ag3722
aag2425
a(lp3743
I984
ag3722
aag3427
ag2429
ag2430
ag2431
ag2432
ag3428
ag2435
ag2436
ag2437
ag2438
ag3429
ag2442
ag2443
ag3430
ag2446
ag2447
ag2448
ag2449
ag2450
ag2451
ag2452
ag2453
ag2454
ag3431
ag2458
ag2459
ag2460
ag2461
ag3432
ag2464
ag3433
ag2468
ag2469
ag3434
ag2472
ag2473
ag2474
ag2475
ag2476
ag3435
ag2480
ag2481
ag3436
ag2485
ag2486
ag2487
ag3437
ag2490
ag2491
ag2492
ag2493
ag2494
ag2495
ag2496
ag2497
ag2498
a(lp3744
I1041
ag3724
aag3438
ag2502
ag2503
ag2504
ag3439
ag2508
ag2509
ag3440
ag2513
ag2514
ag2515
ag3441
ag2518
ag2519
ag2520
ag2521
ag3442
ag2525
ag2526
ag3443
ag2529
ag2530
ag2531
ag2532
ag3444
ag2536
ag2537
ag2538
ag3445
ag2542
ag2543
ag2544
ag2545
ag3446
ag2548
ag2549
ag2550
ag2551
ag2552
ag2553
ag2554
a(lp3745
I1083
ag3724
aag3447
ag2558
ag2559
ag2560
ag2561
ag3448
ag2564
ag2565
ag2566
ag2567
ag3449
ag2571
ag2572
ag3450
ag2575
ag2576
ag2577
ag3451
ag2581
ag2582
ag3452
ag2586
ag2587
ag2588
ag3453
ag2591
ag2592
ag2593
ag2594
ag3454
ag2598
ag2599
ag3455
ag2602
ag2603
ag2604
ag2605
ag3456
ag2608
ag2609
ag2610
ag2611
ag3457
ag2614
ag2615
ag2616
ag2617
ag2618
ag3458
ag2622
ag2623
ag2624
ag2625
ag3459
ag2629
ag2630
ag2631
a(lp3746
I1141
ag3724
aag3460
ag2635
ag2636
ag2637
ag2638
ag3461
ag2641
ag2642
ag2643
ag2644
ag2645
ag2646
ag2647
ag2648
ag2649
ag2650
ag2651
ag2652
ag2653
ag2654
ag3462
ag2658
ag2659
ag3463
ag2663
ag2664
ag2665
ag3464
ag2669
ag2670
ag2671
ag2672
ag3465
ag2676
ag2677
ag2678
ag2679
ag2680
ag3466
ag2684
ag2685
ag2686
ag2687
ag3467
ag2690
ag2691
ag2692
ag2693
ag3468
ag2697
ag2698
ag2699
ag3469
ag2702
ag2703
ag2704
ag2705
ag2706
ag2707
ag2708
ag2709
ag2710
ag2711
ag3470
ag2715
ag2716
ag3471
ag2720
ag2721
ag2722
ag2723
ag3472
ag2726
ag2727
ag2728
ag2729
ag2730
a(lp3747
I1219
ag3724
aag3473
ag2734
ag2735
ag2736
ag2737
ag3474
ag2741
ag2742
ag2743
ag3475
ag2747
ag2748
ag2749
ag3476
ag2752
ag2753
ag2754
ag2755
ag3477
ag2758
ag2759
ag2760
ag2761
a(lp3748
I1243
aS'/'
p3749
aag2762
ag2763
ag2764
ag2765
ag2766
ag3478
ag2770
ag2771
ag2772
ag2773
ag2774
ag3479
ag2778
ag2779
ag2780
ag2781
ag3480
ag2784
ag2785
ag2786
ag3481
ag2789
ag2790
ag2791
a(lp3750
I1268
ag3724
aag3482
ag2795
ag2796
ag2797
ag2798
ag3483
ag2802
ag2803
ag3484
ag2807
ag2808
ag2809
ag2810
ag3485
ag2813
ag2814
ag2815
ag2816
ag2817
ag3486
ag2820
ag2821
ag2822
ag2823
ag2824
ag2825
ag2826
ag2827
a(lp3751
I1297
ag3724
aag3487
ag2831
ag2832
ag2833
ag2834
ag3488
ag2838
ag2839
ag3489
ag2843
ag2844
ag2845
ag2846
ag3490
ag2849
ag2850
ag2851
ag2852
ag2853
ag3491
ag2856
ag2857
ag2858
ag2859
ag2860
ag2861
ag2862
ag2863
a(lp3752
I1326
ag3724
aag3492
ag2867
ag2868
ag3493
ag2872
ag2873
ag2874
ag3494
ag2878
ag2879
ag2880
ag2881
ag3495
ag2885
ag2886
a(lp3753
I1342
ag3726
aag3496
ag2890
ag2891
ag2892
ag3497
ag2895
ag2896
ag2897
ag2898
ag2899
ag3498
ag2903
ag2904
ag2905
ag3499
ag2908
ag2909
ag2910
ag2911
ag2912
ag2913
ag3500
ag2917
ag2918
ag2919
ag2920
ag2921
ag2922
ag2923
ag2924
a(lp3754
I1373
ag3724
aag3501
ag2928
ag2929
ag2930
ag2931
ag3502
ag2935
ag2936
ag2937
ag3503
ag2941
ag2942
ag2943
ag2944
ag3504
ag2947
ag2948
ag2949
ag2950
ag2951
ag3505
ag2955
ag2956
ag3506
ag2959
ag2960
ag2961
ag2962
ag2963
ag2964
a(lp3755
I1404
ag3724
aag3507
ag2968
ag2969
ag3508
ag2973
ag2974
ag2975
ag3509
ag2978
ag2979
ag2980
ag2981
ag2982
ag3510
ag2985
ag2986
ag2987
ag2988
ag2989
ag2990
ag3511
ag2994
ag2995
ag2996
ag2997
ag3512
ag3001
ag3002
ag3003
ag3513
ag3006
ag3007
ag3008
a(lp3756
I1438
ag3726
aag3514
ag3012
ag3013
ag3014
ag3015
ag3515
ag3018
ag3019
ag3020
ag3021
ag3022
ag3516
ag3026
ag3027
ag3028
ag3029
ag3517
ag3032
ag3033
ag3034
ag3035
ag3036
ag3037
ag3518
ag3041
ag3042
a(lp3757
I1465
ag3724
aag3519
ag3046
ag3047
ag3520
ag3051
ag3052
ag3053
ag3521
ag3057
ag3058
ag3059
ag3060
ag3522
ag3064
ag3065
ag3066
ag3523
ag3069
ag3070
ag3071
ag3072
ag3073
ag3074
ag3075
ag3076
ag3077
a(lp3758
I1492
ag3724
aag3524
ag3080
ag3081
ag3082
ag3525
ag3085
ag3086
ag3087
ag3088
ag3089
ag3090
ag3091
ag3526
ag3094
ag3527
ag3097
ag3098
ag3099
ag3100
ag3101
ag3528
ag3105
ag3106
ag3107
ag3529
ag3110
ag3111
ag3112
ag3113
ag3114
ag3115
ag3530
ag3118
ag3120
ag3531
ag3124
ag3125
ag3126
ag3127
ag3128
ag3532
ag3132
ag3133
ag3134
ag3135
ag3136
ag3533
ag3140
ag3141
ag3142
ag3534
ag3145
ag3146
ag3147
ag3148
ag3149
ag3150
ag3151
ag3152
ag3153
a(lp3759
I1553
ag3722
aa(lp3760
I1554
ag3735
aag3154
ag3535
ag3157
ag3158
ag3159
ag3160
ag3161
ag3162
ag3163
ag3536
ag3167
ag3168
ag3169
ag3537
ag3172
ag3173
ag3174
ag3175
ag3538
ag3178
ag3179
ag3180
ag3181
ag3182
ag3539
ag3186
ag3187
ag3188
ag3540
ag3192
ag3193
ag3194
ag3195
ag3541
ag3199
ag3200
ag3201
ag3542
ag3204
ag3205
ag3206
ag3207
ag3208
a(lp3761
I1598
aS'!'
p3762
aag3209
a(lp3763
I1600
ag3722
aag3543
ag3213
ag3214
ag3215
ag3216
ag3544
ag3220
ag3221
ag3222
ag3223
ag3224
ag3225
ag3545
ag3228
ag3546
ag3232
ag3233
ag3547
ag3237
ag3238
ag3239
ag3240
ag3241
ag3548
ag3245
ag3246
ag3247
ag3549
ag3250
ag3251
ag3252
ag3253
ag3254
ag3255
ag3256
ag3257
ag3258
a(lp3764
I1638
ag3724
aag3550
a(lp3765
I1640
ag3735
aag3551
asS'docName'
p3766
S'source-document02868.txt'
p3767
sb.