(iModel.Document
Document
p0
(dp1
S'fmap'
p2
(lp3
(lp4
I1
aI1
aS'\xa0'
p5
a(lp6
S'*'
p7
ag5
aaa(lp8
I1
aI1
ag5
a(lp9
g7
ag5
aaa(lp10
I1
aI1
ag5
a(lp11
g7
ag5
aaa(lp12
I1
aI1
ag5
a(lp13
g7
ag5
aaa(lp14
I8
aI14
aS'bowflex'
p15
a(lp16
g5
ag15
aaa(lp17
I8
aI14
ag15
a(lp18
g7
ag15
aaa(lp19
I8
aI14
ag15
a(lp20
g7
ag15
aaa(lp21
I8
aI14
ag15
a(lp22
g7
ag15
aaa(lp23
I16
aI20
aS'story'
p24
a(lp25
g15
ag24
aaa(lp26
I16
aI20
ag24
a(lp27
g5
ag24
aaa(lp28
I16
aI20
ag24
a(lp29
g7
ag24
aaa(lp30
I16
aI20
ag24
a(lp31
g7
ag24
aaa(lp32
I35
aI41
aS'bowflex'
p33
a(lp34
g24
ag33
aaa(lp35
I35
aI41
ag33
a(lp36
g15
ag33
aaa(lp37
I35
aI41
ag33
a(lp38
g5
ag33
aaa(lp39
I35
aI41
ag33
a(lp40
g7
ag33
aaa(lp41
I43
aI46
aS'home'
p42
a(lp43
g33
ag42
aaa(lp44
I43
aI46
ag42
a(lp45
g24
ag42
aaa(lp46
I43
aI46
ag42
a(lp47
g15
ag42
aaa(lp48
I43
aI46
ag42
a(lp49
g5
ag42
aaa(lp50
I48
aI50
aS'gym'
p51
a(lp52
g42
ag51
aaa(lp53
I48
aI50
ag51
a(lp54
g33
ag51
aaa(lp55
I48
aI50
ag51
a(lp56
g24
ag51
aaa(lp57
I48
aI50
ag51
a(lp58
g15
ag51
aaa(lp59
I53
aI60
aS'visitors'
p60
a(lp61
g51
ag60
aaa(lp62
I53
aI60
ag60
a(lp63
g42
ag60
aaa(lp64
I53
aI60
ag60
a(lp65
g33
ag60
aaa(lp66
I53
aI60
ag60
a(lp67
g24
ag60
aaa(lp68
I70
aI76
aS'website'
p69
a(lp70
g60
ag69
aaa(lp71
I70
aI76
ag69
a(lp72
g51
ag69
aaa(lp73
I70
aI76
ag69
a(lp74
g42
ag69
aaa(lp75
I70
aI76
ag69
a(lp76
g33
ag69
aaa(lp77
I78
aI82
aS'would'
p78
a(lp79
g69
ag78
aaa(lp80
I78
aI82
ag78
a(lp81
g60
ag78
aaa(lp82
I78
aI82
ag78
a(lp83
g51
ag78
aaa(lp84
I78
aI82
ag78
a(lp85
g42
ag78
aaa(lp86
I84
aI87
aS'love'
p87
a(lp88
g78
ag87
aaa(lp89
I84
aI87
ag87
a(lp90
g69
ag87
aaa(lp91
I84
aI87
ag87
a(lp92
g60
ag87
aaa(lp93
I84
aI87
ag87
a(lp94
g51
ag87
aaa(lp95
I92
aI95
aS'know'
p96
a(lp97
g87
ag96
aaa(lp98
I92
aI95
ag96
a(lp99
g78
ag96
aaa(lp100
I92
aI95
ag96
a(lp101
g69
ag96
aaa(lp102
I92
aI95
ag96
a(lp103
g60
ag96
aaa(lp104
I107
aI117
aS'experiences'
p105
a(lp106
g96
ag105
aaa(lp107
I107
aI117
ag105
a(lp108
g87
ag105
aaa(lp109
I107
aI117
ag105
a(lp110
g78
ag105
aaa(lp111
I107
aI117
ag105
a(lp112
g69
ag105
aaa(lp113
I130
aI136
aS'sharing'
p114
a(lp115
g105
ag114
aaa(lp116
I130
aI136
ag114
a(lp117
g96
ag114
aaa(lp118
I130
aI136
ag114
a(lp119
g87
ag114
aaa(lp120
I130
aI136
ag114
a(lp121
g78
ag114
aaa(lp122
I143
aI147
aS'story'
p123
a(lp124
g114
ag123
aaa(lp125
I143
aI147
ag123
a(lp126
g105
ag123
aaa(lp127
I143
aI147
ag123
a(lp128
g96
ag123
aaa(lp129
I143
aI147
ag123
a(lp130
g87
ag123
aaa(lp131
I152
aI155
aS'easy'
p132
a(lp133
g123
ag132
aaa(lp134
I152
aI155
ag132
a(lp135
g114
ag132
aaa(lp136
I152
aI155
ag132
a(lp137
g105
ag132
aaa(lp138
I152
aI155
ag132
a(lp139
g96
ag132
aaa(lp140
I169
aI172
aS'type'
p141
a(lp142
g132
ag141
aaa(lp143
I169
aI172
ag141
a(lp144
g123
ag141
aaa(lp145
I169
aI172
ag141
a(lp146
g114
ag141
aaa(lp147
I169
aI172
ag141
a(lp148
g105
ag141
aaa(lp149
I183
aI187
aS'story'
p150
a(lp151
g141
ag150
aaa(lp152
I183
aI187
ag150
a(lp153
g132
ag150
aaa(lp154
I183
aI187
ag150
a(lp155
g123
ag150
aaa(lp156
I183
aI187
ag150
a(lp157
g114
ag150
aaa(lp158
I194
aI199
aS'appear'
p159
a(lp160
g150
ag159
aaa(lp161
I194
aI199
ag159
a(lp162
g141
ag159
aaa(lp163
I194
aI199
ag159
a(lp164
g132
ag159
aaa(lp165
I194
aI199
ag159
a(lp166
g123
ag159
aaa(lp167
I206
aI208
aS'web'
p168
a(lp169
g159
ag168
aaa(lp170
I206
aI208
ag168
a(lp171
g150
ag168
aaa(lp172
I206
aI208
ag168
a(lp173
g141
ag168
aaa(lp174
I206
aI208
ag168
a(lp175
g132
ag168
aaa(lp176
I210
aI213
aS'page'
p177
a(lp178
g168
ag177
aaa(lp179
I210
aI213
ag177
a(lp180
g159
ag177
aaa(lp181
I210
aI213
ag177
a(lp182
g150
ag177
aaa(lp183
I210
aI213
ag177
a(lp184
g141
ag177
aaa(lp185
I215
aI221
aS'exactly'
p186
a(lp187
g177
ag186
aaa(lp188
I215
aI221
ag186
a(lp189
g168
ag186
aaa(lp190
I215
aI221
ag186
a(lp191
g159
ag186
aaa(lp192
I215
aI221
ag186
a(lp193
g150
ag186
aaa(lp194
I227
aI229
aS'way'
p195
a(lp196
g186
ag195
aaa(lp197
I227
aI229
ag195
a(lp198
g177
ag195
aaa(lp199
I227
aI229
ag195
a(lp200
g168
ag195
aaa(lp201
I227
aI229
ag195
a(lp202
g159
ag195
aaa(lp203
I235
aI239
aS'enter'
p204
a(lp205
g195
ag204
aaa(lp206
I235
aI239
ag204
a(lp207
g186
ag204
aaa(lp208
I235
aI239
ag204
a(lp209
g177
ag204
aaa(lp210
I235
aI239
ag204
a(lp211
g168
ag204
aaa(lp212
I250
aI254
aS'dont'
p213
a(lp214
g204
ag213
aaa(lp215
I250
aI254
ag213
a(lp216
g195
ag213
aaa(lp217
I250
aI254
ag213
a(lp218
g186
ag213
aaa(lp219
I250
aI254
ag213
a(lp220
g177
ag213
aaa(lp221
I256
aI260
aS'worry'
p222
a(lp223
g213
ag222
aaa(lp224
I256
aI260
ag222
a(lp225
g204
ag222
aaa(lp226
I256
aI260
ag222
a(lp227
g195
ag222
aaa(lp228
I256
aI260
ag222
a(lp229
g186
ag222
aaa(lp230
I263
aI268
aS'youll'
p231
a(lp232
g222
ag231
aaa(lp233
I263
aI268
ag231
a(lp234
g213
ag231
aaa(lp235
I263
aI268
ag231
a(lp236
g204
ag231
aaa(lp237
I263
aI268
ag231
a(lp238
g195
ag231
aaa(lp239
I273
aI276
aS'able'
p240
a(lp241
g231
ag240
aaa(lp242
I273
aI276
ag240
a(lp243
g222
ag240
aaa(lp244
I273
aI276
ag240
a(lp245
g213
ag240
aaa(lp246
I273
aI276
ag240
a(lp247
g204
ag240
aaa(lp248
I281
aI284
aS'edit'
p249
a(lp250
g240
ag249
aaa(lp251
I281
aI284
ag249
a(lp252
g231
ag249
aaa(lp253
I281
aI284
ag249
a(lp254
g222
ag249
aaa(lp255
I281
aI284
ag249
a(lp256
g213
ag249
aaa(lp257
I296
aI299
aS'next'
p258
a(lp259
g249
ag258
aaa(lp260
I296
aI299
ag258
a(lp261
g240
ag258
aaa(lp262
I296
aI299
ag258
a(lp263
g231
ag258
aaa(lp264
I296
aI299
ag258
a(lp265
g222
ag258
aaa(lp266
I301
aI304
aS'page'
p267
a(lp268
g258
ag267
aaa(lp269
I301
aI304
ag267
a(lp270
g249
ag267
aaa(lp271
I301
aI304
ag267
a(lp272
g240
ag267
aaa(lp273
I301
aI304
ag267
a(lp274
g231
ag267
aaa(lp275
I313
aI321
aS'questions'
p276
a(lp277
g267
ag276
aaa(lp278
I313
aI321
ag276
a(lp279
g258
ag276
aaa(lp280
I313
aI321
ag276
a(lp281
g249
ag276
aaa(lp282
I313
aI321
ag276
a(lp283
g240
ag276
aaa(lp284
I323
aI330
aS'visitors'
p285
a(lp286
g276
ag285
aaa(lp287
I323
aI330
ag285
a(lp288
g267
ag285
aaa(lp289
I323
aI330
ag285
a(lp290
g258
ag285
aaa(lp291
I323
aI330
ag285
a(lp292
g249
ag285
aaa(lp293
I332
aI336
aS'would'
p294
a(lp295
g285
ag294
aaa(lp296
I332
aI336
ag294
a(lp297
g276
ag294
aaa(lp298
I332
aI336
ag294
a(lp299
g267
ag294
aaa(lp300
I332
aI336
ag294
a(lp301
g258
ag294
aaa(lp302
I338
aI341
aS'love'
p303
a(lp304
g294
ag303
aaa(lp305
I338
aI341
ag303
a(lp306
g285
ag303
aaa(lp307
I338
aI341
ag303
a(lp308
g276
ag303
aaa(lp309
I338
aI341
ag303
a(lp310
g267
ag303
aaa(lp311
I346
aI348
aS'ask'
p312
a(lp313
g303
ag312
aaa(lp314
I346
aI348
ag312
a(lp315
g294
ag312
aaa(lp316
I346
aI348
ag312
a(lp317
g285
ag312
aaa(lp318
I346
aI348
ag312
a(lp319
g276
ag312
aaa(lp320
I359
aI362
aS'well'
p321
a(lp322
g312
ag321
aaa(lp323
I359
aI362
ag321
a(lp324
g303
ag321
aaa(lp325
I359
aI362
ag321
a(lp326
g294
ag321
aaa(lp327
I359
aI362
ag321
a(lp328
g285
ag321
aaa(lp329
I371
aI374
aS'feel'
p330
a(lp331
g321
ag330
aaa(lp332
I371
aI374
ag330
a(lp333
g312
ag330
aaa(lp334
I371
aI374
ag330
a(lp335
g303
ag330
aaa(lp336
I371
aI374
ag330
a(lp337
g294
ag330
aaa(lp338
I381
aI387
aS'bowflex'
p339
a(lp340
g330
ag339
aaa(lp341
I381
aI387
ag339
a(lp342
g321
ag339
aaa(lp343
I381
aI387
ag339
a(lp344
g312
ag339
aaa(lp345
I381
aI387
ag339
a(lp346
g303
ag339
aaa(lp347
I392
aI395
aS'made'
p348
a(lp349
g339
ag348
aaa(lp350
I392
aI395
ag348
a(lp351
g330
ag348
aaa(lp352
I392
aI395
ag348
a(lp353
g321
ag348
aaa(lp354
I392
aI395
ag348
a(lp355
g312
ag348
aaa(lp356
I407
aI411
aS'found'
p357
a(lp358
g348
ag357
aaa(lp359
I407
aI411
ag357
a(lp360
g339
ag357
aaa(lp361
I407
aI411
ag357
a(lp362
g330
ag357
aaa(lp363
I407
aI411
ag357
a(lp364
g321
ag357
aaa(lp365
I423
aI429
aS'bowflex'
p366
a(lp367
g357
ag366
aaa(lp368
I423
aI429
ag366
a(lp369
g348
ag366
aaa(lp370
I423
aI429
ag366
a(lp371
g339
ag366
aaa(lp372
I423
aI429
ag366
a(lp373
g330
ag366
aaa(lp374
I435
aI440
aS'enough'
p375
a(lp376
g366
ag375
aaa(lp377
I435
aI440
ag375
a(lp378
g357
ag375
aaa(lp379
I435
aI440
ag375
a(lp380
g348
ag375
aaa(lp381
I435
aI440
ag375
a(lp382
g339
ag375
aaa(lp383
I442
aI450
aS'exercises'
p384
a(lp385
g375
ag384
aaa(lp386
I442
aI450
ag384
a(lp387
g366
ag384
aaa(lp388
I442
aI450
ag384
a(lp389
g357
ag384
aaa(lp390
I442
aI450
ag384
a(lp391
g348
ag384
aaa(lp392
I461
aI465
aS'needs'
p393
a(lp394
g384
ag393
aaa(lp395
I461
aI465
ag393
a(lp396
g375
ag393
aaa(lp397
I461
aI465
ag393
a(lp398
g366
ag393
aaa(lp399
I461
aI465
ag393
a(lp400
g357
ag393
aaa(lp401
I477
aI481
aS'found'
p402
a(lp403
g393
ag402
aaa(lp404
I477
aI481
ag402
a(lp405
g384
ag402
aaa(lp406
I477
aI481
ag402
a(lp407
g375
ag402
aaa(lp408
I477
aI481
ag402
a(lp409
g366
ag402
aaa(lp410
I493
aI499
aS'bowflex'
p411
a(lp412
g402
ag411
aaa(lp413
I493
aI499
ag411
a(lp414
g393
ag411
aaa(lp415
I493
aI499
ag411
a(lp416
g384
ag411
aaa(lp417
I493
aI499
ag411
a(lp418
g375
ag411
aaa(lp419
I501
aI505
aS'lives'
p420
a(lp421
g411
ag420
aaa(lp422
I501
aI505
ag420
a(lp423
g402
ag420
aaa(lp424
I501
aI505
ag420
a(lp425
g393
ag420
aaa(lp426
I501
aI505
ag420
a(lp427
g384
ag420
aaa(lp428
I518
aI525
aS'promises'
p429
a(lp430
g420
ag429
aaa(lp431
I518
aI525
ag429
a(lp432
g411
ag429
aaa(lp433
I518
aI525
ag429
a(lp434
g402
ag429
aaa(lp435
I518
aI525
ag429
a(lp436
g393
ag429
aaa(lp437
I537
aI541
aS'found'
p438
a(lp439
g429
ag438
aaa(lp440
I537
aI541
ag438
a(lp441
g420
ag438
aaa(lp442
I537
aI541
ag438
a(lp443
g411
ag438
aaa(lp444
I537
aI541
ag438
a(lp445
g402
ag438
aaa(lp446
I553
aI559
aS'bowflex'
p447
a(lp448
g438
ag447
aaa(lp449
I553
aI559
ag447
a(lp450
g429
ag447
aaa(lp451
I553
aI559
ag447
a(lp452
g420
ag447
aaa(lp453
I553
aI559
ag447
a(lp454
g411
ag447
aaa(lp455
I565
aI570
aS'enough'
p456
a(lp457
g447
ag456
aaa(lp458
I565
aI570
ag456
a(lp459
g438
ag456
aaa(lp460
I565
aI570
ag456
a(lp461
g429
ag456
aaa(lp462
I565
aI570
ag456
a(lp463
g420
ag456
aaa(lp464
I572
aI581
aS'resistance'
p465
a(lp466
g456
ag465
aaa(lp467
I572
aI581
ag465
a(lp468
g447
ag465
aaa(lp469
I572
aI581
ag465
a(lp470
g438
ag465
aaa(lp471
I572
aI581
ag465
a(lp472
g429
ag465
aaa(lp473
I593
aI597
aS'found'
p474
a(lp475
g465
ag474
aaa(lp476
I593
aI597
ag474
a(lp477
g456
ag474
aaa(lp478
I593
aI597
ag474
a(lp479
g447
ag474
aaa(lp480
I593
aI597
ag474
a(lp481
g438
ag474
aaa(lp482
I609
aI615
aS'bowflex'
p483
a(lp484
g474
ag483
aaa(lp485
I609
aI615
ag483
a(lp486
g465
ag483
aaa(lp487
I609
aI615
ag483
a(lp488
g456
ag483
aaa(lp489
I609
aI615
ag483
a(lp490
g447
ag483
aaa(lp491
I620
aI625
aS'better'
p492
a(lp493
g483
ag492
aaa(lp494
I620
aI625
ag492
a(lp495
g474
ag492
aaa(lp496
I620
aI625
ag492
a(lp497
g465
ag492
aaa(lp498
I620
aI625
ag492
a(lp499
g456
ag492
aaa(lp500
I638
aI641
aS'home'
p501
a(lp502
g492
ag501
aaa(lp503
I638
aI641
ag501
a(lp504
g483
ag501
aaa(lp505
I638
aI641
ag501
a(lp506
g474
ag501
aaa(lp507
I638
aI641
ag501
a(lp508
g465
ag501
aaa(lp509
I643
aI646
aS'gyms'
p510
a(lp511
g501
ag510
aaa(lp512
I643
aI646
ag510
a(lp513
g492
ag510
aaa(lp514
I643
aI646
ag510
a(lp515
g483
ag510
aaa(lp516
I643
aI646
ag510
a(lp517
g474
ag510
aaa(lp518
I648
aI653
aS'youve'
p519
a(lp520
g510
ag519
aaa(lp521
I648
aI653
ag519
a(lp522
g501
ag519
aaa(lp523
I648
aI653
ag519
a(lp524
g492
ag519
aaa(lp525
I648
aI653
ag519
a(lp526
g483
ag519
aaa(lp527
I655
aI659
aS'owned'
p528
a(lp529
g519
ag528
aaa(lp530
I655
aI659
ag528
a(lp531
g510
ag528
aaa(lp532
I655
aI659
ag528
a(lp533
g501
ag528
aaa(lp534
I655
aI659
ag528
a(lp535
g492
ag528
aaa(lp536
I671
aI675
aS'found'
p537
a(lp538
g528
ag537
aaa(lp539
I671
aI675
ag537
a(lp540
g519
ag537
aaa(lp541
I671
aI675
ag537
a(lp542
g510
ag537
aaa(lp543
I671
aI675
ag537
a(lp544
g501
ag537
aaa(lp545
I687
aI693
aS'bowflex'
p546
a(lp547
g537
ag546
aaa(lp548
I687
aI693
ag546
a(lp549
g528
ag546
aaa(lp550
I687
aI693
ag546
a(lp551
g519
ag546
aaa(lp552
I687
aI693
ag546
a(lp553
g510
ag546
aaa(lp554
I698
aI702
aS'worth'
p555
a(lp556
g546
ag555
aaa(lp557
I698
aI702
ag555
a(lp558
g537
ag555
aaa(lp559
I698
aI702
ag555
a(lp560
g528
ag555
aaa(lp561
I698
aI702
ag555
a(lp562
g519
ag555
aaa(lp563
I708
aI712
aS'money'
p564
a(lp565
g555
ag564
aaa(lp566
I708
aI712
ag564
a(lp567
g546
ag564
aaa(lp568
I708
aI712
ag564
a(lp569
g537
ag564
aaa(lp570
I708
aI712
ag564
a(lp571
g528
ag564
aaa(lp572
I715
aI719
aS'would'
p573
a(lp574
g564
ag573
aaa(lp575
I715
aI719
ag573
a(lp576
g555
ag573
aaa(lp577
I715
aI719
ag573
a(lp578
g546
ag573
aaa(lp579
I715
aI719
ag573
a(lp580
g537
ag573
aaa(lp581
I725
aI733
aS'recommend'
p582
a(lp583
g573
ag582
aaa(lp584
I725
aI733
ag582
a(lp585
g564
ag582
aaa(lp586
I725
aI733
ag582
a(lp587
g555
ag582
aaa(lp588
I725
aI733
ag582
a(lp589
g546
ag582
aaa(lp590
I735
aI741
aS'getting'
p591
a(lp592
g582
ag591
aaa(lp593
I735
aI741
ag591
a(lp594
g573
ag591
aaa(lp595
I735
aI741
ag591
a(lp596
g564
ag591
aaa(lp597
I735
aI741
ag591
a(lp598
g555
ag591
aaa(lp599
I745
aI751
aS'bowflex'
p600
a(lp601
g591
ag600
aaa(lp602
I745
aI751
ag600
a(lp603
g582
ag600
aaa(lp604
I745
aI751
ag600
a(lp605
g573
ag600
aaa(lp606
I745
aI751
ag600
a(lp607
g564
ag600
aaa(lp608
I753
aI756
aS'home'
p609
a(lp610
g600
ag609
aaa(lp611
I753
aI756
ag609
a(lp612
g591
ag609
aaa(lp613
I753
aI756
ag609
a(lp614
g582
ag609
aaa(lp615
I753
aI756
ag609
a(lp616
g573
ag609
aaa(lp617
I758
aI760
aS'gym'
p618
a(lp619
g609
ag618
aaa(lp620
I758
aI760
ag618
a(lp621
g600
ag618
aaa(lp622
I758
aI760
ag618
a(lp623
g591
ag618
aaa(lp624
I758
aI760
ag618
a(lp625
g582
ag618
aaa(lp626
I763
aI768
aS'please'
p627
a(lp628
g618
ag627
aaa(lp629
I763
aI768
ag627
a(lp630
g609
ag627
aaa(lp631
I763
aI768
ag627
a(lp632
g600
ag627
aaa(lp633
I763
aI768
ag627
a(lp634
g591
ag627
aaa(lp635
I770
aI774
aS'enter'
p636
a(lp637
g627
ag636
aaa(lp638
I770
aI774
ag636
a(lp639
g618
ag636
aaa(lp640
I770
aI774
ag636
a(lp641
g609
ag636
aaa(lp642
I770
aI774
ag636
a(lp643
g600
ag636
aaa(lp644
I781
aI785
aS'title'
p645
a(lp646
g636
ag645
aaa(lp647
I781
aI785
ag645
a(lp648
g627
ag645
aaa(lp649
I781
aI785
ag645
a(lp650
g618
ag645
aaa(lp651
I781
aI785
ag645
a(lp652
g609
ag645
aaa(lp653
I788
aI790
aS'exp'
p654
a(lp655
g645
ag654
aaa(lp656
I788
aI790
ag654
a(lp657
g636
ag654
aaa(lp658
I788
aI790
ag654
a(lp659
g627
ag654
aaa(lp660
I788
aI790
ag654
a(lp661
g618
ag654
aaa(lp662
I797
aI803
aS'bowflex'
p663
a(lp664
g654
ag663
aaa(lp665
I797
aI803
ag663
a(lp666
g645
ag663
aaa(lp667
I797
aI803
ag663
a(lp668
g636
ag663
aaa(lp669
I797
aI803
ag663
a(lp670
g627
ag663
aaa(lp671
I805
aI809
aS'story'
p672
a(lp673
g663
ag672
aaa(lp674
I805
aI809
ag672
a(lp675
g654
ag672
aaa(lp676
I805
aI809
ag672
a(lp677
g645
ag672
aaa(lp678
I805
aI809
ag672
a(lp679
g636
ag672
aaa(lp680
I816
aI822
aS'bowflex'
p681
a(lp682
g672
ag681
aaa(lp683
I816
aI822
ag681
a(lp684
g663
ag681
aaa(lp685
I816
aI822
ag681
a(lp686
g654
ag681
aaa(lp687
I816
aI822
ag681
a(lp688
g645
ag681
aaa(lp689
I824
aI829
aS'review'
p690
a(lp691
g681
ag690
aaa(lp692
I824
aI829
ag690
a(lp693
g672
ag690
aaa(lp694
I824
aI829
ag690
a(lp695
g663
ag690
aaa(lp696
I824
aI829
ag690
a(lp697
g654
ag690
aaa(lp698
I839
aI842
aS'love'
p699
a(lp700
g690
ag699
aaa(lp701
I839
aI842
ag699
a(lp702
g681
ag699
aaa(lp703
I839
aI842
ag699
a(lp704
g672
ag699
aaa(lp705
I839
aI842
ag699
a(lp706
g663
ag699
aaa(lp707
I847
aI853
aS'bowflex'
p708
a(lp709
g699
ag708
aaa(lp710
I847
aI853
ag708
a(lp711
g690
ag708
aaa(lp712
I847
aI853
ag708
a(lp713
g681
ag708
aaa(lp714
I847
aI853
ag708
a(lp715
g672
ag708
aaa(lp716
I856
aI858
aS'etc'
p717
a(lp718
g708
ag717
aaa(lp719
I856
aI858
ag717
a(lp720
g699
ag717
aaa(lp721
I856
aI858
ag717
a(lp722
g690
ag717
aaa(lp723
I856
aI858
ag717
a(lp724
g681
ag717
aaa(lp725
I862
aI867
aS'please'
p726
a(lp727
g717
ag726
aaa(lp728
I862
aI867
ag726
a(lp729
g708
ag726
aaa(lp730
I862
aI867
ag726
a(lp731
g699
ag726
aaa(lp732
I862
aI867
ag726
a(lp733
g690
ag726
aaa(lp734
I869
aI873
aS'share'
p735
a(lp736
g726
ag735
aaa(lp737
I869
aI873
ag735
a(lp738
g717
ag735
aaa(lp739
I869
aI873
ag735
a(lp740
g708
ag735
aaa(lp741
I869
aI873
ag735
a(lp742
g699
ag735
aaa(lp743
I880
aI890
aS'experiences'
p744
a(lp745
g735
ag744
aaa(lp746
I880
aI890
ag744
a(lp747
g726
ag744
aaa(lp748
I880
aI890
ag744
a(lp749
g717
ag744
aaa(lp750
I880
aI890
ag744
a(lp751
g708
ag744
aaa(lp752
I897
aI901
aS'close'
p753
a(lp754
g744
ag753
aaa(lp755
I897
aI901
ag753
a(lp756
g735
ag753
aaa(lp757
I897
aI901
ag753
a(lp758
g726
ag753
aaa(lp759
I897
aI901
ag753
a(lp760
g717
ag753
aaa(lp761
I903
aI906
aS'help'
p762
a(lp763
g753
ag762
aaa(lp764
I903
aI906
ag762
a(lp765
g744
ag762
aaa(lp766
I903
aI906
ag762
a(lp767
g735
ag762
aaa(lp768
I903
aI906
ag762
a(lp769
g726
ag762
aaa(lp770
I908
aI915
aS'entering'
p771
a(lp772
g762
ag771
aaa(lp773
I908
aI915
ag771
a(lp774
g753
ag771
aaa(lp775
I908
aI915
ag771
a(lp776
g744
ag771
aaa(lp777
I908
aI915
ag771
a(lp778
g735
ag771
aaa(lp779
I922
aI926
aS'story'
p780
a(lp781
g771
ag780
aaa(lp782
I922
aI926
ag780
a(lp783
g762
ag780
aaa(lp784
I922
aI926
ag780
a(lp785
g753
ag780
aaa(lp786
I922
aI926
ag780
a(lp787
g744
ag780
aaa(lp788
I931
aI934
aS'easy'
p789
a(lp790
g780
ag789
aaa(lp791
I931
aI934
ag789
a(lp792
g771
ag789
aaa(lp793
I931
aI934
ag789
a(lp794
g762
ag789
aaa(lp795
I931
aI934
ag789
a(lp796
g753
ag789
aaa(lp797
I948
aI951
aS'type'
p798
a(lp799
g789
ag798
aaa(lp800
I948
aI951
ag798
a(lp801
g780
ag798
aaa(lp802
I948
aI951
ag798
a(lp803
g771
ag798
aaa(lp804
I948
aI951
ag798
a(lp805
g762
ag798
aaa(lp806
I962
aI966
aS'story'
p807
a(lp808
g798
ag807
aaa(lp809
I962
aI966
ag807
a(lp810
g789
ag807
aaa(lp811
I962
aI966
ag807
a(lp812
g780
ag807
aaa(lp813
I962
aI966
ag807
a(lp814
g771
ag807
aaa(lp815
I973
aI978
aS'appear'
p816
a(lp817
g807
ag816
aaa(lp818
I973
aI978
ag816
a(lp819
g798
ag816
aaa(lp820
I973
aI978
ag816
a(lp821
g789
ag816
aaa(lp822
I973
aI978
ag816
a(lp823
g780
ag816
aaa(lp824
I985
aI987
aS'web'
p825
a(lp826
g816
ag825
aaa(lp827
I985
aI987
ag825
a(lp828
g807
ag825
aaa(lp829
I985
aI987
ag825
a(lp830
g798
ag825
aaa(lp831
I985
aI987
ag825
a(lp832
g789
ag825
aaa(lp833
I989
aI992
aS'page'
p834
a(lp835
g825
ag834
aaa(lp836
I989
aI992
ag834
a(lp837
g816
ag834
aaa(lp838
I989
aI992
ag834
a(lp839
g807
ag834
aaa(lp840
I989
aI992
ag834
a(lp841
g798
ag834
aaa(lp842
I994
aI1000
aS'exactly'
p843
a(lp844
g834
ag843
aaa(lp845
I994
aI1000
ag843
a(lp846
g825
ag843
aaa(lp847
I994
aI1000
ag843
a(lp848
g816
ag843
aaa(lp849
I994
aI1000
ag843
a(lp850
g807
ag843
aaa(lp851
I1006
aI1008
aS'way'
p852
a(lp853
g843
ag852
aaa(lp854
I1006
aI1008
ag852
a(lp855
g834
ag852
aaa(lp856
I1006
aI1008
ag852
a(lp857
g825
ag852
aaa(lp858
I1006
aI1008
ag852
a(lp859
g816
ag852
aaa(lp860
I1014
aI1018
aS'enter'
p861
a(lp862
g852
ag861
aaa(lp863
I1014
aI1018
ag861
a(lp864
g843
ag861
aaa(lp865
I1014
aI1018
ag861
a(lp866
g834
ag861
aaa(lp867
I1014
aI1018
ag861
a(lp868
g825
ag861
aaa(lp869
I1037
aI1040
aS'wrap'
p870
a(lp871
g861
ag870
aaa(lp872
I1037
aI1040
ag870
a(lp873
g852
ag870
aaa(lp874
I1037
aI1040
ag870
a(lp875
g843
ag870
aaa(lp876
I1037
aI1040
ag870
a(lp877
g834
ag870
aaa(lp878
I1044
aI1047
aS'word'
p879
a(lp880
g870
ag879
aaa(lp881
I1044
aI1047
ag879
a(lp882
g861
ag879
aaa(lp883
I1044
aI1047
ag879
a(lp884
g852
ag879
aaa(lp885
I1044
aI1047
ag879
a(lp886
g843
ag879
aaa(lp887
I1052
aI1057
aS'square'
p888
a(lp889
g879
ag888
aaa(lp890
I1052
aI1057
ag888
a(lp891
g870
ag888
aaa(lp892
I1052
aI1057
ag888
a(lp893
g861
ag888
aaa(lp894
I1052
aI1057
ag888
a(lp895
g852
ag888
aaa(lp896
I1059
aI1066
aS'brackets'
p897
a(lp898
g888
ag897
aaa(lp899
I1059
aI1066
ag897
a(lp900
g879
ag897
aaa(lp901
I1059
aI1066
ag897
a(lp902
g870
ag897
aaa(lp903
I1059
aI1066
ag897
a(lp904
g861
ag897
aaa(lp905
I1071
aI1074
aS'make'
p906
a(lp907
g897
ag906
aaa(lp908
I1071
aI1074
ag906
a(lp909
g888
ag906
aaa(lp910
I1071
aI1074
ag906
a(lp911
g879
ag906
aaa(lp912
I1071
aI1074
ag906
a(lp913
g870
ag906
aaa(lp914
I1079
aI1084
aS'appear'
p915
a(lp916
g906
ag915
aaa(lp917
I1079
aI1084
ag915
a(lp918
g897
ag915
aaa(lp919
I1079
aI1084
ag915
a(lp920
g888
ag915
aaa(lp921
I1079
aI1084
ag915
a(lp922
g879
ag915
aaa(lp923
I1086
aI1089
aS'bold'
p924
a(lp925
g915
ag924
aaa(lp926
I1086
aI1089
ag924
a(lp927
g906
ag924
aaa(lp928
I1086
aI1089
ag924
a(lp929
g897
ag924
aaa(lp930
I1086
aI1089
ag924
a(lp931
g888
ag924
aaa(lp932
I1096
aI1102
aS'example'
p933
a(lp934
g924
ag933
aaa(lp935
I1096
aI1102
ag933
a(lp936
g915
ag933
aaa(lp937
I1096
aI1102
ag933
a(lp938
g906
ag933
aaa(lp939
I1096
aI1102
ag933
a(lp940
g897
ag933
aaa(lp941
I1108
aI1112
aS'story'
p942
a(lp943
g933
ag942
aaa(lp944
I1108
aI1112
ag942
a(lp945
g924
ag942
aaa(lp946
I1108
aI1112
ag942
a(lp947
g915
ag942
aaa(lp948
I1108
aI1112
ag942
a(lp949
g906
ag942
aaa(lp950
I1115
aI1119
aS'would'
p951
a(lp952
g942
ag951
aaa(lp953
I1115
aI1119
ag951
a(lp954
g933
ag951
aaa(lp955
I1115
aI1119
ag951
a(lp956
g924
ag951
aaa(lp957
I1115
aI1119
ag951
a(lp958
g915
ag951
aaa(lp959
I1121
aI1124
aS'show'
p960
a(lp961
g951
ag960
aaa(lp962
I1121
aI1124
ag960
a(lp963
g942
ag960
aaa(lp964
I1121
aI1124
ag960
a(lp965
g933
ag960
aaa(lp966
I1121
aI1124
ag960
a(lp967
g924
ag960
aaa(lp968
I1136
aI1138
aS'web'
p969
a(lp970
g960
ag969
aaa(lp971
I1136
aI1138
ag969
a(lp972
g951
ag969
aaa(lp973
I1136
aI1138
ag969
a(lp974
g942
ag969
aaa(lp975
I1136
aI1138
ag969
a(lp976
g933
ag969
aaa(lp977
I1140
aI1143
aS'page'
p978
a(lp979
g969
ag978
aaa(lp980
I1140
aI1143
ag978
a(lp981
g960
ag978
aaa(lp982
I1140
aI1143
ag978
a(lp983
g951
ag978
aaa(lp984
I1140
aI1143
ag978
a(lp985
g942
ag978
aaa(lp986
I1145
aI1154
aS'containing'
p987
a(lp988
g978
ag987
aaa(lp989
I1145
aI1154
ag987
a(lp990
g969
ag987
aaa(lp991
I1145
aI1154
ag987
a(lp992
g960
ag987
aaa(lp993
I1145
aI1154
ag987
a(lp994
g951
ag987
aaa(lp995
I1161
aI1165
aS'story'
p996
a(lp997
g987
ag996
aaa(lp998
I1161
aI1165
ag996
a(lp999
g978
ag996
aaa(lp1000
I1161
aI1165
ag996
a(lp1001
g969
ag996
aaa(lp1002
I1161
aI1165
ag996
a(lp1003
g960
ag996
aaa(lp1004
I1168
aI1170
aS'tip'
p1005
a(lp1006
g996
ag1005
aaa(lp1007
I1168
aI1170
ag1005
a(lp1008
g987
ag1005
aaa(lp1009
I1168
aI1170
ag1005
a(lp1010
g978
ag1005
aaa(lp1011
I1168
aI1170
ag1005
a(lp1012
g969
ag1005
aaa(lp1013
I1173
aI1177
aS'since'
p1014
a(lp1015
g1005
ag1014
aaa(lp1016
I1173
aI1177
ag1014
a(lp1017
g996
ag1014
aaa(lp1018
I1173
aI1177
ag1014
a(lp1019
g987
ag1014
aaa(lp1020
I1173
aI1177
ag1014
a(lp1021
g978
ag1014
aaa(lp1022
I1184
aI1189
aS'people'
p1023
a(lp1024
g1014
ag1023
aaa(lp1025
I1184
aI1189
ag1023
a(lp1026
g1005
ag1023
aaa(lp1027
I1184
aI1189
ag1023
a(lp1028
g996
ag1023
aaa(lp1029
I1184
aI1189
ag1023
a(lp1030
g987
ag1023
aaa(lp1031
I1191
aI1194
aS'scan'
p1032
a(lp1033
g1023
ag1032
aaa(lp1034
I1191
aI1194
ag1032
a(lp1035
g1014
ag1032
aaa(lp1036
I1191
aI1194
ag1032
a(lp1037
g1005
ag1032
aaa(lp1038
I1191
aI1194
ag1032
a(lp1039
g996
ag1032
aaa(lp1040
I1196
aI1198
aS'web'
p1041
a(lp1042
g1032
ag1041
aaa(lp1043
I1196
aI1198
ag1041
a(lp1044
g1023
ag1041
aaa(lp1045
I1196
aI1198
ag1041
a(lp1046
g1014
ag1041
aaa(lp1047
I1196
aI1198
ag1041
a(lp1048
g1005
ag1041
aaa(lp1049
I1200
aI1204
aS'pages'
p1050
a(lp1051
g1041
ag1050
aaa(lp1052
I1200
aI1204
ag1050
a(lp1053
g1032
ag1050
aaa(lp1054
I1200
aI1204
ag1050
a(lp1055
g1023
ag1050
aaa(lp1056
I1200
aI1204
ag1050
a(lp1057
g1014
ag1050
aaa(lp1058
I1207
aI1213
aS'include'
p1059
a(lp1060
g1050
ag1059
aaa(lp1061
I1207
aI1213
ag1059
a(lp1062
g1041
ag1059
aaa(lp1063
I1207
aI1213
ag1059
a(lp1064
g1032
ag1059
aaa(lp1065
I1207
aI1213
ag1059
a(lp1066
g1023
ag1059
aaa(lp1067
I1220
aI1223
aS'best'
p1068
a(lp1069
g1059
ag1068
aaa(lp1070
I1220
aI1223
ag1068
a(lp1071
g1050
ag1068
aaa(lp1072
I1220
aI1223
ag1068
a(lp1073
g1041
ag1068
aaa(lp1074
I1220
aI1223
ag1068
a(lp1075
g1032
ag1068
aaa(lp1076
I1225
aI1232
aS'thoughts'
p1077
a(lp1078
g1068
ag1077
aaa(lp1079
I1225
aI1232
ag1077
a(lp1080
g1059
ag1077
aaa(lp1081
I1225
aI1232
ag1077
a(lp1082
g1050
ag1077
aaa(lp1083
I1225
aI1232
ag1077
a(lp1084
g1041
ag1077
aaa(lp1085
I1242
aI1246
aS'first'
p1086
a(lp1087
g1077
ag1086
aaa(lp1088
I1242
aI1246
ag1086
a(lp1089
g1068
ag1086
aaa(lp1090
I1242
aI1246
ag1086
a(lp1091
g1059
ag1086
aaa(lp1092
I1242
aI1246
ag1086
a(lp1093
g1050
ag1086
aaa(lp1094
I1248
aI1256
aS'paragraph'
p1095
a(lp1096
g1086
ag1095
aaa(lp1097
I1248
aI1256
ag1095
a(lp1098
g1077
ag1095
aaa(lp1099
I1248
aI1256
ag1095
a(lp1100
g1068
ag1095
aaa(lp1101
I1248
aI1256
ag1095
a(lp1102
g1059
ag1095
aaa(lp1103
I1259
aI1260
aS'story'
p1104
a(lp1105
g1095
ag1104
aaa(lp1106
I1259
aI1260
ag1104
a(lp1107
g1086
ag1104
aaa(lp1108
I1259
aI1260
ag1104
a(lp1109
g1077
ag1104
aaa(lp1110
I1259
aI1260
ag1104
a(lp1111
g1068
ag1104
aaasS'wordMap'
p1112
(lp1113
(lp1114
I1
aI1
ag5
a(lp1115
(lp1116
I1
ag5
aaaa(lp1117
I3
aI6
aS'your'
p1118
a(lp1119
(lp1120
I3
aS'y'
p1121
aa(lp1122
I4
aS'o'
p1123
aa(lp1124
I5
aS'u'
p1125
aa(lp1126
I6
aS'r'
p1127
aaaa(lp1128
I8
aI14
ag15
a(lp1129
(lp1130
I8
aS'b'
p1131
aa(lp1132
I9
ag1123
aa(lp1133
I10
aS'w'
p1134
aa(lp1135
I11
aS'f'
p1136
aa(lp1137
I12
aS'l'
p1138
aa(lp1139
I13
aS'e'
p1140
aa(lp1141
I14
aS'x'
p1142
aaaa(lp1143
I16
aI20
ag24
a(lp1144
(lp1145
I16
aS's'
p1146
aa(lp1147
I17
aS't'
p1148
aa(lp1149
I18
ag1123
aa(lp1150
I19
ag1127
aa(lp1151
I20
ag1121
aaaa(lp1152
I22
aI23
aS'do'
p1153
a(lp1154
(lp1155
I22
aS'd'
p1156
aa(lp1157
I23
ag1123
aaaa(lp1158
I25
aI27
aS'you'
p1159
a(lp1160
(lp1161
I25
ag1121
aa(lp1162
I26
ag1123
aa(lp1163
I27
ag1125
aaaa(lp1164
I29
aI31
aS'own'
p1165
a(lp1166
(lp1167
I29
ag1123
aa(lp1168
I30
ag1134
aa(lp1169
I31
aS'n'
p1170
aaaa(lp1171
I33
aI33
aS'a'
p1172
a(lp1173
(lp1174
I33
ag1172
aaaa(lp1175
I35
aI41
ag33
a(lp1176
(lp1177
I35
ag1131
aa(lp1178
I36
ag1123
aa(lp1179
I37
ag1134
aa(lp1180
I38
ag1136
aa(lp1181
I39
ag1138
aa(lp1182
I40
ag1140
aa(lp1183
I41
ag1142
aaaa(lp1184
I43
aI46
ag42
a(lp1185
(lp1186
I43
aS'h'
p1187
aa(lp1188
I44
ag1123
aa(lp1189
I45
aS'm'
p1190
aa(lp1191
I46
ag1140
aaaa(lp1192
I48
aI50
ag51
a(lp1193
(lp1194
I48
aS'g'
p1195
aa(lp1196
I49
ag1121
aa(lp1197
I50
ag1190
aaaa(lp1198
I53
aI60
ag60
a(lp1199
(lp1200
I53
aS'v'
p1201
aa(lp1202
I54
aS'i'
p1203
aa(lp1204
I55
ag1146
aa(lp1205
I56
ag1203
aa(lp1206
I57
ag1148
aa(lp1207
I58
ag1123
aa(lp1208
I59
ag1127
aa(lp1209
I60
ag1146
aaaa(lp1210
I62
aI63
aS'to'
p1211
a(lp1212
(lp1213
I62
ag1148
aa(lp1214
I63
ag1123
aaaa(lp1215
I65
aI68
aS'this'
p1216
a(lp1217
(lp1218
I65
ag1148
aa(lp1219
I66
ag1187
aa(lp1220
I67
ag1203
aa(lp1221
I68
ag1146
aaaa(lp1222
I70
aI76
ag69
a(lp1223
(lp1224
I70
ag1134
aa(lp1225
I71
ag1140
aa(lp1226
I72
ag1131
aa(lp1227
I73
ag1146
aa(lp1228
I74
ag1203
aa(lp1229
I75
ag1148
aa(lp1230
I76
ag1140
aaaa(lp1231
I78
aI82
ag78
a(lp1232
(lp1233
I78
ag1134
aa(lp1234
I79
ag1123
aa(lp1235
I80
ag1125
aa(lp1236
I81
ag1138
aa(lp1237
I82
ag1156
aaaa(lp1238
I84
aI87
ag87
a(lp1239
(lp1240
I84
ag1138
aa(lp1241
I85
ag1123
aa(lp1242
I86
ag1201
aa(lp1243
I87
ag1140
aaaa(lp1244
I89
aI90
aS'to'
p1245
a(lp1246
(lp1247
I89
ag1148
aa(lp1248
I90
ag1123
aaaa(lp1249
I92
aI95
ag96
a(lp1250
(lp1251
I92
aS'k'
p1252
aa(lp1253
I93
ag1170
aa(lp1254
I94
ag1123
aa(lp1255
I95
ag1134
aaaa(lp1256
I97
aI100
aS'what'
p1257
a(lp1258
(lp1259
I97
ag1134
aa(lp1260
I98
ag1187
aa(lp1261
I99
ag1172
aa(lp1262
I100
ag1148
aaaa(lp1263
I102
aI105
aS'your'
p1264
a(lp1265
(lp1266
I102
ag1121
aa(lp1267
I103
ag1123
aa(lp1268
I104
ag1125
aa(lp1269
I105
ag1127
aaaa(lp1270
I107
aI117
ag105
a(lp1271
(lp1272
I107
ag1140
aa(lp1273
I108
ag1142
aa(lp1274
I109
aS'p'
p1275
aa(lp1276
I110
ag1140
aa(lp1277
I111
ag1127
aa(lp1278
I112
ag1203
aa(lp1279
I113
ag1140
aa(lp1280
I114
ag1170
aa(lp1281
I115
aS'c'
p1282
aa(lp1283
I116
ag1140
aa(lp1284
I117
ag1146
aaaa(lp1285
I119
aI122
aS'have'
p1286
a(lp1287
(lp1288
I119
ag1187
aa(lp1289
I120
ag1172
aa(lp1290
I121
ag1201
aa(lp1291
I122
ag1140
aaaa(lp1292
I124
aI127
aS'been'
p1293
a(lp1294
(lp1295
I124
ag1131
aa(lp1296
I125
ag1140
aa(lp1297
I126
ag1140
aa(lp1298
I127
ag1170
aaaa(lp1299
I130
aI136
ag114
a(lp1300
(lp1301
I130
ag1146
aa(lp1302
I131
ag1187
aa(lp1303
I132
ag1172
aa(lp1304
I133
ag1127
aa(lp1305
I134
ag1203
aa(lp1306
I135
ag1170
aa(lp1307
I136
ag1195
aaaa(lp1308
I138
aI141
aS'your'
p1309
a(lp1310
(lp1311
I138
ag1121
aa(lp1312
I139
ag1123
aa(lp1313
I140
ag1125
aa(lp1314
I141
ag1127
aaaa(lp1315
I143
aI147
ag123
a(lp1316
(lp1317
I143
ag1146
aa(lp1318
I144
ag1148
aa(lp1319
I145
ag1123
aa(lp1320
I146
ag1127
aa(lp1321
I147
ag1121
aaaa(lp1322
I149
aI150
aS'is'
p1323
a(lp1324
(lp1325
I149
ag1203
aa(lp1326
I150
ag1146
aaaa(lp1327
I152
aI155
ag132
a(lp1328
(lp1329
I152
ag1140
aa(lp1330
I153
ag1172
aa(lp1331
I154
ag1146
aa(lp1332
I155
ag1121
aaaa(lp1333
I157
aI158
aS'to'
p1334
a(lp1335
(lp1336
I157
ag1148
aa(lp1337
I158
ag1123
aaaa(lp1338
I160
aI161
aS'do'
p1339
a(lp1340
(lp1341
I160
ag1156
aa(lp1342
I161
ag1123
aaaa(lp1343
I164
aI167
aS'just'
p1344
a(lp1345
(lp1346
I164
aS'j'
p1347
aa(lp1348
I165
ag1125
aa(lp1349
I166
ag1146
aa(lp1350
I167
ag1148
aaaa(lp1351
I169
aI172
ag141
a(lp1352
(lp1353
I169
ag1148
aa(lp1354
I170
ag1121
aa(lp1355
I171
ag1275
aa(lp1356
I172
ag1140
aaaa(lp1357
I178
aI181
aS'your'
p1358
a(lp1359
(lp1360
I178
ag1121
aa(lp1361
I179
ag1123
aa(lp1362
I180
ag1125
aa(lp1363
I181
ag1127
aaaa(lp1364
I183
aI187
ag150
a(lp1365
(lp1366
I183
ag1146
aa(lp1367
I184
ag1148
aa(lp1368
I185
ag1123
aa(lp1369
I186
ag1127
aa(lp1370
I187
ag1121
aaaa(lp1371
I189
aI192
aS'will'
p1372
a(lp1373
(lp1374
I189
ag1134
aa(lp1375
I190
ag1203
aa(lp1376
I191
ag1138
aa(lp1377
I192
ag1138
aaaa(lp1378
I194
aI199
ag159
a(lp1379
(lp1380
I194
ag1172
aa(lp1381
I195
ag1275
aa(lp1382
I196
ag1275
aa(lp1383
I197
ag1140
aa(lp1384
I198
ag1172
aa(lp1385
I199
ag1127
aaaa(lp1386
I201
aI202
aS'on'
p1387
a(lp1388
(lp1389
I201
ag1123
aa(lp1390
I202
ag1170
aaaa(lp1391
I204
aI204
ag1172
a(lp1392
(lp1393
I204
ag1172
aaaa(lp1394
I206
aI208
ag168
a(lp1395
(lp1396
I206
ag1134
aa(lp1397
I207
ag1140
aa(lp1398
I208
ag1131
aaaa(lp1399
I210
aI213
ag177
a(lp1400
(lp1401
I210
ag1275
aa(lp1402
I211
ag1172
aa(lp1403
I212
ag1195
aa(lp1404
I213
ag1140
aaaa(lp1405
I215
aI221
ag186
a(lp1406
(lp1407
I215
ag1140
aa(lp1408
I216
ag1142
aa(lp1409
I217
ag1172
aa(lp1410
I218
ag1282
aa(lp1411
I219
ag1148
aa(lp1412
I220
ag1138
aa(lp1413
I221
ag1121
aaaa(lp1414
I223
aI225
aS'the'
p1415
a(lp1416
(lp1417
I223
ag1148
aa(lp1418
I224
ag1187
aa(lp1419
I225
ag1140
aaaa(lp1420
I227
aI229
ag195
a(lp1421
(lp1422
I227
ag1134
aa(lp1423
I228
ag1172
aa(lp1424
I229
ag1121
aaaa(lp1425
I231
aI233
aS'you'
p1426
a(lp1427
(lp1428
I231
ag1121
aa(lp1429
I232
ag1123
aa(lp1430
I233
ag1125
aaaa(lp1431
I235
aI239
ag204
a(lp1432
(lp1433
I235
ag1140
aa(lp1434
I236
ag1170
aa(lp1435
I237
ag1148
aa(lp1436
I238
ag1140
aa(lp1437
I239
ag1127
aaaa(lp1438
I241
aI242
aS'it'
p1439
a(lp1440
(lp1441
I241
ag1203
aa(lp1442
I242
ag1148
aaaa(lp1443
I244
aI247
aS'here'
p1444
a(lp1445
(lp1446
I244
ag1187
aa(lp1447
I245
ag1140
aa(lp1448
I246
ag1127
aa(lp1449
I247
ag1140
aaaa(lp1450
I250
aI254
ag213
a(lp1451
(lp1452
I250
ag1156
aa(lp1453
I251
ag1123
aa(lp1454
I252
ag1170
aa(lp1455
I254
ag1148
aaaa(lp1456
I256
aI260
ag222
a(lp1457
(lp1458
I256
ag1134
aa(lp1459
I257
ag1123
aa(lp1460
I258
ag1127
aa(lp1461
I259
ag1127
aa(lp1462
I260
ag1121
aaaa(lp1463
I263
aI268
ag231
a(lp1464
(lp1465
I263
ag1121
aa(lp1466
I264
ag1123
aa(lp1467
I265
ag1125
aa(lp1468
I267
ag1138
aa(lp1469
I268
ag1138
aaaa(lp1470
I270
aI271
aS'be'
p1471
a(lp1472
(lp1473
I270
ag1131
aa(lp1474
I271
ag1140
aaaa(lp1475
I273
aI276
ag240
a(lp1476
(lp1477
I273
ag1172
aa(lp1478
I274
ag1131
aa(lp1479
I275
ag1138
aa(lp1480
I276
ag1140
aaaa(lp1481
I278
aI279
aS'to'
p1482
a(lp1483
(lp1484
I278
ag1148
aa(lp1485
I279
ag1123
aaaa(lp1486
I281
aI284
ag249
a(lp1487
(lp1488
I281
ag1140
aa(lp1489
I282
ag1156
aa(lp1490
I283
ag1203
aa(lp1491
I284
ag1148
aaaa(lp1492
I286
aI287
aS'it'
p1493
a(lp1494
(lp1495
I286
ag1203
aa(lp1496
I287
ag1148
aaaa(lp1497
I289
aI290
aS'on'
p1498
a(lp1499
(lp1500
I289
ag1123
aa(lp1501
I290
ag1170
aaaa(lp1502
I292
aI294
aS'the'
p1503
a(lp1504
(lp1505
I292
ag1148
aa(lp1506
I293
ag1187
aa(lp1507
I294
ag1140
aaaa(lp1508
I296
aI299
ag258
a(lp1509
(lp1510
I296
ag1170
aa(lp1511
I297
ag1140
aa(lp1512
I298
ag1142
aa(lp1513
I299
ag1148
aaaa(lp1514
I301
aI304
ag267
a(lp1515
(lp1516
I301
ag1275
aa(lp1517
I302
ag1172
aa(lp1518
I303
ag1195
aa(lp1519
I304
ag1140
aaaa(lp1520
I307
aI307
ag1172
a(lp1521
(lp1522
I307
ag1172
aaaa(lp1523
I309
aI311
aS'few'
p1524
a(lp1525
(lp1526
I309
ag1136
aa(lp1527
I310
ag1140
aa(lp1528
I311
ag1134
aaaa(lp1529
I313
aI321
ag276
a(lp1530
(lp1531
I313
aS'q'
p1532
aa(lp1533
I314
ag1125
aa(lp1534
I315
ag1140
aa(lp1535
I316
ag1146
aa(lp1536
I317
ag1148
aa(lp1537
I318
ag1203
aa(lp1538
I319
ag1123
aa(lp1539
I320
ag1170
aa(lp1540
I321
ag1146
aaaa(lp1541
I323
aI330
ag285
a(lp1542
(lp1543
I323
ag1201
aa(lp1544
I324
ag1203
aa(lp1545
I325
ag1146
aa(lp1546
I326
ag1203
aa(lp1547
I327
ag1148
aa(lp1548
I328
ag1123
aa(lp1549
I329
ag1127
aa(lp1550
I330
ag1146
aaaa(lp1551
I332
aI336
ag294
a(lp1552
(lp1553
I332
ag1134
aa(lp1554
I333
ag1123
aa(lp1555
I334
ag1125
aa(lp1556
I335
ag1138
aa(lp1557
I336
ag1156
aaaa(lp1558
I338
aI341
ag303
a(lp1559
(lp1560
I338
ag1138
aa(lp1561
I339
ag1123
aa(lp1562
I340
ag1201
aa(lp1563
I341
ag1140
aaaa(lp1564
I343
aI344
aS'to'
p1565
a(lp1566
(lp1567
I343
ag1148
aa(lp1568
I344
ag1123
aaaa(lp1569
I346
aI348
ag312
a(lp1570
(lp1571
I346
ag1172
aa(lp1572
I347
ag1146
aa(lp1573
I348
ag1252
aaaa(lp1574
I350
aI352
aS'you'
p1575
a(lp1576
(lp1577
I350
ag1121
aa(lp1578
I351
ag1123
aa(lp1579
I352
ag1125
aaaa(lp1580
I355
aI357
aS'how'
p1581
a(lp1582
(lp1583
I355
ag1187
aa(lp1584
I356
ag1123
aa(lp1585
I357
ag1134
aaaa(lp1586
I359
aI362
ag321
a(lp1587
(lp1588
I359
ag1134
aa(lp1589
I360
ag1140
aa(lp1590
I361
ag1138
aa(lp1591
I362
ag1138
aaaa(lp1592
I364
aI365
aS'do'
p1593
a(lp1594
(lp1595
I364
ag1156
aa(lp1596
I365
ag1123
aaaa(lp1597
I367
aI369
aS'you'
p1598
a(lp1599
(lp1600
I367
ag1121
aa(lp1601
I368
ag1123
aa(lp1602
I369
ag1125
aaaa(lp1603
I371
aI374
ag330
a(lp1604
(lp1605
I371
ag1136
aa(lp1606
I372
ag1140
aa(lp1607
I373
ag1140
aa(lp1608
I374
ag1138
aaaa(lp1609
I376
aI379
aS'your'
p1610
a(lp1611
(lp1612
I376
ag1121
aa(lp1613
I377
ag1123
aa(lp1614
I378
ag1125
aa(lp1615
I379
ag1127
aaaa(lp1616
I381
aI387
ag339
a(lp1617
(lp1618
I381
ag1131
aa(lp1619
I382
ag1123
aa(lp1620
I383
ag1134
aa(lp1621
I384
ag1136
aa(lp1622
I385
ag1138
aa(lp1623
I386
ag1140
aa(lp1624
I387
ag1142
aaaa(lp1625
I389
aI390
aS'is'
p1626
a(lp1627
(lp1628
I389
ag1203
aa(lp1629
I390
ag1146
aaaa(lp1630
I392
aI395
ag348
a(lp1631
(lp1632
I392
ag1190
aa(lp1633
I393
ag1172
aa(lp1634
I394
ag1156
aa(lp1635
I395
ag1140
aaaa(lp1636
I398
aI401
aS'have'
p1637
a(lp1638
(lp1639
I398
ag1187
aa(lp1640
I399
ag1172
aa(lp1641
I400
ag1201
aa(lp1642
I401
ag1140
aaaa(lp1643
I403
aI405
aS'you'
p1644
a(lp1645
(lp1646
I403
ag1121
aa(lp1647
I404
ag1123
aa(lp1648
I405
ag1125
aaaa(lp1649
I407
aI411
ag357
a(lp1650
(lp1651
I407
ag1136
aa(lp1652
I408
ag1123
aa(lp1653
I409
ag1125
aa(lp1654
I410
ag1170
aa(lp1655
I411
ag1156
aaaa(lp1656
I413
aI416
aS'that'
p1657
a(lp1658
(lp1659
I413
ag1148
aa(lp1660
I414
ag1187
aa(lp1661
I415
ag1172
aa(lp1662
I416
ag1148
aaaa(lp1663
I418
aI421
aS'your'
p1664
a(lp1665
(lp1666
I418
ag1121
aa(lp1667
I419
ag1123
aa(lp1668
I420
ag1125
aa(lp1669
I421
ag1127
aaaa(lp1670
I423
aI429
ag366
a(lp1671
(lp1672
I423
ag1131
aa(lp1673
I424
ag1123
aa(lp1674
I425
ag1134
aa(lp1675
I426
ag1136
aa(lp1676
I427
ag1138
aa(lp1677
I428
ag1140
aa(lp1678
I429
ag1142
aaaa(lp1679
I431
aI433
aS'has'
p1680
a(lp1681
(lp1682
I431
ag1187
aa(lp1683
I432
ag1172
aa(lp1684
I433
ag1146
aaaa(lp1685
I435
aI440
ag375
a(lp1686
(lp1687
I435
ag1140
aa(lp1688
I436
ag1170
aa(lp1689
I437
ag1123
aa(lp1690
I438
ag1125
aa(lp1691
I439
ag1195
aa(lp1692
I440
ag1187
aaaa(lp1693
I442
aI450
ag384
a(lp1694
(lp1695
I442
ag1140
aa(lp1696
I443
ag1142
aa(lp1697
I444
ag1140
aa(lp1698
I445
ag1127
aa(lp1699
I446
ag1282
aa(lp1700
I447
ag1203
aa(lp1701
I448
ag1146
aa(lp1702
I449
ag1140
aa(lp1703
I450
ag1146
aaaa(lp1704
I452
aI454
aS'for'
p1705
a(lp1706
(lp1707
I452
ag1136
aa(lp1708
I453
ag1123
aa(lp1709
I454
ag1127
aaaa(lp1710
I456
aI459
aS'your'
p1711
a(lp1712
(lp1713
I456
ag1121
aa(lp1714
I457
ag1123
aa(lp1715
I458
ag1125
aa(lp1716
I459
ag1127
aaaa(lp1717
I461
aI465
ag393
a(lp1718
(lp1719
I461
ag1170
aa(lp1720
I462
ag1140
aa(lp1721
I463
ag1140
aa(lp1722
I464
ag1156
aa(lp1723
I465
ag1146
aaaa(lp1724
I468
aI471
aS'have'
p1725
a(lp1726
(lp1727
I468
ag1187
aa(lp1728
I469
ag1172
aa(lp1729
I470
ag1201
aa(lp1730
I471
ag1140
aaaa(lp1731
I473
aI475
aS'you'
p1732
a(lp1733
(lp1734
I473
ag1121
aa(lp1735
I474
ag1123
aa(lp1736
I475
ag1125
aaaa(lp1737
I477
aI481
ag402
a(lp1738
(lp1739
I477
ag1136
aa(lp1740
I478
ag1123
aa(lp1741
I479
ag1125
aa(lp1742
I480
ag1170
aa(lp1743
I481
ag1156
aaaa(lp1744
I483
aI486
aS'that'
p1745
a(lp1746
(lp1747
I483
ag1148
aa(lp1748
I484
ag1187
aa(lp1749
I485
ag1172
aa(lp1750
I486
ag1148
aaaa(lp1751
I488
aI491
aS'your'
p1752
a(lp1753
(lp1754
I488
ag1121
aa(lp1755
I489
ag1123
aa(lp1756
I490
ag1125
aa(lp1757
I491
ag1127
aaaa(lp1758
I493
aI499
ag411
a(lp1759
(lp1760
I493
ag1131
aa(lp1761
I494
ag1123
aa(lp1762
I495
ag1134
aa(lp1763
I496
ag1136
aa(lp1764
I497
ag1138
aa(lp1765
I498
ag1140
aa(lp1766
I499
ag1142
aaaa(lp1767
I501
aI505
ag420
a(lp1768
(lp1769
I501
ag1138
aa(lp1770
I502
ag1203
aa(lp1771
I503
ag1201
aa(lp1772
I504
ag1140
aa(lp1773
I505
ag1146
aaaa(lp1774
I507
aI508
aS'up'
p1775
a(lp1776
(lp1777
I507
ag1125
aa(lp1778
I508
ag1275
aaaa(lp1779
I510
aI511
aS'to'
p1780
a(lp1781
(lp1782
I510
ag1148
aa(lp1783
I511
ag1123
aaaa(lp1784
I513
aI516
aS'its'
p1785
a(lp1786
(lp1787
I513
ag1203
aa(lp1788
I514
ag1148
aa(lp1789
I516
ag1146
aaaa(lp1790
I518
aI525
ag429
a(lp1791
(lp1792
I518
ag1275
aa(lp1793
I519
ag1127
aa(lp1794
I520
ag1123
aa(lp1795
I521
ag1190
aa(lp1796
I522
ag1203
aa(lp1797
I523
ag1146
aa(lp1798
I524
ag1140
aa(lp1799
I525
ag1146
aaaa(lp1800
I528
aI531
aS'have'
p1801
a(lp1802
(lp1803
I528
ag1187
aa(lp1804
I529
ag1172
aa(lp1805
I530
ag1201
aa(lp1806
I531
ag1140
aaaa(lp1807
I533
aI535
aS'you'
p1808
a(lp1809
(lp1810
I533
ag1121
aa(lp1811
I534
ag1123
aa(lp1812
I535
ag1125
aaaa(lp1813
I537
aI541
ag438
a(lp1814
(lp1815
I537
ag1136
aa(lp1816
I538
ag1123
aa(lp1817
I539
ag1125
aa(lp1818
I540
ag1170
aa(lp1819
I541
ag1156
aaaa(lp1820
I543
aI546
aS'that'
p1821
a(lp1822
(lp1823
I543
ag1148
aa(lp1824
I544
ag1187
aa(lp1825
I545
ag1172
aa(lp1826
I546
ag1148
aaaa(lp1827
I548
aI551
aS'your'
p1828
a(lp1829
(lp1830
I548
ag1121
aa(lp1831
I549
ag1123
aa(lp1832
I550
ag1125
aa(lp1833
I551
ag1127
aaaa(lp1834
I553
aI559
ag447
a(lp1835
(lp1836
I553
ag1131
aa(lp1837
I554
ag1123
aa(lp1838
I555
ag1134
aa(lp1839
I556
ag1136
aa(lp1840
I557
ag1138
aa(lp1841
I558
ag1140
aa(lp1842
I559
ag1142
aaaa(lp1843
I561
aI563
aS'has'
p1844
a(lp1845
(lp1846
I561
ag1187
aa(lp1847
I562
ag1172
aa(lp1848
I563
ag1146
aaaa(lp1849
I565
aI570
ag456
a(lp1850
(lp1851
I565
ag1140
aa(lp1852
I566
ag1170
aa(lp1853
I567
ag1123
aa(lp1854
I568
ag1125
aa(lp1855
I569
ag1195
aa(lp1856
I570
ag1187
aaaa(lp1857
I572
aI581
ag465
a(lp1858
(lp1859
I572
ag1127
aa(lp1860
I573
ag1140
aa(lp1861
I574
ag1146
aa(lp1862
I575
ag1203
aa(lp1863
I576
ag1146
aa(lp1864
I577
ag1148
aa(lp1865
I578
ag1172
aa(lp1866
I579
ag1170
aa(lp1867
I580
ag1282
aa(lp1868
I581
ag1140
aaaa(lp1869
I584
aI587
aS'have'
p1870
a(lp1871
(lp1872
I584
ag1187
aa(lp1873
I585
ag1172
aa(lp1874
I586
ag1201
aa(lp1875
I587
ag1140
aaaa(lp1876
I589
aI591
aS'you'
p1877
a(lp1878
(lp1879
I589
ag1121
aa(lp1880
I590
ag1123
aa(lp1881
I591
ag1125
aaaa(lp1882
I593
aI597
ag474
a(lp1883
(lp1884
I593
ag1136
aa(lp1885
I594
ag1123
aa(lp1886
I595
ag1125
aa(lp1887
I596
ag1170
aa(lp1888
I597
ag1156
aaaa(lp1889
I599
aI602
aS'that'
p1890
a(lp1891
(lp1892
I599
ag1148
aa(lp1893
I600
ag1187
aa(lp1894
I601
ag1172
aa(lp1895
I602
ag1148
aaaa(lp1896
I604
aI607
aS'your'
p1897
a(lp1898
(lp1899
I604
ag1121
aa(lp1900
I605
ag1123
aa(lp1901
I606
ag1125
aa(lp1902
I607
ag1127
aaaa(lp1903
I609
aI615
ag483
a(lp1904
(lp1905
I609
ag1131
aa(lp1906
I610
ag1123
aa(lp1907
I611
ag1134
aa(lp1908
I612
ag1136
aa(lp1909
I613
ag1138
aa(lp1910
I614
ag1140
aa(lp1911
I615
ag1142
aaaa(lp1912
I617
aI618
aS'is'
p1913
a(lp1914
(lp1915
I617
ag1203
aa(lp1916
I618
ag1146
aaaa(lp1917
I620
aI625
ag492
a(lp1918
(lp1919
I620
ag1131
aa(lp1920
I621
ag1140
aa(lp1921
I622
ag1148
aa(lp1922
I623
ag1148
aa(lp1923
I624
ag1140
aa(lp1924
I625
ag1127
aaaa(lp1925
I627
aI630
aS'than'
p1926
a(lp1927
(lp1928
I627
ag1148
aa(lp1929
I628
ag1187
aa(lp1930
I629
ag1172
aa(lp1931
I630
ag1170
aaaa(lp1932
I632
aI636
aS'other'
p1933
a(lp1934
(lp1935
I632
ag1123
aa(lp1936
I633
ag1148
aa(lp1937
I634
ag1187
aa(lp1938
I635
ag1140
aa(lp1939
I636
ag1127
aaaa(lp1940
I638
aI641
ag501
a(lp1941
(lp1942
I638
ag1187
aa(lp1943
I639
ag1123
aa(lp1944
I640
ag1190
aa(lp1945
I641
ag1140
aaaa(lp1946
I643
aI646
ag510
a(lp1947
(lp1948
I643
ag1195
aa(lp1949
I644
ag1121
aa(lp1950
I645
ag1190
aa(lp1951
I646
ag1146
aaaa(lp1952
I648
aI653
ag519
a(lp1953
(lp1954
I648
ag1121
aa(lp1955
I649
ag1123
aa(lp1956
I650
ag1125
aa(lp1957
I652
ag1201
aa(lp1958
I653
ag1140
aaaa(lp1959
I655
aI659
ag528
a(lp1960
(lp1961
I655
ag1123
aa(lp1962
I656
ag1134
aa(lp1963
I657
ag1170
aa(lp1964
I658
ag1140
aa(lp1965
I659
ag1156
aaaa(lp1966
I662
aI665
aS'have'
p1967
a(lp1968
(lp1969
I662
ag1187
aa(lp1970
I663
ag1172
aa(lp1971
I664
ag1201
aa(lp1972
I665
ag1140
aaaa(lp1973
I667
aI669
aS'you'
p1974
a(lp1975
(lp1976
I667
ag1121
aa(lp1977
I668
ag1123
aa(lp1978
I669
ag1125
aaaa(lp1979
I671
aI675
ag537
a(lp1980
(lp1981
I671
ag1136
aa(lp1982
I672
ag1123
aa(lp1983
I673
ag1125
aa(lp1984
I674
ag1170
aa(lp1985
I675
ag1156
aaaa(lp1986
I677
aI680
aS'that'
p1987
a(lp1988
(lp1989
I677
ag1148
aa(lp1990
I678
ag1187
aa(lp1991
I679
ag1172
aa(lp1992
I680
ag1148
aaaa(lp1993
I682
aI685
aS'your'
p1994
a(lp1995
(lp1996
I682
ag1121
aa(lp1997
I683
ag1123
aa(lp1998
I684
ag1125
aa(lp1999
I685
ag1127
aaaa(lp2000
I687
aI693
ag546
a(lp2001
(lp2002
I687
ag1131
aa(lp2003
I688
ag1123
aa(lp2004
I689
ag1134
aa(lp2005
I690
ag1136
aa(lp2006
I691
ag1138
aa(lp2007
I692
ag1140
aa(lp2008
I693
ag1142
aaaa(lp2009
I695
aI696
aS'is'
p2010
a(lp2011
(lp2012
I695
ag1203
aa(lp2013
I696
ag1146
aaaa(lp2014
I698
aI702
ag555
a(lp2015
(lp2016
I698
ag1134
aa(lp2017
I699
ag1123
aa(lp2018
I700
ag1127
aa(lp2019
I701
ag1148
aa(lp2020
I702
ag1187
aaaa(lp2021
I704
aI706
aS'the'
p2022
a(lp2023
(lp2024
I704
ag1148
aa(lp2025
I705
ag1187
aa(lp2026
I706
ag1140
aaaa(lp2027
I708
aI712
ag564
a(lp2028
(lp2029
I708
ag1190
aa(lp2030
I709
ag1123
aa(lp2031
I710
ag1170
aa(lp2032
I711
ag1140
aa(lp2033
I712
ag1121
aaaa(lp2034
I715
aI719
ag573
a(lp2035
(lp2036
I715
ag1134
aa(lp2037
I716
ag1123
aa(lp2038
I717
ag1125
aa(lp2039
I718
ag1138
aa(lp2040
I719
ag1156
aaaa(lp2041
I721
aI723
aS'you'
p2042
a(lp2043
(lp2044
I721
ag1121
aa(lp2045
I722
ag1123
aa(lp2046
I723
ag1125
aaaa(lp2047
I725
aI733
ag582
a(lp2048
(lp2049
I725
ag1127
aa(lp2050
I726
ag1140
aa(lp2051
I727
ag1282
aa(lp2052
I728
ag1123
aa(lp2053
I729
ag1190
aa(lp2054
I730
ag1190
aa(lp2055
I731
ag1140
aa(lp2056
I732
ag1170
aa(lp2057
I733
ag1156
aaaa(lp2058
I735
aI741
ag591
a(lp2059
(lp2060
I735
ag1195
aa(lp2061
I736
ag1140
aa(lp2062
I737
ag1148
aa(lp2063
I738
ag1148
aa(lp2064
I739
ag1203
aa(lp2065
I740
ag1170
aa(lp2066
I741
ag1195
aaaa(lp2067
I743
aI743
ag1172
a(lp2068
(lp2069
I743
ag1172
aaaa(lp2070
I745
aI751
ag600
a(lp2071
(lp2072
I745
ag1131
aa(lp2073
I746
ag1123
aa(lp2074
I747
ag1134
aa(lp2075
I748
ag1136
aa(lp2076
I749
ag1138
aa(lp2077
I750
ag1140
aa(lp2078
I751
ag1142
aaaa(lp2079
I753
aI756
ag609
a(lp2080
(lp2081
I753
ag1187
aa(lp2082
I754
ag1123
aa(lp2083
I755
ag1190
aa(lp2084
I756
ag1140
aaaa(lp2085
I758
aI760
ag618
a(lp2086
(lp2087
I758
ag1195
aa(lp2088
I759
ag1121
aa(lp2089
I760
ag1190
aaaa(lp2090
I763
aI768
ag627
a(lp2091
(lp2092
I763
ag1275
aa(lp2093
I764
ag1138
aa(lp2094
I765
ag1140
aa(lp2095
I766
ag1172
aa(lp2096
I767
ag1146
aa(lp2097
I768
ag1140
aaaa(lp2098
I770
aI774
ag636
a(lp2099
(lp2100
I770
ag1140
aa(lp2101
I771
ag1170
aa(lp2102
I772
ag1148
aa(lp2103
I773
ag1140
aa(lp2104
I774
ag1127
aaaa(lp2105
I776
aI779
aS'your'
p2106
a(lp2107
(lp2108
I776
ag1121
aa(lp2109
I777
ag1123
aa(lp2110
I778
ag1125
aa(lp2111
I779
ag1127
aaaa(lp2112
I781
aI785
ag645
a(lp2113
(lp2114
I781
ag1148
aa(lp2115
I782
ag1203
aa(lp2116
I783
ag1148
aa(lp2117
I784
ag1138
aa(lp2118
I785
ag1140
aaaa(lp2119
I788
aI790
ag654
a(lp2120
(lp2121
I788
ag1140
aa(lp2122
I789
ag1142
aa(lp2123
I790
ag1275
aaaa(lp2124
I794
aI795
aS'my'
p2125
a(lp2126
(lp2127
I794
ag1190
aa(lp2128
I795
ag1121
aaaa(lp2129
I797
aI803
ag663
a(lp2130
(lp2131
I797
ag1131
aa(lp2132
I798
ag1123
aa(lp2133
I799
ag1134
aa(lp2134
I800
ag1136
aa(lp2135
I801
ag1138
aa(lp2136
I802
ag1140
aa(lp2137
I803
ag1142
aaaa(lp2138
I805
aI809
ag672
a(lp2139
(lp2140
I805
ag1146
aa(lp2141
I806
ag1148
aa(lp2142
I807
ag1123
aa(lp2143
I808
ag1127
aa(lp2144
I809
ag1121
aaaa(lp2145
I813
aI814
aS'my'
p2146
a(lp2147
(lp2148
I813
ag1190
aa(lp2149
I814
ag1121
aaaa(lp2150
I816
aI822
ag681
a(lp2151
(lp2152
I816
ag1131
aa(lp2153
I817
ag1123
aa(lp2154
I818
ag1134
aa(lp2155
I819
ag1136
aa(lp2156
I820
ag1138
aa(lp2157
I821
ag1140
aa(lp2158
I822
ag1142
aaaa(lp2159
I824
aI829
ag690
a(lp2160
(lp2161
I824
ag1127
aa(lp2162
I825
ag1140
aa(lp2163
I826
ag1201
aa(lp2164
I827
ag1203
aa(lp2165
I828
ag1140
aa(lp2166
I829
ag1134
aaaa(lp2167
I833
aI835
aS'why'
p2168
a(lp2169
(lp2170
I833
ag1134
aa(lp2171
I834
ag1187
aa(lp2172
I835
ag1121
aaaa(lp2173
I837
aI837
ag1203
a(lp2174
(lp2175
I837
ag1203
aaaa(lp2176
I839
aI842
ag699
a(lp2177
(lp2178
I839
ag1138
aa(lp2179
I840
ag1123
aa(lp2180
I841
ag1201
aa(lp2181
I842
ag1140
aaaa(lp2182
I844
aI845
aS'my'
p2183
a(lp2184
(lp2185
I844
ag1190
aa(lp2186
I845
ag1121
aaaa(lp2187
I847
aI853
ag708
a(lp2188
(lp2189
I847
ag1131
aa(lp2190
I848
ag1123
aa(lp2191
I849
ag1134
aa(lp2192
I850
ag1136
aa(lp2193
I851
ag1138
aa(lp2194
I852
ag1140
aa(lp2195
I853
ag1142
aaaa(lp2196
I856
aI858
ag717
a(lp2197
(lp2198
I856
ag1140
aa(lp2199
I857
ag1148
aa(lp2200
I858
ag1282
aaaa(lp2201
I862
aI867
ag726
a(lp2202
(lp2203
I862
ag1275
aa(lp2204
I863
ag1138
aa(lp2205
I864
ag1140
aa(lp2206
I865
ag1172
aa(lp2207
I866
ag1146
aa(lp2208
I867
ag1140
aaaa(lp2209
I869
aI873
ag735
a(lp2210
(lp2211
I869
ag1146
aa(lp2212
I870
ag1187
aa(lp2213
I871
ag1172
aa(lp2214
I872
ag1127
aa(lp2215
I873
ag1140
aaaa(lp2216
I875
aI878
aS'your'
p2217
a(lp2218
(lp2219
I875
ag1121
aa(lp2220
I876
ag1123
aa(lp2221
I877
ag1125
aa(lp2222
I878
ag1127
aaaa(lp2223
I880
aI890
ag744
a(lp2224
(lp2225
I880
ag1140
aa(lp2226
I881
ag1142
aa(lp2227
I882
ag1275
aa(lp2228
I883
ag1140
aa(lp2229
I884
ag1127
aa(lp2230
I885
ag1203
aa(lp2231
I886
ag1140
aa(lp2232
I887
ag1170
aa(lp2233
I888
ag1282
aa(lp2234
I889
ag1140
aa(lp2235
I890
ag1146
aaaa(lp2236
I897
aI901
ag753
a(lp2237
(lp2238
I897
ag1282
aa(lp2239
I898
ag1138
aa(lp2240
I899
ag1123
aa(lp2241
I900
ag1146
aa(lp2242
I901
ag1140
aaaa(lp2243
I903
aI906
ag762
a(lp2244
(lp2245
I903
ag1187
aa(lp2246
I904
ag1140
aa(lp2247
I905
ag1138
aa(lp2248
I906
ag1275
aaaa(lp2249
I908
aI915
ag771
a(lp2250
(lp2251
I908
ag1140
aa(lp2252
I909
ag1170
aa(lp2253
I910
ag1148
aa(lp2254
I911
ag1140
aa(lp2255
I912
ag1127
aa(lp2256
I913
ag1203
aa(lp2257
I914
ag1170
aa(lp2258
I915
ag1195
aaaa(lp2259
I917
aI920
aS'your'
p2260
a(lp2261
(lp2262
I917
ag1121
aa(lp2263
I918
ag1123
aa(lp2264
I919
ag1125
aa(lp2265
I920
ag1127
aaaa(lp2266
I922
aI926
ag780
a(lp2267
(lp2268
I922
ag1146
aa(lp2269
I923
ag1148
aa(lp2270
I924
ag1123
aa(lp2271
I925
ag1127
aa(lp2272
I926
ag1121
aaaa(lp2273
I928
aI929
aS'is'
p2274
a(lp2275
(lp2276
I928
ag1203
aa(lp2277
I929
ag1146
aaaa(lp2278
I931
aI934
ag789
a(lp2279
(lp2280
I931
ag1140
aa(lp2281
I932
ag1172
aa(lp2282
I933
ag1146
aa(lp2283
I934
ag1121
aaaa(lp2284
I936
aI937
aS'to'
p2285
a(lp2286
(lp2287
I936
ag1148
aa(lp2288
I937
ag1123
aaaa(lp2289
I939
aI940
aS'do'
p2290
a(lp2291
(lp2292
I939
ag1156
aa(lp2293
I940
ag1123
aaaa(lp2294
I943
aI946
aS'just'
p2295
a(lp2296
(lp2297
I943
ag1347
aa(lp2298
I944
ag1125
aa(lp2299
I945
ag1146
aa(lp2300
I946
ag1148
aaaa(lp2301
I948
aI951
ag798
a(lp2302
(lp2303
I948
ag1148
aa(lp2304
I949
ag1121
aa(lp2305
I950
ag1275
aa(lp2306
I951
ag1140
aaaa(lp2307
I957
aI960
aS'your'
p2308
a(lp2309
(lp2310
I957
ag1121
aa(lp2311
I958
ag1123
aa(lp2312
I959
ag1125
aa(lp2313
I960
ag1127
aaaa(lp2314
I962
aI966
ag807
a(lp2315
(lp2316
I962
ag1146
aa(lp2317
I963
ag1148
aa(lp2318
I964
ag1123
aa(lp2319
I965
ag1127
aa(lp2320
I966
ag1121
aaaa(lp2321
I968
aI971
aS'will'
p2322
a(lp2323
(lp2324
I968
ag1134
aa(lp2325
I969
ag1203
aa(lp2326
I970
ag1138
aa(lp2327
I971
ag1138
aaaa(lp2328
I973
aI978
ag816
a(lp2329
(lp2330
I973
ag1172
aa(lp2331
I974
ag1275
aa(lp2332
I975
ag1275
aa(lp2333
I976
ag1140
aa(lp2334
I977
ag1172
aa(lp2335
I978
ag1127
aaaa(lp2336
I980
aI981
aS'on'
p2337
a(lp2338
(lp2339
I980
ag1123
aa(lp2340
I981
ag1170
aaaa(lp2341
I983
aI983
ag1172
a(lp2342
(lp2343
I983
ag1172
aaaa(lp2344
I985
aI987
ag825
a(lp2345
(lp2346
I985
ag1134
aa(lp2347
I986
ag1140
aa(lp2348
I987
ag1131
aaaa(lp2349
I989
aI992
ag834
a(lp2350
(lp2351
I989
ag1275
aa(lp2352
I990
ag1172
aa(lp2353
I991
ag1195
aa(lp2354
I992
ag1140
aaaa(lp2355
I994
aI1000
ag843
a(lp2356
(lp2357
I994
ag1140
aa(lp2358
I995
ag1142
aa(lp2359
I996
ag1172
aa(lp2360
I997
ag1282
aa(lp2361
I998
ag1148
aa(lp2362
I999
ag1138
aa(lp2363
I1000
ag1121
aaaa(lp2364
I1002
aI1004
aS'the'
p2365
a(lp2366
(lp2367
I1002
ag1148
aa(lp2368
I1003
ag1187
aa(lp2369
I1004
ag1140
aaaa(lp2370
I1006
aI1008
ag852
a(lp2371
(lp2372
I1006
ag1134
aa(lp2373
I1007
ag1172
aa(lp2374
I1008
ag1121
aaaa(lp2375
I1010
aI1012
aS'you'
p2376
a(lp2377
(lp2378
I1010
ag1121
aa(lp2379
I1011
ag1123
aa(lp2380
I1012
ag1125
aaaa(lp2381
I1014
aI1018
ag861
a(lp2382
(lp2383
I1014
ag1140
aa(lp2384
I1015
ag1170
aa(lp2385
I1016
ag1148
aa(lp2386
I1017
ag1140
aa(lp2387
I1018
ag1127
aaaa(lp2388
I1020
aI1021
aS'it'
p2389
a(lp2390
(lp2391
I1020
ag1203
aa(lp2392
I1021
ag1148
aaaa(lp2393
I1023
aI1026
aS'here'
p2394
a(lp2395
(lp2396
I1023
ag1187
aa(lp2397
I1024
ag1140
aa(lp2398
I1025
ag1127
aa(lp2399
I1026
ag1140
aaaa(lp2400
I1029
aI1031
aS'you'
p2401
a(lp2402
(lp2403
I1029
ag1121
aa(lp2404
I1030
ag1123
aa(lp2405
I1031
ag1125
aaaa(lp2406
I1033
aI1035
aS'can'
p2407
a(lp2408
(lp2409
I1033
ag1282
aa(lp2410
I1034
ag1172
aa(lp2411
I1035
ag1170
aaaa(lp2412
I1037
aI1040
ag870
a(lp2413
(lp2414
I1037
ag1134
aa(lp2415
I1038
ag1127
aa(lp2416
I1039
ag1172
aa(lp2417
I1040
ag1275
aaaa(lp2418
I1042
aI1042
ag1172
a(lp2419
(lp2420
I1042
ag1172
aaaa(lp2421
I1044
aI1047
ag879
a(lp2422
(lp2423
I1044
ag1134
aa(lp2424
I1045
ag1123
aa(lp2425
I1046
ag1127
aa(lp2426
I1047
ag1156
aaaa(lp2427
I1049
aI1050
aS'in'
p2428
a(lp2429
(lp2430
I1049
ag1203
aa(lp2431
I1050
ag1170
aaaa(lp2432
I1052
aI1057
ag888
a(lp2433
(lp2434
I1052
ag1146
aa(lp2435
I1053
ag1532
aa(lp2436
I1054
ag1125
aa(lp2437
I1055
ag1172
aa(lp2438
I1056
ag1127
aa(lp2439
I1057
ag1140
aaaa(lp2440
I1059
aI1066
ag897
a(lp2441
(lp2442
I1059
ag1131
aa(lp2443
I1060
ag1127
aa(lp2444
I1061
ag1172
aa(lp2445
I1062
ag1282
aa(lp2446
I1063
ag1252
aa(lp2447
I1064
ag1140
aa(lp2448
I1065
ag1148
aa(lp2449
I1066
ag1146
aaaa(lp2450
I1068
aI1069
aS'to'
p2451
a(lp2452
(lp2453
I1068
ag1148
aa(lp2454
I1069
ag1123
aaaa(lp2455
I1071
aI1074
ag906
a(lp2456
(lp2457
I1071
ag1190
aa(lp2458
I1072
ag1172
aa(lp2459
I1073
ag1252
aa(lp2460
I1074
ag1140
aaaa(lp2461
I1076
aI1077
aS'it'
p2462
a(lp2463
(lp2464
I1076
ag1203
aa(lp2465
I1077
ag1148
aaaa(lp2466
I1079
aI1084
ag915
a(lp2467
(lp2468
I1079
ag1172
aa(lp2469
I1080
ag1275
aa(lp2470
I1081
ag1275
aa(lp2471
I1082
ag1140
aa(lp2472
I1083
ag1172
aa(lp2473
I1084
ag1127
aaaa(lp2474
I1086
aI1089
ag924
a(lp2475
(lp2476
I1086
ag1131
aa(lp2477
I1087
ag1123
aa(lp2478
I1088
ag1138
aa(lp2479
I1089
ag1156
aaaa(lp2480
I1092
aI1094
aS'for'
p2481
a(lp2482
(lp2483
I1092
ag1136
aa(lp2484
I1093
ag1123
aa(lp2485
I1094
ag1127
aaaa(lp2486
I1096
aI1102
ag933
a(lp2487
(lp2488
I1096
ag1140
aa(lp2489
I1097
ag1142
aa(lp2490
I1098
ag1172
aa(lp2491
I1099
ag1190
aa(lp2492
I1100
ag1275
aa(lp2493
I1101
ag1138
aa(lp2494
I1102
ag1140
aaaa(lp2495
I1105
aI1106
aS'my'
p2496
a(lp2497
(lp2498
I1105
ag1190
aa(lp2499
I1106
ag1121
aaaa(lp2500
I1108
aI1112
ag942
a(lp2501
(lp2502
I1108
ag1146
aa(lp2503
I1109
ag1148
aa(lp2504
I1110
ag1123
aa(lp2505
I1111
ag1127
aa(lp2506
I1112
ag1121
aaaa(lp2507
I1115
aI1119
ag951
a(lp2508
(lp2509
I1115
ag1134
aa(lp2510
I1116
ag1123
aa(lp2511
I1117
ag1125
aa(lp2512
I1118
ag1138
aa(lp2513
I1119
ag1156
aaaa(lp2514
I1121
aI1124
ag960
a(lp2515
(lp2516
I1121
ag1146
aa(lp2517
I1122
ag1187
aa(lp2518
I1123
ag1123
aa(lp2519
I1124
ag1134
aaaa(lp2520
I1126
aI1127
aS'as'
p2521
a(lp2522
(lp2523
I1126
ag1172
aa(lp2524
I1127
ag1146
aaaa(lp2525
I1129
aI1130
aS'on'
p2526
a(lp2527
(lp2528
I1129
ag1123
aa(lp2529
I1130
ag1170
aaaa(lp2530
I1132
aI1134
aS'the'
p2531
a(lp2532
(lp2533
I1132
ag1148
aa(lp2534
I1133
ag1187
aa(lp2535
I1134
ag1140
aaaa(lp2536
I1136
aI1138
ag969
a(lp2537
(lp2538
I1136
ag1134
aa(lp2539
I1137
ag1140
aa(lp2540
I1138
ag1131
aaaa(lp2541
I1140
aI1143
ag978
a(lp2542
(lp2543
I1140
ag1275
aa(lp2544
I1141
ag1172
aa(lp2545
I1142
ag1195
aa(lp2546
I1143
ag1140
aaaa(lp2547
I1145
aI1154
ag987
a(lp2548
(lp2549
I1145
ag1282
aa(lp2550
I1146
ag1123
aa(lp2551
I1147
ag1170
aa(lp2552
I1148
ag1148
aa(lp2553
I1149
ag1172
aa(lp2554
I1150
ag1203
aa(lp2555
I1151
ag1170
aa(lp2556
I1152
ag1203
aa(lp2557
I1153
ag1170
aa(lp2558
I1154
ag1195
aaaa(lp2559
I1156
aI1159
aS'your'
p2560
a(lp2561
(lp2562
I1156
ag1121
aa(lp2563
I1157
ag1123
aa(lp2564
I1158
ag1125
aa(lp2565
I1159
ag1127
aaaa(lp2566
I1161
aI1165
ag996
a(lp2567
(lp2568
I1161
ag1146
aa(lp2569
I1162
ag1148
aa(lp2570
I1163
ag1123
aa(lp2571
I1164
ag1127
aa(lp2572
I1165
ag1121
aaaa(lp2573
I1168
aI1170
ag1005
a(lp2574
(lp2575
I1168
ag1148
aa(lp2576
I1169
ag1203
aa(lp2577
I1170
ag1275
aaaa(lp2578
I1173
aI1177
ag1014
a(lp2579
(lp2580
I1173
ag1146
aa(lp2581
I1174
ag1203
aa(lp2582
I1175
ag1170
aa(lp2583
I1176
ag1282
aa(lp2584
I1177
ag1140
aaaa(lp2585
I1179
aI1182
aS'most'
p2586
a(lp2587
(lp2588
I1179
ag1190
aa(lp2589
I1180
ag1123
aa(lp2590
I1181
ag1146
aa(lp2591
I1182
ag1148
aaaa(lp2592
I1184
aI1189
ag1023
a(lp2593
(lp2594
I1184
ag1275
aa(lp2595
I1185
ag1140
aa(lp2596
I1186
ag1123
aa(lp2597
I1187
ag1275
aa(lp2598
I1188
ag1138
aa(lp2599
I1189
ag1140
aaaa(lp2600
I1191
aI1194
ag1032
a(lp2601
(lp2602
I1191
ag1146
aa(lp2603
I1192
ag1282
aa(lp2604
I1193
ag1172
aa(lp2605
I1194
ag1170
aaaa(lp2606
I1196
aI1198
ag1041
a(lp2607
(lp2608
I1196
ag1134
aa(lp2609
I1197
ag1140
aa(lp2610
I1198
ag1131
aaaa(lp2611
I1200
aI1204
ag1050
a(lp2612
(lp2613
I1200
ag1275
aa(lp2614
I1201
ag1172
aa(lp2615
I1202
ag1195
aa(lp2616
I1203
ag1140
aa(lp2617
I1204
ag1146
aaaa(lp2618
I1207
aI1213
ag1059
a(lp2619
(lp2620
I1207
ag1203
aa(lp2621
I1208
ag1170
aa(lp2622
I1209
ag1282
aa(lp2623
I1210
ag1138
aa(lp2624
I1211
ag1125
aa(lp2625
I1212
ag1156
aa(lp2626
I1213
ag1140
aaaa(lp2627
I1215
aI1218
aS'your'
p2628
a(lp2629
(lp2630
I1215
ag1121
aa(lp2631
I1216
ag1123
aa(lp2632
I1217
ag1125
aa(lp2633
I1218
ag1127
aaaa(lp2634
I1220
aI1223
ag1068
a(lp2635
(lp2636
I1220
ag1131
aa(lp2637
I1221
ag1140
aa(lp2638
I1222
ag1146
aa(lp2639
I1223
ag1148
aaaa(lp2640
I1225
aI1232
ag1077
a(lp2641
(lp2642
I1225
ag1148
aa(lp2643
I1226
ag1187
aa(lp2644
I1227
ag1123
aa(lp2645
I1228
ag1125
aa(lp2646
I1229
ag1195
aa(lp2647
I1230
ag1187
aa(lp2648
I1231
ag1148
aa(lp2649
I1232
ag1146
aaaa(lp2650
I1234
aI1235
aS'in'
p2651
a(lp2652
(lp2653
I1234
ag1203
aa(lp2654
I1235
ag1170
aaaa(lp2655
I1237
aI1240
aS'your'
p2656
a(lp2657
(lp2658
I1237
ag1121
aa(lp2659
I1238
ag1123
aa(lp2660
I1239
ag1125
aa(lp2661
I1240
ag1127
aaaa(lp2662
I1242
aI1246
ag1086
a(lp2663
(lp2664
I1242
ag1136
aa(lp2665
I1243
ag1203
aa(lp2666
I1244
ag1127
aa(lp2667
I1245
ag1146
aa(lp2668
I1246
ag1148
aaaa(lp2669
I1248
aI1256
ag1095
a(lp2670
(lp2671
I1248
ag1275
aa(lp2672
I1249
ag1172
aa(lp2673
I1250
ag1127
aa(lp2674
I1251
ag1172
aa(lp2675
I1252
ag1195
aa(lp2676
I1253
ag1127
aa(lp2677
I1254
ag1172
aa(lp2678
I1255
ag1275
aa(lp2679
I1256
ag1187
aaaa(lp2680
I1259
aI1260
aS'my'
p2681
a(lp2682
(lp2683
I1259
ag1190
aa(lp2684
I1260
ag1121
aaaa(lp2685
I1259
aI1260
ag1104
a(lp2686
(lp2687
I1262
ag1146
aa(lp2688
I1263
ag1148
aa(lp2689
I1264
ag1123
aa(lp2690
I1265
ag1127
aa(lp2691
I1266
ag1121
aaaasS'cleanCharacterMap'
p2692
(lp2693
g1116
a(lp2694
I2
aS' '
p2695
aag1120
ag1122
ag1124
ag1126
a(lp2696
I7
ag2695
aag1130
ag1132
ag1133
ag1135
ag1137
ag1139
ag1141
a(lp2697
I15
ag2695
aag1145
ag1147
ag1149
ag1150
ag1151
a(lp2698
I21
ag2695
aag1155
ag1157
a(lp2699
I24
ag2695
aag1161
ag1162
ag1163
a(lp2700
I28
ag2695
aag1167
ag1168
ag1169
a(lp2701
I32
ag2695
aag1174
a(lp2702
I34
ag2695
aag1177
ag1178
ag1179
ag1180
ag1181
ag1182
ag1183
a(lp2703
I42
ag2695
aag1186
ag1188
ag1189
ag1191
a(lp2704
I47
ag2695
aag1194
ag1196
ag1197
a(lp2705
I52
ag2695
aag1200
ag1202
ag1204
ag1205
ag1206
ag1207
ag1208
ag1209
a(lp2706
I61
ag2695
aag1213
ag1214
a(lp2707
I64
ag2695
aag1218
ag1219
ag1220
ag1221
a(lp2708
I69
ag2695
aag1224
ag1225
ag1226
ag1227
ag1228
ag1229
ag1230
a(lp2709
I77
ag2695
aag1233
ag1234
ag1235
ag1236
ag1237
a(lp2710
I83
ag2695
aag1240
ag1241
ag1242
ag1243
a(lp2711
I88
ag2695
aag1247
ag1248
a(lp2712
I91
ag2695
aag1251
ag1253
ag1254
ag1255
a(lp2713
I96
ag2695
aag1259
ag1260
ag1261
ag1262
a(lp2714
I101
ag2695
aag1266
ag1267
ag1268
ag1269
a(lp2715
I106
ag2695
aag1272
ag1273
ag1274
ag1276
ag1277
ag1278
ag1279
ag1280
ag1281
ag1283
ag1284
a(lp2716
I118
ag2695
aag1288
ag1289
ag1290
ag1291
a(lp2717
I123
ag2695
aag1295
ag1296
ag1297
ag1298
a(lp2718
I129
ag2695
aag1301
ag1302
ag1303
ag1304
ag1305
ag1306
ag1307
a(lp2719
I137
ag2695
aag1311
ag1312
ag1313
ag1314
a(lp2720
I142
ag2695
aag1317
ag1318
ag1319
ag1320
ag1321
a(lp2721
I148
ag2695
aag1325
ag1326
a(lp2722
I151
ag2695
aag1329
ag1330
ag1331
ag1332
a(lp2723
I156
ag2695
aag1336
ag1337
a(lp2724
I159
ag2695
aag1341
ag1342
a(lp2725
I163
ag2695
aag1346
ag1348
ag1349
ag1350
a(lp2726
I168
ag2695
aag1353
ag1354
ag1355
ag1356
a(lp2727
I177
ag2695
aag1360
ag1361
ag1362
ag1363
a(lp2728
I182
ag2695
aag1366
ag1367
ag1368
ag1369
ag1370
a(lp2729
I188
ag2695
aag1374
ag1375
ag1376
ag1377
a(lp2730
I193
ag2695
aag1380
ag1381
ag1382
ag1383
ag1384
ag1385
a(lp2731
I200
ag2695
aag1389
ag1390
a(lp2732
I203
ag2695
aag1393
a(lp2733
I205
ag2695
aag1396
ag1397
ag1398
a(lp2734
I209
ag2695
aag1401
ag1402
ag1403
ag1404
a(lp2735
I214
ag2695
aag1407
ag1408
ag1409
ag1410
ag1411
ag1412
ag1413
a(lp2736
I222
ag2695
aag1417
ag1418
ag1419
a(lp2737
I226
ag2695
aag1422
ag1423
ag1424
a(lp2738
I230
ag2695
aag1428
ag1429
ag1430
a(lp2739
I234
ag2695
aag1433
ag1434
ag1435
ag1436
ag1437
a(lp2740
I240
ag2695
aag1441
ag1442
a(lp2741
I243
ag2695
aag1446
ag1447
ag1448
ag1449
a(lp2742
I249
ag2695
aag1452
ag1453
ag1454
ag1455
a(lp2743
I255
ag2695
aag1458
ag1459
ag1460
ag1461
ag1462
a(lp2744
I262
ag2695
aag1465
ag1466
ag1467
ag1468
ag1469
a(lp2745
I269
ag2695
aag1473
ag1474
a(lp2746
I272
ag2695
aag1477
ag1478
ag1479
ag1480
a(lp2747
I277
ag2695
aag1484
ag1485
a(lp2748
I280
ag2695
aag1488
ag1489
ag1490
ag1491
a(lp2749
I285
ag2695
aag1495
ag1496
a(lp2750
I288
ag2695
aag1500
ag1501
a(lp2751
I291
ag2695
aag1505
ag1506
ag1507
a(lp2752
I295
ag2695
aag1510
ag1511
ag1512
ag1513
a(lp2753
I300
ag2695
aag1516
ag1517
ag1518
ag1519
a(lp2754
I306
ag2695
aag1522
a(lp2755
I308
ag2695
aag1526
ag1527
ag1528
a(lp2756
I312
ag2695
aag1531
ag1533
ag1534
ag1535
ag1536
ag1537
ag1538
ag1539
ag1540
a(lp2757
I322
ag2695
aag1543
ag1544
ag1545
ag1546
ag1547
ag1548
ag1549
ag1550
a(lp2758
I331
ag2695
aag1553
ag1554
ag1555
ag1556
ag1557
a(lp2759
I337
ag2695
aag1560
ag1561
ag1562
ag1563
a(lp2760
I342
ag2695
aag1567
ag1568
a(lp2761
I345
ag2695
aag1571
ag1572
ag1573
a(lp2762
I349
ag2695
aag1577
ag1578
ag1579
a(lp2763
I354
ag2695
aag1583
ag1584
ag1585
a(lp2764
I358
ag2695
aag1588
ag1589
ag1590
ag1591
a(lp2765
I363
ag2695
aag1595
ag1596
a(lp2766
I366
ag2695
aag1600
ag1601
ag1602
a(lp2767
I370
ag2695
aag1605
ag1606
ag1607
ag1608
a(lp2768
I375
ag2695
aag1612
ag1613
ag1614
ag1615
a(lp2769
I380
ag2695
aag1618
ag1619
ag1620
ag1621
ag1622
ag1623
ag1624
a(lp2770
I388
ag2695
aag1628
ag1629
a(lp2771
I391
ag2695
aag1632
ag1633
ag1634
ag1635
a(lp2772
I397
ag2695
aag1639
ag1640
ag1641
ag1642
a(lp2773
I402
ag2695
aag1646
ag1647
ag1648
a(lp2774
I406
ag2695
aag1651
ag1652
ag1653
ag1654
ag1655
a(lp2775
I412
ag2695
aag1659
ag1660
ag1661
ag1662
a(lp2776
I417
ag2695
aag1666
ag1667
ag1668
ag1669
a(lp2777
I422
ag2695
aag1672
ag1673
ag1674
ag1675
ag1676
ag1677
ag1678
a(lp2778
I430
ag2695
aag1682
ag1683
ag1684
a(lp2779
I434
ag2695
aag1687
ag1688
ag1689
ag1690
ag1691
ag1692
a(lp2780
I441
ag2695
aag1695
ag1696
ag1697
ag1698
ag1699
ag1700
ag1701
ag1702
ag1703
a(lp2781
I451
ag2695
aag1707
ag1708
ag1709
a(lp2782
I455
ag2695
aag1713
ag1714
ag1715
ag1716
a(lp2783
I460
ag2695
aag1719
ag1720
ag1721
ag1722
ag1723
a(lp2784
I467
ag2695
aag1727
ag1728
ag1729
ag1730
a(lp2785
I472
ag2695
aag1734
ag1735
ag1736
a(lp2786
I476
ag2695
aag1739
ag1740
ag1741
ag1742
ag1743
a(lp2787
I482
ag2695
aag1747
ag1748
ag1749
ag1750
a(lp2788
I487
ag2695
aag1754
ag1755
ag1756
ag1757
a(lp2789
I492
ag2695
aag1760
ag1761
ag1762
ag1763
ag1764
ag1765
ag1766
a(lp2790
I500
ag2695
aag1769
ag1770
ag1771
ag1772
ag1773
a(lp2791
I506
ag2695
aag1777
ag1778
a(lp2792
I509
ag2695
aag1782
ag1783
a(lp2793
I512
ag2695
aag1787
ag1788
ag1789
a(lp2794
I517
ag2695
aag1792
ag1793
ag1794
ag1795
ag1796
ag1797
ag1798
ag1799
a(lp2795
I527
ag2695
aag1803
ag1804
ag1805
ag1806
a(lp2796
I532
ag2695
aag1810
ag1811
ag1812
a(lp2797
I536
ag2695
aag1815
ag1816
ag1817
ag1818
ag1819
a(lp2798
I542
ag2695
aag1823
ag1824
ag1825
ag1826
a(lp2799
I547
ag2695
aag1830
ag1831
ag1832
ag1833
a(lp2800
I552
ag2695
aag1836
ag1837
ag1838
ag1839
ag1840
ag1841
ag1842
a(lp2801
I560
ag2695
aag1846
ag1847
ag1848
a(lp2802
I564
ag2695
aag1851
ag1852
ag1853
ag1854
ag1855
ag1856
a(lp2803
I571
ag2695
aag1859
ag1860
ag1861
ag1862
ag1863
ag1864
ag1865
ag1866
ag1867
ag1868
a(lp2804
I583
ag2695
aag1872
ag1873
ag1874
ag1875
a(lp2805
I588
ag2695
aag1879
ag1880
ag1881
a(lp2806
I592
ag2695
aag1884
ag1885
ag1886
ag1887
ag1888
a(lp2807
I598
ag2695
aag1892
ag1893
ag1894
ag1895
a(lp2808
I603
ag2695
aag1899
ag1900
ag1901
ag1902
a(lp2809
I608
ag2695
aag1905
ag1906
ag1907
ag1908
ag1909
ag1910
ag1911
a(lp2810
I616
ag2695
aag1915
ag1916
a(lp2811
I619
ag2695
aag1919
ag1920
ag1921
ag1922
ag1923
ag1924
a(lp2812
I626
ag2695
aag1928
ag1929
ag1930
ag1931
a(lp2813
I631
ag2695
aag1935
ag1936
ag1937
ag1938
ag1939
a(lp2814
I637
ag2695
aag1942
ag1943
ag1944
ag1945
a(lp2815
I642
ag2695
aag1948
ag1949
ag1950
ag1951
a(lp2816
I647
ag2695
aag1954
ag1955
ag1956
ag1957
ag1958
a(lp2817
I654
ag2695
aag1961
ag1962
ag1963
ag1964
ag1965
a(lp2818
I661
ag2695
aag1969
ag1970
ag1971
ag1972
a(lp2819
I666
ag2695
aag1976
ag1977
ag1978
a(lp2820
I670
ag2695
aag1981
ag1982
ag1983
ag1984
ag1985
a(lp2821
I676
ag2695
aag1989
ag1990
ag1991
ag1992
a(lp2822
I681
ag2695
aag1996
ag1997
ag1998
ag1999
a(lp2823
I686
ag2695
aag2002
ag2003
ag2004
ag2005
ag2006
ag2007
ag2008
a(lp2824
I694
ag2695
aag2012
ag2013
a(lp2825
I697
ag2695
aag2016
ag2017
ag2018
ag2019
ag2020
a(lp2826
I703
ag2695
aag2024
ag2025
ag2026
a(lp2827
I707
ag2695
aag2029
ag2030
ag2031
ag2032
ag2033
a(lp2828
I714
ag2695
aag2036
ag2037
ag2038
ag2039
ag2040
a(lp2829
I720
ag2695
aag2044
ag2045
ag2046
a(lp2830
I724
ag2695
aag2049
ag2050
ag2051
ag2052
ag2053
ag2054
ag2055
ag2056
ag2057
a(lp2831
I734
ag2695
aag2060
ag2061
ag2062
ag2063
ag2064
ag2065
ag2066
a(lp2832
I742
ag2695
aag2069
a(lp2833
I744
ag2695
aag2072
ag2073
ag2074
ag2075
ag2076
ag2077
ag2078
a(lp2834
I752
ag2695
aag2081
ag2082
ag2083
ag2084
a(lp2835
I757
ag2695
aag2087
ag2088
ag2089
a(lp2836
I762
ag2695
aag2092
ag2093
ag2094
ag2095
ag2096
ag2097
a(lp2837
I769
ag2695
aag2100
ag2101
ag2102
ag2103
ag2104
a(lp2838
I775
ag2695
aag2108
ag2109
ag2110
ag2111
a(lp2839
I780
ag2695
aag2114
ag2115
ag2116
ag2117
ag2118
a(lp2840
I786
ag2695
aag2121
ag2122
ag2123
a(lp2841
I792
ag2695
aag2127
ag2128
a(lp2842
I796
ag2695
aag2131
ag2132
ag2133
ag2134
ag2135
ag2136
ag2137
a(lp2843
I804
ag2695
aag2140
ag2141
ag2142
ag2143
ag2144
a(lp2844
I811
ag2695
aag2148
ag2149
a(lp2845
I815
ag2695
aag2152
ag2153
ag2154
ag2155
ag2156
ag2157
ag2158
a(lp2846
I823
ag2695
aag2161
ag2162
ag2163
ag2164
ag2165
ag2166
a(lp2847
I831
ag2695
aag2170
ag2171
ag2172
a(lp2848
I836
ag2695
aag2175
a(lp2849
I838
ag2695
aag2178
ag2179
ag2180
ag2181
a(lp2850
I843
ag2695
aag2185
ag2186
a(lp2851
I846
ag2695
aag2189
ag2190
ag2191
ag2192
ag2193
ag2194
ag2195
a(lp2852
I855
ag2695
aag2198
ag2199
ag2200
a(lp2853
I861
ag2695
aag2203
ag2204
ag2205
ag2206
ag2207
ag2208
a(lp2854
I868
ag2695
aag2211
ag2212
ag2213
ag2214
ag2215
a(lp2855
I874
ag2695
aag2219
ag2220
ag2221
ag2222
a(lp2856
I879
ag2695
aag2225
ag2226
ag2227
ag2228
ag2229
ag2230
ag2231
ag2232
ag2233
ag2234
ag2235
a(lp2857
I892
ag2695
aa(lp2858
I894
ag2695
aa(lp2859
I896
ag2695
aag2238
ag2239
ag2240
ag2241
ag2242
a(lp2860
I902
ag2695
aag2245
ag2246
ag2247
ag2248
a(lp2861
I907
ag2695
aag2251
ag2252
ag2253
ag2254
ag2255
ag2256
ag2257
ag2258
a(lp2862
I916
ag2695
aag2262
ag2263
ag2264
ag2265
a(lp2863
I921
ag2695
aag2268
ag2269
ag2270
ag2271
ag2272
a(lp2864
I927
ag2695
aag2276
ag2277
a(lp2865
I930
ag2695
aag2280
ag2281
ag2282
ag2283
a(lp2866
I935
ag2695
aag2287
ag2288
a(lp2867
I938
ag2695
aag2292
ag2293
a(lp2868
I942
ag2695
aag2297
ag2298
ag2299
ag2300
a(lp2869
I947
ag2695
aag2303
ag2304
ag2305
ag2306
a(lp2870
I956
ag2695
aag2310
ag2311
ag2312
ag2313
a(lp2871
I961
ag2695
aag2316
ag2317
ag2318
ag2319
ag2320
a(lp2872
I967
ag2695
aag2324
ag2325
ag2326
ag2327
a(lp2873
I972
ag2695
aag2330
ag2331
ag2332
ag2333
ag2334
ag2335
a(lp2874
I979
ag2695
aag2339
ag2340
a(lp2875
I982
ag2695
aag2343
a(lp2876
I984
ag2695
aag2346
ag2347
ag2348
a(lp2877
I988
ag2695
aag2351
ag2352
ag2353
ag2354
a(lp2878
I993
ag2695
aag2357
ag2358
ag2359
ag2360
ag2361
ag2362
ag2363
a(lp2879
I1001
ag2695
aag2367
ag2368
ag2369
a(lp2880
I1005
ag2695
aag2372
ag2373
ag2374
a(lp2881
I1009
ag2695
aag2378
ag2379
ag2380
a(lp2882
I1013
ag2695
aag2383
ag2384
ag2385
ag2386
ag2387
a(lp2883
I1019
ag2695
aag2391
ag2392
a(lp2884
I1022
ag2695
aag2396
ag2397
ag2398
ag2399
a(lp2885
I1028
ag2695
aag2403
ag2404
ag2405
a(lp2886
I1032
ag2695
aag2409
ag2410
ag2411
a(lp2887
I1036
ag2695
aag2414
ag2415
ag2416
ag2417
a(lp2888
I1041
ag2695
aag2420
a(lp2889
I1043
ag2695
aag2423
ag2424
ag2425
ag2426
a(lp2890
I1048
ag2695
aag2430
ag2431
a(lp2891
I1051
ag2695
aag2434
ag2435
ag2436
ag2437
ag2438
ag2439
a(lp2892
I1058
ag2695
aag2442
ag2443
ag2444
ag2445
ag2446
ag2447
ag2448
ag2449
a(lp2893
I1067
ag2695
aag2453
ag2454
a(lp2894
I1070
ag2695
aag2457
ag2458
ag2459
ag2460
a(lp2895
I1075
ag2695
aag2464
ag2465
a(lp2896
I1078
ag2695
aag2468
ag2469
ag2470
ag2471
ag2472
ag2473
a(lp2897
I1085
ag2695
aag2476
ag2477
ag2478
ag2479
a(lp2898
I1091
ag2695
aag2483
ag2484
ag2485
a(lp2899
I1095
ag2695
aag2488
ag2489
ag2490
ag2491
ag2492
ag2493
ag2494
a(lp2900
I1103
ag2695
aag2498
ag2499
a(lp2901
I1107
ag2695
aag2502
ag2503
ag2504
ag2505
ag2506
a(lp2902
I1114
ag2695
aag2509
ag2510
ag2511
ag2512
ag2513
a(lp2903
I1120
ag2695
aag2516
ag2517
ag2518
ag2519
a(lp2904
I1125
ag2695
aag2523
ag2524
a(lp2905
I1128
ag2695
aag2528
ag2529
a(lp2906
I1131
ag2695
aag2533
ag2534
ag2535
a(lp2907
I1135
ag2695
aag2538
ag2539
ag2540
a(lp2908
I1139
ag2695
aag2543
ag2544
ag2545
ag2546
a(lp2909
I1144
ag2695
aag2549
ag2550
ag2551
ag2552
ag2553
ag2554
ag2555
ag2556
ag2557
ag2558
a(lp2910
I1155
ag2695
aag2562
ag2563
ag2564
ag2565
a(lp2911
I1160
ag2695
aag2568
ag2569
ag2570
ag2571
ag2572
a(lp2912
I1167
ag2695
aag2575
ag2576
ag2577
a(lp2913
I1172
ag2695
aag2580
ag2581
ag2582
ag2583
ag2584
a(lp2914
I1178
ag2695
aag2588
ag2589
ag2590
ag2591
a(lp2915
I1183
ag2695
aag2594
ag2595
ag2596
ag2597
ag2598
ag2599
a(lp2916
I1190
ag2695
aag2602
ag2603
ag2604
ag2605
a(lp2917
I1195
ag2695
aag2608
ag2609
ag2610
a(lp2918
I1199
ag2695
aag2613
ag2614
ag2615
ag2616
ag2617
a(lp2919
I1206
ag2695
aag2620
ag2621
ag2622
ag2623
ag2624
ag2625
ag2626
a(lp2920
I1214
ag2695
aag2630
ag2631
ag2632
ag2633
a(lp2921
I1219
ag2695
aag2636
ag2637
ag2638
ag2639
a(lp2922
I1224
ag2695
aag2642
ag2643
ag2644
ag2645
ag2646
ag2647
ag2648
ag2649
a(lp2923
I1233
ag2695
aag2653
ag2654
a(lp2924
I1236
ag2695
aag2658
ag2659
ag2660
ag2661
a(lp2925
I1241
ag2695
aag2664
ag2665
ag2666
ag2667
ag2668
a(lp2926
I1247
ag2695
aag2671
ag2672
ag2673
ag2674
ag2675
ag2676
ag2677
ag2678
ag2679
a(lp2927
I1258
ag2695
aag2683
ag2684
a(lp2928
I1261
ag2695
aag2687
ag2688
ag2689
ag2690
ag2691
asS'text'
p2929
S'\xc2\xa0 your bowflex story do you own a bowflex home gym? visitors to this website would love to know what your experiences have been. sharing your story is easy to do. just type!... your story will appear on a web page exactly the way you enter it here. don\'t worry, you\'ll be able to edit it on the next page. a few questions visitors would love to ask you: how well do you feel your bowflex is made? have you found that your bowflex has enough exercises for your needs? have you found that your bowflex lives up to it\'s promises? have you found that your bowflex has enough resistance? have you found that your bowflex is better than other home gyms you\'ve owned? have you found that your bowflex is worth the money? would you recommend getting a bowflex home gym? please enter your title (exp. "my bowflex story" "my bowflex review" "why i love my bowflex" etc.) please share your experiences[ ] ? close help entering your story is easy to do. just type!... your story will appear on a web page exactly the way you enter it here. you can wrap a word in square brackets to make it appear bold. for example [my story] would show as on the web page containing your story. tip: since most people scan web pages, include your best thoughts in your first paragraph. my story'
p2930
sS'cleanWordMap'
p2931
(lp2932
g1114
ag1128
ag1143
ag1175
ag1184
ag1192
ag1198
ag1222
ag1231
ag1238
ag1249
ag1270
ag1299
ag1315
ag1327
ag1351
ag1364
ag1378
ag1394
ag1399
ag1405
ag1420
ag1431
ag1450
ag1456
ag1463
ag1475
ag1486
ag1508
ag1514
ag1529
ag1541
ag1551
ag1558
ag1569
ag1586
ag1603
ag1616
ag1630
ag1649
ag1670
ag1685
ag1693
ag1717
ag1737
ag1758
ag1767
ag1790
ag1813
ag1834
ag1849
ag1857
ag1882
ag1903
ag1917
ag1940
ag1946
ag1952
ag1959
ag1979
ag2000
ag2014
ag2027
ag2034
ag2047
ag2058
ag2070
ag2079
ag2085
ag2090
ag2098
ag2112
ag2119
ag2129
ag2138
ag2150
ag2159
ag2176
ag2187
ag2196
ag2201
ag2209
ag2223
ag2236
ag2243
ag2249
ag2266
ag2278
ag2301
ag2314
ag2328
ag2344
ag2349
ag2355
ag2370
ag2381
ag2412
ag2421
ag2432
ag2440
ag2455
ag2466
ag2474
ag2486
ag2500
ag2507
ag2514
ag2536
ag2541
ag2547
ag2566
ag2573
ag2578
ag2592
ag2600
ag2606
ag2611
ag2618
ag2634
ag2640
ag2662
ag2669
ag2685
asS'lines'
p2933
(lp2934
V\u000a
p2935
aVYour Bowflex Story\u000a
p2936
aVDo you own a Bowflex home gym? Visitors to this website would LOVE to know what YOUR experiences have been.\u000a
p2937
aVSharing your story is easy to do. Just type!...\u000a
p2938
aVYour story will appear on a Web page exactly the way you enter it here. Don't worry, you'll be able to edit it on the next page.\u000a
p2939
aVA few questions visitors would love to ask you:\u000a
p2940
aVHow well do you feel your Bowflex is made?\u000a
p2941
aVHave you found that your Bowflex has enough exercises for your needs?\u000a
p2942
aVHave you found that your Bowflex lives up to it's promises?\u000a
p2943
aVHave you found that your Bowflex has enough resistance?\u000a
p2944
aVHave you found that your Bowflex is better than other home gyms you've owned?\u000a
p2945
aVHave you found that your Bowflex is worth the money?\u000a
p2946
aVWould you recommend getting a Bowflex home gym?\u000a
p2947
aVPlease enter your title (exp. "My Bowflex Story" "My Bowflex Review" "Why I love my Bowflex" etc.)\u000a
p2948
aVPlease share your experiences[ ] ?\u000a
p2949
aVClose Help\u000a
p2950
aVEntering your story is easy to do. Just type!... Your story will appear on a Web page exactly the way you enter it here. You can wrap a word in square brackets to make it appear bold. For example [my story] would show as on the Web page containing your story. TIP: Since most people scan Web pages, include your best thoughts in your first paragraph.\u000a
p2951
aVmy story
p2952
asS'docType'
p2953
S'src'
p2954
sS'newfmap'
p2955
(lp2956
g4
ag8
ag10
ag12
ag14
ag17
ag19
ag21
ag23
ag26
ag28
ag30
ag32
ag37
ag39
ag41
ag44
ag46
ag48
ag50
ag53
ag55
ag57
ag59
ag62
ag64
ag66
ag68
ag71
ag73
ag75
ag77
ag80
ag82
ag84
ag86
ag89
ag91
ag93
ag95
ag98
ag100
ag102
ag104
ag107
ag109
ag111
ag113
ag116
ag118
ag120
ag122
ag125
ag127
ag129
ag131
ag134
ag136
ag138
ag140
ag143
ag145
ag147
ag149
ag152
ag154
ag156
ag158
ag161
ag163
ag165
ag167
ag170
ag172
ag174
ag176
ag179
ag181
ag183
ag185
ag188
ag190
ag192
ag194
ag197
ag199
ag201
ag203
ag206
ag208
ag210
ag212
ag215
ag217
ag219
ag221
ag224
ag226
ag228
ag230
ag233
ag235
ag237
ag239
ag242
ag244
ag246
ag248
ag251
ag253
ag255
ag257
ag260
ag262
ag264
ag266
ag269
ag271
ag273
ag275
ag278
ag280
ag282
ag284
ag287
ag289
ag291
ag293
ag296
ag298
ag300
ag302
ag305
ag307
ag309
ag311
ag314
ag316
ag318
ag320
ag323
ag325
ag327
ag329
ag332
ag334
ag336
ag338
ag341
ag343
ag345
ag347
ag350
ag352
ag354
ag356
ag359
ag361
ag363
ag368
ag372
ag374
ag377
ag379
ag381
ag383
ag386
ag388
ag390
ag392
ag395
ag397
ag399
ag401
ag404
ag406
ag408
ag413
ag415
ag417
ag419
ag422
ag424
ag426
ag428
ag431
ag433
ag435
ag437
ag440
ag442
ag444
ag449
ag451
ag455
ag458
ag460
ag462
ag464
ag467
ag469
ag471
ag473
ag476
ag478
ag480
ag485
ag487
ag491
ag494
ag496
ag498
ag500
ag503
ag505
ag507
ag509
ag512
ag514
ag516
ag518
ag521
ag523
ag525
ag527
ag530
ag532
ag534
ag536
ag539
ag541
ag543
ag548
ag550
ag552
ag554
ag557
ag559
ag561
ag563
ag566
ag568
ag570
ag572
ag575
ag577
ag579
ag581
ag584
ag586
ag588
ag590
ag593
ag595
ag597
ag599
ag602
ag604
ag606
ag608
ag611
ag613
ag615
ag617
ag620
ag622
ag624
ag626
ag629
ag631
ag633
ag635
ag638
ag640
ag642
ag644
ag647
ag649
ag651
ag653
ag656
ag658
ag660
ag662
ag665
ag667
ag669
ag671
ag674
ag676
ag678
ag680
ag685
ag687
ag689
ag692
ag694
ag696
ag698
ag701
ag703
ag705
ag707
ag710
ag714
ag716
ag719
ag721
ag723
ag725
ag728
ag730
ag732
ag734
ag737
ag739
ag741
ag743
ag746
ag748
ag750
ag752
ag755
ag757
ag759
ag761
ag764
ag766
ag768
ag770
ag773
ag775
ag777
ag779
ag782
ag784
ag786
ag788
ag791
ag793
ag795
ag797
ag800
ag802
ag804
ag806
ag809
ag811
ag813
ag815
ag818
ag820
ag822
ag824
ag827
ag829
ag831
ag833
ag836
ag838
ag840
ag842
ag845
ag847
ag849
ag851
ag854
ag856
ag858
ag860
ag863
ag865
ag867
ag869
ag872
ag874
ag876
ag878
ag881
ag883
ag885
ag887
ag890
ag892
ag894
ag896
ag899
ag901
ag903
ag905
ag908
ag910
ag912
ag914
ag917
ag919
ag921
ag923
ag926
ag928
ag930
ag932
ag935
ag937
ag939
ag941
ag944
ag946
ag948
ag950
ag953
ag955
ag957
ag959
ag962
ag964
ag966
ag968
ag971
ag973
ag975
ag977
ag980
ag982
ag984
ag986
ag989
ag991
ag993
ag995
ag998
ag1000
ag1002
ag1004
ag1007
ag1009
ag1011
ag1013
ag1016
ag1018
ag1020
ag1022
ag1025
ag1027
ag1029
ag1031
ag1034
ag1036
ag1038
ag1040
ag1043
ag1045
ag1047
ag1049
ag1052
ag1054
ag1056
ag1058
ag1061
ag1063
ag1065
ag1067
ag1070
ag1072
ag1074
ag1076
ag1079
ag1081
ag1083
ag1085
ag1088
ag1090
ag1092
ag1094
ag1097
ag1099
ag1101
ag1103
ag1106
ag1108
ag1110
asS'featureMap'
p2957
(lp2958
(lp2959
I1
aI1
ag5
ag6
ag9
ag11
ag13
aa(lp2960
I8
aI14
ag15
ag16
ag18
ag20
ag22
aa(lp2961
I16
aI20
ag24
ag25
ag27
ag29
ag31
aa(lp2962
I35
aI41
ag33
ag34
ag36
ag38
ag40
aa(lp2963
I43
aI46
ag42
ag43
ag45
ag47
ag49
aa(lp2964
I48
aI50
ag51
ag52
ag54
ag56
ag58
aa(lp2965
I53
aI60
ag60
ag61
ag63
ag65
ag67
aa(lp2966
I70
aI76
ag69
ag70
ag72
ag74
ag76
aa(lp2967
I78
aI82
ag78
ag79
ag81
ag83
ag85
aa(lp2968
I84
aI87
ag87
ag88
ag90
ag92
ag94
aa(lp2969
I92
aI95
ag96
ag97
ag99
ag101
ag103
aa(lp2970
I107
aI117
ag105
ag106
ag108
ag110
ag112
aa(lp2971
I130
aI136
ag114
ag115
ag117
ag119
ag121
aa(lp2972
I143
aI147
ag123
ag124
ag126
ag128
ag130
aa(lp2973
I152
aI155
ag132
ag133
ag135
ag137
ag139
aa(lp2974
I169
aI172
ag141
ag142
ag144
ag146
ag148
aa(lp2975
I183
aI187
ag150
ag151
ag153
ag155
ag157
aa(lp2976
I194
aI199
ag159
ag160
ag162
ag164
ag166
aa(lp2977
I206
aI208
ag168
ag169
ag171
ag173
ag175
aa(lp2978
I210
aI213
ag177
ag178
ag180
ag182
ag184
aa(lp2979
I215
aI221
ag186
ag187
ag189
ag191
ag193
aa(lp2980
I227
aI229
ag195
ag196
ag198
ag200
ag202
aa(lp2981
I235
aI239
ag204
ag205
ag207
ag209
ag211
aa(lp2982
I250
aI254
ag213
ag214
ag216
ag218
ag220
aa(lp2983
I256
aI260
ag222
ag223
ag225
ag227
ag229
aa(lp2984
I263
aI268
ag231
ag232
ag234
ag236
ag238
aa(lp2985
I273
aI276
ag240
ag241
ag243
ag245
ag247
aa(lp2986
I281
aI284
ag249
ag250
ag252
ag254
ag256
aa(lp2987
I296
aI299
ag258
ag259
ag261
ag263
ag265
aa(lp2988
I301
aI304
ag267
ag268
ag270
ag272
ag274
aa(lp2989
I313
aI321
ag276
ag277
ag279
ag281
ag283
aa(lp2990
I323
aI330
ag285
ag286
ag288
ag290
ag292
aa(lp2991
I332
aI336
ag294
ag295
ag297
ag299
ag301
aa(lp2992
I338
aI341
ag303
ag304
ag306
ag308
ag310
aa(lp2993
I346
aI348
ag312
ag313
ag315
ag317
ag319
aa(lp2994
I359
aI362
ag321
ag322
ag324
ag326
ag328
aa(lp2995
I371
aI374
ag330
ag331
ag333
ag335
ag337
aa(lp2996
I381
aI387
ag339
ag340
ag342
ag344
ag346
aa(lp2997
I392
aI395
ag348
ag349
ag351
ag353
ag355
aa(lp2998
I407
aI411
ag357
ag358
ag360
ag362
ag364
aa(lp2999
I423
aI429
ag366
ag367
ag369
ag371
ag373
aa(lp3000
I435
aI440
ag375
ag376
ag378
ag380
ag382
aa(lp3001
I442
aI450
ag384
ag385
ag387
ag389
ag391
aa(lp3002
I461
aI465
ag393
ag394
ag396
ag398
ag400
aa(lp3003
I477
aI481
ag402
ag403
ag405
ag407
ag409
aa(lp3004
I493
aI499
ag411
ag412
ag414
ag416
ag418
aa(lp3005
I501
aI505
ag420
ag421
ag423
ag425
ag427
aa(lp3006
I518
aI525
ag429
ag430
ag432
ag434
ag436
aa(lp3007
I537
aI541
ag438
ag439
ag441
ag443
ag445
aa(lp3008
I553
aI559
ag447
ag448
ag450
ag452
ag454
aa(lp3009
I565
aI570
ag456
ag457
ag459
ag461
ag463
aa(lp3010
I572
aI581
ag465
ag466
ag468
ag470
ag472
aa(lp3011
I593
aI597
ag474
ag475
ag477
ag479
ag481
aa(lp3012
I609
aI615
ag483
ag484
ag486
ag488
ag490
aa(lp3013
I620
aI625
ag492
ag493
ag495
ag497
ag499
aa(lp3014
I638
aI641
ag501
ag502
ag504
ag506
ag508
aa(lp3015
I643
aI646
ag510
ag511
ag513
ag515
ag517
aa(lp3016
I648
aI653
ag519
ag520
ag522
ag524
ag526
aa(lp3017
I655
aI659
ag528
ag529
ag531
ag533
ag535
aa(lp3018
I671
aI675
ag537
ag538
ag540
ag542
ag544
aa(lp3019
I687
aI693
ag546
ag547
ag549
ag551
ag553
aa(lp3020
I698
aI702
ag555
ag556
ag558
ag560
ag562
aa(lp3021
I708
aI712
ag564
ag565
ag567
ag569
ag571
aa(lp3022
I715
aI719
ag573
ag574
ag576
ag578
ag580
aa(lp3023
I725
aI733
ag582
ag583
ag585
ag587
ag589
aa(lp3024
I735
aI741
ag591
ag592
ag594
ag596
ag598
aa(lp3025
I745
aI751
ag600
ag601
ag603
ag605
ag607
aa(lp3026
I753
aI756
ag609
ag610
ag612
ag614
ag616
aa(lp3027
I758
aI760
ag618
ag619
ag621
ag623
ag625
aa(lp3028
I763
aI768
ag627
ag628
ag630
ag632
ag634
aa(lp3029
I770
aI774
ag636
ag637
ag639
ag641
ag643
aa(lp3030
I781
aI785
ag645
ag646
ag648
ag650
ag652
aa(lp3031
I788
aI790
ag654
ag655
ag657
ag659
ag661
aa(lp3032
I797
aI803
ag663
ag664
ag666
ag668
ag670
aa(lp3033
I805
aI809
ag672
ag673
ag675
ag677
ag679
aa(lp3034
I816
aI822
ag681
ag682
ag684
ag686
ag688
aa(lp3035
I824
aI829
ag690
ag691
ag693
ag695
ag697
aa(lp3036
I839
aI842
ag699
ag700
ag702
ag704
ag706
aa(lp3037
I847
aI853
ag708
ag709
ag711
ag713
ag715
aa(lp3038
I856
aI858
ag717
ag718
ag720
ag722
ag724
aa(lp3039
I862
aI867
ag726
ag727
ag729
ag731
ag733
aa(lp3040
I869
aI873
ag735
ag736
ag738
ag740
ag742
aa(lp3041
I880
aI890
ag744
ag745
ag747
ag749
ag751
aa(lp3042
I897
aI901
ag753
ag754
ag756
ag758
ag760
aa(lp3043
I903
aI906
ag762
ag763
ag765
ag767
ag769
aa(lp3044
I908
aI915
ag771
ag772
ag774
ag776
ag778
aa(lp3045
I922
aI926
ag780
ag781
ag783
ag785
ag787
aa(lp3046
I931
aI934
ag789
ag790
ag792
ag794
ag796
aa(lp3047
I948
aI951
ag798
ag799
ag801
ag803
ag805
aa(lp3048
I962
aI966
ag807
ag808
ag810
ag812
ag814
aa(lp3049
I973
aI978
ag816
ag817
ag819
ag821
ag823
aa(lp3050
I985
aI987
ag825
ag826
ag828
ag830
ag832
aa(lp3051
I989
aI992
ag834
ag835
ag837
ag839
ag841
aa(lp3052
I994
aI1000
ag843
ag844
ag846
ag848
ag850
aa(lp3053
I1006
aI1008
ag852
ag853
ag855
ag857
ag859
aa(lp3054
I1014
aI1018
ag861
ag862
ag864
ag866
ag868
aa(lp3055
I1037
aI1040
ag870
ag871
ag873
ag875
ag877
aa(lp3056
I1044
aI1047
ag879
ag880
ag882
ag884
ag886
aa(lp3057
I1052
aI1057
ag888
ag889
ag891
ag893
ag895
aa(lp3058
I1059
aI1066
ag897
ag898
ag900
ag902
ag904
aa(lp3059
I1071
aI1074
ag906
ag907
ag909
ag911
ag913
aa(lp3060
I1079
aI1084
ag915
ag916
ag918
ag920
ag922
aa(lp3061
I1086
aI1089
ag924
ag925
ag927
ag929
ag931
aa(lp3062
I1096
aI1102
ag933
ag934
ag936
ag938
ag940
aa(lp3063
I1108
aI1112
ag942
ag943
ag945
ag947
ag949
aa(lp3064
I1115
aI1119
ag951
ag952
ag954
ag956
ag958
aa(lp3065
I1121
aI1124
ag960
ag961
ag963
ag965
ag967
aa(lp3066
I1136
aI1138
ag969
ag970
ag972
ag974
ag976
aa(lp3067
I1140
aI1143
ag978
ag979
ag981
ag983
ag985
aa(lp3068
I1145
aI1154
ag987
ag988
ag990
ag992
ag994
aa(lp3069
I1161
aI1165
ag996
ag997
ag999
ag1001
ag1003
aa(lp3070
I1168
aI1170
ag1005
ag1006
ag1008
ag1010
ag1012
aa(lp3071
I1173
aI1177
ag1014
ag1015
ag1017
ag1019
ag1021
aa(lp3072
I1184
aI1189
ag1023
ag1024
ag1026
ag1028
ag1030
aa(lp3073
I1191
aI1194
ag1032
ag1033
ag1035
ag1037
ag1039
aa(lp3074
I1196
aI1198
ag1041
ag1042
ag1044
ag1046
ag1048
aa(lp3075
I1200
aI1204
ag1050
ag1051
ag1053
ag1055
ag1057
aa(lp3076
I1207
aI1213
ag1059
ag1060
ag1062
ag1064
ag1066
aa(lp3077
I1220
aI1223
ag1068
ag1069
ag1071
ag1073
ag1075
aa(lp3078
I1225
aI1232
ag1077
ag1078
ag1080
ag1082
ag1084
aa(lp3079
I1242
aI1246
ag1086
ag1087
ag1089
ag1091
ag1093
aa(lp3080
I1248
aI1256
ag1095
ag1096
ag1098
ag1100
ag1102
aa(lp3081
I1259
aI1260
ag1104
ag1105
ag1107
ag1109
ag1111
aasS'characterMap'
p3082
(lp3083
(lp3084
I0
aS'\xc2'
p3085
aag1116
ag2694
ag1120
ag1122
ag1124
ag1126
ag2696
ag1130
ag1132
ag1133
ag1135
ag1137
ag1139
ag1141
ag2697
ag1145
ag1147
ag1149
ag1150
ag1151
ag2698
ag1155
ag1157
ag2699
ag1161
ag1162
ag1163
ag2700
ag1167
ag1168
ag1169
ag2701
ag1174
ag2702
ag1177
ag1178
ag1179
ag1180
ag1181
ag1182
ag1183
ag2703
ag1186
ag1188
ag1189
ag1191
ag2704
ag1194
ag1196
ag1197
a(lp3086
I51
aS'?'
p3087
aag2705
ag1200
ag1202
ag1204
ag1205
ag1206
ag1207
ag1208
ag1209
ag2706
ag1213
ag1214
ag2707
ag1218
ag1219
ag1220
ag1221
ag2708
ag1224
ag1225
ag1226
ag1227
ag1228
ag1229
ag1230
ag2709
ag1233
ag1234
ag1235
ag1236
ag1237
ag2710
ag1240
ag1241
ag1242
ag1243
ag2711
ag1247
ag1248
ag2712
ag1251
ag1253
ag1254
ag1255
ag2713
ag1259
ag1260
ag1261
ag1262
ag2714
ag1266
ag1267
ag1268
ag1269
ag2715
ag1272
ag1273
ag1274
ag1276
ag1277
ag1278
ag1279
ag1280
ag1281
ag1283
ag1284
ag2716
ag1288
ag1289
ag1290
ag1291
ag2717
ag1295
ag1296
ag1297
ag1298
a(lp3088
I128
aS'.'
p3089
aag2718
ag1301
ag1302
ag1303
ag1304
ag1305
ag1306
ag1307
ag2719
ag1311
ag1312
ag1313
ag1314
ag2720
ag1317
ag1318
ag1319
ag1320
ag1321
ag2721
ag1325
ag1326
ag2722
ag1329
ag1330
ag1331
ag1332
ag2723
ag1336
ag1337
ag2724
ag1341
ag1342
a(lp3090
I162
ag3089
aag2725
ag1346
ag1348
ag1349
ag1350
ag2726
ag1353
ag1354
ag1355
ag1356
a(lp3091
I173
aS'!'
p3092
aa(lp3093
I174
ag3089
aa(lp3094
I175
ag3089
aa(lp3095
I176
ag3089
aag2727
ag1360
ag1361
ag1362
ag1363
ag2728
ag1366
ag1367
ag1368
ag1369
ag1370
ag2729
ag1374
ag1375
ag1376
ag1377
ag2730
ag1380
ag1381
ag1382
ag1383
ag1384
ag1385
ag2731
ag1389
ag1390
ag2732
ag1393
ag2733
ag1396
ag1397
ag1398
ag2734
ag1401
ag1402
ag1403
ag1404
ag2735
ag1407
ag1408
ag1409
ag1410
ag1411
ag1412
ag1413
ag2736
ag1417
ag1418
ag1419
ag2737
ag1422
ag1423
ag1424
ag2738
ag1428
ag1429
ag1430
ag2739
ag1433
ag1434
ag1435
ag1436
ag1437
ag2740
ag1441
ag1442
ag2741
ag1446
ag1447
ag1448
ag1449
a(lp3096
I248
ag3089
aag2742
ag1452
ag1453
ag1454
a(lp3097
I253
aS"'"
p3098
aag1455
ag2743
ag1458
ag1459
ag1460
ag1461
ag1462
a(lp3099
I261
aS','
p3100
aag2744
ag1465
ag1466
ag1467
a(lp3101
I266
ag3098
aag1468
ag1469
ag2745
ag1473
ag1474
ag2746
ag1477
ag1478
ag1479
ag1480
ag2747
ag1484
ag1485
ag2748
ag1488
ag1489
ag1490
ag1491
ag2749
ag1495
ag1496
ag2750
ag1500
ag1501
ag2751
ag1505
ag1506
ag1507
ag2752
ag1510
ag1511
ag1512
ag1513
ag2753
ag1516
ag1517
ag1518
ag1519
a(lp3102
I305
ag3089
aag2754
ag1522
ag2755
ag1526
ag1527
ag1528
ag2756
ag1531
ag1533
ag1534
ag1535
ag1536
ag1537
ag1538
ag1539
ag1540
ag2757
ag1543
ag1544
ag1545
ag1546
ag1547
ag1548
ag1549
ag1550
ag2758
ag1553
ag1554
ag1555
ag1556
ag1557
ag2759
ag1560
ag1561
ag1562
ag1563
ag2760
ag1567
ag1568
ag2761
ag1571
ag1572
ag1573
ag2762
ag1577
ag1578
ag1579
a(lp3103
I353
aS':'
p3104
aag2763
ag1583
ag1584
ag1585
ag2764
ag1588
ag1589
ag1590
ag1591
ag2765
ag1595
ag1596
ag2766
ag1600
ag1601
ag1602
ag2767
ag1605
ag1606
ag1607
ag1608
ag2768
ag1612
ag1613
ag1614
ag1615
ag2769
ag1618
ag1619
ag1620
ag1621
ag1622
ag1623
ag1624
ag2770
ag1628
ag1629
ag2771
ag1632
ag1633
ag1634
ag1635
a(lp3105
I396
ag3087
aag2772
ag1639
ag1640
ag1641
ag1642
ag2773
ag1646
ag1647
ag1648
ag2774
ag1651
ag1652
ag1653
ag1654
ag1655
ag2775
ag1659
ag1660
ag1661
ag1662
ag2776
ag1666
ag1667
ag1668
ag1669
ag2777
ag1672
ag1673
ag1674
ag1675
ag1676
ag1677
ag1678
ag2778
ag1682
ag1683
ag1684
ag2779
ag1687
ag1688
ag1689
ag1690
ag1691
ag1692
ag2780
ag1695
ag1696
ag1697
ag1698
ag1699
ag1700
ag1701
ag1702
ag1703
ag2781
ag1707
ag1708
ag1709
ag2782
ag1713
ag1714
ag1715
ag1716
ag2783
ag1719
ag1720
ag1721
ag1722
ag1723
a(lp3106
I466
ag3087
aag2784
ag1727
ag1728
ag1729
ag1730
ag2785
ag1734
ag1735
ag1736
ag2786
ag1739
ag1740
ag1741
ag1742
ag1743
ag2787
ag1747
ag1748
ag1749
ag1750
ag2788
ag1754
ag1755
ag1756
ag1757
ag2789
ag1760
ag1761
ag1762
ag1763
ag1764
ag1765
ag1766
ag2790
ag1769
ag1770
ag1771
ag1772
ag1773
ag2791
ag1777
ag1778
ag2792
ag1782
ag1783
ag2793
ag1787
ag1788
a(lp3107
I515
ag3098
aag1789
ag2794
ag1792
ag1793
ag1794
ag1795
ag1796
ag1797
ag1798
ag1799
a(lp3108
I526
ag3087
aag2795
ag1803
ag1804
ag1805
ag1806
ag2796
ag1810
ag1811
ag1812
ag2797
ag1815
ag1816
ag1817
ag1818
ag1819
ag2798
ag1823
ag1824
ag1825
ag1826
ag2799
ag1830
ag1831
ag1832
ag1833
ag2800
ag1836
ag1837
ag1838
ag1839
ag1840
ag1841
ag1842
ag2801
ag1846
ag1847
ag1848
ag2802
ag1851
ag1852
ag1853
ag1854
ag1855
ag1856
ag2803
ag1859
ag1860
ag1861
ag1862
ag1863
ag1864
ag1865
ag1866
ag1867
ag1868
a(lp3109
I582
ag3087
aag2804
ag1872
ag1873
ag1874
ag1875
ag2805
ag1879
ag1880
ag1881
ag2806
ag1884
ag1885
ag1886
ag1887
ag1888
ag2807
ag1892
ag1893
ag1894
ag1895
ag2808
ag1899
ag1900
ag1901
ag1902
ag2809
ag1905
ag1906
ag1907
ag1908
ag1909
ag1910
ag1911
ag2810
ag1915
ag1916
ag2811
ag1919
ag1920
ag1921
ag1922
ag1923
ag1924
ag2812
ag1928
ag1929
ag1930
ag1931
ag2813
ag1935
ag1936
ag1937
ag1938
ag1939
ag2814
ag1942
ag1943
ag1944
ag1945
ag2815
ag1948
ag1949
ag1950
ag1951
ag2816
ag1954
ag1955
ag1956
a(lp3110
I651
ag3098
aag1957
ag1958
ag2817
ag1961
ag1962
ag1963
ag1964
ag1965
a(lp3111
I660
ag3087
aag2818
ag1969
ag1970
ag1971
ag1972
ag2819
ag1976
ag1977
ag1978
ag2820
ag1981
ag1982
ag1983
ag1984
ag1985
ag2821
ag1989
ag1990
ag1991
ag1992
ag2822
ag1996
ag1997
ag1998
ag1999
ag2823
ag2002
ag2003
ag2004
ag2005
ag2006
ag2007
ag2008
ag2824
ag2012
ag2013
ag2825
ag2016
ag2017
ag2018
ag2019
ag2020
ag2826
ag2024
ag2025
ag2026
ag2827
ag2029
ag2030
ag2031
ag2032
ag2033
a(lp3112
I713
ag3087
aag2828
ag2036
ag2037
ag2038
ag2039
ag2040
ag2829
ag2044
ag2045
ag2046
ag2830
ag2049
ag2050
ag2051
ag2052
ag2053
ag2054
ag2055
ag2056
ag2057
ag2831
ag2060
ag2061
ag2062
ag2063
ag2064
ag2065
ag2066
ag2832
ag2069
ag2833
ag2072
ag2073
ag2074
ag2075
ag2076
ag2077
ag2078
ag2834
ag2081
ag2082
ag2083
ag2084
ag2835
ag2087
ag2088
ag2089
a(lp3113
I761
ag3087
aag2836
ag2092
ag2093
ag2094
ag2095
ag2096
ag2097
ag2837
ag2100
ag2101
ag2102
ag2103
ag2104
ag2838
ag2108
ag2109
ag2110
ag2111
ag2839
ag2114
ag2115
ag2116
ag2117
ag2118
ag2840
a(lp3114
I787
aS'('
p3115
aag2121
ag2122
ag2123
a(lp3116
I791
ag3089
aag2841
a(lp3117
I793
aS'"'
p3118
aag2127
ag2128
ag2842
ag2131
ag2132
ag2133
ag2134
ag2135
ag2136
ag2137
ag2843
ag2140
ag2141
ag2142
ag2143
ag2144
a(lp3119
I810
ag3118
aag2844
a(lp3120
I812
ag3118
aag2148
ag2149
ag2845
ag2152
ag2153
ag2154
ag2155
ag2156
ag2157
ag2158
ag2846
ag2161
ag2162
ag2163
ag2164
ag2165
ag2166
a(lp3121
I830
ag3118
aag2847
a(lp3122
I832
ag3118
aag2170
ag2171
ag2172
ag2848
ag2175
ag2849
ag2178
ag2179
ag2180
ag2181
ag2850
ag2185
ag2186
ag2851
ag2189
ag2190
ag2191
ag2192
ag2193
ag2194
ag2195
a(lp3123
I854
ag3118
aag2852
ag2198
ag2199
ag2200
a(lp3124
I859
ag3089
aa(lp3125
I860
aS')'
p3126
aag2853
ag2203
ag2204
ag2205
ag2206
ag2207
ag2208
ag2854
ag2211
ag2212
ag2213
ag2214
ag2215
ag2855
ag2219
ag2220
ag2221
ag2222
ag2856
ag2225
ag2226
ag2227
ag2228
ag2229
ag2230
ag2231
ag2232
ag2233
ag2234
ag2235
a(lp3127
I891
aS'['
p3128
aag2857
a(lp3129
I893
aS']'
p3130
aag2858
a(lp3131
I895
ag3087
aag2859
ag2238
ag2239
ag2240
ag2241
ag2242
ag2860
ag2245
ag2246
ag2247
ag2248
ag2861
ag2251
ag2252
ag2253
ag2254
ag2255
ag2256
ag2257
ag2258
ag2862
ag2262
ag2263
ag2264
ag2265
ag2863
ag2268
ag2269
ag2270
ag2271
ag2272
ag2864
ag2276
ag2277
ag2865
ag2280
ag2281
ag2282
ag2283
ag2866
ag2287
ag2288
ag2867
ag2292
ag2293
a(lp3132
I941
ag3089
aag2868
ag2297
ag2298
ag2299
ag2300
ag2869
ag2303
ag2304
ag2305
ag2306
a(lp3133
I952
ag3092
aa(lp3134
I953
ag3089
aa(lp3135
I954
ag3089
aa(lp3136
I955
ag3089
aag2870
ag2310
ag2311
ag2312
ag2313
ag2871
ag2316
ag2317
ag2318
ag2319
ag2320
ag2872
ag2324
ag2325
ag2326
ag2327
ag2873
ag2330
ag2331
ag2332
ag2333
ag2334
ag2335
ag2874
ag2339
ag2340
ag2875
ag2343
ag2876
ag2346
ag2347
ag2348
ag2877
ag2351
ag2352
ag2353
ag2354
ag2878
ag2357
ag2358
ag2359
ag2360
ag2361
ag2362
ag2363
ag2879
ag2367
ag2368
ag2369
ag2880
ag2372
ag2373
ag2374
ag2881
ag2378
ag2379
ag2380
ag2882
ag2383
ag2384
ag2385
ag2386
ag2387
ag2883
ag2391
ag2392
ag2884
ag2396
ag2397
ag2398
ag2399
a(lp3137
I1027
ag3089
aag2885
ag2403
ag2404
ag2405
ag2886
ag2409
ag2410
ag2411
ag2887
ag2414
ag2415
ag2416
ag2417
ag2888
ag2420
ag2889
ag2423
ag2424
ag2425
ag2426
ag2890
ag2430
ag2431
ag2891
ag2434
ag2435
ag2436
ag2437
ag2438
ag2439
ag2892
ag2442
ag2443
ag2444
ag2445
ag2446
ag2447
ag2448
ag2449
ag2893
ag2453
ag2454
ag2894
ag2457
ag2458
ag2459
ag2460
ag2895
ag2464
ag2465
ag2896
ag2468
ag2469
ag2470
ag2471
ag2472
ag2473
ag2897
ag2476
ag2477
ag2478
ag2479
a(lp3138
I1090
ag3089
aag2898
ag2483
ag2484
ag2485
ag2899
ag2488
ag2489
ag2490
ag2491
ag2492
ag2493
ag2494
ag2900
a(lp3139
I1104
ag3128
aag2498
ag2499
ag2901
ag2502
ag2503
ag2504
ag2505
ag2506
a(lp3140
I1113
ag3130
aag2902
ag2509
ag2510
ag2511
ag2512
ag2513
ag2903
ag2516
ag2517
ag2518
ag2519
ag2904
ag2523
ag2524
ag2905
ag2528
ag2529
ag2906
ag2533
ag2534
ag2535
ag2907
ag2538
ag2539
ag2540
ag2908
ag2543
ag2544
ag2545
ag2546
ag2909
ag2549
ag2550
ag2551
ag2552
ag2553
ag2554
ag2555
ag2556
ag2557
ag2558
ag2910
ag2562
ag2563
ag2564
ag2565
ag2911
ag2568
ag2569
ag2570
ag2571
ag2572
a(lp3141
I1166
ag3089
aag2912
ag2575
ag2576
ag2577
a(lp3142
I1171
ag3104
aag2913
ag2580
ag2581
ag2582
ag2583
ag2584
ag2914
ag2588
ag2589
ag2590
ag2591
ag2915
ag2594
ag2595
ag2596
ag2597
ag2598
ag2599
ag2916
ag2602
ag2603
ag2604
ag2605
ag2917
ag2608
ag2609
ag2610
ag2918
ag2613
ag2614
ag2615
ag2616
ag2617
a(lp3143
I1205
ag3100
aag2919
ag2620
ag2621
ag2622
ag2623
ag2624
ag2625
ag2626
ag2920
ag2630
ag2631
ag2632
ag2633
ag2921
ag2636
ag2637
ag2638
ag2639
ag2922
ag2642
ag2643
ag2644
ag2645
ag2646
ag2647
ag2648
ag2649
ag2923
ag2653
ag2654
ag2924
ag2658
ag2659
ag2660
ag2661
ag2925
ag2664
ag2665
ag2666
ag2667
ag2668
ag2926
ag2671
ag2672
ag2673
ag2674
ag2675
ag2676
ag2677
ag2678
ag2679
a(lp3144
I1257
ag3089
aag2927
ag2683
ag2684
ag2928
ag2687
ag2688
ag2689
ag2690
ag2691
asS'docName'
p3145
S'source-document00163.txt'
p3146
sb.