(iModel.Document
Document
p0
(dp1
S'fmap'
p2
(lp3
(lp4
I0
aI4
aS'posts'
p5
a(lp6
S'*'
p7
ag5
aaa(lp8
I0
aI4
ag5
a(lp9
g7
ag5
aaa(lp10
I0
aI4
ag5
a(lp11
g7
ag5
aaa(lp12
I0
aI4
ag5
a(lp13
g7
ag5
aaa(lp14
I7
aI11
aS'3458'
p15
a(lp16
g5
ag15
aaa(lp17
I7
aI11
ag15
a(lp18
g7
ag15
aaa(lp19
I7
aI11
ag15
a(lp20
g7
ag15
aaa(lp21
I7
aI11
ag15
a(lp22
g7
ag15
aaa(lp23
I13
aI16
aS'best'
p24
a(lp25
g15
ag24
aaa(lp26
I13
aI16
ag24
a(lp27
g5
ag24
aaa(lp28
I13
aI16
ag24
a(lp29
g7
ag24
aaa(lp30
I13
aI16
ag24
a(lp31
g7
ag24
aaa(lp32
I18
aI21
aS'show'
p33
a(lp34
g24
ag33
aaa(lp35
I18
aI21
ag33
a(lp36
g15
ag33
aaa(lp37
I18
aI21
ag33
a(lp38
g5
ag33
aaa(lp39
I18
aI21
ag33
a(lp40
g7
ag33
aaa(lp41
I24
aI26
aS'470'
p42
a(lp43
g33
ag42
aaa(lp44
I24
aI26
ag42
a(lp45
g24
ag42
aaa(lp46
I24
aI26
ag42
a(lp47
g15
ag42
aaa(lp48
I24
aI26
ag42
a(lp49
g5
ag42
aaa(lp50
I28
aI37
aS'experience'
p51
a(lp52
g42
ag51
aaa(lp53
I28
aI37
ag51
a(lp54
g33
ag51
aaa(lp55
I28
aI37
ag51
a(lp56
g24
ag51
aaa(lp57
I28
aI37
ag51
a(lp58
g15
ag51
aaa(lp59
I40
aI40
aS'1'
p60
a(lp61
g51
ag60
aaa(lp62
I40
aI40
ag60
a(lp63
g42
ag60
aaa(lp64
I40
aI40
ag60
a(lp65
g33
ag60
aaa(lp66
I40
aI40
ag60
a(lp67
g24
ag60
aaa(lp68
I47
aI51
aS'shows'
p69
a(lp70
g60
ag69
aaa(lp71
I47
aI51
ag69
a(lp72
g51
ag69
aaa(lp73
I47
aI51
ag69
a(lp74
g42
ag69
aaa(lp75
I47
aI51
ag69
a(lp76
g33
ag69
aaa(lp77
I54
aI60
aS'bumping'
p78
a(lp79
g69
ag78
aaa(lp80
I54
aI60
ag78
a(lp81
g60
ag78
aaa(lp82
I54
aI60
ag78
a(lp83
g51
ag78
aaa(lp84
I54
aI60
ag78
a(lp85
g42
ag78
aaa(lp86
I71
aI76
aS'people'
p87
a(lp88
g78
ag87
aaa(lp89
I71
aI76
ag87
a(lp90
g69
ag87
aaa(lp91
I71
aI76
ag87
a(lp92
g60
ag87
aaa(lp93
I71
aI76
ag87
a(lp94
g51
ag87
aaa(lp95
I88
aI93
aS'asking'
p96
a(lp97
g87
ag96
aaa(lp98
I88
aI93
ag96
a(lp99
g78
ag96
aaa(lp100
I88
aI93
ag96
a(lp101
g69
ag96
aaa(lp102
I88
aI93
ag96
a(lp103
g60
ag96
aaa(lp104
I99
aI104
aS'people'
p105
a(lp106
g96
ag105
aaa(lp107
I99
aI104
ag105
a(lp108
g87
ag105
aaa(lp109
I99
aI104
ag105
a(lp110
g78
ag105
aaa(lp111
I99
aI104
ag105
a(lp112
g69
ag105
aaa(lp113
I110
aI116
aS'bumping'
p114
a(lp115
g105
ag114
aaa(lp116
I110
aI116
ag114
a(lp117
g96
ag114
aaa(lp118
I110
aI116
ag114
a(lp119
g87
ag114
aaa(lp120
I110
aI116
ag114
a(lp121
g78
ag114
aaa(lp122
I118
aI124
aS'threads'
p123
a(lp124
g114
ag123
aaa(lp125
I118
aI124
ag123
a(lp126
g105
ag123
aaa(lp127
I118
aI124
ag123
a(lp128
g96
ag123
aaa(lp129
I118
aI124
ag123
a(lp130
g87
ag123
aaa(lp131
I138
aI148
aS'explanation'
p132
a(lp133
g123
ag132
aaa(lp134
I138
aI148
ag132
a(lp135
g114
ag132
aaa(lp136
I138
aI148
ag132
a(lp137
g105
ag132
aaa(lp138
I138
aI148
ag132
a(lp139
g96
ag132
aaa(lp140
I157
aI160
aS'hope'
p141
a(lp142
g132
ag141
aaa(lp143
I157
aI160
ag141
a(lp144
g123
ag141
aaa(lp145
I157
aI160
ag141
a(lp146
g114
ag141
aaa(lp147
I157
aI160
ag141
a(lp148
g105
ag141
aaa(lp149
I166
aI169
aS'help'
p150
a(lp151
g141
ag150
aaa(lp152
I166
aI169
ag150
a(lp153
g132
ag150
aaa(lp154
I166
aI169
ag150
a(lp155
g123
ag150
aaa(lp156
I166
aI169
ag150
a(lp157
g114
ag150
aaa(lp158
I171
aI177
aS'newbies'
p159
a(lp160
g150
ag159
aaa(lp161
I171
aI177
ag159
a(lp162
g141
ag159
aaa(lp163
I171
aI177
ag159
a(lp164
g132
ag159
aaa(lp165
I171
aI177
ag159
a(lp166
g123
ag159
aaa(lp167
I182
aI184
aS'get'
p168
a(lp169
g159
ag168
aaa(lp170
I182
aI184
ag168
a(lp171
g150
ag168
aaa(lp172
I182
aI184
ag168
a(lp173
g141
ag168
aaa(lp174
I182
aI184
ag168
a(lp175
g132
ag168
aaa(lp176
I190
aI196
aS'bumping'
p177
a(lp178
g168
ag177
aaa(lp179
I190
aI196
ag177
a(lp180
g159
ag177
aaa(lp181
I190
aI196
ag177
a(lp182
g150
ag177
aaa(lp183
I190
aI196
ag177
a(lp184
g141
ag177
aaa(lp185
I205
aI213
aS'confusing'
p186
a(lp187
g177
ag186
aaa(lp188
I205
aI213
ag186
a(lp189
g168
ag186
aaa(lp190
I205
aI213
ag186
a(lp191
g159
ag186
aaa(lp192
I205
aI213
ag186
a(lp193
g150
ag186
aaa(lp194
I223
aI226
aS'menu'
p195
a(lp196
g186
ag195
aaa(lp197
I223
aI226
ag195
a(lp198
g177
ag195
aaa(lp199
I223
aI226
ag195
a(lp200
g168
ag195
aaa(lp201
I223
aI226
ag195
a(lp202
g159
ag195
aaa(lp203
I240
aI245
aS'option'
p204
a(lp205
g195
ag204
aaa(lp206
I240
aI245
ag204
a(lp207
g186
ag204
aaa(lp208
I240
aI245
ag204
a(lp209
g177
ag204
aaa(lp210
I240
aI245
ag204
a(lp211
g168
ag204
aaa(lp212
I248
aI250
aS'new'
p213
a(lp214
g204
ag213
aaa(lp215
I248
aI250
ag213
a(lp216
g195
ag213
aaa(lp217
I248
aI250
ag213
a(lp218
g186
ag213
aaa(lp219
I248
aI250
ag213
a(lp220
g177
ag213
aaa(lp221
I252
aI256
aS'posts'
p222
a(lp223
g213
ag222
aaa(lp224
I252
aI256
ag222
a(lp225
g204
ag222
aaa(lp226
I252
aI256
ag222
a(lp227
g195
ag222
aaa(lp228
I252
aI256
ag222
a(lp229
g186
ag222
aaa(lp230
I264
aI268
aS'shows'
p231
a(lp232
g222
ag231
aaa(lp233
I264
aI268
ag231
a(lp234
g213
ag231
aaa(lp235
I264
aI268
ag231
a(lp236
g204
ag231
aaa(lp237
I264
aI268
ag231
a(lp238
g195
ag231
aaa(lp239
I278
aI284
aS'threads'
p240
a(lp241
g231
ag240
aaa(lp242
I278
aI284
ag240
a(lp243
g222
ag240
aaa(lp244
I278
aI284
ag240
a(lp245
g213
ag240
aaa(lp246
I278
aI284
ag240
a(lp247
g204
ag240
aaa(lp248
I300
aI307
aS'activity'
p249
a(lp250
g240
ag249
aaa(lp251
I300
aI307
ag249
a(lp252
g231
ag249
aaa(lp253
I300
aI307
ag249
a(lp254
g222
ag249
aaa(lp255
I300
aI307
ag249
a(lp256
g213
ag249
aaa(lp257
I309
aI313
aS'since'
p258
a(lp259
g249
ag258
aaa(lp260
I309
aI313
ag258
a(lp261
g240
ag258
aaa(lp262
I309
aI313
ag258
a(lp263
g231
ag258
aaa(lp264
I309
aI313
ag258
a(lp265
g222
ag258
aaa(lp266
I319
aI322
aS'last'
p267
a(lp268
g258
ag267
aaa(lp269
I319
aI322
ag267
a(lp270
g249
ag267
aaa(lp271
I319
aI322
ag267
a(lp272
g240
ag267
aaa(lp273
I319
aI322
ag267
a(lp274
g231
ag267
aaa(lp275
I324
aI330
aS'visited'
p276
a(lp277
g267
ag276
aaa(lp278
I324
aI330
ag276
a(lp279
g258
ag276
aaa(lp280
I324
aI330
ag276
a(lp281
g249
ag276
aaa(lp282
I324
aI330
ag276
a(lp283
g240
ag276
aaa(lp284
I336
aI339
aS'site'
p285
a(lp286
g276
ag285
aaa(lp287
I336
aI339
ag285
a(lp288
g267
ag285
aaa(lp289
I336
aI339
ag285
a(lp290
g258
ag285
aaa(lp291
I336
aI339
ag285
a(lp292
g249
ag285
aaa(lp293
I342
aI345
aS'many'
p294
a(lp295
g285
ag294
aaa(lp296
I342
aI345
ag294
a(lp297
g276
ag294
aaa(lp298
I342
aI345
ag294
a(lp299
g267
ag294
aaa(lp300
I342
aI345
ag294
a(lp301
g258
ag294
aaa(lp302
I347
aI352
aS'people'
p303
a(lp304
g294
ag303
aaa(lp305
I347
aI352
ag303
a(lp306
g285
ag303
aaa(lp307
I347
aI352
ag303
a(lp308
g276
ag303
aaa(lp309
I347
aI352
ag303
a(lp310
g267
ag303
aaa(lp311
I354
aI356
aS'use'
p312
a(lp313
g303
ag312
aaa(lp314
I354
aI356
ag312
a(lp315
g294
ag312
aaa(lp316
I354
aI356
ag312
a(lp317
g285
ag312
aaa(lp318
I354
aI356
ag312
a(lp319
g276
ag312
aaa(lp320
I372
aI377
aS'entire'
p321
a(lp322
g312
ag321
aaa(lp323
I372
aI377
ag321
a(lp324
g303
ag321
aaa(lp325
I372
aI377
ag321
a(lp326
g294
ag321
aaa(lp327
I372
aI377
ag321
a(lp328
g285
ag321
aaa(lp329
I379
aI381
aS'way'
p330
a(lp331
g321
ag330
aaa(lp332
I379
aI381
ag330
a(lp333
g312
ag330
aaa(lp334
I379
aI381
ag330
a(lp335
g303
ag330
aaa(lp336
I379
aI381
ag330
a(lp337
g294
ag330
aaa(lp338
I386
aI395
aS'navigating'
p339
a(lp340
g330
ag339
aaa(lp341
I386
aI395
ag339
a(lp342
g321
ag339
aaa(lp343
I386
aI395
ag339
a(lp344
g312
ag339
aaa(lp345
I386
aI395
ag339
a(lp346
g303
ag339
aaa(lp347
I401
aI404
aS'site'
p348
a(lp349
g339
ag348
aaa(lp350
I401
aI404
ag348
a(lp351
g330
ag348
aaa(lp352
I401
aI404
ag348
a(lp353
g321
ag348
aaa(lp354
I401
aI404
ag348
a(lp355
g312
ag348
aaa(lp356
I412
aI416
aS'dont'
p357
a(lp358
g348
ag357
aaa(lp359
I412
aI416
ag357
a(lp360
g339
ag357
aaa(lp361
I412
aI416
ag357
a(lp362
g330
ag357
aaa(lp363
I412
aI416
ag357
a(lp364
g321
ag357
aaa(lp365
I418
aI419
aS'go'
p366
a(lp367
g357
ag366
aaa(lp368
I418
aI419
ag366
a(lp369
g348
ag366
aaa(lp370
I418
aI419
ag366
a(lp371
g339
ag366
aaa(lp372
I418
aI419
ag366
a(lp373
g330
ag366
aaa(lp374
I428
aI431
aS'home'
p375
a(lp376
g366
ag375
aaa(lp377
I428
aI431
ag375
a(lp378
g357
ag375
aaa(lp379
I428
aI431
ag375
a(lp380
g348
ag375
aaa(lp381
I428
aI431
ag375
a(lp382
g339
ag375
aaa(lp383
I433
aI436
aS'page'
p384
a(lp385
g375
ag384
aaa(lp386
I433
aI436
ag384
a(lp387
g366
ag384
aaa(lp388
I433
aI436
ag384
a(lp389
g357
ag384
aaa(lp390
I433
aI436
ag384
a(lp391
g348
ag384
aaa(lp392
I441
aI444
aS'even'
p393
a(lp394
g384
ag393
aaa(lp395
I441
aI444
ag393
a(lp396
g375
ag393
aaa(lp397
I441
aI444
ag393
a(lp398
g366
ag393
aaa(lp399
I441
aI444
ag393
a(lp400
g357
ag393
aaa(lp401
I450
aI453
aS'main'
p402
a(lp403
g393
ag402
aaa(lp404
I450
aI453
ag402
a(lp405
g384
ag402
aaa(lp406
I450
aI453
ag402
a(lp407
g375
ag402
aaa(lp408
I450
aI453
ag402
a(lp409
g366
ag402
aaa(lp410
I455
aI459
aS'board'
p411
a(lp412
g402
ag411
aaa(lp413
I455
aI459
ag411
a(lp414
g393
ag411
aaa(lp415
I455
aI459
ag411
a(lp416
g384
ag411
aaa(lp417
I455
aI459
ag411
a(lp418
g375
ag411
aaa(lp419
I461
aI465
aS'pages'
p420
a(lp421
g411
ag420
aaa(lp422
I461
aI465
ag420
a(lp423
g402
ag420
aaa(lp424
I461
aI465
ag420
a(lp425
g393
ag420
aaa(lp426
I461
aI465
ag420
a(lp427
g384
ag420
aaa(lp428
I476
aI480
aS'click'
p429
a(lp430
g420
ag429
aaa(lp431
I476
aI480
ag429
a(lp432
g411
ag429
aaa(lp433
I476
aI480
ag429
a(lp434
g402
ag429
aaa(lp435
I476
aI480
ag429
a(lp436
g393
ag429
aaa(lp437
I486
aI488
aS'new'
p438
a(lp439
g429
ag438
aaa(lp440
I486
aI488
ag438
a(lp441
g420
ag438
aaa(lp442
I486
aI488
ag438
a(lp443
g411
ag438
aaa(lp444
I486
aI488
ag438
a(lp445
g402
ag438
aaa(lp446
I490
aI494
aS'posts'
p447
a(lp448
g438
ag447
aaa(lp449
I490
aI494
ag447
a(lp450
g429
ag447
aaa(lp451
I490
aI494
ag447
a(lp452
g420
ag447
aaa(lp453
I490
aI494
ag447
a(lp454
g411
ag447
aaa(lp455
I502
aI504
aS'new'
p456
a(lp457
g447
ag456
aaa(lp458
I502
aI504
ag456
a(lp459
g438
ag456
aaa(lp460
I502
aI504
ag456
a(lp461
g429
ag456
aaa(lp462
I502
aI504
ag456
a(lp463
g420
ag456
aaa(lp464
I506
aI510
aS'posts'
p465
a(lp466
g456
ag465
aaa(lp467
I506
aI510
ag465
a(lp468
g447
ag465
aaa(lp469
I506
aI510
ag465
a(lp470
g438
ag465
aaa(lp471
I506
aI510
ag465
a(lp472
g429
ag465
aaa(lp473
I517
aI522
aS'search'
p474
a(lp475
g465
ag474
aaa(lp476
I517
aI522
ag474
a(lp477
g456
ag474
aaa(lp478
I517
aI522
ag474
a(lp479
g447
ag474
aaa(lp480
I517
aI522
ag474
a(lp481
g438
ag474
aaa(lp482
I524
aI529
aS'engine'
p483
a(lp484
g474
ag483
aaa(lp485
I524
aI529
ag483
a(lp486
g465
ag483
aaa(lp487
I524
aI529
ag483
a(lp488
g456
ag483
aaa(lp489
I524
aI529
ag483
a(lp490
g447
ag483
aaa(lp491
I539
aI542
aS'site'
p492
a(lp493
g483
ag492
aaa(lp494
I539
aI542
ag492
a(lp495
g474
ag492
aaa(lp496
I539
aI542
ag492
a(lp497
g465
ag492
aaa(lp498
I539
aI542
ag492
a(lp499
g456
ag492
aaa(lp500
I548
aI552
aS'shows'
p501
a(lp502
g492
ag501
aaa(lp503
I548
aI552
ag501
a(lp504
g483
ag501
aaa(lp505
I548
aI552
ag501
a(lp506
g474
ag501
aaa(lp507
I548
aI552
ag501
a(lp508
g465
ag501
aaa(lp509
I563
aI568
aS'recent'
p510
a(lp511
g501
ag510
aaa(lp512
I563
aI568
ag510
a(lp513
g492
ag510
aaa(lp514
I563
aI568
ag510
a(lp515
g483
ag510
aaa(lp516
I563
aI568
ag510
a(lp517
g474
ag510
aaa(lp518
I570
aI574
aS'posts'
p519
a(lp520
g510
ag519
aaa(lp521
I570
aI574
ag519
a(lp522
g501
ag519
aaa(lp523
I570
aI574
ag519
a(lp524
g492
ag519
aaa(lp525
I570
aI574
ag519
a(lp526
g483
ag519
aaa(lp527
I579
aI588
aS'descending'
p528
a(lp529
g519
ag528
aaa(lp530
I579
aI588
ag528
a(lp531
g510
ag528
aaa(lp532
I579
aI588
ag528
a(lp533
g501
ag528
aaa(lp534
I579
aI588
ag528
a(lp535
g492
ag528
aaa(lp536
I590
aI594
aS'order'
p537
a(lp538
g528
ag537
aaa(lp539
I590
aI594
ag537
a(lp540
g519
ag537
aaa(lp541
I590
aI594
ag537
a(lp542
g510
ag537
aaa(lp543
I590
aI594
ag537
a(lp544
g501
ag537
aaa(lp545
I600
aI609
aS'frequently'
p546
a(lp547
g537
ag546
aaa(lp548
I600
aI609
ag546
a(lp549
g528
ag546
aaa(lp550
I600
aI609
ag546
a(lp551
g519
ag546
aaa(lp552
I600
aI609
ag546
a(lp553
g510
ag546
aaa(lp554
I615
aI619
aS'pages'
p555
a(lp556
g546
ag555
aaa(lp557
I615
aI619
ag555
a(lp558
g537
ag555
aaa(lp559
I615
aI619
ag555
a(lp560
g528
ag555
aaa(lp561
I615
aI619
ag555
a(lp562
g519
ag555
aaa(lp563
I625
aI629
aS'pages'
p564
a(lp565
g555
ag564
aaa(lp566
I625
aI629
ag564
a(lp567
g546
ag564
aaa(lp568
I625
aI629
ag564
a(lp569
g537
ag564
aaa(lp570
I625
aI629
ag564
a(lp571
g528
ag564
aaa(lp572
I634
aI636
aS'new'
p573
a(lp574
g564
ag573
aaa(lp575
I634
aI636
ag573
a(lp576
g555
ag573
aaa(lp577
I634
aI636
ag573
a(lp578
g546
ag573
aaa(lp579
I634
aI636
ag573
a(lp580
g537
ag573
aaa(lp581
I638
aI642
aS'posts'
p582
a(lp583
g573
ag582
aaa(lp584
I638
aI642
ag582
a(lp585
g564
ag582
aaa(lp586
I638
aI642
ag582
a(lp587
g555
ag582
aaa(lp588
I638
aI642
ag582
a(lp589
g546
ag582
aaa(lp590
I648
aI654
aS'bumping'
p591
a(lp592
g582
ag591
aaa(lp593
I648
aI654
ag591
a(lp594
g573
ag591
aaa(lp595
I648
aI654
ag591
a(lp596
g564
ag591
aaa(lp597
I648
aI654
ag591
a(lp598
g555
ag591
aaa(lp599
I658
aI663
aS'thread'
p600
a(lp601
g591
ag600
aaa(lp602
I658
aI663
ag600
a(lp603
g582
ag600
aaa(lp604
I658
aI663
ag600
a(lp605
g573
ag600
aaa(lp606
I658
aI663
ag600
a(lp607
g564
ag600
aaa(lp608
I673
aI678
aS'become'
p609
a(lp610
g600
ag609
aaa(lp611
I673
aI678
ag609
a(lp612
g591
ag609
aaa(lp613
I673
aI678
ag609
a(lp614
g582
ag609
aaa(lp615
I673
aI678
ag609
a(lp616
g573
ag609
aaa(lp617
I680
aI682
aS'one'
p618
a(lp619
g609
ag618
aaa(lp620
I680
aI682
ag618
a(lp621
g600
ag618
aaa(lp622
I680
aI682
ag618
a(lp623
g591
ag618
aaa(lp624
I680
aI682
ag618
a(lp625
g582
ag618
aaa(lp626
I691
aI693
aS'1st'
p627
a(lp628
g618
ag627
aaa(lp629
I691
aI693
ag627
a(lp630
g609
ag627
aaa(lp631
I691
aI693
ag627
a(lp632
g600
ag627
aaa(lp633
I691
aI693
ag627
a(lp634
g591
ag627
aaa(lp635
I695
aI701
aS'threads'
p636
a(lp637
g627
ag636
aaa(lp638
I695
aI701
ag636
a(lp639
g618
ag636
aaa(lp640
I695
aI701
ag636
a(lp641
g609
ag636
aaa(lp642
I695
aI701
ag636
a(lp643
g600
ag636
aaa(lp644
I703
aI709
aS'someone'
p645
a(lp646
g636
ag645
aaa(lp647
I703
aI709
ag645
a(lp648
g627
ag645
aaa(lp649
I703
aI709
ag645
a(lp650
g618
ag645
aaa(lp651
I703
aI709
ag645
a(lp652
g609
ag645
aaa(lp653
I711
aI715
aS'would'
p654
a(lp655
g645
ag654
aaa(lp656
I711
aI715
ag654
a(lp657
g636
ag654
aaa(lp658
I711
aI715
ag654
a(lp659
g627
ag654
aaa(lp660
I711
aI715
ag654
a(lp661
g618
ag654
aaa(lp662
I717
aI719
aS'see'
p663
a(lp664
g654
ag663
aaa(lp665
I717
aI719
ag663
a(lp666
g645
ag663
aaa(lp667
I717
aI719
ag663
a(lp668
g636
ag663
aaa(lp669
I717
aI719
ag663
a(lp670
g627
ag663
aaa(lp671
I731
aI735
aS'click'
p672
a(lp673
g663
ag672
aaa(lp674
I731
aI735
ag672
a(lp675
g654
ag672
aaa(lp676
I731
aI735
ag672
a(lp677
g645
ag672
aaa(lp678
I731
aI735
ag672
a(lp679
g636
ag672
aaa(lp680
I741
aI743
aS'new'
p681
a(lp682
g672
ag681
aaa(lp683
I741
aI743
ag681
a(lp684
g663
ag681
aaa(lp685
I741
aI743
ag681
a(lp686
g654
ag681
aaa(lp687
I741
aI743
ag681
a(lp688
g645
ag681
aaa(lp689
I745
aI749
aS'posts'
p690
a(lp691
g681
ag690
aaa(lp692
I745
aI749
ag690
a(lp693
g672
ag690
aaa(lp694
I745
aI749
ag690
a(lp695
g663
ag690
aaa(lp696
I745
aI749
ag690
a(lp697
g654
ag690
aaa(lp698
I753
aI755
aS'one'
p699
a(lp700
g690
ag699
aaa(lp701
I753
aI755
ag699
a(lp702
g681
ag699
aaa(lp703
I753
aI755
ag699
a(lp704
g672
ag699
aaa(lp705
I753
aI755
ag699
a(lp706
g663
ag699
aaa(lp707
I757
aI759
aS'way'
p708
a(lp709
g699
ag708
aaa(lp710
I757
aI759
ag708
a(lp711
g690
ag708
aaa(lp712
I757
aI759
ag708
a(lp713
g681
ag708
aaa(lp714
I757
aI759
ag708
a(lp715
g672
ag708
aaa(lp716
I764
aI766
aS'see'
p717
a(lp718
g708
ag717
aaa(lp719
I764
aI766
ag717
a(lp720
g699
ag717
aaa(lp721
I764
aI766
ag717
a(lp722
g690
ag717
aaa(lp723
I764
aI766
ag717
a(lp724
g681
ag717
aaa(lp725
I777
aI781
aS'works'
p726
a(lp727
g717
ag726
aaa(lp728
I777
aI781
ag726
a(lp729
g708
ag726
aaa(lp730
I777
aI781
ag726
a(lp731
g699
ag726
aaa(lp732
I777
aI781
ag726
a(lp733
g690
ag726
aaa(lp734
I789
aI793
aS'click'
p735
a(lp736
g726
ag735
aaa(lp737
I789
aI793
ag735
a(lp738
g717
ag735
aaa(lp739
I789
aI793
ag735
a(lp740
g708
ag735
aaa(lp741
I789
aI793
ag735
a(lp742
g699
ag735
aaa(lp743
I799
aI801
aS'new'
p744
a(lp745
g735
ag744
aaa(lp746
I799
aI801
ag744
a(lp747
g726
ag744
aaa(lp748
I799
aI801
ag744
a(lp749
g717
ag744
aaa(lp750
I799
aI801
ag744
a(lp751
g708
ag744
aaa(lp752
I803
aI807
aS'posts'
p753
a(lp754
g744
ag753
aaa(lp755
I803
aI807
ag753
a(lp756
g735
ag753
aaa(lp757
I803
aI807
ag753
a(lp758
g726
ag753
aaa(lp759
I803
aI807
ag753
a(lp760
g717
ag753
aaa(lp761
I813
aI815
aS'see'
p762
a(lp763
g753
ag762
aaa(lp764
I813
aI815
ag762
a(lp765
g744
ag762
aaa(lp766
I813
aI815
ag762
a(lp767
g735
ag762
aaa(lp768
I813
aI815
ag762
a(lp769
g726
ag762
aaa(lp770
I837
aI842
aS'select'
p771
a(lp772
g762
ag771
aaa(lp773
I837
aI842
ag771
a(lp774
g753
ag771
aaa(lp775
I837
aI842
ag771
a(lp776
g744
ag771
aaa(lp777
I837
aI842
ag771
a(lp778
g735
ag771
aaa(lp779
I846
aI851
aS'thread'
p780
a(lp781
g771
ag780
aaa(lp782
I846
aI851
ag780
a(lp783
g762
ag780
aaa(lp784
I846
aI851
ag780
a(lp785
g753
ag780
aaa(lp786
I846
aI851
ag780
a(lp787
g744
ag780
aaa(lp788
I853
aI859
aS'partway'
p789
a(lp790
g780
ag789
aaa(lp791
I853
aI859
ag789
a(lp792
g771
ag789
aaa(lp793
I853
aI859
ag789
a(lp794
g762
ag789
aaa(lp795
I853
aI859
ag789
a(lp796
g753
ag789
aaa(lp797
I870
aI875
aS'screen'
p798
a(lp799
g789
ag798
aaa(lp800
I870
aI875
ag798
a(lp801
g780
ag798
aaa(lp802
I870
aI875
ag798
a(lp803
g771
ag798
aaa(lp804
I870
aI875
ag798
a(lp805
g762
ag798
aaa(lp806
I878
aI882
aS'click'
p807
a(lp808
g798
ag807
aaa(lp809
I878
aI882
ag807
a(lp810
g789
ag807
aaa(lp811
I878
aI882
ag807
a(lp812
g780
ag807
aaa(lp813
I878
aI882
ag807
a(lp814
g771
ag807
aaa(lp815
I891
aI897
aS'comment'
p816
a(lp817
g807
ag816
aaa(lp818
I891
aI897
ag816
a(lp819
g798
ag816
aaa(lp820
I891
aI897
ag816
a(lp821
g789
ag816
aaa(lp822
I891
aI897
ag816
a(lp823
g780
ag816
aaa(lp824
I915
aI919
aS'click'
p825
a(lp826
g816
ag825
aaa(lp827
I915
aI919
ag825
a(lp828
g807
ag825
aaa(lp829
I915
aI919
ag825
a(lp830
g798
ag825
aaa(lp831
I915
aI919
ag825
a(lp832
g789
ag825
aaa(lp833
I924
aI926
aS'new'
p834
a(lp835
g825
ag834
aaa(lp836
I924
aI926
ag834
a(lp837
g816
ag834
aaa(lp838
I924
aI926
ag834
a(lp839
g807
ag834
aaa(lp840
I924
aI926
ag834
a(lp841
g798
ag834
aaa(lp842
I928
aI932
aS'posts'
p843
a(lp844
g834
ag843
aaa(lp845
I928
aI932
ag843
a(lp846
g825
ag843
aaa(lp847
I928
aI932
ag843
a(lp848
g816
ag843
aaa(lp849
I928
aI932
ag843
a(lp850
g807
ag843
aaa(lp851
I938
aI943
aS'youll'
p852
a(lp853
g843
ag852
aaa(lp854
I938
aI943
ag852
a(lp855
g834
ag852
aaa(lp856
I938
aI943
ag852
a(lp857
g825
ag852
aaa(lp858
I938
aI943
ag852
a(lp859
g816
ag852
aaa(lp860
I945
aI947
aS'see'
p861
a(lp862
g852
ag861
aaa(lp863
I945
aI947
ag861
a(lp864
g843
ag861
aaa(lp865
I945
aI947
ag861
a(lp866
g834
ag861
aaa(lp867
I945
aI947
ag861
a(lp868
g825
ag861
aaa(lp869
I953
aI958
aS'thread'
p870
a(lp871
g861
ag870
aaa(lp872
I953
aI958
ag870
a(lp873
g852
ag870
aaa(lp874
I953
aI958
ag870
a(lp875
g843
ag870
aaa(lp876
I953
aI958
ag870
a(lp877
g834
ag870
aaa(lp878
I974
aI976
aS'top'
p879
a(lp880
g870
ag879
aaa(lp881
I974
aI976
ag879
a(lp882
g861
ag879
aaa(lp883
I974
aI976
ag879
a(lp884
g852
ag879
aaa(lp885
I974
aI976
ag879
a(lp886
g843
ag879
aaa(lp887
I978
aI985
aS'position'
p888
a(lp889
g879
ag888
aaa(lp890
I978
aI985
ag888
a(lp891
g870
ag888
aaa(lp892
I978
aI985
ag888
a(lp893
g861
ag888
aaa(lp894
I978
aI985
ag888
a(lp895
g852
ag888
aaa(lp896
I988
aI990
aS'hth'
p897
a(lp898
g888
ag897
aaa(lp899
I988
aI990
ag897
a(lp900
g879
ag897
aaa(lp901
I988
aI990
ag897
a(lp902
g870
ag897
aaa(lp903
I988
aI990
ag897
a(lp904
g861
ag897
aaa(lp905
I993
aI996
aS'hope'
p906
a(lp907
g897
ag906
aaa(lp908
I993
aI996
ag906
a(lp909
g888
ag906
aaa(lp910
I993
aI996
ag906
a(lp911
g879
ag906
aaa(lp912
I993
aI996
ag906
a(lp913
g870
ag906
aaa(lp914
I1003
aI1007
aS'helps'
p915
a(lp916
g906
ag915
aaa(lp917
I1003
aI1007
ag915
a(lp918
g897
ag915
aaa(lp919
I1003
aI1007
ag915
a(lp920
g888
ag915
aaa(lp921
I1003
aI1007
ag915
a(lp922
g879
ag915
aaasS'wordMap'
p923
(lp924
(lp925
I0
aI4
ag5
a(lp926
(lp927
I0
aS'p'
p928
aa(lp929
I1
aS'o'
p930
aa(lp931
I2
aS's'
p932
aa(lp933
I3
aS't'
p934
aa(lp935
I4
ag932
aaaa(lp936
I7
aI11
ag15
a(lp937
(lp938
I7
aS'3'
p939
aa(lp940
I9
aS'4'
p941
aa(lp942
I10
aS'5'
p943
aa(lp944
I11
aS'8'
p945
aaaa(lp946
I13
aI16
ag24
a(lp947
(lp948
I13
aS'b'
p949
aa(lp950
I14
aS'e'
p951
aa(lp952
I15
ag932
aa(lp953
I16
ag934
aaaa(lp954
I18
aI21
ag33
a(lp955
(lp956
I18
ag932
aa(lp957
I19
aS'h'
p958
aa(lp959
I20
ag930
aa(lp960
I21
aS'w'
p961
aaaa(lp962
I24
aI26
ag42
a(lp963
(lp964
I24
ag941
aa(lp965
I25
aS'7'
p966
aa(lp967
I26
aS'0'
p968
aaaa(lp969
I28
aI37
ag51
a(lp970
(lp971
I28
ag951
aa(lp972
I29
aS'x'
p973
aa(lp974
I30
ag928
aa(lp975
I31
ag951
aa(lp976
I32
aS'r'
p977
aa(lp978
I33
aS'i'
p979
aa(lp980
I34
ag951
aa(lp981
I35
aS'n'
p982
aa(lp983
I36
aS'c'
p984
aa(lp985
I37
ag951
aaaa(lp986
I40
aI40
ag60
a(lp987
(lp988
I40
ag60
aaaa(lp989
I44
aI45
aS'of'
p990
a(lp991
(lp992
I44
ag930
aa(lp993
I45
aS'f'
p994
aaaa(lp995
I47
aI51
ag69
a(lp996
(lp997
I47
ag932
aa(lp998
I48
ag958
aa(lp999
I49
ag930
aa(lp1000
I50
ag961
aa(lp1001
I51
ag932
aaaa(lp1002
I54
aI60
ag78
a(lp1003
(lp1004
I54
ag949
aa(lp1005
I55
aS'u'
p1006
aa(lp1007
I56
aS'm'
p1008
aa(lp1009
I57
ag928
aa(lp1010
I58
ag979
aa(lp1011
I59
ag982
aa(lp1012
I60
aS'g'
p1013
aaaa(lp1014
I65
aI65
aS'a'
p1015
a(lp1016
(lp1017
I65
ag1015
aaaa(lp1018
I67
aI69
aS'few'
p1019
a(lp1020
(lp1021
I67
ag994
aa(lp1022
I68
ag951
aa(lp1023
I69
ag961
aaaa(lp1024
I71
aI76
ag87
a(lp1025
(lp1026
I71
ag928
aa(lp1027
I72
ag951
aa(lp1028
I73
ag930
aa(lp1029
I74
ag928
aa(lp1030
I75
aS'l'
p1031
aa(lp1032
I76
ag951
aaaa(lp1033
I78
aI81
aS'have'
p1034
a(lp1035
(lp1036
I78
ag958
aa(lp1037
I79
ag1015
aa(lp1038
I80
aS'v'
p1039
aa(lp1040
I81
ag951
aaaa(lp1041
I83
aI86
aS'been'
p1042
a(lp1043
(lp1044
I83
ag949
aa(lp1045
I84
ag951
aa(lp1046
I85
ag951
aa(lp1047
I86
ag982
aaaa(lp1048
I88
aI93
ag96
a(lp1049
(lp1050
I88
ag1015
aa(lp1051
I89
ag932
aa(lp1052
I90
aS'k'
p1053
aa(lp1054
I91
ag979
aa(lp1055
I92
ag982
aa(lp1056
I93
ag1013
aaaa(lp1057
I95
aI97
aS'why'
p1058
a(lp1059
(lp1060
I95
ag961
aa(lp1061
I96
ag958
aa(lp1062
I97
aS'y'
p1063
aaaa(lp1064
I99
aI104
ag105
a(lp1065
(lp1066
I99
ag928
aa(lp1067
I100
ag951
aa(lp1068
I101
ag930
aa(lp1069
I102
ag928
aa(lp1070
I103
ag1031
aa(lp1071
I104
ag951
aaaa(lp1072
I106
aI108
aS'are'
p1073
a(lp1074
(lp1075
I106
ag1015
aa(lp1076
I107
ag977
aa(lp1077
I108
ag951
aaaa(lp1078
I110
aI116
ag114
a(lp1079
(lp1080
I110
ag949
aa(lp1081
I111
ag1006
aa(lp1082
I112
ag1008
aa(lp1083
I113
ag928
aa(lp1084
I114
ag979
aa(lp1085
I115
ag982
aa(lp1086
I116
ag1013
aaaa(lp1087
I118
aI124
ag123
a(lp1088
(lp1089
I118
ag934
aa(lp1090
I119
ag958
aa(lp1091
I120
ag977
aa(lp1092
I121
ag951
aa(lp1093
I122
ag1015
aa(lp1094
I123
aS'd'
p1095
aa(lp1096
I124
ag932
aaaa(lp1097
I127
aI130
aS'here'
p1098
a(lp1099
(lp1100
I127
ag958
aa(lp1101
I128
ag951
aa(lp1102
I129
ag977
aa(lp1103
I130
ag951
aaaa(lp1104
I132
aI133
aS'is'
p1105
a(lp1106
(lp1107
I132
ag979
aa(lp1108
I133
ag932
aaaa(lp1109
I135
aI136
aS'an'
p1110
a(lp1111
(lp1112
I135
ag1015
aa(lp1113
I136
ag982
aaaa(lp1114
I138
aI148
ag132
a(lp1115
(lp1116
I138
ag951
aa(lp1117
I139
ag973
aa(lp1118
I140
ag928
aa(lp1119
I141
ag1031
aa(lp1120
I142
ag1015
aa(lp1121
I143
ag982
aa(lp1122
I144
ag1015
aa(lp1123
I145
ag934
aa(lp1124
I146
ag979
aa(lp1125
I147
ag930
aa(lp1126
I148
ag982
aaaa(lp1127
I150
aI153
aS'that'
p1128
a(lp1129
(lp1130
I150
ag934
aa(lp1131
I151
ag958
aa(lp1132
I152
ag1015
aa(lp1133
I153
ag934
aaaa(lp1134
I155
aI155
ag979
a(lp1135
(lp1136
I155
ag979
aaaa(lp1137
I157
aI160
ag141
a(lp1138
(lp1139
I157
ag958
aa(lp1140
I158
ag930
aa(lp1141
I159
ag928
aa(lp1142
I160
ag951
aaaa(lp1143
I162
aI164
aS'can'
p1144
a(lp1145
(lp1146
I162
ag984
aa(lp1147
I163
ag1015
aa(lp1148
I164
ag982
aaaa(lp1149
I166
aI169
ag150
a(lp1150
(lp1151
I166
ag958
aa(lp1152
I167
ag951
aa(lp1153
I168
ag1031
aa(lp1154
I169
ag928
aaaa(lp1155
I171
aI177
ag159
a(lp1156
(lp1157
I171
ag982
aa(lp1158
I172
ag951
aa(lp1159
I173
ag961
aa(lp1160
I174
ag949
aa(lp1161
I175
ag979
aa(lp1162
I176
ag951
aa(lp1163
I177
ag932
aaaa(lp1164
I179
aI180
aS'to'
p1165
a(lp1166
(lp1167
I179
ag934
aa(lp1168
I180
ag930
aaaa(lp1169
I182
aI184
ag168
a(lp1170
(lp1171
I182
ag1013
aa(lp1172
I183
ag951
aa(lp1173
I184
ag934
aaaa(lp1174
I186
aI187
aS'it'
p1175
a(lp1176
(lp1177
I186
ag979
aa(lp1178
I187
ag934
aaaa(lp1179
I190
aI196
ag177
a(lp1180
(lp1181
I190
ag949
aa(lp1182
I191
ag1006
aa(lp1183
I192
ag1008
aa(lp1184
I193
ag928
aa(lp1185
I194
ag979
aa(lp1186
I195
ag982
aa(lp1187
I196
ag1013
aaaa(lp1188
I198
aI200
aS'can'
p1189
a(lp1190
(lp1191
I198
ag984
aa(lp1192
I199
ag1015
aa(lp1193
I200
ag982
aaaa(lp1194
I202
aI203
aS'be'
p1195
a(lp1196
(lp1197
I202
ag949
aa(lp1198
I203
ag951
aaaa(lp1199
I205
aI213
ag186
a(lp1200
(lp1201
I205
ag984
aa(lp1202
I206
ag930
aa(lp1203
I207
ag982
aa(lp1204
I208
ag994
aa(lp1205
I209
ag1006
aa(lp1206
I210
ag932
aa(lp1207
I211
ag979
aa(lp1208
I212
ag982
aa(lp1209
I213
ag1013
aaaa(lp1210
I216
aI217
aS'on'
p1211
a(lp1212
(lp1213
I216
ag930
aa(lp1214
I217
ag982
aaaa(lp1215
I219
aI221
aS'the'
p1216
a(lp1217
(lp1218
I219
ag934
aa(lp1219
I220
ag958
aa(lp1220
I221
ag951
aaaa(lp1221
I223
aI226
ag195
a(lp1222
(lp1223
I223
ag1008
aa(lp1224
I224
ag951
aa(lp1225
I225
ag982
aa(lp1226
I226
ag1006
aaaa(lp1227
I228
aI232
aS'there'
p1228
a(lp1229
(lp1230
I228
ag934
aa(lp1231
I229
ag958
aa(lp1232
I230
ag951
aa(lp1233
I231
ag977
aa(lp1234
I232
ag951
aaaa(lp1235
I234
aI235
aS'is'
p1236
a(lp1237
(lp1238
I234
ag979
aa(lp1239
I235
ag932
aaaa(lp1240
I237
aI238
aS'an'
p1241
a(lp1242
(lp1243
I237
ag1015
aa(lp1244
I238
ag982
aaaa(lp1245
I240
aI245
ag204
a(lp1246
(lp1247
I240
ag930
aa(lp1248
I241
ag928
aa(lp1249
I242
ag934
aa(lp1250
I243
ag979
aa(lp1251
I244
ag930
aa(lp1252
I245
ag982
aaaa(lp1253
I248
aI250
ag213
a(lp1254
(lp1255
I248
ag982
aa(lp1256
I249
ag951
aa(lp1257
I250
ag961
aaaa(lp1258
I252
aI256
ag222
a(lp1259
(lp1260
I252
ag928
aa(lp1261
I253
ag930
aa(lp1262
I254
ag932
aa(lp1263
I255
ag934
aa(lp1264
I256
ag932
aaaa(lp1265
I259
aI262
aS'that'
p1266
a(lp1267
(lp1268
I259
ag934
aa(lp1269
I260
ag958
aa(lp1270
I261
ag1015
aa(lp1271
I262
ag934
aaaa(lp1272
I264
aI268
ag231
a(lp1273
(lp1274
I264
ag932
aa(lp1275
I265
ag958
aa(lp1276
I266
ag930
aa(lp1277
I267
ag961
aa(lp1278
I268
ag932
aaaa(lp1279
I270
aI272
aS'all'
p1280
a(lp1281
(lp1282
I270
ag1015
aa(lp1283
I271
ag1031
aa(lp1284
I272
ag1031
aaaa(lp1285
I274
aI276
aS'the'
p1286
a(lp1287
(lp1288
I274
ag934
aa(lp1289
I275
ag958
aa(lp1290
I276
ag951
aaaa(lp1291
I278
aI284
ag240
a(lp1292
(lp1293
I278
ag934
aa(lp1294
I279
ag958
aa(lp1295
I280
ag977
aa(lp1296
I281
ag951
aa(lp1297
I282
ag1015
aa(lp1298
I283
ag1095
aa(lp1299
I284
ag932
aaaa(lp1300
I286
aI289
aS'that'
p1301
a(lp1302
(lp1303
I286
ag934
aa(lp1304
I287
ag958
aa(lp1305
I288
ag1015
aa(lp1306
I289
ag934
aaaa(lp1307
I291
aI294
aS'have'
p1308
a(lp1309
(lp1310
I291
ag958
aa(lp1311
I292
ag1015
aa(lp1312
I293
ag1039
aa(lp1313
I294
ag951
aaaa(lp1314
I296
aI298
aS'had'
p1315
a(lp1316
(lp1317
I296
ag958
aa(lp1318
I297
ag1015
aa(lp1319
I298
ag1095
aaaa(lp1320
I300
aI307
ag249
a(lp1321
(lp1322
I300
ag1015
aa(lp1323
I301
ag984
aa(lp1324
I302
ag934
aa(lp1325
I303
ag979
aa(lp1326
I304
ag1039
aa(lp1327
I305
ag979
aa(lp1328
I306
ag934
aa(lp1329
I307
ag1063
aaaa(lp1330
I309
aI313
ag258
a(lp1331
(lp1332
I309
ag932
aa(lp1333
I310
ag979
aa(lp1334
I311
ag982
aa(lp1335
I312
ag984
aa(lp1336
I313
ag951
aaaa(lp1337
I315
aI317
aS'you'
p1338
a(lp1339
(lp1340
I315
ag1063
aa(lp1341
I316
ag930
aa(lp1342
I317
ag1006
aaaa(lp1343
I319
aI322
ag267
a(lp1344
(lp1345
I319
ag1031
aa(lp1346
I320
ag1015
aa(lp1347
I321
ag932
aa(lp1348
I322
ag934
aaaa(lp1349
I324
aI330
ag276
a(lp1350
(lp1351
I324
ag1039
aa(lp1352
I325
ag979
aa(lp1353
I326
ag932
aa(lp1354
I327
ag979
aa(lp1355
I328
ag934
aa(lp1356
I329
ag951
aa(lp1357
I330
ag1095
aaaa(lp1358
I332
aI334
aS'the'
p1359
a(lp1360
(lp1361
I332
ag934
aa(lp1362
I333
ag958
aa(lp1363
I334
ag951
aaaa(lp1364
I336
aI339
ag285
a(lp1365
(lp1366
I336
ag932
aa(lp1367
I337
ag979
aa(lp1368
I338
ag934
aa(lp1369
I339
ag951
aaaa(lp1370
I342
aI345
ag294
a(lp1371
(lp1372
I342
ag1008
aa(lp1373
I343
ag1015
aa(lp1374
I344
ag982
aa(lp1375
I345
ag1063
aaaa(lp1376
I347
aI352
ag303
a(lp1377
(lp1378
I347
ag928
aa(lp1379
I348
ag951
aa(lp1380
I349
ag930
aa(lp1381
I350
ag928
aa(lp1382
I351
ag1031
aa(lp1383
I352
ag951
aaaa(lp1384
I354
aI356
ag312
a(lp1385
(lp1386
I354
ag1006
aa(lp1387
I355
ag932
aa(lp1388
I356
ag951
aaaa(lp1389
I358
aI361
aS'that'
p1390
a(lp1391
(lp1392
I358
ag934
aa(lp1393
I359
ag958
aa(lp1394
I360
ag1015
aa(lp1395
I361
ag934
aaaa(lp1396
I363
aI364
aS'as'
p1397
a(lp1398
(lp1399
I363
ag1015
aa(lp1400
I364
ag932
aaaa(lp1401
I366
aI370
aS'their'
p1402
a(lp1403
(lp1404
I366
ag934
aa(lp1405
I367
ag958
aa(lp1406
I368
ag951
aa(lp1407
I369
ag979
aa(lp1408
I370
ag977
aaaa(lp1409
I372
aI377
ag321
a(lp1410
(lp1411
I372
ag951
aa(lp1412
I373
ag982
aa(lp1413
I374
ag934
aa(lp1414
I375
ag979
aa(lp1415
I376
ag977
aa(lp1416
I377
ag951
aaaa(lp1417
I379
aI381
ag330
a(lp1418
(lp1419
I379
ag961
aa(lp1420
I380
ag1015
aa(lp1421
I381
ag1063
aaaa(lp1422
I383
aI384
aS'of'
p1423
a(lp1424
(lp1425
I383
ag930
aa(lp1426
I384
ag994
aaaa(lp1427
I386
aI395
ag339
a(lp1428
(lp1429
I386
ag982
aa(lp1430
I387
ag1015
aa(lp1431
I388
ag1039
aa(lp1432
I389
ag979
aa(lp1433
I390
ag1013
aa(lp1434
I391
ag1015
aa(lp1435
I392
ag934
aa(lp1436
I393
ag979
aa(lp1437
I394
ag982
aa(lp1438
I395
ag1013
aaaa(lp1439
I397
aI399
aS'the'
p1440
a(lp1441
(lp1442
I397
ag934
aa(lp1443
I398
ag958
aa(lp1444
I399
ag951
aaaa(lp1445
I401
aI404
ag348
a(lp1446
(lp1447
I401
ag932
aa(lp1448
I402
ag979
aa(lp1449
I403
ag934
aa(lp1450
I404
ag951
aaaa(lp1451
I407
aI410
aS'they'
p1452
a(lp1453
(lp1454
I407
ag934
aa(lp1455
I408
ag958
aa(lp1456
I409
ag951
aa(lp1457
I410
ag1063
aaaa(lp1458
I412
aI416
ag357
a(lp1459
(lp1460
I412
ag1095
aa(lp1461
I413
ag930
aa(lp1462
I414
ag982
aa(lp1463
I416
ag934
aaaa(lp1464
I418
aI419
ag366
a(lp1465
(lp1466
I418
ag1013
aa(lp1467
I419
ag930
aaaa(lp1468
I421
aI422
aS'to'
p1469
a(lp1470
(lp1471
I421
ag934
aa(lp1472
I422
ag930
aaaa(lp1473
I424
aI426
aS'the'
p1474
a(lp1475
(lp1476
I424
ag934
aa(lp1477
I425
ag958
aa(lp1478
I426
ag951
aaaa(lp1479
I428
aI431
ag375
a(lp1480
(lp1481
I428
ag958
aa(lp1482
I429
ag930
aa(lp1483
I430
ag1008
aa(lp1484
I431
ag951
aaaa(lp1485
I433
aI436
ag384
a(lp1486
(lp1487
I433
ag928
aa(lp1488
I434
ag1015
aa(lp1489
I435
ag1013
aa(lp1490
I436
ag951
aaaa(lp1491
I438
aI439
aS'or'
p1492
a(lp1493
(lp1494
I438
ag930
aa(lp1495
I439
ag977
aaaa(lp1496
I441
aI444
ag393
a(lp1497
(lp1498
I441
ag951
aa(lp1499
I442
ag1039
aa(lp1500
I443
ag951
aa(lp1501
I444
ag982
aaaa(lp1502
I446
aI448
aS'the'
p1503
a(lp1504
(lp1505
I446
ag934
aa(lp1506
I447
ag958
aa(lp1507
I448
ag951
aaaa(lp1508
I450
aI453
ag402
a(lp1509
(lp1510
I450
ag1008
aa(lp1511
I451
ag1015
aa(lp1512
I452
ag979
aa(lp1513
I453
ag982
aaaa(lp1514
I455
aI459
ag411
a(lp1515
(lp1516
I455
ag949
aa(lp1517
I456
ag930
aa(lp1518
I457
ag1015
aa(lp1519
I458
ag977
aa(lp1520
I459
ag1095
aaaa(lp1521
I461
aI465
ag420
a(lp1522
(lp1523
I461
ag928
aa(lp1524
I462
ag1015
aa(lp1525
I463
ag1013
aa(lp1526
I464
ag951
aa(lp1527
I465
ag932
aaaa(lp1528
I467
aI469
aS'but'
p1529
a(lp1530
(lp1531
I467
ag949
aa(lp1532
I468
ag1006
aa(lp1533
I469
ag934
aaaa(lp1534
I471
aI474
aS'only'
p1535
a(lp1536
(lp1537
I471
ag930
aa(lp1538
I472
ag982
aa(lp1539
I473
ag1031
aa(lp1540
I474
ag1063
aaaa(lp1541
I476
aI480
ag429
a(lp1542
(lp1543
I476
ag984
aa(lp1544
I477
ag1031
aa(lp1545
I478
ag979
aa(lp1546
I479
ag984
aa(lp1547
I480
ag1053
aaaa(lp1548
I482
aI483
aS'on'
p1549
a(lp1550
(lp1551
I482
ag930
aa(lp1552
I483
ag982
aaaa(lp1553
I486
aI488
ag438
a(lp1554
(lp1555
I486
ag982
aa(lp1556
I487
ag951
aa(lp1557
I488
ag961
aaaa(lp1558
I490
aI494
ag447
a(lp1559
(lp1560
I490
ag928
aa(lp1561
I491
ag930
aa(lp1562
I492
ag932
aa(lp1563
I493
ag934
aa(lp1564
I494
ag932
aaaa(lp1565
I498
aI500
aS'the'
p1566
a(lp1567
(lp1568
I498
ag934
aa(lp1569
I499
ag958
aa(lp1570
I500
ag951
aaaa(lp1571
I502
aI504
ag456
a(lp1572
(lp1573
I502
ag982
aa(lp1574
I503
ag951
aa(lp1575
I504
ag961
aaaa(lp1576
I506
aI510
ag465
a(lp1577
(lp1578
I506
ag928
aa(lp1579
I507
ag930
aa(lp1580
I508
ag932
aa(lp1581
I509
ag934
aa(lp1582
I510
ag932
aaaa(lp1583
I512
aI513
aS'is'
p1584
a(lp1585
(lp1586
I512
ag979
aa(lp1587
I513
ag932
aaaa(lp1588
I515
aI515
ag1015
a(lp1589
(lp1590
I515
ag1015
aaaa(lp1591
I517
aI522
ag474
a(lp1592
(lp1593
I517
ag932
aa(lp1594
I518
ag951
aa(lp1595
I519
ag1015
aa(lp1596
I520
ag977
aa(lp1597
I521
ag984
aa(lp1598
I522
ag958
aaaa(lp1599
I524
aI529
ag483
a(lp1600
(lp1601
I524
ag951
aa(lp1602
I525
ag982
aa(lp1603
I526
ag1013
aa(lp1604
I527
ag979
aa(lp1605
I528
ag982
aa(lp1606
I529
ag951
aaaa(lp1607
I531
aI533
aS'for'
p1608
a(lp1609
(lp1610
I531
ag994
aa(lp1611
I532
ag930
aa(lp1612
I533
ag977
aaaa(lp1613
I535
aI537
aS'the'
p1614
a(lp1615
(lp1616
I535
ag934
aa(lp1617
I536
ag958
aa(lp1618
I537
ag951
aaaa(lp1619
I539
aI542
ag492
a(lp1620
(lp1621
I539
ag932
aa(lp1622
I540
ag979
aa(lp1623
I541
ag934
aa(lp1624
I542
ag951
aaaa(lp1625
I545
aI546
aS'it'
p1626
a(lp1627
(lp1628
I545
ag979
aa(lp1629
I546
ag934
aaaa(lp1630
I548
aI552
ag501
a(lp1631
(lp1632
I548
ag932
aa(lp1633
I549
ag958
aa(lp1634
I550
ag930
aa(lp1635
I551
ag961
aa(lp1636
I552
ag932
aaaa(lp1637
I554
aI556
aS'the'
p1638
a(lp1639
(lp1640
I554
ag934
aa(lp1641
I555
ag958
aa(lp1642
I556
ag951
aaaa(lp1643
I558
aI561
aS'most'
p1644
a(lp1645
(lp1646
I558
ag1008
aa(lp1647
I559
ag930
aa(lp1648
I560
ag932
aa(lp1649
I561
ag934
aaaa(lp1650
I563
aI568
ag510
a(lp1651
(lp1652
I563
ag977
aa(lp1653
I564
ag951
aa(lp1654
I565
ag984
aa(lp1655
I566
ag951
aa(lp1656
I567
ag982
aa(lp1657
I568
ag934
aaaa(lp1658
I570
aI574
ag519
a(lp1659
(lp1660
I570
ag928
aa(lp1661
I571
ag930
aa(lp1662
I572
ag932
aa(lp1663
I573
ag934
aa(lp1664
I574
ag932
aaaa(lp1665
I576
aI577
aS'in'
p1666
a(lp1667
(lp1668
I576
ag979
aa(lp1669
I577
ag982
aaaa(lp1670
I579
aI588
ag528
a(lp1671
(lp1672
I579
ag1095
aa(lp1673
I580
ag951
aa(lp1674
I581
ag932
aa(lp1675
I582
ag984
aa(lp1676
I583
ag951
aa(lp1677
I584
ag982
aa(lp1678
I585
ag1095
aa(lp1679
I586
ag979
aa(lp1680
I587
ag982
aa(lp1681
I588
ag1013
aaaa(lp1682
I590
aI594
ag537
a(lp1683
(lp1684
I590
ag930
aa(lp1685
I591
ag977
aa(lp1686
I592
ag1095
aa(lp1687
I593
ag951
aa(lp1688
I594
ag977
aaaa(lp1689
I596
aI598
aS'and'
p1690
a(lp1691
(lp1692
I596
ag1015
aa(lp1693
I597
ag982
aa(lp1694
I598
ag1095
aaaa(lp1695
I600
aI609
ag546
a(lp1696
(lp1697
I600
ag994
aa(lp1698
I601
ag977
aa(lp1699
I602
ag951
aa(lp1700
I603
aS'q'
p1701
aa(lp1702
I604
ag1006
aa(lp1703
I605
ag951
aa(lp1704
I606
ag982
aa(lp1705
I607
ag934
aa(lp1706
I608
ag1031
aa(lp1707
I609
ag1063
aaaa(lp1708
I611
aI613
aS'has'
p1709
a(lp1710
(lp1711
I611
ag958
aa(lp1712
I612
ag1015
aa(lp1713
I613
ag932
aaaa(lp1714
I615
aI619
ag555
a(lp1715
(lp1716
I615
ag928
aa(lp1717
I616
ag1015
aa(lp1718
I617
ag1013
aa(lp1719
I618
ag951
aa(lp1720
I619
ag932
aaaa(lp1721
I621
aI623
aS'and'
p1722
a(lp1723
(lp1724
I621
ag1015
aa(lp1725
I622
ag982
aa(lp1726
I623
ag1095
aaaa(lp1727
I625
aI629
ag564
a(lp1728
(lp1729
I625
ag928
aa(lp1730
I626
ag1015
aa(lp1731
I627
ag1013
aa(lp1732
I628
ag951
aa(lp1733
I629
ag932
aaaa(lp1734
I631
aI632
aS'of'
p1735
a(lp1736
(lp1737
I631
ag930
aa(lp1738
I632
ag994
aaaa(lp1739
I634
aI636
ag573
a(lp1740
(lp1741
I634
ag982
aa(lp1742
I635
ag951
aa(lp1743
I636
ag961
aaaa(lp1744
I638
aI642
ag582
a(lp1745
(lp1746
I638
ag928
aa(lp1747
I639
ag930
aa(lp1748
I640
ag932
aa(lp1749
I641
ag934
aa(lp1750
I642
ag932
aaaa(lp1751
I645
aI646
aS'by'
p1752
a(lp1753
(lp1754
I645
ag949
aa(lp1755
I646
ag1063
aaaa(lp1756
I648
aI654
ag591
a(lp1757
(lp1758
I648
ag949
aa(lp1759
I649
ag1006
aa(lp1760
I650
ag1008
aa(lp1761
I651
ag928
aa(lp1762
I652
ag979
aa(lp1763
I653
ag982
aa(lp1764
I654
ag1013
aaaa(lp1765
I656
aI656
ag1015
a(lp1766
(lp1767
I656
ag1015
aaaa(lp1768
I658
aI663
ag600
a(lp1769
(lp1770
I658
ag934
aa(lp1771
I659
ag958
aa(lp1772
I660
ag977
aa(lp1773
I661
ag951
aa(lp1774
I662
ag1015
aa(lp1775
I663
ag1095
aaaa(lp1776
I665
aI666
aS'it'
p1777
a(lp1778
(lp1779
I665
ag979
aa(lp1780
I666
ag934
aaaa(lp1781
I668
aI671
aS'will'
p1782
a(lp1783
(lp1784
I668
ag961
aa(lp1785
I669
ag979
aa(lp1786
I670
ag1031
aa(lp1787
I671
ag1031
aaaa(lp1788
I673
aI678
ag609
a(lp1789
(lp1790
I673
ag949
aa(lp1791
I674
ag951
aa(lp1792
I675
ag984
aa(lp1793
I676
ag930
aa(lp1794
I677
ag1008
aa(lp1795
I678
ag951
aaaa(lp1796
I680
aI682
ag618
a(lp1797
(lp1798
I680
ag930
aa(lp1799
I681
ag982
aa(lp1800
I682
ag951
aaaa(lp1801
I684
aI685
aS'of'
p1802
a(lp1803
(lp1804
I684
ag930
aa(lp1805
I685
ag994
aaaa(lp1806
I687
aI689
aS'the'
p1807
a(lp1808
(lp1809
I687
ag934
aa(lp1810
I688
ag958
aa(lp1811
I689
ag951
aaaa(lp1812
I691
aI693
ag627
a(lp1813
(lp1814
I691
ag60
aa(lp1815
I692
ag932
aa(lp1816
I693
ag934
aaaa(lp1817
I695
aI701
ag636
a(lp1818
(lp1819
I695
ag934
aa(lp1820
I696
ag958
aa(lp1821
I697
ag977
aa(lp1822
I698
ag951
aa(lp1823
I699
ag1015
aa(lp1824
I700
ag1095
aa(lp1825
I701
ag932
aaaa(lp1826
I703
aI709
ag645
a(lp1827
(lp1828
I703
ag932
aa(lp1829
I704
ag930
aa(lp1830
I705
ag1008
aa(lp1831
I706
ag951
aa(lp1832
I707
ag930
aa(lp1833
I708
ag982
aa(lp1834
I709
ag951
aaaa(lp1835
I711
aI715
ag654
a(lp1836
(lp1837
I711
ag961
aa(lp1838
I712
ag930
aa(lp1839
I713
ag1006
aa(lp1840
I714
ag1031
aa(lp1841
I715
ag1095
aaaa(lp1842
I717
aI719
ag663
a(lp1843
(lp1844
I717
ag932
aa(lp1845
I718
ag951
aa(lp1846
I719
ag951
aaaa(lp1847
I721
aI724
aS'when'
p1848
a(lp1849
(lp1850
I721
ag961
aa(lp1851
I722
ag958
aa(lp1852
I723
ag951
aa(lp1853
I724
ag982
aaaa(lp1854
I726
aI729
aS'they'
p1855
a(lp1856
(lp1857
I726
ag934
aa(lp1858
I727
ag958
aa(lp1859
I728
ag951
aa(lp1860
I729
ag1063
aaaa(lp1861
I731
aI735
ag672
a(lp1862
(lp1863
I731
ag984
aa(lp1864
I732
ag1031
aa(lp1865
I733
ag979
aa(lp1866
I734
ag984
aa(lp1867
I735
ag1053
aaaa(lp1868
I737
aI738
aS'on'
p1869
a(lp1870
(lp1871
I737
ag930
aa(lp1872
I738
ag982
aaaa(lp1873
I741
aI743
ag681
a(lp1874
(lp1875
I741
ag982
aa(lp1876
I742
ag951
aa(lp1877
I743
ag961
aaaa(lp1878
I745
aI749
ag690
a(lp1879
(lp1880
I745
ag928
aa(lp1881
I746
ag930
aa(lp1882
I747
ag932
aa(lp1883
I748
ag934
aa(lp1884
I749
ag932
aaaa(lp1885
I753
aI755
ag699
a(lp1886
(lp1887
I753
ag930
aa(lp1888
I754
ag982
aa(lp1889
I755
ag951
aaaa(lp1890
I757
aI759
ag708
a(lp1891
(lp1892
I757
ag961
aa(lp1893
I758
ag1015
aa(lp1894
I759
ag1063
aaaa(lp1895
I761
aI762
aS'to'
p1896
a(lp1897
(lp1898
I761
ag934
aa(lp1899
I762
ag930
aaaa(lp1900
I764
aI766
ag717
a(lp1901
(lp1902
I764
ag932
aa(lp1903
I765
ag951
aa(lp1904
I766
ag951
aaaa(lp1905
I768
aI770
aS'how'
p1906
a(lp1907
(lp1908
I768
ag958
aa(lp1909
I769
ag930
aa(lp1910
I770
ag961
aaaa(lp1911
I772
aI775
aS'this'
p1912
a(lp1913
(lp1914
I772
ag934
aa(lp1915
I773
ag958
aa(lp1916
I774
ag979
aa(lp1917
I775
ag932
aaaa(lp1918
I777
aI781
ag726
a(lp1919
(lp1920
I777
ag961
aa(lp1921
I778
ag930
aa(lp1922
I779
ag977
aa(lp1923
I780
ag1053
aa(lp1924
I781
ag932
aaaa(lp1925
I783
aI784
aS'is'
p1926
a(lp1927
(lp1928
I783
ag979
aa(lp1929
I784
ag932
aaaa(lp1930
I786
aI787
aS'to'
p1931
a(lp1932
(lp1933
I786
ag934
aa(lp1934
I787
ag930
aaaa(lp1935
I789
aI793
ag735
a(lp1936
(lp1937
I789
ag984
aa(lp1938
I790
ag1031
aa(lp1939
I791
ag979
aa(lp1940
I792
ag984
aa(lp1941
I793
ag1053
aaaa(lp1942
I795
aI796
aS'on'
p1943
a(lp1944
(lp1945
I795
ag930
aa(lp1946
I796
ag982
aaaa(lp1947
I799
aI801
ag744
a(lp1948
(lp1949
I799
ag982
aa(lp1950
I800
ag951
aa(lp1951
I801
ag961
aaaa(lp1952
I803
aI807
ag753
a(lp1953
(lp1954
I803
ag928
aa(lp1955
I804
ag930
aa(lp1956
I805
ag932
aa(lp1957
I806
ag934
aa(lp1958
I807
ag932
aaaa(lp1959
I810
aI811
aS'to'
p1960
a(lp1961
(lp1962
I810
ag934
aa(lp1963
I811
ag930
aaaa(lp1964
I813
aI815
ag762
a(lp1965
(lp1966
I813
ag932
aa(lp1967
I814
ag951
aa(lp1968
I815
ag951
aaaa(lp1969
I817
aI820
aS'what'
p1970
a(lp1971
(lp1972
I817
ag961
aa(lp1973
I818
ag958
aa(lp1974
I819
ag1015
aa(lp1975
I820
ag934
aaaa(lp1976
I822
aI823
aS'is'
p1977
a(lp1978
(lp1979
I822
ag979
aa(lp1980
I823
ag932
aaaa(lp1981
I825
aI829
aS'there'
p1982
a(lp1983
(lp1984
I825
ag934
aa(lp1985
I826
ag958
aa(lp1986
I827
ag951
aa(lp1987
I828
ag977
aa(lp1988
I829
ag951
aaaa(lp1989
I832
aI835
aS'then'
p1990
a(lp1991
(lp1992
I832
ag934
aa(lp1993
I833
ag958
aa(lp1994
I834
ag951
aa(lp1995
I835
ag982
aaaa(lp1996
I837
aI842
ag771
a(lp1997
(lp1998
I837
ag932
aa(lp1999
I838
ag951
aa(lp2000
I839
ag1031
aa(lp2001
I840
ag951
aa(lp2002
I841
ag984
aa(lp2003
I842
ag934
aaaa(lp2004
I844
aI844
ag1015
a(lp2005
(lp2006
I844
ag1015
aaaa(lp2007
I846
aI851
ag780
a(lp2008
(lp2009
I846
ag934
aa(lp2010
I847
ag958
aa(lp2011
I848
ag977
aa(lp2012
I849
ag951
aa(lp2013
I850
ag1015
aa(lp2014
I851
ag1095
aaaa(lp2015
I853
aI859
ag789
a(lp2016
(lp2017
I853
ag928
aa(lp2018
I854
ag1015
aa(lp2019
I855
ag977
aa(lp2020
I856
ag934
aa(lp2021
I857
ag961
aa(lp2022
I858
ag1015
aa(lp2023
I859
ag1063
aaaa(lp2024
I861
aI864
aS'down'
p2025
a(lp2026
(lp2027
I861
ag1095
aa(lp2028
I862
ag930
aa(lp2029
I863
ag961
aa(lp2030
I864
ag982
aaaa(lp2031
I866
aI868
aS'the'
p2032
a(lp2033
(lp2034
I866
ag934
aa(lp2035
I867
ag958
aa(lp2036
I868
ag951
aaaa(lp2037
I870
aI875
ag798
a(lp2038
(lp2039
I870
ag932
aa(lp2040
I871
ag984
aa(lp2041
I872
ag977
aa(lp2042
I873
ag951
aa(lp2043
I874
ag951
aa(lp2044
I875
ag982
aaaa(lp2045
I878
aI882
ag807
a(lp2046
(lp2047
I878
ag984
aa(lp2048
I879
ag1031
aa(lp2049
I880
ag979
aa(lp2050
I881
ag984
aa(lp2051
I882
ag1053
aaaa(lp2052
I884
aI885
aS'on'
p2053
a(lp2054
(lp2055
I884
ag930
aa(lp2056
I885
ag982
aaaa(lp2057
I887
aI888
aS'it'
p2058
a(lp2059
(lp2060
I887
ag979
aa(lp2061
I888
ag934
aaaa(lp2062
I891
aI897
ag816
a(lp2063
(lp2064
I891
ag984
aa(lp2065
I892
ag930
aa(lp2066
I893
ag1008
aa(lp2067
I894
ag1008
aa(lp2068
I895
ag951
aa(lp2069
I896
ag982
aa(lp2070
I897
ag934
aaaa(lp2071
I899
aI900
aS'on'
p2072
a(lp2073
(lp2074
I899
ag930
aa(lp2075
I900
ag982
aaaa(lp2076
I902
aI903
aS'it'
p2077
a(lp2078
(lp2079
I902
ag979
aa(lp2080
I903
ag934
aaaa(lp2081
I906
aI908
aS'and'
p2082
a(lp2083
(lp2084
I906
ag1015
aa(lp2085
I907
ag982
aa(lp2086
I908
ag1095
aaaa(lp2087
I910
aI913
aS'then'
p2088
a(lp2089
(lp2090
I910
ag934
aa(lp2091
I911
ag958
aa(lp2092
I912
ag951
aa(lp2093
I913
ag982
aaaa(lp2094
I915
aI919
ag825
a(lp2095
(lp2096
I915
ag984
aa(lp2097
I916
ag1031
aa(lp2098
I917
ag979
aa(lp2099
I918
ag984
aa(lp2100
I919
ag1053
aaaa(lp2101
I921
aI922
aS'on'
p2102
a(lp2103
(lp2104
I921
ag930
aa(lp2105
I922
ag982
aaaa(lp2106
I924
aI926
ag834
a(lp2107
(lp2108
I924
ag982
aa(lp2109
I925
ag951
aa(lp2110
I926
ag961
aaaa(lp2111
I928
aI932
ag843
a(lp2112
(lp2113
I928
ag928
aa(lp2114
I929
ag930
aa(lp2115
I930
ag932
aa(lp2116
I931
ag934
aa(lp2117
I932
ag932
aaaa(lp2118
I934
aI936
aS'and'
p2119
a(lp2120
(lp2121
I934
ag1015
aa(lp2122
I935
ag982
aa(lp2123
I936
ag1095
aaaa(lp2124
I938
aI943
ag852
a(lp2125
(lp2126
I938
ag1063
aa(lp2127
I939
ag930
aa(lp2128
I940
ag1006
aa(lp2129
I942
ag1031
aa(lp2130
I943
ag1031
aaaa(lp2131
I945
aI947
ag861
a(lp2132
(lp2133
I945
ag932
aa(lp2134
I946
ag951
aa(lp2135
I947
ag951
aaaa(lp2136
I949
aI951
aS'the'
p2137
a(lp2138
(lp2139
I949
ag934
aa(lp2140
I950
ag958
aa(lp2141
I951
ag951
aaaa(lp2142
I953
aI958
ag870
a(lp2143
(lp2144
I953
ag934
aa(lp2145
I954
ag958
aa(lp2146
I955
ag977
aa(lp2147
I956
ag951
aa(lp2148
I957
ag1015
aa(lp2149
I958
ag1095
aaaa(lp2150
I960
aI961
aS'is'
p2151
a(lp2152
(lp2153
I960
ag979
aa(lp2154
I961
ag932
aaaa(lp2155
I963
aI965
aS'now'
p2156
a(lp2157
(lp2158
I963
ag982
aa(lp2159
I964
ag930
aa(lp2160
I965
ag961
aaaa(lp2161
I967
aI968
aS'in'
p2162
a(lp2163
(lp2164
I967
ag979
aa(lp2165
I968
ag982
aaaa(lp2166
I970
aI972
aS'the'
p2167
a(lp2168
(lp2169
I970
ag934
aa(lp2170
I971
ag958
aa(lp2171
I972
ag951
aaaa(lp2172
I974
aI976
ag879
a(lp2173
(lp2174
I974
ag934
aa(lp2175
I975
ag930
aa(lp2176
I976
ag928
aaaa(lp2177
I978
aI985
ag888
a(lp2178
(lp2179
I978
ag928
aa(lp2180
I979
ag930
aa(lp2181
I980
ag932
aa(lp2182
I981
ag979
aa(lp2183
I982
ag934
aa(lp2184
I983
ag979
aa(lp2185
I984
ag930
aa(lp2186
I985
ag982
aaaa(lp2187
I988
aI990
ag897
a(lp2188
(lp2189
I988
ag958
aa(lp2190
I989
ag934
aa(lp2191
I990
ag958
aaaa(lp2192
I993
aI996
ag906
a(lp2193
(lp2194
I993
ag958
aa(lp2195
I994
ag930
aa(lp2196
I995
ag928
aa(lp2197
I996
ag951
aaaa(lp2198
I998
aI1001
aS'that'
p2199
a(lp2200
(lp2201
I998
ag934
aa(lp2202
I999
ag958
aa(lp2203
I1000
ag1015
aa(lp2204
I1001
ag934
aaaa(lp2205
I1003
aI1007
ag915
a(lp2206
(lp2207
I1003
ag958
aa(lp2208
I1004
ag951
aa(lp2209
I1005
ag1031
aa(lp2210
I1006
ag928
aa(lp2211
I1007
ag932
aaaasS'cleanCharacterMap'
p2212
(lp2213
g927
ag929
ag931
ag933
ag935
a(lp2214
I6
aS' '
p2215
aag938
ag940
ag942
ag944
a(lp2216
I12
ag2215
aag948
ag950
ag952
ag953
a(lp2217
I17
ag2215
aag956
ag957
ag959
ag960
a(lp2218
I23
ag2215
aag964
ag965
ag967
a(lp2219
I27
ag2215
aag971
ag972
ag974
ag975
ag976
ag978
ag980
ag981
ag983
ag985
a(lp2220
I39
ag2215
aag988
a(lp2221
I41
ag2215
aa(lp2222
I43
ag2215
aag992
ag993
a(lp2223
I46
ag2215
aag997
ag998
ag999
ag1000
ag1001
a(lp2224
I53
ag2215
aag1004
ag1005
ag1007
ag1009
ag1010
ag1011
ag1012
a(lp2225
I64
ag2215
aag1017
a(lp2226
I66
ag2215
aag1021
ag1022
ag1023
a(lp2227
I70
ag2215
aag1026
ag1027
ag1028
ag1029
ag1030
ag1032
a(lp2228
I77
ag2215
aag1036
ag1037
ag1038
ag1040
a(lp2229
I82
ag2215
aag1044
ag1045
ag1046
ag1047
a(lp2230
I87
ag2215
aag1050
ag1051
ag1052
ag1054
ag1055
ag1056
a(lp2231
I94
ag2215
aag1060
ag1061
ag1062
a(lp2232
I98
ag2215
aag1066
ag1067
ag1068
ag1069
ag1070
ag1071
a(lp2233
I105
ag2215
aag1075
ag1076
ag1077
a(lp2234
I109
ag2215
aag1080
ag1081
ag1082
ag1083
ag1084
ag1085
ag1086
a(lp2235
I117
ag2215
aag1089
ag1090
ag1091
ag1092
ag1093
ag1094
ag1096
a(lp2236
I126
ag2215
aag1100
ag1101
ag1102
ag1103
a(lp2237
I131
ag2215
aag1107
ag1108
a(lp2238
I134
ag2215
aag1112
ag1113
a(lp2239
I137
ag2215
aag1116
ag1117
ag1118
ag1119
ag1120
ag1121
ag1122
ag1123
ag1124
ag1125
ag1126
a(lp2240
I149
ag2215
aag1130
ag1131
ag1132
ag1133
a(lp2241
I154
ag2215
aag1136
a(lp2242
I156
ag2215
aag1139
ag1140
ag1141
ag1142
a(lp2243
I161
ag2215
aag1146
ag1147
ag1148
a(lp2244
I165
ag2215
aag1151
ag1152
ag1153
ag1154
a(lp2245
I170
ag2215
aag1157
ag1158
ag1159
ag1160
ag1161
ag1162
ag1163
a(lp2246
I178
ag2215
aag1167
ag1168
a(lp2247
I181
ag2215
aag1171
ag1172
ag1173
a(lp2248
I185
ag2215
aag1177
ag1178
a(lp2249
I189
ag2215
aag1181
ag1182
ag1183
ag1184
ag1185
ag1186
ag1187
a(lp2250
I197
ag2215
aag1191
ag1192
ag1193
a(lp2251
I201
ag2215
aag1197
ag1198
a(lp2252
I204
ag2215
aag1201
ag1202
ag1203
ag1204
ag1205
ag1206
ag1207
ag1208
ag1209
a(lp2253
I215
ag2215
aag1213
ag1214
a(lp2254
I218
ag2215
aag1218
ag1219
ag1220
a(lp2255
I222
ag2215
aag1223
ag1224
ag1225
ag1226
a(lp2256
I227
ag2215
aag1230
ag1231
ag1232
ag1233
ag1234
a(lp2257
I233
ag2215
aag1238
ag1239
a(lp2258
I236
ag2215
aag1243
ag1244
a(lp2259
I239
ag2215
aag1247
ag1248
ag1249
ag1250
ag1251
ag1252
a(lp2260
I246
ag2215
aag1255
ag1256
ag1257
a(lp2261
I251
ag2215
aag1260
ag1261
ag1262
ag1263
ag1264
a(lp2262
I258
ag2215
aag1268
ag1269
ag1270
ag1271
a(lp2263
I263
ag2215
aag1274
ag1275
ag1276
ag1277
ag1278
a(lp2264
I269
ag2215
aag1282
ag1283
ag1284
a(lp2265
I273
ag2215
aag1288
ag1289
ag1290
a(lp2266
I277
ag2215
aag1293
ag1294
ag1295
ag1296
ag1297
ag1298
ag1299
a(lp2267
I285
ag2215
aag1303
ag1304
ag1305
ag1306
a(lp2268
I290
ag2215
aag1310
ag1311
ag1312
ag1313
a(lp2269
I295
ag2215
aag1317
ag1318
ag1319
a(lp2270
I299
ag2215
aag1322
ag1323
ag1324
ag1325
ag1326
ag1327
ag1328
ag1329
a(lp2271
I308
ag2215
aag1332
ag1333
ag1334
ag1335
ag1336
a(lp2272
I314
ag2215
aag1340
ag1341
ag1342
a(lp2273
I318
ag2215
aag1345
ag1346
ag1347
ag1348
a(lp2274
I323
ag2215
aag1351
ag1352
ag1353
ag1354
ag1355
ag1356
ag1357
a(lp2275
I331
ag2215
aag1361
ag1362
ag1363
a(lp2276
I335
ag2215
aag1366
ag1367
ag1368
ag1369
a(lp2277
I341
ag2215
aag1372
ag1373
ag1374
ag1375
a(lp2278
I346
ag2215
aag1378
ag1379
ag1380
ag1381
ag1382
ag1383
a(lp2279
I353
ag2215
aag1386
ag1387
ag1388
a(lp2280
I357
ag2215
aag1392
ag1393
ag1394
ag1395
a(lp2281
I362
ag2215
aag1399
ag1400
a(lp2282
I365
ag2215
aag1404
ag1405
ag1406
ag1407
ag1408
a(lp2283
I371
ag2215
aag1411
ag1412
ag1413
ag1414
ag1415
ag1416
a(lp2284
I378
ag2215
aag1419
ag1420
ag1421
a(lp2285
I382
ag2215
aag1425
ag1426
a(lp2286
I385
ag2215
aag1429
ag1430
ag1431
ag1432
ag1433
ag1434
ag1435
ag1436
ag1437
ag1438
a(lp2287
I396
ag2215
aag1442
ag1443
ag1444
a(lp2288
I400
ag2215
aag1447
ag1448
ag1449
ag1450
a(lp2289
I406
ag2215
aag1454
ag1455
ag1456
ag1457
a(lp2290
I411
ag2215
aag1460
ag1461
ag1462
ag1463
a(lp2291
I417
ag2215
aag1466
ag1467
a(lp2292
I420
ag2215
aag1471
ag1472
a(lp2293
I423
ag2215
aag1476
ag1477
ag1478
a(lp2294
I427
ag2215
aag1481
ag1482
ag1483
ag1484
a(lp2295
I432
ag2215
aag1487
ag1488
ag1489
ag1490
a(lp2296
I437
ag2215
aag1494
ag1495
a(lp2297
I440
ag2215
aag1498
ag1499
ag1500
ag1501
a(lp2298
I445
ag2215
aag1505
ag1506
ag1507
a(lp2299
I449
ag2215
aag1510
ag1511
ag1512
ag1513
a(lp2300
I454
ag2215
aag1516
ag1517
ag1518
ag1519
ag1520
a(lp2301
I460
ag2215
aag1523
ag1524
ag1525
ag1526
ag1527
a(lp2302
I466
ag2215
aag1531
ag1532
ag1533
a(lp2303
I470
ag2215
aag1537
ag1538
ag1539
ag1540
a(lp2304
I475
ag2215
aag1543
ag1544
ag1545
ag1546
ag1547
a(lp2305
I481
ag2215
aag1551
ag1552
a(lp2306
I484
ag2215
aag1555
ag1556
ag1557
a(lp2307
I489
ag2215
aag1560
ag1561
ag1562
ag1563
ag1564
a(lp2308
I497
ag2215
aag1568
ag1569
ag1570
a(lp2309
I501
ag2215
aag1573
ag1574
ag1575
a(lp2310
I505
ag2215
aag1578
ag1579
ag1580
ag1581
ag1582
a(lp2311
I511
ag2215
aag1586
ag1587
a(lp2312
I514
ag2215
aag1590
a(lp2313
I516
ag2215
aag1593
ag1594
ag1595
ag1596
ag1597
ag1598
a(lp2314
I523
ag2215
aag1601
ag1602
ag1603
ag1604
ag1605
ag1606
a(lp2315
I530
ag2215
aag1610
ag1611
ag1612
a(lp2316
I534
ag2215
aag1616
ag1617
ag1618
a(lp2317
I538
ag2215
aag1621
ag1622
ag1623
ag1624
a(lp2318
I544
ag2215
aag1628
ag1629
a(lp2319
I547
ag2215
aag1632
ag1633
ag1634
ag1635
ag1636
a(lp2320
I553
ag2215
aag1640
ag1641
ag1642
a(lp2321
I557
ag2215
aag1646
ag1647
ag1648
ag1649
a(lp2322
I562
ag2215
aag1652
ag1653
ag1654
ag1655
ag1656
ag1657
a(lp2323
I569
ag2215
aag1660
ag1661
ag1662
ag1663
ag1664
a(lp2324
I575
ag2215
aag1668
ag1669
a(lp2325
I578
ag2215
aag1672
ag1673
ag1674
ag1675
ag1676
ag1677
ag1678
ag1679
ag1680
ag1681
a(lp2326
I589
ag2215
aag1684
ag1685
ag1686
ag1687
ag1688
a(lp2327
I595
ag2215
aag1692
ag1693
ag1694
a(lp2328
I599
ag2215
aag1697
ag1698
ag1699
ag1700
ag1702
ag1703
ag1704
ag1705
ag1706
ag1707
a(lp2329
I610
ag2215
aag1711
ag1712
ag1713
a(lp2330
I614
ag2215
aag1716
ag1717
ag1718
ag1719
ag1720
a(lp2331
I620
ag2215
aag1724
ag1725
ag1726
a(lp2332
I624
ag2215
aag1729
ag1730
ag1731
ag1732
ag1733
a(lp2333
I630
ag2215
aag1737
ag1738
a(lp2334
I633
ag2215
aag1741
ag1742
ag1743
a(lp2335
I637
ag2215
aag1746
ag1747
ag1748
ag1749
ag1750
a(lp2336
I644
ag2215
aag1754
ag1755
a(lp2337
I647
ag2215
aag1758
ag1759
ag1760
ag1761
ag1762
ag1763
ag1764
a(lp2338
I655
ag2215
aag1767
a(lp2339
I657
ag2215
aag1770
ag1771
ag1772
ag1773
ag1774
ag1775
a(lp2340
I664
ag2215
aag1779
ag1780
a(lp2341
I667
ag2215
aag1784
ag1785
ag1786
ag1787
a(lp2342
I672
ag2215
aag1790
ag1791
ag1792
ag1793
ag1794
ag1795
a(lp2343
I679
ag2215
aag1798
ag1799
ag1800
a(lp2344
I683
ag2215
aag1804
ag1805
a(lp2345
I686
ag2215
aag1809
ag1810
ag1811
a(lp2346
I690
ag2215
aag1814
ag1815
ag1816
a(lp2347
I694
ag2215
aag1819
ag1820
ag1821
ag1822
ag1823
ag1824
ag1825
a(lp2348
I702
ag2215
aag1828
ag1829
ag1830
ag1831
ag1832
ag1833
ag1834
a(lp2349
I710
ag2215
aag1837
ag1838
ag1839
ag1840
ag1841
a(lp2350
I716
ag2215
aag1844
ag1845
ag1846
a(lp2351
I720
ag2215
aag1850
ag1851
ag1852
ag1853
a(lp2352
I725
ag2215
aag1857
ag1858
ag1859
ag1860
a(lp2353
I730
ag2215
aag1863
ag1864
ag1865
ag1866
ag1867
a(lp2354
I736
ag2215
aag1871
ag1872
a(lp2355
I739
ag2215
aag1875
ag1876
ag1877
a(lp2356
I744
ag2215
aag1880
ag1881
ag1882
ag1883
ag1884
a(lp2357
I752
ag2215
aag1887
ag1888
ag1889
a(lp2358
I756
ag2215
aag1892
ag1893
ag1894
a(lp2359
I760
ag2215
aag1898
ag1899
a(lp2360
I763
ag2215
aag1902
ag1903
ag1904
a(lp2361
I767
ag2215
aag1908
ag1909
ag1910
a(lp2362
I771
ag2215
aag1914
ag1915
ag1916
ag1917
a(lp2363
I776
ag2215
aag1920
ag1921
ag1922
ag1923
ag1924
a(lp2364
I782
ag2215
aag1928
ag1929
a(lp2365
I785
ag2215
aag1933
ag1934
a(lp2366
I788
ag2215
aag1937
ag1938
ag1939
ag1940
ag1941
a(lp2367
I794
ag2215
aag1945
ag1946
a(lp2368
I797
ag2215
aag1949
ag1950
ag1951
a(lp2369
I802
ag2215
aag1954
ag1955
ag1956
ag1957
ag1958
a(lp2370
I809
ag2215
aag1962
ag1963
a(lp2371
I812
ag2215
aag1966
ag1967
ag1968
a(lp2372
I816
ag2215
aag1972
ag1973
ag1974
ag1975
a(lp2373
I821
ag2215
aag1979
ag1980
a(lp2374
I824
ag2215
aag1984
ag1985
ag1986
ag1987
ag1988
a(lp2375
I831
ag2215
aag1992
ag1993
ag1994
ag1995
a(lp2376
I836
ag2215
aag1998
ag1999
ag2000
ag2001
ag2002
ag2003
a(lp2377
I843
ag2215
aag2006
a(lp2378
I845
ag2215
aag2009
ag2010
ag2011
ag2012
ag2013
ag2014
a(lp2379
I852
ag2215
aag2017
ag2018
ag2019
ag2020
ag2021
ag2022
ag2023
a(lp2380
I860
ag2215
aag2027
ag2028
ag2029
ag2030
a(lp2381
I865
ag2215
aag2034
ag2035
ag2036
a(lp2382
I869
ag2215
aag2039
ag2040
ag2041
ag2042
ag2043
ag2044
a(lp2383
I877
ag2215
aag2047
ag2048
ag2049
ag2050
ag2051
a(lp2384
I883
ag2215
aag2055
ag2056
a(lp2385
I886
ag2215
aag2060
ag2061
a(lp2386
I890
ag2215
aag2064
ag2065
ag2066
ag2067
ag2068
ag2069
ag2070
a(lp2387
I898
ag2215
aag2074
ag2075
a(lp2388
I901
ag2215
aag2079
ag2080
a(lp2389
I905
ag2215
aag2084
ag2085
ag2086
a(lp2390
I909
ag2215
aag2090
ag2091
ag2092
ag2093
a(lp2391
I914
ag2215
aag2096
ag2097
ag2098
ag2099
ag2100
a(lp2392
I920
ag2215
aag2104
ag2105
a(lp2393
I923
ag2215
aag2108
ag2109
ag2110
a(lp2394
I927
ag2215
aag2113
ag2114
ag2115
ag2116
ag2117
a(lp2395
I933
ag2215
aag2121
ag2122
ag2123
a(lp2396
I937
ag2215
aag2126
ag2127
ag2128
ag2129
ag2130
a(lp2397
I944
ag2215
aag2133
ag2134
ag2135
a(lp2398
I948
ag2215
aag2139
ag2140
ag2141
a(lp2399
I952
ag2215
aag2144
ag2145
ag2146
ag2147
ag2148
ag2149
a(lp2400
I959
ag2215
aag2153
ag2154
a(lp2401
I962
ag2215
aag2158
ag2159
ag2160
a(lp2402
I966
ag2215
aag2164
ag2165
a(lp2403
I969
ag2215
aag2169
ag2170
ag2171
a(lp2404
I973
ag2215
aag2174
ag2175
ag2176
a(lp2405
I977
ag2215
aag2179
ag2180
ag2181
ag2182
ag2183
ag2184
ag2185
ag2186
a(lp2406
I987
ag2215
aag2189
ag2190
ag2191
a(lp2407
I991
ag2215
aag2194
ag2195
ag2196
ag2197
a(lp2408
I997
ag2215
aag2201
ag2202
ag2203
ag2204
a(lp2409
I1002
ag2215
aag2207
ag2208
ag2209
ag2210
ag2211
a(lp2410
I1009
ag2215
aa(lp2411
I1011
aS'\xa0'
p2412
aasS'text'
p2413
S'posts: 3,458 best show: 470 experience: 1 # of shows: bumping... a few people have been asking why people are bumping threads. here is an explanation that i hope can help newbies to get it. bumping can be confusing. on the menu there is an option "new posts" that shows all the threads that have had activity since you last visited the site. many people use that as their entire way of navigating the site, they don\'t go to the home page or even the main board pages but only click on "new posts". the new posts is a search engine for the site. it shows the most recent posts in descending order and frequently has pages and pages of new posts. by bumping a thread it will become one of the 1st threads someone would see when they click on "new posts". one way to see how this works is to click on "new posts" to see what is there. then select a thread partway down the screen, click on it, comment on it, and then click on new posts and you\'ll see the thread is now in the top position. hth (hope that helps) \xc2\xa0'
p2414
sS'cleanWordMap'
p2415
(lp2416
g925
ag936
ag946
ag954
ag962
ag969
ag986
ag995
ag1002
ag1024
ag1048
ag1064
ag1078
ag1087
ag1114
ag1137
ag1149
ag1155
ag1169
ag1179
ag1199
ag1221
ag1245
ag1253
ag1258
ag1272
ag1291
ag1320
ag1330
ag1343
ag1349
ag1364
ag1370
ag1376
ag1384
ag1409
ag1417
ag1427
ag1445
ag1458
ag1464
ag1479
ag1485
ag1496
ag1508
ag1514
ag1521
ag1541
ag1553
ag1558
ag1571
ag1576
ag1591
ag1599
ag1619
ag1630
ag1650
ag1658
ag1670
ag1682
ag1695
ag1714
ag1727
ag1739
ag1744
ag1756
ag1768
ag1788
ag1796
ag1812
ag1817
ag1826
ag1835
ag1842
ag1861
ag1873
ag1878
ag1885
ag1890
ag1900
ag1918
ag1935
ag1947
ag1952
ag1964
ag1996
ag2007
ag2015
ag2037
ag2045
ag2062
ag2094
ag2106
ag2111
ag2124
ag2131
ag2142
ag2172
ag2177
ag2187
ag2192
ag2205
asS'lines'
p2417
(lp2418
VPosts: 3,458 Best Show: 470 Experience: 1 # of Shows:\u000a
p2419
aVBumping...\u000a
p2420
aVA few people have been asking why people are bumping threads. Here is an explanation that I hope can help newbies to get it. Bumping can be confusing. On the menu there is an option "new posts" that shows all the threads that have had activity since you last visited the site. Many people use that as their entire way of navigating the site, they don't go to the home page or even the main board pages but only click on "new posts". The new posts is a search engine for the site. It shows the most recent posts in descending order and frequently has pages and pages of new posts. By bumping a thread it will become one of the 1st threads someone would see when they click on "new posts". One way to see how this works is to click on "new posts" to see what is there. Then select a thread partway down the screen, click on it, comment on it, and then click on new posts and you'll see the thread is now in the top position. HTH (hope that helps)\u000a
p2421
aV
p2422
asS'docType'
p2423
S'src'
p2424
sS'newfmap'
p2425
(lp2426
g4
ag8
ag10
ag12
ag14
ag17
ag19
ag21
ag23
ag26
ag28
ag30
ag32
ag35
ag37
ag39
ag41
ag44
ag46
ag48
ag50
ag53
ag55
ag57
ag59
ag62
ag64
ag66
ag68
ag71
ag73
ag75
ag77
ag80
ag82
ag84
ag86
ag89
ag91
ag93
ag95
ag98
ag100
ag102
ag104
ag107
ag109
ag111
ag113
ag116
ag118
ag120
ag122
ag125
ag127
ag129
ag131
ag134
ag136
ag138
ag140
ag143
ag145
ag147
ag149
ag152
ag154
ag156
ag158
ag161
ag163
ag165
ag167
ag170
ag172
ag174
ag176
ag179
ag181
ag183
ag185
ag188
ag190
ag192
ag194
ag197
ag199
ag201
ag203
ag206
ag208
ag210
ag212
ag215
ag217
ag219
ag224
ag226
ag228
ag230
ag233
ag235
ag237
ag239
ag242
ag244
ag246
ag248
ag251
ag253
ag255
ag257
ag260
ag262
ag264
ag266
ag269
ag271
ag273
ag275
ag278
ag280
ag282
ag284
ag287
ag289
ag291
ag293
ag296
ag298
ag300
ag302
ag305
ag307
ag309
ag311
ag314
ag316
ag318
ag320
ag323
ag325
ag327
ag329
ag332
ag334
ag336
ag338
ag341
ag343
ag345
ag347
ag350
ag352
ag354
ag356
ag359
ag361
ag363
ag365
ag368
ag370
ag372
ag374
ag377
ag379
ag381
ag383
ag386
ag388
ag390
ag392
ag395
ag397
ag399
ag401
ag404
ag406
ag408
ag410
ag413
ag415
ag417
ag419
ag422
ag424
ag426
ag428
ag431
ag433
ag435
ag440
ag442
ag444
ag451
ag453
ag455
ag458
ag462
ag467
ag473
ag476
ag478
ag480
ag482
ag485
ag487
ag489
ag491
ag494
ag496
ag498
ag500
ag503
ag505
ag507
ag509
ag512
ag514
ag516
ag518
ag521
ag523
ag525
ag527
ag530
ag532
ag534
ag536
ag539
ag541
ag543
ag545
ag548
ag550
ag552
ag554
ag557
ag559
ag561
ag563
ag566
ag568
ag570
ag572
ag575
ag577
ag579
ag584
ag586
ag588
ag590
ag593
ag595
ag597
ag599
ag602
ag604
ag606
ag608
ag611
ag613
ag615
ag617
ag620
ag622
ag624
ag626
ag629
ag631
ag633
ag635
ag638
ag640
ag642
ag644
ag647
ag649
ag651
ag653
ag656
ag658
ag660
ag662
ag665
ag667
ag669
ag671
ag674
ag676
ag678
ag683
ag685
ag687
ag694
ag696
ag698
ag701
ag703
ag705
ag707
ag710
ag712
ag714
ag716
ag719
ag721
ag723
ag725
ag728
ag730
ag732
ag734
ag737
ag739
ag741
ag746
ag748
ag750
ag757
ag759
ag761
ag764
ag766
ag768
ag770
ag773
ag775
ag777
ag779
ag782
ag784
ag786
ag788
ag791
ag793
ag795
ag797
ag800
ag802
ag804
ag806
ag809
ag811
ag813
ag815
ag818
ag820
ag822
ag824
ag827
ag829
ag831
ag836
ag840
ag847
ag851
ag854
ag856
ag858
ag860
ag863
ag865
ag867
ag869
ag872
ag874
ag876
ag878
ag881
ag883
ag885
ag887
ag890
ag892
ag894
ag896
ag899
ag901
ag903
ag905
ag908
ag910
ag912
ag914
ag917
ag919
ag921
asS'featureMap'
p2427
(lp2428
(lp2429
I0
aI4
ag5
ag6
ag9
ag11
ag13
aa(lp2430
I7
aI11
ag15
ag16
ag18
ag20
ag22
aa(lp2431
I13
aI16
ag24
ag25
ag27
ag29
ag31
aa(lp2432
I18
aI21
ag33
ag34
ag36
ag38
ag40
aa(lp2433
I24
aI26
ag42
ag43
ag45
ag47
ag49
aa(lp2434
I28
aI37
ag51
ag52
ag54
ag56
ag58
aa(lp2435
I40
aI40
ag60
ag61
ag63
ag65
ag67
aa(lp2436
I47
aI51
ag69
ag70
ag72
ag74
ag76
aa(lp2437
I54
aI60
ag78
ag79
ag81
ag83
ag85
aa(lp2438
I71
aI76
ag87
ag88
ag90
ag92
ag94
aa(lp2439
I88
aI93
ag96
ag97
ag99
ag101
ag103
aa(lp2440
I99
aI104
ag105
ag106
ag108
ag110
ag112
aa(lp2441
I110
aI116
ag114
ag115
ag117
ag119
ag121
aa(lp2442
I118
aI124
ag123
ag124
ag126
ag128
ag130
aa(lp2443
I138
aI148
ag132
ag133
ag135
ag137
ag139
aa(lp2444
I157
aI160
ag141
ag142
ag144
ag146
ag148
aa(lp2445
I166
aI169
ag150
ag151
ag153
ag155
ag157
aa(lp2446
I171
aI177
ag159
ag160
ag162
ag164
ag166
aa(lp2447
I182
aI184
ag168
ag169
ag171
ag173
ag175
aa(lp2448
I190
aI196
ag177
ag178
ag180
ag182
ag184
aa(lp2449
I205
aI213
ag186
ag187
ag189
ag191
ag193
aa(lp2450
I223
aI226
ag195
ag196
ag198
ag200
ag202
aa(lp2451
I240
aI245
ag204
ag205
ag207
ag209
ag211
aa(lp2452
I248
aI250
ag213
ag214
ag216
ag218
ag220
aa(lp2453
I252
aI256
ag222
ag223
ag225
ag227
ag229
aa(lp2454
I264
aI268
ag231
ag232
ag234
ag236
ag238
aa(lp2455
I278
aI284
ag240
ag241
ag243
ag245
ag247
aa(lp2456
I300
aI307
ag249
ag250
ag252
ag254
ag256
aa(lp2457
I309
aI313
ag258
ag259
ag261
ag263
ag265
aa(lp2458
I319
aI322
ag267
ag268
ag270
ag272
ag274
aa(lp2459
I324
aI330
ag276
ag277
ag279
ag281
ag283
aa(lp2460
I336
aI339
ag285
ag286
ag288
ag290
ag292
aa(lp2461
I342
aI345
ag294
ag295
ag297
ag299
ag301
aa(lp2462
I347
aI352
ag303
ag304
ag306
ag308
ag310
aa(lp2463
I354
aI356
ag312
ag313
ag315
ag317
ag319
aa(lp2464
I372
aI377
ag321
ag322
ag324
ag326
ag328
aa(lp2465
I379
aI381
ag330
ag331
ag333
ag335
ag337
aa(lp2466
I386
aI395
ag339
ag340
ag342
ag344
ag346
aa(lp2467
I401
aI404
ag348
ag349
ag351
ag353
ag355
aa(lp2468
I412
aI416
ag357
ag358
ag360
ag362
ag364
aa(lp2469
I418
aI419
ag366
ag367
ag369
ag371
ag373
aa(lp2470
I428
aI431
ag375
ag376
ag378
ag380
ag382
aa(lp2471
I433
aI436
ag384
ag385
ag387
ag389
ag391
aa(lp2472
I441
aI444
ag393
ag394
ag396
ag398
ag400
aa(lp2473
I450
aI453
ag402
ag403
ag405
ag407
ag409
aa(lp2474
I455
aI459
ag411
ag412
ag414
ag416
ag418
aa(lp2475
I461
aI465
ag420
ag421
ag423
ag425
ag427
aa(lp2476
I476
aI480
ag429
ag430
ag432
ag434
ag436
aa(lp2477
I486
aI488
ag438
ag439
ag441
ag443
ag445
aa(lp2478
I490
aI494
ag447
ag448
ag450
ag452
ag454
aa(lp2479
I502
aI504
ag456
ag457
ag459
ag461
ag463
aa(lp2480
I506
aI510
ag465
ag466
ag468
ag470
ag472
aa(lp2481
I517
aI522
ag474
ag475
ag477
ag479
ag481
aa(lp2482
I524
aI529
ag483
ag484
ag486
ag488
ag490
aa(lp2483
I539
aI542
ag492
ag493
ag495
ag497
ag499
aa(lp2484
I548
aI552
ag501
ag502
ag504
ag506
ag508
aa(lp2485
I563
aI568
ag510
ag511
ag513
ag515
ag517
aa(lp2486
I570
aI574
ag519
ag520
ag522
ag524
ag526
aa(lp2487
I579
aI588
ag528
ag529
ag531
ag533
ag535
aa(lp2488
I590
aI594
ag537
ag538
ag540
ag542
ag544
aa(lp2489
I600
aI609
ag546
ag547
ag549
ag551
ag553
aa(lp2490
I615
aI619
ag555
ag556
ag558
ag560
ag562
aa(lp2491
I625
aI629
ag564
ag565
ag567
ag569
ag571
aa(lp2492
I634
aI636
ag573
ag574
ag576
ag578
ag580
aa(lp2493
I638
aI642
ag582
ag583
ag585
ag587
ag589
aa(lp2494
I648
aI654
ag591
ag592
ag594
ag596
ag598
aa(lp2495
I658
aI663
ag600
ag601
ag603
ag605
ag607
aa(lp2496
I673
aI678
ag609
ag610
ag612
ag614
ag616
aa(lp2497
I680
aI682
ag618
ag619
ag621
ag623
ag625
aa(lp2498
I691
aI693
ag627
ag628
ag630
ag632
ag634
aa(lp2499
I695
aI701
ag636
ag637
ag639
ag641
ag643
aa(lp2500
I703
aI709
ag645
ag646
ag648
ag650
ag652
aa(lp2501
I711
aI715
ag654
ag655
ag657
ag659
ag661
aa(lp2502
I717
aI719
ag663
ag664
ag666
ag668
ag670
aa(lp2503
I731
aI735
ag672
ag673
ag675
ag677
ag679
aa(lp2504
I741
aI743
ag681
ag682
ag684
ag686
ag688
aa(lp2505
I745
aI749
ag690
ag691
ag693
ag695
ag697
aa(lp2506
I753
aI755
ag699
ag700
ag702
ag704
ag706
aa(lp2507
I757
aI759
ag708
ag709
ag711
ag713
ag715
aa(lp2508
I764
aI766
ag717
ag718
ag720
ag722
ag724
aa(lp2509
I777
aI781
ag726
ag727
ag729
ag731
ag733
aa(lp2510
I789
aI793
ag735
ag736
ag738
ag740
ag742
aa(lp2511
I799
aI801
ag744
ag745
ag747
ag749
ag751
aa(lp2512
I803
aI807
ag753
ag754
ag756
ag758
ag760
aa(lp2513
I813
aI815
ag762
ag763
ag765
ag767
ag769
aa(lp2514
I837
aI842
ag771
ag772
ag774
ag776
ag778
aa(lp2515
I846
aI851
ag780
ag781
ag783
ag785
ag787
aa(lp2516
I853
aI859
ag789
ag790
ag792
ag794
ag796
aa(lp2517
I870
aI875
ag798
ag799
ag801
ag803
ag805
aa(lp2518
I878
aI882
ag807
ag808
ag810
ag812
ag814
aa(lp2519
I891
aI897
ag816
ag817
ag819
ag821
ag823
aa(lp2520
I915
aI919
ag825
ag826
ag828
ag830
ag832
aa(lp2521
I924
aI926
ag834
ag835
ag837
ag839
ag841
aa(lp2522
I928
aI932
ag843
ag844
ag846
ag848
ag850
aa(lp2523
I938
aI943
ag852
ag853
ag855
ag857
ag859
aa(lp2524
I945
aI947
ag861
ag862
ag864
ag866
ag868
aa(lp2525
I953
aI958
ag870
ag871
ag873
ag875
ag877
aa(lp2526
I974
aI976
ag879
ag880
ag882
ag884
ag886
aa(lp2527
I978
aI985
ag888
ag889
ag891
ag893
ag895
aa(lp2528
I988
aI990
ag897
ag898
ag900
ag902
ag904
aa(lp2529
I993
aI996
ag906
ag907
ag909
ag911
ag913
aa(lp2530
I1003
aI1007
ag915
ag916
ag918
ag920
ag922
aasS'characterMap'
p2531
(lp2532
g927
ag929
ag931
ag933
ag935
a(lp2533
I5
aS':'
p2534
aag2214
ag938
a(lp2535
I8
aS','
p2536
aag940
ag942
ag944
ag2216
ag948
ag950
ag952
ag953
ag2217
ag956
ag957
ag959
ag960
a(lp2537
I22
ag2534
aag2218
ag964
ag965
ag967
ag2219
ag971
ag972
ag974
ag975
ag976
ag978
ag980
ag981
ag983
ag985
a(lp2538
I38
ag2534
aag2220
ag988
ag2221
a(lp2539
I42
aS'#'
p2540
aag2222
ag992
ag993
ag2223
ag997
ag998
ag999
ag1000
ag1001
a(lp2541
I52
ag2534
aag2224
ag1004
ag1005
ag1007
ag1009
ag1010
ag1011
ag1012
a(lp2542
I61
aS'.'
p2543
aa(lp2544
I62
ag2543
aa(lp2545
I63
ag2543
aag2225
ag1017
ag2226
ag1021
ag1022
ag1023
ag2227
ag1026
ag1027
ag1028
ag1029
ag1030
ag1032
ag2228
ag1036
ag1037
ag1038
ag1040
ag2229
ag1044
ag1045
ag1046
ag1047
ag2230
ag1050
ag1051
ag1052
ag1054
ag1055
ag1056
ag2231
ag1060
ag1061
ag1062
ag2232
ag1066
ag1067
ag1068
ag1069
ag1070
ag1071
ag2233
ag1075
ag1076
ag1077
ag2234
ag1080
ag1081
ag1082
ag1083
ag1084
ag1085
ag1086
ag2235
ag1089
ag1090
ag1091
ag1092
ag1093
ag1094
ag1096
a(lp2546
I125
ag2543
aag2236
ag1100
ag1101
ag1102
ag1103
ag2237
ag1107
ag1108
ag2238
ag1112
ag1113
ag2239
ag1116
ag1117
ag1118
ag1119
ag1120
ag1121
ag1122
ag1123
ag1124
ag1125
ag1126
ag2240
ag1130
ag1131
ag1132
ag1133
ag2241
ag1136
ag2242
ag1139
ag1140
ag1141
ag1142
ag2243
ag1146
ag1147
ag1148
ag2244
ag1151
ag1152
ag1153
ag1154
ag2245
ag1157
ag1158
ag1159
ag1160
ag1161
ag1162
ag1163
ag2246
ag1167
ag1168
ag2247
ag1171
ag1172
ag1173
ag2248
ag1177
ag1178
a(lp2547
I188
ag2543
aag2249
ag1181
ag1182
ag1183
ag1184
ag1185
ag1186
ag1187
ag2250
ag1191
ag1192
ag1193
ag2251
ag1197
ag1198
ag2252
ag1201
ag1202
ag1203
ag1204
ag1205
ag1206
ag1207
ag1208
ag1209
a(lp2548
I214
ag2543
aag2253
ag1213
ag1214
ag2254
ag1218
ag1219
ag1220
ag2255
ag1223
ag1224
ag1225
ag1226
ag2256
ag1230
ag1231
ag1232
ag1233
ag1234
ag2257
ag1238
ag1239
ag2258
ag1243
ag1244
ag2259
ag1247
ag1248
ag1249
ag1250
ag1251
ag1252
ag2260
a(lp2549
I247
aS'"'
p2550
aag1255
ag1256
ag1257
ag2261
ag1260
ag1261
ag1262
ag1263
ag1264
a(lp2551
I257
ag2550
aag2262
ag1268
ag1269
ag1270
ag1271
ag2263
ag1274
ag1275
ag1276
ag1277
ag1278
ag2264
ag1282
ag1283
ag1284
ag2265
ag1288
ag1289
ag1290
ag2266
ag1293
ag1294
ag1295
ag1296
ag1297
ag1298
ag1299
ag2267
ag1303
ag1304
ag1305
ag1306
ag2268
ag1310
ag1311
ag1312
ag1313
ag2269
ag1317
ag1318
ag1319
ag2270
ag1322
ag1323
ag1324
ag1325
ag1326
ag1327
ag1328
ag1329
ag2271
ag1332
ag1333
ag1334
ag1335
ag1336
ag2272
ag1340
ag1341
ag1342
ag2273
ag1345
ag1346
ag1347
ag1348
ag2274
ag1351
ag1352
ag1353
ag1354
ag1355
ag1356
ag1357
ag2275
ag1361
ag1362
ag1363
ag2276
ag1366
ag1367
ag1368
ag1369
a(lp2552
I340
ag2543
aag2277
ag1372
ag1373
ag1374
ag1375
ag2278
ag1378
ag1379
ag1380
ag1381
ag1382
ag1383
ag2279
ag1386
ag1387
ag1388
ag2280
ag1392
ag1393
ag1394
ag1395
ag2281
ag1399
ag1400
ag2282
ag1404
ag1405
ag1406
ag1407
ag1408
ag2283
ag1411
ag1412
ag1413
ag1414
ag1415
ag1416
ag2284
ag1419
ag1420
ag1421
ag2285
ag1425
ag1426
ag2286
ag1429
ag1430
ag1431
ag1432
ag1433
ag1434
ag1435
ag1436
ag1437
ag1438
ag2287
ag1442
ag1443
ag1444
ag2288
ag1447
ag1448
ag1449
ag1450
a(lp2553
I405
ag2536
aag2289
ag1454
ag1455
ag1456
ag1457
ag2290
ag1460
ag1461
ag1462
a(lp2554
I415
aS"'"
p2555
aag1463
ag2291
ag1466
ag1467
ag2292
ag1471
ag1472
ag2293
ag1476
ag1477
ag1478
ag2294
ag1481
ag1482
ag1483
ag1484
ag2295
ag1487
ag1488
ag1489
ag1490
ag2296
ag1494
ag1495
ag2297
ag1498
ag1499
ag1500
ag1501
ag2298
ag1505
ag1506
ag1507
ag2299
ag1510
ag1511
ag1512
ag1513
ag2300
ag1516
ag1517
ag1518
ag1519
ag1520
ag2301
ag1523
ag1524
ag1525
ag1526
ag1527
ag2302
ag1531
ag1532
ag1533
ag2303
ag1537
ag1538
ag1539
ag1540
ag2304
ag1543
ag1544
ag1545
ag1546
ag1547
ag2305
ag1551
ag1552
ag2306
a(lp2556
I485
ag2550
aag1555
ag1556
ag1557
ag2307
ag1560
ag1561
ag1562
ag1563
ag1564
a(lp2557
I495
ag2550
aa(lp2558
I496
ag2543
aag2308
ag1568
ag1569
ag1570
ag2309
ag1573
ag1574
ag1575
ag2310
ag1578
ag1579
ag1580
ag1581
ag1582
ag2311
ag1586
ag1587
ag2312
ag1590
ag2313
ag1593
ag1594
ag1595
ag1596
ag1597
ag1598
ag2314
ag1601
ag1602
ag1603
ag1604
ag1605
ag1606
ag2315
ag1610
ag1611
ag1612
ag2316
ag1616
ag1617
ag1618
ag2317
ag1621
ag1622
ag1623
ag1624
a(lp2559
I543
ag2543
aag2318
ag1628
ag1629
ag2319
ag1632
ag1633
ag1634
ag1635
ag1636
ag2320
ag1640
ag1641
ag1642
ag2321
ag1646
ag1647
ag1648
ag1649
ag2322
ag1652
ag1653
ag1654
ag1655
ag1656
ag1657
ag2323
ag1660
ag1661
ag1662
ag1663
ag1664
ag2324
ag1668
ag1669
ag2325
ag1672
ag1673
ag1674
ag1675
ag1676
ag1677
ag1678
ag1679
ag1680
ag1681
ag2326
ag1684
ag1685
ag1686
ag1687
ag1688
ag2327
ag1692
ag1693
ag1694
ag2328
ag1697
ag1698
ag1699
ag1700
ag1702
ag1703
ag1704
ag1705
ag1706
ag1707
ag2329
ag1711
ag1712
ag1713
ag2330
ag1716
ag1717
ag1718
ag1719
ag1720
ag2331
ag1724
ag1725
ag1726
ag2332
ag1729
ag1730
ag1731
ag1732
ag1733
ag2333
ag1737
ag1738
ag2334
ag1741
ag1742
ag1743
ag2335
ag1746
ag1747
ag1748
ag1749
ag1750
a(lp2560
I643
ag2543
aag2336
ag1754
ag1755
ag2337
ag1758
ag1759
ag1760
ag1761
ag1762
ag1763
ag1764
ag2338
ag1767
ag2339
ag1770
ag1771
ag1772
ag1773
ag1774
ag1775
ag2340
ag1779
ag1780
ag2341
ag1784
ag1785
ag1786
ag1787
ag2342
ag1790
ag1791
ag1792
ag1793
ag1794
ag1795
ag2343
ag1798
ag1799
ag1800
ag2344
ag1804
ag1805
ag2345
ag1809
ag1810
ag1811
ag2346
ag1814
ag1815
ag1816
ag2347
ag1819
ag1820
ag1821
ag1822
ag1823
ag1824
ag1825
ag2348
ag1828
ag1829
ag1830
ag1831
ag1832
ag1833
ag1834
ag2349
ag1837
ag1838
ag1839
ag1840
ag1841
ag2350
ag1844
ag1845
ag1846
ag2351
ag1850
ag1851
ag1852
ag1853
ag2352
ag1857
ag1858
ag1859
ag1860
ag2353
ag1863
ag1864
ag1865
ag1866
ag1867
ag2354
ag1871
ag1872
ag2355
a(lp2561
I740
ag2550
aag1875
ag1876
ag1877
ag2356
ag1880
ag1881
ag1882
ag1883
ag1884
a(lp2562
I750
ag2550
aa(lp2563
I751
ag2543
aag2357
ag1887
ag1888
ag1889
ag2358
ag1892
ag1893
ag1894
ag2359
ag1898
ag1899
ag2360
ag1902
ag1903
ag1904
ag2361
ag1908
ag1909
ag1910
ag2362
ag1914
ag1915
ag1916
ag1917
ag2363
ag1920
ag1921
ag1922
ag1923
ag1924
ag2364
ag1928
ag1929
ag2365
ag1933
ag1934
ag2366
ag1937
ag1938
ag1939
ag1940
ag1941
ag2367
ag1945
ag1946
ag2368
a(lp2564
I798
ag2550
aag1949
ag1950
ag1951
ag2369
ag1954
ag1955
ag1956
ag1957
ag1958
a(lp2565
I808
ag2550
aag2370
ag1962
ag1963
ag2371
ag1966
ag1967
ag1968
ag2372
ag1972
ag1973
ag1974
ag1975
ag2373
ag1979
ag1980
ag2374
ag1984
ag1985
ag1986
ag1987
ag1988
a(lp2566
I830
ag2543
aag2375
ag1992
ag1993
ag1994
ag1995
ag2376
ag1998
ag1999
ag2000
ag2001
ag2002
ag2003
ag2377
ag2006
ag2378
ag2009
ag2010
ag2011
ag2012
ag2013
ag2014
ag2379
ag2017
ag2018
ag2019
ag2020
ag2021
ag2022
ag2023
ag2380
ag2027
ag2028
ag2029
ag2030
ag2381
ag2034
ag2035
ag2036
ag2382
ag2039
ag2040
ag2041
ag2042
ag2043
ag2044
a(lp2567
I876
ag2536
aag2383
ag2047
ag2048
ag2049
ag2050
ag2051
ag2384
ag2055
ag2056
ag2385
ag2060
ag2061
a(lp2568
I889
ag2536
aag2386
ag2064
ag2065
ag2066
ag2067
ag2068
ag2069
ag2070
ag2387
ag2074
ag2075
ag2388
ag2079
ag2080
a(lp2569
I904
ag2536
aag2389
ag2084
ag2085
ag2086
ag2390
ag2090
ag2091
ag2092
ag2093
ag2391
ag2096
ag2097
ag2098
ag2099
ag2100
ag2392
ag2104
ag2105
ag2393
ag2108
ag2109
ag2110
ag2394
ag2113
ag2114
ag2115
ag2116
ag2117
ag2395
ag2121
ag2122
ag2123
ag2396
ag2126
ag2127
ag2128
a(lp2570
I941
ag2555
aag2129
ag2130
ag2397
ag2133
ag2134
ag2135
ag2398
ag2139
ag2140
ag2141
ag2399
ag2144
ag2145
ag2146
ag2147
ag2148
ag2149
ag2400
ag2153
ag2154
ag2401
ag2158
ag2159
ag2160
ag2402
ag2164
ag2165
ag2403
ag2169
ag2170
ag2171
ag2404
ag2174
ag2175
ag2176
ag2405
ag2179
ag2180
ag2181
ag2182
ag2183
ag2184
ag2185
ag2186
a(lp2571
I986
ag2543
aag2406
ag2189
ag2190
ag2191
ag2407
a(lp2572
I992
aS'('
p2573
aag2194
ag2195
ag2196
ag2197
ag2408
ag2201
ag2202
ag2203
ag2204
ag2409
ag2207
ag2208
ag2209
ag2210
ag2211
a(lp2574
I1008
aS')'
p2575
aag2410
a(lp2576
I1010
aS'\xc2'
p2577
aag2411
asS'docName'
p2578
S'source-document02776.txt'
p2579
sb.