(iModel.Document
Document
p0
(dp1
S'fmap'
p2
(lp3
(lp4
I8
aI11
aS'math'
p5
a(lp6
S'*'
p7
ag5
aaa(lp8
I8
aI11
ag5
a(lp9
g7
ag5
aaa(lp10
I8
aI11
ag5
a(lp11
g7
ag5
aaa(lp12
I8
aI11
ag5
a(lp13
g7
ag5
aaa(lp14
I13
aI21
aS'questions'
p15
a(lp16
g5
ag15
aaa(lp17
I13
aI21
ag15
a(lp18
g7
ag15
aaa(lp19
I13
aI21
ag15
a(lp20
g7
ag15
aaa(lp21
I13
aI21
ag15
a(lp22
g7
ag15
aaa(lp23
I30
aI32
aS'sat'
p24
a(lp25
g15
ag24
aaa(lp26
I30
aI32
ag24
a(lp27
g5
ag24
aaa(lp28
I30
aI32
ag24
a(lp29
g7
ag24
aaa(lp30
I30
aI32
ag24
a(lp31
g7
ag24
aaa(lp32
I38
aI52
aS'multiplechoice'
p33
a(lp34
g24
ag33
aaa(lp35
I38
aI52
ag33
a(lp36
g15
ag33
aaa(lp37
I38
aI52
ag33
a(lp38
g5
ag33
aaa(lp39
I38
aI52
ag33
a(lp40
g7
ag33
aaa(lp41
I59
aI61
aS'one'
p42
a(lp43
g33
ag42
aaa(lp44
I59
aI61
ag42
a(lp45
g24
ag42
aaa(lp46
I59
aI61
ag42
a(lp47
g15
ag42
aaa(lp48
I59
aI61
ag42
a(lp49
g5
ag42
aaa(lp50
I63
aI66
aS'type'
p51
a(lp52
g42
ag51
aaa(lp53
I63
aI66
ag51
a(lp54
g33
ag51
aaa(lp55
I63
aI66
ag51
a(lp56
g24
ag51
aaa(lp57
I63
aI66
ag51
a(lp58
g15
ag51
aaa(lp59
I68
aI70
aS'\xe2\x80\x94'
p60
a(lp61
g51
ag60
aaa(lp62
I68
aI70
ag60
a(lp63
g42
ag60
aaa(lp64
I68
aI70
ag60
a(lp65
g33
ag60
aaa(lp66
I68
aI70
ag60
a(lp67
g24
ag60
aaa(lp68
I72
aI77
aS'called'
p69
a(lp70
g60
ag69
aaa(lp71
I72
aI77
ag69
a(lp72
g51
ag69
aaa(lp73
I72
aI77
ag69
a(lp74
g42
ag69
aaa(lp75
I72
aI77
ag69
a(lp76
g33
ag69
aaa(lp77
I81
aI96
aS'studentproduced'
p78
a(lp79
g69
ag78
aaa(lp80
I81
aI96
ag78
a(lp81
g60
ag78
aaa(lp82
I81
aI96
ag78
a(lp83
g51
ag78
aaa(lp84
I81
aI96
ag78
a(lp85
g42
ag78
aaa(lp86
I98
aI105
aS'response'
p87
a(lp88
g78
ag87
aaa(lp89
I98
aI105
ag87
a(lp90
g69
ag87
aaa(lp91
I98
aI105
ag87
a(lp92
g60
ag87
aaa(lp93
I98
aI105
ag87
a(lp94
g51
ag87
aaa(lp95
I111
aI117
aS'gridin'
p96
a(lp97
g87
ag96
aaa(lp98
I111
aI117
ag96
a(lp99
g78
ag96
aaa(lp100
I111
aI117
ag96
a(lp101
g69
ag96
aaa(lp102
I111
aI117
ag96
a(lp103
g60
ag96
aaa(lp104
I135
aI138
aS'find'
p105
a(lp106
g96
ag105
aaa(lp107
I135
aI138
ag105
a(lp108
g87
ag105
aaa(lp109
I135
aI138
ag105
a(lp110
g78
ag105
aaa(lp111
I135
aI138
ag105
a(lp112
g69
ag105
aaa(lp113
I144
aI147
aS'fill'
p114
a(lp115
g105
ag114
aaa(lp116
I144
aI147
ag114
a(lp117
g96
ag114
aaa(lp118
I144
aI147
ag114
a(lp119
g87
ag114
aaa(lp120
I144
aI147
ag114
a(lp121
g78
ag114
aaa(lp122
I161
aI166
aS'answer'
p123
a(lp124
g114
ag123
aaa(lp125
I161
aI166
ag123
a(lp126
g105
ag123
aaa(lp127
I161
aI166
ag123
a(lp128
g96
ag123
aaa(lp129
I161
aI166
ag123
a(lp130
g87
ag123
aaa(lp131
I172
aI178
aS'penalty'
p132
a(lp133
g123
ag132
aaa(lp134
I172
aI178
ag132
a(lp135
g114
ag132
aaa(lp136
I172
aI178
ag132
a(lp137
g105
ag132
aaa(lp138
I172
aI178
ag132
a(lp139
g96
ag132
aaa(lp140
I184
aI188
aS'wrong'
p141
a(lp142
g132
ag141
aaa(lp143
I184
aI188
ag141
a(lp144
g123
ag141
aaa(lp145
I184
aI188
ag141
a(lp146
g114
ag141
aaa(lp147
I184
aI188
ag141
a(lp148
g105
ag141
aaa(lp149
I190
aI196
aS'answers'
p150
a(lp151
g141
ag150
aaa(lp152
I190
aI196
ag150
a(lp153
g132
ag150
aaa(lp154
I190
aI196
ag150
a(lp155
g123
ag150
aaa(lp156
I190
aI196
ag150
a(lp157
g114
ag150
aaa(lp158
I201
aI206
aS'points'
p159
a(lp160
g150
ag159
aaa(lp161
I201
aI206
ag159
a(lp162
g141
ag159
aaa(lp163
I201
aI206
ag159
a(lp164
g132
ag159
aaa(lp165
I201
aI206
ag159
a(lp166
g123
ag159
aaa(lp167
I216
aI225
aS'subtracted'
p168
a(lp169
g159
ag168
aaa(lp170
I216
aI225
ag168
a(lp171
g150
ag168
aaa(lp172
I216
aI225
ag168
a(lp173
g141
ag168
aaa(lp174
I216
aI225
ag168
a(lp175
g132
ag168
aaa(lp176
I233
aI237
aS'wrong'
p177
a(lp178
g168
ag177
aaa(lp179
I233
aI237
ag177
a(lp180
g159
ag177
aaa(lp181
I233
aI237
ag177
a(lp182
g150
ag177
aaa(lp183
I233
aI237
ag177
a(lp184
g141
ag177
aaa(lp185
I239
aI244
aS'answer'
p186
a(lp187
g177
ag186
aaa(lp188
I239
aI244
ag186
a(lp189
g168
ag186
aaa(lp190
I239
aI244
ag186
a(lp191
g159
ag186
aaa(lp192
I239
aI244
ag186
a(lp193
g150
ag186
aaa(lp194
I254
aI266
aS'questiontype'
p195
a(lp196
g186
ag195
aaa(lp197
I254
aI266
ag195
a(lp198
g177
ag195
aaa(lp199
I254
aI266
ag195
a(lp200
g168
ag195
aaa(lp201
I254
aI266
ag195
a(lp202
g159
ag195
aaa(lp203
I269
aI273
aS'since'
p204
a(lp205
g195
ag204
aaa(lp206
I269
aI273
ag204
a(lp207
g186
ag204
aaa(lp208
I269
aI273
ag204
a(lp209
g177
ag204
aaa(lp210
I269
aI273
ag204
a(lp211
g168
ag204
aaa(lp212
I288
aI302
aS'multiplechoice'
p213
a(lp214
g204
ag213
aaa(lp215
I288
aI302
ag213
a(lp216
g195
ag213
aaa(lp217
I288
aI302
ag213
a(lp218
g186
ag213
aaa(lp219
I288
aI302
ag213
a(lp220
g177
ag213
aaa(lp221
I304
aI310
aS'options'
p222
a(lp223
g213
ag222
aaa(lp224
I304
aI310
ag222
a(lp225
g204
ag222
aaa(lp226
I304
aI310
ag222
a(lp227
g195
ag222
aaa(lp228
I304
aI310
ag222
a(lp229
g186
ag222
aaa(lp230
I313
aI320
aS'compared'
p231
a(lp232
g222
ag231
aaa(lp233
I313
aI320
ag231
a(lp234
g213
ag231
aaa(lp235
I313
aI320
ag231
a(lp236
g204
ag231
aaa(lp237
I313
aI320
ag231
a(lp238
g195
ag231
aaa(lp239
I331
aI344
aS'questiontypes'
p240
a(lp241
g231
ag240
aaa(lp242
I331
aI344
ag240
a(lp243
g222
ag240
aaa(lp244
I331
aI344
ag240
a(lp245
g213
ag240
aaa(lp246
I331
aI344
ag240
a(lp247
g204
ag240
aaa(lp248
I346
aI353
aS'gridins'
p249
a(lp250
g240
ag249
aaa(lp251
I346
aI353
ag249
a(lp252
g231
ag249
aaa(lp253
I346
aI353
ag249
a(lp254
g222
ag249
aaa(lp255
I346
aI353
ag249
a(lp256
g213
ag249
aaa(lp257
I359
aI362
aS'like'
p258
a(lp259
g249
ag258
aaa(lp260
I359
aI362
ag258
a(lp261
g240
ag258
aaa(lp262
I359
aI362
ag258
a(lp263
g231
ag258
aaa(lp264
I359
aI362
ag258
a(lp265
g222
ag258
aaa(lp266
I364
aI370
aS'regular'
p267
a(lp268
g258
ag267
aaa(lp269
I364
aI370
ag267
a(lp270
g249
ag267
aaa(lp271
I364
aI370
ag267
a(lp272
g240
ag267
aaa(lp273
I364
aI370
ag267
a(lp274
g231
ag267
aaa(lp275
I372
aI375
aS'math'
p276
a(lp277
g267
ag276
aaa(lp278
I372
aI375
ag276
a(lp279
g258
ag276
aaa(lp280
I372
aI375
ag276
a(lp281
g249
ag276
aaa(lp282
I372
aI375
ag276
a(lp283
g240
ag276
aaa(lp284
I377
aI385
aS'questions'
p285
a(lp286
g276
ag285
aaa(lp287
I377
aI385
ag285
a(lp288
g267
ag285
aaa(lp289
I377
aI385
ag285
a(lp290
g258
ag285
aaa(lp291
I377
aI385
ag285
a(lp292
g249
ag285
aaa(lp293
I393
aI397
aS'cover'
p294
a(lp295
g285
ag294
aaa(lp296
I393
aI397
ag294
a(lp297
g276
ag294
aaa(lp298
I393
aI397
ag294
a(lp299
g267
ag294
aaa(lp300
I393
aI397
ag294
a(lp301
g258
ag294
aaa(lp302
I408
aI414
aS'subject'
p303
a(lp304
g294
ag303
aaa(lp305
I408
aI414
ag303
a(lp306
g285
ag303
aaa(lp307
I408
aI414
ag303
a(lp308
g276
ag303
aaa(lp309
I408
aI414
ag303
a(lp310
g267
ag303
aaa(lp311
I416
aI420
aS'areas'
p312
a(lp313
g303
ag312
aaa(lp314
I416
aI420
ag312
a(lp315
g294
ag312
aaa(lp316
I416
aI420
ag312
a(lp317
g285
ag312
aaa(lp318
I416
aI420
ag312
a(lp319
g276
ag312
aaa(lp320
I432
aI436
aS'range'
p321
a(lp322
g312
ag321
aaa(lp323
I432
aI436
ag321
a(lp324
g303
ag321
aaa(lp325
I432
aI436
ag321
a(lp326
g294
ag321
aaa(lp327
I432
aI436
ag321
a(lp328
g285
ag321
aaa(lp329
I441
aI450
aS'difficulty'
p330
a(lp331
g321
ag330
aaa(lp332
I441
aI450
ag330
a(lp333
g312
ag330
aaa(lp334
I441
aI450
ag330
a(lp335
g303
ag330
aaa(lp336
I441
aI450
ag330
a(lp337
g294
ag330
aaa(lp338
I457
aI460
aS'easy'
p339
a(lp340
g330
ag339
aaa(lp341
I457
aI460
ag339
a(lp342
g321
ag339
aaa(lp343
I457
aI460
ag339
a(lp344
g312
ag339
aaa(lp345
I457
aI460
ag339
a(lp346
g303
ag339
aaa(lp347
I465
aI468
aS'hard'
p348
a(lp349
g339
ag348
aaa(lp350
I465
aI468
ag348
a(lp351
g330
ag348
aaa(lp352
I465
aI468
ag348
a(lp353
g321
ag348
aaa(lp354
I465
aI468
ag348
a(lp355
g312
ag348
aaa(lp356
I478
aI487
aS'calculator'
p357
a(lp358
g348
ag357
aaa(lp359
I478
aI487
ag357
a(lp360
g339
ag357
aaa(lp361
I478
aI487
ag357
a(lp362
g330
ag357
aaa(lp363
I478
aI487
ag357
a(lp364
g321
ag357
aaa(lp365
I492
aI495
aS'hand'
p366
a(lp367
g357
ag366
aaa(lp368
I492
aI495
ag366
a(lp369
g348
ag366
aaa(lp370
I492
aI495
ag366
a(lp371
g339
ag366
aaa(lp372
I492
aI495
ag366
a(lp373
g330
ag366
aaa(lp374
I504
aI506
aS'use'
p375
a(lp376
g366
ag375
aaa(lp377
I504
aI506
ag375
a(lp378
g357
ag375
aaa(lp379
I504
aI506
ag375
a(lp380
g348
ag375
aaa(lp381
I504
aI506
ag375
a(lp382
g339
ag375
aaa(lp383
I510
aI519
aS'calculator'
p384
a(lp385
g375
ag384
aaa(lp386
I510
aI519
ag384
a(lp387
g366
ag384
aaa(lp388
I510
aI519
ag384
a(lp389
g357
ag384
aaa(lp390
I510
aI519
ag384
a(lp391
g348
ag384
aaa(lp392
I524
aI528
aS'solve'
p393
a(lp394
g384
ag393
aaa(lp395
I524
aI528
ag393
a(lp396
g375
ag393
aaa(lp397
I524
aI528
ag393
a(lp398
g366
ag393
aaa(lp399
I524
aI528
ag393
a(lp400
g357
ag393
aaa(lp401
I534
aI539
aS'answer'
p402
a(lp403
g393
ag402
aaa(lp404
I534
aI539
ag402
a(lp405
g384
ag402
aaa(lp406
I534
aI539
ag402
a(lp407
g375
ag402
aaa(lp408
I534
aI539
ag402
a(lp409
g366
ag402
aaa(lp410
I546
aI552
aS'problem'
p411
a(lp412
g402
ag411
aaa(lp413
I546
aI552
ag411
a(lp414
g393
ag411
aaa(lp415
I546
aI552
ag411
a(lp416
g384
ag411
aaa(lp417
I546
aI552
ag411
a(lp418
g375
ag411
aaa(lp419
I555
aI559
aS'check'
p420
a(lp421
g411
ag420
aaa(lp422
I555
aI559
ag420
a(lp423
g402
ag420
aaa(lp424
I555
aI559
ag420
a(lp425
g393
ag420
aaa(lp426
I555
aI559
ag420
a(lp427
g384
ag420
aaa(lp428
I566
aI569
aS'work'
p429
a(lp430
g420
ag429
aaa(lp431
I566
aI569
ag429
a(lp432
g411
ag429
aaa(lp433
I566
aI569
ag429
a(lp434
g402
ag429
aaa(lp435
I566
aI569
ag429
a(lp436
g393
ag429
aaa(lp437
I571
aI579
aS'carefully'
p438
a(lp439
g429
ag438
aaa(lp440
I571
aI579
ag438
a(lp441
g420
ag438
aaa(lp442
I571
aI579
ag438
a(lp443
g411
ag438
aaa(lp444
I571
aI579
ag438
a(lp445
g402
ag438
aaasS'wordMap'
p446
(lp447
(lp448
I0
aI2
aS'not'
p449
a(lp450
(lp451
I0
aS'n'
p452
aa(lp453
I1
aS'o'
p454
aa(lp455
I2
aS't'
p456
aaaa(lp457
I4
aI6
aS'all'
p458
a(lp459
(lp460
I4
aS'a'
p461
aa(lp462
I5
aS'l'
p463
aa(lp464
I6
ag463
aaaa(lp465
I8
aI11
ag5
a(lp466
(lp467
I8
aS'm'
p468
aa(lp469
I9
ag461
aa(lp470
I10
ag456
aa(lp471
I11
aS'h'
p472
aaaa(lp473
I13
aI21
ag15
a(lp474
(lp475
I13
aS'q'
p476
aa(lp477
I14
aS'u'
p478
aa(lp479
I15
aS'e'
p480
aa(lp481
I16
aS's'
p482
aa(lp483
I17
ag456
aa(lp484
I18
aS'i'
p485
aa(lp486
I19
ag454
aa(lp487
I20
ag452
aa(lp488
I21
ag482
aaaa(lp489
I23
aI24
aS'on'
p490
a(lp491
(lp492
I23
ag454
aa(lp493
I24
ag452
aaaa(lp494
I26
aI28
aS'the'
p495
a(lp496
(lp497
I26
ag456
aa(lp498
I27
ag472
aa(lp499
I28
ag480
aaaa(lp500
I30
aI32
ag24
a(lp501
(lp502
I30
ag482
aa(lp503
I31
ag461
aa(lp504
I32
ag456
aaaa(lp505
I34
aI36
aS'are'
p506
a(lp507
(lp508
I34
ag461
aa(lp509
I35
aS'r'
p510
aa(lp511
I36
ag480
aaaa(lp512
I38
aI52
ag33
a(lp513
(lp514
I38
ag468
aa(lp515
I39
ag478
aa(lp516
I40
ag463
aa(lp517
I41
ag456
aa(lp518
I42
ag485
aa(lp519
I43
aS'p'
p520
aa(lp521
I44
ag463
aa(lp522
I45
ag480
aa(lp523
I47
aS'c'
p524
aa(lp525
I48
ag472
aa(lp526
I49
ag454
aa(lp527
I50
ag485
aa(lp528
I51
ag524
aa(lp529
I52
ag480
aaaa(lp530
I55
aI57
aS'for'
p531
a(lp532
(lp533
I55
aS'f'
p534
aa(lp535
I56
ag454
aa(lp536
I57
ag510
aaaa(lp537
I59
aI61
ag42
a(lp538
(lp539
I59
ag454
aa(lp540
I60
ag452
aa(lp541
I61
ag480
aaaa(lp542
I63
aI66
ag51
a(lp543
(lp544
I63
ag456
aa(lp545
I64
aS'y'
p546
aa(lp547
I65
ag520
aa(lp548
I66
ag480
aaaa(lp549
I68
aI70
ag60
a(lp550
(lp551
I68
aS'\xe2'
p552
aa(lp553
I69
aS'\x80'
p554
aa(lp555
I70
aS'\x94'
p556
aaaa(lp557
I72
aI77
ag69
a(lp558
(lp559
I72
ag524
aa(lp560
I73
ag461
aa(lp561
I74
ag463
aa(lp562
I75
ag463
aa(lp563
I76
ag480
aa(lp564
I77
aS'd'
p565
aaaa(lp566
I79
aI79
ag461
a(lp567
(lp568
I79
ag461
aaaa(lp569
I81
aI96
ag78
a(lp570
(lp571
I81
ag482
aa(lp572
I82
ag456
aa(lp573
I83
ag478
aa(lp574
I84
ag565
aa(lp575
I85
ag480
aa(lp576
I86
ag452
aa(lp577
I87
ag456
aa(lp578
I89
ag520
aa(lp579
I90
ag510
aa(lp580
I91
ag454
aa(lp581
I92
ag565
aa(lp582
I93
ag478
aa(lp583
I94
ag524
aa(lp584
I95
ag480
aa(lp585
I96
ag565
aaaa(lp586
I98
aI105
ag87
a(lp587
(lp588
I98
ag510
aa(lp589
I99
ag480
aa(lp590
I100
ag482
aa(lp591
I101
ag520
aa(lp592
I102
ag454
aa(lp593
I103
ag452
aa(lp594
I104
ag482
aa(lp595
I105
ag480
aaaa(lp596
I108
aI109
aS'or'
p597
a(lp598
(lp599
I108
ag454
aa(lp600
I109
ag510
aaaa(lp601
I111
aI117
ag96
a(lp602
(lp603
I111
aS'g'
p604
aa(lp605
I112
ag510
aa(lp606
I113
ag485
aa(lp607
I114
ag565
aa(lp608
I116
ag485
aa(lp609
I117
ag452
aaaa(lp610
I123
aI125
aS'you'
p611
a(lp612
(lp613
I123
ag546
aa(lp614
I124
ag454
aa(lp615
I125
ag478
aaaa(lp616
I127
aI130
aS'have'
p617
a(lp618
(lp619
I127
ag472
aa(lp620
I128
ag461
aa(lp621
I129
aS'v'
p622
aa(lp623
I130
ag480
aaaa(lp624
I132
aI133
aS'to'
p625
a(lp626
(lp627
I132
ag456
aa(lp628
I133
ag454
aaaa(lp629
I135
aI138
ag105
a(lp630
(lp631
I135
ag534
aa(lp632
I136
ag485
aa(lp633
I137
ag452
aa(lp634
I138
ag565
aaaa(lp635
I140
aI142
aS'and'
p636
a(lp637
(lp638
I140
ag461
aa(lp639
I141
ag452
aa(lp640
I142
ag565
aaaa(lp641
I144
aI147
ag114
a(lp642
(lp643
I144
ag534
aa(lp644
I145
ag485
aa(lp645
I146
ag463
aa(lp646
I147
ag463
aaaa(lp647
I149
aI150
aS'in'
p648
a(lp649
(lp650
I149
ag485
aa(lp651
I150
ag452
aaaa(lp652
I152
aI155
aS'your'
p653
a(lp654
(lp655
I152
ag546
aa(lp656
I153
ag454
aa(lp657
I154
ag478
aa(lp658
I155
ag510
aaaa(lp659
I157
aI159
aS'own'
p660
a(lp661
(lp662
I157
ag454
aa(lp663
I158
aS'w'
p664
aa(lp665
I159
ag452
aaaa(lp666
I161
aI166
ag123
a(lp667
(lp668
I161
ag461
aa(lp669
I162
ag452
aa(lp670
I163
ag482
aa(lp671
I164
ag664
aa(lp672
I165
ag480
aa(lp673
I166
ag510
aaaa(lp674
I169
aI170
aS'no'
p675
a(lp676
(lp677
I169
ag452
aa(lp678
I170
ag454
aaaa(lp679
I172
aI178
ag132
a(lp680
(lp681
I172
ag520
aa(lp682
I173
ag480
aa(lp683
I174
ag452
aa(lp684
I175
ag461
aa(lp685
I176
ag463
aa(lp686
I177
ag456
aa(lp687
I178
ag546
aaaa(lp688
I180
aI182
aS'for'
p689
a(lp690
(lp691
I180
ag534
aa(lp692
I181
ag454
aa(lp693
I182
ag510
aaaa(lp694
I184
aI188
ag141
a(lp695
(lp696
I184
ag664
aa(lp697
I185
ag510
aa(lp698
I186
ag454
aa(lp699
I187
ag452
aa(lp700
I188
ag604
aaaa(lp701
I190
aI196
ag150
a(lp702
(lp703
I190
ag461
aa(lp704
I191
ag452
aa(lp705
I192
ag482
aa(lp706
I193
ag664
aa(lp707
I194
ag480
aa(lp708
I195
ag510
aa(lp709
I196
ag482
aaaa(lp710
I198
aI199
aS'no'
p711
a(lp712
(lp713
I198
ag452
aa(lp714
I199
ag454
aaaa(lp715
I201
aI206
ag159
a(lp716
(lp717
I201
ag520
aa(lp718
I202
ag454
aa(lp719
I203
ag485
aa(lp720
I204
ag452
aa(lp721
I205
ag456
aa(lp722
I206
ag482
aaaa(lp723
I208
aI211
aS'will'
p724
a(lp725
(lp726
I208
ag664
aa(lp727
I209
ag485
aa(lp728
I210
ag463
aa(lp729
I211
ag463
aaaa(lp730
I213
aI214
aS'be'
p731
a(lp732
(lp733
I213
aS'b'
p734
aa(lp735
I214
ag480
aaaa(lp736
I216
aI225
ag168
a(lp737
(lp738
I216
ag482
aa(lp739
I217
ag478
aa(lp740
I218
ag734
aa(lp741
I219
ag456
aa(lp742
I220
ag510
aa(lp743
I221
ag461
aa(lp744
I222
ag524
aa(lp745
I223
ag456
aa(lp746
I224
ag480
aa(lp747
I225
ag565
aaaa(lp748
I227
aI229
aS'for'
p749
a(lp750
(lp751
I227
ag534
aa(lp752
I228
ag454
aa(lp753
I229
ag510
aaaa(lp754
I231
aI231
ag461
a(lp755
(lp756
I231
ag461
aaaa(lp757
I233
aI237
ag177
a(lp758
(lp759
I233
ag664
aa(lp760
I234
ag510
aa(lp761
I235
ag454
aa(lp762
I236
ag452
aa(lp763
I237
ag604
aaaa(lp764
I239
aI244
ag186
a(lp765
(lp766
I239
ag461
aa(lp767
I240
ag452
aa(lp768
I241
ag482
aa(lp769
I242
ag664
aa(lp770
I243
ag480
aa(lp771
I244
ag510
aaaa(lp772
I246
aI247
aS'to'
p773
a(lp774
(lp775
I246
ag456
aa(lp776
I247
ag454
aaaa(lp777
I249
aI252
aS'this'
p778
a(lp779
(lp780
I249
ag456
aa(lp781
I250
ag472
aa(lp782
I251
ag485
aa(lp783
I252
ag482
aaaa(lp784
I254
aI266
ag195
a(lp785
(lp786
I254
ag476
aa(lp787
I255
ag478
aa(lp788
I256
ag480
aa(lp789
I257
ag482
aa(lp790
I258
ag456
aa(lp791
I259
ag485
aa(lp792
I260
ag454
aa(lp793
I261
ag452
aa(lp794
I263
ag456
aa(lp795
I264
ag546
aa(lp796
I265
ag520
aa(lp797
I266
ag480
aaaa(lp798
I269
aI273
ag204
a(lp799
(lp800
I269
ag482
aa(lp801
I270
ag485
aa(lp802
I271
ag452
aa(lp803
I272
ag524
aa(lp804
I273
ag480
aaaa(lp805
I275
aI279
aS'there'
p806
a(lp807
(lp808
I275
ag456
aa(lp809
I276
ag472
aa(lp810
I277
ag480
aa(lp811
I278
ag510
aa(lp812
I279
ag480
aaaa(lp813
I281
aI283
aS'are'
p814
a(lp815
(lp816
I281
ag461
aa(lp817
I282
ag510
aa(lp818
I283
ag480
aaaa(lp819
I285
aI286
aS'no'
p820
a(lp821
(lp822
I285
ag452
aa(lp823
I286
ag454
aaaa(lp824
I288
aI302
ag213
a(lp825
(lp826
I288
ag468
aa(lp827
I289
ag478
aa(lp828
I290
ag463
aa(lp829
I291
ag456
aa(lp830
I292
ag485
aa(lp831
I293
ag520
aa(lp832
I294
ag463
aa(lp833
I295
ag480
aa(lp834
I297
ag524
aa(lp835
I298
ag472
aa(lp836
I299
ag454
aa(lp837
I300
ag485
aa(lp838
I301
ag524
aa(lp839
I302
ag480
aaaa(lp840
I304
aI310
ag222
a(lp841
(lp842
I304
ag454
aa(lp843
I305
ag520
aa(lp844
I306
ag456
aa(lp845
I307
ag485
aa(lp846
I308
ag454
aa(lp847
I309
ag452
aa(lp848
I310
ag482
aaaa(lp849
I313
aI320
ag231
a(lp850
(lp851
I313
ag524
aa(lp852
I314
ag454
aa(lp853
I315
ag468
aa(lp854
I316
ag520
aa(lp855
I317
ag461
aa(lp856
I318
ag510
aa(lp857
I319
ag480
aa(lp858
I320
ag565
aaaa(lp859
I322
aI323
aS'to'
p860
a(lp861
(lp862
I322
ag456
aa(lp863
I323
ag454
aaaa(lp864
I325
aI329
aS'other'
p865
a(lp866
(lp867
I325
ag454
aa(lp868
I326
ag456
aa(lp869
I327
ag472
aa(lp870
I328
ag480
aa(lp871
I329
ag510
aaaa(lp872
I331
aI344
ag240
a(lp873
(lp874
I331
ag476
aa(lp875
I332
ag478
aa(lp876
I333
ag480
aa(lp877
I334
ag482
aa(lp878
I335
ag456
aa(lp879
I336
ag485
aa(lp880
I337
ag454
aa(lp881
I338
ag452
aa(lp882
I340
ag456
aa(lp883
I341
ag546
aa(lp884
I342
ag520
aa(lp885
I343
ag480
aa(lp886
I344
ag482
aaaa(lp887
I346
aI353
ag249
a(lp888
(lp889
I346
ag604
aa(lp890
I347
ag510
aa(lp891
I348
ag485
aa(lp892
I349
ag565
aa(lp893
I351
ag485
aa(lp894
I352
ag452
aa(lp895
I353
ag482
aaaa(lp896
I355
aI357
aS'are'
p897
a(lp898
(lp899
I355
ag461
aa(lp900
I356
ag510
aa(lp901
I357
ag480
aaaa(lp902
I359
aI362
ag258
a(lp903
(lp904
I359
ag463
aa(lp905
I360
ag485
aa(lp906
I361
aS'k'
p907
aa(lp908
I362
ag480
aaaa(lp909
I364
aI370
ag267
a(lp910
(lp911
I364
ag510
aa(lp912
I365
ag480
aa(lp913
I366
ag604
aa(lp914
I367
ag478
aa(lp915
I368
ag463
aa(lp916
I369
ag461
aa(lp917
I370
ag510
aaaa(lp918
I372
aI375
ag276
a(lp919
(lp920
I372
ag468
aa(lp921
I373
ag461
aa(lp922
I374
ag456
aa(lp923
I375
ag472
aaaa(lp924
I377
aI385
ag285
a(lp925
(lp926
I377
ag476
aa(lp927
I378
ag478
aa(lp928
I379
ag480
aa(lp929
I380
ag482
aa(lp930
I381
ag456
aa(lp931
I382
ag485
aa(lp932
I383
ag454
aa(lp933
I384
ag452
aa(lp934
I385
ag482
aaaa(lp935
I388
aI391
aS'they'
p936
a(lp937
(lp938
I388
ag456
aa(lp939
I389
ag472
aa(lp940
I390
ag480
aa(lp941
I391
ag546
aaaa(lp942
I393
aI397
ag294
a(lp943
(lp944
I393
ag524
aa(lp945
I394
ag454
aa(lp946
I395
ag622
aa(lp947
I396
ag480
aa(lp948
I397
ag510
aaaa(lp949
I399
aI401
aS'the'
p950
a(lp951
(lp952
I399
ag456
aa(lp953
I400
ag472
aa(lp954
I401
ag480
aaaa(lp955
I403
aI406
aS'same'
p956
a(lp957
(lp958
I403
ag482
aa(lp959
I404
ag461
aa(lp960
I405
ag468
aa(lp961
I406
ag480
aaaa(lp962
I408
aI414
ag303
a(lp963
(lp964
I408
ag482
aa(lp965
I409
ag478
aa(lp966
I410
ag734
aa(lp967
I411
aS'j'
p968
aa(lp969
I412
ag480
aa(lp970
I413
ag524
aa(lp971
I414
ag456
aaaa(lp972
I416
aI420
ag312
a(lp973
(lp974
I416
ag461
aa(lp975
I417
ag510
aa(lp976
I418
ag480
aa(lp977
I419
ag461
aa(lp978
I420
ag482
aaaa(lp979
I423
aI425
aS'and'
p980
a(lp981
(lp982
I423
ag461
aa(lp983
I424
ag452
aa(lp984
I425
ag565
aaaa(lp985
I427
aI430
aS'they'
p986
a(lp987
(lp988
I427
ag456
aa(lp989
I428
ag472
aa(lp990
I429
ag480
aa(lp991
I430
ag546
aaaa(lp992
I432
aI436
ag321
a(lp993
(lp994
I432
ag510
aa(lp995
I433
ag461
aa(lp996
I434
ag452
aa(lp997
I435
ag604
aa(lp998
I436
ag480
aaaa(lp999
I438
aI439
aS'in'
p1000
a(lp1001
(lp1002
I438
ag485
aa(lp1003
I439
ag452
aaaa(lp1004
I441
aI450
ag330
a(lp1005
(lp1006
I441
ag565
aa(lp1007
I442
ag485
aa(lp1008
I443
ag534
aa(lp1009
I444
ag534
aa(lp1010
I445
ag485
aa(lp1011
I446
ag524
aa(lp1012
I447
ag478
aa(lp1013
I448
ag463
aa(lp1014
I449
ag456
aa(lp1015
I450
ag546
aaaa(lp1016
I452
aI455
aS'from'
p1017
a(lp1018
(lp1019
I452
ag534
aa(lp1020
I453
ag510
aa(lp1021
I454
ag454
aa(lp1022
I455
ag468
aaaa(lp1023
I457
aI460
ag339
a(lp1024
(lp1025
I457
ag480
aa(lp1026
I458
ag461
aa(lp1027
I459
ag482
aa(lp1028
I460
ag546
aaaa(lp1029
I462
aI463
aS'to'
p1030
a(lp1031
(lp1032
I462
ag456
aa(lp1033
I463
ag454
aaaa(lp1034
I465
aI468
ag348
a(lp1035
(lp1036
I465
ag472
aa(lp1037
I466
ag461
aa(lp1038
I467
ag510
aa(lp1039
I468
ag565
aaaa(lp1040
I471
aI474
aS'have'
p1041
a(lp1042
(lp1043
I471
ag472
aa(lp1044
I472
ag461
aa(lp1045
I473
ag622
aa(lp1046
I474
ag480
aaaa(lp1047
I476
aI476
ag461
a(lp1048
(lp1049
I476
ag461
aaaa(lp1050
I478
aI487
ag357
a(lp1051
(lp1052
I478
ag524
aa(lp1053
I479
ag461
aa(lp1054
I480
ag463
aa(lp1055
I481
ag524
aa(lp1056
I482
ag478
aa(lp1057
I483
ag463
aa(lp1058
I484
ag461
aa(lp1059
I485
ag456
aa(lp1060
I486
ag454
aa(lp1061
I487
ag510
aaaa(lp1062
I489
aI490
aS'on'
p1063
a(lp1064
(lp1065
I489
ag454
aa(lp1066
I490
ag452
aaaa(lp1067
I492
aI495
ag366
a(lp1068
(lp1069
I492
ag472
aa(lp1070
I493
ag461
aa(lp1071
I494
ag452
aa(lp1072
I495
ag565
aaaa(lp1073
I497
aI498
aS'if'
p1074
a(lp1075
(lp1076
I497
ag485
aa(lp1077
I498
ag534
aaaa(lp1078
I500
aI502
aS'you'
p1079
a(lp1080
(lp1081
I500
ag546
aa(lp1082
I501
ag454
aa(lp1083
I502
ag478
aaaa(lp1084
I504
aI506
ag375
a(lp1085
(lp1086
I504
ag478
aa(lp1087
I505
ag482
aa(lp1088
I506
ag480
aaaa(lp1089
I508
aI508
ag461
a(lp1090
(lp1091
I508
ag461
aaaa(lp1092
I510
aI519
ag384
a(lp1093
(lp1094
I510
ag524
aa(lp1095
I511
ag461
aa(lp1096
I512
ag463
aa(lp1097
I513
ag524
aa(lp1098
I514
ag478
aa(lp1099
I515
ag463
aa(lp1100
I516
ag461
aa(lp1101
I517
ag456
aa(lp1102
I518
ag454
aa(lp1103
I519
ag510
aaaa(lp1104
I521
aI522
aS'to'
p1105
a(lp1106
(lp1107
I521
ag456
aa(lp1108
I522
ag454
aaaa(lp1109
I524
aI528
ag393
a(lp1110
(lp1111
I524
ag482
aa(lp1112
I525
ag454
aa(lp1113
I526
ag463
aa(lp1114
I527
ag622
aa(lp1115
I528
ag480
aaaa(lp1116
I530
aI532
aS'the'
p1117
a(lp1118
(lp1119
I530
ag456
aa(lp1120
I531
ag472
aa(lp1121
I532
ag480
aaaa(lp1122
I534
aI539
ag402
a(lp1123
(lp1124
I534
ag461
aa(lp1125
I535
ag452
aa(lp1126
I536
ag482
aa(lp1127
I537
ag664
aa(lp1128
I538
ag480
aa(lp1129
I539
ag510
aaaa(lp1130
I541
aI542
aS'to'
p1131
a(lp1132
(lp1133
I541
ag456
aa(lp1134
I542
ag454
aaaa(lp1135
I544
aI544
ag461
a(lp1136
(lp1137
I544
ag461
aaaa(lp1138
I546
aI552
ag411
a(lp1139
(lp1140
I546
ag520
aa(lp1141
I547
ag510
aa(lp1142
I548
ag454
aa(lp1143
I549
ag734
aa(lp1144
I550
ag463
aa(lp1145
I551
ag480
aa(lp1146
I552
ag468
aaaa(lp1147
I555
aI559
ag420
a(lp1148
(lp1149
I555
ag524
aa(lp1150
I556
ag472
aa(lp1151
I557
ag480
aa(lp1152
I558
ag524
aa(lp1153
I559
ag907
aaaa(lp1154
I561
aI564
aS'your'
p1155
a(lp1156
(lp1157
I561
ag546
aa(lp1158
I562
ag454
aa(lp1159
I563
ag478
aa(lp1160
I564
ag510
aaaa(lp1161
I566
aI569
ag429
a(lp1162
(lp1163
I566
ag664
aa(lp1164
I567
ag454
aa(lp1165
I568
ag510
aa(lp1166
I569
ag907
aaaa(lp1167
I571
aI579
ag438
a(lp1168
(lp1169
I571
ag524
aa(lp1170
I572
ag461
aa(lp1171
I573
ag510
aa(lp1172
I574
ag480
aa(lp1173
I575
ag534
aa(lp1174
I576
ag478
aa(lp1175
I577
ag463
aa(lp1176
I578
ag463
aa(lp1177
I579
ag546
aaaa(lp1178
I582
aI584
aS'how'
p1179
a(lp1180
(lp1181
I582
ag472
aa(lp1182
I583
ag454
aa(lp1183
I584
ag664
aaaa(lp1184
I586
aI587
aS'do'
p1185
a(lp1186
(lp1187
I586
ag565
aa(lp1188
I587
ag454
aaaa(lp1189
I589
aI591
aS'you'
p1190
a(lp1191
(lp1192
I589
ag546
aa(lp1193
I590
ag454
aa(lp1194
I591
ag478
aaaasS'cleanCharacterMap'
p1195
(lp1196
g451
ag453
ag455
a(lp1197
I3
aS' '
p1198
aag460
ag462
ag464
a(lp1199
I7
ag1198
aag467
ag469
ag470
ag471
a(lp1200
I12
ag1198
aag475
ag477
ag479
ag481
ag483
ag484
ag486
ag487
ag488
a(lp1201
I22
ag1198
aag492
ag493
a(lp1202
I25
ag1198
aag497
ag498
ag499
a(lp1203
I29
ag1198
aag502
ag503
ag504
a(lp1204
I33
ag1198
aag508
ag509
ag511
a(lp1205
I37
ag1198
aag514
ag515
ag516
ag517
ag518
ag519
ag521
ag522
ag523
ag525
ag526
ag527
ag528
ag529
a(lp1206
I54
ag1198
aag533
ag535
ag536
a(lp1207
I58
ag1198
aag539
ag540
ag541
a(lp1208
I62
ag1198
aag544
ag545
ag547
ag548
a(lp1209
I67
ag1198
aag551
ag553
ag555
a(lp1210
I71
ag1198
aag559
ag560
ag561
ag562
ag563
ag564
a(lp1211
I78
ag1198
aag568
a(lp1212
I80
ag1198
aag571
ag572
ag573
ag574
ag575
ag576
ag577
ag578
ag579
ag580
ag581
ag582
ag583
ag584
ag585
a(lp1213
I97
ag1198
aag588
ag589
ag590
ag591
ag592
ag593
ag594
ag595
a(lp1214
I106
ag1198
aag599
ag600
a(lp1215
I110
ag1198
aag603
ag605
ag606
ag607
ag608
ag609
a(lp1216
I119
ag1198
aa(lp1217
I122
ag1198
aag613
ag614
ag615
a(lp1218
I126
ag1198
aag619
ag620
ag621
ag623
a(lp1219
I131
ag1198
aag627
ag628
a(lp1220
I134
ag1198
aag631
ag632
ag633
ag634
a(lp1221
I139
ag1198
aag638
ag639
ag640
a(lp1222
I143
ag1198
aag643
ag644
ag645
ag646
a(lp1223
I148
ag1198
aag650
ag651
a(lp1224
I151
ag1198
aag655
ag656
ag657
ag658
a(lp1225
I156
ag1198
aag662
ag663
ag665
a(lp1226
I160
ag1198
aag668
ag669
ag670
ag671
ag672
ag673
a(lp1227
I168
ag1198
aag677
ag678
a(lp1228
I171
ag1198
aag681
ag682
ag683
ag684
ag685
ag686
ag687
a(lp1229
I179
ag1198
aag691
ag692
ag693
a(lp1230
I183
ag1198
aag696
ag697
ag698
ag699
ag700
a(lp1231
I189
ag1198
aag703
ag704
ag705
ag706
ag707
ag708
ag709
a(lp1232
I197
ag1198
aag713
ag714
a(lp1233
I200
ag1198
aag717
ag718
ag719
ag720
ag721
ag722
a(lp1234
I207
ag1198
aag726
ag727
ag728
ag729
a(lp1235
I212
ag1198
aag733
ag735
a(lp1236
I215
ag1198
aag738
ag739
ag740
ag741
ag742
ag743
ag744
ag745
ag746
ag747
a(lp1237
I226
ag1198
aag751
ag752
ag753
a(lp1238
I230
ag1198
aag756
a(lp1239
I232
ag1198
aag759
ag760
ag761
ag762
ag763
a(lp1240
I238
ag1198
aag766
ag767
ag768
ag769
ag770
ag771
a(lp1241
I245
ag1198
aag775
ag776
a(lp1242
I248
ag1198
aag780
ag781
ag782
ag783
a(lp1243
I253
ag1198
aag786
ag787
ag788
ag789
ag790
ag791
ag792
ag793
ag794
ag795
ag796
ag797
a(lp1244
I268
ag1198
aag800
ag801
ag802
ag803
ag804
a(lp1245
I274
ag1198
aag808
ag809
ag810
ag811
ag812
a(lp1246
I280
ag1198
aag816
ag817
ag818
a(lp1247
I284
ag1198
aag822
ag823
a(lp1248
I287
ag1198
aag826
ag827
ag828
ag829
ag830
ag831
ag832
ag833
ag834
ag835
ag836
ag837
ag838
ag839
a(lp1249
I303
ag1198
aag842
ag843
ag844
ag845
ag846
ag847
ag848
a(lp1250
I312
ag1198
aag851
ag852
ag853
ag854
ag855
ag856
ag857
ag858
a(lp1251
I321
ag1198
aag862
ag863
a(lp1252
I324
ag1198
aag867
ag868
ag869
ag870
ag871
a(lp1253
I330
ag1198
aag874
ag875
ag876
ag877
ag878
ag879
ag880
ag881
ag882
ag883
ag884
ag885
ag886
a(lp1254
I345
ag1198
aag889
ag890
ag891
ag892
ag893
ag894
ag895
a(lp1255
I354
ag1198
aag899
ag900
ag901
a(lp1256
I358
ag1198
aag904
ag905
ag906
ag908
a(lp1257
I363
ag1198
aag911
ag912
ag913
ag914
ag915
ag916
ag917
a(lp1258
I371
ag1198
aag920
ag921
ag922
ag923
a(lp1259
I376
ag1198
aag926
ag927
ag928
ag929
ag930
ag931
ag932
ag933
ag934
a(lp1260
I387
ag1198
aag938
ag939
ag940
ag941
a(lp1261
I392
ag1198
aag944
ag945
ag946
ag947
ag948
a(lp1262
I398
ag1198
aag952
ag953
ag954
a(lp1263
I402
ag1198
aag958
ag959
ag960
ag961
a(lp1264
I407
ag1198
aag964
ag965
ag966
ag967
ag969
ag970
ag971
a(lp1265
I415
ag1198
aag974
ag975
ag976
ag977
ag978
a(lp1266
I422
ag1198
aag982
ag983
ag984
a(lp1267
I426
ag1198
aag988
ag989
ag990
ag991
a(lp1268
I431
ag1198
aag994
ag995
ag996
ag997
ag998
a(lp1269
I437
ag1198
aag1002
ag1003
a(lp1270
I440
ag1198
aag1006
ag1007
ag1008
ag1009
ag1010
ag1011
ag1012
ag1013
ag1014
ag1015
a(lp1271
I451
ag1198
aag1019
ag1020
ag1021
ag1022
a(lp1272
I456
ag1198
aag1025
ag1026
ag1027
ag1028
a(lp1273
I461
ag1198
aag1032
ag1033
a(lp1274
I464
ag1198
aag1036
ag1037
ag1038
ag1039
a(lp1275
I470
ag1198
aag1043
ag1044
ag1045
ag1046
a(lp1276
I475
ag1198
aag1049
a(lp1277
I477
ag1198
aag1052
ag1053
ag1054
ag1055
ag1056
ag1057
ag1058
ag1059
ag1060
ag1061
a(lp1278
I488
ag1198
aag1065
ag1066
a(lp1279
I491
ag1198
aag1069
ag1070
ag1071
ag1072
a(lp1280
I496
ag1198
aag1076
ag1077
a(lp1281
I499
ag1198
aag1081
ag1082
ag1083
a(lp1282
I503
ag1198
aag1086
ag1087
ag1088
a(lp1283
I507
ag1198
aag1091
a(lp1284
I509
ag1198
aag1094
ag1095
ag1096
ag1097
ag1098
ag1099
ag1100
ag1101
ag1102
ag1103
a(lp1285
I520
ag1198
aag1107
ag1108
a(lp1286
I523
ag1198
aag1111
ag1112
ag1113
ag1114
ag1115
a(lp1287
I529
ag1198
aag1119
ag1120
ag1121
a(lp1288
I533
ag1198
aag1124
ag1125
ag1126
ag1127
ag1128
ag1129
a(lp1289
I540
ag1198
aag1133
ag1134
a(lp1290
I543
ag1198
aag1137
a(lp1291
I545
ag1198
aag1140
ag1141
ag1142
ag1143
ag1144
ag1145
ag1146
a(lp1292
I554
ag1198
aag1149
ag1150
ag1151
ag1152
ag1153
a(lp1293
I560
ag1198
aag1157
ag1158
ag1159
ag1160
a(lp1294
I565
ag1198
aag1163
ag1164
ag1165
ag1166
a(lp1295
I570
ag1198
aag1169
ag1170
ag1171
ag1172
ag1173
ag1174
ag1175
ag1176
ag1177
a(lp1296
I581
ag1198
aag1181
ag1182
ag1183
a(lp1297
I585
ag1198
aag1187
ag1188
a(lp1298
I588
ag1198
aag1192
ag1193
ag1194
a(lp1299
I592
ag1198
aa(lp1300
I593
ag520
aa(lp1301
I594
ag510
aa(lp1302
I595
ag480
aa(lp1303
I596
ag520
aa(lp1304
I597
ag461
aa(lp1305
I598
ag510
aa(lp1306
I599
ag480
aasS'text'
p1307
S'not all math questions on the sat are multiple-choice. for one type \xe2\x80\x94 called a student-produced response (or grid-in) -- you have to find and fill in your own answer. no penalty for wrong answers no points will be subtracted for a wrong answer to this question-type, since there are no multiple-choice options. compared to other question-types grid-ins are like regular math questions. they cover the same subject areas, and they range in difficulty from easy to hard. have a calculator on hand if you use a calculator to solve the answer to a problem, check your work carefully. how do you prepare?'
p1308
sS'cleanWordMap'
p1309
(lp1310
g465
ag473
ag500
ag512
ag537
ag542
ag549
ag557
ag569
ag586
ag601
ag629
ag641
ag666
ag679
ag694
ag701
ag715
ag736
ag757
ag764
ag784
ag798
ag824
ag840
ag849
ag872
ag887
ag902
ag909
ag918
ag924
ag942
ag962
ag972
ag992
ag1004
ag1023
ag1034
ag1050
ag1067
ag1084
ag1092
ag1109
ag1122
ag1138
ag1147
ag1161
ag1167
asS'lines'
p1311
(lp1312
VNot all math questions on the SAT are multiple-choice. For one type \u2014 called a student-produced response (or grid-in) -- you have to find and fill in your own answer.\u000a
p1313
aVNo Penalty for Wrong Answers\u000a
p1314
aVNo points will be subtracted for a wrong answer to this question-type, since there are no multiple-choice options.\u000a
p1315
aVCompared to Other Question-Types\u000a
p1316
aVGrid-ins are like regular math questions. They cover the same subject areas, and they range in difficulty from easy to hard.\u000a
p1317
aVHave a Calculator on Hand\u000a
p1318
aVIf you use a calculator to solve the answer to a problem, check your work carefully.\u000a
p1319
aVHow Do You Prepare?
p1320
asS'docType'
p1321
S'src'
p1322
sS'newfmap'
p1323
(lp1324
g4
ag8
ag10
ag12
ag14
ag17
ag19
ag21
ag23
ag26
ag28
ag30
ag32
ag35
ag37
ag39
ag41
ag44
ag46
ag48
ag50
ag53
ag55
ag57
ag59
ag62
ag64
ag66
ag68
ag71
ag73
ag75
ag77
ag80
ag82
ag84
ag86
ag89
ag91
ag93
ag95
ag98
ag100
ag102
ag104
ag107
ag109
ag111
ag113
ag116
ag118
ag120
ag122
ag125
ag127
ag129
ag131
ag134
ag136
ag138
ag140
ag143
ag145
ag147
ag149
ag152
ag154
ag156
ag158
ag161
ag163
ag165
ag167
ag170
ag172
ag174
ag176
ag179
ag181
ag183
ag185
ag188
ag190
ag192
ag194
ag197
ag199
ag201
ag203
ag206
ag208
ag210
ag212
ag215
ag217
ag219
ag221
ag224
ag226
ag228
ag230
ag233
ag235
ag237
ag239
ag242
ag244
ag246
ag248
ag251
ag253
ag255
ag257
ag260
ag262
ag264
ag266
ag269
ag271
ag273
ag275
ag278
ag280
ag282
ag284
ag287
ag289
ag291
ag293
ag296
ag298
ag300
ag302
ag305
ag307
ag309
ag311
ag314
ag316
ag318
ag320
ag323
ag325
ag327
ag329
ag332
ag334
ag336
ag338
ag341
ag343
ag345
ag347
ag350
ag352
ag354
ag356
ag359
ag361
ag363
ag365
ag368
ag370
ag372
ag374
ag377
ag379
ag381
ag383
ag386
ag388
ag390
ag392
ag395
ag397
ag399
ag401
ag404
ag406
ag408
ag410
ag413
ag415
ag417
ag419
ag422
ag424
ag426
ag428
ag431
ag433
ag435
ag437
ag440
ag442
ag444
asS'featureMap'
p1325
(lp1326
(lp1327
I8
aI11
ag5
ag6
ag9
ag11
ag13
aa(lp1328
I13
aI21
ag15
ag16
ag18
ag20
ag22
aa(lp1329
I30
aI32
ag24
ag25
ag27
ag29
ag31
aa(lp1330
I38
aI52
ag33
ag34
ag36
ag38
ag40
aa(lp1331
I59
aI61
ag42
ag43
ag45
ag47
ag49
aa(lp1332
I63
aI66
ag51
ag52
ag54
ag56
ag58
aa(lp1333
I68
aI70
ag60
ag61
ag63
ag65
ag67
aa(lp1334
I72
aI77
ag69
ag70
ag72
ag74
ag76
aa(lp1335
I81
aI96
ag78
ag79
ag81
ag83
ag85
aa(lp1336
I98
aI105
ag87
ag88
ag90
ag92
ag94
aa(lp1337
I111
aI117
ag96
ag97
ag99
ag101
ag103
aa(lp1338
I135
aI138
ag105
ag106
ag108
ag110
ag112
aa(lp1339
I144
aI147
ag114
ag115
ag117
ag119
ag121
aa(lp1340
I161
aI166
ag123
ag124
ag126
ag128
ag130
aa(lp1341
I172
aI178
ag132
ag133
ag135
ag137
ag139
aa(lp1342
I184
aI188
ag141
ag142
ag144
ag146
ag148
aa(lp1343
I190
aI196
ag150
ag151
ag153
ag155
ag157
aa(lp1344
I201
aI206
ag159
ag160
ag162
ag164
ag166
aa(lp1345
I216
aI225
ag168
ag169
ag171
ag173
ag175
aa(lp1346
I233
aI237
ag177
ag178
ag180
ag182
ag184
aa(lp1347
I239
aI244
ag186
ag187
ag189
ag191
ag193
aa(lp1348
I254
aI266
ag195
ag196
ag198
ag200
ag202
aa(lp1349
I269
aI273
ag204
ag205
ag207
ag209
ag211
aa(lp1350
I288
aI302
ag213
ag214
ag216
ag218
ag220
aa(lp1351
I304
aI310
ag222
ag223
ag225
ag227
ag229
aa(lp1352
I313
aI320
ag231
ag232
ag234
ag236
ag238
aa(lp1353
I331
aI344
ag240
ag241
ag243
ag245
ag247
aa(lp1354
I346
aI353
ag249
ag250
ag252
ag254
ag256
aa(lp1355
I359
aI362
ag258
ag259
ag261
ag263
ag265
aa(lp1356
I364
aI370
ag267
ag268
ag270
ag272
ag274
aa(lp1357
I372
aI375
ag276
ag277
ag279
ag281
ag283
aa(lp1358
I377
aI385
ag285
ag286
ag288
ag290
ag292
aa(lp1359
I393
aI397
ag294
ag295
ag297
ag299
ag301
aa(lp1360
I408
aI414
ag303
ag304
ag306
ag308
ag310
aa(lp1361
I416
aI420
ag312
ag313
ag315
ag317
ag319
aa(lp1362
I432
aI436
ag321
ag322
ag324
ag326
ag328
aa(lp1363
I441
aI450
ag330
ag331
ag333
ag335
ag337
aa(lp1364
I457
aI460
ag339
ag340
ag342
ag344
ag346
aa(lp1365
I465
aI468
ag348
ag349
ag351
ag353
ag355
aa(lp1366
I478
aI487
ag357
ag358
ag360
ag362
ag364
aa(lp1367
I492
aI495
ag366
ag367
ag369
ag371
ag373
aa(lp1368
I504
aI506
ag375
ag376
ag378
ag380
ag382
aa(lp1369
I510
aI519
ag384
ag385
ag387
ag389
ag391
aa(lp1370
I524
aI528
ag393
ag394
ag396
ag398
ag400
aa(lp1371
I534
aI539
ag402
ag403
ag405
ag407
ag409
aa(lp1372
I546
aI552
ag411
ag412
ag414
ag416
ag418
aa(lp1373
I555
aI559
ag420
ag421
ag423
ag425
ag427
aa(lp1374
I566
aI569
ag429
ag430
ag432
ag434
ag436
aa(lp1375
I571
aI579
ag438
ag439
ag441
ag443
ag445
aasS'characterMap'
p1376
(lp1377
g451
ag453
ag455
ag1197
ag460
ag462
ag464
ag1199
ag467
ag469
ag470
ag471
ag1200
ag475
ag477
ag479
ag481
ag483
ag484
ag486
ag487
ag488
ag1201
ag492
ag493
ag1202
ag497
ag498
ag499
ag1203
ag502
ag503
ag504
ag1204
ag508
ag509
ag511
ag1205
ag514
ag515
ag516
ag517
ag518
ag519
ag521
ag522
a(lp1378
I46
aS'-'
p1379
aag523
ag525
ag526
ag527
ag528
ag529
a(lp1380
I53
aS'.'
p1381
aag1206
ag533
ag535
ag536
ag1207
ag539
ag540
ag541
ag1208
ag544
ag545
ag547
ag548
ag1209
ag551
ag553
ag555
ag1210
ag559
ag560
ag561
ag562
ag563
ag564
ag1211
ag568
ag1212
ag571
ag572
ag573
ag574
ag575
ag576
ag577
a(lp1382
I88
ag1379
aag578
ag579
ag580
ag581
ag582
ag583
ag584
ag585
ag1213
ag588
ag589
ag590
ag591
ag592
ag593
ag594
ag595
ag1214
a(lp1383
I107
aS'('
p1384
aag599
ag600
ag1215
ag603
ag605
ag606
ag607
a(lp1385
I115
ag1379
aag608
ag609
a(lp1386
I118
aS')'
p1387
aag1216
a(lp1388
I120
ag1379
aa(lp1389
I121
ag1379
aag1217
ag613
ag614
ag615
ag1218
ag619
ag620
ag621
ag623
ag1219
ag627
ag628
ag1220
ag631
ag632
ag633
ag634
ag1221
ag638
ag639
ag640
ag1222
ag643
ag644
ag645
ag646
ag1223
ag650
ag651
ag1224
ag655
ag656
ag657
ag658
ag1225
ag662
ag663
ag665
ag1226
ag668
ag669
ag670
ag671
ag672
ag673
a(lp1390
I167
ag1381
aag1227
ag677
ag678
ag1228
ag681
ag682
ag683
ag684
ag685
ag686
ag687
ag1229
ag691
ag692
ag693
ag1230
ag696
ag697
ag698
ag699
ag700
ag1231
ag703
ag704
ag705
ag706
ag707
ag708
ag709
ag1232
ag713
ag714
ag1233
ag717
ag718
ag719
ag720
ag721
ag722
ag1234
ag726
ag727
ag728
ag729
ag1235
ag733
ag735
ag1236
ag738
ag739
ag740
ag741
ag742
ag743
ag744
ag745
ag746
ag747
ag1237
ag751
ag752
ag753
ag1238
ag756
ag1239
ag759
ag760
ag761
ag762
ag763
ag1240
ag766
ag767
ag768
ag769
ag770
ag771
ag1241
ag775
ag776
ag1242
ag780
ag781
ag782
ag783
ag1243
ag786
ag787
ag788
ag789
ag790
ag791
ag792
ag793
a(lp1391
I262
ag1379
aag794
ag795
ag796
ag797
a(lp1392
I267
aS','
p1393
aag1244
ag800
ag801
ag802
ag803
ag804
ag1245
ag808
ag809
ag810
ag811
ag812
ag1246
ag816
ag817
ag818
ag1247
ag822
ag823
ag1248
ag826
ag827
ag828
ag829
ag830
ag831
ag832
ag833
a(lp1394
I296
ag1379
aag834
ag835
ag836
ag837
ag838
ag839
ag1249
ag842
ag843
ag844
ag845
ag846
ag847
ag848
a(lp1395
I311
ag1381
aag1250
ag851
ag852
ag853
ag854
ag855
ag856
ag857
ag858
ag1251
ag862
ag863
ag1252
ag867
ag868
ag869
ag870
ag871
ag1253
ag874
ag875
ag876
ag877
ag878
ag879
ag880
ag881
a(lp1396
I339
ag1379
aag882
ag883
ag884
ag885
ag886
ag1254
ag889
ag890
ag891
ag892
a(lp1397
I350
ag1379
aag893
ag894
ag895
ag1255
ag899
ag900
ag901
ag1256
ag904
ag905
ag906
ag908
ag1257
ag911
ag912
ag913
ag914
ag915
ag916
ag917
ag1258
ag920
ag921
ag922
ag923
ag1259
ag926
ag927
ag928
ag929
ag930
ag931
ag932
ag933
ag934
a(lp1398
I386
ag1381
aag1260
ag938
ag939
ag940
ag941
ag1261
ag944
ag945
ag946
ag947
ag948
ag1262
ag952
ag953
ag954
ag1263
ag958
ag959
ag960
ag961
ag1264
ag964
ag965
ag966
ag967
ag969
ag970
ag971
ag1265
ag974
ag975
ag976
ag977
ag978
a(lp1399
I421
ag1393
aag1266
ag982
ag983
ag984
ag1267
ag988
ag989
ag990
ag991
ag1268
ag994
ag995
ag996
ag997
ag998
ag1269
ag1002
ag1003
ag1270
ag1006
ag1007
ag1008
ag1009
ag1010
ag1011
ag1012
ag1013
ag1014
ag1015
ag1271
ag1019
ag1020
ag1021
ag1022
ag1272
ag1025
ag1026
ag1027
ag1028
ag1273
ag1032
ag1033
ag1274
ag1036
ag1037
ag1038
ag1039
a(lp1400
I469
ag1381
aag1275
ag1043
ag1044
ag1045
ag1046
ag1276
ag1049
ag1277
ag1052
ag1053
ag1054
ag1055
ag1056
ag1057
ag1058
ag1059
ag1060
ag1061
ag1278
ag1065
ag1066
ag1279
ag1069
ag1070
ag1071
ag1072
ag1280
ag1076
ag1077
ag1281
ag1081
ag1082
ag1083
ag1282
ag1086
ag1087
ag1088
ag1283
ag1091
ag1284
ag1094
ag1095
ag1096
ag1097
ag1098
ag1099
ag1100
ag1101
ag1102
ag1103
ag1285
ag1107
ag1108
ag1286
ag1111
ag1112
ag1113
ag1114
ag1115
ag1287
ag1119
ag1120
ag1121
ag1288
ag1124
ag1125
ag1126
ag1127
ag1128
ag1129
ag1289
ag1133
ag1134
ag1290
ag1137
ag1291
ag1140
ag1141
ag1142
ag1143
ag1144
ag1145
ag1146
a(lp1401
I553
ag1393
aag1292
ag1149
ag1150
ag1151
ag1152
ag1153
ag1293
ag1157
ag1158
ag1159
ag1160
ag1294
ag1163
ag1164
ag1165
ag1166
ag1295
ag1169
ag1170
ag1171
ag1172
ag1173
ag1174
ag1175
ag1176
ag1177
a(lp1402
I580
ag1381
aag1296
ag1181
ag1182
ag1183
ag1297
ag1187
ag1188
ag1298
ag1192
ag1193
ag1194
ag1299
ag1300
ag1301
ag1302
ag1303
ag1304
ag1305
ag1306
a(lp1403
I600
aS'?'
p1404
aasS'docName'
p1405
S'source-document00946.txt'
p1406
sb.