(iModel.Document
Document
p0
(dp1
S'fmap'
p2
(lp3
(lp4
I0
aI7
aS'venetian'
p5
a(lp6
S'*'
p7
ag5
aaa(lp8
I0
aI7
ag5
a(lp9
g7
ag5
aaa(lp10
I0
aI7
ag5
a(lp11
g7
ag5
aaa(lp12
I0
aI7
ag5
a(lp13
g7
ag5
aaa(lp14
I9
aI14
aS'resort'
p15
a(lp16
g5
ag15
aaa(lp17
I9
aI14
ag15
a(lp18
g7
ag15
aaa(lp19
I9
aI14
ag15
a(lp20
g7
ag15
aaa(lp21
I9
aI14
ag15
a(lp22
g7
ag15
aaa(lp23
I16
aI27
aS'hotelcasino'
p24
a(lp25
g15
ag24
aaa(lp26
I16
aI27
ag24
a(lp27
g5
ag24
aaa(lp28
I16
aI27
ag24
a(lp29
g7
ag24
aaa(lp30
I16
aI27
ag24
a(lp31
g7
ag24
aaa(lp32
I29
aI32
aS'jobs'
p33
a(lp34
g24
ag33
aaa(lp35
I29
aI32
ag33
a(lp36
g15
ag33
aaa(lp37
I29
aI32
ag33
a(lp38
g5
ag33
aaa(lp39
I29
aI32
ag33
a(lp40
g7
ag33
aaa(lp41
I34
aI38
aS'forum'
p42
a(lp43
g33
ag42
aaa(lp44
I34
aI38
ag42
a(lp45
g24
ag42
aaa(lp46
I34
aI38
ag42
a(lp47
g15
ag42
aaa(lp48
I34
aI38
ag42
a(lp49
g5
ag42
aaa(lp50
I40
aI42
aS'get'
p51
a(lp52
g42
ag51
aaa(lp53
I40
aI42
ag51
a(lp54
g33
ag51
aaa(lp55
I40
aI42
ag51
a(lp56
g24
ag51
aaa(lp57
I40
aI42
ag51
a(lp58
g15
ag51
aaa(lp59
I44
aI46
aS'new'
p60
a(lp61
g51
ag60
aaa(lp62
I44
aI46
ag60
a(lp63
g42
ag60
aaa(lp64
I44
aI46
ag60
a(lp65
g33
ag60
aaa(lp66
I44
aI46
ag60
a(lp67
g24
ag60
aaa(lp68
I48
aI55
aS'comments'
p69
a(lp70
g60
ag69
aaa(lp71
I48
aI55
ag69
a(lp72
g51
ag69
aaa(lp73
I48
aI55
ag69
a(lp74
g42
ag69
aaa(lp75
I48
aI55
ag69
a(lp76
g33
ag69
aaa(lp77
I60
aI64
aS'email'
p78
a(lp79
g69
ag78
aaa(lp80
I60
aI64
ag78
a(lp81
g60
ag78
aaa(lp82
I60
aI64
ag78
a(lp83
g51
ag78
aaa(lp84
I60
aI64
ag78
a(lp85
g42
ag78
aaa(lp86
I69
aI73
aS'email'
p87
a(lp88
g78
ag87
aaa(lp89
I69
aI73
ag87
a(lp90
g69
ag87
aaa(lp91
I69
aI73
ag87
a(lp92
g60
ag87
aaa(lp93
I69
aI73
ag87
a(lp94
g51
ag87
aaa(lp95
I80
aI85
aS'always'
p96
a(lp97
g87
ag96
aaa(lp98
I80
aI85
ag96
a(lp99
g78
ag96
aaa(lp100
I80
aI85
ag96
a(lp101
g69
ag96
aaa(lp102
I80
aI85
ag96
a(lp103
g60
ag96
aaa(lp104
I87
aI90
aS'hard'
p105
a(lp106
g96
ag105
aaa(lp107
I87
aI90
ag105
a(lp108
g87
ag105
aaa(lp109
I87
aI90
ag105
a(lp110
g78
ag105
aaa(lp111
I87
aI90
ag105
a(lp112
g69
ag105
aaa(lp113
I95
aI98
aS'know'
p114
a(lp115
g105
ag114
aaa(lp116
I95
aI98
ag114
a(lp117
g96
ag114
aaa(lp118
I95
aI98
ag114
a(lp119
g87
ag114
aaa(lp120
I95
aI98
ag114
a(lp121
g78
ag114
aaa(lp122
I108
aI113
aS'expect'
p123
a(lp124
g114
ag123
aaa(lp125
I108
aI113
ag123
a(lp126
g105
ag123
aaa(lp127
I108
aI113
ag123
a(lp128
g96
ag123
aaa(lp129
I108
aI113
ag123
a(lp130
g87
ag123
aaa(lp131
I120
aI124
aS'going'
p132
a(lp133
g123
ag132
aaa(lp134
I120
aI124
ag132
a(lp135
g114
ag132
aaa(lp136
I120
aI124
ag132
a(lp137
g105
ag132
aaa(lp138
I120
aI124
ag132
a(lp139
g96
ag132
aaa(lp140
I138
aI146
aS'interview'
p141
a(lp142
g132
ag141
aaa(lp143
I138
aI146
ag141
a(lp144
g123
ag141
aaa(lp145
I138
aI146
ag141
a(lp146
g114
ag141
aaa(lp147
I138
aI146
ag141
a(lp148
g105
ag141
aaa(lp149
I155
aI165
aS'preparation'
p150
a(lp151
g141
ag150
aaa(lp152
I155
aI165
ag150
a(lp153
g132
ag150
aaa(lp154
I155
aI165
ag150
a(lp155
g123
ag150
aaa(lp156
I155
aI165
ag150
a(lp157
g114
ag150
aaa(lp158
I171
aI174
aS'make'
p159
a(lp160
g150
ag159
aaa(lp161
I171
aI174
ag159
a(lp162
g141
ag159
aaa(lp163
I171
aI174
ag159
a(lp164
g132
ag159
aaa(lp165
I171
aI174
ag159
a(lp166
g123
ag159
aaa(lp167
I184
aI193
aS'difference'
p168
a(lp169
g159
ag168
aaa(lp170
I184
aI193
ag168
a(lp171
g150
ag168
aaa(lp172
I184
aI193
ag168
a(lp173
g141
ag168
aaa(lp174
I184
aI193
ag168
a(lp175
g132
ag168
aaa(lp176
I208
aI216
aS'interview'
p177
a(lp178
g168
ag177
aaa(lp179
I208
aI216
ag177
a(lp180
g159
ag177
aaa(lp181
I208
aI216
ag177
a(lp182
g150
ag177
aaa(lp183
I208
aI216
ag177
a(lp184
g141
ag177
aaa(lp185
I221
aI224
aS'host'
p186
a(lp187
g177
ag186
aaa(lp188
I221
aI224
ag186
a(lp189
g168
ag186
aaa(lp190
I221
aI224
ag186
a(lp191
g159
ag186
aaa(lp192
I221
aI224
ag186
a(lp193
g150
ag186
aaa(lp194
I226
aI230
aS'every'
p195
a(lp196
g186
ag195
aaa(lp197
I226
aI230
ag195
a(lp198
g177
ag195
aaa(lp199
I226
aI230
ag195
a(lp200
g168
ag195
aaa(lp201
I226
aI230
ag195
a(lp202
g159
ag195
aaa(lp203
I232
aI239
aS'business'
p204
a(lp205
g195
ag204
aaa(lp206
I232
aI239
ag204
a(lp207
g186
ag204
aaa(lp208
I232
aI239
ag204
a(lp209
g177
ag204
aaa(lp210
I232
aI239
ag204
a(lp211
g168
ag204
aaa(lp212
I253
aI257
aS'style'
p213
a(lp214
g204
ag213
aaa(lp215
I253
aI257
ag213
a(lp216
g195
ag213
aaa(lp217
I253
aI257
ag213
a(lp218
g186
ag213
aaa(lp219
I253
aI257
ag213
a(lp220
g177
ag213
aaa(lp221
I272
aI277
aS'office'
p222
a(lp223
g213
ag222
aaa(lp224
I272
aI277
ag222
a(lp225
g204
ag222
aaa(lp226
I272
aI277
ag222
a(lp227
g195
ag222
aaa(lp228
I272
aI277
ag222
a(lp229
g186
ag222
aaa(lp230
I279
aI289
aS'environment'
p231
a(lp232
g222
ag231
aaa(lp233
I279
aI289
ag231
a(lp234
g213
ag231
aaa(lp235
I279
aI289
ag231
a(lp236
g204
ag231
aaa(lp237
I279
aI289
ag231
a(lp238
g195
ag231
aaa(lp239
I295
aI301
aS'culture'
p240
a(lp241
g231
ag240
aaa(lp242
I295
aI301
ag240
a(lp243
g222
ag240
aaa(lp244
I295
aI301
ag240
a(lp245
g213
ag240
aaa(lp246
I295
aI301
ag240
a(lp247
g204
ag240
aaa(lp248
I303
aI306
aS'like'
p249
a(lp250
g240
ag249
aaa(lp251
I303
aI306
ag249
a(lp252
g231
ag249
aaa(lp253
I303
aI306
ag249
a(lp254
g222
ag249
aaa(lp255
I303
aI306
ag249
a(lp256
g213
ag249
aaa(lp257
I311
aI318
aS'venetian'
p258
a(lp259
g249
ag258
aaa(lp260
I311
aI318
ag258
a(lp261
g240
ag258
aaa(lp262
I311
aI318
ag258
a(lp263
g231
ag258
aaa(lp264
I311
aI318
ag258
a(lp265
g222
ag258
aaa(lp266
I320
aI325
aS'resort'
p267
a(lp268
g258
ag267
aaa(lp269
I320
aI325
ag267
a(lp270
g249
ag267
aaa(lp271
I320
aI325
ag267
a(lp272
g240
ag267
aaa(lp273
I320
aI325
ag267
a(lp274
g231
ag267
aaa(lp275
I327
aI338
aS'hotelcasino'
p276
a(lp277
g267
ag276
aaa(lp278
I327
aI338
ag276
a(lp279
g258
ag276
aaa(lp280
I327
aI338
ag276
a(lp281
g249
ag276
aaa(lp282
I327
aI338
ag276
a(lp283
g240
ag276
aaa(lp284
I345
aI350
aS'people'
p285
a(lp286
g276
ag285
aaa(lp287
I345
aI350
ag285
a(lp288
g267
ag285
aaa(lp289
I345
aI350
ag285
a(lp290
g258
ag285
aaa(lp291
I345
aI350
ag285
a(lp292
g249
ag285
aaa(lp293
I352
aI358
aS'dressed'
p294
a(lp295
g285
ag294
aaa(lp296
I352
aI358
ag294
a(lp297
g276
ag294
aaa(lp298
I352
aI358
ag294
a(lp299
g267
ag294
aaa(lp300
I352
aI358
ag294
a(lp301
g258
ag294
aaa(lp302
I363
aI370
aS'business'
p303
a(lp304
g294
ag303
aaa(lp305
I363
aI370
ag303
a(lp306
g285
ag303
aaa(lp307
I363
aI370
ag303
a(lp308
g276
ag303
aaa(lp309
I363
aI370
ag303
a(lp310
g267
ag303
aaa(lp311
I375
aI378
aS'host'
p312
a(lp313
g303
ag312
aaa(lp314
I375
aI378
ag312
a(lp315
g294
ag312
aaa(lp316
I375
aI378
ag312
a(lp317
g285
ag312
aaa(lp318
I375
aI378
ag312
a(lp319
g276
ag312
aaa(lp320
I392
aI396
aS'think'
p321
a(lp322
g312
ag321
aaa(lp323
I392
aI396
ag321
a(lp324
g303
ag321
aaa(lp325
I392
aI396
ag321
a(lp326
g294
ag321
aaa(lp327
I392
aI396
ag321
a(lp328
g285
ag321
aaa(lp329
I405
aI412
aS'venetian'
p330
a(lp331
g321
ag330
aaa(lp332
I405
aI412
ag330
a(lp333
g312
ag330
aaa(lp334
I405
aI412
ag330
a(lp335
g303
ag330
aaa(lp336
I405
aI412
ag330
a(lp337
g294
ag330
aaa(lp338
I414
aI419
aS'resort'
p339
a(lp340
g330
ag339
aaa(lp341
I414
aI419
ag339
a(lp342
g321
ag339
aaa(lp343
I414
aI419
ag339
a(lp344
g312
ag339
aaa(lp345
I414
aI419
ag339
a(lp346
g303
ag339
aaa(lp347
I421
aI432
aS'hotelcasino'
p348
a(lp349
g339
ag348
aaa(lp350
I421
aI432
ag348
a(lp351
g330
ag348
aaa(lp352
I421
aI432
ag348
a(lp353
g321
ag348
aaa(lp354
I421
aI432
ag348
a(lp355
g312
ag348
aaa(lp356
I434
aI437
aS'grow'
p357
a(lp358
g348
ag357
aaa(lp359
I434
aI437
ag357
a(lp360
g339
ag357
aaa(lp361
I434
aI437
ag357
a(lp362
g330
ag357
aaa(lp363
I434
aI437
ag357
a(lp364
g321
ag357
aaa(lp365
I439
aI442
aS'fast'
p366
a(lp367
g357
ag366
aaa(lp368
I439
aI442
ag366
a(lp369
g348
ag366
aaa(lp370
I439
aI442
ag366
a(lp371
g339
ag366
aaa(lp372
I439
aI442
ag366
a(lp373
g330
ag366
aaa(lp374
I454
aI462
aS'expanding'
p375
a(lp376
g366
ag375
aaa(lp377
I454
aI462
ag375
a(lp378
g357
ag375
aaa(lp379
I454
aI462
ag375
a(lp380
g348
ag375
aaa(lp381
I454
aI462
ag375
a(lp382
g339
ag375
aaa(lp383
I470
aI474
aS'staff'
p384
a(lp385
g375
ag384
aaa(lp386
I470
aI474
ag384
a(lp387
g366
ag384
aaa(lp388
I470
aI474
ag384
a(lp389
g357
ag384
aaa(lp390
I470
aI474
ag384
a(lp391
g348
ag384
aaa(lp392
I486
aI493
aS'venetian'
p393
a(lp394
g384
ag393
aaa(lp395
I486
aI493
ag393
a(lp396
g375
ag393
aaa(lp397
I486
aI493
ag393
a(lp398
g366
ag393
aaa(lp399
I486
aI493
ag393
a(lp400
g357
ag393
aaa(lp401
I495
aI500
aS'resort'
p402
a(lp403
g393
ag402
aaa(lp404
I495
aI500
ag402
a(lp405
g384
ag402
aaa(lp406
I495
aI500
ag402
a(lp407
g375
ag402
aaa(lp408
I495
aI500
ag402
a(lp409
g366
ag402
aaa(lp410
I502
aI513
aS'hotelcasino'
p411
a(lp412
g402
ag411
aaa(lp413
I502
aI513
ag411
a(lp414
g393
ag411
aaa(lp415
I502
aI513
ag411
a(lp416
g384
ag411
aaa(lp417
I502
aI513
ag411
a(lp418
g375
ag411
aaa(lp419
I515
aI519
aS'stack'
p420
a(lp421
g411
ag420
aaa(lp422
I515
aI519
ag420
a(lp423
g402
ag420
aaa(lp424
I515
aI519
ag420
a(lp425
g393
ag420
aaa(lp426
I515
aI519
ag420
a(lp427
g384
ag420
aaa(lp428
I527
aI530
aS'host'
p429
a(lp430
g420
ag429
aaa(lp431
I527
aI530
ag429
a(lp432
g411
ag429
aaa(lp433
I527
aI530
ag429
a(lp434
g402
ag429
aaa(lp435
I527
aI530
ag429
a(lp436
g393
ag429
aaa(lp437
I545
aI551
aS'average'
p438
a(lp439
g429
ag438
aaa(lp440
I545
aI551
ag438
a(lp441
g420
ag438
aaa(lp442
I545
aI551
ag438
a(lp443
g411
ag438
aaa(lp444
I545
aI551
ag438
a(lp445
g402
ag438
aaa(lp446
I553
aI560
aS'starting'
p447
a(lp448
g438
ag447
aaa(lp449
I553
aI560
ag447
a(lp450
g429
ag447
aaa(lp451
I553
aI560
ag447
a(lp452
g420
ag447
aaa(lp453
I553
aI560
ag447
a(lp454
g411
ag447
aaa(lp455
I562
aI569
aS'salaries'
p456
a(lp457
g447
ag456
aaa(lp458
I562
aI569
ag456
a(lp459
g438
ag456
aaa(lp460
I562
aI569
ag456
a(lp461
g429
ag456
aaa(lp462
I562
aI569
ag456
a(lp463
g420
ag456
aaa(lp464
I572
aI578
aS'bonuses'
p465
a(lp466
g456
ag465
aaa(lp467
I572
aI578
ag465
a(lp468
g447
ag465
aaa(lp469
I572
aI578
ag465
a(lp470
g438
ag465
aaa(lp471
I572
aI578
ag465
a(lp472
g429
ag465
aaa(lp473
I581
aI588
aS'benefits'
p474
a(lp475
g465
ag474
aaa(lp476
I581
aI588
ag474
a(lp477
g456
ag474
aaa(lp478
I581
aI588
ag474
a(lp479
g447
ag474
aaa(lp480
I581
aI588
ag474
a(lp481
g438
ag474
aaa(lp482
I594
aI599
aS'travel'
p483
a(lp484
g474
ag483
aaa(lp485
I594
aI599
ag483
a(lp486
g465
ag483
aaa(lp487
I594
aI599
ag483
a(lp488
g456
ag483
aaa(lp489
I594
aI599
ag483
a(lp490
g447
ag483
aaa(lp491
I601
aI612
aS'requirements'
p492
a(lp493
g483
ag492
aaa(lp494
I601
aI612
ag492
a(lp495
g474
ag492
aaa(lp496
I601
aI612
ag492
a(lp497
g465
ag492
aaa(lp498
I601
aI612
ag492
a(lp499
g456
ag492
aaa(lp500
I614
aI617
aS'like'
p501
a(lp502
g492
ag501
aaa(lp503
I614
aI617
ag501
a(lp504
g483
ag501
aaa(lp505
I614
aI617
ag501
a(lp506
g474
ag501
aaa(lp507
I614
aI617
ag501
a(lp508
g465
ag501
aaa(lp509
I622
aI629
aS'venetian'
p510
a(lp511
g501
ag510
aaa(lp512
I622
aI629
ag510
a(lp513
g492
ag510
aaa(lp514
I622
aI629
ag510
a(lp515
g483
ag510
aaa(lp516
I622
aI629
ag510
a(lp517
g474
ag510
aaa(lp518
I631
aI636
aS'resort'
p519
a(lp520
g510
ag519
aaa(lp521
I631
aI636
ag519
a(lp522
g501
ag519
aaa(lp523
I631
aI636
ag519
a(lp524
g492
ag519
aaa(lp525
I631
aI636
ag519
a(lp526
g483
ag519
aaa(lp527
I638
aI649
aS'hotelcasino'
p528
a(lp529
g519
ag528
aaa(lp530
I638
aI649
ag528
a(lp531
g510
ag528
aaa(lp532
I638
aI649
ag528
a(lp533
g501
ag528
aaa(lp534
I638
aI649
ag528
a(lp535
g492
ag528
aaa(lp536
I664
aI667
aS'like'
p537
a(lp538
g528
ag537
aaa(lp539
I664
aI667
ag537
a(lp540
g519
ag537
aaa(lp541
I664
aI667
ag537
a(lp542
g510
ag537
aaa(lp543
I664
aI667
ag537
a(lp544
g501
ag537
aaa(lp545
I669
aI672
aS'best'
p546
a(lp547
g537
ag546
aaa(lp548
I669
aI672
ag546
a(lp549
g528
ag546
aaa(lp550
I669
aI672
ag546
a(lp551
g519
ag546
aaa(lp552
I669
aI672
ag546
a(lp553
g510
ag546
aaa(lp554
I683
aI686
aS'host'
p555
a(lp556
g546
ag555
aaa(lp557
I683
aI686
ag555
a(lp558
g537
ag555
aaa(lp559
I683
aI686
ag555
a(lp560
g528
ag555
aaa(lp561
I683
aI686
ag555
a(lp562
g519
ag555
aaa(lp563
I695
aI697
aS'get'
p564
a(lp565
g555
ag564
aaa(lp566
I695
aI697
ag564
a(lp567
g546
ag564
aaa(lp568
I695
aI697
ag564
a(lp569
g537
ag564
aaa(lp570
I695
aI697
ag564
a(lp571
g528
ag564
aaa(lp572
I701
aI703
aS'job'
p573
a(lp574
g564
ag573
aaa(lp575
I701
aI703
ag573
a(lp576
g555
ag573
aaa(lp577
I701
aI703
ag573
a(lp578
g546
ag573
aaa(lp579
I701
aI703
ag573
a(lp580
g537
ag573
aaa(lp581
I708
aI715
aS'venetian'
p582
a(lp583
g573
ag582
aaa(lp584
I708
aI715
ag582
a(lp585
g564
ag582
aaa(lp586
I708
aI715
ag582
a(lp587
g555
ag582
aaa(lp588
I708
aI715
ag582
a(lp589
g546
ag582
aaa(lp590
I717
aI722
aS'resort'
p591
a(lp592
g582
ag591
aaa(lp593
I717
aI722
ag591
a(lp594
g573
ag591
aaa(lp595
I717
aI722
ag591
a(lp596
g564
ag591
aaa(lp597
I717
aI722
ag591
a(lp598
g555
ag591
aaa(lp599
I724
aI735
aS'hotelcasino'
p600
a(lp601
g591
ag600
aaa(lp602
I724
aI735
ag600
a(lp603
g582
ag600
aaa(lp604
I724
aI735
ag600
a(lp605
g573
ag600
aaa(lp606
I724
aI735
ag600
a(lp607
g564
ag600
aaa(lp608
I745
aI748
aS'work'
p609
a(lp610
g600
ag609
aaa(lp611
I745
aI748
ag609
a(lp612
g591
ag609
aaa(lp613
I745
aI748
ag609
a(lp614
g582
ag609
aaa(lp615
I745
aI748
ag609
a(lp616
g573
ag609
aaa(lp617
I753
aI760
aS'venetian'
p618
a(lp619
g609
ag618
aaa(lp620
I753
aI760
ag618
a(lp621
g600
ag618
aaa(lp622
I753
aI760
ag618
a(lp623
g591
ag618
aaa(lp624
I753
aI760
ag618
a(lp625
g582
ag618
aaa(lp626
I762
aI767
aS'resort'
p627
a(lp628
g618
ag627
aaa(lp629
I762
aI767
ag627
a(lp630
g609
ag627
aaa(lp631
I762
aI767
ag627
a(lp632
g600
ag627
aaa(lp633
I762
aI767
ag627
a(lp634
g591
ag627
aaa(lp635
I769
aI780
aS'hotelcasino'
p636
a(lp637
g627
ag636
aaa(lp638
I769
aI780
ag636
a(lp639
g618
ag636
aaa(lp640
I769
aI780
ag636
a(lp641
g609
ag636
aaa(lp642
I769
aI780
ag636
a(lp643
g600
ag636
aaa(lp644
I795
aI798
aS'find'
p645
a(lp646
g636
ag645
aaa(lp647
I795
aI798
ag645
a(lp648
g627
ag645
aaa(lp649
I795
aI798
ag645
a(lp650
g618
ag645
aaa(lp651
I795
aI798
ag645
a(lp652
g609
ag645
aaa(lp653
I804
aI806
aS'job'
p654
a(lp655
g645
ag654
aaa(lp656
I804
aI806
ag654
a(lp657
g636
ag654
aaa(lp658
I804
aI806
ag654
a(lp659
g627
ag654
aaa(lp660
I804
aI806
ag654
a(lp661
g618
ag654
aaa(lp662
I821
aI823
aS'get'
p663
a(lp664
g654
ag663
aaa(lp665
I821
aI823
ag663
a(lp666
g645
ag663
aaa(lp667
I821
aI823
ag663
a(lp668
g636
ag663
aaa(lp669
I821
aI823
ag663
a(lp670
g627
ag663
aaa(lp671
I830
aI834
aS'first'
p672
a(lp673
g663
ag672
aaa(lp674
I830
aI834
ag672
a(lp675
g654
ag672
aaa(lp676
I830
aI834
ag672
a(lp677
g645
ag672
aaa(lp678
I830
aI834
ag672
a(lp679
g636
ag672
aaa(lp680
I836
aI844
aS'interview'
p681
a(lp682
g672
ag681
aaa(lp683
I836
aI844
ag681
a(lp684
g663
ag681
aaa(lp685
I836
aI844
ag681
a(lp686
g654
ag681
aaa(lp687
I836
aI844
ag681
a(lp688
g645
ag681
aaa(lp689
I851
aI856
aS'advice'
p690
a(lp691
g681
ag690
aaa(lp692
I851
aI856
ag690
a(lp693
g672
ag690
aaa(lp694
I851
aI856
ag690
a(lp695
g663
ag690
aaa(lp696
I851
aI856
ag690
a(lp697
g654
ag690
aaa(lp698
I862
aI868
aS'someone'
p699
a(lp700
g690
ag699
aaa(lp701
I862
aI868
ag699
a(lp702
g681
ag699
aaa(lp703
I862
aI868
ag699
a(lp704
g672
ag699
aaa(lp705
I862
aI868
ag699
a(lp706
g663
ag699
aaa(lp707
I870
aI875
aS'trying'
p708
a(lp709
g699
ag708
aaa(lp710
I870
aI875
ag708
a(lp711
g690
ag708
aaa(lp712
I870
aI875
ag708
a(lp713
g681
ag708
aaa(lp714
I870
aI875
ag708
a(lp715
g672
ag708
aaa(lp716
I880
aI882
aS'get'
p717
a(lp718
g708
ag717
aaa(lp719
I880
aI882
ag717
a(lp720
g699
ag717
aaa(lp721
I880
aI882
ag717
a(lp722
g690
ag717
aaa(lp723
I880
aI882
ag717
a(lp724
g681
ag717
aaa(lp725
I887
aI892
aS'whats'
p726
a(lp727
g717
ag726
aaa(lp728
I887
aI892
ag726
a(lp729
g708
ag726
aaa(lp730
I887
aI892
ag726
a(lp731
g699
ag726
aaa(lp732
I887
aI892
ag726
a(lp733
g690
ag726
aaa(lp734
I894
aI898
aS'great'
p735
a(lp736
g726
ag735
aaa(lp737
I894
aI898
ag735
a(lp738
g717
ag735
aaa(lp739
I894
aI898
ag735
a(lp740
g708
ag735
aaa(lp741
I894
aI898
ag735
a(lp742
g699
ag735
aaa(lp743
I916
aI919
aS'work'
p744
a(lp745
g735
ag744
aaa(lp746
I916
aI919
ag744
a(lp747
g726
ag744
aaa(lp748
I916
aI919
ag744
a(lp749
g717
ag744
aaa(lp750
I916
aI919
ag744
a(lp751
g708
ag744
aaa(lp752
I929
aI933
aS'could'
p753
a(lp754
g744
ag753
aaa(lp755
I929
aI933
ag753
a(lp756
g735
ag753
aaa(lp757
I929
aI933
ag753
a(lp758
g726
ag753
aaa(lp759
I929
aI933
ag753
a(lp760
g717
ag753
aaa(lp761
I935
aI940
aS'change'
p762
a(lp763
g753
ag762
aaa(lp764
I935
aI940
ag762
a(lp765
g744
ag762
aaa(lp766
I935
aI940
ag762
a(lp767
g735
ag762
aaa(lp768
I935
aI940
ag762
a(lp769
g726
ag762
aaa(lp770
I942
aI944
aS'one'
p771
a(lp772
g762
ag771
aaa(lp773
I942
aI944
ag771
a(lp774
g753
ag771
aaa(lp775
I942
aI944
ag771
a(lp776
g744
ag771
aaa(lp777
I942
aI944
ag771
a(lp778
g735
ag771
aaa(lp779
I946
aI950
aS'thing'
p780
a(lp781
g771
ag780
aaa(lp782
I946
aI950
ag780
a(lp783
g762
ag780
aaa(lp784
I946
aI950
ag780
a(lp785
g753
ag780
aaa(lp786
I946
aI950
ag780
a(lp787
g744
ag780
aaa(lp788
I963
aI965
aS'job'
p789
a(lp790
g780
ag789
aaa(lp791
I963
aI965
ag789
a(lp792
g771
ag789
aaa(lp793
I963
aI965
ag789
a(lp794
g762
ag789
aaa(lp795
I963
aI965
ag789
a(lp796
g753
ag789
aaa(lp797
I973
aI977
aS'would'
p798
a(lp799
g789
ag798
aaa(lp800
I973
aI977
ag798
a(lp801
g780
ag798
aaa(lp802
I973
aI977
ag798
a(lp803
g771
ag798
aaa(lp804
I973
aI977
ag798
a(lp805
g762
ag798
aaa(lp806
I986
aI988
aS'got'
p807
a(lp808
g798
ag807
aaa(lp809
I986
aI988
ag807
a(lp810
g789
ag807
aaa(lp811
I986
aI988
ag807
a(lp812
g780
ag807
aaa(lp813
I986
aI988
ag807
a(lp814
g771
ag807
aaa(lp815
I992
aI999
aS'question'
p816
a(lp817
g807
ag816
aaa(lp818
I992
aI999
ag816
a(lp819
g798
ag816
aaa(lp820
I992
aI999
ag816
a(lp821
g789
ag816
aaa(lp822
I992
aI999
ag816
a(lp823
g780
ag816
aaa(lp824
I1002
aI1006
aS'share'
p825
a(lp826
g816
ag825
aaa(lp827
I1002
aI1006
ag825
a(lp828
g807
ag825
aaa(lp829
I1002
aI1006
ag825
a(lp830
g798
ag825
aaa(lp831
I1002
aI1006
ag825
a(lp832
g789
ag825
aaa(lp833
I1012
aI1015
aS'best'
p834
a(lp835
g825
ag834
aaa(lp836
I1012
aI1015
ag834
a(lp837
g816
ag834
aaa(lp838
I1012
aI1015
ag834
a(lp839
g807
ag834
aaa(lp840
I1012
aI1015
ag834
a(lp841
g798
ag834
aaa(lp842
I1021
aI1025
aS'worst'
p843
a(lp844
g834
ag843
aaa(lp845
I1021
aI1025
ag843
a(lp846
g825
ag843
aaa(lp847
I1021
aI1025
ag843
a(lp848
g816
ag843
aaa(lp849
I1021
aI1025
ag843
a(lp850
g807
ag843
aaa(lp851
I1059
aI1062
aS'work'
p852
a(lp853
g843
ag852
aaa(lp854
I1059
aI1062
ag852
a(lp855
g834
ag852
aaa(lp856
I1059
aI1062
ag852
a(lp857
g825
ag852
aaa(lp858
I1059
aI1062
ag852
a(lp859
g816
ag852
aaa(lp860
I1067
aI1073
aS'joining'
p861
a(lp862
g852
ag861
aaa(lp863
I1067
aI1073
ag861
a(lp864
g843
ag861
aaa(lp865
I1067
aI1073
ag861
a(lp866
g834
ag861
aaa(lp867
I1067
aI1073
ag861
a(lp868
g825
ag861
aaa(lp869
I1077
aI1086
aS'discussion'
p870
a(lp871
g861
ag870
aaa(lp872
I1077
aI1086
ag870
a(lp873
g852
ag870
aaa(lp874
I1077
aI1086
ag870
a(lp875
g843
ag870
aaa(lp876
I1077
aI1086
ag870
a(lp877
g834
ag870
aaa(lp878
I1093
aI1100
aS'starting'
p879
a(lp880
g870
ag879
aaa(lp881
I1093
aI1100
ag879
a(lp882
g861
ag879
aaa(lp883
I1093
aI1100
ag879
a(lp884
g852
ag879
aaa(lp885
I1093
aI1100
ag879
a(lp886
g843
ag879
aaa(lp887
I1117
aI1119
aS'rss'
p888
a(lp889
g879
ag888
aaa(lp890
I1117
aI1119
ag888
a(lp891
g870
ag888
aaa(lp892
I1117
aI1119
ag888
a(lp893
g861
ag888
aaa(lp894
I1117
aI1119
ag888
a(lp895
g852
ag888
aaa(lp896
I1121
aI1124
aS'feed'
p897
a(lp898
g888
ag897
aaa(lp899
I1121
aI1124
ag897
a(lp900
g879
ag897
aaa(lp901
I1121
aI1124
ag897
a(lp902
g870
ag897
aaa(lp903
I1121
aI1124
ag897
a(lp904
g861
ag897
aaa(lp905
I1133
aI1137
aS'start'
p906
a(lp907
g897
ag906
aaa(lp908
I1133
aI1137
ag906
a(lp909
g888
ag906
aaa(lp910
I1133
aI1137
ag906
a(lp911
g879
ag906
aaa(lp912
I1133
aI1137
ag906
a(lp913
g870
ag906
aaa(lp914
I1141
aI1153
aS'discussion\xbb'
p915
a(lp916
g906
ag915
aaa(lp917
I1141
aI1153
ag915
a(lp918
g897
ag915
aaa(lp919
I1141
aI1153
ag915
a(lp920
g888
ag915
aaa(lp921
I1141
aI1153
ag915
a(lp922
g879
ag915
aaa(lp923
I1155
aI1158
aS'sign'
p924
a(lp925
g915
ag924
aaa(lp926
I1155
aI1158
ag924
a(lp927
g906
ag924
aaa(lp928
I1155
aI1158
ag924
a(lp929
g897
ag924
aaa(lp930
I1155
aI1158
ag924
a(lp931
g888
ag924
aaa(lp932
I1163
aI1168
aS'create'
p933
a(lp934
g924
ag933
aaa(lp935
I1163
aI1168
ag933
a(lp936
g915
ag933
aaa(lp937
I1163
aI1168
ag933
a(lp938
g906
ag933
aaa(lp939
I1163
aI1168
ag933
a(lp940
g897
ag933
aaa(lp941
I1173
aI1179
aS'account'
p942
a(lp943
g933
ag942
aaa(lp944
I1173
aI1179
ag942
a(lp945
g924
ag942
aaa(lp946
I1173
aI1179
ag942
a(lp947
g915
ag942
aaa(lp948
I1173
aI1179
ag942
a(lp949
g906
ag942
aaa(lp950
I1181
aI1186
aS'recent'
p951
a(lp952
g942
ag951
aaa(lp953
I1181
aI1186
ag951
a(lp954
g933
ag951
aaa(lp955
I1181
aI1186
ag951
a(lp956
g924
ag951
aaa(lp957
I1181
aI1186
ag951
a(lp958
g915
ag951
aaa(lp959
I1188
aI1195
aS'venetian'
p960
a(lp961
g951
ag960
aaa(lp962
I1188
aI1195
ag960
a(lp963
g942
ag960
aaa(lp964
I1188
aI1195
ag960
a(lp965
g933
ag960
aaa(lp966
I1188
aI1195
ag960
a(lp967
g924
ag960
aaa(lp968
I1197
aI1202
aS'resort'
p969
a(lp970
g960
ag969
aaa(lp971
I1197
aI1202
ag969
a(lp972
g951
ag969
aaa(lp973
I1197
aI1202
ag969
a(lp974
g942
ag969
aaa(lp975
I1197
aI1202
ag969
a(lp976
g933
ag969
aaa(lp977
I1204
aI1215
aS'hotelcasino'
p978
a(lp979
g969
ag978
aaa(lp980
I1204
aI1215
ag978
a(lp981
g960
ag978
aaa(lp982
I1204
aI1215
ag978
a(lp983
g951
ag978
aaa(lp984
I1204
aI1215
ag978
a(lp985
g942
ag978
aaasS'wordMap'
p986
(lp987
(lp988
I0
aI7
ag5
a(lp989
(lp990
I0
aS'v'
p991
aa(lp992
I1
aS'e'
p993
aa(lp994
I2
aS'n'
p995
aa(lp996
I3
ag993
aa(lp997
I4
aS't'
p998
aa(lp999
I5
aS'i'
p1000
aa(lp1001
I6
aS'a'
p1002
aa(lp1003
I7
ag995
aaaa(lp1004
I9
aI14
ag15
a(lp1005
(lp1006
I9
aS'r'
p1007
aa(lp1008
I10
ag993
aa(lp1009
I11
aS's'
p1010
aa(lp1011
I12
aS'o'
p1012
aa(lp1013
I13
ag1007
aa(lp1014
I14
ag998
aaaa(lp1015
I16
aI27
ag24
a(lp1016
(lp1017
I16
aS'h'
p1018
aa(lp1019
I17
ag1012
aa(lp1020
I18
ag998
aa(lp1021
I19
ag993
aa(lp1022
I20
aS'l'
p1023
aa(lp1024
I22
aS'c'
p1025
aa(lp1026
I23
ag1002
aa(lp1027
I24
ag1010
aa(lp1028
I25
ag1000
aa(lp1029
I26
ag995
aa(lp1030
I27
ag1012
aaaa(lp1031
I29
aI32
ag33
a(lp1032
(lp1033
I29
aS'j'
p1034
aa(lp1035
I30
ag1012
aa(lp1036
I31
aS'b'
p1037
aa(lp1038
I32
ag1010
aaaa(lp1039
I34
aI38
ag42
a(lp1040
(lp1041
I34
aS'f'
p1042
aa(lp1043
I35
ag1012
aa(lp1044
I36
ag1007
aa(lp1045
I37
aS'u'
p1046
aa(lp1047
I38
aS'm'
p1048
aaaa(lp1049
I40
aI42
ag51
a(lp1050
(lp1051
I40
aS'g'
p1052
aa(lp1053
I41
ag993
aa(lp1054
I42
ag998
aaaa(lp1055
I44
aI46
ag60
a(lp1056
(lp1057
I44
ag995
aa(lp1058
I45
ag993
aa(lp1059
I46
aS'w'
p1060
aaaa(lp1061
I48
aI55
ag69
a(lp1062
(lp1063
I48
ag1025
aa(lp1064
I49
ag1012
aa(lp1065
I50
ag1048
aa(lp1066
I51
ag1048
aa(lp1067
I52
ag993
aa(lp1068
I53
ag995
aa(lp1069
I54
ag998
aa(lp1070
I55
ag1010
aaaa(lp1071
I57
aI58
aS'by'
p1072
a(lp1073
(lp1074
I57
ag1037
aa(lp1075
I58
aS'y'
p1076
aaaa(lp1077
I60
aI64
ag78
a(lp1078
(lp1079
I60
ag993
aa(lp1080
I61
ag1048
aa(lp1081
I62
ag1002
aa(lp1082
I63
ag1000
aa(lp1083
I64
ag1023
aaaa(lp1084
I66
aI67
aS'my'
p1085
a(lp1086
(lp1087
I66
ag1048
aa(lp1088
I67
ag1076
aaaa(lp1089
I69
aI73
ag87
a(lp1090
(lp1091
I69
ag993
aa(lp1092
I70
ag1048
aa(lp1093
I71
ag1002
aa(lp1094
I72
ag1000
aa(lp1095
I73
ag1023
aaaa(lp1096
I75
aI78
aS'its'
p1097
a(lp1098
(lp1099
I75
ag1000
aa(lp1100
I76
ag998
aa(lp1101
I78
ag1010
aaaa(lp1102
I80
aI85
ag96
a(lp1103
(lp1104
I80
ag1002
aa(lp1105
I81
ag1023
aa(lp1106
I82
ag1060
aa(lp1107
I83
ag1002
aa(lp1108
I84
ag1076
aa(lp1109
I85
ag1010
aaaa(lp1110
I87
aI90
ag105
a(lp1111
(lp1112
I87
ag1018
aa(lp1113
I88
ag1002
aa(lp1114
I89
ag1007
aa(lp1115
I90
aS'd'
p1116
aaaa(lp1117
I92
aI93
aS'to'
p1118
a(lp1119
(lp1120
I92
ag998
aa(lp1121
I93
ag1012
aaaa(lp1122
I95
aI98
ag114
a(lp1123
(lp1124
I95
aS'k'
p1125
aa(lp1126
I96
ag995
aa(lp1127
I97
ag1012
aa(lp1128
I98
ag1060
aaaa(lp1129
I100
aI103
aS'what'
p1130
a(lp1131
(lp1132
I100
ag1060
aa(lp1133
I101
ag1018
aa(lp1134
I102
ag1002
aa(lp1135
I103
ag998
aaaa(lp1136
I105
aI106
aS'to'
p1137
a(lp1138
(lp1139
I105
ag998
aa(lp1140
I106
ag1012
aaaa(lp1141
I108
aI113
ag123
a(lp1142
(lp1143
I108
ag993
aa(lp1144
I109
aS'x'
p1145
aa(lp1146
I110
aS'p'
p1147
aa(lp1148
I111
ag993
aa(lp1149
I112
ag1025
aa(lp1150
I113
ag998
aaaa(lp1151
I115
aI118
aS'when'
p1152
a(lp1153
(lp1154
I115
ag1060
aa(lp1155
I116
ag1018
aa(lp1156
I117
ag993
aa(lp1157
I118
ag995
aaaa(lp1158
I120
aI124
ag132
a(lp1159
(lp1160
I120
ag1052
aa(lp1161
I121
ag1012
aa(lp1162
I122
ag1000
aa(lp1163
I123
ag995
aa(lp1164
I124
ag1052
aaaa(lp1165
I126
aI127
aS'in'
p1166
a(lp1167
(lp1168
I126
ag1000
aa(lp1169
I127
ag995
aaaa(lp1170
I129
aI131
aS'for'
p1171
a(lp1172
(lp1173
I129
ag1042
aa(lp1174
I130
ag1012
aa(lp1175
I131
ag1007
aaaa(lp1176
I133
aI136
aS'that'
p1177
a(lp1178
(lp1179
I133
ag998
aa(lp1180
I134
ag1018
aa(lp1181
I135
ag1002
aa(lp1182
I136
ag998
aaaa(lp1183
I138
aI146
ag141
a(lp1184
(lp1185
I138
ag1000
aa(lp1186
I139
ag995
aa(lp1187
I140
ag998
aa(lp1188
I141
ag993
aa(lp1189
I142
ag1007
aa(lp1190
I143
ag991
aa(lp1191
I144
ag1000
aa(lp1192
I145
ag993
aa(lp1193
I146
ag1060
aaaa(lp1194
I151
aI153
aS'and'
p1195
a(lp1196
(lp1197
I151
ag1002
aa(lp1198
I152
ag995
aa(lp1199
I153
ag1116
aaaa(lp1200
I155
aI165
ag150
a(lp1201
(lp1202
I155
ag1147
aa(lp1203
I156
ag1007
aa(lp1204
I157
ag993
aa(lp1205
I158
ag1147
aa(lp1206
I159
ag1002
aa(lp1207
I160
ag1007
aa(lp1208
I161
ag1002
aa(lp1209
I162
ag998
aa(lp1210
I163
ag1000
aa(lp1211
I164
ag1012
aa(lp1212
I165
ag995
aaaa(lp1213
I167
aI169
aS'can'
p1214
a(lp1215
(lp1216
I167
ag1025
aa(lp1217
I168
ag1002
aa(lp1218
I169
ag995
aaaa(lp1219
I171
aI174
ag159
a(lp1220
(lp1221
I171
ag1048
aa(lp1222
I172
ag1002
aa(lp1223
I173
ag1125
aa(lp1224
I174
ag993
aaaa(lp1225
I176
aI178
aS'all'
p1226
a(lp1227
(lp1228
I176
ag1002
aa(lp1229
I177
ag1023
aa(lp1230
I178
ag1023
aaaa(lp1231
I180
aI182
aS'the'
p1232
a(lp1233
(lp1234
I180
ag998
aa(lp1235
I181
ag1018
aa(lp1236
I182
ag993
aaaa(lp1237
I184
aI193
ag168
a(lp1238
(lp1239
I184
ag1116
aa(lp1240
I185
ag1000
aa(lp1241
I186
ag1042
aa(lp1242
I187
ag1042
aa(lp1243
I188
ag993
aa(lp1244
I189
ag1007
aa(lp1245
I190
ag993
aa(lp1246
I191
ag995
aa(lp1247
I192
ag1025
aa(lp1248
I193
ag993
aaaa(lp1249
I196
aI199
aS'what'
p1250
a(lp1251
(lp1252
I196
ag1060
aa(lp1253
I197
ag1018
aa(lp1254
I198
ag1002
aa(lp1255
I199
ag998
aaaa(lp1256
I201
aI202
aS'is'
p1257
a(lp1258
(lp1259
I201
ag1000
aa(lp1260
I202
ag1010
aaaa(lp1261
I204
aI206
aS'the'
p1262
a(lp1263
(lp1264
I204
ag998
aa(lp1265
I205
ag1018
aa(lp1266
I206
ag993
aaaa(lp1267
I208
aI216
ag177
a(lp1268
(lp1269
I208
ag1000
aa(lp1270
I209
ag995
aa(lp1271
I210
ag998
aa(lp1272
I211
ag993
aa(lp1273
I212
ag1007
aa(lp1274
I213
ag991
aa(lp1275
I214
ag1000
aa(lp1276
I215
ag993
aa(lp1277
I216
ag1060
aaaa(lp1278
I221
aI224
ag186
a(lp1279
(lp1280
I221
ag1018
aa(lp1281
I222
ag1012
aa(lp1282
I223
ag1010
aa(lp1283
I224
ag998
aaaa(lp1284
I226
aI230
ag195
a(lp1285
(lp1286
I226
ag993
aa(lp1287
I227
ag991
aa(lp1288
I228
ag993
aa(lp1289
I229
ag1007
aa(lp1290
I230
ag1076
aaaa(lp1291
I232
aI239
ag204
a(lp1292
(lp1293
I232
ag1037
aa(lp1294
I233
ag1046
aa(lp1295
I234
ag1010
aa(lp1296
I235
ag1000
aa(lp1297
I236
ag995
aa(lp1298
I237
ag993
aa(lp1299
I238
ag1010
aa(lp1300
I239
ag1010
aaaa(lp1301
I241
aI243
aS'has'
p1302
a(lp1303
(lp1304
I241
ag1018
aa(lp1305
I242
ag1002
aa(lp1306
I243
ag1010
aaaa(lp1307
I245
aI247
aS'its'
p1308
a(lp1309
(lp1310
I245
ag1000
aa(lp1311
I246
ag998
aa(lp1312
I247
ag1010
aaaa(lp1313
I249
aI251
aS'own'
p1314
a(lp1315
(lp1316
I249
ag1012
aa(lp1317
I250
ag1060
aa(lp1318
I251
ag995
aaaa(lp1319
I253
aI257
ag213
a(lp1320
(lp1321
I253
ag1010
aa(lp1322
I254
ag998
aa(lp1323
I255
ag1076
aa(lp1324
I256
ag1023
aa(lp1325
I257
ag993
aaaa(lp1326
I260
aI263
aS'what'
p1327
a(lp1328
(lp1329
I260
ag1060
aa(lp1330
I261
ag1018
aa(lp1331
I262
ag1002
aa(lp1332
I263
ag998
aaaa(lp1333
I265
aI266
aS'is'
p1334
a(lp1335
(lp1336
I265
ag1000
aa(lp1337
I266
ag1010
aaaa(lp1338
I268
aI270
aS'the'
p1339
a(lp1340
(lp1341
I268
ag998
aa(lp1342
I269
ag1018
aa(lp1343
I270
ag993
aaaa(lp1344
I272
aI277
ag222
a(lp1345
(lp1346
I272
ag1012
aa(lp1347
I273
ag1042
aa(lp1348
I274
ag1042
aa(lp1349
I275
ag1000
aa(lp1350
I276
ag1025
aa(lp1351
I277
ag993
aaaa(lp1352
I279
aI289
ag231
a(lp1353
(lp1354
I279
ag993
aa(lp1355
I280
ag995
aa(lp1356
I281
ag991
aa(lp1357
I282
ag1000
aa(lp1358
I283
ag1007
aa(lp1359
I284
ag1012
aa(lp1360
I285
ag995
aa(lp1361
I286
ag1048
aa(lp1362
I287
ag993
aa(lp1363
I288
ag995
aa(lp1364
I289
ag998
aaaa(lp1365
I291
aI293
aS'and'
p1366
a(lp1367
(lp1368
I291
ag1002
aa(lp1369
I292
ag995
aa(lp1370
I293
ag1116
aaaa(lp1371
I295
aI301
ag240
a(lp1372
(lp1373
I295
ag1025
aa(lp1374
I296
ag1046
aa(lp1375
I297
ag1023
aa(lp1376
I298
ag998
aa(lp1377
I299
ag1046
aa(lp1378
I300
ag1007
aa(lp1379
I301
ag993
aaaa(lp1380
I303
aI306
ag249
a(lp1381
(lp1382
I303
ag1023
aa(lp1383
I304
ag1000
aa(lp1384
I305
ag1125
aa(lp1385
I306
ag993
aaaa(lp1386
I308
aI309
aS'at'
p1387
a(lp1388
(lp1389
I308
ag1002
aa(lp1390
I309
ag998
aaaa(lp1391
I311
aI318
ag258
a(lp1392
(lp1393
I311
ag991
aa(lp1394
I312
ag993
aa(lp1395
I313
ag995
aa(lp1396
I314
ag993
aa(lp1397
I315
ag998
aa(lp1398
I316
ag1000
aa(lp1399
I317
ag1002
aa(lp1400
I318
ag995
aaaa(lp1401
I320
aI325
ag267
a(lp1402
(lp1403
I320
ag1007
aa(lp1404
I321
ag993
aa(lp1405
I322
ag1010
aa(lp1406
I323
ag1012
aa(lp1407
I324
ag1007
aa(lp1408
I325
ag998
aaaa(lp1409
I327
aI338
ag276
a(lp1410
(lp1411
I327
ag1018
aa(lp1412
I328
ag1012
aa(lp1413
I329
ag998
aa(lp1414
I330
ag993
aa(lp1415
I331
ag1023
aa(lp1416
I333
ag1025
aa(lp1417
I334
ag1002
aa(lp1418
I335
ag1010
aa(lp1419
I336
ag1000
aa(lp1420
I337
ag995
aa(lp1421
I338
ag1012
aaaa(lp1422
I341
aI343
aS'are'
p1423
a(lp1424
(lp1425
I341
ag1002
aa(lp1426
I342
ag1007
aa(lp1427
I343
ag993
aaaa(lp1428
I345
aI350
ag285
a(lp1429
(lp1430
I345
ag1147
aa(lp1431
I346
ag993
aa(lp1432
I347
ag1012
aa(lp1433
I348
ag1147
aa(lp1434
I349
ag1023
aa(lp1435
I350
ag993
aaaa(lp1436
I352
aI358
ag294
a(lp1437
(lp1438
I352
ag1116
aa(lp1439
I353
ag1007
aa(lp1440
I354
ag993
aa(lp1441
I355
ag1010
aa(lp1442
I356
ag1010
aa(lp1443
I357
ag993
aa(lp1444
I358
ag1116
aaaa(lp1445
I360
aI361
aS'in'
p1446
a(lp1447
(lp1448
I360
ag1000
aa(lp1449
I361
ag995
aaaa(lp1450
I363
aI370
ag303
a(lp1451
(lp1452
I363
ag1037
aa(lp1453
I364
ag1046
aa(lp1454
I365
ag1010
aa(lp1455
I366
ag1000
aa(lp1456
I367
ag995
aa(lp1457
I368
ag993
aa(lp1458
I369
ag1010
aa(lp1459
I370
ag1010
aaaa(lp1460
I375
aI378
ag312
a(lp1461
(lp1462
I375
ag1018
aa(lp1463
I376
ag1012
aa(lp1464
I377
ag1010
aa(lp1465
I378
ag998
aaaa(lp1466
I380
aI383
aS'what'
p1467
a(lp1468
(lp1469
I380
ag1060
aa(lp1470
I381
ag1018
aa(lp1471
I382
ag1002
aa(lp1472
I383
ag998
aaaa(lp1473
I385
aI386
aS'do'
p1474
a(lp1475
(lp1476
I385
ag1116
aa(lp1477
I386
ag1012
aaaa(lp1478
I388
aI390
aS'you'
p1479
a(lp1480
(lp1481
I388
ag1076
aa(lp1482
I389
ag1012
aa(lp1483
I390
ag1046
aaaa(lp1484
I392
aI396
ag321
a(lp1485
(lp1486
I392
ag998
aa(lp1487
I393
ag1018
aa(lp1488
I394
ag1000
aa(lp1489
I395
ag995
aa(lp1490
I396
ag1125
aaaa(lp1491
I400
aI403
aS'will'
p1492
a(lp1493
(lp1494
I400
ag1060
aa(lp1495
I401
ag1000
aa(lp1496
I402
ag1023
aa(lp1497
I403
ag1023
aaaa(lp1498
I405
aI412
ag330
a(lp1499
(lp1500
I405
ag991
aa(lp1501
I406
ag993
aa(lp1502
I407
ag995
aa(lp1503
I408
ag993
aa(lp1504
I409
ag998
aa(lp1505
I410
ag1000
aa(lp1506
I411
ag1002
aa(lp1507
I412
ag995
aaaa(lp1508
I414
aI419
ag339
a(lp1509
(lp1510
I414
ag1007
aa(lp1511
I415
ag993
aa(lp1512
I416
ag1010
aa(lp1513
I417
ag1012
aa(lp1514
I418
ag1007
aa(lp1515
I419
ag998
aaaa(lp1516
I421
aI432
ag348
a(lp1517
(lp1518
I421
ag1018
aa(lp1519
I422
ag1012
aa(lp1520
I423
ag998
aa(lp1521
I424
ag993
aa(lp1522
I425
ag1023
aa(lp1523
I427
ag1025
aa(lp1524
I428
ag1002
aa(lp1525
I429
ag1010
aa(lp1526
I430
ag1000
aa(lp1527
I431
ag995
aa(lp1528
I432
ag1012
aaaa(lp1529
I434
aI437
ag357
a(lp1530
(lp1531
I434
ag1052
aa(lp1532
I435
ag1007
aa(lp1533
I436
ag1012
aa(lp1534
I437
ag1060
aaaa(lp1535
I439
aI442
ag366
a(lp1536
(lp1537
I439
ag1042
aa(lp1538
I440
ag1002
aa(lp1539
I441
ag1010
aa(lp1540
I442
ag998
aaaa(lp1541
I445
aI447
aS'are'
p1542
a(lp1543
(lp1544
I445
ag1002
aa(lp1545
I446
ag1007
aa(lp1546
I447
ag993
aaaa(lp1547
I449
aI452
aS'they'
p1548
a(lp1549
(lp1550
I449
ag998
aa(lp1551
I450
ag1018
aa(lp1552
I451
ag993
aa(lp1553
I452
ag1076
aaaa(lp1554
I454
aI462
ag375
a(lp1555
(lp1556
I454
ag993
aa(lp1557
I455
ag1145
aa(lp1558
I456
ag1147
aa(lp1559
I457
ag1002
aa(lp1560
I458
ag995
aa(lp1561
I459
ag1116
aa(lp1562
I460
ag1000
aa(lp1563
I461
ag995
aa(lp1564
I462
ag1052
aaaa(lp1565
I464
aI468
aS'their'
p1566
a(lp1567
(lp1568
I464
ag998
aa(lp1569
I465
ag1018
aa(lp1570
I466
ag993
aa(lp1571
I467
ag1000
aa(lp1572
I468
ag1007
aaaa(lp1573
I470
aI474
ag384
a(lp1574
(lp1575
I470
ag1010
aa(lp1576
I471
ag998
aa(lp1577
I472
ag1002
aa(lp1578
I473
ag1042
aa(lp1579
I474
ag1042
aaaa(lp1580
I477
aI479
aS'how'
p1581
a(lp1582
(lp1583
I477
ag1018
aa(lp1584
I478
ag1012
aa(lp1585
I479
ag1060
aaaa(lp1586
I481
aI484
aS'does'
p1587
a(lp1588
(lp1589
I481
ag1116
aa(lp1590
I482
ag1012
aa(lp1591
I483
ag993
aa(lp1592
I484
ag1010
aaaa(lp1593
I486
aI493
ag393
a(lp1594
(lp1595
I486
ag991
aa(lp1596
I487
ag993
aa(lp1597
I488
ag995
aa(lp1598
I489
ag993
aa(lp1599
I490
ag998
aa(lp1600
I491
ag1000
aa(lp1601
I492
ag1002
aa(lp1602
I493
ag995
aaaa(lp1603
I495
aI500
ag402
a(lp1604
(lp1605
I495
ag1007
aa(lp1606
I496
ag993
aa(lp1607
I497
ag1010
aa(lp1608
I498
ag1012
aa(lp1609
I499
ag1007
aa(lp1610
I500
ag998
aaaa(lp1611
I502
aI513
ag411
a(lp1612
(lp1613
I502
ag1018
aa(lp1614
I503
ag1012
aa(lp1615
I504
ag998
aa(lp1616
I505
ag993
aa(lp1617
I506
ag1023
aa(lp1618
I508
ag1025
aa(lp1619
I509
ag1002
aa(lp1620
I510
ag1010
aa(lp1621
I511
ag1000
aa(lp1622
I512
ag995
aa(lp1623
I513
ag1012
aaaa(lp1624
I515
aI519
ag420
a(lp1625
(lp1626
I515
ag1010
aa(lp1627
I516
ag998
aa(lp1628
I517
ag1002
aa(lp1629
I518
ag1025
aa(lp1630
I519
ag1125
aaaa(lp1631
I521
aI522
aS'up'
p1632
a(lp1633
(lp1634
I521
ag1046
aa(lp1635
I522
ag1147
aaaa(lp1636
I527
aI530
ag429
a(lp1637
(lp1638
I527
ag1018
aa(lp1639
I528
ag1012
aa(lp1640
I529
ag1010
aa(lp1641
I530
ag998
aaaa(lp1642
I532
aI535
aS'what'
p1643
a(lp1644
(lp1645
I532
ag1060
aa(lp1646
I533
ag1018
aa(lp1647
I534
ag1002
aa(lp1648
I535
ag998
aaaa(lp1649
I537
aI539
aS'are'
p1650
a(lp1651
(lp1652
I537
ag1002
aa(lp1653
I538
ag1007
aa(lp1654
I539
ag993
aaaa(lp1655
I541
aI543
aS'the'
p1656
a(lp1657
(lp1658
I541
ag998
aa(lp1659
I542
ag1018
aa(lp1660
I543
ag993
aaaa(lp1661
I545
aI551
ag438
a(lp1662
(lp1663
I545
ag1002
aa(lp1664
I546
ag991
aa(lp1665
I547
ag993
aa(lp1666
I548
ag1007
aa(lp1667
I549
ag1002
aa(lp1668
I550
ag1052
aa(lp1669
I551
ag993
aaaa(lp1670
I553
aI560
ag447
a(lp1671
(lp1672
I553
ag1010
aa(lp1673
I554
ag998
aa(lp1674
I555
ag1002
aa(lp1675
I556
ag1007
aa(lp1676
I557
ag998
aa(lp1677
I558
ag1000
aa(lp1678
I559
ag995
aa(lp1679
I560
ag1052
aaaa(lp1680
I562
aI569
ag456
a(lp1681
(lp1682
I562
ag1010
aa(lp1683
I563
ag1002
aa(lp1684
I564
ag1023
aa(lp1685
I565
ag1002
aa(lp1686
I566
ag1007
aa(lp1687
I567
ag1000
aa(lp1688
I568
ag993
aa(lp1689
I569
ag1010
aaaa(lp1690
I572
aI578
ag465
a(lp1691
(lp1692
I572
ag1037
aa(lp1693
I573
ag1012
aa(lp1694
I574
ag995
aa(lp1695
I575
ag1046
aa(lp1696
I576
ag1010
aa(lp1697
I577
ag993
aa(lp1698
I578
ag1010
aaaa(lp1699
I581
aI588
ag474
a(lp1700
(lp1701
I581
ag1037
aa(lp1702
I582
ag993
aa(lp1703
I583
ag995
aa(lp1704
I584
ag993
aa(lp1705
I585
ag1042
aa(lp1706
I586
ag1000
aa(lp1707
I587
ag998
aa(lp1708
I588
ag1010
aaaa(lp1709
I590
aI592
aS'and'
p1710
a(lp1711
(lp1712
I590
ag1002
aa(lp1713
I591
ag995
aa(lp1714
I592
ag1116
aaaa(lp1715
I594
aI599
ag483
a(lp1716
(lp1717
I594
ag998
aa(lp1718
I595
ag1007
aa(lp1719
I596
ag1002
aa(lp1720
I597
ag991
aa(lp1721
I598
ag993
aa(lp1722
I599
ag1023
aaaa(lp1723
I601
aI612
ag492
a(lp1724
(lp1725
I601
ag1007
aa(lp1726
I602
ag993
aa(lp1727
I603
aS'q'
p1728
aa(lp1729
I604
ag1046
aa(lp1730
I605
ag1000
aa(lp1731
I606
ag1007
aa(lp1732
I607
ag993
aa(lp1733
I608
ag1048
aa(lp1734
I609
ag993
aa(lp1735
I610
ag995
aa(lp1736
I611
ag998
aa(lp1737
I612
ag1010
aaaa(lp1738
I614
aI617
ag501
a(lp1739
(lp1740
I614
ag1023
aa(lp1741
I615
ag1000
aa(lp1742
I616
ag1125
aa(lp1743
I617
ag993
aaaa(lp1744
I619
aI620
aS'at'
p1745
a(lp1746
(lp1747
I619
ag1002
aa(lp1748
I620
ag998
aaaa(lp1749
I622
aI629
ag510
a(lp1750
(lp1751
I622
ag991
aa(lp1752
I623
ag993
aa(lp1753
I624
ag995
aa(lp1754
I625
ag993
aa(lp1755
I626
ag998
aa(lp1756
I627
ag1000
aa(lp1757
I628
ag1002
aa(lp1758
I629
ag995
aaaa(lp1759
I631
aI636
ag519
a(lp1760
(lp1761
I631
ag1007
aa(lp1762
I632
ag993
aa(lp1763
I633
ag1010
aa(lp1764
I634
ag1012
aa(lp1765
I635
ag1007
aa(lp1766
I636
ag998
aaaa(lp1767
I638
aI649
ag528
a(lp1768
(lp1769
I638
ag1018
aa(lp1770
I639
ag1012
aa(lp1771
I640
ag998
aa(lp1772
I641
ag993
aa(lp1773
I642
ag1023
aa(lp1774
I644
ag1025
aa(lp1775
I645
ag1002
aa(lp1776
I646
ag1010
aa(lp1777
I647
ag1000
aa(lp1778
I648
ag995
aa(lp1779
I649
ag1012
aaaa(lp1780
I652
aI655
aS'what'
p1781
a(lp1782
(lp1783
I652
ag1060
aa(lp1784
I653
ag1018
aa(lp1785
I654
ag1002
aa(lp1786
I655
ag998
aaaa(lp1787
I657
aI658
aS'do'
p1788
a(lp1789
(lp1790
I657
ag1116
aa(lp1791
I658
ag1012
aaaa(lp1792
I660
aI662
aS'you'
p1793
a(lp1794
(lp1795
I660
ag1076
aa(lp1796
I661
ag1012
aa(lp1797
I662
ag1046
aaaa(lp1798
I664
aI667
ag537
a(lp1799
(lp1800
I664
ag1023
aa(lp1801
I665
ag1000
aa(lp1802
I666
ag1125
aa(lp1803
I667
ag993
aaaa(lp1804
I669
aI672
ag546
a(lp1805
(lp1806
I669
ag1037
aa(lp1807
I670
ag993
aa(lp1808
I671
ag1010
aa(lp1809
I672
ag998
aaaa(lp1810
I674
aI678
aS'about'
p1811
a(lp1812
(lp1813
I674
ag1002
aa(lp1814
I675
ag1037
aa(lp1815
I676
ag1012
aa(lp1816
I677
ag1046
aa(lp1817
I678
ag998
aaaa(lp1818
I683
aI686
ag555
a(lp1819
(lp1820
I683
ag1018
aa(lp1821
I684
ag1012
aa(lp1822
I685
ag1010
aa(lp1823
I686
ag998
aaaa(lp1824
I688
aI690
aS'how'
p1825
a(lp1826
(lp1827
I688
ag1018
aa(lp1828
I689
ag1012
aa(lp1829
I690
ag1060
aaaa(lp1830
I692
aI693
aS'to'
p1831
a(lp1832
(lp1833
I692
ag998
aa(lp1834
I693
ag1012
aaaa(lp1835
I695
aI697
ag564
a(lp1836
(lp1837
I695
ag1052
aa(lp1838
I696
ag993
aa(lp1839
I697
ag998
aaaa(lp1840
I699
aI699
ag1002
a(lp1841
(lp1842
I699
ag1002
aaaa(lp1843
I701
aI703
ag573
a(lp1844
(lp1845
I701
ag1034
aa(lp1846
I702
ag1012
aa(lp1847
I703
ag1037
aaaa(lp1848
I705
aI706
aS'at'
p1849
a(lp1850
(lp1851
I705
ag1002
aa(lp1852
I706
ag998
aaaa(lp1853
I708
aI715
ag582
a(lp1854
(lp1855
I708
ag991
aa(lp1856
I709
ag993
aa(lp1857
I710
ag995
aa(lp1858
I711
ag993
aa(lp1859
I712
ag998
aa(lp1860
I713
ag1000
aa(lp1861
I714
ag1002
aa(lp1862
I715
ag995
aaaa(lp1863
I717
aI722
ag591
a(lp1864
(lp1865
I717
ag1007
aa(lp1866
I718
ag993
aa(lp1867
I719
ag1010
aa(lp1868
I720
ag1012
aa(lp1869
I721
ag1007
aa(lp1870
I722
ag998
aaaa(lp1871
I724
aI735
ag600
a(lp1872
(lp1873
I724
ag1018
aa(lp1874
I725
ag1012
aa(lp1875
I726
ag998
aa(lp1876
I727
ag993
aa(lp1877
I728
ag1023
aa(lp1878
I730
ag1025
aa(lp1879
I731
ag1002
aa(lp1880
I732
ag1010
aa(lp1881
I733
ag1000
aa(lp1882
I734
ag995
aa(lp1883
I735
ag1012
aaaa(lp1884
I738
aI739
aS'do'
p1885
a(lp1886
(lp1887
I738
ag1116
aa(lp1888
I739
ag1012
aaaa(lp1889
I741
aI743
aS'you'
p1890
a(lp1891
(lp1892
I741
ag1076
aa(lp1893
I742
ag1012
aa(lp1894
I743
ag1046
aaaa(lp1895
I745
aI748
ag609
a(lp1896
(lp1897
I745
ag1060
aa(lp1898
I746
ag1012
aa(lp1899
I747
ag1007
aa(lp1900
I748
ag1125
aaaa(lp1901
I750
aI751
aS'at'
p1902
a(lp1903
(lp1904
I750
ag1002
aa(lp1905
I751
ag998
aaaa(lp1906
I753
aI760
ag618
a(lp1907
(lp1908
I753
ag991
aa(lp1909
I754
ag993
aa(lp1910
I755
ag995
aa(lp1911
I756
ag993
aa(lp1912
I757
ag998
aa(lp1913
I758
ag1000
aa(lp1914
I759
ag1002
aa(lp1915
I760
ag995
aaaa(lp1916
I762
aI767
ag627
a(lp1917
(lp1918
I762
ag1007
aa(lp1919
I763
ag993
aa(lp1920
I764
ag1010
aa(lp1921
I765
ag1012
aa(lp1922
I766
ag1007
aa(lp1923
I767
ag998
aaaa(lp1924
I769
aI780
ag636
a(lp1925
(lp1926
I769
ag1018
aa(lp1927
I770
ag1012
aa(lp1928
I771
ag998
aa(lp1929
I772
ag993
aa(lp1930
I773
ag1023
aa(lp1931
I775
ag1025
aa(lp1932
I776
ag1002
aa(lp1933
I777
ag1010
aa(lp1934
I778
ag1000
aa(lp1935
I779
ag995
aa(lp1936
I780
ag1012
aaaa(lp1937
I783
aI785
aS'how'
p1938
a(lp1939
(lp1940
I783
ag1018
aa(lp1941
I784
ag1012
aa(lp1942
I785
ag1060
aaaa(lp1943
I787
aI789
aS'did'
p1944
a(lp1945
(lp1946
I787
ag1116
aa(lp1947
I788
ag1000
aa(lp1948
I789
ag1116
aaaa(lp1949
I791
aI793
aS'you'
p1950
a(lp1951
(lp1952
I791
ag1076
aa(lp1953
I792
ag1012
aa(lp1954
I793
ag1046
aaaa(lp1955
I795
aI798
ag645
a(lp1956
(lp1957
I795
ag1042
aa(lp1958
I796
ag1000
aa(lp1959
I797
ag995
aa(lp1960
I798
ag1116
aaaa(lp1961
I800
aI802
aS'the'
p1962
a(lp1963
(lp1964
I800
ag998
aa(lp1965
I801
ag1018
aa(lp1966
I802
ag993
aaaa(lp1967
I804
aI806
ag654
a(lp1968
(lp1969
I804
ag1034
aa(lp1970
I805
ag1012
aa(lp1971
I806
ag1037
aaaa(lp1972
I809
aI811
aS'how'
p1973
a(lp1974
(lp1975
I809
ag1018
aa(lp1976
I810
ag1012
aa(lp1977
I811
ag1060
aaaa(lp1978
I813
aI815
aS'did'
p1979
a(lp1980
(lp1981
I813
ag1116
aa(lp1982
I814
ag1000
aa(lp1983
I815
ag1116
aaaa(lp1984
I817
aI819
aS'you'
p1985
a(lp1986
(lp1987
I817
ag1076
aa(lp1988
I818
ag1012
aa(lp1989
I819
ag1046
aaaa(lp1990
I821
aI823
ag663
a(lp1991
(lp1992
I821
ag1052
aa(lp1993
I822
ag993
aa(lp1994
I823
ag998
aaaa(lp1995
I825
aI828
aS'that'
p1996
a(lp1997
(lp1998
I825
ag998
aa(lp1999
I826
ag1018
aa(lp2000
I827
ag1002
aa(lp2001
I828
ag998
aaaa(lp2002
I830
aI834
ag672
a(lp2003
(lp2004
I830
ag1042
aa(lp2005
I831
ag1000
aa(lp2006
I832
ag1007
aa(lp2007
I833
ag1010
aa(lp2008
I834
ag998
aaaa(lp2009
I836
aI844
ag681
a(lp2010
(lp2011
I836
ag1000
aa(lp2012
I837
ag995
aa(lp2013
I838
ag998
aa(lp2014
I839
ag993
aa(lp2015
I840
ag1007
aa(lp2016
I841
ag991
aa(lp2017
I842
ag1000
aa(lp2018
I843
ag993
aa(lp2019
I844
ag1060
aaaa(lp2020
I847
aI849
aS'any'
p2021
a(lp2022
(lp2023
I847
ag1002
aa(lp2024
I848
ag995
aa(lp2025
I849
ag1076
aaaa(lp2026
I851
aI856
ag690
a(lp2027
(lp2028
I851
ag1002
aa(lp2029
I852
ag1116
aa(lp2030
I853
ag991
aa(lp2031
I854
ag1000
aa(lp2032
I855
ag1025
aa(lp2033
I856
ag993
aaaa(lp2034
I858
aI860
aS'for'
p2035
a(lp2036
(lp2037
I858
ag1042
aa(lp2038
I859
ag1012
aa(lp2039
I860
ag1007
aaaa(lp2040
I862
aI868
ag699
a(lp2041
(lp2042
I862
ag1010
aa(lp2043
I863
ag1012
aa(lp2044
I864
ag1048
aa(lp2045
I865
ag993
aa(lp2046
I866
ag1012
aa(lp2047
I867
ag995
aa(lp2048
I868
ag993
aaaa(lp2049
I870
aI875
ag708
a(lp2050
(lp2051
I870
ag998
aa(lp2052
I871
ag1007
aa(lp2053
I872
ag1076
aa(lp2054
I873
ag1000
aa(lp2055
I874
ag995
aa(lp2056
I875
ag1052
aaaa(lp2057
I877
aI878
aS'to'
p2058
a(lp2059
(lp2060
I877
ag998
aa(lp2061
I878
ag1012
aaaa(lp2062
I880
aI882
ag717
a(lp2063
(lp2064
I880
ag1052
aa(lp2065
I881
ag993
aa(lp2066
I882
ag998
aaaa(lp2067
I887
aI892
ag726
a(lp2068
(lp2069
I887
ag1060
aa(lp2070
I888
ag1018
aa(lp2071
I889
ag1002
aa(lp2072
I890
ag998
aa(lp2073
I892
ag1010
aaaa(lp2074
I894
aI898
ag735
a(lp2075
(lp2076
I894
ag1052
aa(lp2077
I895
ag1007
aa(lp2078
I896
ag993
aa(lp2079
I897
ag1002
aa(lp2080
I898
ag998
aaaa(lp2081
I900
aI904
aS'about'
p2082
a(lp2083
(lp2084
I900
ag1002
aa(lp2085
I901
ag1037
aa(lp2086
I902
ag1012
aa(lp2087
I903
ag1046
aa(lp2088
I904
ag998
aaaa(lp2089
I906
aI910
aS'where'
p2090
a(lp2091
(lp2092
I906
ag1060
aa(lp2093
I907
ag1018
aa(lp2094
I908
ag993
aa(lp2095
I909
ag1007
aa(lp2096
I910
ag993
aaaa(lp2097
I912
aI914
aS'you'
p2098
a(lp2099
(lp2100
I912
ag1076
aa(lp2101
I913
ag1012
aa(lp2102
I914
ag1046
aaaa(lp2103
I916
aI919
ag744
a(lp2104
(lp2105
I916
ag1060
aa(lp2106
I917
ag1012
aa(lp2107
I918
ag1007
aa(lp2108
I919
ag1125
aaaa(lp2109
I922
aI923
aS'if'
p2110
a(lp2111
(lp2112
I922
ag1000
aa(lp2113
I923
ag1042
aaaa(lp2114
I925
aI927
aS'you'
p2115
a(lp2116
(lp2117
I925
ag1076
aa(lp2118
I926
ag1012
aa(lp2119
I927
ag1046
aaaa(lp2120
I929
aI933
ag753
a(lp2121
(lp2122
I929
ag1025
aa(lp2123
I930
ag1012
aa(lp2124
I931
ag1046
aa(lp2125
I932
ag1023
aa(lp2126
I933
ag1116
aaaa(lp2127
I935
aI940
ag762
a(lp2128
(lp2129
I935
ag1025
aa(lp2130
I936
ag1018
aa(lp2131
I937
ag1002
aa(lp2132
I938
ag995
aa(lp2133
I939
ag1052
aa(lp2134
I940
ag993
aaaa(lp2135
I942
aI944
ag771
a(lp2136
(lp2137
I942
ag1012
aa(lp2138
I943
ag995
aa(lp2139
I944
ag993
aaaa(lp2140
I946
aI950
ag780
a(lp2141
(lp2142
I946
ag998
aa(lp2143
I947
ag1018
aa(lp2144
I948
ag1000
aa(lp2145
I949
ag995
aa(lp2146
I950
ag1052
aaaa(lp2147
I952
aI956
aS'about'
p2148
a(lp2149
(lp2150
I952
ag1002
aa(lp2151
I953
ag1037
aa(lp2152
I954
ag1012
aa(lp2153
I955
ag1046
aa(lp2154
I956
ag998
aaaa(lp2155
I958
aI961
aS'your'
p2156
a(lp2157
(lp2158
I958
ag1076
aa(lp2159
I959
ag1012
aa(lp2160
I960
ag1046
aa(lp2161
I961
ag1007
aaaa(lp2162
I963
aI965
ag789
a(lp2163
(lp2164
I963
ag1034
aa(lp2165
I964
ag1012
aa(lp2166
I965
ag1037
aaaa(lp2167
I968
aI971
aS'what'
p2168
a(lp2169
(lp2170
I968
ag1060
aa(lp2171
I969
ag1018
aa(lp2172
I970
ag1002
aa(lp2173
I971
ag998
aaaa(lp2174
I973
aI977
ag798
a(lp2175
(lp2176
I973
ag1060
aa(lp2177
I974
ag1012
aa(lp2178
I975
ag1046
aa(lp2179
I976
ag1023
aa(lp2180
I977
ag1116
aaaa(lp2181
I979
aI980
aS'it'
p2182
a(lp2183
(lp2184
I979
ag1000
aa(lp2185
I980
ag998
aaaa(lp2186
I982
aI983
aS'be'
p2187
a(lp2188
(lp2189
I982
ag1037
aa(lp2190
I983
ag993
aaaa(lp2191
I986
aI988
ag807
a(lp2192
(lp2193
I986
ag1052
aa(lp2194
I987
ag1012
aa(lp2195
I988
ag998
aaaa(lp2196
I990
aI990
ag1002
a(lp2197
(lp2198
I990
ag1002
aaaa(lp2199
I992
aI999
ag816
a(lp2200
(lp2201
I992
ag1728
aa(lp2202
I993
ag1046
aa(lp2203
I994
ag993
aa(lp2204
I995
ag1010
aa(lp2205
I996
ag998
aa(lp2206
I997
ag1000
aa(lp2207
I998
ag1012
aa(lp2208
I999
ag995
aaaa(lp2209
I1002
aI1006
ag825
a(lp2210
(lp2211
I1002
ag1010
aa(lp2212
I1003
ag1018
aa(lp2213
I1004
ag1002
aa(lp2214
I1005
ag1007
aa(lp2215
I1006
ag993
aaaa(lp2216
I1008
aI1010
aS'the'
p2217
a(lp2218
(lp2219
I1008
ag998
aa(lp2220
I1009
ag1018
aa(lp2221
I1010
ag993
aaaa(lp2222
I1012
aI1015
ag834
a(lp2223
(lp2224
I1012
ag1037
aa(lp2225
I1013
ag993
aa(lp2226
I1014
ag1010
aa(lp2227
I1015
ag998
aaaa(lp2228
I1017
aI1019
aS'and'
p2229
a(lp2230
(lp2231
I1017
ag1002
aa(lp2232
I1018
ag995
aa(lp2233
I1019
ag1116
aaaa(lp2234
I1021
aI1025
ag843
a(lp2235
(lp2236
I1021
ag1060
aa(lp2237
I1022
ag1012
aa(lp2238
I1023
ag1007
aa(lp2239
I1024
ag1010
aa(lp2240
I1025
ag998
aaaa(lp2241
I1027
aI1031
aS'about'
p2242
a(lp2243
(lp2244
I1027
ag1002
aa(lp2245
I1028
ag1037
aa(lp2246
I1029
ag1012
aa(lp2247
I1030
ag1046
aa(lp2248
I1031
ag998
aaaa(lp2249
I1033
aI1036
aS'what'
p2250
a(lp2251
(lp2252
I1033
ag1060
aa(lp2253
I1034
ag1018
aa(lp2254
I1035
ag1002
aa(lp2255
I1036
ag998
aaaa(lp2256
I1038
aI1040
aS'you'
p2257
a(lp2258
(lp2259
I1038
ag1076
aa(lp2260
I1039
ag1012
aa(lp2261
I1040
ag1046
aaaa(lp2262
I1042
aI1043
aS'do'
p2263
a(lp2264
(lp2265
I1042
ag1116
aa(lp2266
I1043
ag1012
aaaa(lp2267
I1045
aI1047
aS'and'
p2268
a(lp2269
(lp2270
I1045
ag1002
aa(lp2271
I1046
ag995
aa(lp2272
I1047
ag1116
aaaa(lp2273
I1049
aI1053
aS'where'
p2274
a(lp2275
(lp2276
I1049
ag1060
aa(lp2277
I1050
ag1018
aa(lp2278
I1051
ag993
aa(lp2279
I1052
ag1007
aa(lp2280
I1053
ag993
aaaa(lp2281
I1055
aI1057
aS'you'
p2282
a(lp2283
(lp2284
I1055
ag1076
aa(lp2285
I1056
ag1012
aa(lp2286
I1057
ag1046
aaaa(lp2287
I1059
aI1062
ag852
a(lp2288
(lp2289
I1059
ag1060
aa(lp2290
I1060
ag1012
aa(lp2291
I1061
ag1007
aa(lp2292
I1062
ag1125
aaaa(lp2293
I1064
aI1065
aS'by'
p2294
a(lp2295
(lp2296
I1064
ag1037
aa(lp2297
I1065
ag1076
aaaa(lp2298
I1067
aI1073
ag861
a(lp2299
(lp2300
I1067
ag1034
aa(lp2301
I1068
ag1012
aa(lp2302
I1069
ag1000
aa(lp2303
I1070
ag995
aa(lp2304
I1071
ag1000
aa(lp2305
I1072
ag995
aa(lp2306
I1073
ag1052
aaaa(lp2307
I1075
aI1075
ag1002
a(lp2308
(lp2309
I1075
ag1002
aaaa(lp2310
I1077
aI1086
ag870
a(lp2311
(lp2312
I1077
ag1116
aa(lp2313
I1078
ag1000
aa(lp2314
I1079
ag1010
aa(lp2315
I1080
ag1025
aa(lp2316
I1081
ag1046
aa(lp2317
I1082
ag1010
aa(lp2318
I1083
ag1010
aa(lp2319
I1084
ag1000
aa(lp2320
I1085
ag1012
aa(lp2321
I1086
ag995
aaaa(lp2322
I1088
aI1089
aS'or'
p2323
a(lp2324
(lp2325
I1088
ag1012
aa(lp2326
I1089
ag1007
aaaa(lp2327
I1093
aI1100
ag879
a(lp2328
(lp2329
I1093
ag1010
aa(lp2330
I1094
ag998
aa(lp2331
I1095
ag1002
aa(lp2332
I1096
ag1007
aa(lp2333
I1097
ag998
aa(lp2334
I1098
ag1000
aa(lp2335
I1099
ag995
aa(lp2336
I1100
ag1052
aaaa(lp2337
I1102
aI1105
aS'your'
p2338
a(lp2339
(lp2340
I1102
ag1076
aa(lp2341
I1103
ag1012
aa(lp2342
I1104
ag1046
aa(lp2343
I1105
ag1007
aaaa(lp2344
I1107
aI1109
aS'own'
p2345
a(lp2346
(lp2347
I1107
ag1012
aa(lp2348
I1108
ag1060
aa(lp2349
I1109
ag995
aaaa(lp2350
I1111
aI1112
aS'as'
p2351
a(lp2352
(lp2353
I1111
ag1002
aa(lp2354
I1112
ag1010
aaaa(lp2355
I1114
aI1115
aS'an'
p2356
a(lp2357
(lp2358
I1114
ag1002
aa(lp2359
I1115
ag995
aaaa(lp2360
I1117
aI1119
ag888
a(lp2361
(lp2362
I1117
ag1007
aa(lp2363
I1118
ag1010
aa(lp2364
I1119
ag1010
aaaa(lp2365
I1121
aI1124
ag897
a(lp2366
(lp2367
I1121
ag1042
aa(lp2368
I1122
ag993
aa(lp2369
I1123
ag993
aa(lp2370
I1124
ag1116
aaaa(lp2371
I1127
aI1128
aS'or'
p2372
a(lp2373
(lp2374
I1127
ag1012
aa(lp2375
I1128
ag1007
aaaa(lp2376
I1130
aI1131
aS'to'
p2377
a(lp2378
(lp2379
I1130
ag998
aa(lp2380
I1131
ag1012
aaaa(lp2381
I1133
aI1137
ag906
a(lp2382
(lp2383
I1133
ag1010
aa(lp2384
I1134
ag998
aa(lp2385
I1135
ag1002
aa(lp2386
I1136
ag1007
aa(lp2387
I1137
ag998
aaaa(lp2388
I1139
aI1139
ag1002
a(lp2389
(lp2390
I1139
ag1002
aaaa(lp2391
I1141
aI1153
ag915
a(lp2392
(lp2393
I1141
ag1116
aa(lp2394
I1142
ag1000
aa(lp2395
I1143
ag1010
aa(lp2396
I1144
ag1025
aa(lp2397
I1145
ag1046
aa(lp2398
I1146
ag1010
aa(lp2399
I1147
ag1010
aa(lp2400
I1148
ag1000
aa(lp2401
I1149
ag1012
aa(lp2402
I1150
ag995
aa(lp2403
I1153
aS'\xbb'
p2404
aaaa(lp2405
I1155
aI1158
ag924
a(lp2406
(lp2407
I1155
ag1010
aa(lp2408
I1156
ag1000
aa(lp2409
I1157
ag1052
aa(lp2410
I1158
ag995
aaaa(lp2411
I1160
aI1161
aS'in'
p2412
a(lp2413
(lp2414
I1160
ag1000
aa(lp2415
I1161
ag995
aaaa(lp2416
I1163
aI1168
ag933
a(lp2417
(lp2418
I1163
ag1025
aa(lp2419
I1164
ag1007
aa(lp2420
I1165
ag993
aa(lp2421
I1166
ag1002
aa(lp2422
I1167
ag998
aa(lp2423
I1168
ag993
aaaa(lp2424
I1170
aI1171
aS'an'
p2425
a(lp2426
(lp2427
I1170
ag1002
aa(lp2428
I1171
ag995
aaaa(lp2429
I1173
aI1179
ag942
a(lp2430
(lp2431
I1173
ag1002
aa(lp2432
I1174
ag1025
aa(lp2433
I1175
ag1025
aa(lp2434
I1176
ag1012
aa(lp2435
I1177
ag1046
aa(lp2436
I1178
ag995
aa(lp2437
I1179
ag998
aaaa(lp2438
I1181
aI1186
ag951
a(lp2439
(lp2440
I1181
ag1007
aa(lp2441
I1182
ag993
aa(lp2442
I1183
ag1025
aa(lp2443
I1184
ag993
aa(lp2444
I1185
ag995
aa(lp2445
I1186
ag998
aaaa(lp2446
I1188
aI1195
ag960
a(lp2447
(lp2448
I1188
ag991
aa(lp2449
I1189
ag993
aa(lp2450
I1190
ag995
aa(lp2451
I1191
ag993
aa(lp2452
I1192
ag998
aa(lp2453
I1193
ag1000
aa(lp2454
I1194
ag1002
aa(lp2455
I1195
ag995
aaaa(lp2456
I1197
aI1202
ag969
a(lp2457
(lp2458
I1197
ag1007
aa(lp2459
I1198
ag993
aa(lp2460
I1199
ag1010
aa(lp2461
I1200
ag1012
aa(lp2462
I1201
ag1007
aa(lp2463
I1202
ag998
aaaa(lp2464
I1204
aI1215
ag978
a(lp2465
(lp2466
I1204
ag1018
aa(lp2467
I1205
ag1012
aa(lp2468
I1206
ag998
aa(lp2469
I1207
ag993
aa(lp2470
I1208
ag1023
aa(lp2471
I1210
ag1025
aa(lp2472
I1211
ag1002
aa(lp2473
I1212
ag1010
aa(lp2474
I1213
ag1000
aa(lp2475
I1214
ag995
aa(lp2476
I1215
ag1012
aaaasS'cleanCharacterMap'
p2477
(lp2478
g990
ag992
ag994
ag996
ag997
ag999
ag1001
ag1003
a(lp2479
I8
aS' '
p2480
aag1006
ag1008
ag1009
ag1011
ag1013
ag1014
a(lp2481
I15
ag2480
aag1017
ag1019
ag1020
ag1021
ag1022
ag1024
ag1026
ag1027
ag1028
ag1029
ag1030
a(lp2482
I28
ag2480
aag1033
ag1035
ag1036
ag1038
a(lp2483
I33
ag2480
aag1041
ag1043
ag1044
ag1045
ag1047
a(lp2484
I39
ag2480
aag1051
ag1053
ag1054
a(lp2485
I43
ag2480
aag1057
ag1058
ag1059
a(lp2486
I47
ag2480
aag1063
ag1064
ag1065
ag1066
ag1067
ag1068
ag1069
ag1070
a(lp2487
I56
ag2480
aag1074
ag1075
a(lp2488
I59
ag2480
aag1079
ag1080
ag1081
ag1082
ag1083
a(lp2489
I65
ag2480
aag1087
ag1088
a(lp2490
I68
ag2480
aag1091
ag1092
ag1093
ag1094
ag1095
a(lp2491
I74
ag2480
aag1099
ag1100
ag1101
a(lp2492
I79
ag2480
aag1104
ag1105
ag1106
ag1107
ag1108
ag1109
a(lp2493
I86
ag2480
aag1112
ag1113
ag1114
ag1115
a(lp2494
I91
ag2480
aag1120
ag1121
a(lp2495
I94
ag2480
aag1124
ag1126
ag1127
ag1128
a(lp2496
I99
ag2480
aag1132
ag1133
ag1134
ag1135
a(lp2497
I104
ag2480
aag1139
ag1140
a(lp2498
I107
ag2480
aag1143
ag1144
ag1146
ag1148
ag1149
ag1150
a(lp2499
I114
ag2480
aag1154
ag1155
ag1156
ag1157
a(lp2500
I119
ag2480
aag1160
ag1161
ag1162
ag1163
ag1164
a(lp2501
I125
ag2480
aag1168
ag1169
a(lp2502
I128
ag2480
aag1173
ag1174
ag1175
a(lp2503
I132
ag2480
aag1179
ag1180
ag1181
ag1182
a(lp2504
I137
ag2480
aag1185
ag1186
ag1187
ag1188
ag1189
ag1190
ag1191
ag1192
ag1193
a(lp2505
I147
ag2480
aa(lp2506
I150
ag2480
aag1197
ag1198
ag1199
a(lp2507
I154
ag2480
aag1202
ag1203
ag1204
ag1205
ag1206
ag1207
ag1208
ag1209
ag1210
ag1211
ag1212
a(lp2508
I166
ag2480
aag1216
ag1217
ag1218
a(lp2509
I170
ag2480
aag1221
ag1222
ag1223
ag1224
a(lp2510
I175
ag2480
aag1228
ag1229
ag1230
a(lp2511
I179
ag2480
aag1234
ag1235
ag1236
a(lp2512
I183
ag2480
aag1239
ag1240
ag1241
ag1242
ag1243
ag1244
ag1245
ag1246
ag1247
ag1248
a(lp2513
I195
ag2480
aag1252
ag1253
ag1254
ag1255
a(lp2514
I200
ag2480
aag1259
ag1260
a(lp2515
I203
ag2480
aag1264
ag1265
ag1266
a(lp2516
I207
ag2480
aag1269
ag1270
ag1271
ag1272
ag1273
ag1274
ag1275
ag1276
ag1277
a(lp2517
I220
ag2480
aag1280
ag1281
ag1282
ag1283
a(lp2518
I225
ag2480
aag1286
ag1287
ag1288
ag1289
ag1290
a(lp2519
I231
ag2480
aag1293
ag1294
ag1295
ag1296
ag1297
ag1298
ag1299
ag1300
a(lp2520
I240
ag2480
aag1304
ag1305
ag1306
a(lp2521
I244
ag2480
aag1310
ag1311
ag1312
a(lp2522
I248
ag2480
aag1316
ag1317
ag1318
a(lp2523
I252
ag2480
aag1321
ag1322
ag1323
ag1324
ag1325
a(lp2524
I259
ag2480
aag1329
ag1330
ag1331
ag1332
a(lp2525
I264
ag2480
aag1336
ag1337
a(lp2526
I267
ag2480
aag1341
ag1342
ag1343
a(lp2527
I271
ag2480
aag1346
ag1347
ag1348
ag1349
ag1350
ag1351
a(lp2528
I278
ag2480
aag1354
ag1355
ag1356
ag1357
ag1358
ag1359
ag1360
ag1361
ag1362
ag1363
ag1364
a(lp2529
I290
ag2480
aag1368
ag1369
ag1370
a(lp2530
I294
ag2480
aag1373
ag1374
ag1375
ag1376
ag1377
ag1378
ag1379
a(lp2531
I302
ag2480
aag1382
ag1383
ag1384
ag1385
a(lp2532
I307
ag2480
aag1389
ag1390
a(lp2533
I310
ag2480
aag1393
ag1394
ag1395
ag1396
ag1397
ag1398
ag1399
ag1400
a(lp2534
I319
ag2480
aag1403
ag1404
ag1405
ag1406
ag1407
ag1408
a(lp2535
I326
ag2480
aag1411
ag1412
ag1413
ag1414
ag1415
ag1416
ag1417
ag1418
ag1419
ag1420
ag1421
a(lp2536
I340
ag2480
aag1425
ag1426
ag1427
a(lp2537
I344
ag2480
aag1430
ag1431
ag1432
ag1433
ag1434
ag1435
a(lp2538
I351
ag2480
aag1438
ag1439
ag1440
ag1441
ag1442
ag1443
ag1444
a(lp2539
I359
ag2480
aag1448
ag1449
a(lp2540
I362
ag2480
aag1452
ag1453
ag1454
ag1455
ag1456
ag1457
ag1458
ag1459
a(lp2541
I374
ag2480
aag1462
ag1463
ag1464
ag1465
a(lp2542
I379
ag2480
aag1469
ag1470
ag1471
ag1472
a(lp2543
I384
ag2480
aag1476
ag1477
a(lp2544
I387
ag2480
aag1481
ag1482
ag1483
a(lp2545
I391
ag2480
aag1486
ag1487
ag1488
ag1489
ag1490
a(lp2546
I397
ag2480
aa(lp2547
I399
ag2480
aag1494
ag1495
ag1496
ag1497
a(lp2548
I404
ag2480
aag1500
ag1501
ag1502
ag1503
ag1504
ag1505
ag1506
ag1507
a(lp2549
I413
ag2480
aag1510
ag1511
ag1512
ag1513
ag1514
ag1515
a(lp2550
I420
ag2480
aag1518
ag1519
ag1520
ag1521
ag1522
ag1523
ag1524
ag1525
ag1526
ag1527
ag1528
a(lp2551
I433
ag2480
aag1531
ag1532
ag1533
ag1534
a(lp2552
I438
ag2480
aag1537
ag1538
ag1539
ag1540
a(lp2553
I444
ag2480
aag1544
ag1545
ag1546
a(lp2554
I448
ag2480
aag1550
ag1551
ag1552
ag1553
a(lp2555
I453
ag2480
aag1556
ag1557
ag1558
ag1559
ag1560
ag1561
ag1562
ag1563
ag1564
a(lp2556
I463
ag2480
aag1568
ag1569
ag1570
ag1571
ag1572
a(lp2557
I469
ag2480
aag1575
ag1576
ag1577
ag1578
ag1579
a(lp2558
I476
ag2480
aag1583
ag1584
ag1585
a(lp2559
I480
ag2480
aag1589
ag1590
ag1591
ag1592
a(lp2560
I485
ag2480
aag1595
ag1596
ag1597
ag1598
ag1599
ag1600
ag1601
ag1602
a(lp2561
I494
ag2480
aag1605
ag1606
ag1607
ag1608
ag1609
ag1610
a(lp2562
I501
ag2480
aag1613
ag1614
ag1615
ag1616
ag1617
ag1618
ag1619
ag1620
ag1621
ag1622
ag1623
a(lp2563
I514
ag2480
aag1626
ag1627
ag1628
ag1629
ag1630
a(lp2564
I520
ag2480
aag1634
ag1635
a(lp2565
I526
ag2480
aag1638
ag1639
ag1640
ag1641
a(lp2566
I531
ag2480
aag1645
ag1646
ag1647
ag1648
a(lp2567
I536
ag2480
aag1652
ag1653
ag1654
a(lp2568
I540
ag2480
aag1658
ag1659
ag1660
a(lp2569
I544
ag2480
aag1663
ag1664
ag1665
ag1666
ag1667
ag1668
ag1669
a(lp2570
I552
ag2480
aag1672
ag1673
ag1674
ag1675
ag1676
ag1677
ag1678
ag1679
a(lp2571
I561
ag2480
aag1682
ag1683
ag1684
ag1685
ag1686
ag1687
ag1688
ag1689
a(lp2572
I571
ag2480
aag1692
ag1693
ag1694
ag1695
ag1696
ag1697
ag1698
a(lp2573
I580
ag2480
aag1701
ag1702
ag1703
ag1704
ag1705
ag1706
ag1707
ag1708
a(lp2574
I589
ag2480
aag1712
ag1713
ag1714
a(lp2575
I593
ag2480
aag1717
ag1718
ag1719
ag1720
ag1721
ag1722
a(lp2576
I600
ag2480
aag1725
ag1726
ag1727
ag1729
ag1730
ag1731
ag1732
ag1733
ag1734
ag1735
ag1736
ag1737
a(lp2577
I613
ag2480
aag1740
ag1741
ag1742
ag1743
a(lp2578
I618
ag2480
aag1747
ag1748
a(lp2579
I621
ag2480
aag1751
ag1752
ag1753
ag1754
ag1755
ag1756
ag1757
ag1758
a(lp2580
I630
ag2480
aag1761
ag1762
ag1763
ag1764
ag1765
ag1766
a(lp2581
I637
ag2480
aag1769
ag1770
ag1771
ag1772
ag1773
ag1774
ag1775
ag1776
ag1777
ag1778
ag1779
a(lp2582
I651
ag2480
aag1783
ag1784
ag1785
ag1786
a(lp2583
I656
ag2480
aag1790
ag1791
a(lp2584
I659
ag2480
aag1795
ag1796
ag1797
a(lp2585
I663
ag2480
aag1800
ag1801
ag1802
ag1803
a(lp2586
I668
ag2480
aag1806
ag1807
ag1808
ag1809
a(lp2587
I673
ag2480
aag1813
ag1814
ag1815
ag1816
ag1817
a(lp2588
I682
ag2480
aag1820
ag1821
ag1822
ag1823
a(lp2589
I687
ag2480
aag1827
ag1828
ag1829
a(lp2590
I691
ag2480
aag1833
ag1834
a(lp2591
I694
ag2480
aag1837
ag1838
ag1839
a(lp2592
I698
ag2480
aag1842
a(lp2593
I700
ag2480
aag1845
ag1846
ag1847
a(lp2594
I704
ag2480
aag1851
ag1852
a(lp2595
I707
ag2480
aag1855
ag1856
ag1857
ag1858
ag1859
ag1860
ag1861
ag1862
a(lp2596
I716
ag2480
aag1865
ag1866
ag1867
ag1868
ag1869
ag1870
a(lp2597
I723
ag2480
aag1873
ag1874
ag1875
ag1876
ag1877
ag1878
ag1879
ag1880
ag1881
ag1882
ag1883
a(lp2598
I737
ag2480
aag1887
ag1888
a(lp2599
I740
ag2480
aag1892
ag1893
ag1894
a(lp2600
I744
ag2480
aag1897
ag1898
ag1899
ag1900
a(lp2601
I749
ag2480
aag1904
ag1905
a(lp2602
I752
ag2480
aag1908
ag1909
ag1910
ag1911
ag1912
ag1913
ag1914
ag1915
a(lp2603
I761
ag2480
aag1918
ag1919
ag1920
ag1921
ag1922
ag1923
a(lp2604
I768
ag2480
aag1926
ag1927
ag1928
ag1929
ag1930
ag1931
ag1932
ag1933
ag1934
ag1935
ag1936
a(lp2605
I782
ag2480
aag1940
ag1941
ag1942
a(lp2606
I786
ag2480
aag1946
ag1947
ag1948
a(lp2607
I790
ag2480
aag1952
ag1953
ag1954
a(lp2608
I794
ag2480
aag1957
ag1958
ag1959
ag1960
a(lp2609
I799
ag2480
aag1964
ag1965
ag1966
a(lp2610
I803
ag2480
aag1969
ag1970
ag1971
a(lp2611
I808
ag2480
aag1975
ag1976
ag1977
a(lp2612
I812
ag2480
aag1981
ag1982
ag1983
a(lp2613
I816
ag2480
aag1987
ag1988
ag1989
a(lp2614
I820
ag2480
aag1992
ag1993
ag1994
a(lp2615
I824
ag2480
aag1998
ag1999
ag2000
ag2001
a(lp2616
I829
ag2480
aag2004
ag2005
ag2006
ag2007
ag2008
a(lp2617
I835
ag2480
aag2011
ag2012
ag2013
ag2014
ag2015
ag2016
ag2017
ag2018
ag2019
a(lp2618
I846
ag2480
aag2023
ag2024
ag2025
a(lp2619
I850
ag2480
aag2028
ag2029
ag2030
ag2031
ag2032
ag2033
a(lp2620
I857
ag2480
aag2037
ag2038
ag2039
a(lp2621
I861
ag2480
aag2042
ag2043
ag2044
ag2045
ag2046
ag2047
ag2048
a(lp2622
I869
ag2480
aag2051
ag2052
ag2053
ag2054
ag2055
ag2056
a(lp2623
I876
ag2480
aag2060
ag2061
a(lp2624
I879
ag2480
aag2064
ag2065
ag2066
a(lp2625
I886
ag2480
aag2069
ag2070
ag2071
ag2072
ag2073
a(lp2626
I893
ag2480
aag2076
ag2077
ag2078
ag2079
ag2080
a(lp2627
I899
ag2480
aag2084
ag2085
ag2086
ag2087
ag2088
a(lp2628
I905
ag2480
aag2092
ag2093
ag2094
ag2095
ag2096
a(lp2629
I911
ag2480
aag2100
ag2101
ag2102
a(lp2630
I915
ag2480
aag2105
ag2106
ag2107
ag2108
a(lp2631
I921
ag2480
aag2112
ag2113
a(lp2632
I924
ag2480
aag2117
ag2118
ag2119
a(lp2633
I928
ag2480
aag2122
ag2123
ag2124
ag2125
ag2126
a(lp2634
I934
ag2480
aag2129
ag2130
ag2131
ag2132
ag2133
ag2134
a(lp2635
I941
ag2480
aag2137
ag2138
ag2139
a(lp2636
I945
ag2480
aag2142
ag2143
ag2144
ag2145
ag2146
a(lp2637
I951
ag2480
aag2150
ag2151
ag2152
ag2153
ag2154
a(lp2638
I957
ag2480
aag2158
ag2159
ag2160
ag2161
a(lp2639
I962
ag2480
aag2164
ag2165
ag2166
a(lp2640
I967
ag2480
aag2170
ag2171
ag2172
ag2173
a(lp2641
I972
ag2480
aag2176
ag2177
ag2178
ag2179
ag2180
a(lp2642
I978
ag2480
aag2184
ag2185
a(lp2643
I981
ag2480
aag2189
ag2190
a(lp2644
I985
ag2480
aag2193
ag2194
ag2195
a(lp2645
I989
ag2480
aag2198
a(lp2646
I991
ag2480
aag2201
ag2202
ag2203
ag2204
ag2205
ag2206
ag2207
ag2208
a(lp2647
I1001
ag2480
aag2211
ag2212
ag2213
ag2214
ag2215
a(lp2648
I1007
ag2480
aag2219
ag2220
ag2221
a(lp2649
I1011
ag2480
aag2224
ag2225
ag2226
ag2227
a(lp2650
I1016
ag2480
aag2231
ag2232
ag2233
a(lp2651
I1020
ag2480
aag2236
ag2237
ag2238
ag2239
ag2240
a(lp2652
I1026
ag2480
aag2244
ag2245
ag2246
ag2247
ag2248
a(lp2653
I1032
ag2480
aag2252
ag2253
ag2254
ag2255
a(lp2654
I1037
ag2480
aag2259
ag2260
ag2261
a(lp2655
I1041
ag2480
aag2265
ag2266
a(lp2656
I1044
ag2480
aag2270
ag2271
ag2272
a(lp2657
I1048
ag2480
aag2276
ag2277
ag2278
ag2279
ag2280
a(lp2658
I1054
ag2480
aag2284
ag2285
ag2286
a(lp2659
I1058
ag2480
aag2289
ag2290
ag2291
ag2292
a(lp2660
I1063
ag2480
aag2296
ag2297
a(lp2661
I1066
ag2480
aag2300
ag2301
ag2302
ag2303
ag2304
ag2305
ag2306
a(lp2662
I1074
ag2480
aag2309
a(lp2663
I1076
ag2480
aag2312
ag2313
ag2314
ag2315
ag2316
ag2317
ag2318
ag2319
ag2320
ag2321
a(lp2664
I1087
ag2480
aag2325
ag2326
a(lp2665
I1090
ag2480
aa(lp2666
I1092
ag2480
aag2329
ag2330
ag2331
ag2332
ag2333
ag2334
ag2335
ag2336
a(lp2667
I1101
ag2480
aag2340
ag2341
ag2342
ag2343
a(lp2668
I1106
ag2480
aag2347
ag2348
ag2349
a(lp2669
I1110
ag2480
aag2353
ag2354
a(lp2670
I1113
ag2480
aag2358
ag2359
a(lp2671
I1116
ag2480
aag2362
ag2363
ag2364
a(lp2672
I1120
ag2480
aag2367
ag2368
ag2369
ag2370
a(lp2673
I1126
ag2480
aag2374
ag2375
a(lp2674
I1129
ag2480
aag2379
ag2380
a(lp2675
I1132
ag2480
aag2383
ag2384
ag2385
ag2386
ag2387
a(lp2676
I1138
ag2480
aag2390
a(lp2677
I1140
ag2480
aag2393
ag2394
ag2395
ag2396
ag2397
ag2398
ag2399
ag2400
ag2401
ag2402
ag2403
a(lp2678
I1154
ag2480
aag2407
ag2408
ag2409
ag2410
a(lp2679
I1159
ag2480
aag2414
ag2415
a(lp2680
I1162
ag2480
aag2418
ag2419
ag2420
ag2421
ag2422
ag2423
a(lp2681
I1169
ag2480
aag2427
ag2428
a(lp2682
I1172
ag2480
aag2431
ag2432
ag2433
ag2434
ag2435
ag2436
ag2437
a(lp2683
I1180
ag2480
aag2440
ag2441
ag2442
ag2443
ag2444
ag2445
a(lp2684
I1187
ag2480
aag2448
ag2449
ag2450
ag2451
ag2452
ag2453
ag2454
ag2455
a(lp2685
I1196
ag2480
aag2458
ag2459
ag2460
ag2461
ag2462
ag2463
a(lp2686
I1203
ag2480
aag2466
ag2467
ag2468
ag2469
ag2470
ag2471
ag2472
ag2473
ag2474
ag2475
ag2476
a(lp2687
I1216
ag2480
aa(lp2688
I1217
ag1034
aa(lp2689
I1218
ag1012
aa(lp2690
I1219
ag1037
aa(lp2691
I1220
ag1010
aasS'text'
p2692
S"venetian resort hotel-casino jobs forum get new comments by email my email it's always hard to know what to expect when going in for that interview -- and preparation can make all the difference. what is the interview... host every business has its own style. what is the office environment and culture like at venetian resort hotel-casino? are people dressed in business... host what do you think - will venetian resort hotel-casino grow fast? are they expanding their staff? how does venetian resort hotel-casino stack up... host what are the average starting salaries, bonuses, benefits and travel requirements like at venetian resort hotel-casino? what do you like best about... host how to get a job at venetian resort hotel-casino. do you work at venetian resort hotel-casino? how did you find the job? how did you get that first interview? any advice for someone trying to get... what's great about where you work? if you could change one thing about your job, what would it be? got a question? share the best and worst about what you do and where you work by joining a discussion or . starting your own as an rss feed. or to start a discussion.\xc2\xbb sign in create an account recent venetian resort hotel-casino jobs"
p2693
sS'cleanWordMap'
p2694
(lp2695
g988
ag1004
ag1015
ag1031
ag1039
ag1049
ag1055
ag1061
ag1077
ag1089
ag1102
ag1110
ag1122
ag1141
ag1158
ag1183
ag1200
ag1219
ag1237
ag1267
ag1278
ag1284
ag1291
ag1319
ag1344
ag1352
ag1371
ag1380
ag1391
ag1401
ag1409
ag1428
ag1436
ag1450
ag1460
ag1484
ag1498
ag1508
ag1516
ag1529
ag1535
ag1554
ag1573
ag1593
ag1603
ag1611
ag1624
ag1636
ag1661
ag1670
ag1680
ag1690
ag1699
ag1715
ag1723
ag1738
ag1749
ag1759
ag1767
ag1798
ag1804
ag1818
ag1835
ag1843
ag1853
ag1863
ag1871
ag1895
ag1906
ag1916
ag1924
ag1955
ag1967
ag1990
ag2002
ag2009
ag2026
ag2040
ag2049
ag2062
ag2067
ag2074
ag2103
ag2120
ag2127
ag2135
ag2140
ag2162
ag2174
ag2191
ag2199
ag2209
ag2222
ag2234
ag2287
ag2298
ag2310
ag2327
ag2360
ag2365
ag2381
ag2391
ag2405
ag2416
ag2429
ag2438
ag2446
ag2456
ag2464
asS'lines'
p2696
(lp2697
VVenetian Resort Hotel-casino Jobs Forum\u000a
p2698
aVGet new comments by email\u000a
p2699
aVMy Email\u000a
p2700
aVIt's always hard to know what to expect when going in for that interview -- and preparation can make all the difference. What is the interview...\u000a
p2701
aVHost\u000a
p2702
aVEvery business has its own style. What is the office environment and culture like at Venetian Resort Hotel-Casino? Are people dressed in business...\u000a
p2703
aVHost\u000a
p2704
aVWhat do you think - will Venetian Resort Hotel-Casino grow fast? Are they expanding their staff? How does Venetian Resort Hotel-Casino stack up...\u000a
p2705
aVHost\u000a
p2706
aVWhat are the average starting salaries, bonuses, benefits and travel requirements like at Venetian Resort Hotel-casino? What do you like best about...\u000a
p2707
aVHost\u000a
p2708
aVHow to get a job at Venetian Resort Hotel-casino.\u000a
p2709
aVDo you work at Venetian Resort Hotel-casino? How did you find the job? How did you get that first interview? Any advice for someone trying to get...\u000a
p2710
aVWhat's great about where you work? If you could change one thing about your job, what would it be? Got a question? Share the best and worst about what you do and where you work by joining a discussion or . starting your own\u000a
p2711
aVas an RSS feed.\u000a
p2712
aVor to start a discussion. Sign in create an account\u000a
p2713
aVRecent Venetian Resort Hotel-casino Jobs
p2714
asS'docType'
p2715
S'src'
p2716
sS'newfmap'
p2717
(lp2718
g4
ag8
ag10
ag12
ag17
ag19
ag21
ag28
ag30
ag32
ag35
ag37
ag39
ag41
ag44
ag46
ag48
ag50
ag53
ag55
ag57
ag59
ag62
ag64
ag66
ag68
ag71
ag73
ag75
ag77
ag80
ag82
ag84
ag86
ag89
ag91
ag93
ag95
ag98
ag100
ag102
ag104
ag107
ag109
ag111
ag113
ag116
ag118
ag120
ag122
ag125
ag127
ag129
ag131
ag134
ag136
ag138
ag140
ag143
ag145
ag147
ag149
ag152
ag154
ag156
ag158
ag161
ag163
ag165
ag167
ag170
ag172
ag174
ag176
ag179
ag181
ag183
ag185
ag188
ag190
ag192
ag194
ag197
ag199
ag201
ag203
ag206
ag208
ag210
ag212
ag215
ag217
ag219
ag221
ag224
ag226
ag228
ag230
ag233
ag235
ag237
ag239
ag242
ag244
ag246
ag248
ag251
ag253
ag255
ag257
ag260
ag262
ag264
ag269
ag271
ag273
ag280
ag282
ag284
ag287
ag289
ag291
ag293
ag296
ag298
ag300
ag302
ag305
ag307
ag309
ag311
ag314
ag316
ag318
ag320
ag323
ag325
ag327
ag329
ag332
ag334
ag336
ag341
ag343
ag345
ag352
ag354
ag356
ag359
ag361
ag363
ag365
ag368
ag370
ag372
ag374
ag377
ag379
ag381
ag383
ag386
ag388
ag390
ag392
ag395
ag397
ag399
ag404
ag406
ag408
ag415
ag417
ag419
ag422
ag424
ag426
ag428
ag431
ag433
ag435
ag437
ag440
ag442
ag444
ag446
ag449
ag451
ag453
ag455
ag458
ag460
ag462
ag464
ag467
ag469
ag471
ag473
ag476
ag478
ag480
ag482
ag485
ag487
ag489
ag491
ag494
ag496
ag498
ag500
ag503
ag505
ag507
ag509
ag512
ag514
ag516
ag521
ag523
ag525
ag532
ag534
ag536
ag539
ag541
ag543
ag545
ag548
ag550
ag552
ag554
ag557
ag559
ag561
ag563
ag566
ag568
ag570
ag572
ag575
ag577
ag579
ag581
ag584
ag586
ag588
ag593
ag595
ag597
ag604
ag606
ag608
ag611
ag613
ag615
ag617
ag620
ag622
ag624
ag629
ag631
ag633
ag640
ag642
ag644
ag647
ag649
ag651
ag653
ag656
ag658
ag660
ag662
ag665
ag667
ag669
ag671
ag674
ag676
ag678
ag680
ag683
ag685
ag687
ag689
ag692
ag694
ag696
ag698
ag701
ag703
ag705
ag707
ag710
ag712
ag714
ag716
ag719
ag721
ag723
ag725
ag728
ag730
ag732
ag734
ag737
ag739
ag741
ag743
ag746
ag748
ag750
ag752
ag755
ag757
ag759
ag761
ag764
ag766
ag768
ag770
ag773
ag775
ag777
ag779
ag782
ag784
ag786
ag788
ag791
ag793
ag795
ag797
ag800
ag802
ag804
ag806
ag809
ag811
ag813
ag815
ag818
ag820
ag822
ag824
ag827
ag829
ag831
ag833
ag836
ag838
ag840
ag842
ag845
ag847
ag849
ag851
ag854
ag856
ag858
ag860
ag863
ag865
ag867
ag869
ag872
ag874
ag876
ag878
ag881
ag883
ag885
ag887
ag890
ag892
ag894
ag896
ag899
ag901
ag903
ag905
ag908
ag910
ag912
ag914
ag917
ag919
ag921
ag923
ag926
ag928
ag930
ag932
ag935
ag937
ag939
ag941
ag944
ag946
ag948
ag950
ag953
ag955
ag957
ag959
ag962
ag964
ag966
ag971
ag973
ag975
ag982
ag984
asS'featureMap'
p2719
(lp2720
(lp2721
I0
aI7
ag5
ag6
ag9
ag11
ag13
aa(lp2722
I9
aI14
ag15
ag16
ag18
ag20
ag22
aa(lp2723
I16
aI27
ag24
ag25
ag27
ag29
ag31
aa(lp2724
I29
aI32
ag33
ag34
ag36
ag38
ag40
aa(lp2725
I34
aI38
ag42
ag43
ag45
ag47
ag49
aa(lp2726
I40
aI42
ag51
ag52
ag54
ag56
ag58
aa(lp2727
I44
aI46
ag60
ag61
ag63
ag65
ag67
aa(lp2728
I48
aI55
ag69
ag70
ag72
ag74
ag76
aa(lp2729
I60
aI64
ag78
ag79
ag81
ag83
ag85
aa(lp2730
I69
aI73
ag87
ag88
ag90
ag92
ag94
aa(lp2731
I80
aI85
ag96
ag97
ag99
ag101
ag103
aa(lp2732
I87
aI90
ag105
ag106
ag108
ag110
ag112
aa(lp2733
I95
aI98
ag114
ag115
ag117
ag119
ag121
aa(lp2734
I108
aI113
ag123
ag124
ag126
ag128
ag130
aa(lp2735
I120
aI124
ag132
ag133
ag135
ag137
ag139
aa(lp2736
I138
aI146
ag141
ag142
ag144
ag146
ag148
aa(lp2737
I155
aI165
ag150
ag151
ag153
ag155
ag157
aa(lp2738
I171
aI174
ag159
ag160
ag162
ag164
ag166
aa(lp2739
I184
aI193
ag168
ag169
ag171
ag173
ag175
aa(lp2740
I208
aI216
ag177
ag178
ag180
ag182
ag184
aa(lp2741
I221
aI224
ag186
ag187
ag189
ag191
ag193
aa(lp2742
I226
aI230
ag195
ag196
ag198
ag200
ag202
aa(lp2743
I232
aI239
ag204
ag205
ag207
ag209
ag211
aa(lp2744
I253
aI257
ag213
ag214
ag216
ag218
ag220
aa(lp2745
I272
aI277
ag222
ag223
ag225
ag227
ag229
aa(lp2746
I279
aI289
ag231
ag232
ag234
ag236
ag238
aa(lp2747
I295
aI301
ag240
ag241
ag243
ag245
ag247
aa(lp2748
I303
aI306
ag249
ag250
ag252
ag254
ag256
aa(lp2749
I311
aI318
ag258
ag259
ag261
ag263
ag265
aa(lp2750
I320
aI325
ag267
ag268
ag270
ag272
ag274
aa(lp2751
I327
aI338
ag276
ag277
ag279
ag281
ag283
aa(lp2752
I345
aI350
ag285
ag286
ag288
ag290
ag292
aa(lp2753
I352
aI358
ag294
ag295
ag297
ag299
ag301
aa(lp2754
I363
aI370
ag303
ag304
ag306
ag308
ag310
aa(lp2755
I375
aI378
ag312
ag313
ag315
ag317
ag319
aa(lp2756
I392
aI396
ag321
ag322
ag324
ag326
ag328
aa(lp2757
I405
aI412
ag330
ag331
ag333
ag335
ag337
aa(lp2758
I414
aI419
ag339
ag340
ag342
ag344
ag346
aa(lp2759
I421
aI432
ag348
ag349
ag351
ag353
ag355
aa(lp2760
I434
aI437
ag357
ag358
ag360
ag362
ag364
aa(lp2761
I439
aI442
ag366
ag367
ag369
ag371
ag373
aa(lp2762
I454
aI462
ag375
ag376
ag378
ag380
ag382
aa(lp2763
I470
aI474
ag384
ag385
ag387
ag389
ag391
aa(lp2764
I486
aI493
ag393
ag394
ag396
ag398
ag400
aa(lp2765
I495
aI500
ag402
ag403
ag405
ag407
ag409
aa(lp2766
I502
aI513
ag411
ag412
ag414
ag416
ag418
aa(lp2767
I515
aI519
ag420
ag421
ag423
ag425
ag427
aa(lp2768
I527
aI530
ag429
ag430
ag432
ag434
ag436
aa(lp2769
I545
aI551
ag438
ag439
ag441
ag443
ag445
aa(lp2770
I553
aI560
ag447
ag448
ag450
ag452
ag454
aa(lp2771
I562
aI569
ag456
ag457
ag459
ag461
ag463
aa(lp2772
I572
aI578
ag465
ag466
ag468
ag470
ag472
aa(lp2773
I581
aI588
ag474
ag475
ag477
ag479
ag481
aa(lp2774
I594
aI599
ag483
ag484
ag486
ag488
ag490
aa(lp2775
I601
aI612
ag492
ag493
ag495
ag497
ag499
aa(lp2776
I614
aI617
ag501
ag502
ag504
ag506
ag508
aa(lp2777
I622
aI629
ag510
ag511
ag513
ag515
ag517
aa(lp2778
I631
aI636
ag519
ag520
ag522
ag524
ag526
aa(lp2779
I638
aI649
ag528
ag529
ag531
ag533
ag535
aa(lp2780
I664
aI667
ag537
ag538
ag540
ag542
ag544
aa(lp2781
I669
aI672
ag546
ag547
ag549
ag551
ag553
aa(lp2782
I683
aI686
ag555
ag556
ag558
ag560
ag562
aa(lp2783
I695
aI697
ag564
ag565
ag567
ag569
ag571
aa(lp2784
I701
aI703
ag573
ag574
ag576
ag578
ag580
aa(lp2785
I708
aI715
ag582
ag583
ag585
ag587
ag589
aa(lp2786
I717
aI722
ag591
ag592
ag594
ag596
ag598
aa(lp2787
I724
aI735
ag600
ag601
ag603
ag605
ag607
aa(lp2788
I745
aI748
ag609
ag610
ag612
ag614
ag616
aa(lp2789
I753
aI760
ag618
ag619
ag621
ag623
ag625
aa(lp2790
I762
aI767
ag627
ag628
ag630
ag632
ag634
aa(lp2791
I769
aI780
ag636
ag637
ag639
ag641
ag643
aa(lp2792
I795
aI798
ag645
ag646
ag648
ag650
ag652
aa(lp2793
I804
aI806
ag654
ag655
ag657
ag659
ag661
aa(lp2794
I821
aI823
ag663
ag664
ag666
ag668
ag670
aa(lp2795
I830
aI834
ag672
ag673
ag675
ag677
ag679
aa(lp2796
I836
aI844
ag681
ag682
ag684
ag686
ag688
aa(lp2797
I851
aI856
ag690
ag691
ag693
ag695
ag697
aa(lp2798
I862
aI868
ag699
ag700
ag702
ag704
ag706
aa(lp2799
I870
aI875
ag708
ag709
ag711
ag713
ag715
aa(lp2800
I880
aI882
ag717
ag718
ag720
ag722
ag724
aa(lp2801
I887
aI892
ag726
ag727
ag729
ag731
ag733
aa(lp2802
I894
aI898
ag735
ag736
ag738
ag740
ag742
aa(lp2803
I916
aI919
ag744
ag745
ag747
ag749
ag751
aa(lp2804
I929
aI933
ag753
ag754
ag756
ag758
ag760
aa(lp2805
I935
aI940
ag762
ag763
ag765
ag767
ag769
aa(lp2806
I942
aI944
ag771
ag772
ag774
ag776
ag778
aa(lp2807
I946
aI950
ag780
ag781
ag783
ag785
ag787
aa(lp2808
I963
aI965
ag789
ag790
ag792
ag794
ag796
aa(lp2809
I973
aI977
ag798
ag799
ag801
ag803
ag805
aa(lp2810
I986
aI988
ag807
ag808
ag810
ag812
ag814
aa(lp2811
I992
aI999
ag816
ag817
ag819
ag821
ag823
aa(lp2812
I1002
aI1006
ag825
ag826
ag828
ag830
ag832
aa(lp2813
I1012
aI1015
ag834
ag835
ag837
ag839
ag841
aa(lp2814
I1021
aI1025
ag843
ag844
ag846
ag848
ag850
aa(lp2815
I1059
aI1062
ag852
ag853
ag855
ag857
ag859
aa(lp2816
I1067
aI1073
ag861
ag862
ag864
ag866
ag868
aa(lp2817
I1077
aI1086
ag870
ag871
ag873
ag875
ag877
aa(lp2818
I1093
aI1100
ag879
ag880
ag882
ag884
ag886
aa(lp2819
I1117
aI1119
ag888
ag889
ag891
ag893
ag895
aa(lp2820
I1121
aI1124
ag897
ag898
ag900
ag902
ag904
aa(lp2821
I1133
aI1137
ag906
ag907
ag909
ag911
ag913
aa(lp2822
I1141
aI1153
ag915
ag916
ag918
ag920
ag922
aa(lp2823
I1155
aI1158
ag924
ag925
ag927
ag929
ag931
aa(lp2824
I1163
aI1168
ag933
ag934
ag936
ag938
ag940
aa(lp2825
I1173
aI1179
ag942
ag943
ag945
ag947
ag949
aa(lp2826
I1181
aI1186
ag951
ag952
ag954
ag956
ag958
aa(lp2827
I1188
aI1195
ag960
ag961
ag963
ag965
ag967
aa(lp2828
I1197
aI1202
ag969
ag970
ag972
ag974
ag976
aa(lp2829
I1204
aI1215
ag978
ag979
ag981
ag983
ag985
aasS'characterMap'
p2830
(lp2831
g990
ag992
ag994
ag996
ag997
ag999
ag1001
ag1003
ag2479
ag1006
ag1008
ag1009
ag1011
ag1013
ag1014
ag2481
ag1017
ag1019
ag1020
ag1021
ag1022
a(lp2832
I21
aS'-'
p2833
aag1024
ag1026
ag1027
ag1028
ag1029
ag1030
ag2482
ag1033
ag1035
ag1036
ag1038
ag2483
ag1041
ag1043
ag1044
ag1045
ag1047
ag2484
ag1051
ag1053
ag1054
ag2485
ag1057
ag1058
ag1059
ag2486
ag1063
ag1064
ag1065
ag1066
ag1067
ag1068
ag1069
ag1070
ag2487
ag1074
ag1075
ag2488
ag1079
ag1080
ag1081
ag1082
ag1083
ag2489
ag1087
ag1088
ag2490
ag1091
ag1092
ag1093
ag1094
ag1095
ag2491
ag1099
ag1100
a(lp2834
I77
aS"'"
p2835
aag1101
ag2492
ag1104
ag1105
ag1106
ag1107
ag1108
ag1109
ag2493
ag1112
ag1113
ag1114
ag1115
ag2494
ag1120
ag1121
ag2495
ag1124
ag1126
ag1127
ag1128
ag2496
ag1132
ag1133
ag1134
ag1135
ag2497
ag1139
ag1140
ag2498
ag1143
ag1144
ag1146
ag1148
ag1149
ag1150
ag2499
ag1154
ag1155
ag1156
ag1157
ag2500
ag1160
ag1161
ag1162
ag1163
ag1164
ag2501
ag1168
ag1169
ag2502
ag1173
ag1174
ag1175
ag2503
ag1179
ag1180
ag1181
ag1182
ag2504
ag1185
ag1186
ag1187
ag1188
ag1189
ag1190
ag1191
ag1192
ag1193
ag2505
a(lp2836
I148
ag2833
aa(lp2837
I149
ag2833
aag2506
ag1197
ag1198
ag1199
ag2507
ag1202
ag1203
ag1204
ag1205
ag1206
ag1207
ag1208
ag1209
ag1210
ag1211
ag1212
ag2508
ag1216
ag1217
ag1218
ag2509
ag1221
ag1222
ag1223
ag1224
ag2510
ag1228
ag1229
ag1230
ag2511
ag1234
ag1235
ag1236
ag2512
ag1239
ag1240
ag1241
ag1242
ag1243
ag1244
ag1245
ag1246
ag1247
ag1248
a(lp2838
I194
aS'.'
p2839
aag2513
ag1252
ag1253
ag1254
ag1255
ag2514
ag1259
ag1260
ag2515
ag1264
ag1265
ag1266
ag2516
ag1269
ag1270
ag1271
ag1272
ag1273
ag1274
ag1275
ag1276
ag1277
a(lp2840
I217
ag2839
aa(lp2841
I218
ag2839
aa(lp2842
I219
ag2839
aag2517
ag1280
ag1281
ag1282
ag1283
ag2518
ag1286
ag1287
ag1288
ag1289
ag1290
ag2519
ag1293
ag1294
ag1295
ag1296
ag1297
ag1298
ag1299
ag1300
ag2520
ag1304
ag1305
ag1306
ag2521
ag1310
ag1311
ag1312
ag2522
ag1316
ag1317
ag1318
ag2523
ag1321
ag1322
ag1323
ag1324
ag1325
a(lp2843
I258
ag2839
aag2524
ag1329
ag1330
ag1331
ag1332
ag2525
ag1336
ag1337
ag2526
ag1341
ag1342
ag1343
ag2527
ag1346
ag1347
ag1348
ag1349
ag1350
ag1351
ag2528
ag1354
ag1355
ag1356
ag1357
ag1358
ag1359
ag1360
ag1361
ag1362
ag1363
ag1364
ag2529
ag1368
ag1369
ag1370
ag2530
ag1373
ag1374
ag1375
ag1376
ag1377
ag1378
ag1379
ag2531
ag1382
ag1383
ag1384
ag1385
ag2532
ag1389
ag1390
ag2533
ag1393
ag1394
ag1395
ag1396
ag1397
ag1398
ag1399
ag1400
ag2534
ag1403
ag1404
ag1405
ag1406
ag1407
ag1408
ag2535
ag1411
ag1412
ag1413
ag1414
ag1415
a(lp2844
I332
ag2833
aag1416
ag1417
ag1418
ag1419
ag1420
ag1421
a(lp2845
I339
aS'?'
p2846
aag2536
ag1425
ag1426
ag1427
ag2537
ag1430
ag1431
ag1432
ag1433
ag1434
ag1435
ag2538
ag1438
ag1439
ag1440
ag1441
ag1442
ag1443
ag1444
ag2539
ag1448
ag1449
ag2540
ag1452
ag1453
ag1454
ag1455
ag1456
ag1457
ag1458
ag1459
a(lp2847
I371
ag2839
aa(lp2848
I372
ag2839
aa(lp2849
I373
ag2839
aag2541
ag1462
ag1463
ag1464
ag1465
ag2542
ag1469
ag1470
ag1471
ag1472
ag2543
ag1476
ag1477
ag2544
ag1481
ag1482
ag1483
ag2545
ag1486
ag1487
ag1488
ag1489
ag1490
ag2546
a(lp2850
I398
ag2833
aag2547
ag1494
ag1495
ag1496
ag1497
ag2548
ag1500
ag1501
ag1502
ag1503
ag1504
ag1505
ag1506
ag1507
ag2549
ag1510
ag1511
ag1512
ag1513
ag1514
ag1515
ag2550
ag1518
ag1519
ag1520
ag1521
ag1522
a(lp2851
I426
ag2833
aag1523
ag1524
ag1525
ag1526
ag1527
ag1528
ag2551
ag1531
ag1532
ag1533
ag1534
ag2552
ag1537
ag1538
ag1539
ag1540
a(lp2852
I443
ag2846
aag2553
ag1544
ag1545
ag1546
ag2554
ag1550
ag1551
ag1552
ag1553
ag2555
ag1556
ag1557
ag1558
ag1559
ag1560
ag1561
ag1562
ag1563
ag1564
ag2556
ag1568
ag1569
ag1570
ag1571
ag1572
ag2557
ag1575
ag1576
ag1577
ag1578
ag1579
a(lp2853
I475
ag2846
aag2558
ag1583
ag1584
ag1585
ag2559
ag1589
ag1590
ag1591
ag1592
ag2560
ag1595
ag1596
ag1597
ag1598
ag1599
ag1600
ag1601
ag1602
ag2561
ag1605
ag1606
ag1607
ag1608
ag1609
ag1610
ag2562
ag1613
ag1614
ag1615
ag1616
ag1617
a(lp2854
I507
ag2833
aag1618
ag1619
ag1620
ag1621
ag1622
ag1623
ag2563
ag1626
ag1627
ag1628
ag1629
ag1630
ag2564
ag1634
ag1635
a(lp2855
I523
ag2839
aa(lp2856
I524
ag2839
aa(lp2857
I525
ag2839
aag2565
ag1638
ag1639
ag1640
ag1641
ag2566
ag1645
ag1646
ag1647
ag1648
ag2567
ag1652
ag1653
ag1654
ag2568
ag1658
ag1659
ag1660
ag2569
ag1663
ag1664
ag1665
ag1666
ag1667
ag1668
ag1669
ag2570
ag1672
ag1673
ag1674
ag1675
ag1676
ag1677
ag1678
ag1679
ag2571
ag1682
ag1683
ag1684
ag1685
ag1686
ag1687
ag1688
ag1689
a(lp2858
I570
aS','
p2859
aag2572
ag1692
ag1693
ag1694
ag1695
ag1696
ag1697
ag1698
a(lp2860
I579
ag2859
aag2573
ag1701
ag1702
ag1703
ag1704
ag1705
ag1706
ag1707
ag1708
ag2574
ag1712
ag1713
ag1714
ag2575
ag1717
ag1718
ag1719
ag1720
ag1721
ag1722
ag2576
ag1725
ag1726
ag1727
ag1729
ag1730
ag1731
ag1732
ag1733
ag1734
ag1735
ag1736
ag1737
ag2577
ag1740
ag1741
ag1742
ag1743
ag2578
ag1747
ag1748
ag2579
ag1751
ag1752
ag1753
ag1754
ag1755
ag1756
ag1757
ag1758
ag2580
ag1761
ag1762
ag1763
ag1764
ag1765
ag1766
ag2581
ag1769
ag1770
ag1771
ag1772
ag1773
a(lp2861
I643
ag2833
aag1774
ag1775
ag1776
ag1777
ag1778
ag1779
a(lp2862
I650
ag2846
aag2582
ag1783
ag1784
ag1785
ag1786
ag2583
ag1790
ag1791
ag2584
ag1795
ag1796
ag1797
ag2585
ag1800
ag1801
ag1802
ag1803
ag2586
ag1806
ag1807
ag1808
ag1809
ag2587
ag1813
ag1814
ag1815
ag1816
ag1817
a(lp2863
I679
ag2839
aa(lp2864
I680
ag2839
aa(lp2865
I681
ag2839
aag2588
ag1820
ag1821
ag1822
ag1823
ag2589
ag1827
ag1828
ag1829
ag2590
ag1833
ag1834
ag2591
ag1837
ag1838
ag1839
ag2592
ag1842
ag2593
ag1845
ag1846
ag1847
ag2594
ag1851
ag1852
ag2595
ag1855
ag1856
ag1857
ag1858
ag1859
ag1860
ag1861
ag1862
ag2596
ag1865
ag1866
ag1867
ag1868
ag1869
ag1870
ag2597
ag1873
ag1874
ag1875
ag1876
ag1877
a(lp2866
I729
ag2833
aag1878
ag1879
ag1880
ag1881
ag1882
ag1883
a(lp2867
I736
ag2839
aag2598
ag1887
ag1888
ag2599
ag1892
ag1893
ag1894
ag2600
ag1897
ag1898
ag1899
ag1900
ag2601
ag1904
ag1905
ag2602
ag1908
ag1909
ag1910
ag1911
ag1912
ag1913
ag1914
ag1915
ag2603
ag1918
ag1919
ag1920
ag1921
ag1922
ag1923
ag2604
ag1926
ag1927
ag1928
ag1929
ag1930
a(lp2868
I774
ag2833
aag1931
ag1932
ag1933
ag1934
ag1935
ag1936
a(lp2869
I781
ag2846
aag2605
ag1940
ag1941
ag1942
ag2606
ag1946
ag1947
ag1948
ag2607
ag1952
ag1953
ag1954
ag2608
ag1957
ag1958
ag1959
ag1960
ag2609
ag1964
ag1965
ag1966
ag2610
ag1969
ag1970
ag1971
a(lp2870
I807
ag2846
aag2611
ag1975
ag1976
ag1977
ag2612
ag1981
ag1982
ag1983
ag2613
ag1987
ag1988
ag1989
ag2614
ag1992
ag1993
ag1994
ag2615
ag1998
ag1999
ag2000
ag2001
ag2616
ag2004
ag2005
ag2006
ag2007
ag2008
ag2617
ag2011
ag2012
ag2013
ag2014
ag2015
ag2016
ag2017
ag2018
ag2019
a(lp2871
I845
ag2846
aag2618
ag2023
ag2024
ag2025
ag2619
ag2028
ag2029
ag2030
ag2031
ag2032
ag2033
ag2620
ag2037
ag2038
ag2039
ag2621
ag2042
ag2043
ag2044
ag2045
ag2046
ag2047
ag2048
ag2622
ag2051
ag2052
ag2053
ag2054
ag2055
ag2056
ag2623
ag2060
ag2061
ag2624
ag2064
ag2065
ag2066
a(lp2872
I883
ag2839
aa(lp2873
I884
ag2839
aa(lp2874
I885
ag2839
aag2625
ag2069
ag2070
ag2071
ag2072
a(lp2875
I891
ag2835
aag2073
ag2626
ag2076
ag2077
ag2078
ag2079
ag2080
ag2627
ag2084
ag2085
ag2086
ag2087
ag2088
ag2628
ag2092
ag2093
ag2094
ag2095
ag2096
ag2629
ag2100
ag2101
ag2102
ag2630
ag2105
ag2106
ag2107
ag2108
a(lp2876
I920
ag2846
aag2631
ag2112
ag2113
ag2632
ag2117
ag2118
ag2119
ag2633
ag2122
ag2123
ag2124
ag2125
ag2126
ag2634
ag2129
ag2130
ag2131
ag2132
ag2133
ag2134
ag2635
ag2137
ag2138
ag2139
ag2636
ag2142
ag2143
ag2144
ag2145
ag2146
ag2637
ag2150
ag2151
ag2152
ag2153
ag2154
ag2638
ag2158
ag2159
ag2160
ag2161
ag2639
ag2164
ag2165
ag2166
a(lp2877
I966
ag2859
aag2640
ag2170
ag2171
ag2172
ag2173
ag2641
ag2176
ag2177
ag2178
ag2179
ag2180
ag2642
ag2184
ag2185
ag2643
ag2189
ag2190
a(lp2878
I984
ag2846
aag2644
ag2193
ag2194
ag2195
ag2645
ag2198
ag2646
ag2201
ag2202
ag2203
ag2204
ag2205
ag2206
ag2207
ag2208
a(lp2879
I1000
ag2846
aag2647
ag2211
ag2212
ag2213
ag2214
ag2215
ag2648
ag2219
ag2220
ag2221
ag2649
ag2224
ag2225
ag2226
ag2227
ag2650
ag2231
ag2232
ag2233
ag2651
ag2236
ag2237
ag2238
ag2239
ag2240
ag2652
ag2244
ag2245
ag2246
ag2247
ag2248
ag2653
ag2252
ag2253
ag2254
ag2255
ag2654
ag2259
ag2260
ag2261
ag2655
ag2265
ag2266
ag2656
ag2270
ag2271
ag2272
ag2657
ag2276
ag2277
ag2278
ag2279
ag2280
ag2658
ag2284
ag2285
ag2286
ag2659
ag2289
ag2290
ag2291
ag2292
ag2660
ag2296
ag2297
ag2661
ag2300
ag2301
ag2302
ag2303
ag2304
ag2305
ag2306
ag2662
ag2309
ag2663
ag2312
ag2313
ag2314
ag2315
ag2316
ag2317
ag2318
ag2319
ag2320
ag2321
ag2664
ag2325
ag2326
ag2665
a(lp2880
I1091
ag2839
aag2666
ag2329
ag2330
ag2331
ag2332
ag2333
ag2334
ag2335
ag2336
ag2667
ag2340
ag2341
ag2342
ag2343
ag2668
ag2347
ag2348
ag2349
ag2669
ag2353
ag2354
ag2670
ag2358
ag2359
ag2671
ag2362
ag2363
ag2364
ag2672
ag2367
ag2368
ag2369
ag2370
a(lp2881
I1125
ag2839
aag2673
ag2374
ag2375
ag2674
ag2379
ag2380
ag2675
ag2383
ag2384
ag2385
ag2386
ag2387
ag2676
ag2390
ag2677
ag2393
ag2394
ag2395
ag2396
ag2397
ag2398
ag2399
ag2400
ag2401
ag2402
a(lp2882
I1151
ag2839
aa(lp2883
I1152
aS'\xc2'
p2884
aag2403
ag2678
ag2407
ag2408
ag2409
ag2410
ag2679
ag2414
ag2415
ag2680
ag2418
ag2419
ag2420
ag2421
ag2422
ag2423
ag2681
ag2427
ag2428
ag2682
ag2431
ag2432
ag2433
ag2434
ag2435
ag2436
ag2437
ag2683
ag2440
ag2441
ag2442
ag2443
ag2444
ag2445
ag2684
ag2448
ag2449
ag2450
ag2451
ag2452
ag2453
ag2454
ag2455
ag2685
ag2458
ag2459
ag2460
ag2461
ag2462
ag2463
ag2686
ag2466
ag2467
ag2468
ag2469
ag2470
a(lp2885
I1209
ag2833
aag2471
ag2472
ag2473
ag2474
ag2475
ag2476
ag2687
ag2688
ag2689
ag2690
ag2691
asS'docName'
p2886
S'source-document00459.txt'
p2887
sb.