(iModel.Document
Document
p0
(dp1
S'fmap'
p2
(lp3
sS'wordMap'
p4
(lp5
sS'cleanCharacterMap'
p6
(lp7
(lp8
I1
aS' '
p9
aa(lp10
I2
aS'r'
p11
aa(lp12
I3
aS'o'
p13
aa(lp14
I4
ag13
aa(lp15
I5
aS'm'
p16
aa(lp17
I6
ag9
aa(lp18
I7
aS's'
p19
aa(lp20
I8
aS'e'
p21
aa(lp22
I9
ag11
aa(lp23
I10
aS'v'
p24
aa(lp25
I11
aS'i'
p26
aa(lp27
I12
aS'c'
p28
aa(lp29
I13
ag21
aa(lp30
I14
ag9
aa(lp31
I15
aS'p'
p32
aa(lp33
I16
ag11
aa(lp34
I17
ag13
aa(lp35
I18
ag24
aa(lp36
I19
ag26
aa(lp37
I20
aS'd'
p38
aa(lp39
I21
ag21
aa(lp40
I22
ag38
aa(lp41
I23
ag9
aa(lp42
I24
aS'b'
p43
aa(lp44
I25
aS'y'
p45
aa(lp46
I26
ag9
aa(lp47
I27
aS'u'
p48
aa(lp49
I28
aS'n'
p50
aa(lp51
I29
ag13
aa(lp52
I30
ag9
aa(lp53
I31
ag28
aa(lp54
I32
aS'h'
p55
aa(lp56
I33
ag26
aa(lp57
I34
ag28
aa(lp58
I35
aS'a'
p59
aa(lp60
I36
aS'g'
p61
aa(lp62
I37
ag13
aa(lp63
I38
ag9
aa(lp64
I39
ag61
aa(lp65
I40
ag11
aa(lp66
I41
ag26
aa(lp67
I42
aS'l'
p68
aa(lp69
I43
ag68
aa(lp70
I44
ag9
aa(lp71
I46
ag9
aa(lp72
I47
ag28
aa(lp73
I48
ag55
aa(lp74
I49
ag26
aa(lp75
I50
ag68
aa(lp76
I51
ag38
aa(lp77
I52
ag11
aa(lp78
I53
ag21
aa(lp79
I54
ag50
aa(lp80
I55
ag9
aa(lp81
I56
aS'1'
p82
aa(lp83
I57
aS'7'
p84
aa(lp85
I58
ag45
aa(lp86
I59
ag11
aa(lp87
I60
ag19
aa(lp88
I61
ag9
aa(lp89
I62
ag59
aa(lp90
I63
ag50
aa(lp91
I64
ag38
aa(lp92
I65
ag9
aa(lp93
I66
ag48
aa(lp94
I67
ag50
aa(lp95
I68
ag38
aa(lp96
I69
ag21
aa(lp97
I70
ag11
aa(lp98
I71
ag9
aa(lp99
I72
ag19
aa(lp100
I73
aS't'
p101
aa(lp102
I74
ag59
aa(lp103
I75
ag45
aa(lp104
I76
ag9
aa(lp105
I77
aS'f'
p106
aa(lp107
I78
ag11
aa(lp108
I79
ag21
aa(lp109
I80
ag21
aa(lp110
I81
ag9
aa(lp111
I82
ag19
aa(lp112
I83
ag32
aa(lp113
I84
ag21
aa(lp114
I85
ag28
aa(lp115
I86
ag26
aa(lp116
I87
ag59
aa(lp117
I88
ag68
aa(lp118
I89
ag9
aa(lp119
I90
ag50
aa(lp120
I91
ag21
aa(lp121
I92
ag21
aa(lp122
I93
ag38
aa(lp123
I94
ag9
aa(lp124
I95
ag11
aa(lp125
I96
ag13
aa(lp126
I97
ag13
aa(lp127
I98
ag16
aa(lp128
I99
ag19
aa(lp129
I100
ag9
aa(lp130
I102
ag9
aa(lp131
I103
ag101
aa(lp132
I104
ag38
aa(lp133
I105
ag38
aa(lp134
I106
ag9
aa(lp135
I108
ag101
aa(lp136
I109
ag101
aa(lp137
I110
ag45
aa(lp138
I112
ag9
aa(lp139
I113
ag32
aa(lp140
I114
ag55
aa(lp141
I115
ag13
aa(lp142
I116
ag50
aa(lp143
I117
ag21
aa(lp144
I118
ag9
aa(lp145
I119
ag59
aa(lp146
I120
ag24
aa(lp147
I121
ag59
aa(lp148
I122
ag26
aa(lp149
I123
ag68
aa(lp150
I124
ag59
aa(lp151
I125
ag43
aa(lp152
I126
ag68
aa(lp153
I127
ag21
aa(lp154
I128
ag9
aa(lp155
I129
ag13
aa(lp156
I130
ag50
aa(lp157
I131
ag9
aa(lp158
I132
ag11
aa(lp159
I133
ag21
aa(lp160
I134
aS'q'
p161
aa(lp162
I135
ag48
aa(lp163
I136
ag21
aa(lp164
I137
ag19
aa(lp165
I138
ag101
aa(lp166
I139
ag9
aa(lp167
I141
ag9
aa(lp168
I142
ag19
aa(lp169
I143
ag21
aa(lp170
I144
ag11
aa(lp171
I145
ag24
aa(lp172
I146
ag26
aa(lp173
I147
ag28
aa(lp174
I148
ag21
aa(lp175
I149
ag9
aa(lp176
I150
ag59
aa(lp177
I151
ag50
aa(lp178
I152
ag26
aa(lp179
I153
ag16
aa(lp180
I154
ag59
aa(lp181
I155
ag68
aa(lp182
I156
ag19
aa(lp183
I157
ag9
aa(lp184
I158
ag59
aa(lp185
I159
ag68
aa(lp186
I160
ag68
aa(lp187
I161
ag13
aa(lp188
I162
aS'w'
p189
aa(lp190
I163
ag21
aa(lp191
I164
ag38
aa(lp192
I165
ag9
aa(lp193
I166
ag106
aa(lp194
I167
ag13
aa(lp195
I168
ag11
aa(lp196
I169
ag9
aa(lp197
I170
ag32
aa(lp198
I171
ag21
aa(lp199
I172
ag11
aa(lp200
I173
ag19
aa(lp201
I174
ag13
aa(lp202
I175
ag50
aa(lp203
I176
ag19
aa(lp204
I177
ag9
aa(lp205
I178
ag189
aa(lp206
I179
ag26
aa(lp207
I180
ag101
aa(lp208
I181
ag55
aa(lp209
I182
ag9
aa(lp210
I183
ag38
aa(lp211
I184
ag26
aa(lp212
I185
ag19
aa(lp213
I186
ag59
aa(lp214
I187
ag43
aa(lp215
I188
ag26
aa(lp216
I189
ag68
aa(lp217
I190
ag26
aa(lp218
I191
ag101
aa(lp219
I192
ag26
aa(lp220
I193
ag21
aa(lp221
I194
ag19
aa(lp222
I195
ag9
aa(lp223
I197
ag9
aa(lp224
I198
ag28
aa(lp225
I199
ag13
aa(lp226
I200
ag48
aa(lp227
I201
ag11
aa(lp228
I202
ag101
aa(lp229
I203
ag21
aa(lp230
I204
ag13
aa(lp231
I205
ag48
aa(lp232
I206
ag19
aa(lp233
I207
ag9
aa(lp234
I208
ag19
aa(lp235
I209
ag101
aa(lp236
I210
ag59
aa(lp237
I211
ag106
aa(lp238
I212
ag106
aa(lp239
I213
ag9
aa(lp240
I214
ag106
aa(lp241
I215
ag13
aa(lp242
I216
ag11
aa(lp243
I217
ag9
aa(lp244
I218
ag11
aa(lp245
I219
ag13
aa(lp246
I220
ag13
aa(lp247
I221
ag16
aa(lp248
I222
ag9
aa(lp249
I223
ag106
aa(lp250
I224
ag21
aa(lp251
I225
ag59
aa(lp252
I226
ag101
aa(lp253
I227
ag48
aa(lp254
I228
ag11
aa(lp255
I229
ag21
aa(lp256
I230
ag19
aa(lp257
I231
ag9
aa(lp258
I232
ag19
aa(lp259
I233
ag21
aa(lp260
I234
ag21
aa(lp261
I235
ag9
aa(lp262
I236
ag13
aa(lp263
I237
ag48
aa(lp264
I238
ag11
aa(lp265
I239
ag9
aa(lp266
I240
ag59
aa(lp267
I241
ag28
aa(lp268
I242
ag28
aa(lp269
I243
ag13
aa(lp270
I244
ag16
aa(lp271
I245
ag16
aa(lp272
I246
ag13
aa(lp273
I247
ag38
aa(lp274
I248
ag59
aa(lp275
I249
ag101
aa(lp276
I250
ag26
aa(lp277
I251
ag13
aa(lp278
I252
ag50
aa(lp279
I253
ag19
aa(lp280
I254
ag9
aa(lp281
I255
ag32
aa(lp282
I256
ag59
aa(lp283
I257
ag61
aa(lp284
I258
ag21
aa(lp285
I259
ag9
aa(lp286
I260
ag59
aa(lp287
I261
ag68
aa(lp288
I262
ag68
aa(lp289
I263
ag9
aa(lp290
I264
ag61
aa(lp291
I265
ag48
aa(lp292
I266
ag21
aa(lp293
I267
ag19
aa(lp294
I268
ag101
aa(lp295
I269
ag19
aa(lp296
I270
ag9
aa(lp297
I271
ag189
aa(lp298
I272
ag26
aa(lp299
I273
ag68
aa(lp300
I274
ag68
aa(lp301
I275
ag9
aa(lp302
I276
ag21
aa(lp303
I277
ag50
aa(lp304
I278
aS'j'
p305
aa(lp306
I279
ag13
aa(lp307
I280
ag45
aa(lp308
I281
ag9
aa(lp309
I282
ag59
aa(lp310
I283
ag9
aa(lp311
I284
ag28
aa(lp312
I285
ag13
aa(lp313
I286
ag16
aa(lp314
I287
ag32
aa(lp315
I288
ag68
aa(lp316
I289
ag26
aa(lp317
I290
ag16
aa(lp318
I291
ag21
aa(lp319
I292
ag50
aa(lp320
I293
ag101
aa(lp321
I294
ag59
aa(lp322
I295
ag11
aa(lp323
I296
ag45
aa(lp324
I297
ag9
aa(lp325
I298
ag28
aa(lp326
I299
ag13
aa(lp327
I300
ag50
aa(lp328
I301
ag101
aa(lp329
I302
ag26
aa(lp330
I303
ag50
aa(lp331
I304
ag21
aa(lp332
I305
ag50
aa(lp333
I306
ag101
aa(lp334
I307
ag59
aa(lp335
I308
ag68
aa(lp336
I309
ag9
aa(lp337
I310
ag43
aa(lp338
I311
ag11
aa(lp339
I312
ag21
aa(lp340
I313
ag59
aa(lp341
I314
aS'k'
p342
aa(lp343
I315
ag106
aa(lp344
I316
ag59
aa(lp345
I317
ag19
aa(lp346
I318
ag101
aa(lp347
I319
ag9
aa(lp348
I320
ag59
aa(lp349
I321
ag50
aa(lp350
I322
ag38
aa(lp351
I323
ag9
aa(lp352
I324
ag59
aa(lp353
I325
ag28
aa(lp354
I326
ag28
aa(lp355
I327
ag21
aa(lp356
I328
ag19
aa(lp357
I329
ag19
aa(lp358
I330
ag9
aa(lp359
I331
ag101
aa(lp360
I332
ag13
aa(lp361
I333
ag9
aa(lp362
I334
ag101
aa(lp363
I335
ag55
aa(lp364
I336
ag21
aa(lp365
I337
ag9
aa(lp366
I338
ag55
aa(lp367
I339
ag13
aa(lp368
I340
ag101
aa(lp369
I341
ag21
aa(lp370
I342
ag68
aa(lp371
I344
ag19
aa(lp372
I345
ag9
aa(lp373
I346
ag55
aa(lp374
I347
ag21
aa(lp375
I348
ag59
aa(lp376
I349
ag101
aa(lp377
I350
ag21
aa(lp378
I351
ag38
aa(lp379
I352
ag9
aa(lp380
I353
ag13
aa(lp381
I354
ag48
aa(lp382
I355
ag101
aa(lp383
I356
ag38
aa(lp384
I357
ag13
aa(lp385
I358
ag13
aa(lp386
I359
ag11
aa(lp387
I360
ag9
aa(lp388
I361
ag32
aa(lp389
I362
ag13
aa(lp390
I363
ag13
aa(lp391
I364
ag68
aa(lp392
I366
ag9
aa(lp393
I367
ag106
aa(lp394
I368
ag11
aa(lp395
I369
ag21
aa(lp396
I370
ag21
aa(lp397
I371
ag9
aa(lp398
I372
ag48
aa(lp399
I373
ag19
aa(lp400
I374
ag59
aa(lp401
I375
ag9
aa(lp402
I376
ag101
aa(lp403
I377
ag13
aa(lp404
I378
ag38
aa(lp405
I379
ag59
aa(lp406
I380
ag45
aa(lp407
I381
ag9
aa(lp408
I382
ag50
aa(lp409
I383
ag21
aa(lp410
I384
ag189
aa(lp411
I385
ag19
aa(lp412
I386
ag32
aa(lp413
I387
ag59
aa(lp414
I388
ag32
aa(lp415
I389
ag21
aa(lp416
I390
ag11
aa(lp417
I391
ag19
aa(lp418
I392
ag9
aa(lp419
I393
ag59
aa(lp420
I394
ag11
aa(lp421
I395
ag21
aa(lp422
I396
ag9
aa(lp423
I397
ag59
aa(lp424
I398
ag24
aa(lp425
I399
ag59
aa(lp426
I400
ag26
aa(lp427
I401
ag68
aa(lp428
I402
ag59
aa(lp429
I403
ag43
aa(lp430
I404
ag68
aa(lp431
I405
ag21
aa(lp432
I406
ag9
aa(lp433
I407
ag21
aa(lp434
I408
ag59
aa(lp435
I409
ag28
aa(lp436
I410
ag55
aa(lp437
I411
ag9
aa(lp438
I412
ag16
aa(lp439
I413
ag13
aa(lp440
I414
ag11
aa(lp441
I415
ag50
aa(lp442
I416
ag26
aa(lp443
I417
ag50
aa(lp444
I418
ag61
aa(lp445
I419
ag9
aa(lp446
I420
ag26
aa(lp447
I421
ag50
aa(lp448
I422
ag9
aa(lp449
I423
ag101
aa(lp450
I424
ag55
aa(lp451
I425
ag21
aa(lp452
I426
ag9
aa(lp453
I427
ag55
aa(lp454
I428
ag13
aa(lp455
I429
ag101
aa(lp456
I430
ag21
aa(lp457
I431
ag68
aa(lp458
I432
ag9
aa(lp459
I433
ag68
aa(lp460
I434
ag13
aa(lp461
I435
ag43
aa(lp462
I436
ag43
aa(lp463
I437
ag45
aa(lp464
I439
ag9
aa(lp465
I440
ag59
aa(lp466
I441
ag68
aa(lp467
I442
ag68
aa(lp468
I443
ag9
aa(lp469
I444
ag11
aa(lp470
I445
ag13
aa(lp471
I446
ag13
aa(lp472
I447
ag16
aa(lp473
I448
ag19
aa(lp474
I449
ag9
aa(lp475
I450
ag106
aa(lp476
I451
ag21
aa(lp477
I452
ag59
aa(lp478
I453
ag101
aa(lp479
I454
ag48
aa(lp480
I455
ag11
aa(lp481
I456
ag21
aa(lp482
I457
ag9
aa(lp483
I458
ag106
aa(lp484
I459
ag11
aa(lp485
I460
ag21
aa(lp486
I461
ag21
aa(lp487
I462
ag9
aa(lp488
I463
ag55
aa(lp489
I464
ag26
aa(lp490
I465
ag61
aa(lp491
I466
ag55
aa(lp492
I468
ag19
aa(lp493
I469
ag32
aa(lp494
I470
ag21
aa(lp495
I471
ag21
aa(lp496
I472
ag38
aa(lp497
I473
ag9
aa(lp498
I474
ag26
aa(lp499
I475
ag50
aa(lp500
I476
ag101
aa(lp501
I477
ag21
aa(lp502
I478
ag11
aa(lp503
I479
ag50
aa(lp504
I480
ag21
aa(lp505
I481
ag101
aa(lp506
I482
ag9
aa(lp507
I483
ag59
aa(lp508
I484
ag28
aa(lp509
I485
ag28
aa(lp510
I486
ag21
aa(lp511
I487
ag19
aa(lp512
I488
ag19
aa(lp513
I489
ag9
aa(lp514
I490
ag59
aa(lp515
I491
ag50
aa(lp516
I492
ag38
aa(lp517
I493
ag9
aa(lp518
I494
ag59
aa(lp519
I495
ag9
aa(lp520
I496
ag55
aa(lp521
I497
ag13
aa(lp522
I498
ag19
aa(lp523
I499
ag101
aa(lp524
I500
ag9
aa(lp525
I501
ag13
aa(lp526
I502
ag106
aa(lp527
I503
ag9
aa(lp528
I504
ag13
aa(lp529
I505
ag101
aa(lp530
I506
ag55
aa(lp531
I507
ag21
aa(lp532
I508
ag11
aa(lp533
I509
ag9
aa(lp534
I510
ag59
aa(lp535
I511
ag16
aa(lp536
I512
ag21
aa(lp537
I513
ag50
aa(lp538
I514
ag26
aa(lp539
I515
ag101
aa(lp540
I516
ag26
aa(lp541
I517
ag21
aa(lp542
I518
ag19
aa(lp543
I519
ag9
aa(lp544
I520
ag26
aa(lp545
I521
ag50
aa(lp546
I522
ag28
aa(lp547
I523
ag68
aa(lp548
I524
ag48
aa(lp549
I525
ag38
aa(lp550
I526
ag26
aa(lp551
I527
ag50
aa(lp552
I528
ag61
aa(lp553
I529
ag9
aa(lp554
I530
ag59
aa(lp555
I531
ag9
aa(lp556
I532
ag28
aa(lp557
I533
ag13
aa(lp558
I534
ag106
aa(lp559
I535
ag106
aa(lp560
I536
ag21
aa(lp561
I537
ag21
aa(lp562
I538
ag9
aa(lp563
I539
ag16
aa(lp564
I540
ag59
aa(lp565
I541
ag342
aa(lp566
I542
ag21
aa(lp567
I543
ag11
aa(lp568
I545
ag9
aa(lp569
I546
ag55
aa(lp570
I547
ag59
aa(lp571
I548
ag26
aa(lp572
I549
ag11
aa(lp573
I550
ag38
aa(lp574
I551
ag11
aa(lp575
I552
ag45
aa(lp576
I553
ag21
aa(lp577
I554
ag11
aa(lp578
I556
ag9
aa(lp579
I557
ag59
aa(lp580
I558
ag50
aa(lp581
I559
ag38
aa(lp582
I560
ag9
aa(lp583
I561
ag26
aa(lp584
I562
ag11
aa(lp585
I563
ag13
aa(lp586
I564
ag50
aa(lp587
I565
ag9
aa(lp588
I566
ag189
aa(lp589
I568
ag26
aa(lp590
I569
ag11
aa(lp591
I570
ag13
aa(lp592
I571
ag50
aa(lp593
I572
ag26
aa(lp594
I573
ag50
aa(lp595
I574
ag61
aa(lp596
I575
ag9
aa(lp597
I576
ag43
aa(lp598
I577
ag13
aa(lp599
I578
ag59
aa(lp600
I579
ag11
aa(lp601
I580
ag38
aa(lp602
I582
ag9
aa(lp603
I583
ag28
aa(lp604
I584
ag55
aa(lp605
I585
ag21
aa(lp606
I586
ag28
aa(lp607
I587
ag342
aa(lp608
I588
ag9
aa(lp609
I589
ag26
aa(lp610
I590
ag50
aa(lp611
I591
ag101
aa(lp612
I592
ag13
aa(lp613
I593
ag9
aa(lp614
I594
ag101
aa(lp615
I595
ag55
aa(lp616
I596
ag21
aa(lp617
I597
ag9
aa(lp618
I598
ag11
aa(lp619
I599
ag59
aa(lp620
I600
ag16
aa(lp621
I601
ag59
aa(lp622
I602
ag38
aa(lp623
I603
ag59
aa(lp624
I604
ag9
aa(lp625
I605
ag28
aa(lp626
I606
ag13
aa(lp627
I607
ag50
aa(lp628
I608
ag24
aa(lp629
I609
ag21
aa(lp630
I610
ag50
aa(lp631
I611
ag101
aa(lp632
I612
ag26
aa(lp633
I613
ag13
aa(lp634
I614
ag50
aa(lp635
I615
ag9
aa(lp636
I616
ag28
aa(lp637
I617
ag21
aa(lp638
I618
ag50
aa(lp639
I619
ag101
aa(lp640
I620
ag11
aa(lp641
I621
ag21
aa(lp642
I622
ag9
aa(lp643
I623
ag26
aa(lp644
I625
ag38
aa(lp645
I626
ag11
aa(lp646
I627
ag26
aa(lp647
I628
ag24
aa(lp648
I629
ag21
aa(lp649
I630
ag9
aa(lp650
I631
ag13
aa(lp651
I632
ag11
aa(lp652
I633
ag68
aa(lp653
I634
ag59
aa(lp654
I635
ag50
aa(lp655
I636
ag38
aa(lp656
I637
ag13
aa(lp657
I638
ag9
aa(lp658
I639
ag101
aa(lp659
I640
ag13
aa(lp660
I641
ag38
aa(lp661
I642
ag59
aa(lp662
I643
ag45
aa(lp663
I645
ag9
aa(lp664
I646
ag50
aa(lp665
I647
ag21
aa(lp666
I648
ag59
aa(lp667
I649
ag11
aa(lp668
I650
ag43
aa(lp669
I651
ag45
aa(lp670
I652
ag9
aa(lp671
I653
ag11
aa(lp672
I654
ag21
aa(lp673
I655
ag19
aa(lp674
I656
ag101
aa(lp675
I657
ag59
aa(lp676
I658
ag48
aa(lp677
I659
ag11
aa(lp678
I660
ag59
aa(lp679
I661
ag50
aa(lp680
I662
ag101
aa(lp681
I663
ag19
aa(lp682
I664
ag9
aa(lp683
I666
ag59
aa(lp684
I667
ag68
aa(lp685
I668
ag68
aa(lp686
I669
ag9
aa(lp687
I670
ag189
aa(lp688
I671
ag26
aa(lp689
I672
ag101
aa(lp690
I673
ag55
aa(lp691
I674
ag26
aa(lp692
I675
ag50
aa(lp693
I676
ag9
aa(lp694
I677
ag13
aa(lp695
I678
ag50
aa(lp696
I679
ag21
aa(lp697
I680
ag9
aa(lp698
I681
ag16
aa(lp699
I682
ag26
aa(lp700
I683
ag68
aa(lp701
I684
ag21
aa(lp702
I687
ag9
aa(lp703
I688
ag28
aa(lp704
I689
ag11
aa(lp705
I690
ag59
aa(lp706
I691
ag43
aa(lp707
I692
ag9
aa(lp708
I693
ag55
aa(lp709
I694
ag13
aa(lp710
I695
ag48
aa(lp711
I696
ag19
aa(lp712
I697
ag21
aa(lp713
I698
ag9
aa(lp714
I700
ag19
aa(lp715
I701
ag21
aa(lp716
I702
ag59
aa(lp717
I703
ag9
aa(lp718
I704
ag106
aa(lp719
I705
ag13
aa(lp720
I706
ag13
aa(lp721
I707
ag38
aasS'text'
p722
S'" room service provided by uno chicago grill " children 17yrs and under stay free special need rooms " tdd (tty) phone available on request " service animals allowed for persons with disabilities " courteous staff for room features see our accommodations page all guests will enjoy a complimentary continental breakfast and access to the hotel\'s heated outdoor pool. free usa today newspapers are available each morning in the hotel lobby. all rooms feature free high-speed internet access and a host of other amenities including a coffee maker, hairdryer, and iron w/ironing board. check into the ramada convention centre i-drive orlando today! nearby restaurants (all within one mile): crab house (sea food)"'
p723
sS'cleanWordMap'
p724
(lp725
sS'lines'
p726
(lp727
V" Room Service Provided by UNO Chicago Grill\u000a
p728
aV" Children 17yrs and under stay free\u000a
p729
aVSpecial need rooms\u000a
p730
aV" TDD (TTY) Phone available on request\u000a
p731
aV" Service animals allowed for persons with disabilities\u000a
p732
aV" Courteous Staff\u000a
p733
aVFor Room Features see our Accommodations Page\u000a
p734
aVAll guests will enjoy a complimentary continental breakfast and access to the hotel's heated outdoor pool. Free USA Today newspapers are available each morning in the hotel lobby.\u000a
p735
aVAll rooms feature free high-speed Internet access and a host of other amenities including a coffee maker, hairdryer, and iron w/ironing board. Check into the Ramada Convention Centre I-drive Orlando today!\u000a
p736
aVNearby Restaurants (All within one mile):\u000a
p737
aVCrab House (Sea Food)"
p738
asS'docType'
p739
S'src'
p740
sS'newfmap'
p741
(lp742
sS'featureMap'
p743
(lp744
sS'characterMap'
p745
(lp746
(lp747
I0
aS'"'
p748
aag8
ag10
ag12
ag14
ag15
ag17
ag18
ag20
ag22
ag23
ag25
ag27
ag29
ag30
ag31
ag33
ag34
ag35
ag36
ag37
ag39
ag40
ag41
ag42
ag44
ag46
ag47
ag49
ag51
ag52
ag53
ag54
ag56
ag57
ag58
ag60
ag62
ag63
ag64
ag65
ag66
ag67
ag69
ag70
a(lp749
I45
ag748
aag71
ag72
ag73
ag74
ag75
ag76
ag77
ag78
ag79
ag80
ag81
ag83
ag85
ag86
ag87
ag88
ag89
ag90
ag91
ag92
ag93
ag94
ag95
ag96
ag97
ag98
ag99
ag100
ag102
ag103
ag104
ag105
ag107
ag108
ag109
ag110
ag111
ag112
ag113
ag114
ag115
ag116
ag117
ag118
ag119
ag120
ag121
ag122
ag123
ag124
ag125
ag126
ag127
ag128
ag129
a(lp750
I101
ag748
aag130
ag131
ag132
ag133
ag134
a(lp751
I107
aS'('
p752
aag135
ag136
ag137
a(lp753
I111
aS')'
p754
aag138
ag139
ag140
ag141
ag142
ag143
ag144
ag145
ag146
ag147
ag148
ag149
ag150
ag151
ag152
ag153
ag154
ag155
ag156
ag157
ag158
ag159
ag160
ag162
ag163
ag164
ag165
ag166
a(lp755
I140
ag748
aag167
ag168
ag169
ag170
ag171
ag172
ag173
ag174
ag175
ag176
ag177
ag178
ag179
ag180
ag181
ag182
ag183
ag184
ag185
ag186
ag187
ag188
ag190
ag191
ag192
ag193
ag194
ag195
ag196
ag197
ag198
ag199
ag200
ag201
ag202
ag203
ag204
ag205
ag206
ag207
ag208
ag209
ag210
ag211
ag212
ag213
ag214
ag215
ag216
ag217
ag218
ag219
ag220
ag221
ag222
a(lp756
I196
ag748
aag223
ag224
ag225
ag226
ag227
ag228
ag229
ag230
ag231
ag232
ag233
ag234
ag235
ag236
ag237
ag238
ag239
ag240
ag241
ag242
ag243
ag244
ag245
ag246
ag247
ag248
ag249
ag250
ag251
ag252
ag253
ag254
ag255
ag256
ag257
ag258
ag259
ag260
ag261
ag262
ag263
ag264
ag265
ag266
ag267
ag268
ag269
ag270
ag271
ag272
ag273
ag274
ag275
ag276
ag277
ag278
ag279
ag280
ag281
ag282
ag283
ag284
ag285
ag286
ag287
ag288
ag289
ag290
ag291
ag292
ag293
ag294
ag295
ag296
ag297
ag298
ag299
ag300
ag301
ag302
ag303
ag304
ag306
ag307
ag308
ag309
ag310
ag311
ag312
ag313
ag314
ag315
ag316
ag317
ag318
ag319
ag320
ag321
ag322
ag323
ag324
ag325
ag326
ag327
ag328
ag329
ag330
ag331
ag332
ag333
ag334
ag335
ag336
ag337
ag338
ag339
ag340
ag341
ag343
ag344
ag345
ag346
ag347
ag348
ag349
ag350
ag351
ag352
ag353
ag354
ag355
ag356
ag357
ag358
ag359
ag360
ag361
ag362
ag363
ag364
ag365
ag366
ag367
ag368
ag369
ag370
a(lp757
I343
aS"'"
p758
aag371
ag372
ag373
ag374
ag375
ag376
ag377
ag378
ag379
ag380
ag381
ag382
ag383
ag384
ag385
ag386
ag387
ag388
ag389
ag390
ag391
a(lp759
I365
aS'.'
p760
aag392
ag393
ag394
ag395
ag396
ag397
ag398
ag399
ag400
ag401
ag402
ag403
ag404
ag405
ag406
ag407
ag408
ag409
ag410
ag411
ag412
ag413
ag414
ag415
ag416
ag417
ag418
ag419
ag420
ag421
ag422
ag423
ag424
ag425
ag426
ag427
ag428
ag429
ag430
ag431
ag432
ag433
ag434
ag435
ag436
ag437
ag438
ag439
ag440
ag441
ag442
ag443
ag444
ag445
ag446
ag447
ag448
ag449
ag450
ag451
ag452
ag453
ag454
ag455
ag456
ag457
ag458
ag459
ag460
ag461
ag462
ag463
a(lp761
I438
ag760
aag464
ag465
ag466
ag467
ag468
ag469
ag470
ag471
ag472
ag473
ag474
ag475
ag476
ag477
ag478
ag479
ag480
ag481
ag482
ag483
ag484
ag485
ag486
ag487
ag488
ag489
ag490
ag491
a(lp762
I467
aS'-'
p763
aag492
ag493
ag494
ag495
ag496
ag497
ag498
ag499
ag500
ag501
ag502
ag503
ag504
ag505
ag506
ag507
ag508
ag509
ag510
ag511
ag512
ag513
ag514
ag515
ag516
ag517
ag518
ag519
ag520
ag521
ag522
ag523
ag524
ag525
ag526
ag527
ag528
ag529
ag530
ag531
ag532
ag533
ag534
ag535
ag536
ag537
ag538
ag539
ag540
ag541
ag542
ag543
ag544
ag545
ag546
ag547
ag548
ag549
ag550
ag551
ag552
ag553
ag554
ag555
ag556
ag557
ag558
ag559
ag560
ag561
ag562
ag563
ag564
ag565
ag566
ag567
a(lp764
I544
aS','
p765
aag568
ag569
ag570
ag571
ag572
ag573
ag574
ag575
ag576
ag577
a(lp766
I555
ag765
aag578
ag579
ag580
ag581
ag582
ag583
ag584
ag585
ag586
ag587
ag588
a(lp767
I567
aS'/'
p768
aag589
ag590
ag591
ag592
ag593
ag594
ag595
ag596
ag597
ag598
ag599
ag600
ag601
a(lp769
I581
ag760
aag602
ag603
ag604
ag605
ag606
ag607
ag608
ag609
ag610
ag611
ag612
ag613
ag614
ag615
ag616
ag617
ag618
ag619
ag620
ag621
ag622
ag623
ag624
ag625
ag626
ag627
ag628
ag629
ag630
ag631
ag632
ag633
ag634
ag635
ag636
ag637
ag638
ag639
ag640
ag641
ag642
ag643
a(lp770
I624
ag763
aag644
ag645
ag646
ag647
ag648
ag649
ag650
ag651
ag652
ag653
ag654
ag655
ag656
ag657
ag658
ag659
ag660
ag661
ag662
a(lp771
I644
aS'!'
p772
aag663
ag664
ag665
ag666
ag667
ag668
ag669
ag670
ag671
ag672
ag673
ag674
ag675
ag676
ag677
ag678
ag679
ag680
ag681
ag682
a(lp773
I665
ag752
aag683
ag684
ag685
ag686
ag687
ag688
ag689
ag690
ag691
ag692
ag693
ag694
ag695
ag696
ag697
ag698
ag699
ag700
ag701
a(lp774
I685
ag754
aa(lp775
I686
aS':'
p776
aag702
ag703
ag704
ag705
ag706
ag707
ag708
ag709
ag710
ag711
ag712
ag713
a(lp777
I699
ag752
aag714
ag715
ag716
ag717
ag718
ag719
ag720
ag721
a(lp778
I708
ag754
aa(lp779
I709
ag748
aasS'docName'
p780
S'source-document02593.txt'
p781
sb.