(iModel.Document
Document
p0
(dp1
S'fmap'
p2
(lp3
(lp4
I18
aI21
aS'wear'
p5
a(lp6
S'*'
p7
ag5
aaa(lp8
I18
aI21
ag5
a(lp9
g7
ag5
aaa(lp10
I18
aI21
ag5
a(lp11
g7
ag5
aaa(lp12
I18
aI21
ag5
a(lp13
g7
ag5
aaa(lp14
I28
aI30
aS'job'
p15
a(lp16
g5
ag15
aaa(lp17
I28
aI30
ag15
a(lp18
g7
ag15
aaa(lp19
I28
aI30
ag15
a(lp20
g7
ag15
aaa(lp21
I28
aI30
ag15
a(lp22
g7
ag15
aaa(lp23
I32
aI40
aS'interview'
p24
a(lp25
g15
ag24
aaa(lp26
I32
aI40
ag24
a(lp27
g5
ag24
aaa(lp28
I32
aI40
ag24
a(lp29
g7
ag24
aaa(lp30
I32
aI40
ag24
a(lp31
g7
ag24
aaa(lp32
I43
aI48
aS'posted'
p33
a(lp34
g24
ag33
aaa(lp35
I43
aI48
ag33
a(lp36
g15
ag33
aaa(lp37
I43
aI48
ag33
a(lp38
g5
ag33
aaa(lp39
I43
aI48
ag33
a(lp40
g7
ag33
aaa(lp41
I53
aI54
aS'hr'
p42
a(lp43
g33
ag42
aaa(lp44
I53
aI54
ag42
a(lp45
g24
ag42
aaa(lp46
I53
aI54
ag42
a(lp47
g15
ag42
aaa(lp48
I53
aI54
ag42
a(lp49
g5
ag42
aaa(lp50
I60
aI68
aS'preparing'
p51
a(lp52
g42
ag51
aaa(lp53
I60
aI68
ag51
a(lp54
g33
ag51
aaa(lp55
I60
aI68
ag51
a(lp56
g24
ag51
aaa(lp57
I60
aI68
ag51
a(lp58
g15
ag51
aaa(lp59
I76
aI78
aS'job'
p60
a(lp61
g51
ag60
aaa(lp62
I76
aI78
ag60
a(lp63
g42
ag60
aaa(lp64
I76
aI78
ag60
a(lp65
g33
ag60
aaa(lp66
I76
aI78
ag60
a(lp67
g24
ag60
aaa(lp68
I80
aI88
aS'interview'
p69
a(lp70
g60
ag69
aaa(lp71
I80
aI88
ag69
a(lp72
g51
ag69
aaa(lp73
I80
aI88
ag69
a(lp74
g42
ag69
aaa(lp75
I80
aI88
ag69
a(lp76
g33
ag69
aaa(lp77
I103
aI111
aS'preparing'
p78
a(lp79
g69
ag78
aaa(lp80
I103
aI111
ag78
a(lp81
g60
ag78
aaa(lp82
I103
aI111
ag78
a(lp83
g51
ag78
aaa(lp84
I103
aI111
ag78
a(lp85
g42
ag78
aaa(lp86
I119
aI121
aS'job'
p87
a(lp88
g78
ag87
aaa(lp89
I119
aI121
ag87
a(lp90
g69
ag87
aaa(lp91
I119
aI121
ag87
a(lp92
g60
ag87
aaa(lp93
I119
aI121
ag87
a(lp94
g51
ag87
aaa(lp95
I123
aI131
aS'interview'
p96
a(lp97
g87
ag96
aaa(lp98
I123
aI131
ag96
a(lp99
g78
ag96
aaa(lp100
I123
aI131
ag96
a(lp101
g69
ag96
aaa(lp102
I123
aI131
ag96
a(lp103
g60
ag96
aaa(lp104
I137
aI140
aS'need'
p105
a(lp106
g96
ag105
aaa(lp107
I137
aI140
ag105
a(lp108
g87
ag105
aaa(lp109
I137
aI140
ag105
a(lp110
g78
ag105
aaa(lp111
I137
aI140
ag105
a(lp112
g69
ag105
aaa(lp113
I145
aI152
aS'remember'
p114
a(lp115
g105
ag114
aaa(lp116
I145
aI152
ag114
a(lp117
g96
ag114
aaa(lp118
I145
aI152
ag114
a(lp119
g87
ag114
aaa(lp120
I145
aI152
ag114
a(lp121
g78
ag114
aaa(lp122
I163
aI165
aS'way'
p123
a(lp124
g114
ag123
aaa(lp125
I163
aI165
ag123
a(lp126
g105
ag123
aaa(lp127
I163
aI165
ag123
a(lp128
g96
ag123
aaa(lp129
I163
aI165
ag123
a(lp130
g87
ag123
aaa(lp131
I171
aI175
aS'dress'
p132
a(lp133
g123
ag132
aaa(lp134
I171
aI175
ag132
a(lp135
g114
ag132
aaa(lp136
I171
aI175
ag132
a(lp137
g105
ag132
aaa(lp138
I171
aI175
ag132
a(lp139
g96
ag132
aaa(lp140
I181
aI184
aS'make'
p141
a(lp142
g132
ag141
aaa(lp143
I181
aI184
ag141
a(lp144
g123
ag141
aaa(lp145
I181
aI184
ag141
a(lp146
g114
ag141
aaa(lp147
I181
aI184
ag141
a(lp148
g105
ag141
aaa(lp149
I189
aI193
aS'break'
p150
a(lp151
g141
ag150
aaa(lp152
I189
aI193
ag150
a(lp153
g132
ag150
aaa(lp154
I189
aI193
ag150
a(lp155
g123
ag150
aaa(lp156
I189
aI193
ag150
a(lp157
g114
ag150
aaa(lp158
I200
aI205
aS'people'
p159
a(lp160
g150
ag159
aaa(lp161
I200
aI205
ag159
a(lp162
g141
ag159
aaa(lp163
I200
aI205
ag159
a(lp164
g132
ag159
aaa(lp165
I200
aI205
ag159
a(lp166
g123
ag159
aaa(lp167
I207
aI210
aS'need'
p168
a(lp169
g159
ag168
aaa(lp170
I207
aI210
ag168
a(lp171
g150
ag168
aaa(lp172
I207
aI210
ag168
a(lp173
g141
ag168
aaa(lp174
I207
aI210
ag168
a(lp175
g132
ag168
aaa(lp176
I212
aI218
aS'clothes'
p177
a(lp178
g168
ag177
aaa(lp179
I212
aI218
ag177
a(lp180
g159
ag177
aaa(lp181
I212
aI218
ag177
a(lp182
g150
ag177
aaa(lp183
I212
aI218
ag177
a(lp184
g141
ag177
aaa(lp185
I239
aI247
aS'necessity'
p186
a(lp187
g177
ag186
aaa(lp188
I239
aI247
ag186
a(lp189
g168
ag186
aaa(lp190
I239
aI247
ag186
a(lp191
g159
ag186
aaa(lp192
I239
aI247
ag186
a(lp193
g150
ag186
aaa(lp194
I264
aI269
aS'denied'
p195
a(lp196
g186
ag195
aaa(lp197
I264
aI269
ag195
a(lp198
g177
ag195
aaa(lp199
I264
aI269
ag195
a(lp200
g168
ag195
aaa(lp201
I264
aI269
ag195
a(lp202
g159
ag195
aaa(lp203
I286
aI289
aS'know'
p204
a(lp205
g195
ag204
aaa(lp206
I286
aI289
ag204
a(lp207
g186
ag204
aaa(lp208
I286
aI289
ag204
a(lp209
g177
ag204
aaa(lp210
I286
aI289
ag204
a(lp211
g168
ag204
aaa(lp212
I298
aI302
aS'dress'
p213
a(lp214
g204
ag213
aaa(lp215
I298
aI302
ag213
a(lp216
g195
ag213
aaa(lp217
I298
aI302
ag213
a(lp218
g186
ag213
aaa(lp219
I298
aI302
ag213
a(lp220
g177
ag213
aaa(lp221
I304
aI307
aS'well'
p222
a(lp223
g213
ag222
aaa(lp224
I304
aI307
ag222
a(lp225
g204
ag222
aaa(lp226
I304
aI307
ag222
a(lp227
g195
ag222
aaa(lp228
I304
aI307
ag222
a(lp229
g186
ag222
aaa(lp230
I314
aI319
aS'either'
p231
a(lp232
g222
ag231
aaa(lp233
I314
aI319
ag231
a(lp234
g213
ag231
aaa(lp235
I314
aI319
ag231
a(lp236
g204
ag231
aaa(lp237
I314
aI319
ag231
a(lp238
g195
ag231
aaa(lp239
I324
aI331
aS'ordinary'
p240
a(lp241
g231
ag240
aaa(lp242
I324
aI331
ag240
a(lp243
g222
ag240
aaa(lp244
I324
aI331
ag240
a(lp245
g213
ag240
aaa(lp246
I324
aI331
ag240
a(lp247
g204
ag240
aaa(lp248
I333
aI335
aS'day'
p249
a(lp250
g240
ag249
aaa(lp251
I333
aI335
ag249
a(lp252
g231
ag249
aaa(lp253
I333
aI335
ag249
a(lp254
g222
ag249
aaa(lp255
I333
aI335
ag249
a(lp256
g213
ag249
aaa(lp257
I342
aI348
aS'special'
p258
a(lp259
g249
ag258
aaa(lp260
I342
aI348
ag258
a(lp261
g240
ag258
aaa(lp262
I342
aI348
ag258
a(lp263
g231
ag258
aaa(lp264
I342
aI348
ag258
a(lp265
g222
ag258
aaa(lp266
I350
aI357
aS'occasion'
p267
a(lp268
g258
ag267
aaa(lp269
I350
aI357
ag267
a(lp270
g249
ag267
aaa(lp271
I350
aI357
ag267
a(lp272
g240
ag267
aaa(lp273
I350
aI357
ag267
a(lp274
g231
ag267
aaa(lp275
I364
aI369
aS'create'
p276
a(lp277
g267
ag276
aaa(lp278
I364
aI369
ag276
a(lp279
g258
ag276
aaa(lp280
I364
aI369
ag276
a(lp281
g249
ag276
aaa(lp282
I364
aI369
ag276
a(lp283
g240
ag276
aaa(lp284
I371
aI381
aS'impressions'
p285
a(lp286
g276
ag285
aaa(lp287
I371
aI381
ag285
a(lp288
g267
ag285
aaa(lp289
I371
aI381
ag285
a(lp290
g258
ag285
aaa(lp291
I371
aI381
ag285
a(lp292
g249
ag285
aaa(lp293
I392
aI399
aS'positive'
p294
a(lp295
g285
ag294
aaa(lp296
I392
aI399
ag294
a(lp297
g276
ag294
aaa(lp298
I392
aI399
ag294
a(lp299
g267
ag294
aaa(lp300
I392
aI399
ag294
a(lp301
g258
ag294
aaa(lp302
I406
aI407
aS'us'
p303
a(lp304
g294
ag303
aaa(lp305
I406
aI407
ag303
a(lp306
g285
ag303
aaa(lp307
I406
aI407
ag303
a(lp308
g276
ag303
aaa(lp309
I406
aI407
ag303
a(lp310
g267
ag303
aaa(lp311
I412
aI415
aS'come'
p312
a(lp313
g303
ag312
aaa(lp314
I412
aI415
ag312
a(lp315
g294
ag312
aaa(lp316
I412
aI415
ag312
a(lp317
g285
ag312
aaa(lp318
I412
aI415
ag312
a(lp319
g276
ag312
aaa(lp320
I429
aI434
aS'things'
p321
a(lp322
g312
ag321
aaa(lp323
I429
aI434
ag321
a(lp324
g303
ag321
aaa(lp325
I429
aI434
ag321
a(lp326
g294
ag321
aaa(lp327
I429
aI434
ag321
a(lp328
g285
ag321
aaa(lp329
I448
aI453
aS'remind'
p330
a(lp331
g321
ag330
aaa(lp332
I448
aI453
ag330
a(lp333
g312
ag330
aaa(lp334
I448
aI453
ag330
a(lp335
g303
ag330
aaa(lp336
I448
aI453
ag330
a(lp337
g294
ag330
aaa(lp338
I460
aI463
aS'self'
p339
a(lp340
g330
ag339
aaa(lp341
I460
aI463
ag339
a(lp342
g321
ag339
aaa(lp343
I460
aI463
ag339
a(lp344
g312
ag339
aaa(lp345
I460
aI463
ag339
a(lp346
g303
ag339
aaa(lp347
I472
aI477
aS'facing'
p348
a(lp349
g339
ag348
aaa(lp350
I472
aI477
ag348
a(lp351
g330
ag348
aaa(lp352
I472
aI477
ag348
a(lp353
g321
ag348
aaa(lp354
I472
aI477
ag348
a(lp355
g312
ag348
aaa(lp356
I484
aI494
aS'interviewer'
p357
a(lp358
g348
ag357
aaa(lp359
I484
aI494
ag357
a(lp360
g339
ag357
aaa(lp361
I484
aI494
ag357
a(lp362
g330
ag357
aaa(lp363
I484
aI494
ag357
a(lp364
g321
ag357
aaa(lp365
I497
aI499
aS'let'
p366
a(lp367
g357
ag366
aaa(lp368
I497
aI499
ag366
a(lp369
g348
ag366
aaa(lp370
I497
aI499
ag366
a(lp371
g339
ag366
aaa(lp372
I497
aI499
ag366
a(lp373
g330
ag366
aaa(lp374
I501
aI502
aS'us'
p375
a(lp376
g366
ag375
aaa(lp377
I501
aI502
ag375
a(lp378
g357
ag375
aaa(lp379
I501
aI502
ag375
a(lp380
g348
ag375
aaa(lp381
I501
aI502
ag375
a(lp382
g339
ag375
aaa(lp383
I504
aI511
aS'identify'
p384
a(lp385
g375
ag384
aaa(lp386
I504
aI511
ag384
a(lp387
g366
ag384
aaa(lp388
I504
aI511
ag384
a(lp389
g357
ag384
aaa(lp390
I504
aI511
ag384
a(lp391
g348
ag384
aaa(lp392
I519
aI525
aS'clothes'
p393
a(lp394
g384
ag393
aaa(lp395
I519
aI525
ag393
a(lp396
g375
ag393
aaa(lp397
I519
aI525
ag393
a(lp398
g366
ag393
aaa(lp399
I519
aI525
ag393
a(lp400
g357
ag393
aaa(lp401
I532
aI535
aS'even'
p402
a(lp403
g393
ag402
aaa(lp404
I532
aI535
ag402
a(lp405
g384
ag402
aaa(lp406
I532
aI535
ag402
a(lp407
g375
ag402
aaa(lp408
I532
aI535
ag402
a(lp409
g366
ag402
aaa(lp410
I537
aI547
aS'accessories'
p411
a(lp412
g402
ag411
aaa(lp413
I537
aI547
ag411
a(lp414
g393
ag411
aaa(lp415
I537
aI547
ag411
a(lp416
g384
ag411
aaa(lp417
I537
aI547
ag411
a(lp418
g375
ag411
aaa(lp419
I554
aI558
aS'would'
p420
a(lp421
g411
ag420
aaa(lp422
I554
aI558
ag420
a(lp423
g402
ag420
aaa(lp424
I554
aI558
ag420
a(lp425
g393
ag420
aaa(lp426
I554
aI558
ag420
a(lp427
g384
ag420
aaa(lp428
I567
aI576
aS'flattering'
p429
a(lp430
g420
ag429
aaa(lp431
I567
aI576
ag429
a(lp432
g411
ag429
aaa(lp433
I567
aI576
ag429
a(lp434
g402
ag429
aaa(lp435
I567
aI576
ag429
a(lp436
g393
ag429
aaa(lp437
I586
aI589
aS'wild'
p438
a(lp439
g429
ag438
aaa(lp440
I586
aI589
ag438
a(lp441
g420
ag438
aaa(lp442
I586
aI589
ag438
a(lp443
g411
ag438
aaa(lp444
I586
aI589
ag438
a(lp445
g402
ag438
aaa(lp446
I591
aI596
aS'colors'
p447
a(lp448
g438
ag447
aaa(lp449
I591
aI596
ag447
a(lp450
g429
ag447
aaa(lp451
I591
aI596
ag447
a(lp452
g420
ag447
aaa(lp453
I591
aI596
ag447
a(lp454
g411
ag447
aaa(lp455
I606
aI608
aS'hot'
p456
a(lp457
g447
ag456
aaa(lp458
I606
aI608
ag456
a(lp459
g438
ag456
aaa(lp460
I606
aI608
ag456
a(lp461
g429
ag456
aaa(lp462
I606
aI608
ag456
a(lp463
g420
ag456
aaa(lp464
I615
aI619
aS'could'
p465
a(lp466
g456
ag465
aaa(lp467
I615
aI619
ag465
a(lp468
g447
ag465
aaa(lp469
I615
aI619
ag465
a(lp470
g438
ag465
aaa(lp471
I615
aI619
ag465
a(lp472
g429
ag465
aaa(lp473
I628
aI634
aS'hottest'
p474
a(lp475
g465
ag474
aaa(lp476
I628
aI634
ag474
a(lp477
g456
ag474
aaa(lp478
I628
aI634
ag474
a(lp479
g447
ag474
aaa(lp480
I628
aI634
ag474
a(lp481
g438
ag474
aaa(lp482
I636
aI641
aS'person'
p483
a(lp484
g474
ag483
aaa(lp485
I636
aI641
ag483
a(lp486
g465
ag483
aaa(lp487
I636
aI641
ag483
a(lp488
g456
ag483
aaa(lp489
I636
aI641
ag483
a(lp490
g447
ag483
aaa(lp491
I654
aI656
aS'red'
p492
a(lp493
g483
ag492
aaa(lp494
I654
aI656
ag492
a(lp495
g474
ag492
aaa(lp496
I654
aI656
ag492
a(lp497
g465
ag492
aaa(lp498
I654
aI656
ag492
a(lp499
g456
ag492
aaa(lp500
I658
aI667
aS'toptotoe'
p501
a(lp502
g492
ag501
aaa(lp503
I658
aI667
ag501
a(lp504
g483
ag501
aaa(lp505
I658
aI667
ag501
a(lp506
g474
ag501
aaa(lp507
I658
aI667
ag501
a(lp508
g465
ag501
aaa(lp509
I669
aI671
aS'get'
p510
a(lp511
g501
ag510
aaa(lp512
I669
aI671
ag510
a(lp513
g492
ag510
aaa(lp514
I669
aI671
ag510
a(lp515
g483
ag510
aaa(lp516
I669
aI671
ag510
a(lp517
g474
ag510
aaa(lp518
I680
aI683
aS'much'
p519
a(lp520
g510
ag519
aaa(lp521
I680
aI683
ag519
a(lp522
g501
ag519
aaa(lp523
I680
aI683
ag519
a(lp524
g492
ag519
aaa(lp525
I680
aI683
ag519
a(lp526
g483
ag519
aaa(lp527
I688
aI695
aS'possible'
p528
a(lp529
g519
ag528
aaa(lp530
I688
aI695
ag528
a(lp531
g510
ag528
aaa(lp532
I688
aI695
ag528
a(lp533
g501
ag528
aaa(lp534
I688
aI695
ag528
a(lp535
g492
ag528
aaa(lp536
I697
aI700
aS'wear'
p537
a(lp538
g528
ag537
aaa(lp539
I697
aI700
ag537
a(lp540
g519
ag537
aaa(lp541
I697
aI700
ag537
a(lp542
g510
ag537
aaa(lp543
I697
aI700
ag537
a(lp544
g501
ag537
aaa(lp545
I702
aI710
aS'something'
p546
a(lp547
g537
ag546
aaa(lp548
I702
aI710
ag546
a(lp549
g528
ag546
aaa(lp550
I702
aI710
ag546
a(lp551
g519
ag546
aaa(lp552
I702
aI710
ag546
a(lp553
g510
ag546
aaa(lp554
I720
aI725
aS'subtle'
p555
a(lp556
g546
ag555
aaa(lp557
I720
aI725
ag555
a(lp558
g537
ag555
aaa(lp559
I720
aI725
ag555
a(lp560
g528
ag555
aaa(lp561
I720
aI725
ag555
a(lp562
g519
ag555
aaa(lp563
I730
aI734
aS'color'
p564
a(lp565
g555
ag564
aaa(lp566
I730
aI734
ag564
a(lp567
g546
ag564
aaa(lp568
I730
aI734
ag564
a(lp569
g537
ag564
aaa(lp570
I730
aI734
ag564
a(lp571
g528
ag564
aaa(lp572
I740
aI744
aS'would'
p573
a(lp574
g564
ag573
aaa(lp575
I740
aI744
ag573
a(lp576
g555
ag573
aaa(lp577
I740
aI744
ag573
a(lp578
g546
ag573
aaa(lp579
I740
aI744
ag573
a(lp580
g537
ag573
aaa(lp581
I746
aI749
aS'make'
p582
a(lp583
g573
ag582
aaa(lp584
I746
aI749
ag582
a(lp585
g564
ag582
aaa(lp586
I746
aI749
ag582
a(lp587
g555
ag582
aaa(lp588
I746
aI749
ag582
a(lp589
g546
ag582
aaa(lp590
I755
aI759
aS'looks'
p591
a(lp592
g582
ag591
aaa(lp593
I755
aI759
ag591
a(lp594
g573
ag591
aaa(lp595
I755
aI759
ag591
a(lp596
g564
ag591
aaa(lp597
I755
aI759
ag591
a(lp598
g555
ag591
aaa(lp599
I761
aI770
aS'flattering'
p600
a(lp601
g591
ag600
aaa(lp602
I761
aI770
ag600
a(lp603
g582
ag600
aaa(lp604
I761
aI770
ag600
a(lp605
g573
ag600
aaa(lp606
I761
aI770
ag600
a(lp607
g564
ag600
aaa(lp608
I784
aI787
aS'loud'
p609
a(lp610
g600
ag609
aaa(lp611
I784
aI787
ag609
a(lp612
g591
ag609
aaa(lp613
I784
aI787
ag609
a(lp614
g582
ag609
aaa(lp615
I784
aI787
ag609
a(lp616
g573
ag609
aaa(lp617
I790
aI797
aS'remember'
p618
a(lp619
g609
ag618
aaa(lp620
I790
aI797
ag618
a(lp621
g600
ag618
aaa(lp622
I790
aI797
ag618
a(lp623
g591
ag618
aaa(lp624
I790
aI797
ag618
a(lp625
g582
ag618
aaa(lp626
I825
aI833
aS'interview'
p627
a(lp628
g618
ag627
aaa(lp629
I825
aI833
ag627
a(lp630
g609
ag627
aaa(lp631
I825
aI833
ag627
a(lp632
g600
ag627
aaa(lp633
I825
aI833
ag627
a(lp634
g591
ag627
aaa(lp635
I849
aI853
aS'night'
p636
a(lp637
g627
ag636
aaa(lp638
I849
aI853
ag636
a(lp639
g618
ag636
aaa(lp640
I849
aI853
ag636
a(lp641
g609
ag636
aaa(lp642
I849
aI853
ag636
a(lp643
g600
ag636
aaa(lp644
I880
aI882
aS'bag'
p645
a(lp646
g636
ag645
aaa(lp647
I880
aI882
ag645
a(lp648
g627
ag645
aaa(lp649
I880
aI882
ag645
a(lp650
g618
ag645
aaa(lp651
I880
aI882
ag645
a(lp652
g609
ag645
aaa(lp653
I908
aI910
aS'job'
p654
a(lp655
g645
ag654
aaa(lp656
I908
aI910
ag654
a(lp657
g636
ag654
aaa(lp658
I908
aI910
ag654
a(lp659
g627
ag654
aaa(lp660
I908
aI910
ag654
a(lp661
g618
ag654
aaa(lp662
I912
aI920
aS'interview'
p663
a(lp664
g654
ag663
aaa(lp665
I912
aI920
ag663
a(lp666
g645
ag663
aaa(lp667
I912
aI920
ag663
a(lp668
g636
ag663
aaa(lp669
I912
aI920
ag663
a(lp670
g627
ag663
aaa(lp671
I930
aI934
aS'bring'
p672
a(lp673
g663
ag672
aaa(lp674
I930
aI934
ag672
a(lp675
g654
ag672
aaa(lp676
I930
aI934
ag672
a(lp677
g645
ag672
aaa(lp678
I930
aI934
ag672
a(lp679
g636
ag672
aaa(lp680
I947
aI953
aS'heavily'
p681
a(lp682
g672
ag681
aaa(lp683
I947
aI953
ag681
a(lp684
g663
ag681
aaa(lp685
I947
aI953
ag681
a(lp686
g654
ag681
aaa(lp687
I947
aI953
ag681
a(lp688
g645
ag681
aaa(lp689
I955
aI961
aS'printed'
p690
a(lp691
g681
ag690
aaa(lp692
I955
aI961
ag690
a(lp693
g672
ag690
aaa(lp694
I955
aI961
ag690
a(lp695
g663
ag690
aaa(lp696
I955
aI961
ag690
a(lp697
g654
ag690
aaa(lp698
I963
aI965
aS'bag'
p699
a(lp700
g690
ag699
aaa(lp701
I963
aI965
ag699
a(lp702
g681
ag699
aaa(lp703
I963
aI965
ag699
a(lp704
g672
ag699
aaa(lp705
I963
aI965
ag699
a(lp706
g663
ag699
aaa(lp707
I968
aI973
aS'purses'
p708
a(lp709
g699
ag708
aaa(lp710
I968
aI973
ag708
a(lp711
g690
ag708
aaa(lp712
I968
aI973
ag708
a(lp713
g681
ag708
aaa(lp714
I968
aI973
ag708
a(lp715
g672
ag708
aaa(lp716
I979
aI984
aS'better'
p717
a(lp718
g708
ag717
aaa(lp719
I979
aI984
ag717
a(lp720
g699
ag717
aaa(lp721
I979
aI984
ag717
a(lp722
g690
ag717
aaa(lp723
I979
aI984
ag717
a(lp724
g681
ag717
aaa(lp725
I986
aI992
aS'options'
p726
a(lp727
g717
ag726
aaa(lp728
I986
aI992
ag726
a(lp729
g708
ag726
aaa(lp730
I986
aI992
ag726
a(lp731
g699
ag726
aaa(lp732
I986
aI992
ag726
a(lp733
g690
ag726
aaa(lp734
I998
aI1003
aS'please'
p735
a(lp736
g726
ag735
aaa(lp737
I998
aI1003
ag735
a(lp738
g717
ag735
aaa(lp739
I998
aI1003
ag735
a(lp740
g708
ag735
aaa(lp741
I998
aI1003
ag735
a(lp742
g699
ag735
aaa(lp743
I1005
aI1010
aS'choose'
p744
a(lp745
g735
ag744
aaa(lp746
I1005
aI1010
ag744
a(lp747
g726
ag744
aaa(lp748
I1005
aI1010
ag744
a(lp749
g717
ag744
aaa(lp750
I1005
aI1010
ag744
a(lp751
g708
ag744
aaa(lp752
I1014
aI1025
aS'conservative'
p753
a(lp754
g744
ag753
aaa(lp755
I1014
aI1025
ag753
a(lp756
g735
ag753
aaa(lp757
I1014
aI1025
ag753
a(lp758
g726
ag753
aaa(lp759
I1014
aI1025
ag753
a(lp760
g717
ag753
aaa(lp761
I1027
aI1031
aS'color'
p762
a(lp763
g753
ag762
aaa(lp764
I1027
aI1031
ag762
a(lp765
g744
ag762
aaa(lp766
I1027
aI1031
ag762
a(lp767
g735
ag762
aaa(lp768
I1027
aI1031
ag762
a(lp769
g726
ag762
aaa(lp770
I1038
aI1042
aS'could'
p771
a(lp772
g762
ag771
aaa(lp773
I1038
aI1042
ag771
a(lp774
g753
ag771
aaa(lp775
I1038
aI1042
ag771
a(lp776
g744
ag771
aaa(lp777
I1038
aI1042
ag771
a(lp778
g735
ag771
aaa(lp779
I1044
aI1045
aS'go'
p780
a(lp781
g771
ag780
aaa(lp782
I1044
aI1045
ag780
a(lp783
g762
ag780
aaa(lp784
I1044
aI1045
ag780
a(lp785
g753
ag780
aaa(lp786
I1044
aI1045
ag780
a(lp787
g744
ag780
aaa(lp788
I1047
aI1051
aS'along'
p789
a(lp790
g780
ag789
aaa(lp791
I1047
aI1051
ag789
a(lp792
g771
ag789
aaa(lp793
I1047
aI1051
ag789
a(lp794
g762
ag789
aaa(lp795
I1047
aI1051
ag789
a(lp796
g753
ag789
aaa(lp797
I1063
aI1067
aS'dress'
p798
a(lp799
g789
ag798
aaa(lp800
I1063
aI1067
ag798
a(lp801
g780
ag798
aaa(lp802
I1063
aI1067
ag798
a(lp803
g771
ag798
aaa(lp804
I1063
aI1067
ag798
a(lp805
g762
ag798
aaa(lp806
I1070
aI1074
aS'short'
p807
a(lp808
g798
ag807
aaa(lp809
I1070
aI1074
ag807
a(lp810
g789
ag807
aaa(lp811
I1070
aI1074
ag807
a(lp812
g780
ag807
aaa(lp813
I1070
aI1074
ag807
a(lp814
g771
ag807
aaa(lp815
I1076
aI1080
aS'skirt'
p816
a(lp817
g807
ag816
aaa(lp818
I1076
aI1080
ag816
a(lp819
g798
ag816
aaa(lp820
I1076
aI1080
ag816
a(lp821
g789
ag816
aaa(lp822
I1076
aI1080
ag816
a(lp823
g780
ag816
aaa(lp824
I1083
aI1087
aS'short'
p825
a(lp826
g816
ag825
aaa(lp827
I1083
aI1087
ag825
a(lp828
g807
ag825
aaa(lp829
I1083
aI1087
ag825
a(lp830
g798
ag825
aaa(lp831
I1083
aI1087
ag825
a(lp832
g789
ag825
aaa(lp833
I1089
aI1094
aS'chance'
p834
a(lp835
g825
ag834
aaa(lp836
I1089
aI1094
ag834
a(lp837
g816
ag834
aaa(lp838
I1089
aI1094
ag834
a(lp839
g807
ag834
aaa(lp840
I1089
aI1094
ag834
a(lp841
g798
ag834
aaa(lp842
I1097
aI1101
aS'never'
p843
a(lp844
g834
ag843
aaa(lp845
I1097
aI1101
ag843
a(lp846
g825
ag843
aaa(lp847
I1097
aI1101
ag843
a(lp848
g816
ag843
aaa(lp849
I1097
aI1101
ag843
a(lp850
g807
ag843
aaa(lp851
I1103
aI1106
aS'wear'
p852
a(lp853
g843
ag852
aaa(lp854
I1103
aI1106
ag852
a(lp855
g834
ag852
aaa(lp856
I1103
aI1106
ag852
a(lp857
g825
ag852
aaa(lp858
I1103
aI1106
ag852
a(lp859
g816
ag852
aaa(lp860
I1121
aI1124
aS'knee'
p861
a(lp862
g852
ag861
aaa(lp863
I1121
aI1124
ag861
a(lp864
g843
ag861
aaa(lp865
I1121
aI1124
ag861
a(lp866
g834
ag861
aaa(lp867
I1121
aI1124
ag861
a(lp868
g825
ag861
aaa(lp869
I1126
aI1130
aS'skirt'
p870
a(lp871
g861
ag870
aaa(lp872
I1126
aI1130
ag870
a(lp873
g852
ag870
aaa(lp874
I1126
aI1130
ag870
a(lp875
g843
ag870
aaa(lp876
I1126
aI1130
ag870
a(lp877
g834
ag870
aaa(lp878
I1138
aI1141
aS'legs'
p879
a(lp880
g870
ag879
aaa(lp881
I1138
aI1141
ag879
a(lp882
g861
ag879
aaa(lp883
I1138
aI1141
ag879
a(lp884
g852
ag879
aaa(lp885
I1138
aI1141
ag879
a(lp886
g843
ag879
aaa(lp887
I1143
aI1145
aS'may'
p888
a(lp889
g879
ag888
aaa(lp890
I1143
aI1145
ag888
a(lp891
g870
ag888
aaa(lp892
I1143
aI1145
ag888
a(lp893
g861
ag888
aaa(lp894
I1143
aI1145
ag888
a(lp895
g852
ag888
aaa(lp896
I1154
aI1161
aS'silkiest'
p897
a(lp898
g888
ag897
aaa(lp899
I1154
aI1161
ag897
a(lp900
g879
ag897
aaa(lp901
I1154
aI1161
ag897
a(lp902
g870
ag897
aaa(lp903
I1154
aI1161
ag897
a(lp904
g861
ag897
aaa(lp905
I1166
aI1169
aS'town'
p906
a(lp907
g897
ag906
aaa(lp908
I1166
aI1169
ag906
a(lp909
g888
ag906
aaa(lp910
I1166
aI1169
ag906
a(lp911
g879
ag906
aaa(lp912
I1166
aI1169
ag906
a(lp913
g870
ag906
aaa(lp914
I1184
aI1194
aS'interviewee'
p915
a(lp916
g906
ag915
aaa(lp917
I1184
aI1194
ag915
a(lp918
g897
ag915
aaa(lp919
I1184
aI1194
ag915
a(lp920
g888
ag915
aaa(lp921
I1184
aI1194
ag915
a(lp922
g879
ag915
aaa(lp923
I1205
aI1211
aS'require'
p924
a(lp925
g915
ag924
aaa(lp926
I1205
aI1211
ag924
a(lp927
g906
ag924
aaa(lp928
I1205
aI1211
ag924
a(lp929
g897
ag924
aaa(lp930
I1205
aI1211
ag924
a(lp931
g888
ag924
aaa(lp932
I1220
aI1223
aS'wear'
p933
a(lp934
g924
ag933
aaa(lp935
I1220
aI1223
ag933
a(lp936
g915
ag933
aaa(lp937
I1220
aI1223
ag933
a(lp938
g906
ag933
aaa(lp939
I1220
aI1223
ag933
a(lp940
g897
ag933
aaa(lp941
I1230
aI1233
aS'type'
p942
a(lp943
g933
ag942
aaa(lp944
I1230
aI1233
ag942
a(lp945
g924
ag942
aaa(lp946
I1230
aI1233
ag942
a(lp947
g915
ag942
aaa(lp948
I1230
aI1233
ag942
a(lp949
g906
ag942
aaa(lp950
I1238
aI1242
aS'skirt'
p951
a(lp952
g942
ag951
aaa(lp953
I1238
aI1242
ag951
a(lp954
g933
ag951
aaa(lp955
I1238
aI1242
ag951
a(lp956
g924
ag951
aaa(lp957
I1238
aI1242
ag951
a(lp958
g915
ag951
aaa(lp959
I1249
aI1253
aS'would'
p960
a(lp961
g951
ag960
aaa(lp962
I1249
aI1253
ag960
a(lp963
g942
ag960
aaa(lp964
I1249
aI1253
ag960
a(lp965
g933
ag960
aaa(lp966
I1249
aI1253
ag960
a(lp967
g924
ag960
aaa(lp968
I1255
aI1258
aS'look'
p969
a(lp970
g960
ag969
aaa(lp971
I1255
aI1258
ag969
a(lp972
g951
ag969
aaa(lp973
I1255
aI1258
ag969
a(lp974
g942
ag969
aaa(lp975
I1255
aI1258
ag969
a(lp976
g933
ag969
aaa(lp977
I1260
aI1273
aS'unprofessional'
p978
a(lp979
g969
ag978
aaa(lp980
I1260
aI1273
ag978
a(lp981
g960
ag978
aaa(lp982
I1260
aI1273
ag978
a(lp983
g951
ag978
aaa(lp984
I1260
aI1273
ag978
a(lp985
g942
ag978
aaa(lp986
I1290
aI1298
aS'christmas'
p987
a(lp988
g978
ag987
aaa(lp989
I1290
aI1298
ag987
a(lp990
g969
ag987
aaa(lp991
I1290
aI1298
ag987
a(lp992
g960
ag987
aaa(lp993
I1290
aI1298
ag987
a(lp994
g951
ag987
aaa(lp995
I1300
aI1303
aS'tree'
p996
a(lp997
g987
ag996
aaa(lp998
I1300
aI1303
ag996
a(lp999
g978
ag996
aaa(lp1000
I1300
aI1303
ag996
a(lp1001
g969
ag996
aaa(lp1002
I1300
aI1303
ag996
a(lp1003
g960
ag996
aaa(lp1004
I1306
aI1312
aS'jewelry'
p1005
a(lp1006
g996
ag1005
aaa(lp1007
I1306
aI1312
ag1005
a(lp1008
g987
ag1005
aaa(lp1009
I1306
aI1312
ag1005
a(lp1010
g978
ag1005
aaa(lp1011
I1306
aI1312
ag1005
a(lp1012
g969
ag1005
aaa(lp1013
I1318
aI1328
aS'accessories'
p1014
a(lp1015
g1005
ag1014
aaa(lp1016
I1318
aI1328
ag1014
a(lp1017
g996
ag1014
aaa(lp1018
I1318
aI1328
ag1014
a(lp1019
g987
ag1014
aaa(lp1020
I1318
aI1328
ag1014
a(lp1021
g978
ag1014
aaa(lp1022
I1330
aI1334
aS'could'
p1023
a(lp1024
g1014
ag1023
aaa(lp1025
I1330
aI1334
ag1023
a(lp1026
g1005
ag1023
aaa(lp1027
I1330
aI1334
ag1023
a(lp1028
g996
ag1023
aaa(lp1029
I1330
aI1334
ag1023
a(lp1030
g987
ag1023
aaa(lp1031
I1336
aI1341
aS'really'
p1032
a(lp1033
g1023
ag1032
aaa(lp1034
I1336
aI1341
ag1032
a(lp1035
g1014
ag1032
aaa(lp1036
I1336
aI1341
ag1032
a(lp1037
g1005
ag1032
aaa(lp1038
I1336
aI1341
ag1032
a(lp1039
g996
ag1032
aaa(lp1040
I1346
aI1349
aS'good'
p1041
a(lp1042
g1032
ag1041
aaa(lp1043
I1346
aI1349
ag1041
a(lp1044
g1023
ag1041
aaa(lp1045
I1346
aI1349
ag1041
a(lp1046
g1014
ag1041
aaa(lp1047
I1346
aI1349
ag1041
a(lp1048
g1005
ag1041
aaa(lp1049
I1351
aI1357
aS'addons'
p1050
a(lp1051
g1041
ag1050
aaa(lp1052
I1351
aI1357
ag1050
a(lp1053
g1032
ag1050
aaa(lp1054
I1351
aI1357
ag1050
a(lp1055
g1023
ag1050
aaa(lp1056
I1351
aI1357
ag1050
a(lp1057
g1014
ag1050
aaa(lp1058
I1368
aI1372
aS'looks'
p1059
a(lp1060
g1050
ag1059
aaa(lp1061
I1368
aI1372
ag1059
a(lp1062
g1041
ag1059
aaa(lp1063
I1368
aI1372
ag1059
a(lp1064
g1032
ag1059
aaa(lp1065
I1368
aI1372
ag1059
a(lp1066
g1023
ag1059
aaa(lp1067
I1379
aI1388
aS'interviews'
p1068
a(lp1069
g1059
ag1068
aaa(lp1070
I1379
aI1388
ag1068
a(lp1071
g1050
ag1068
aaa(lp1072
I1379
aI1388
ag1068
a(lp1073
g1041
ag1068
aaa(lp1074
I1379
aI1388
ag1068
a(lp1075
g1032
ag1068
aaa(lp1076
I1391
aI1393
aS'job'
p1077
a(lp1078
g1068
ag1077
aaa(lp1079
I1391
aI1393
ag1077
a(lp1080
g1059
ag1077
aaa(lp1081
I1391
aI1393
ag1077
a(lp1082
g1050
ag1077
aaa(lp1083
I1391
aI1393
ag1077
a(lp1084
g1041
ag1077
aaa(lp1085
I1395
aI1404
aS'interviews'
p1086
a(lp1087
g1077
ag1086
aaa(lp1088
I1395
aI1404
ag1086
a(lp1089
g1068
ag1086
aaa(lp1090
I1395
aI1404
ag1086
a(lp1091
g1059
ag1086
aaa(lp1092
I1395
aI1404
ag1086
a(lp1093
g1050
ag1086
aaa(lp1094
I1407
aI1410
aS'make'
p1095
a(lp1096
g1086
ag1095
aaa(lp1097
I1407
aI1410
ag1095
a(lp1098
g1077
ag1095
aaa(lp1099
I1407
aI1410
ag1095
a(lp1100
g1068
ag1095
aaa(lp1101
I1407
aI1410
ag1095
a(lp1102
g1059
ag1095
aaa(lp1103
I1412
aI1415
aS'sure'
p1104
a(lp1105
g1095
ag1104
aaa(lp1106
I1412
aI1415
ag1104
a(lp1107
g1086
ag1104
aaa(lp1108
I1412
aI1415
ag1104
a(lp1109
g1077
ag1104
aaa(lp1110
I1412
aI1415
ag1104
a(lp1111
g1068
ag1104
aaa(lp1112
I1433
aI1436
aS'wear'
p1113
a(lp1114
g1104
ag1113
aaa(lp1115
I1433
aI1436
ag1113
a(lp1116
g1095
ag1113
aaa(lp1117
I1433
aI1436
ag1113
a(lp1118
g1086
ag1113
aaa(lp1119
I1433
aI1436
ag1113
a(lp1120
g1077
ag1113
aaa(lp1121
I1442
aI1445
aS'much'
p1122
a(lp1123
g1113
ag1122
aaa(lp1124
I1442
aI1445
ag1122
a(lp1125
g1104
ag1122
aaa(lp1126
I1442
aI1445
ag1122
a(lp1127
g1095
ag1122
aaa(lp1128
I1442
aI1445
ag1122
a(lp1129
g1086
ag1122
aaa(lp1130
I1452
aI1458
aS'example'
p1131
a(lp1132
g1122
ag1131
aaa(lp1133
I1452
aI1458
ag1131
a(lp1134
g1113
ag1131
aaa(lp1135
I1452
aI1458
ag1131
a(lp1136
g1104
ag1131
aaa(lp1137
I1452
aI1458
ag1131
a(lp1138
g1095
ag1131
aaa(lp1139
I1460
aI1467
aS'earrings'
p1140
a(lp1141
g1131
ag1140
aaa(lp1142
I1460
aI1467
ag1140
a(lp1143
g1122
ag1140
aaa(lp1144
I1460
aI1467
ag1140
a(lp1145
g1113
ag1140
aaa(lp1146
I1460
aI1467
ag1140
a(lp1147
g1104
ag1140
aaa(lp1148
I1477
aI1480
aS'show'
p1149
a(lp1150
g1140
ag1149
aaa(lp1151
I1477
aI1480
ag1149
a(lp1152
g1131
ag1149
aaa(lp1153
I1477
aI1480
ag1149
a(lp1154
g1122
ag1149
aaa(lp1155
I1477
aI1480
ag1149
a(lp1156
g1113
ag1149
aaa(lp1157
I1510
aI1512
aS'one'
p1158
a(lp1159
g1149
ag1158
aaa(lp1160
I1510
aI1512
ag1158
a(lp1161
g1140
ag1158
aaa(lp1162
I1510
aI1512
ag1158
a(lp1163
g1131
ag1158
aaa(lp1164
I1510
aI1512
ag1158
a(lp1165
g1122
ag1158
aaa(lp1166
I1514
aI1521
aS'piercing'
p1167
a(lp1168
g1158
ag1167
aaa(lp1169
I1514
aI1521
ag1167
a(lp1170
g1149
ag1167
aaa(lp1171
I1514
aI1521
ag1167
a(lp1172
g1140
ag1167
aaa(lp1173
I1514
aI1521
ag1167
a(lp1174
g1131
ag1167
aaa(lp1175
I1523
aI1525
aS'per'
p1176
a(lp1177
g1167
ag1176
aaa(lp1178
I1523
aI1525
ag1176
a(lp1179
g1158
ag1176
aaa(lp1180
I1523
aI1525
ag1176
a(lp1181
g1149
ag1176
aaa(lp1182
I1523
aI1525
ag1176
a(lp1183
g1140
ag1176
aaa(lp1184
I1527
aI1529
aS'ear'
p1185
a(lp1186
g1176
ag1185
aaa(lp1187
I1527
aI1529
ag1185
a(lp1188
g1167
ag1185
aaa(lp1189
I1527
aI1529
ag1185
a(lp1190
g1158
ag1185
aaa(lp1191
I1527
aI1529
ag1185
a(lp1192
g1149
ag1185
aaa(lp1193
I1534
aI1540
aS'wearing'
p1194
a(lp1195
g1185
ag1194
aaa(lp1196
I1534
aI1540
ag1194
a(lp1197
g1176
ag1194
aaa(lp1198
I1534
aI1540
ag1194
a(lp1199
g1167
ag1194
aaa(lp1200
I1534
aI1540
ag1194
a(lp1201
g1158
ag1194
aaa(lp1202
I1552
aI1554
aS'one'
p1203
a(lp1204
g1194
ag1203
aaa(lp1205
I1552
aI1554
ag1203
a(lp1206
g1185
ag1203
aaa(lp1207
I1552
aI1554
ag1203
a(lp1208
g1176
ag1203
aaa(lp1209
I1552
aI1554
ag1203
a(lp1210
g1167
ag1203
aaa(lp1211
I1556
aI1562
aS'earring'
p1212
a(lp1213
g1203
ag1212
aaa(lp1214
I1556
aI1562
ag1212
a(lp1215
g1194
ag1212
aaa(lp1216
I1556
aI1562
ag1212
a(lp1217
g1185
ag1212
aaa(lp1218
I1556
aI1562
ag1212
a(lp1219
g1176
ag1212
aaa(lp1220
I1565
aI1567
aS'tie'
p1221
a(lp1222
g1212
ag1221
aaa(lp1223
I1565
aI1567
ag1221
a(lp1224
g1203
ag1221
aaa(lp1225
I1565
aI1567
ag1221
a(lp1226
g1194
ag1221
aaa(lp1227
I1565
aI1567
ag1221
a(lp1228
g1185
ag1221
aaa(lp1229
I1582
aI1584
aS'men'
p1230
a(lp1231
g1221
ag1230
aaa(lp1232
I1582
aI1584
ag1230
a(lp1233
g1212
ag1230
aaa(lp1234
I1582
aI1584
ag1230
a(lp1235
g1203
ag1230
aaa(lp1236
I1582
aI1584
ag1230
a(lp1237
g1194
ag1230
aaa(lp1238
I1591
aI1596
aS'safest'
p1239
a(lp1240
g1230
ag1239
aaa(lp1241
I1591
aI1596
ag1239
a(lp1242
g1221
ag1239
aaa(lp1243
I1591
aI1596
ag1239
a(lp1244
g1212
ag1239
aaa(lp1245
I1591
aI1596
ag1239
a(lp1246
g1203
ag1239
aaa(lp1247
I1601
aI1604
aS'wear'
p1248
a(lp1249
g1239
ag1248
aaa(lp1250
I1601
aI1604
ag1248
a(lp1251
g1230
ag1248
aaa(lp1252
I1601
aI1604
ag1248
a(lp1253
g1221
ag1248
aaa(lp1254
I1601
aI1604
ag1248
a(lp1255
g1212
ag1248
aaa(lp1256
I1611
aI1618
aS'collared'
p1257
a(lp1258
g1248
ag1257
aaa(lp1259
I1611
aI1618
ag1257
a(lp1260
g1239
ag1257
aaa(lp1261
I1611
aI1618
ag1257
a(lp1262
g1230
ag1257
aaa(lp1263
I1611
aI1618
ag1257
a(lp1264
g1221
ag1257
aaa(lp1265
I1620
aI1624
aS'shirt'
p1266
a(lp1267
g1257
ag1266
aaa(lp1268
I1620
aI1624
ag1266
a(lp1269
g1248
ag1266
aaa(lp1270
I1620
aI1624
ag1266
a(lp1271
g1239
ag1266
aaa(lp1272
I1620
aI1624
ag1266
a(lp1273
g1230
ag1266
aaa(lp1274
I1633
aI1637
aS'would'
p1275
a(lp1276
g1266
ag1275
aaa(lp1277
I1633
aI1637
ag1275
a(lp1278
g1257
ag1275
aaa(lp1279
I1633
aI1637
ag1275
a(lp1280
g1248
ag1275
aaa(lp1281
I1633
aI1637
ag1275
a(lp1282
g1239
ag1275
aaa(lp1283
I1642
aI1645
aS'also'
p1284
a(lp1285
g1275
ag1284
aaa(lp1286
I1642
aI1645
ag1284
a(lp1287
g1266
ag1284
aaa(lp1288
I1642
aI1645
ag1284
a(lp1289
g1257
ag1284
aaa(lp1290
I1642
aI1645
ag1284
a(lp1291
g1248
ag1284
aaa(lp1292
I1652
aI1663
aS'professional'
p1293
a(lp1294
g1284
ag1293
aaa(lp1295
I1652
aI1663
ag1293
a(lp1296
g1275
ag1293
aaa(lp1297
I1652
aI1663
ag1293
a(lp1298
g1266
ag1293
aaa(lp1299
I1652
aI1663
ag1293
a(lp1300
g1257
ag1293
aaa(lp1301
I1668
aI1671
aS'wear'
p1302
a(lp1303
g1293
ag1302
aaa(lp1304
I1668
aI1671
ag1302
a(lp1305
g1284
ag1302
aaa(lp1306
I1668
aI1671
ag1302
a(lp1307
g1275
ag1302
aaa(lp1308
I1668
aI1671
ag1302
a(lp1309
g1266
ag1302
aaa(lp1310
I1675
aI1686
aS'longsleeved'
p1311
a(lp1312
g1302
ag1311
aaa(lp1313
I1675
aI1686
ag1311
a(lp1314
g1293
ag1311
aaa(lp1315
I1675
aI1686
ag1311
a(lp1316
g1284
ag1311
aaa(lp1317
I1675
aI1686
ag1311
a(lp1318
g1275
ag1311
aaa(lp1319
I1688
aI1690
aS'top'
p1320
a(lp1321
g1311
ag1320
aaa(lp1322
I1688
aI1690
ag1320
a(lp1323
g1302
ag1320
aaa(lp1324
I1688
aI1690
ag1320
a(lp1325
g1293
ag1320
aaa(lp1326
I1688
aI1690
ag1320
a(lp1327
g1284
ag1320
aaa(lp1328
I1697
aI1699
aS'tie'
p1329
a(lp1330
g1320
ag1329
aaa(lp1331
I1697
aI1699
ag1329
a(lp1332
g1311
ag1329
aaa(lp1333
I1697
aI1699
ag1329
a(lp1334
g1302
ag1329
aaa(lp1335
I1697
aI1699
ag1329
a(lp1336
g1293
ag1329
aaa(lp1337
I1702
aI1706
aS'never'
p1338
a(lp1339
g1329
ag1338
aaa(lp1340
I1702
aI1706
ag1338
a(lp1341
g1320
ag1338
aaa(lp1342
I1702
aI1706
ag1338
a(lp1343
g1311
ag1338
aaa(lp1344
I1702
aI1706
ag1338
a(lp1345
g1302
ag1338
aaa(lp1346
I1708
aI1711
aS'wear'
p1347
a(lp1348
g1338
ag1347
aaa(lp1349
I1708
aI1711
ag1347
a(lp1350
g1329
ag1347
aaa(lp1351
I1708
aI1711
ag1347
a(lp1352
g1320
ag1347
aaa(lp1353
I1708
aI1711
ag1347
a(lp1354
g1311
ag1347
aaa(lp1355
I1713
aI1723
aS'turtleneck'
p1356
a(lp1357
g1347
ag1356
aaa(lp1358
I1713
aI1723
ag1356
a(lp1359
g1338
ag1356
aaa(lp1360
I1713
aI1723
ag1356
a(lp1361
g1329
ag1356
aaa(lp1362
I1713
aI1723
ag1356
a(lp1363
g1320
ag1356
aaa(lp1364
I1732
aI1740
aS'interview'
p1365
a(lp1366
g1356
ag1365
aaa(lp1367
I1732
aI1740
ag1365
a(lp1368
g1347
ag1365
aaa(lp1369
I1732
aI1740
ag1365
a(lp1370
g1338
ag1365
aaa(lp1371
I1732
aI1740
ag1365
a(lp1372
g1329
ag1365
aaa(lp1373
I1747
aI1749
aS'may'
p1374
a(lp1375
g1365
ag1374
aaa(lp1376
I1747
aI1749
ag1374
a(lp1377
g1356
ag1374
aaa(lp1378
I1747
aI1749
ag1374
a(lp1379
g1347
ag1374
aaa(lp1380
I1747
aI1749
ag1374
a(lp1381
g1338
ag1374
aaa(lp1382
I1756
aI1758
aS'end'
p1383
a(lp1384
g1374
ag1383
aaa(lp1385
I1756
aI1758
ag1383
a(lp1386
g1365
ag1383
aaa(lp1387
I1756
aI1758
ag1383
a(lp1388
g1356
ag1383
aaa(lp1389
I1756
aI1758
ag1383
a(lp1390
g1347
ag1383
aaa(lp1391
I1763
aI1768
aS'sweaty'
p1392
a(lp1393
g1383
ag1392
aaa(lp1394
I1763
aI1768
ag1392
a(lp1395
g1374
ag1392
aaa(lp1396
I1763
aI1768
ag1392
a(lp1397
g1365
ag1392
aaa(lp1398
I1763
aI1768
ag1392
a(lp1399
g1356
ag1392
aaa(lp1400
I1781
aI1787
aS'fashion'
p1401
a(lp1402
g1392
ag1401
aaa(lp1403
I1781
aI1787
ag1401
a(lp1404
g1383
ag1401
aaa(lp1405
I1781
aI1787
ag1401
a(lp1406
g1374
ag1401
aaa(lp1407
I1781
aI1787
ag1401
a(lp1408
g1365
ag1401
aaa(lp1409
I1814
aI1818
aS'power'
p1410
a(lp1411
g1401
ag1410
aaa(lp1412
I1814
aI1818
ag1410
a(lp1413
g1392
ag1410
aaa(lp1414
I1814
aI1818
ag1410
a(lp1415
g1383
ag1410
aaa(lp1416
I1814
aI1818
ag1410
a(lp1417
g1374
ag1410
aaa(lp1418
I1820
aI1826
aS'dresser'
p1419
a(lp1420
g1410
ag1419
aaa(lp1421
I1820
aI1826
ag1419
a(lp1422
g1401
ag1419
aaa(lp1423
I1820
aI1826
ag1419
a(lp1424
g1392
ag1419
aaa(lp1425
I1820
aI1826
ag1419
a(lp1426
g1383
ag1419
aaa(lp1427
I1833
aI1836
aS'head'
p1428
a(lp1429
g1419
ag1428
aaa(lp1430
I1833
aI1836
ag1428
a(lp1431
g1410
ag1428
aaa(lp1432
I1833
aI1836
ag1428
a(lp1433
g1401
ag1428
aaa(lp1434
I1833
aI1836
ag1428
a(lp1435
g1392
ag1428
aaa(lp1436
I1838
aI1843
aS'turner'
p1437
a(lp1438
g1428
ag1437
aaa(lp1439
I1838
aI1843
ag1437
a(lp1440
g1419
ag1437
aaa(lp1441
I1838
aI1843
ag1437
a(lp1442
g1410
ag1437
aaa(lp1443
I1838
aI1843
ag1437
a(lp1444
g1401
ag1437
aaa(lp1445
I1854
aI1857
aS'wear'
p1446
a(lp1447
g1437
ag1446
aaa(lp1448
I1854
aI1857
ag1446
a(lp1449
g1428
ag1446
aaa(lp1450
I1854
aI1857
ag1446
a(lp1451
g1419
ag1446
aaa(lp1452
I1854
aI1857
ag1446
a(lp1453
g1410
ag1446
aaa(lp1454
I1859
aI1865
aS'clothes'
p1455
a(lp1456
g1446
ag1455
aaa(lp1457
I1859
aI1865
ag1455
a(lp1458
g1437
ag1455
aaa(lp1459
I1859
aI1865
ag1455
a(lp1460
g1428
ag1455
aaa(lp1461
I1859
aI1865
ag1455
a(lp1462
g1419
ag1455
aaa(lp1463
I1873
aI1875
aS'job'
p1464
a(lp1465
g1455
ag1464
aaa(lp1466
I1873
aI1875
ag1464
a(lp1467
g1446
ag1464
aaa(lp1468
I1873
aI1875
ag1464
a(lp1469
g1437
ag1464
aaa(lp1470
I1873
aI1875
ag1464
a(lp1471
g1428
ag1464
aaa(lp1472
I1877
aI1885
aS'interview'
p1473
a(lp1474
g1464
ag1473
aaa(lp1475
I1877
aI1885
ag1473
a(lp1476
g1455
ag1473
aaa(lp1477
I1877
aI1885
ag1473
a(lp1478
g1446
ag1473
aaa(lp1479
I1877
aI1885
ag1473
a(lp1480
g1437
ag1473
aaa(lp1481
I1905
aI1912
aS'remember'
p1482
a(lp1483
g1473
ag1482
aaa(lp1484
I1905
aI1912
ag1482
a(lp1485
g1464
ag1482
aaa(lp1486
I1905
aI1912
ag1482
a(lp1487
g1455
ag1482
aaa(lp1488
I1905
aI1912
ag1482
a(lp1489
g1446
ag1482
aaa(lp1490
I1918
aI1922
aS'basic'
p1491
a(lp1492
g1482
ag1491
aaa(lp1493
I1918
aI1922
ag1491
a(lp1494
g1473
ag1491
aaa(lp1495
I1918
aI1922
ag1491
a(lp1496
g1464
ag1491
aaa(lp1497
I1918
aI1922
ag1491
a(lp1498
g1455
ag1491
aaa(lp1499
I1924
aI1932
aS'reminders'
p1500
a(lp1501
g1491
ag1500
aaa(lp1502
I1924
aI1932
ag1500
a(lp1503
g1482
ag1500
aaa(lp1504
I1924
aI1932
ag1500
a(lp1505
g1473
ag1500
aaa(lp1506
I1924
aI1932
ag1500
a(lp1507
g1464
ag1500
aaa(lp1508
I1937
aI1943
aS'looking'
p1509
a(lp1510
g1500
ag1509
aaa(lp1511
I1937
aI1943
ag1509
a(lp1512
g1491
ag1509
aaa(lp1513
I1937
aI1943
ag1509
a(lp1514
g1482
ag1509
aaa(lp1515
I1937
aI1943
ag1509
a(lp1516
g1473
ag1509
aaa(lp1517
I1945
aI1956
aS'professional'
p1518
a(lp1519
g1509
ag1518
aaa(lp1520
I1945
aI1956
ag1518
a(lp1521
g1500
ag1518
aaa(lp1522
I1945
aI1956
ag1518
a(lp1523
g1491
ag1518
aaa(lp1524
I1945
aI1956
ag1518
a(lp1525
g1482
ag1518
aaa(lp1526
I1962
aI1972
aS'presentable'
p1527
a(lp1528
g1518
ag1527
aaa(lp1529
I1962
aI1972
ag1527
a(lp1530
g1509
ag1527
aaa(lp1531
I1962
aI1972
ag1527
a(lp1532
g1500
ag1527
aaa(lp1533
I1962
aI1972
ag1527
a(lp1534
g1491
ag1527
aaa(lp1535
I1980
aI1986
aS'article'
p1536
a(lp1537
g1527
ag1536
aaa(lp1538
I1980
aI1986
ag1536
a(lp1539
g1518
ag1536
aaa(lp1540
I1980
aI1986
ag1536
a(lp1541
g1509
ag1536
aaa(lp1542
I1980
aI1986
ag1536
a(lp1543
g1500
ag1536
aaa(lp1544
I1988
aI1992
aS'would'
p1545
a(lp1546
g1536
ag1545
aaa(lp1547
I1988
aI1992
ag1545
a(lp1548
g1527
ag1545
aaa(lp1549
I1988
aI1992
ag1545
a(lp1550
g1518
ag1545
aaa(lp1551
I1988
aI1992
ag1545
a(lp1552
g1509
ag1545
aaa(lp1553
I1994
aI2003
aS'definitely'
p1554
a(lp1555
g1545
ag1554
aaa(lp1556
I1994
aI2003
ag1554
a(lp1557
g1536
ag1554
aaa(lp1558
I1994
aI2003
ag1554
a(lp1559
g1527
ag1554
aaa(lp1560
I1994
aI2003
ag1554
a(lp1561
g1518
ag1554
aaa(lp1562
I2010
aI2016
aS'benefit'
p1563
a(lp1564
g1554
ag1563
aaa(lp1565
I2010
aI2016
ag1563
a(lp1566
g1545
ag1563
aaa(lp1567
I2010
aI2016
ag1563
a(lp1568
g1536
ag1563
aaa(lp1569
I2010
aI2016
ag1563
a(lp1570
g1527
ag1563
aaa(lp1571
I2036
aI2044
aS'preparing'
p1572
a(lp1573
g1563
ag1572
aaa(lp1574
I2036
aI2044
ag1572
a(lp1575
g1554
ag1572
aaa(lp1576
I2036
aI2044
ag1572
a(lp1577
g1545
ag1572
aaa(lp1578
I2036
aI2044
ag1572
a(lp1579
g1536
ag1572
aaa(lp1580
I2052
aI2054
aS'job'
p1581
a(lp1582
g1572
ag1581
aaa(lp1583
I2052
aI2054
ag1581
a(lp1584
g1563
ag1581
aaa(lp1585
I2052
aI2054
ag1581
a(lp1586
g1554
ag1581
aaa(lp1587
I2052
aI2054
ag1581
a(lp1588
g1545
ag1581
aaa(lp1589
I2056
aI2064
aS'interview'
p1590
a(lp1591
g1581
ag1590
aaa(lp1592
I2056
aI2064
ag1590
a(lp1593
g1572
ag1590
aaa(lp1594
I2056
aI2064
ag1590
a(lp1595
g1563
ag1590
aaa(lp1596
I2056
aI2064
ag1590
a(lp1597
g1554
ag1590
aaa(lp1598
I2087
aI2090
aS'idea'
p1599
a(lp1600
g1590
ag1599
aaa(lp1601
I2087
aI2090
ag1599
a(lp1602
g1581
ag1599
aaa(lp1603
I2087
aI2090
ag1599
a(lp1604
g1572
ag1599
aaa(lp1605
I2087
aI2090
ag1599
a(lp1606
g1563
ag1599
aaa(lp1607
I2116
aI2118
aS'job'
p1608
a(lp1609
g1599
ag1608
aaa(lp1610
I2116
aI2118
ag1608
a(lp1611
g1590
ag1608
aaa(lp1612
I2116
aI2118
ag1608
a(lp1613
g1581
ag1608
aaa(lp1614
I2116
aI2118
ag1608
a(lp1615
g1572
ag1608
aaa(lp1616
I2120
aI2128
aS'interview'
p1617
a(lp1618
g1608
ag1617
aaa(lp1619
I2120
aI2128
ag1617
a(lp1620
g1599
ag1617
aaa(lp1621
I2120
aI2128
ag1617
a(lp1622
g1590
ag1617
aaa(lp1623
I2120
aI2128
ag1617
a(lp1624
g1581
ag1617
aaa(lp1625
I2134
aI2141
aS'comments'
p1626
a(lp1627
g1617
ag1626
aaa(lp1628
I2134
aI2141
ag1626
a(lp1629
g1608
ag1626
aaa(lp1630
I2134
aI2141
ag1626
a(lp1631
g1599
ag1626
aaa(lp1632
I2134
aI2141
ag1626
a(lp1633
g1590
ag1626
aaasS'wordMap'
p1634
(lp1635
(lp1636
I0
aI3
aS'what'
p1637
a(lp1638
(lp1639
I0
aS'w'
p1640
aa(lp1641
I1
aS'h'
p1642
aa(lp1643
I2
aS'a'
p1644
aa(lp1645
I3
aS't'
p1646
aaaa(lp1647
I5
aI10
aS'should'
p1648
a(lp1649
(lp1650
I5
aS's'
p1651
aa(lp1652
I6
ag1642
aa(lp1653
I7
aS'o'
p1654
aa(lp1655
I8
aS'u'
p1656
aa(lp1657
I9
aS'l'
p1658
aa(lp1659
I10
aS'd'
p1660
aaaa(lp1661
I12
aI12
aS'i'
p1662
a(lp1663
(lp1664
I12
ag1662
aaaa(lp1665
I14
aI16
aS'not'
p1666
a(lp1667
(lp1668
I14
aS'n'
p1669
aa(lp1670
I15
ag1654
aa(lp1671
I16
ag1646
aaaa(lp1672
I18
aI21
ag5
a(lp1673
(lp1674
I18
ag1640
aa(lp1675
I19
aS'e'
p1676
aa(lp1677
I20
ag1644
aa(lp1678
I21
aS'r'
p1679
aaaa(lp1680
I23
aI24
aS'to'
p1681
a(lp1682
(lp1683
I23
ag1646
aa(lp1684
I24
ag1654
aaaa(lp1685
I26
aI26
ag1644
a(lp1686
(lp1687
I26
ag1644
aaaa(lp1688
I28
aI30
ag15
a(lp1689
(lp1690
I28
aS'j'
p1691
aa(lp1692
I29
ag1654
aa(lp1693
I30
aS'b'
p1694
aaaa(lp1695
I32
aI40
ag24
a(lp1696
(lp1697
I32
ag1662
aa(lp1698
I33
ag1669
aa(lp1699
I34
ag1646
aa(lp1700
I35
ag1676
aa(lp1701
I36
ag1679
aa(lp1702
I37
aS'v'
p1703
aa(lp1704
I38
ag1662
aa(lp1705
I39
ag1676
aa(lp1706
I40
ag1640
aaaa(lp1707
I43
aI48
ag33
a(lp1708
(lp1709
I43
aS'p'
p1710
aa(lp1711
I44
ag1654
aa(lp1712
I45
ag1651
aa(lp1713
I46
ag1646
aa(lp1714
I47
ag1676
aa(lp1715
I48
ag1660
aaaa(lp1716
I50
aI51
aS'by'
p1717
a(lp1718
(lp1719
I50
ag1694
aa(lp1720
I51
aS'y'
p1721
aaaa(lp1722
I53
aI54
ag42
a(lp1723
(lp1724
I53
ag1642
aa(lp1725
I54
ag1679
aaaa(lp1726
I60
aI68
ag51
a(lp1727
(lp1728
I60
ag1710
aa(lp1729
I61
ag1679
aa(lp1730
I62
ag1676
aa(lp1731
I63
ag1710
aa(lp1732
I64
ag1644
aa(lp1733
I65
ag1679
aa(lp1734
I66
ag1662
aa(lp1735
I67
ag1669
aa(lp1736
I68
aS'g'
p1737
aaaa(lp1738
I70
aI72
aS'for'
p1739
a(lp1740
(lp1741
I70
aS'f'
p1742
aa(lp1743
I71
ag1654
aa(lp1744
I72
ag1679
aaaa(lp1745
I74
aI74
ag1644
a(lp1746
(lp1747
I74
ag1644
aaaa(lp1748
I76
aI78
ag60
a(lp1749
(lp1750
I76
ag1691
aa(lp1751
I77
ag1654
aa(lp1752
I78
ag1694
aaaa(lp1753
I80
aI88
ag69
a(lp1754
(lp1755
I80
ag1662
aa(lp1756
I81
ag1669
aa(lp1757
I82
ag1646
aa(lp1758
I83
ag1676
aa(lp1759
I84
ag1679
aa(lp1760
I85
ag1703
aa(lp1761
I86
ag1662
aa(lp1762
I87
ag1676
aa(lp1763
I88
ag1640
aaaa(lp1764
I90
aI93
aS'when'
p1765
a(lp1766
(lp1767
I90
ag1640
aa(lp1768
I91
ag1642
aa(lp1769
I92
ag1676
aa(lp1770
I93
ag1669
aaaa(lp1771
I95
aI97
aS'you'
p1772
a(lp1773
(lp1774
I95
ag1721
aa(lp1775
I96
ag1654
aa(lp1776
I97
ag1656
aaaa(lp1777
I99
aI101
aS'are'
p1778
a(lp1779
(lp1780
I99
ag1644
aa(lp1781
I100
ag1679
aa(lp1782
I101
ag1676
aaaa(lp1783
I103
aI111
ag78
a(lp1784
(lp1785
I103
ag1710
aa(lp1786
I104
ag1679
aa(lp1787
I105
ag1676
aa(lp1788
I106
ag1710
aa(lp1789
I107
ag1644
aa(lp1790
I108
ag1679
aa(lp1791
I109
ag1662
aa(lp1792
I110
ag1669
aa(lp1793
I111
ag1737
aaaa(lp1794
I113
aI115
aS'for'
p1795
a(lp1796
(lp1797
I113
ag1742
aa(lp1798
I114
ag1654
aa(lp1799
I115
ag1679
aaaa(lp1800
I117
aI117
ag1644
a(lp1801
(lp1802
I117
ag1644
aaaa(lp1803
I119
aI121
ag87
a(lp1804
(lp1805
I119
ag1691
aa(lp1806
I120
ag1654
aa(lp1807
I121
ag1694
aaaa(lp1808
I123
aI131
ag96
a(lp1809
(lp1810
I123
ag1662
aa(lp1811
I124
ag1669
aa(lp1812
I125
ag1646
aa(lp1813
I126
ag1676
aa(lp1814
I127
ag1679
aa(lp1815
I128
ag1703
aa(lp1816
I129
ag1662
aa(lp1817
I130
ag1676
aa(lp1818
I131
ag1640
aaaa(lp1819
I133
aI135
aS'you'
p1820
a(lp1821
(lp1822
I133
ag1721
aa(lp1823
I134
ag1654
aa(lp1824
I135
ag1656
aaaa(lp1825
I137
aI140
ag105
a(lp1826
(lp1827
I137
ag1669
aa(lp1828
I138
ag1676
aa(lp1829
I139
ag1676
aa(lp1830
I140
ag1660
aaaa(lp1831
I142
aI143
aS'to'
p1832
a(lp1833
(lp1834
I142
ag1646
aa(lp1835
I143
ag1654
aaaa(lp1836
I145
aI152
ag114
a(lp1837
(lp1838
I145
ag1679
aa(lp1839
I146
ag1676
aa(lp1840
I147
aS'm'
p1841
aa(lp1842
I148
ag1676
aa(lp1843
I149
ag1841
aa(lp1844
I150
ag1694
aa(lp1845
I151
ag1676
aa(lp1846
I152
ag1679
aaaa(lp1847
I154
aI157
aS'that'
p1848
a(lp1849
(lp1850
I154
ag1646
aa(lp1851
I155
ag1642
aa(lp1852
I156
ag1644
aa(lp1853
I157
ag1646
aaaa(lp1854
I159
aI161
aS'the'
p1855
a(lp1856
(lp1857
I159
ag1646
aa(lp1858
I160
ag1642
aa(lp1859
I161
ag1676
aaaa(lp1860
I163
aI165
ag123
a(lp1861
(lp1862
I163
ag1640
aa(lp1863
I164
ag1644
aa(lp1864
I165
ag1721
aaaa(lp1865
I167
aI169
aS'you'
p1866
a(lp1867
(lp1868
I167
ag1721
aa(lp1869
I168
ag1654
aa(lp1870
I169
ag1656
aaaa(lp1871
I171
aI175
ag132
a(lp1872
(lp1873
I171
ag1660
aa(lp1874
I172
ag1679
aa(lp1875
I173
ag1676
aa(lp1876
I174
ag1651
aa(lp1877
I175
ag1651
aaaa(lp1878
I177
aI179
aS'can'
p1879
a(lp1880
(lp1881
I177
aS'c'
p1882
aa(lp1883
I178
ag1644
aa(lp1884
I179
ag1669
aaaa(lp1885
I181
aI184
ag141
a(lp1886
(lp1887
I181
ag1841
aa(lp1888
I182
ag1644
aa(lp1889
I183
aS'k'
p1890
aa(lp1891
I184
ag1676
aaaa(lp1892
I186
aI187
aS'or'
p1893
a(lp1894
(lp1895
I186
ag1654
aa(lp1896
I187
ag1679
aaaa(lp1897
I189
aI193
ag150
a(lp1898
(lp1899
I189
ag1694
aa(lp1900
I190
ag1679
aa(lp1901
I191
ag1676
aa(lp1902
I192
ag1644
aa(lp1903
I193
ag1890
aaaa(lp1904
I195
aI197
aS'you'
p1905
a(lp1906
(lp1907
I195
ag1721
aa(lp1908
I196
ag1654
aa(lp1909
I197
ag1656
aaaa(lp1910
I200
aI205
ag159
a(lp1911
(lp1912
I200
ag1710
aa(lp1913
I201
ag1676
aa(lp1914
I202
ag1654
aa(lp1915
I203
ag1710
aa(lp1916
I204
ag1658
aa(lp1917
I205
ag1676
aaaa(lp1918
I207
aI210
ag168
a(lp1919
(lp1920
I207
ag1669
aa(lp1921
I208
ag1676
aa(lp1922
I209
ag1676
aa(lp1923
I210
ag1660
aaaa(lp1924
I212
aI218
ag177
a(lp1925
(lp1926
I212
ag1882
aa(lp1927
I213
ag1658
aa(lp1928
I214
ag1654
aa(lp1929
I215
ag1646
aa(lp1930
I216
ag1642
aa(lp1931
I217
ag1676
aa(lp1932
I218
ag1651
aaaa(lp1933
I221
aI223
aS'but'
p1934
a(lp1935
(lp1936
I221
ag1694
aa(lp1937
I222
ag1656
aa(lp1938
I223
ag1646
aaaa(lp1939
I225
aI228
aS'more'
p1940
a(lp1941
(lp1942
I225
ag1841
aa(lp1943
I226
ag1654
aa(lp1944
I227
ag1679
aa(lp1945
I228
ag1676
aaaa(lp1946
I230
aI233
aS'than'
p1947
a(lp1948
(lp1949
I230
ag1646
aa(lp1950
I231
ag1642
aa(lp1951
I232
ag1644
aa(lp1952
I233
ag1669
aaaa(lp1953
I235
aI237
aS'the'
p1954
a(lp1955
(lp1956
I235
ag1646
aa(lp1957
I236
ag1642
aa(lp1958
I237
ag1676
aaaa(lp1959
I239
aI247
ag186
a(lp1960
(lp1961
I239
ag1669
aa(lp1962
I240
ag1676
aa(lp1963
I241
ag1882
aa(lp1964
I242
ag1676
aa(lp1965
I243
ag1651
aa(lp1966
I244
ag1651
aa(lp1967
I245
ag1662
aa(lp1968
I246
ag1646
aa(lp1969
I247
ag1721
aaaa(lp1970
I250
aI251
aS'it'
p1971
a(lp1972
(lp1973
I250
ag1662
aa(lp1974
I251
ag1646
aaaa(lp1975
I253
aI255
aS'can'
p1976
a(lp1977
(lp1978
I253
ag1882
aa(lp1979
I254
ag1644
aa(lp1980
I255
ag1669
aaaa(lp1981
I257
aI259
aS'not'
p1982
a(lp1983
(lp1984
I257
ag1669
aa(lp1985
I258
ag1654
aa(lp1986
I259
ag1646
aaaa(lp1987
I261
aI262
aS'be'
p1988
a(lp1989
(lp1990
I261
ag1694
aa(lp1991
I262
ag1676
aaaa(lp1992
I264
aI269
ag195
a(lp1993
(lp1994
I264
ag1660
aa(lp1995
I265
ag1676
aa(lp1996
I266
ag1669
aa(lp1997
I267
ag1662
aa(lp1998
I268
ag1676
aa(lp1999
I269
ag1660
aaaa(lp2000
I271
aI274
aS'that'
p2001
a(lp2002
(lp2003
I271
ag1646
aa(lp2004
I272
ag1642
aa(lp2005
I273
ag1644
aa(lp2006
I274
ag1646
aaaa(lp2007
I276
aI280
aS'those'
p2008
a(lp2009
(lp2010
I276
ag1646
aa(lp2011
I277
ag1642
aa(lp2012
I278
ag1654
aa(lp2013
I279
ag1651
aa(lp2014
I280
ag1676
aaaa(lp2015
I282
aI284
aS'who'
p2016
a(lp2017
(lp2018
I282
ag1640
aa(lp2019
I283
ag1642
aa(lp2020
I284
ag1654
aaaa(lp2021
I286
aI289
ag204
a(lp2022
(lp2023
I286
ag1890
aa(lp2024
I287
ag1669
aa(lp2025
I288
ag1654
aa(lp2026
I289
ag1640
aaaa(lp2027
I291
aI293
aS'how'
p2028
a(lp2029
(lp2030
I291
ag1642
aa(lp2031
I292
ag1654
aa(lp2032
I293
ag1640
aaaa(lp2033
I295
aI296
aS'to'
p2034
a(lp2035
(lp2036
I295
ag1646
aa(lp2037
I296
ag1654
aaaa(lp2038
I298
aI302
ag213
a(lp2039
(lp2040
I298
ag1660
aa(lp2041
I299
ag1679
aa(lp2042
I300
ag1676
aa(lp2043
I301
ag1651
aa(lp2044
I302
ag1651
aaaa(lp2045
I304
aI307
ag222
a(lp2046
(lp2047
I304
ag1640
aa(lp2048
I305
ag1676
aa(lp2049
I306
ag1658
aa(lp2050
I307
ag1658
aaaa(lp2051
I310
aI312
aS'for'
p2052
a(lp2053
(lp2054
I310
ag1742
aa(lp2055
I311
ag1654
aa(lp2056
I312
ag1679
aaaa(lp2057
I314
aI319
ag231
a(lp2058
(lp2059
I314
ag1676
aa(lp2060
I315
ag1662
aa(lp2061
I316
ag1646
aa(lp2062
I317
ag1642
aa(lp2063
I318
ag1676
aa(lp2064
I319
ag1679
aaaa(lp2065
I321
aI322
aS'an'
p2066
a(lp2067
(lp2068
I321
ag1644
aa(lp2069
I322
ag1669
aaaa(lp2070
I324
aI331
ag240
a(lp2071
(lp2072
I324
ag1654
aa(lp2073
I325
ag1679
aa(lp2074
I326
ag1660
aa(lp2075
I327
ag1662
aa(lp2076
I328
ag1669
aa(lp2077
I329
ag1644
aa(lp2078
I330
ag1679
aa(lp2079
I331
ag1721
aaaa(lp2080
I333
aI335
ag249
a(lp2081
(lp2082
I333
ag1660
aa(lp2083
I334
ag1644
aa(lp2084
I335
ag1721
aaaa(lp2085
I337
aI338
aS'or'
p2086
a(lp2087
(lp2088
I337
ag1654
aa(lp2089
I338
ag1679
aaaa(lp2090
I340
aI340
ag1644
a(lp2091
(lp2092
I340
ag1644
aaaa(lp2093
I342
aI348
ag258
a(lp2094
(lp2095
I342
ag1651
aa(lp2096
I343
ag1710
aa(lp2097
I344
ag1676
aa(lp2098
I345
ag1882
aa(lp2099
I346
ag1662
aa(lp2100
I347
ag1644
aa(lp2101
I348
ag1658
aaaa(lp2102
I350
aI357
ag267
a(lp2103
(lp2104
I350
ag1654
aa(lp2105
I351
ag1882
aa(lp2106
I352
ag1882
aa(lp2107
I353
ag1644
aa(lp2108
I354
ag1651
aa(lp2109
I355
ag1662
aa(lp2110
I356
ag1654
aa(lp2111
I357
ag1669
aaaa(lp2112
I359
aI362
aS'will'
p2113
a(lp2114
(lp2115
I359
ag1640
aa(lp2116
I360
ag1662
aa(lp2117
I361
ag1658
aa(lp2118
I362
ag1658
aaaa(lp2119
I364
aI369
ag276
a(lp2120
(lp2121
I364
ag1882
aa(lp2122
I365
ag1679
aa(lp2123
I366
ag1676
aa(lp2124
I367
ag1644
aa(lp2125
I368
ag1646
aa(lp2126
I369
ag1676
aaaa(lp2127
I371
aI381
ag285
a(lp2128
(lp2129
I371
ag1662
aa(lp2130
I372
ag1841
aa(lp2131
I373
ag1710
aa(lp2132
I374
ag1679
aa(lp2133
I375
ag1676
aa(lp2134
I376
ag1651
aa(lp2135
I377
ag1651
aa(lp2136
I378
ag1662
aa(lp2137
I379
ag1654
aa(lp2138
I380
ag1669
aa(lp2139
I381
ag1651
aaaa(lp2140
I383
aI386
aS'that'
p2141
a(lp2142
(lp2143
I383
ag1646
aa(lp2144
I384
ag1642
aa(lp2145
I385
ag1644
aa(lp2146
I386
ag1646
aaaa(lp2147
I388
aI390
aS'are'
p2148
a(lp2149
(lp2150
I388
ag1644
aa(lp2151
I389
ag1679
aa(lp2152
I390
ag1676
aaaa(lp2153
I392
aI399
ag294
a(lp2154
(lp2155
I392
ag1710
aa(lp2156
I393
ag1654
aa(lp2157
I394
ag1651
aa(lp2158
I395
ag1662
aa(lp2159
I396
ag1646
aa(lp2160
I397
ag1662
aa(lp2161
I398
ag1703
aa(lp2162
I399
ag1676
aaaa(lp2163
I402
aI404
aS'for'
p2164
a(lp2165
(lp2166
I402
ag1742
aa(lp2167
I403
ag1654
aa(lp2168
I404
ag1679
aaaa(lp2169
I406
aI407
ag303
a(lp2170
(lp2171
I406
ag1656
aa(lp2172
I407
ag1651
aaaa(lp2173
I409
aI410
aS'to'
p2174
a(lp2175
(lp2176
I409
ag1646
aa(lp2177
I410
ag1654
aaaa(lp2178
I412
aI415
ag312
a(lp2179
(lp2180
I412
ag1882
aa(lp2181
I413
ag1654
aa(lp2182
I414
ag1841
aa(lp2183
I415
ag1676
aaaa(lp2184
I417
aI418
aS'up'
p2185
a(lp2186
(lp2187
I417
ag1656
aa(lp2188
I418
ag1710
aaaa(lp2189
I420
aI423
aS'with'
p2190
a(lp2191
(lp2192
I420
ag1640
aa(lp2193
I421
ag1662
aa(lp2194
I422
ag1646
aa(lp2195
I423
ag1642
aaaa(lp2196
I425
aI427
aS'the'
p2197
a(lp2198
(lp2199
I425
ag1646
aa(lp2200
I426
ag1642
aa(lp2201
I427
ag1676
aaaa(lp2202
I429
aI434
ag321
a(lp2203
(lp2204
I429
ag1646
aa(lp2205
I430
ag1642
aa(lp2206
I431
ag1662
aa(lp2207
I432
ag1669
aa(lp2208
I433
ag1737
aa(lp2209
I434
ag1651
aaaa(lp2210
I436
aI438
aS'you'
p2211
a(lp2212
(lp2213
I436
ag1721
aa(lp2214
I437
ag1654
aa(lp2215
I438
ag1656
aaaa(lp2216
I440
aI443
aS'have'
p2217
a(lp2218
(lp2219
I440
ag1642
aa(lp2220
I441
ag1644
aa(lp2221
I442
ag1703
aa(lp2222
I443
ag1676
aaaa(lp2223
I445
aI446
aS'to'
p2224
a(lp2225
(lp2226
I445
ag1646
aa(lp2227
I446
ag1654
aaaa(lp2228
I448
aI453
ag330
a(lp2229
(lp2230
I448
ag1679
aa(lp2231
I449
ag1676
aa(lp2232
I450
ag1841
aa(lp2233
I451
ag1662
aa(lp2234
I452
ag1669
aa(lp2235
I453
ag1660
aaaa(lp2236
I455
aI458
aS'your'
p2237
a(lp2238
(lp2239
I455
ag1721
aa(lp2240
I456
ag1654
aa(lp2241
I457
ag1656
aa(lp2242
I458
ag1679
aaaa(lp2243
I460
aI463
ag339
a(lp2244
(lp2245
I460
ag1651
aa(lp2246
I461
ag1676
aa(lp2247
I462
ag1658
aa(lp2248
I463
ag1742
aaaa(lp2249
I465
aI470
aS'before'
p2250
a(lp2251
(lp2252
I465
ag1694
aa(lp2253
I466
ag1676
aa(lp2254
I467
ag1742
aa(lp2255
I468
ag1654
aa(lp2256
I469
ag1679
aa(lp2257
I470
ag1676
aaaa(lp2258
I472
aI477
ag348
a(lp2259
(lp2260
I472
ag1742
aa(lp2261
I473
ag1644
aa(lp2262
I474
ag1882
aa(lp2263
I475
ag1662
aa(lp2264
I476
ag1669
aa(lp2265
I477
ag1737
aaaa(lp2266
I479
aI482
aS'your'
p2267
a(lp2268
(lp2269
I479
ag1721
aa(lp2270
I480
ag1654
aa(lp2271
I481
ag1656
aa(lp2272
I482
ag1679
aaaa(lp2273
I484
aI494
ag357
a(lp2274
(lp2275
I484
ag1662
aa(lp2276
I485
ag1669
aa(lp2277
I486
ag1646
aa(lp2278
I487
ag1676
aa(lp2279
I488
ag1679
aa(lp2280
I489
ag1703
aa(lp2281
I490
ag1662
aa(lp2282
I491
ag1676
aa(lp2283
I492
ag1640
aa(lp2284
I493
ag1676
aa(lp2285
I494
ag1679
aaaa(lp2286
I497
aI499
ag366
a(lp2287
(lp2288
I497
ag1658
aa(lp2289
I498
ag1676
aa(lp2290
I499
ag1646
aaaa(lp2291
I501
aI502
ag375
a(lp2292
(lp2293
I501
ag1656
aa(lp2294
I502
ag1651
aaaa(lp2295
I504
aI511
ag384
a(lp2296
(lp2297
I504
ag1662
aa(lp2298
I505
ag1660
aa(lp2299
I506
ag1676
aa(lp2300
I507
ag1669
aa(lp2301
I508
ag1646
aa(lp2302
I509
ag1662
aa(lp2303
I510
ag1742
aa(lp2304
I511
ag1721
aaaa(lp2305
I513
aI517
aS'those'
p2306
a(lp2307
(lp2308
I513
ag1646
aa(lp2309
I514
ag1642
aa(lp2310
I515
ag1654
aa(lp2311
I516
ag1651
aa(lp2312
I517
ag1676
aaaa(lp2313
I519
aI525
ag393
a(lp2314
(lp2315
I519
ag1882
aa(lp2316
I520
ag1658
aa(lp2317
I521
ag1654
aa(lp2318
I522
ag1646
aa(lp2319
I523
ag1642
aa(lp2320
I524
ag1676
aa(lp2321
I525
ag1651
aaaa(lp2322
I528
aI530
aS'and'
p2323
a(lp2324
(lp2325
I528
ag1644
aa(lp2326
I529
ag1669
aa(lp2327
I530
ag1660
aaaa(lp2328
I532
aI535
ag402
a(lp2329
(lp2330
I532
ag1676
aa(lp2331
I533
ag1703
aa(lp2332
I534
ag1676
aa(lp2333
I535
ag1669
aaaa(lp2334
I537
aI547
ag411
a(lp2335
(lp2336
I537
ag1644
aa(lp2337
I538
ag1882
aa(lp2338
I539
ag1882
aa(lp2339
I540
ag1676
aa(lp2340
I541
ag1651
aa(lp2341
I542
ag1651
aa(lp2342
I543
ag1654
aa(lp2343
I544
ag1679
aa(lp2344
I545
ag1662
aa(lp2345
I546
ag1676
aa(lp2346
I547
ag1651
aaaa(lp2347
I549
aI552
aS'that'
p2348
a(lp2349
(lp2350
I549
ag1646
aa(lp2351
I550
ag1642
aa(lp2352
I551
ag1644
aa(lp2353
I552
ag1646
aaaa(lp2354
I554
aI558
ag420
a(lp2355
(lp2356
I554
ag1640
aa(lp2357
I555
ag1654
aa(lp2358
I556
ag1656
aa(lp2359
I557
ag1658
aa(lp2360
I558
ag1660
aaaa(lp2361
I560
aI562
aS'not'
p2362
a(lp2363
(lp2364
I560
ag1669
aa(lp2365
I561
ag1654
aa(lp2366
I562
ag1646
aaaa(lp2367
I564
aI565
aS'be'
p2368
a(lp2369
(lp2370
I564
ag1694
aa(lp2371
I565
ag1676
aaaa(lp2372
I567
aI576
ag429
a(lp2373
(lp2374
I567
ag1742
aa(lp2375
I568
ag1658
aa(lp2376
I569
ag1644
aa(lp2377
I570
ag1646
aa(lp2378
I571
ag1646
aa(lp2379
I572
ag1676
aa(lp2380
I573
ag1679
aa(lp2381
I574
ag1662
aa(lp2382
I575
ag1669
aa(lp2383
I576
ag1737
aaaa(lp2384
I578
aI579
aS'at'
p2385
a(lp2386
(lp2387
I578
ag1644
aa(lp2388
I579
ag1646
aaaa(lp2389
I581
aI583
aS'all'
p2390
a(lp2391
(lp2392
I581
ag1644
aa(lp2393
I582
ag1658
aa(lp2394
I583
ag1658
aaaa(lp2395
I586
aI589
ag438
a(lp2396
(lp2397
I586
ag1640
aa(lp2398
I587
ag1662
aa(lp2399
I588
ag1658
aa(lp2400
I589
ag1660
aaaa(lp2401
I591
aI596
ag447
a(lp2402
(lp2403
I591
ag1882
aa(lp2404
I592
ag1654
aa(lp2405
I593
ag1658
aa(lp2406
I594
ag1654
aa(lp2407
I595
ag1679
aa(lp2408
I596
ag1651
aaaa(lp2409
I598
aI600
aS'are'
p2410
a(lp2411
(lp2412
I598
ag1644
aa(lp2413
I599
ag1679
aa(lp2414
I600
ag1676
aaaa(lp2415
I602
aI604
aS'not'
p2416
a(lp2417
(lp2418
I602
ag1669
aa(lp2419
I603
ag1654
aa(lp2420
I604
ag1646
aaaa(lp2421
I606
aI608
ag456
a(lp2422
(lp2423
I606
ag1642
aa(lp2424
I607
ag1654
aa(lp2425
I608
ag1646
aaaa(lp2426
I611
aI613
aS'you'
p2427
a(lp2428
(lp2429
I611
ag1721
aa(lp2430
I612
ag1654
aa(lp2431
I613
ag1656
aaaa(lp2432
I615
aI619
ag465
a(lp2433
(lp2434
I615
ag1882
aa(lp2435
I616
ag1654
aa(lp2436
I617
ag1656
aa(lp2437
I618
ag1658
aa(lp2438
I619
ag1660
aaaa(lp2439
I621
aI622
aS'be'
p2440
a(lp2441
(lp2442
I621
ag1694
aa(lp2443
I622
ag1676
aaaa(lp2444
I624
aI626
aS'the'
p2445
a(lp2446
(lp2447
I624
ag1646
aa(lp2448
I625
ag1642
aa(lp2449
I626
ag1676
aaaa(lp2450
I628
aI634
ag474
a(lp2451
(lp2452
I628
ag1642
aa(lp2453
I629
ag1654
aa(lp2454
I630
ag1646
aa(lp2455
I631
ag1646
aa(lp2456
I632
ag1676
aa(lp2457
I633
ag1651
aa(lp2458
I634
ag1646
aaaa(lp2459
I636
aI641
ag483
a(lp2460
(lp2461
I636
ag1710
aa(lp2462
I637
ag1676
aa(lp2463
I638
ag1679
aa(lp2464
I639
ag1651
aa(lp2465
I640
ag1654
aa(lp2466
I641
ag1669
aaaa(lp2467
I643
aI646
aS'with'
p2468
a(lp2469
(lp2470
I643
ag1640
aa(lp2471
I644
ag1662
aa(lp2472
I645
ag1646
aa(lp2473
I646
ag1642
aaaa(lp2474
I648
aI652
aS'those'
p2475
a(lp2476
(lp2477
I648
ag1646
aa(lp2478
I649
ag1642
aa(lp2479
I650
ag1654
aa(lp2480
I651
ag1651
aa(lp2481
I652
ag1676
aaaa(lp2482
I654
aI656
ag492
a(lp2483
(lp2484
I654
ag1679
aa(lp2485
I655
ag1676
aa(lp2486
I656
ag1660
aaaa(lp2487
I658
aI667
ag501
a(lp2488
(lp2489
I658
ag1646
aa(lp2490
I659
ag1654
aa(lp2491
I660
ag1710
aa(lp2492
I662
ag1646
aa(lp2493
I663
ag1654
aa(lp2494
I665
ag1646
aa(lp2495
I666
ag1654
aa(lp2496
I667
ag1676
aaaa(lp2497
I669
aI671
ag510
a(lp2498
(lp2499
I669
ag1737
aa(lp2500
I670
ag1676
aa(lp2501
I671
ag1646
aaaa(lp2502
I673
aI674
aS'up'
p2503
a(lp2504
(lp2505
I673
ag1656
aa(lp2506
I674
ag1710
aaaa(lp2507
I677
aI678
aS'as'
p2508
a(lp2509
(lp2510
I677
ag1644
aa(lp2511
I678
ag1651
aaaa(lp2512
I680
aI683
ag519
a(lp2513
(lp2514
I680
ag1841
aa(lp2515
I681
ag1656
aa(lp2516
I682
ag1882
aa(lp2517
I683
ag1642
aaaa(lp2518
I685
aI686
aS'as'
p2519
a(lp2520
(lp2521
I685
ag1644
aa(lp2522
I686
ag1651
aaaa(lp2523
I688
aI695
ag528
a(lp2524
(lp2525
I688
ag1710
aa(lp2526
I689
ag1654
aa(lp2527
I690
ag1651
aa(lp2528
I691
ag1651
aa(lp2529
I692
ag1662
aa(lp2530
I693
ag1694
aa(lp2531
I694
ag1658
aa(lp2532
I695
ag1676
aaaa(lp2533
I697
aI700
ag537
a(lp2534
(lp2535
I697
ag1640
aa(lp2536
I698
ag1676
aa(lp2537
I699
ag1644
aa(lp2538
I700
ag1679
aaaa(lp2539
I702
aI710
ag546
a(lp2540
(lp2541
I702
ag1651
aa(lp2542
I703
ag1654
aa(lp2543
I704
ag1841
aa(lp2544
I705
ag1676
aa(lp2545
I706
ag1646
aa(lp2546
I707
ag1642
aa(lp2547
I708
ag1662
aa(lp2548
I709
ag1669
aa(lp2549
I710
ag1737
aaaa(lp2550
I712
aI715
aS'that'
p2551
a(lp2552
(lp2553
I712
ag1646
aa(lp2554
I713
ag1642
aa(lp2555
I714
ag1644
aa(lp2556
I715
ag1646
aaaa(lp2557
I717
aI718
aS'is'
p2558
a(lp2559
(lp2560
I717
ag1662
aa(lp2561
I718
ag1651
aaaa(lp2562
I720
aI725
ag555
a(lp2563
(lp2564
I720
ag1651
aa(lp2565
I721
ag1656
aa(lp2566
I722
ag1694
aa(lp2567
I723
ag1646
aa(lp2568
I724
ag1658
aa(lp2569
I725
ag1676
aaaa(lp2570
I727
aI728
aS'in'
p2571
a(lp2572
(lp2573
I727
ag1662
aa(lp2574
I728
ag1669
aaaa(lp2575
I730
aI734
ag564
a(lp2576
(lp2577
I730
ag1882
aa(lp2578
I731
ag1654
aa(lp2579
I732
ag1658
aa(lp2580
I733
ag1654
aa(lp2581
I734
ag1679
aaaa(lp2582
I736
aI738
aS'but'
p2583
a(lp2584
(lp2585
I736
ag1694
aa(lp2586
I737
ag1656
aa(lp2587
I738
ag1646
aaaa(lp2588
I740
aI744
ag573
a(lp2589
(lp2590
I740
ag1640
aa(lp2591
I741
ag1654
aa(lp2592
I742
ag1656
aa(lp2593
I743
ag1658
aa(lp2594
I744
ag1660
aaaa(lp2595
I746
aI749
ag582
a(lp2596
(lp2597
I746
ag1841
aa(lp2598
I747
ag1644
aa(lp2599
I748
ag1890
aa(lp2600
I749
ag1676
aaaa(lp2601
I751
aI753
aS'you'
p2602
a(lp2603
(lp2604
I751
ag1721
aa(lp2605
I752
ag1654
aa(lp2606
I753
ag1656
aaaa(lp2607
I755
aI759
ag591
a(lp2608
(lp2609
I755
ag1658
aa(lp2610
I756
ag1654
aa(lp2611
I757
ag1654
aa(lp2612
I758
ag1890
aa(lp2613
I759
ag1651
aaaa(lp2614
I761
aI770
ag600
a(lp2615
(lp2616
I761
ag1742
aa(lp2617
I762
ag1658
aa(lp2618
I763
ag1644
aa(lp2619
I764
ag1646
aa(lp2620
I765
ag1646
aa(lp2621
I766
ag1676
aa(lp2622
I767
ag1679
aa(lp2623
I768
ag1662
aa(lp2624
I769
ag1669
aa(lp2625
I770
ag1737
aaaa(lp2626
I772
aI774
aS'but'
p2627
a(lp2628
(lp2629
I772
ag1694
aa(lp2630
I773
ag1656
aa(lp2631
I774
ag1646
aaaa(lp2632
I776
aI778
aS'not'
p2633
a(lp2634
(lp2635
I776
ag1669
aa(lp2636
I777
ag1654
aa(lp2637
I778
ag1646
aaaa(lp2638
I780
aI782
aS'too'
p2639
a(lp2640
(lp2641
I780
ag1646
aa(lp2642
I781
ag1654
aa(lp2643
I782
ag1654
aaaa(lp2644
I784
aI787
ag609
a(lp2645
(lp2646
I784
ag1658
aa(lp2647
I785
ag1654
aa(lp2648
I786
ag1656
aa(lp2649
I787
ag1660
aaaa(lp2650
I790
aI797
ag618
a(lp2651
(lp2652
I790
ag1679
aa(lp2653
I791
ag1676
aa(lp2654
I792
ag1841
aa(lp2655
I793
ag1676
aa(lp2656
I794
ag1841
aa(lp2657
I795
ag1694
aa(lp2658
I796
ag1676
aa(lp2659
I797
ag1679
aaaa(lp2660
I799
aI802
aS'that'
p2661
a(lp2662
(lp2663
I799
ag1646
aa(lp2664
I800
ag1642
aa(lp2665
I801
ag1644
aa(lp2666
I802
ag1646
aaaa(lp2667
I804
aI806
aS'you'
p2668
a(lp2669
(lp2670
I804
ag1721
aa(lp2671
I805
ag1654
aa(lp2672
I806
ag1656
aaaa(lp2673
I808
aI810
aS'are'
p2674
a(lp2675
(lp2676
I808
ag1644
aa(lp2677
I809
ag1679
aa(lp2678
I810
ag1676
aaaa(lp2679
I812
aI816
aS'there'
p2680
a(lp2681
(lp2682
I812
ag1646
aa(lp2683
I813
ag1642
aa(lp2684
I814
ag1676
aa(lp2685
I815
ag1679
aa(lp2686
I816
ag1676
aaaa(lp2687
I818
aI820
aS'for'
p2688
a(lp2689
(lp2690
I818
ag1742
aa(lp2691
I819
ag1654
aa(lp2692
I820
ag1679
aaaa(lp2693
I822
aI823
aS'an'
p2694
a(lp2695
(lp2696
I822
ag1644
aa(lp2697
I823
ag1669
aaaa(lp2698
I825
aI833
ag627
a(lp2699
(lp2700
I825
ag1662
aa(lp2701
I826
ag1669
aa(lp2702
I827
ag1646
aa(lp2703
I828
ag1676
aa(lp2704
I829
ag1679
aa(lp2705
I830
ag1703
aa(lp2706
I831
ag1662
aa(lp2707
I832
ag1676
aa(lp2708
I833
ag1640
aaaa(lp2709
I835
aI837
aS'and'
p2710
a(lp2711
(lp2712
I835
ag1644
aa(lp2713
I836
ag1669
aa(lp2714
I837
ag1660
aaaa(lp2715
I839
aI841
aS'not'
p2716
a(lp2717
(lp2718
I839
ag1669
aa(lp2719
I840
ag1654
aa(lp2720
I841
ag1646
aaaa(lp2721
I843
aI845
aS'for'
p2722
a(lp2723
(lp2724
I843
ag1742
aa(lp2725
I844
ag1654
aa(lp2726
I845
ag1679
aaaa(lp2727
I847
aI847
ag1644
a(lp2728
(lp2729
I847
ag1644
aaaa(lp2730
I849
aI853
ag636
a(lp2731
(lp2732
I849
ag1669
aa(lp2733
I850
ag1662
aa(lp2734
I851
ag1737
aa(lp2735
I852
ag1642
aa(lp2736
I853
ag1646
aaaa(lp2737
I855
aI857
aS'out'
p2738
a(lp2739
(lp2740
I855
ag1654
aa(lp2741
I856
ag1656
aa(lp2742
I857
ag1646
aaaa(lp2743
I860
aI861
aS'it'
p2744
a(lp2745
(lp2746
I860
ag1662
aa(lp2747
I861
ag1646
aaaa(lp2748
I863
aI864
aS'is'
p2749
a(lp2750
(lp2751
I863
ag1662
aa(lp2752
I864
ag1651
aaaa(lp2753
I866
aI868
aS'you'
p2754
a(lp2755
(lp2756
I866
ag1721
aa(lp2757
I867
ag1654
aa(lp2758
I868
ag1656
aaaa(lp2759
I871
aI873
aS'not'
p2760
a(lp2761
(lp2762
I871
ag1669
aa(lp2763
I872
ag1654
aa(lp2764
I873
ag1646
aaaa(lp2765
I875
aI878
aS'your'
p2766
a(lp2767
(lp2768
I875
ag1721
aa(lp2769
I876
ag1654
aa(lp2770
I877
ag1656
aa(lp2771
I878
ag1679
aaaa(lp2772
I880
aI882
ag645
a(lp2773
(lp2774
I880
ag1694
aa(lp2775
I881
ag1644
aa(lp2776
I882
ag1737
aaaa(lp2777
I885
aI888
aS'when'
p2778
a(lp2779
(lp2780
I885
ag1640
aa(lp2781
I886
ag1642
aa(lp2782
I887
ag1676
aa(lp2783
I888
ag1669
aaaa(lp2784
I890
aI892
aS'you'
p2785
a(lp2786
(lp2787
I890
ag1721
aa(lp2788
I891
ag1654
aa(lp2789
I892
ag1656
aaaa(lp2790
I894
aI896
aS'are'
p2791
a(lp2792
(lp2793
I894
ag1644
aa(lp2794
I895
ag1679
aa(lp2795
I896
ag1676
aaaa(lp2796
I898
aI900
aS'out'
p2797
a(lp2798
(lp2799
I898
ag1654
aa(lp2800
I899
ag1656
aa(lp2801
I900
ag1646
aaaa(lp2802
I902
aI904
aS'for'
p2803
a(lp2804
(lp2805
I902
ag1742
aa(lp2806
I903
ag1654
aa(lp2807
I904
ag1679
aaaa(lp2808
I906
aI906
ag1644
a(lp2809
(lp2810
I906
ag1644
aaaa(lp2811
I908
aI910
ag654
a(lp2812
(lp2813
I908
ag1691
aa(lp2814
I909
ag1654
aa(lp2815
I910
ag1694
aaaa(lp2816
I912
aI920
ag663
a(lp2817
(lp2818
I912
ag1662
aa(lp2819
I913
ag1669
aa(lp2820
I914
ag1646
aa(lp2821
I915
ag1676
aa(lp2822
I916
ag1679
aa(lp2823
I917
ag1703
aa(lp2824
I918
ag1662
aa(lp2825
I919
ag1676
aa(lp2826
I920
ag1640
aaaa(lp2827
I923
aI924
aS'do'
p2828
a(lp2829
(lp2830
I923
ag1660
aa(lp2831
I924
ag1654
aaaa(lp2832
I926
aI928
aS'not'
p2833
a(lp2834
(lp2835
I926
ag1669
aa(lp2836
I927
ag1654
aa(lp2837
I928
ag1646
aaaa(lp2838
I930
aI934
ag672
a(lp2839
(lp2840
I930
ag1694
aa(lp2841
I931
ag1679
aa(lp2842
I932
ag1662
aa(lp2843
I933
ag1669
aa(lp2844
I934
ag1737
aaaa(lp2845
I936
aI939
aS'with'
p2846
a(lp2847
(lp2848
I936
ag1640
aa(lp2849
I937
ag1662
aa(lp2850
I938
ag1646
aa(lp2851
I939
ag1642
aaaa(lp2852
I941
aI943
aS'you'
p2853
a(lp2854
(lp2855
I941
ag1721
aa(lp2856
I942
ag1654
aa(lp2857
I943
ag1656
aaaa(lp2858
I945
aI945
ag1644
a(lp2859
(lp2860
I945
ag1644
aaaa(lp2861
I947
aI953
ag681
a(lp2862
(lp2863
I947
ag1642
aa(lp2864
I948
ag1676
aa(lp2865
I949
ag1644
aa(lp2866
I950
ag1703
aa(lp2867
I951
ag1662
aa(lp2868
I952
ag1658
aa(lp2869
I953
ag1721
aaaa(lp2870
I955
aI961
ag690
a(lp2871
(lp2872
I955
ag1710
aa(lp2873
I956
ag1679
aa(lp2874
I957
ag1662
aa(lp2875
I958
ag1669
aa(lp2876
I959
ag1646
aa(lp2877
I960
ag1676
aa(lp2878
I961
ag1660
aaaa(lp2879
I963
aI965
ag699
a(lp2880
(lp2881
I963
ag1694
aa(lp2882
I964
ag1644
aa(lp2883
I965
ag1737
aaaa(lp2884
I968
aI973
ag708
a(lp2885
(lp2886
I968
ag1710
aa(lp2887
I969
ag1656
aa(lp2888
I970
ag1679
aa(lp2889
I971
ag1651
aa(lp2890
I972
ag1676
aa(lp2891
I973
ag1651
aaaa(lp2892
I975
aI977
aS'are'
p2893
a(lp2894
(lp2895
I975
ag1644
aa(lp2896
I976
ag1679
aa(lp2897
I977
ag1676
aaaa(lp2898
I979
aI984
ag717
a(lp2899
(lp2900
I979
ag1694
aa(lp2901
I980
ag1676
aa(lp2902
I981
ag1646
aa(lp2903
I982
ag1646
aa(lp2904
I983
ag1676
aa(lp2905
I984
ag1679
aaaa(lp2906
I986
aI992
ag726
a(lp2907
(lp2908
I986
ag1654
aa(lp2909
I987
ag1710
aa(lp2910
I988
ag1646
aa(lp2911
I989
ag1662
aa(lp2912
I990
ag1654
aa(lp2913
I991
ag1669
aa(lp2914
I992
ag1651
aaaa(lp2915
I994
aI996
aS'and'
p2916
a(lp2917
(lp2918
I994
ag1644
aa(lp2919
I995
ag1669
aa(lp2920
I996
ag1660
aaaa(lp2921
I998
aI1003
ag735
a(lp2922
(lp2923
I998
ag1710
aa(lp2924
I999
ag1658
aa(lp2925
I1000
ag1676
aa(lp2926
I1001
ag1644
aa(lp2927
I1002
ag1651
aa(lp2928
I1003
ag1676
aaaa(lp2929
I1005
aI1010
ag744
a(lp2930
(lp2931
I1005
ag1882
aa(lp2932
I1006
ag1642
aa(lp2933
I1007
ag1654
aa(lp2934
I1008
ag1654
aa(lp2935
I1009
ag1651
aa(lp2936
I1010
ag1676
aaaa(lp2937
I1012
aI1012
ag1644
a(lp2938
(lp2939
I1012
ag1644
aaaa(lp2940
I1014
aI1025
ag753
a(lp2941
(lp2942
I1014
ag1882
aa(lp2943
I1015
ag1654
aa(lp2944
I1016
ag1669
aa(lp2945
I1017
ag1651
aa(lp2946
I1018
ag1676
aa(lp2947
I1019
ag1679
aa(lp2948
I1020
ag1703
aa(lp2949
I1021
ag1644
aa(lp2950
I1022
ag1646
aa(lp2951
I1023
ag1662
aa(lp2952
I1024
ag1703
aa(lp2953
I1025
ag1676
aaaa(lp2954
I1027
aI1031
ag762
a(lp2955
(lp2956
I1027
ag1882
aa(lp2957
I1028
ag1654
aa(lp2958
I1029
ag1658
aa(lp2959
I1030
ag1654
aa(lp2960
I1031
ag1679
aaaa(lp2961
I1033
aI1036
aS'that'
p2962
a(lp2963
(lp2964
I1033
ag1646
aa(lp2965
I1034
ag1642
aa(lp2966
I1035
ag1644
aa(lp2967
I1036
ag1646
aaaa(lp2968
I1038
aI1042
ag771
a(lp2969
(lp2970
I1038
ag1882
aa(lp2971
I1039
ag1654
aa(lp2972
I1040
ag1656
aa(lp2973
I1041
ag1658
aa(lp2974
I1042
ag1660
aaaa(lp2975
I1044
aI1045
ag780
a(lp2976
(lp2977
I1044
ag1737
aa(lp2978
I1045
ag1654
aaaa(lp2979
I1047
aI1051
ag789
a(lp2980
(lp2981
I1047
ag1644
aa(lp2982
I1048
ag1658
aa(lp2983
I1049
ag1654
aa(lp2984
I1050
ag1669
aa(lp2985
I1051
ag1737
aaaa(lp2986
I1053
aI1056
aS'with'
p2987
a(lp2988
(lp2989
I1053
ag1640
aa(lp2990
I1054
ag1662
aa(lp2991
I1055
ag1646
aa(lp2992
I1056
ag1642
aaaa(lp2993
I1058
aI1061
aS'your'
p2994
a(lp2995
(lp2996
I1058
ag1721
aa(lp2997
I1059
ag1654
aa(lp2998
I1060
ag1656
aa(lp2999
I1061
ag1679
aaaa(lp3000
I1063
aI1067
ag798
a(lp3001
(lp3002
I1063
ag1660
aa(lp3003
I1064
ag1679
aa(lp3004
I1065
ag1676
aa(lp3005
I1066
ag1651
aa(lp3006
I1067
ag1651
aaaa(lp3007
I1070
aI1074
ag807
a(lp3008
(lp3009
I1070
ag1651
aa(lp3010
I1071
ag1642
aa(lp3011
I1072
ag1654
aa(lp3012
I1073
ag1679
aa(lp3013
I1074
ag1646
aaaa(lp3014
I1076
aI1080
ag816
a(lp3015
(lp3016
I1076
ag1651
aa(lp3017
I1077
ag1890
aa(lp3018
I1078
ag1662
aa(lp3019
I1079
ag1679
aa(lp3020
I1080
ag1646
aaaa(lp3021
I1083
aI1087
ag825
a(lp3022
(lp3023
I1083
ag1651
aa(lp3024
I1084
ag1642
aa(lp3025
I1085
ag1654
aa(lp3026
I1086
ag1679
aa(lp3027
I1087
ag1646
aaaa(lp3028
I1089
aI1094
ag834
a(lp3029
(lp3030
I1089
ag1882
aa(lp3031
I1090
ag1642
aa(lp3032
I1091
ag1644
aa(lp3033
I1092
ag1669
aa(lp3034
I1093
ag1882
aa(lp3035
I1094
ag1676
aaaa(lp3036
I1097
aI1101
ag843
a(lp3037
(lp3038
I1097
ag1669
aa(lp3039
I1098
ag1676
aa(lp3040
I1099
ag1703
aa(lp3041
I1100
ag1676
aa(lp3042
I1101
ag1679
aaaa(lp3043
I1103
aI1106
ag852
a(lp3044
(lp3045
I1103
ag1640
aa(lp3046
I1104
ag1676
aa(lp3047
I1105
ag1644
aa(lp3048
I1106
ag1679
aaaa(lp3049
I1108
aI1109
aS'an'
p3050
a(lp3051
(lp3052
I1108
ag1644
aa(lp3053
I1109
ag1669
aaaa(lp3054
I1111
aI1115
aS'above'
p3055
a(lp3056
(lp3057
I1111
ag1644
aa(lp3058
I1112
ag1694
aa(lp3059
I1113
ag1654
aa(lp3060
I1114
ag1703
aa(lp3061
I1115
ag1676
aaaa(lp3062
I1117
aI1119
aS'the'
p3063
a(lp3064
(lp3065
I1117
ag1646
aa(lp3066
I1118
ag1642
aa(lp3067
I1119
ag1676
aaaa(lp3068
I1121
aI1124
ag861
a(lp3069
(lp3070
I1121
ag1890
aa(lp3071
I1122
ag1669
aa(lp3072
I1123
ag1676
aa(lp3073
I1124
ag1676
aaaa(lp3074
I1126
aI1130
ag870
a(lp3075
(lp3076
I1126
ag1651
aa(lp3077
I1127
ag1890
aa(lp3078
I1128
ag1662
aa(lp3079
I1129
ag1679
aa(lp3080
I1130
ag1646
aaaa(lp3081
I1133
aI1136
aS'your'
p3082
a(lp3083
(lp3084
I1133
ag1721
aa(lp3085
I1134
ag1654
aa(lp3086
I1135
ag1656
aa(lp3087
I1136
ag1679
aaaa(lp3088
I1138
aI1141
ag879
a(lp3089
(lp3090
I1138
ag1658
aa(lp3091
I1139
ag1676
aa(lp3092
I1140
ag1737
aa(lp3093
I1141
ag1651
aaaa(lp3094
I1143
aI1145
ag888
a(lp3095
(lp3096
I1143
ag1841
aa(lp3097
I1144
ag1644
aa(lp3098
I1145
ag1721
aaaa(lp3099
I1147
aI1148
aS'be'
p3100
a(lp3101
(lp3102
I1147
ag1694
aa(lp3103
I1148
ag1676
aaaa(lp3104
I1150
aI1152
aS'the'
p3105
a(lp3106
(lp3107
I1150
ag1646
aa(lp3108
I1151
ag1642
aa(lp3109
I1152
ag1676
aaaa(lp3110
I1154
aI1161
ag897
a(lp3111
(lp3112
I1154
ag1651
aa(lp3113
I1155
ag1662
aa(lp3114
I1156
ag1658
aa(lp3115
I1157
ag1890
aa(lp3116
I1158
ag1662
aa(lp3117
I1159
ag1676
aa(lp3118
I1160
ag1651
aa(lp3119
I1161
ag1646
aaaa(lp3120
I1163
aI1164
aS'in'
p3121
a(lp3122
(lp3123
I1163
ag1662
aa(lp3124
I1164
ag1669
aaaa(lp3125
I1166
aI1169
ag906
a(lp3126
(lp3127
I1166
ag1646
aa(lp3128
I1167
ag1654
aa(lp3129
I1168
ag1640
aa(lp3130
I1169
ag1669
aaaa(lp3131
I1171
aI1173
aS'but'
p3132
a(lp3133
(lp3134
I1171
ag1694
aa(lp3135
I1172
ag1656
aa(lp3136
I1173
ag1646
aaaa(lp3137
I1175
aI1179
aS'being'
p3138
a(lp3139
(lp3140
I1175
ag1694
aa(lp3141
I1176
ag1676
aa(lp3142
I1177
ag1662
aa(lp3143
I1178
ag1669
aa(lp3144
I1179
ag1737
aaaa(lp3145
I1181
aI1182
aS'an'
p3146
a(lp3147
(lp3148
I1181
ag1644
aa(lp3149
I1182
ag1669
aaaa(lp3150
I1184
aI1194
ag915
a(lp3151
(lp3152
I1184
ag1662
aa(lp3153
I1185
ag1669
aa(lp3154
I1186
ag1646
aa(lp3155
I1187
ag1676
aa(lp3156
I1188
ag1679
aa(lp3157
I1189
ag1703
aa(lp3158
I1190
ag1662
aa(lp3159
I1191
ag1676
aa(lp3160
I1192
ag1640
aa(lp3161
I1193
ag1676
aa(lp3162
I1194
ag1676
aaaa(lp3163
I1196
aI1199
aS'does'
p3164
a(lp3165
(lp3166
I1196
ag1660
aa(lp3167
I1197
ag1654
aa(lp3168
I1198
ag1676
aa(lp3169
I1199
ag1651
aaaa(lp3170
I1201
aI1203
aS'not'
p3171
a(lp3172
(lp3173
I1201
ag1669
aa(lp3174
I1202
ag1654
aa(lp3175
I1203
ag1646
aaaa(lp3176
I1205
aI1211
ag924
a(lp3177
(lp3178
I1205
ag1679
aa(lp3179
I1206
ag1676
aa(lp3180
I1207
aS'q'
p3181
aa(lp3182
I1208
ag1656
aa(lp3183
I1209
ag1662
aa(lp3184
I1210
ag1679
aa(lp3185
I1211
ag1676
aaaa(lp3186
I1213
aI1215
aS'you'
p3187
a(lp3188
(lp3189
I1213
ag1721
aa(lp3190
I1214
ag1654
aa(lp3191
I1215
ag1656
aaaa(lp3192
I1217
aI1218
aS'to'
p3193
a(lp3194
(lp3195
I1217
ag1646
aa(lp3196
I1218
ag1654
aaaa(lp3197
I1220
aI1223
ag933
a(lp3198
(lp3199
I1220
ag1640
aa(lp3200
I1221
ag1676
aa(lp3201
I1222
ag1644
aa(lp3202
I1223
ag1679
aaaa(lp3203
I1225
aI1228
aS'this'
p3204
a(lp3205
(lp3206
I1225
ag1646
aa(lp3207
I1226
ag1642
aa(lp3208
I1227
ag1662
aa(lp3209
I1228
ag1651
aaaa(lp3210
I1230
aI1233
ag942
a(lp3211
(lp3212
I1230
ag1646
aa(lp3213
I1231
ag1721
aa(lp3214
I1232
ag1710
aa(lp3215
I1233
ag1676
aaaa(lp3216
I1235
aI1236
aS'of'
p3217
a(lp3218
(lp3219
I1235
ag1654
aa(lp3220
I1236
ag1742
aaaa(lp3221
I1238
aI1242
ag951
a(lp3222
(lp3223
I1238
ag1651
aa(lp3224
I1239
ag1890
aa(lp3225
I1240
ag1662
aa(lp3226
I1241
ag1679
aa(lp3227
I1242
ag1646
aaaa(lp3228
I1245
aI1247
aS'you'
p3229
a(lp3230
(lp3231
I1245
ag1721
aa(lp3232
I1246
ag1654
aa(lp3233
I1247
ag1656
aaaa(lp3234
I1249
aI1253
ag960
a(lp3235
(lp3236
I1249
ag1640
aa(lp3237
I1250
ag1654
aa(lp3238
I1251
ag1656
aa(lp3239
I1252
ag1658
aa(lp3240
I1253
ag1660
aaaa(lp3241
I1255
aI1258
ag969
a(lp3242
(lp3243
I1255
ag1658
aa(lp3244
I1256
ag1654
aa(lp3245
I1257
ag1654
aa(lp3246
I1258
ag1890
aaaa(lp3247
I1260
aI1273
ag978
a(lp3248
(lp3249
I1260
ag1656
aa(lp3250
I1261
ag1669
aa(lp3251
I1262
ag1710
aa(lp3252
I1263
ag1679
aa(lp3253
I1264
ag1654
aa(lp3254
I1265
ag1742
aa(lp3255
I1266
ag1676
aa(lp3256
I1267
ag1651
aa(lp3257
I1268
ag1651
aa(lp3258
I1269
ag1662
aa(lp3259
I1270
ag1654
aa(lp3260
I1271
ag1669
aa(lp3261
I1272
ag1644
aa(lp3262
I1273
ag1658
aaaa(lp3263
I1276
aI1278
aS'you'
p3264
a(lp3265
(lp3266
I1276
ag1721
aa(lp3267
I1277
ag1654
aa(lp3268
I1278
ag1656
aaaa(lp3269
I1280
aI1282
aS'are'
p3270
a(lp3271
(lp3272
I1280
ag1644
aa(lp3273
I1281
ag1679
aa(lp3274
I1282
ag1676
aaaa(lp3275
I1284
aI1286
aS'not'
p3276
a(lp3277
(lp3278
I1284
ag1669
aa(lp3279
I1285
ag1654
aa(lp3280
I1286
ag1646
aaaa(lp3281
I1288
aI1288
ag1644
a(lp3282
(lp3283
I1288
ag1644
aaaa(lp3284
I1290
aI1298
ag987
a(lp3285
(lp3286
I1290
ag1882
aa(lp3287
I1291
ag1642
aa(lp3288
I1292
ag1679
aa(lp3289
I1293
ag1662
aa(lp3290
I1294
ag1651
aa(lp3291
I1295
ag1646
aa(lp3292
I1296
ag1841
aa(lp3293
I1297
ag1644
aa(lp3294
I1298
ag1651
aaaa(lp3295
I1300
aI1303
ag996
a(lp3296
(lp3297
I1300
ag1646
aa(lp3298
I1301
ag1679
aa(lp3299
I1302
ag1676
aa(lp3300
I1303
ag1676
aaaa(lp3301
I1306
aI1312
ag1005
a(lp3302
(lp3303
I1306
ag1691
aa(lp3304
I1307
ag1676
aa(lp3305
I1308
ag1640
aa(lp3306
I1309
ag1676
aa(lp3307
I1310
ag1658
aa(lp3308
I1311
ag1679
aa(lp3309
I1312
ag1721
aaaa(lp3310
I1314
aI1316
aS'and'
p3311
a(lp3312
(lp3313
I1314
ag1644
aa(lp3314
I1315
ag1669
aa(lp3315
I1316
ag1660
aaaa(lp3316
I1318
aI1328
ag1014
a(lp3317
(lp3318
I1318
ag1644
aa(lp3319
I1319
ag1882
aa(lp3320
I1320
ag1882
aa(lp3321
I1321
ag1676
aa(lp3322
I1322
ag1651
aa(lp3323
I1323
ag1651
aa(lp3324
I1324
ag1654
aa(lp3325
I1325
ag1679
aa(lp3326
I1326
ag1662
aa(lp3327
I1327
ag1676
aa(lp3328
I1328
ag1651
aaaa(lp3329
I1330
aI1334
ag1023
a(lp3330
(lp3331
I1330
ag1882
aa(lp3332
I1331
ag1654
aa(lp3333
I1332
ag1656
aa(lp3334
I1333
ag1658
aa(lp3335
I1334
ag1660
aaaa(lp3336
I1336
aI1341
ag1032
a(lp3337
(lp3338
I1336
ag1679
aa(lp3339
I1337
ag1676
aa(lp3340
I1338
ag1644
aa(lp3341
I1339
ag1658
aa(lp3342
I1340
ag1658
aa(lp3343
I1341
ag1721
aaaa(lp3344
I1343
aI1344
aS'be'
p3345
a(lp3346
(lp3347
I1343
ag1694
aa(lp3348
I1344
ag1676
aaaa(lp3349
I1346
aI1349
ag1041
a(lp3350
(lp3351
I1346
ag1737
aa(lp3352
I1347
ag1654
aa(lp3353
I1348
ag1654
aa(lp3354
I1349
ag1660
aaaa(lp3355
I1351
aI1357
ag1050
a(lp3356
(lp3357
I1351
ag1644
aa(lp3358
I1352
ag1660
aa(lp3359
I1353
ag1660
aa(lp3360
I1355
ag1654
aa(lp3361
I1356
ag1669
aa(lp3362
I1357
ag1651
aaaa(lp3363
I1359
aI1361
aS'for'
p3364
a(lp3365
(lp3366
I1359
ag1742
aa(lp3367
I1360
ag1654
aa(lp3368
I1361
ag1679
aaaa(lp3369
I1363
aI1366
aS'your'
p3370
a(lp3371
(lp3372
I1363
ag1721
aa(lp3373
I1364
ag1654
aa(lp3374
I1365
ag1656
aa(lp3375
I1366
ag1679
aaaa(lp3376
I1368
aI1372
ag1059
a(lp3377
(lp3378
I1368
ag1658
aa(lp3379
I1369
ag1654
aa(lp3380
I1370
ag1654
aa(lp3381
I1371
ag1890
aa(lp3382
I1372
ag1651
aaaa(lp3383
I1375
aI1377
aS'for'
p3384
a(lp3385
(lp3386
I1375
ag1742
aa(lp3387
I1376
ag1654
aa(lp3388
I1377
ag1679
aaaa(lp3389
I1379
aI1388
ag1068
a(lp3390
(lp3391
I1379
ag1662
aa(lp3392
I1380
ag1669
aa(lp3393
I1381
ag1646
aa(lp3394
I1382
ag1676
aa(lp3395
I1383
ag1679
aa(lp3396
I1384
ag1703
aa(lp3397
I1385
ag1662
aa(lp3398
I1386
ag1676
aa(lp3399
I1387
ag1640
aa(lp3400
I1388
ag1651
aaaa(lp3401
I1391
aI1393
ag1077
a(lp3402
(lp3403
I1391
ag1691
aa(lp3404
I1392
ag1654
aa(lp3405
I1393
ag1694
aaaa(lp3406
I1395
aI1404
ag1086
a(lp3407
(lp3408
I1395
ag1662
aa(lp3409
I1396
ag1669
aa(lp3410
I1397
ag1646
aa(lp3411
I1398
ag1676
aa(lp3412
I1399
ag1679
aa(lp3413
I1400
ag1703
aa(lp3414
I1401
ag1662
aa(lp3415
I1402
ag1676
aa(lp3416
I1403
ag1640
aa(lp3417
I1404
ag1651
aaaa(lp3418
I1407
aI1410
ag1095
a(lp3419
(lp3420
I1407
ag1841
aa(lp3421
I1408
ag1644
aa(lp3422
I1409
ag1890
aa(lp3423
I1410
ag1676
aaaa(lp3424
I1412
aI1415
ag1104
a(lp3425
(lp3426
I1412
ag1651
aa(lp3427
I1413
ag1656
aa(lp3428
I1414
ag1679
aa(lp3429
I1415
ag1676
aaaa(lp3430
I1417
aI1420
aS'that'
p3431
a(lp3432
(lp3433
I1417
ag1646
aa(lp3434
I1418
ag1642
aa(lp3435
I1419
ag1644
aa(lp3436
I1420
ag1646
aaaa(lp3437
I1422
aI1424
aS'you'
p3438
a(lp3439
(lp3440
I1422
ag1721
aa(lp3441
I1423
ag1654
aa(lp3442
I1424
ag1656
aaaa(lp3443
I1426
aI1427
aS'do'
p3444
a(lp3445
(lp3446
I1426
ag1660
aa(lp3447
I1427
ag1654
aaaa(lp3448
I1429
aI1431
aS'not'
p3449
a(lp3450
(lp3451
I1429
ag1669
aa(lp3452
I1430
ag1654
aa(lp3453
I1431
ag1646
aaaa(lp3454
I1433
aI1436
ag1113
a(lp3455
(lp3456
I1433
ag1640
aa(lp3457
I1434
ag1676
aa(lp3458
I1435
ag1644
aa(lp3459
I1436
ag1679
aaaa(lp3460
I1438
aI1440
aS'too'
p3461
a(lp3462
(lp3463
I1438
ag1646
aa(lp3464
I1439
ag1654
aa(lp3465
I1440
ag1654
aaaa(lp3466
I1442
aI1445
ag1122
a(lp3467
(lp3468
I1442
ag1841
aa(lp3469
I1443
ag1656
aa(lp3470
I1444
ag1882
aa(lp3471
I1445
ag1642
aaaa(lp3472
I1448
aI1450
aS'for'
p3473
a(lp3474
(lp3475
I1448
ag1742
aa(lp3476
I1449
ag1654
aa(lp3477
I1450
ag1679
aaaa(lp3478
I1452
aI1458
ag1131
a(lp3479
(lp3480
I1452
ag1676
aa(lp3481
I1453
aS'x'
p3482
aa(lp3483
I1454
ag1644
aa(lp3484
I1455
ag1841
aa(lp3485
I1456
ag1710
aa(lp3486
I1457
ag1658
aa(lp3487
I1458
ag1676
aaaa(lp3488
I1460
aI1467
ag1140
a(lp3489
(lp3490
I1460
ag1676
aa(lp3491
I1461
ag1644
aa(lp3492
I1462
ag1679
aa(lp3493
I1463
ag1679
aa(lp3494
I1464
ag1662
aa(lp3495
I1465
ag1669
aa(lp3496
I1466
ag1737
aa(lp3497
I1467
ag1651
aaaa(lp3498
I1470
aI1471
aS'do'
p3499
a(lp3500
(lp3501
I1470
ag1660
aa(lp3502
I1471
ag1654
aaaa(lp3503
I1473
aI1475
aS'not'
p3504
a(lp3505
(lp3506
I1473
ag1669
aa(lp3507
I1474
ag1654
aa(lp3508
I1475
ag1646
aaaa(lp3509
I1477
aI1480
ag1149
a(lp3510
(lp3511
I1477
ag1651
aa(lp3512
I1478
ag1642
aa(lp3513
I1479
ag1654
aa(lp3514
I1480
ag1640
aaaa(lp3515
I1482
aI1484
aS'off'
p3516
a(lp3517
(lp3518
I1482
ag1654
aa(lp3519
I1483
ag1742
aa(lp3520
I1484
ag1742
aaaa(lp3521
I1486
aI1489
aS'that'
p3522
a(lp3523
(lp3524
I1486
ag1646
aa(lp3525
I1487
ag1642
aa(lp3526
I1488
ag1644
aa(lp3527
I1489
ag1646
aaaa(lp3528
I1491
aI1493
aS'you'
p3529
a(lp3530
(lp3531
I1491
ag1721
aa(lp3532
I1492
ag1654
aa(lp3533
I1493
ag1656
aaaa(lp3534
I1495
aI1498
aS'have'
p3535
a(lp3536
(lp3537
I1495
ag1642
aa(lp3538
I1496
ag1644
aa(lp3539
I1497
ag1703
aa(lp3540
I1498
ag1676
aaaa(lp3541
I1500
aI1503
aS'more'
p3542
a(lp3543
(lp3544
I1500
ag1841
aa(lp3545
I1501
ag1654
aa(lp3546
I1502
ag1679
aa(lp3547
I1503
ag1676
aaaa(lp3548
I1505
aI1508
aS'than'
p3549
a(lp3550
(lp3551
I1505
ag1646
aa(lp3552
I1506
ag1642
aa(lp3553
I1507
ag1644
aa(lp3554
I1508
ag1669
aaaa(lp3555
I1510
aI1512
ag1158
a(lp3556
(lp3557
I1510
ag1654
aa(lp3558
I1511
ag1669
aa(lp3559
I1512
ag1676
aaaa(lp3560
I1514
aI1521
ag1167
a(lp3561
(lp3562
I1514
ag1710
aa(lp3563
I1515
ag1662
aa(lp3564
I1516
ag1676
aa(lp3565
I1517
ag1679
aa(lp3566
I1518
ag1882
aa(lp3567
I1519
ag1662
aa(lp3568
I1520
ag1669
aa(lp3569
I1521
ag1737
aaaa(lp3570
I1523
aI1525
ag1176
a(lp3571
(lp3572
I1523
ag1710
aa(lp3573
I1524
ag1676
aa(lp3574
I1525
ag1679
aaaa(lp3575
I1527
aI1529
ag1185
a(lp3576
(lp3577
I1527
ag1676
aa(lp3578
I1528
ag1644
aa(lp3579
I1529
ag1679
aaaa(lp3580
I1531
aI1532
aS'by'
p3581
a(lp3582
(lp3583
I1531
ag1694
aa(lp3584
I1532
ag1721
aaaa(lp3585
I1534
aI1540
ag1194
a(lp3586
(lp3587
I1534
ag1640
aa(lp3588
I1535
ag1676
aa(lp3589
I1536
ag1644
aa(lp3590
I1537
ag1679
aa(lp3591
I1538
ag1662
aa(lp3592
I1539
ag1669
aa(lp3593
I1540
ag1737
aaaa(lp3594
I1542
aI1545
aS'more'
p3595
a(lp3596
(lp3597
I1542
ag1841
aa(lp3598
I1543
ag1654
aa(lp3599
I1544
ag1679
aa(lp3600
I1545
ag1676
aaaa(lp3601
I1547
aI1550
aS'than'
p3602
a(lp3603
(lp3604
I1547
ag1646
aa(lp3605
I1548
ag1642
aa(lp3606
I1549
ag1644
aa(lp3607
I1550
ag1669
aaaa(lp3608
I1552
aI1554
ag1203
a(lp3609
(lp3610
I1552
ag1654
aa(lp3611
I1553
ag1669
aa(lp3612
I1554
ag1676
aaaa(lp3613
I1556
aI1562
ag1212
a(lp3614
(lp3615
I1556
ag1676
aa(lp3616
I1557
ag1644
aa(lp3617
I1558
ag1679
aa(lp3618
I1559
ag1679
aa(lp3619
I1560
ag1662
aa(lp3620
I1561
ag1669
aa(lp3621
I1562
ag1737
aaaa(lp3622
I1565
aI1567
ag1221
a(lp3623
(lp3624
I1565
ag1646
aa(lp3625
I1566
ag1662
aa(lp3626
I1567
ag1676
aaaa(lp3627
I1569
aI1571
aS'for'
p3628
a(lp3629
(lp3630
I1569
ag1742
aa(lp3631
I1570
ag1654
aa(lp3632
I1571
ag1679
aaaa(lp3633
I1573
aI1575
aS'him'
p3634
a(lp3635
(lp3636
I1573
ag1642
aa(lp3637
I1574
ag1662
aa(lp3638
I1575
ag1841
aaaa(lp3639
I1578
aI1580
aS'for'
p3640
a(lp3641
(lp3642
I1578
ag1742
aa(lp3643
I1579
ag1654
aa(lp3644
I1580
ag1679
aaaa(lp3645
I1582
aI1584
ag1230
a(lp3646
(lp3647
I1582
ag1841
aa(lp3648
I1583
ag1676
aa(lp3649
I1584
ag1669
aaaa(lp3650
I1587
aI1589
aS'the'
p3651
a(lp3652
(lp3653
I1587
ag1646
aa(lp3654
I1588
ag1642
aa(lp3655
I1589
ag1676
aaaa(lp3656
I1591
aI1596
ag1239
a(lp3657
(lp3658
I1591
ag1651
aa(lp3659
I1592
ag1644
aa(lp3660
I1593
ag1742
aa(lp3661
I1594
ag1676
aa(lp3662
I1595
ag1651
aa(lp3663
I1596
ag1646
aaaa(lp3664
I1598
aI1599
aS'to'
p3665
a(lp3666
(lp3667
I1598
ag1646
aa(lp3668
I1599
ag1654
aaaa(lp3669
I1601
aI1604
ag1248
a(lp3670
(lp3671
I1601
ag1640
aa(lp3672
I1602
ag1676
aa(lp3673
I1603
ag1644
aa(lp3674
I1604
ag1679
aaaa(lp3675
I1606
aI1607
aS'is'
p3676
a(lp3677
(lp3678
I1606
ag1662
aa(lp3679
I1607
ag1651
aaaa(lp3680
I1609
aI1609
ag1644
a(lp3681
(lp3682
I1609
ag1644
aaaa(lp3683
I1611
aI1618
ag1257
a(lp3684
(lp3685
I1611
ag1882
aa(lp3686
I1612
ag1654
aa(lp3687
I1613
ag1658
aa(lp3688
I1614
ag1658
aa(lp3689
I1615
ag1644
aa(lp3690
I1616
ag1679
aa(lp3691
I1617
ag1676
aa(lp3692
I1618
ag1660
aaaa(lp3693
I1620
aI1624
ag1266
a(lp3694
(lp3695
I1620
ag1651
aa(lp3696
I1621
ag1642
aa(lp3697
I1622
ag1662
aa(lp3698
I1623
ag1679
aa(lp3699
I1624
ag1646
aaaa(lp3700
I1626
aI1628
aS'but'
p3701
a(lp3702
(lp3703
I1626
ag1694
aa(lp3704
I1627
ag1656
aa(lp3705
I1628
ag1646
aaaa(lp3706
I1630
aI1631
aS'it'
p3707
a(lp3708
(lp3709
I1630
ag1662
aa(lp3710
I1631
ag1646
aaaa(lp3711
I1633
aI1637
ag1275
a(lp3712
(lp3713
I1633
ag1640
aa(lp3714
I1634
ag1654
aa(lp3715
I1635
ag1656
aa(lp3716
I1636
ag1658
aa(lp3717
I1637
ag1660
aaaa(lp3718
I1639
aI1640
aS'be'
p3719
a(lp3720
(lp3721
I1639
ag1694
aa(lp3722
I1640
ag1676
aaaa(lp3723
I1642
aI1645
ag1284
a(lp3724
(lp3725
I1642
ag1644
aa(lp3726
I1643
ag1658
aa(lp3727
I1644
ag1651
aa(lp3728
I1645
ag1654
aaaa(lp3729
I1647
aI1650
aS'more'
p3730
a(lp3731
(lp3732
I1647
ag1841
aa(lp3733
I1648
ag1654
aa(lp3734
I1649
ag1679
aa(lp3735
I1650
ag1676
aaaa(lp3736
I1652
aI1663
ag1293
a(lp3737
(lp3738
I1652
ag1710
aa(lp3739
I1653
ag1679
aa(lp3740
I1654
ag1654
aa(lp3741
I1655
ag1742
aa(lp3742
I1656
ag1676
aa(lp3743
I1657
ag1651
aa(lp3744
I1658
ag1651
aa(lp3745
I1659
ag1662
aa(lp3746
I1660
ag1654
aa(lp3747
I1661
ag1669
aa(lp3748
I1662
ag1644
aa(lp3749
I1663
ag1658
aaaa(lp3750
I1665
aI1666
aS'to'
p3751
a(lp3752
(lp3753
I1665
ag1646
aa(lp3754
I1666
ag1654
aaaa(lp3755
I1668
aI1671
ag1302
a(lp3756
(lp3757
I1668
ag1640
aa(lp3758
I1669
ag1676
aa(lp3759
I1670
ag1644
aa(lp3760
I1671
ag1679
aaaa(lp3761
I1673
aI1673
ag1644
a(lp3762
(lp3763
I1673
ag1644
aaaa(lp3764
I1675
aI1686
ag1311
a(lp3765
(lp3766
I1675
ag1658
aa(lp3767
I1676
ag1654
aa(lp3768
I1677
ag1669
aa(lp3769
I1678
ag1737
aa(lp3770
I1680
ag1651
aa(lp3771
I1681
ag1658
aa(lp3772
I1682
ag1676
aa(lp3773
I1683
ag1676
aa(lp3774
I1684
ag1703
aa(lp3775
I1685
ag1676
aa(lp3776
I1686
ag1660
aaaa(lp3777
I1688
aI1690
ag1320
a(lp3778
(lp3779
I1688
ag1646
aa(lp3780
I1689
ag1654
aa(lp3781
I1690
ag1710
aaaa(lp3782
I1692
aI1695
aS'with'
p3783
a(lp3784
(lp3785
I1692
ag1640
aa(lp3786
I1693
ag1662
aa(lp3787
I1694
ag1646
aa(lp3788
I1695
ag1642
aaaa(lp3789
I1697
aI1699
ag1329
a(lp3790
(lp3791
I1697
ag1646
aa(lp3792
I1698
ag1662
aa(lp3793
I1699
ag1676
aaaa(lp3794
I1702
aI1706
ag1338
a(lp3795
(lp3796
I1702
ag1669
aa(lp3797
I1703
ag1676
aa(lp3798
I1704
ag1703
aa(lp3799
I1705
ag1676
aa(lp3800
I1706
ag1679
aaaa(lp3801
I1708
aI1711
ag1347
a(lp3802
(lp3803
I1708
ag1640
aa(lp3804
I1709
ag1676
aa(lp3805
I1710
ag1644
aa(lp3806
I1711
ag1679
aaaa(lp3807
I1713
aI1723
ag1356
a(lp3808
(lp3809
I1713
ag1646
aa(lp3810
I1714
ag1656
aa(lp3811
I1715
ag1679
aa(lp3812
I1716
ag1646
aa(lp3813
I1717
ag1658
aa(lp3814
I1718
ag1676
aa(lp3815
I1720
ag1669
aa(lp3816
I1721
ag1676
aa(lp3817
I1722
ag1882
aa(lp3818
I1723
ag1890
aaaa(lp3819
I1725
aI1727
aS'for'
p3820
a(lp3821
(lp3822
I1725
ag1742
aa(lp3823
I1726
ag1654
aa(lp3824
I1727
ag1679
aaaa(lp3825
I1729
aI1730
aS'an'
p3826
a(lp3827
(lp3828
I1729
ag1644
aa(lp3829
I1730
ag1669
aaaa(lp3830
I1732
aI1740
ag1365
a(lp3831
(lp3832
I1732
ag1662
aa(lp3833
I1733
ag1669
aa(lp3834
I1734
ag1646
aa(lp3835
I1735
ag1676
aa(lp3836
I1736
ag1679
aa(lp3837
I1737
ag1703
aa(lp3838
I1738
ag1662
aa(lp3839
I1739
ag1676
aa(lp3840
I1740
ag1640
aaaa(lp3841
I1743
aI1745
aS'you'
p3842
a(lp3843
(lp3844
I1743
ag1721
aa(lp3845
I1744
ag1654
aa(lp3846
I1745
ag1656
aaaa(lp3847
I1747
aI1749
ag1374
a(lp3848
(lp3849
I1747
ag1841
aa(lp3850
I1748
ag1644
aa(lp3851
I1749
ag1721
aaaa(lp3852
I1751
aI1754
aS'just'
p3853
a(lp3854
(lp3855
I1751
ag1691
aa(lp3856
I1752
ag1656
aa(lp3857
I1753
ag1651
aa(lp3858
I1754
ag1646
aaaa(lp3859
I1756
aI1758
ag1383
a(lp3860
(lp3861
I1756
ag1676
aa(lp3862
I1757
ag1669
aa(lp3863
I1758
ag1660
aaaa(lp3864
I1760
aI1761
aS'up'
p3865
a(lp3866
(lp3867
I1760
ag1656
aa(lp3868
I1761
ag1710
aaaa(lp3869
I1763
aI1768
ag1392
a(lp3870
(lp3871
I1763
ag1651
aa(lp3872
I1764
ag1640
aa(lp3873
I1765
ag1676
aa(lp3874
I1766
ag1644
aa(lp3875
I1767
ag1646
aa(lp3876
I1768
ag1721
aaaa(lp3877
I1770
aI1772
aS'and'
p3878
a(lp3879
(lp3880
I1770
ag1644
aa(lp3881
I1771
ag1669
aa(lp3882
I1772
ag1660
aaaa(lp3883
I1774
aI1776
aS'out'
p3884
a(lp3885
(lp3886
I1774
ag1654
aa(lp3887
I1775
ag1656
aa(lp3888
I1776
ag1646
aaaa(lp3889
I1778
aI1779
aS'of'
p3890
a(lp3891
(lp3892
I1778
ag1654
aa(lp3893
I1779
ag1742
aaaa(lp3894
I1781
aI1787
ag1401
a(lp3895
(lp3896
I1781
ag1742
aa(lp3897
I1782
ag1644
aa(lp3898
I1783
ag1651
aa(lp3899
I1784
ag1642
aa(lp3900
I1785
ag1662
aa(lp3901
I1786
ag1654
aa(lp3902
I1787
ag1669
aaaa(lp3903
I1790
aI1792
aS'you'
p3904
a(lp3905
(lp3906
I1790
ag1721
aa(lp3907
I1791
ag1654
aa(lp3908
I1792
ag1656
aaaa(lp3909
I1794
aI1795
aS'do'
p3910
a(lp3911
(lp3912
I1794
ag1660
aa(lp3913
I1795
ag1654
aaaa(lp3914
I1797
aI1799
aS'not'
p3915
a(lp3916
(lp3917
I1797
ag1669
aa(lp3918
I1798
ag1654
aa(lp3919
I1799
ag1646
aaaa(lp3920
I1801
aI1804
aS'have'
p3921
a(lp3922
(lp3923
I1801
ag1642
aa(lp3924
I1802
ag1644
aa(lp3925
I1803
ag1703
aa(lp3926
I1804
ag1676
aaaa(lp3927
I1806
aI1807
aS'to'
p3928
a(lp3929
(lp3930
I1806
ag1646
aa(lp3931
I1807
ag1654
aaaa(lp3932
I1809
aI1810
aS'be'
p3933
a(lp3934
(lp3935
I1809
ag1694
aa(lp3936
I1810
ag1676
aaaa(lp3937
I1812
aI1812
ag1644
a(lp3938
(lp3939
I1812
ag1644
aaaa(lp3940
I1814
aI1818
ag1410
a(lp3941
(lp3942
I1814
ag1710
aa(lp3943
I1815
ag1654
aa(lp3944
I1816
ag1640
aa(lp3945
I1817
ag1676
aa(lp3946
I1818
ag1679
aaaa(lp3947
I1820
aI1826
ag1419
a(lp3948
(lp3949
I1820
ag1660
aa(lp3950
I1821
ag1679
aa(lp3951
I1822
ag1676
aa(lp3952
I1823
ag1651
aa(lp3953
I1824
ag1651
aa(lp3954
I1825
ag1676
aa(lp3955
I1826
ag1679
aaaa(lp3956
I1828
aI1829
aS'or'
p3957
a(lp3958
(lp3959
I1828
ag1654
aa(lp3960
I1829
ag1679
aaaa(lp3961
I1831
aI1831
ag1644
a(lp3962
(lp3963
I1831
ag1644
aaaa(lp3964
I1833
aI1836
ag1428
a(lp3965
(lp3966
I1833
ag1642
aa(lp3967
I1834
ag1676
aa(lp3968
I1835
ag1644
aa(lp3969
I1836
ag1660
aaaa(lp3970
I1838
aI1843
ag1437
a(lp3971
(lp3972
I1838
ag1646
aa(lp3973
I1839
ag1656
aa(lp3974
I1840
ag1679
aa(lp3975
I1841
ag1669
aa(lp3976
I1842
ag1676
aa(lp3977
I1843
ag1679
aaaa(lp3978
I1845
aI1848
aS'when'
p3979
a(lp3980
(lp3981
I1845
ag1640
aa(lp3982
I1846
ag1642
aa(lp3983
I1847
ag1676
aa(lp3984
I1848
ag1669
aaaa(lp3985
I1850
aI1852
aS'you'
p3986
a(lp3987
(lp3988
I1850
ag1721
aa(lp3989
I1851
ag1654
aa(lp3990
I1852
ag1656
aaaa(lp3991
I1854
aI1857
ag1446
a(lp3992
(lp3993
I1854
ag1640
aa(lp3994
I1855
ag1676
aa(lp3995
I1856
ag1644
aa(lp3996
I1857
ag1679
aaaa(lp3997
I1859
aI1865
ag1455
a(lp3998
(lp3999
I1859
ag1882
aa(lp4000
I1860
ag1658
aa(lp4001
I1861
ag1654
aa(lp4002
I1862
ag1646
aa(lp4003
I1863
ag1642
aa(lp4004
I1864
ag1676
aa(lp4005
I1865
ag1651
aaaa(lp4006
I1867
aI1869
aS'for'
p4007
a(lp4008
(lp4009
I1867
ag1742
aa(lp4010
I1868
ag1654
aa(lp4011
I1869
ag1679
aaaa(lp4012
I1871
aI1871
ag1644
a(lp4013
(lp4014
I1871
ag1644
aaaa(lp4015
I1873
aI1875
ag1464
a(lp4016
(lp4017
I1873
ag1691
aa(lp4018
I1874
ag1654
aa(lp4019
I1875
ag1694
aaaa(lp4020
I1877
aI1885
ag1473
a(lp4021
(lp4022
I1877
ag1662
aa(lp4023
I1878
ag1669
aa(lp4024
I1879
ag1646
aa(lp4025
I1880
ag1676
aa(lp4026
I1881
ag1679
aa(lp4027
I1882
ag1703
aa(lp4028
I1883
ag1662
aa(lp4029
I1884
ag1676
aa(lp4030
I1885
ag1640
aaaa(lp4031
I1888
aI1890
aS'you'
p4032
a(lp4033
(lp4034
I1888
ag1721
aa(lp4035
I1889
ag1654
aa(lp4036
I1890
ag1656
aaaa(lp4037
I1892
aI1895
aS'just'
p4038
a(lp4039
(lp4040
I1892
ag1691
aa(lp4041
I1893
ag1656
aa(lp4042
I1894
ag1651
aa(lp4043
I1895
ag1646
aaaa(lp4044
I1897
aI1900
aS'have'
p4045
a(lp4046
(lp4047
I1897
ag1642
aa(lp4048
I1898
ag1644
aa(lp4049
I1899
ag1703
aa(lp4050
I1900
ag1676
aaaa(lp4051
I1902
aI1903
aS'to'
p4052
a(lp4053
(lp4054
I1902
ag1646
aa(lp4055
I1903
ag1654
aaaa(lp4056
I1905
aI1912
ag1482
a(lp4057
(lp4058
I1905
ag1679
aa(lp4059
I1906
ag1676
aa(lp4060
I1907
ag1841
aa(lp4061
I1908
ag1676
aa(lp4062
I1909
ag1841
aa(lp4063
I1910
ag1694
aa(lp4064
I1911
ag1676
aa(lp4065
I1912
ag1679
aaaa(lp4066
I1914
aI1916
aS'the'
p4067
a(lp4068
(lp4069
I1914
ag1646
aa(lp4070
I1915
ag1642
aa(lp4071
I1916
ag1676
aaaa(lp4072
I1918
aI1922
ag1491
a(lp4073
(lp4074
I1918
ag1694
aa(lp4075
I1919
ag1644
aa(lp4076
I1920
ag1651
aa(lp4077
I1921
ag1662
aa(lp4078
I1922
ag1882
aaaa(lp4079
I1924
aI1932
ag1500
a(lp4080
(lp4081
I1924
ag1679
aa(lp4082
I1925
ag1676
aa(lp4083
I1926
ag1841
aa(lp4084
I1927
ag1662
aa(lp4085
I1928
ag1669
aa(lp4086
I1929
ag1660
aa(lp4087
I1930
ag1676
aa(lp4088
I1931
ag1679
aa(lp4089
I1932
ag1651
aaaa(lp4090
I1934
aI1935
aS'of'
p4091
a(lp4092
(lp4093
I1934
ag1654
aa(lp4094
I1935
ag1742
aaaa(lp4095
I1937
aI1943
ag1509
a(lp4096
(lp4097
I1937
ag1658
aa(lp4098
I1938
ag1654
aa(lp4099
I1939
ag1654
aa(lp4100
I1940
ag1890
aa(lp4101
I1941
ag1662
aa(lp4102
I1942
ag1669
aa(lp4103
I1943
ag1737
aaaa(lp4104
I1945
aI1956
ag1518
a(lp4105
(lp4106
I1945
ag1710
aa(lp4107
I1946
ag1679
aa(lp4108
I1947
ag1654
aa(lp4109
I1948
ag1742
aa(lp4110
I1949
ag1676
aa(lp4111
I1950
ag1651
aa(lp4112
I1951
ag1651
aa(lp4113
I1952
ag1662
aa(lp4114
I1953
ag1654
aa(lp4115
I1954
ag1669
aa(lp4116
I1955
ag1644
aa(lp4117
I1956
ag1658
aaaa(lp4118
I1958
aI1960
aS'and'
p4119
a(lp4120
(lp4121
I1958
ag1644
aa(lp4122
I1959
ag1669
aa(lp4123
I1960
ag1660
aaaa(lp4124
I1962
aI1972
ag1527
a(lp4125
(lp4126
I1962
ag1710
aa(lp4127
I1963
ag1679
aa(lp4128
I1964
ag1676
aa(lp4129
I1965
ag1651
aa(lp4130
I1966
ag1676
aa(lp4131
I1967
ag1669
aa(lp4132
I1968
ag1646
aa(lp4133
I1969
ag1644
aa(lp4134
I1970
ag1694
aa(lp4135
I1971
ag1658
aa(lp4136
I1972
ag1676
aaaa(lp4137
I1975
aI1978
aS'this'
p4138
a(lp4139
(lp4140
I1975
ag1646
aa(lp4141
I1976
ag1642
aa(lp4142
I1977
ag1662
aa(lp4143
I1978
ag1651
aaaa(lp4144
I1980
aI1986
ag1536
a(lp4145
(lp4146
I1980
ag1644
aa(lp4147
I1981
ag1679
aa(lp4148
I1982
ag1646
aa(lp4149
I1983
ag1662
aa(lp4150
I1984
ag1882
aa(lp4151
I1985
ag1658
aa(lp4152
I1986
ag1676
aaaa(lp4153
I1988
aI1992
ag1545
a(lp4154
(lp4155
I1988
ag1640
aa(lp4156
I1989
ag1654
aa(lp4157
I1990
ag1656
aa(lp4158
I1991
ag1658
aa(lp4159
I1992
ag1660
aaaa(lp4160
I1994
aI2003
ag1554
a(lp4161
(lp4162
I1994
ag1660
aa(lp4163
I1995
ag1676
aa(lp4164
I1996
ag1742
aa(lp4165
I1997
ag1662
aa(lp4166
I1998
ag1669
aa(lp4167
I1999
ag1662
aa(lp4168
I2000
ag1646
aa(lp4169
I2001
ag1676
aa(lp4170
I2002
ag1658
aa(lp4171
I2003
ag1721
aaaa(lp4172
I2005
aI2006
aS'be'
p4173
a(lp4174
(lp4175
I2005
ag1694
aa(lp4176
I2006
ag1676
aaaa(lp4177
I2008
aI2008
ag1644
a(lp4178
(lp4179
I2008
ag1644
aaaa(lp4180
I2010
aI2016
ag1563
a(lp4181
(lp4182
I2010
ag1694
aa(lp4183
I2011
ag1676
aa(lp4184
I2012
ag1669
aa(lp4185
I2013
ag1676
aa(lp4186
I2014
ag1742
aa(lp4187
I2015
ag1662
aa(lp4188
I2016
ag1646
aaaa(lp4189
I2018
aI2020
aS'for'
p4190
a(lp4191
(lp4192
I2018
ag1742
aa(lp4193
I2019
ag1654
aa(lp4194
I2020
ag1679
aaaa(lp4195
I2022
aI2026
aS'those'
p4196
a(lp4197
(lp4198
I2022
ag1646
aa(lp4199
I2023
ag1642
aa(lp4200
I2024
ag1654
aa(lp4201
I2025
ag1651
aa(lp4202
I2026
ag1676
aaaa(lp4203
I2028
aI2030
aS'who'
p4204
a(lp4205
(lp4206
I2028
ag1640
aa(lp4207
I2029
ag1642
aa(lp4208
I2030
ag1654
aaaa(lp4209
I2032
aI2034
aS'are'
p4210
a(lp4211
(lp4212
I2032
ag1644
aa(lp4213
I2033
ag1679
aa(lp4214
I2034
ag1676
aaaa(lp4215
I2036
aI2044
ag1572
a(lp4216
(lp4217
I2036
ag1710
aa(lp4218
I2037
ag1679
aa(lp4219
I2038
ag1676
aa(lp4220
I2039
ag1710
aa(lp4221
I2040
ag1644
aa(lp4222
I2041
ag1679
aa(lp4223
I2042
ag1662
aa(lp4224
I2043
ag1669
aa(lp4225
I2044
ag1737
aaaa(lp4226
I2046
aI2048
aS'for'
p4227
a(lp4228
(lp4229
I2046
ag1742
aa(lp4230
I2047
ag1654
aa(lp4231
I2048
ag1679
aaaa(lp4232
I2050
aI2050
ag1644
a(lp4233
(lp4234
I2050
ag1644
aaaa(lp4235
I2052
aI2054
ag1581
a(lp4236
(lp4237
I2052
ag1691
aa(lp4238
I2053
ag1654
aa(lp4239
I2054
ag1694
aaaa(lp4240
I2056
aI2064
ag1590
a(lp4241
(lp4242
I2056
ag1662
aa(lp4243
I2057
ag1669
aa(lp4244
I2058
ag1646
aa(lp4245
I2059
ag1676
aa(lp4246
I2060
ag1679
aa(lp4247
I2061
ag1703
aa(lp4248
I2062
ag1662
aa(lp4249
I2063
ag1676
aa(lp4250
I2064
ag1640
aaaa(lp4251
I2067
aI2069
aS'but'
p4252
a(lp4253
(lp4254
I2067
ag1694
aa(lp4255
I2068
ag1656
aa(lp4256
I2069
ag1646
aaaa(lp4257
I2071
aI2072
aS'do'
p4258
a(lp4259
(lp4260
I2071
ag1660
aa(lp4261
I2072
ag1654
aaaa(lp4262
I2074
aI2076
aS'not'
p4263
a(lp4264
(lp4265
I2074
ag1669
aa(lp4266
I2075
ag1654
aa(lp4267
I2076
ag1646
aaaa(lp4268
I2078
aI2081
aS'have'
p4269
a(lp4270
(lp4271
I2078
ag1642
aa(lp4272
I2079
ag1644
aa(lp4273
I2080
ag1703
aa(lp4274
I2081
ag1676
aaaa(lp4275
I2083
aI2085
aS'the'
p4276
a(lp4277
(lp4278
I2083
ag1646
aa(lp4279
I2084
ag1642
aa(lp4280
I2085
ag1676
aaaa(lp4281
I2087
aI2090
ag1599
a(lp4282
(lp4283
I2087
ag1662
aa(lp4284
I2088
ag1660
aa(lp4285
I2089
ag1676
aa(lp4286
I2090
ag1644
aaaa(lp4287
I2092
aI2093
aS'of'
p4288
a(lp4289
(lp4290
I2092
ag1654
aa(lp4291
I2093
ag1742
aaaa(lp4292
I2095
aI2097
aS'how'
p4293
a(lp4294
(lp4295
I2095
ag1642
aa(lp4296
I2096
ag1654
aa(lp4297
I2097
ag1640
aaaa(lp4298
I2099
aI2100
aS'it'
p4299
a(lp4300
(lp4301
I2099
ag1662
aa(lp4302
I2100
ag1646
aaaa(lp4303
I2102
aI2103
aS'is'
p4304
a(lp4305
(lp4306
I2102
ag1662
aa(lp4307
I2103
ag1651
aaaa(lp4308
I2105
aI2106
aS'to'
p4309
a(lp4310
(lp4311
I2105
ag1646
aa(lp4312
I2106
ag1654
aaaa(lp4313
I2108
aI2109
aS'be'
p4314
a(lp4315
(lp4316
I2108
ag1694
aa(lp4317
I2109
ag1676
aaaa(lp4318
I2111
aI2112
aS'in'
p4319
a(lp4320
(lp4321
I2111
ag1662
aa(lp4322
I2112
ag1669
aaaa(lp4323
I2114
aI2114
ag1644
a(lp4324
(lp4325
I2114
ag1644
aaaa(lp4326
I2116
aI2118
ag1608
a(lp4327
(lp4328
I2116
ag1691
aa(lp4329
I2117
ag1654
aa(lp4330
I2118
ag1694
aaaa(lp4331
I2120
aI2128
ag1617
a(lp4332
(lp4333
I2120
ag1662
aa(lp4334
I2121
ag1669
aa(lp4335
I2122
ag1646
aa(lp4336
I2123
ag1676
aa(lp4337
I2124
ag1679
aa(lp4338
I2125
ag1703
aa(lp4339
I2126
ag1662
aa(lp4340
I2127
ag1676
aa(lp4341
I2128
ag1640
aaaa(lp4342
I2131
aI2132
aS'no'
p4343
a(lp4344
(lp4345
I2131
ag1669
aa(lp4346
I2132
ag1654
aaaa(lp4347
I2134
aI2141
ag1626
a(lp4348
(lp4349
I2134
ag1882
aa(lp4350
I2135
ag1654
aa(lp4351
I2136
ag1841
aa(lp4352
I2137
ag1841
aa(lp4353
I2138
ag1676
aa(lp4354
I2139
ag1669
aa(lp4355
I2140
ag1646
aa(lp4356
I2141
ag1651
aaaasS'cleanCharacterMap'
p4357
(lp4358
g1639
ag1641
ag1643
ag1645
a(lp4359
I4
aS' '
p4360
aag1650
ag1652
ag1653
ag1655
ag1657
ag1659
a(lp4361
I11
ag4360
aag1664
a(lp4362
I13
ag4360
aag1668
ag1670
ag1671
a(lp4363
I17
ag4360
aag1674
ag1675
ag1677
ag1678
a(lp4364
I22
ag4360
aag1683
ag1684
a(lp4365
I25
ag4360
aag1687
a(lp4366
I27
ag4360
aag1690
ag1692
ag1693
a(lp4367
I31
ag4360
aag1697
ag1698
ag1699
ag1700
ag1701
ag1702
ag1704
ag1705
ag1706
a(lp4368
I42
ag4360
aag1709
ag1711
ag1712
ag1713
ag1714
ag1715
a(lp4369
I49
ag4360
aag1719
ag1720
a(lp4370
I52
ag4360
aag1724
ag1725
a(lp4371
I55
ag4360
aa(lp4372
I57
ag4360
aa(lp4373
I59
ag4360
aag1728
ag1729
ag1730
ag1731
ag1732
ag1733
ag1734
ag1735
ag1736
a(lp4374
I69
ag4360
aag1741
ag1743
ag1744
a(lp4375
I73
ag4360
aag1747
a(lp4376
I75
ag4360
aag1750
ag1751
ag1752
a(lp4377
I79
ag4360
aag1755
ag1756
ag1757
ag1758
ag1759
ag1760
ag1761
ag1762
ag1763
a(lp4378
I89
ag4360
aag1767
ag1768
ag1769
ag1770
a(lp4379
I94
ag4360
aag1774
ag1775
ag1776
a(lp4380
I98
ag4360
aag1780
ag1781
ag1782
a(lp4381
I102
ag4360
aag1785
ag1786
ag1787
ag1788
ag1789
ag1790
ag1791
ag1792
ag1793
a(lp4382
I112
ag4360
aag1797
ag1798
ag1799
a(lp4383
I116
ag4360
aag1802
a(lp4384
I118
ag4360
aag1805
ag1806
ag1807
a(lp4385
I122
ag4360
aag1810
ag1811
ag1812
ag1813
ag1814
ag1815
ag1816
ag1817
ag1818
a(lp4386
I132
ag4360
aag1822
ag1823
ag1824
a(lp4387
I136
ag4360
aag1827
ag1828
ag1829
ag1830
a(lp4388
I141
ag4360
aag1834
ag1835
a(lp4389
I144
ag4360
aag1838
ag1839
ag1840
ag1842
ag1843
ag1844
ag1845
ag1846
a(lp4390
I153
ag4360
aag1850
ag1851
ag1852
ag1853
a(lp4391
I158
ag4360
aag1857
ag1858
ag1859
a(lp4392
I162
ag4360
aag1862
ag1863
ag1864
a(lp4393
I166
ag4360
aag1868
ag1869
ag1870
a(lp4394
I170
ag4360
aag1873
ag1874
ag1875
ag1876
ag1877
a(lp4395
I176
ag4360
aag1881
ag1883
ag1884
a(lp4396
I180
ag4360
aag1887
ag1888
ag1889
ag1891
a(lp4397
I185
ag4360
aag1895
ag1896
a(lp4398
I188
ag4360
aag1899
ag1900
ag1901
ag1902
ag1903
a(lp4399
I194
ag4360
aag1907
ag1908
ag1909
a(lp4400
I199
ag4360
aag1912
ag1913
ag1914
ag1915
ag1916
ag1917
a(lp4401
I206
ag4360
aag1920
ag1921
ag1922
ag1923
a(lp4402
I211
ag4360
aag1926
ag1927
ag1928
ag1929
ag1930
ag1931
ag1932
a(lp4403
I220
ag4360
aag1936
ag1937
ag1938
a(lp4404
I224
ag4360
aag1942
ag1943
ag1944
ag1945
a(lp4405
I229
ag4360
aag1949
ag1950
ag1951
ag1952
a(lp4406
I234
ag4360
aag1956
ag1957
ag1958
a(lp4407
I238
ag4360
aag1961
ag1962
ag1963
ag1964
ag1965
ag1966
ag1967
ag1968
ag1969
a(lp4408
I249
ag4360
aag1973
ag1974
a(lp4409
I252
ag4360
aag1978
ag1979
ag1980
a(lp4410
I256
ag4360
aag1984
ag1985
ag1986
a(lp4411
I260
ag4360
aag1990
ag1991
a(lp4412
I263
ag4360
aag1994
ag1995
ag1996
ag1997
ag1998
ag1999
a(lp4413
I270
ag4360
aag2003
ag2004
ag2005
ag2006
a(lp4414
I275
ag4360
aag2010
ag2011
ag2012
ag2013
ag2014
a(lp4415
I281
ag4360
aag2018
ag2019
ag2020
a(lp4416
I285
ag4360
aag2023
ag2024
ag2025
ag2026
a(lp4417
I290
ag4360
aag2030
ag2031
ag2032
a(lp4418
I294
ag4360
aag2036
ag2037
a(lp4419
I297
ag4360
aag2040
ag2041
ag2042
ag2043
ag2044
a(lp4420
I303
ag4360
aag2047
ag2048
ag2049
ag2050
a(lp4421
I309
ag4360
aag2054
ag2055
ag2056
a(lp4422
I313
ag4360
aag2059
ag2060
ag2061
ag2062
ag2063
ag2064
a(lp4423
I320
ag4360
aag2068
ag2069
a(lp4424
I323
ag4360
aag2072
ag2073
ag2074
ag2075
ag2076
ag2077
ag2078
ag2079
a(lp4425
I332
ag4360
aag2082
ag2083
ag2084
a(lp4426
I336
ag4360
aag2088
ag2089
a(lp4427
I339
ag4360
aag2092
a(lp4428
I341
ag4360
aag2095
ag2096
ag2097
ag2098
ag2099
ag2100
ag2101
a(lp4429
I349
ag4360
aag2104
ag2105
ag2106
ag2107
ag2108
ag2109
ag2110
ag2111
a(lp4430
I358
ag4360
aag2115
ag2116
ag2117
ag2118
a(lp4431
I363
ag4360
aag2121
ag2122
ag2123
ag2124
ag2125
ag2126
a(lp4432
I370
ag4360
aag2129
ag2130
ag2131
ag2132
ag2133
ag2134
ag2135
ag2136
ag2137
ag2138
ag2139
a(lp4433
I382
ag4360
aag2143
ag2144
ag2145
ag2146
a(lp4434
I387
ag4360
aag2150
ag2151
ag2152
a(lp4435
I391
ag4360
aag2155
ag2156
ag2157
ag2158
ag2159
ag2160
ag2161
ag2162
a(lp4436
I401
ag4360
aag2166
ag2167
ag2168
a(lp4437
I405
ag4360
aag2171
ag2172
a(lp4438
I408
ag4360
aag2176
ag2177
a(lp4439
I411
ag4360
aag2180
ag2181
ag2182
ag2183
a(lp4440
I416
ag4360
aag2187
ag2188
a(lp4441
I419
ag4360
aag2192
ag2193
ag2194
ag2195
a(lp4442
I424
ag4360
aag2199
ag2200
ag2201
a(lp4443
I428
ag4360
aag2204
ag2205
ag2206
ag2207
ag2208
ag2209
a(lp4444
I435
ag4360
aag2213
ag2214
ag2215
a(lp4445
I439
ag4360
aag2219
ag2220
ag2221
ag2222
a(lp4446
I444
ag4360
aag2226
ag2227
a(lp4447
I447
ag4360
aag2230
ag2231
ag2232
ag2233
ag2234
ag2235
a(lp4448
I454
ag4360
aag2239
ag2240
ag2241
ag2242
a(lp4449
I459
ag4360
aag2245
ag2246
ag2247
ag2248
a(lp4450
I464
ag4360
aag2252
ag2253
ag2254
ag2255
ag2256
ag2257
a(lp4451
I471
ag4360
aag2260
ag2261
ag2262
ag2263
ag2264
ag2265
a(lp4452
I478
ag4360
aag2269
ag2270
ag2271
ag2272
a(lp4453
I483
ag4360
aag2275
ag2276
ag2277
ag2278
ag2279
ag2280
ag2281
ag2282
ag2283
ag2284
ag2285
a(lp4454
I496
ag4360
aag2288
ag2289
ag2290
a(lp4455
I500
ag4360
aag2293
ag2294
a(lp4456
I503
ag4360
aag2297
ag2298
ag2299
ag2300
ag2301
ag2302
ag2303
ag2304
a(lp4457
I512
ag4360
aag2308
ag2309
ag2310
ag2311
ag2312
a(lp4458
I518
ag4360
aag2315
ag2316
ag2317
ag2318
ag2319
ag2320
ag2321
a(lp4459
I527
ag4360
aag2325
ag2326
ag2327
a(lp4460
I531
ag4360
aag2330
ag2331
ag2332
ag2333
a(lp4461
I536
ag4360
aag2336
ag2337
ag2338
ag2339
ag2340
ag2341
ag2342
ag2343
ag2344
ag2345
ag2346
a(lp4462
I548
ag4360
aag2350
ag2351
ag2352
ag2353
a(lp4463
I553
ag4360
aag2356
ag2357
ag2358
ag2359
ag2360
a(lp4464
I559
ag4360
aag2364
ag2365
ag2366
a(lp4465
I563
ag4360
aag2370
ag2371
a(lp4466
I566
ag4360
aag2374
ag2375
ag2376
ag2377
ag2378
ag2379
ag2380
ag2381
ag2382
ag2383
a(lp4467
I577
ag4360
aag2387
ag2388
a(lp4468
I580
ag4360
aag2392
ag2393
ag2394
a(lp4469
I585
ag4360
aag2397
ag2398
ag2399
ag2400
a(lp4470
I590
ag4360
aag2403
ag2404
ag2405
ag2406
ag2407
ag2408
a(lp4471
I597
ag4360
aag2412
ag2413
ag2414
a(lp4472
I601
ag4360
aag2418
ag2419
ag2420
a(lp4473
I605
ag4360
aag2423
ag2424
ag2425
a(lp4474
I610
ag4360
aag2429
ag2430
ag2431
a(lp4475
I614
ag4360
aag2434
ag2435
ag2436
ag2437
ag2438
a(lp4476
I620
ag4360
aag2442
ag2443
a(lp4477
I623
ag4360
aag2447
ag2448
ag2449
a(lp4478
I627
ag4360
aag2452
ag2453
ag2454
ag2455
ag2456
ag2457
ag2458
a(lp4479
I635
ag4360
aag2461
ag2462
ag2463
ag2464
ag2465
ag2466
a(lp4480
I642
ag4360
aag2470
ag2471
ag2472
ag2473
a(lp4481
I647
ag4360
aag2477
ag2478
ag2479
ag2480
ag2481
a(lp4482
I653
ag4360
aag2484
ag2485
ag2486
a(lp4483
I657
ag4360
aag2489
ag2490
ag2491
ag2492
ag2493
ag2494
ag2495
ag2496
a(lp4484
I668
ag4360
aag2499
ag2500
ag2501
a(lp4485
I672
ag4360
aag2505
ag2506
a(lp4486
I676
ag4360
aag2510
ag2511
a(lp4487
I679
ag4360
aag2514
ag2515
ag2516
ag2517
a(lp4488
I684
ag4360
aag2521
ag2522
a(lp4489
I687
ag4360
aag2525
ag2526
ag2527
ag2528
ag2529
ag2530
ag2531
ag2532
a(lp4490
I696
ag4360
aag2535
ag2536
ag2537
ag2538
a(lp4491
I701
ag4360
aag2541
ag2542
ag2543
ag2544
ag2545
ag2546
ag2547
ag2548
ag2549
a(lp4492
I711
ag4360
aag2553
ag2554
ag2555
ag2556
a(lp4493
I716
ag4360
aag2560
ag2561
a(lp4494
I719
ag4360
aag2564
ag2565
ag2566
ag2567
ag2568
ag2569
a(lp4495
I726
ag4360
aag2573
ag2574
a(lp4496
I729
ag4360
aag2577
ag2578
ag2579
ag2580
ag2581
a(lp4497
I735
ag4360
aag2585
ag2586
ag2587
a(lp4498
I739
ag4360
aag2590
ag2591
ag2592
ag2593
ag2594
a(lp4499
I745
ag4360
aag2597
ag2598
ag2599
ag2600
a(lp4500
I750
ag4360
aag2604
ag2605
ag2606
a(lp4501
I754
ag4360
aag2609
ag2610
ag2611
ag2612
ag2613
a(lp4502
I760
ag4360
aag2616
ag2617
ag2618
ag2619
ag2620
ag2621
ag2622
ag2623
ag2624
ag2625
a(lp4503
I771
ag4360
aag2629
ag2630
ag2631
a(lp4504
I775
ag4360
aag2635
ag2636
ag2637
a(lp4505
I779
ag4360
aag2641
ag2642
ag2643
a(lp4506
I783
ag4360
aag2646
ag2647
ag2648
ag2649
a(lp4507
I789
ag4360
aag2652
ag2653
ag2654
ag2655
ag2656
ag2657
ag2658
ag2659
a(lp4508
I798
ag4360
aag2663
ag2664
ag2665
ag2666
a(lp4509
I803
ag4360
aag2670
ag2671
ag2672
a(lp4510
I807
ag4360
aag2676
ag2677
ag2678
a(lp4511
I811
ag4360
aag2682
ag2683
ag2684
ag2685
ag2686
a(lp4512
I817
ag4360
aag2690
ag2691
ag2692
a(lp4513
I821
ag4360
aag2696
ag2697
a(lp4514
I824
ag4360
aag2700
ag2701
ag2702
ag2703
ag2704
ag2705
ag2706
ag2707
ag2708
a(lp4515
I834
ag4360
aag2712
ag2713
ag2714
a(lp4516
I838
ag4360
aag2718
ag2719
ag2720
a(lp4517
I842
ag4360
aag2724
ag2725
ag2726
a(lp4518
I846
ag4360
aag2729
a(lp4519
I848
ag4360
aag2732
ag2733
ag2734
ag2735
ag2736
a(lp4520
I854
ag4360
aag2740
ag2741
ag2742
a(lp4521
I859
ag4360
aag2746
ag2747
a(lp4522
I862
ag4360
aag2751
ag2752
a(lp4523
I865
ag4360
aag2756
ag2757
ag2758
a(lp4524
I870
ag4360
aag2762
ag2763
ag2764
a(lp4525
I874
ag4360
aag2768
ag2769
ag2770
ag2771
a(lp4526
I879
ag4360
aag2774
ag2775
ag2776
a(lp4527
I884
ag4360
aag2780
ag2781
ag2782
ag2783
a(lp4528
I889
ag4360
aag2787
ag2788
ag2789
a(lp4529
I893
ag4360
aag2793
ag2794
ag2795
a(lp4530
I897
ag4360
aag2799
ag2800
ag2801
a(lp4531
I901
ag4360
aag2805
ag2806
ag2807
a(lp4532
I905
ag4360
aag2810
a(lp4533
I907
ag4360
aag2813
ag2814
ag2815
a(lp4534
I911
ag4360
aag2818
ag2819
ag2820
ag2821
ag2822
ag2823
ag2824
ag2825
ag2826
a(lp4535
I922
ag4360
aag2830
ag2831
a(lp4536
I925
ag4360
aag2835
ag2836
ag2837
a(lp4537
I929
ag4360
aag2840
ag2841
ag2842
ag2843
ag2844
a(lp4538
I935
ag4360
aag2848
ag2849
ag2850
ag2851
a(lp4539
I940
ag4360
aag2855
ag2856
ag2857
a(lp4540
I944
ag4360
aag2860
a(lp4541
I946
ag4360
aag2863
ag2864
ag2865
ag2866
ag2867
ag2868
ag2869
a(lp4542
I954
ag4360
aag2872
ag2873
ag2874
ag2875
ag2876
ag2877
ag2878
a(lp4543
I962
ag4360
aag2881
ag2882
ag2883
a(lp4544
I967
ag4360
aag2886
ag2887
ag2888
ag2889
ag2890
ag2891
a(lp4545
I974
ag4360
aag2895
ag2896
ag2897
a(lp4546
I978
ag4360
aag2900
ag2901
ag2902
ag2903
ag2904
ag2905
a(lp4547
I985
ag4360
aag2908
ag2909
ag2910
ag2911
ag2912
ag2913
ag2914
a(lp4548
I993
ag4360
aag2918
ag2919
ag2920
a(lp4549
I997
ag4360
aag2923
ag2924
ag2925
ag2926
ag2927
ag2928
a(lp4550
I1004
ag4360
aag2931
ag2932
ag2933
ag2934
ag2935
ag2936
a(lp4551
I1011
ag4360
aag2939
a(lp4552
I1013
ag4360
aag2942
ag2943
ag2944
ag2945
ag2946
ag2947
ag2948
ag2949
ag2950
ag2951
ag2952
ag2953
a(lp4553
I1026
ag4360
aag2956
ag2957
ag2958
ag2959
ag2960
a(lp4554
I1032
ag4360
aag2964
ag2965
ag2966
ag2967
a(lp4555
I1037
ag4360
aag2970
ag2971
ag2972
ag2973
ag2974
a(lp4556
I1043
ag4360
aag2977
ag2978
a(lp4557
I1046
ag4360
aag2981
ag2982
ag2983
ag2984
ag2985
a(lp4558
I1052
ag4360
aag2989
ag2990
ag2991
ag2992
a(lp4559
I1057
ag4360
aag2996
ag2997
ag2998
ag2999
a(lp4560
I1062
ag4360
aag3002
ag3003
ag3004
ag3005
ag3006
a(lp4561
I1069
ag4360
aag3009
ag3010
ag3011
ag3012
ag3013
a(lp4562
I1075
ag4360
aag3016
ag3017
ag3018
ag3019
ag3020
a(lp4563
I1082
ag4360
aag3023
ag3024
ag3025
ag3026
ag3027
a(lp4564
I1088
ag4360
aag3030
ag3031
ag3032
ag3033
ag3034
ag3035
a(lp4565
I1096
ag4360
aag3038
ag3039
ag3040
ag3041
ag3042
a(lp4566
I1102
ag4360
aag3045
ag3046
ag3047
ag3048
a(lp4567
I1107
ag4360
aag3052
ag3053
a(lp4568
I1110
ag4360
aag3057
ag3058
ag3059
ag3060
ag3061
a(lp4569
I1116
ag4360
aag3065
ag3066
ag3067
a(lp4570
I1120
ag4360
aag3070
ag3071
ag3072
ag3073
a(lp4571
I1125
ag4360
aag3076
ag3077
ag3078
ag3079
ag3080
a(lp4572
I1132
ag4360
aag3084
ag3085
ag3086
ag3087
a(lp4573
I1137
ag4360
aag3090
ag3091
ag3092
ag3093
a(lp4574
I1142
ag4360
aag3096
ag3097
ag3098
a(lp4575
I1146
ag4360
aag3102
ag3103
a(lp4576
I1149
ag4360
aag3107
ag3108
ag3109
a(lp4577
I1153
ag4360
aag3112
ag3113
ag3114
ag3115
ag3116
ag3117
ag3118
ag3119
a(lp4578
I1162
ag4360
aag3123
ag3124
a(lp4579
I1165
ag4360
aag3127
ag3128
ag3129
ag3130
a(lp4580
I1170
ag4360
aag3134
ag3135
ag3136
a(lp4581
I1174
ag4360
aag3140
ag3141
ag3142
ag3143
ag3144
a(lp4582
I1180
ag4360
aag3148
ag3149
a(lp4583
I1183
ag4360
aag3152
ag3153
ag3154
ag3155
ag3156
ag3157
ag3158
ag3159
ag3160
ag3161
ag3162
a(lp4584
I1195
ag4360
aag3166
ag3167
ag3168
ag3169
a(lp4585
I1200
ag4360
aag3173
ag3174
ag3175
a(lp4586
I1204
ag4360
aag3178
ag3179
ag3180
ag3182
ag3183
ag3184
ag3185
a(lp4587
I1212
ag4360
aag3189
ag3190
ag3191
a(lp4588
I1216
ag4360
aag3195
ag3196
a(lp4589
I1219
ag4360
aag3199
ag3200
ag3201
ag3202
a(lp4590
I1224
ag4360
aag3206
ag3207
ag3208
ag3209
a(lp4591
I1229
ag4360
aag3212
ag3213
ag3214
ag3215
a(lp4592
I1234
ag4360
aag3219
ag3220
a(lp4593
I1237
ag4360
aag3223
ag3224
ag3225
ag3226
ag3227
a(lp4594
I1244
ag4360
aag3231
ag3232
ag3233
a(lp4595
I1248
ag4360
aag3236
ag3237
ag3238
ag3239
ag3240
a(lp4596
I1254
ag4360
aag3243
ag3244
ag3245
ag3246
a(lp4597
I1259
ag4360
aag3249
ag3250
ag3251
ag3252
ag3253
ag3254
ag3255
ag3256
ag3257
ag3258
ag3259
ag3260
ag3261
ag3262
a(lp4598
I1275
ag4360
aag3266
ag3267
ag3268
a(lp4599
I1279
ag4360
aag3272
ag3273
ag3274
a(lp4600
I1283
ag4360
aag3278
ag3279
ag3280
a(lp4601
I1287
ag4360
aag3283
a(lp4602
I1289
ag4360
aag3286
ag3287
ag3288
ag3289
ag3290
ag3291
ag3292
ag3293
ag3294
a(lp4603
I1299
ag4360
aag3297
ag3298
ag3299
ag3300
a(lp4604
I1305
ag4360
aag3303
ag3304
ag3305
ag3306
ag3307
ag3308
ag3309
a(lp4605
I1313
ag4360
aag3313
ag3314
ag3315
a(lp4606
I1317
ag4360
aag3318
ag3319
ag3320
ag3321
ag3322
ag3323
ag3324
ag3325
ag3326
ag3327
ag3328
a(lp4607
I1329
ag4360
aag3331
ag3332
ag3333
ag3334
ag3335
a(lp4608
I1335
ag4360
aag3338
ag3339
ag3340
ag3341
ag3342
ag3343
a(lp4609
I1342
ag4360
aag3347
ag3348
a(lp4610
I1345
ag4360
aag3351
ag3352
ag3353
ag3354
a(lp4611
I1350
ag4360
aag3357
ag3358
ag3359
ag3360
ag3361
ag3362
a(lp4612
I1358
ag4360
aag3366
ag3367
ag3368
a(lp4613
I1362
ag4360
aag3372
ag3373
ag3374
ag3375
a(lp4614
I1367
ag4360
aag3378
ag3379
ag3380
ag3381
ag3382
a(lp4615
I1374
ag4360
aag3386
ag3387
ag3388
a(lp4616
I1378
ag4360
aag3391
ag3392
ag3393
ag3394
ag3395
ag3396
ag3397
ag3398
ag3399
ag3400
a(lp4617
I1390
ag4360
aag3403
ag3404
ag3405
a(lp4618
I1394
ag4360
aag3408
ag3409
ag3410
ag3411
ag3412
ag3413
ag3414
ag3415
ag3416
ag3417
a(lp4619
I1406
ag4360
aag3420
ag3421
ag3422
ag3423
a(lp4620
I1411
ag4360
aag3426
ag3427
ag3428
ag3429
a(lp4621
I1416
ag4360
aag3433
ag3434
ag3435
ag3436
a(lp4622
I1421
ag4360
aag3440
ag3441
ag3442
a(lp4623
I1425
ag4360
aag3446
ag3447
a(lp4624
I1428
ag4360
aag3451
ag3452
ag3453
a(lp4625
I1432
ag4360
aag3456
ag3457
ag3458
ag3459
a(lp4626
I1437
ag4360
aag3463
ag3464
ag3465
a(lp4627
I1441
ag4360
aag3468
ag3469
ag3470
ag3471
a(lp4628
I1447
ag4360
aag3475
ag3476
ag3477
a(lp4629
I1451
ag4360
aag3480
ag3481
ag3483
ag3484
ag3485
ag3486
ag3487
a(lp4630
I1459
ag4360
aag3490
ag3491
ag3492
ag3493
ag3494
ag3495
ag3496
ag3497
a(lp4631
I1469
ag4360
aag3501
ag3502
a(lp4632
I1472
ag4360
aag3506
ag3507
ag3508
a(lp4633
I1476
ag4360
aag3511
ag3512
ag3513
ag3514
a(lp4634
I1481
ag4360
aag3518
ag3519
ag3520
a(lp4635
I1485
ag4360
aag3524
ag3525
ag3526
ag3527
a(lp4636
I1490
ag4360
aag3531
ag3532
ag3533
a(lp4637
I1494
ag4360
aag3537
ag3538
ag3539
ag3540
a(lp4638
I1499
ag4360
aag3544
ag3545
ag3546
ag3547
a(lp4639
I1504
ag4360
aag3551
ag3552
ag3553
ag3554
a(lp4640
I1509
ag4360
aag3557
ag3558
ag3559
a(lp4641
I1513
ag4360
aag3562
ag3563
ag3564
ag3565
ag3566
ag3567
ag3568
ag3569
a(lp4642
I1522
ag4360
aag3572
ag3573
ag3574
a(lp4643
I1526
ag4360
aag3577
ag3578
ag3579
a(lp4644
I1530
ag4360
aag3583
ag3584
a(lp4645
I1533
ag4360
aag3587
ag3588
ag3589
ag3590
ag3591
ag3592
ag3593
a(lp4646
I1541
ag4360
aag3597
ag3598
ag3599
ag3600
a(lp4647
I1546
ag4360
aag3604
ag3605
ag3606
ag3607
a(lp4648
I1551
ag4360
aag3610
ag3611
ag3612
a(lp4649
I1555
ag4360
aag3615
ag3616
ag3617
ag3618
ag3619
ag3620
ag3621
a(lp4650
I1564
ag4360
aag3624
ag3625
ag3626
a(lp4651
I1568
ag4360
aag3630
ag3631
ag3632
a(lp4652
I1572
ag4360
aag3636
ag3637
ag3638
a(lp4653
I1577
ag4360
aag3642
ag3643
ag3644
a(lp4654
I1581
ag4360
aag3647
ag3648
ag3649
a(lp4655
I1586
ag4360
aag3653
ag3654
ag3655
a(lp4656
I1590
ag4360
aag3658
ag3659
ag3660
ag3661
ag3662
ag3663
a(lp4657
I1597
ag4360
aag3667
ag3668
a(lp4658
I1600
ag4360
aag3671
ag3672
ag3673
ag3674
a(lp4659
I1605
ag4360
aag3678
ag3679
a(lp4660
I1608
ag4360
aag3682
a(lp4661
I1610
ag4360
aag3685
ag3686
ag3687
ag3688
ag3689
ag3690
ag3691
ag3692
a(lp4662
I1619
ag4360
aag3695
ag3696
ag3697
ag3698
ag3699
a(lp4663
I1625
ag4360
aag3703
ag3704
ag3705
a(lp4664
I1629
ag4360
aag3709
ag3710
a(lp4665
I1632
ag4360
aag3713
ag3714
ag3715
ag3716
ag3717
a(lp4666
I1638
ag4360
aag3721
ag3722
a(lp4667
I1641
ag4360
aag3725
ag3726
ag3727
ag3728
a(lp4668
I1646
ag4360
aag3732
ag3733
ag3734
ag3735
a(lp4669
I1651
ag4360
aag3738
ag3739
ag3740
ag3741
ag3742
ag3743
ag3744
ag3745
ag3746
ag3747
ag3748
ag3749
a(lp4670
I1664
ag4360
aag3753
ag3754
a(lp4671
I1667
ag4360
aag3757
ag3758
ag3759
ag3760
a(lp4672
I1672
ag4360
aag3763
a(lp4673
I1674
ag4360
aag3766
ag3767
ag3768
ag3769
ag3770
ag3771
ag3772
ag3773
ag3774
ag3775
ag3776
a(lp4674
I1687
ag4360
aag3779
ag3780
ag3781
a(lp4675
I1691
ag4360
aag3785
ag3786
ag3787
ag3788
a(lp4676
I1696
ag4360
aag3791
ag3792
ag3793
a(lp4677
I1701
ag4360
aag3796
ag3797
ag3798
ag3799
ag3800
a(lp4678
I1707
ag4360
aag3803
ag3804
ag3805
ag3806
a(lp4679
I1712
ag4360
aag3809
ag3810
ag3811
ag3812
ag3813
ag3814
ag3815
ag3816
ag3817
ag3818
a(lp4680
I1724
ag4360
aag3822
ag3823
ag3824
a(lp4681
I1728
ag4360
aag3828
ag3829
a(lp4682
I1731
ag4360
aag3832
ag3833
ag3834
ag3835
ag3836
ag3837
ag3838
ag3839
ag3840
a(lp4683
I1742
ag4360
aag3844
ag3845
ag3846
a(lp4684
I1746
ag4360
aag3849
ag3850
ag3851
a(lp4685
I1750
ag4360
aag3855
ag3856
ag3857
ag3858
a(lp4686
I1755
ag4360
aag3861
ag3862
ag3863
a(lp4687
I1759
ag4360
aag3867
ag3868
a(lp4688
I1762
ag4360
aag3871
ag3872
ag3873
ag3874
ag3875
ag3876
a(lp4689
I1769
ag4360
aag3880
ag3881
ag3882
a(lp4690
I1773
ag4360
aag3886
ag3887
ag3888
a(lp4691
I1777
ag4360
aag3892
ag3893
a(lp4692
I1780
ag4360
aag3896
ag3897
ag3898
ag3899
ag3900
ag3901
ag3902
a(lp4693
I1789
ag4360
aag3906
ag3907
ag3908
a(lp4694
I1793
ag4360
aag3912
ag3913
a(lp4695
I1796
ag4360
aag3917
ag3918
ag3919
a(lp4696
I1800
ag4360
aag3923
ag3924
ag3925
ag3926
a(lp4697
I1805
ag4360
aag3930
ag3931
a(lp4698
I1808
ag4360
aag3935
ag3936
a(lp4699
I1811
ag4360
aag3939
a(lp4700
I1813
ag4360
aag3942
ag3943
ag3944
ag3945
ag3946
a(lp4701
I1819
ag4360
aag3949
ag3950
ag3951
ag3952
ag3953
ag3954
ag3955
a(lp4702
I1827
ag4360
aag3959
ag3960
a(lp4703
I1830
ag4360
aag3963
a(lp4704
I1832
ag4360
aag3966
ag3967
ag3968
ag3969
a(lp4705
I1837
ag4360
aag3972
ag3973
ag3974
ag3975
ag3976
ag3977
a(lp4706
I1844
ag4360
aag3981
ag3982
ag3983
ag3984
a(lp4707
I1849
ag4360
aag3988
ag3989
ag3990
a(lp4708
I1853
ag4360
aag3993
ag3994
ag3995
ag3996
a(lp4709
I1858
ag4360
aag3999
ag4000
ag4001
ag4002
ag4003
ag4004
ag4005
a(lp4710
I1866
ag4360
aag4009
ag4010
ag4011
a(lp4711
I1870
ag4360
aag4014
a(lp4712
I1872
ag4360
aag4017
ag4018
ag4019
a(lp4713
I1876
ag4360
aag4022
ag4023
ag4024
ag4025
ag4026
ag4027
ag4028
ag4029
ag4030
a(lp4714
I1887
ag4360
aag4034
ag4035
ag4036
a(lp4715
I1891
ag4360
aag4040
ag4041
ag4042
ag4043
a(lp4716
I1896
ag4360
aag4047
ag4048
ag4049
ag4050
a(lp4717
I1901
ag4360
aag4054
ag4055
a(lp4718
I1904
ag4360
aag4058
ag4059
ag4060
ag4061
ag4062
ag4063
ag4064
ag4065
a(lp4719
I1913
ag4360
aag4069
ag4070
ag4071
a(lp4720
I1917
ag4360
aag4074
ag4075
ag4076
ag4077
ag4078
a(lp4721
I1923
ag4360
aag4081
ag4082
ag4083
ag4084
ag4085
ag4086
ag4087
ag4088
ag4089
a(lp4722
I1933
ag4360
aag4093
ag4094
a(lp4723
I1936
ag4360
aag4097
ag4098
ag4099
ag4100
ag4101
ag4102
ag4103
a(lp4724
I1944
ag4360
aag4106
ag4107
ag4108
ag4109
ag4110
ag4111
ag4112
ag4113
ag4114
ag4115
ag4116
ag4117
a(lp4725
I1957
ag4360
aag4121
ag4122
ag4123
a(lp4726
I1961
ag4360
aag4126
ag4127
ag4128
ag4129
ag4130
ag4131
ag4132
ag4133
ag4134
ag4135
ag4136
a(lp4727
I1974
ag4360
aag4140
ag4141
ag4142
ag4143
a(lp4728
I1979
ag4360
aag4146
ag4147
ag4148
ag4149
ag4150
ag4151
ag4152
a(lp4729
I1987
ag4360
aag4155
ag4156
ag4157
ag4158
ag4159
a(lp4730
I1993
ag4360
aag4162
ag4163
ag4164
ag4165
ag4166
ag4167
ag4168
ag4169
ag4170
ag4171
a(lp4731
I2004
ag4360
aag4175
ag4176
a(lp4732
I2007
ag4360
aag4179
a(lp4733
I2009
ag4360
aag4182
ag4183
ag4184
ag4185
ag4186
ag4187
ag4188
a(lp4734
I2017
ag4360
aag4192
ag4193
ag4194
a(lp4735
I2021
ag4360
aag4198
ag4199
ag4200
ag4201
ag4202
a(lp4736
I2027
ag4360
aag4206
ag4207
ag4208
a(lp4737
I2031
ag4360
aag4212
ag4213
ag4214
a(lp4738
I2035
ag4360
aag4217
ag4218
ag4219
ag4220
ag4221
ag4222
ag4223
ag4224
ag4225
a(lp4739
I2045
ag4360
aag4229
ag4230
ag4231
a(lp4740
I2049
ag4360
aag4234
a(lp4741
I2051
ag4360
aag4237
ag4238
ag4239
a(lp4742
I2055
ag4360
aag4242
ag4243
ag4244
ag4245
ag4246
ag4247
ag4248
ag4249
ag4250
a(lp4743
I2066
ag4360
aag4254
ag4255
ag4256
a(lp4744
I2070
ag4360
aag4260
ag4261
a(lp4745
I2073
ag4360
aag4265
ag4266
ag4267
a(lp4746
I2077
ag4360
aag4271
ag4272
ag4273
ag4274
a(lp4747
I2082
ag4360
aag4278
ag4279
ag4280
a(lp4748
I2086
ag4360
aag4283
ag4284
ag4285
ag4286
a(lp4749
I2091
ag4360
aag4290
ag4291
a(lp4750
I2094
ag4360
aag4295
ag4296
ag4297
a(lp4751
I2098
ag4360
aag4301
ag4302
a(lp4752
I2101
ag4360
aag4306
ag4307
a(lp4753
I2104
ag4360
aag4311
ag4312
a(lp4754
I2107
ag4360
aag4316
ag4317
a(lp4755
I2110
ag4360
aag4321
ag4322
a(lp4756
I2113
ag4360
aag4325
a(lp4757
I2115
ag4360
aag4328
ag4329
ag4330
a(lp4758
I2119
ag4360
aag4333
ag4334
ag4335
ag4336
ag4337
ag4338
ag4339
ag4340
ag4341
a(lp4759
I2130
ag4360
aag4345
ag4346
a(lp4760
I2133
ag4360
aag4349
ag4350
ag4351
ag4352
ag4353
ag4354
ag4355
ag4356
a(lp4761
I2142
ag4360
aa(lp4762
I2144
aS'\xbb'
p4763
aasS'text'
p4764
S'what should i not wear to a job interview? posted by hr | | preparing for a job interview when you are preparing for a job interview you need to remember that the way you dress can make or break you. people need clothes, but more than the necessity, it can not be denied that those who know how to dress well, for either an ordinary day or a special occasion will create impressions that are positive. for us to come up with the things you have to remind your self before facing your interviewer, let us identify those clothes, and even accessories that would not be flattering at all. wild colors are not hot. you could be the hottest person with those red top-to-toe get up. as much as possible wear something that is subtle in color but would make you looks flattering but not too loud. remember that you are there for an interview and not for a night out. it is you, not your bag. when you are out for a job interview, do not bring with you a heavily printed bag, purses are better options and please choose a conservative color that could go along with your dress. short skirt, short chance. never wear an above the knee skirt. your legs may be the silkiest in town but being an interviewee does not require you to wear this type of skirt. you would look unprofessional. you are not a christmas tree. jewelry and accessories could really be good add-ons for your looks. for interviews, job interviews, make sure that you do not wear too much. for example earrings, do not show off that you have more than one piercing per ear by wearing more than one earring. tie for him. for men, the safest to wear is a collared shirt but it would be also more professional to wear a long-sleeved top with tie. never wear turtle-neck for an interview. you may just end up sweaty and out of fashion. you do not have to be a power dresser or a head turner when you wear clothes for a job interview. you just have to remember the basic reminders of looking professional and presentable. this article would definitely be a benefit for those who are preparing for a job interview, but do not have the idea of how it is to be in a job interview. no comments \xc2\xbb'
p4765
sS'cleanWordMap'
p4766
(lp4767
g1672
ag1688
ag1695
ag1707
ag1722
ag1726
ag1748
ag1753
ag1783
ag1803
ag1808
ag1825
ag1836
ag1860
ag1871
ag1885
ag1897
ag1910
ag1918
ag1924
ag1959
ag1992
ag2021
ag2038
ag2045
ag2057
ag2070
ag2080
ag2093
ag2102
ag2119
ag2127
ag2153
ag2169
ag2178
ag2202
ag2228
ag2243
ag2258
ag2273
ag2286
ag2291
ag2295
ag2313
ag2328
ag2334
ag2354
ag2372
ag2395
ag2401
ag2421
ag2432
ag2450
ag2459
ag2482
ag2487
ag2497
ag2512
ag2523
ag2533
ag2539
ag2562
ag2575
ag2588
ag2595
ag2607
ag2614
ag2644
ag2650
ag2698
ag2730
ag2772
ag2811
ag2816
ag2838
ag2861
ag2870
ag2879
ag2884
ag2898
ag2906
ag2921
ag2929
ag2940
ag2954
ag2968
ag2975
ag2979
ag3000
ag3007
ag3014
ag3021
ag3028
ag3036
ag3043
ag3068
ag3074
ag3088
ag3094
ag3110
ag3125
ag3150
ag3176
ag3197
ag3210
ag3221
ag3234
ag3241
ag3247
ag3284
ag3295
ag3301
ag3316
ag3329
ag3336
ag3349
ag3355
ag3376
ag3389
ag3401
ag3406
ag3418
ag3424
ag3454
ag3466
ag3478
ag3488
ag3509
ag3555
ag3560
ag3570
ag3575
ag3585
ag3608
ag3613
ag3622
ag3645
ag3656
ag3669
ag3683
ag3693
ag3711
ag3723
ag3736
ag3755
ag3764
ag3777
ag3789
ag3794
ag3801
ag3807
ag3830
ag3847
ag3859
ag3869
ag3894
ag3940
ag3947
ag3964
ag3970
ag3991
ag3997
ag4015
ag4020
ag4056
ag4072
ag4079
ag4095
ag4104
ag4124
ag4144
ag4153
ag4160
ag4180
ag4215
ag4235
ag4240
ag4281
ag4326
ag4331
ag4347
asS'lines'
p4768
(lp4769
VWhat Should I NOT Wear to a Job Interview?\u000a
p4770
aVPosted by HR | | Preparing for a job interview\u000a
p4771
aVWhen you are preparing for a job interview you need to remember that the way you dress can make or break you. People need clothes, but more than the necessity, it can not be denied that those who know how to dress well, for either an ordinary day or a special occasion will create impressions that are positive. For us to come up with the things you have to remind your self before facing your interviewer, let us identify those clothes, and even accessories that would not be flattering at all.\u000a
p4772
aVWild colors are not hot.\u000a
p4773
aVYou could be the hottest person with those red top-to-toe get up. As much as possible wear something that is subtle in color but would make you looks flattering but not too loud. Remember that you are there for an interview and not for a night out.\u000a
p4774
aVIt is you, not your bag.\u000a
p4775
aVWhen you are out for a job interview, do not bring with you a heavily printed bag, purses are better options and please choose a conservative color that could go along with your dress.\u000a
p4776
aVShort skirt, short chance.\u000a
p4777
aVNever wear an above the knee skirt. Your legs may be the silkiest in town but being an interviewee does not require you to wear this type of skirt. You would look unprofessional.\u000a
p4778
aVYou are not a Christmas tree.\u000a
p4779
aVJewelry and accessories could really be good add-ons for your looks. For interviews, job interviews, make sure that you do not wear too much. For example earrings, do not show off that you have more than one piercing per ear by wearing more than one earring.\u000a
p4780
aVTie for him.\u000a
p4781
aVFor men, the safest to wear is a collared shirt but it would be also more professional to wear a long-sleeved top with tie. Never wear turtle-neck for an interview. You may just end up sweaty and out of fashion.\u000a
p4782
aVYou do not have to be a power dresser or a head turner when you wear clothes for a job interview. You just have to remember the basic reminders of looking professional and presentable. This article would definitely be a benefit for those who are preparing for a job interview, but do not have the idea of how it is to be in a job interview.\u000a
p4783
aVNo Comments 
p4784
asS'docType'
p4785
S'src'
p4786
sS'newfmap'
p4787
(lp4788
g4
ag8
ag10
ag12
ag14
ag17
ag19
ag21
ag26
ag28
ag30
ag32
ag35
ag37
ag39
ag41
ag44
ag46
ag48
ag50
ag53
ag55
ag57
ag62
ag64
ag66
ag71
ag73
ag75
ag77
ag80
ag82
ag84
ag89
ag91
ag98
ag100
ag104
ag107
ag109
ag111
ag113
ag116
ag118
ag120
ag122
ag125
ag127
ag129
ag131
ag134
ag136
ag138
ag140
ag143
ag145
ag147
ag149
ag152
ag154
ag156
ag158
ag161
ag163
ag165
ag167
ag170
ag172
ag174
ag176
ag179
ag181
ag183
ag185
ag188
ag190
ag192
ag194
ag197
ag199
ag201
ag203
ag206
ag208
ag210
ag212
ag215
ag217
ag219
ag221
ag224
ag226
ag228
ag230
ag233
ag235
ag237
ag239
ag242
ag244
ag246
ag248
ag251
ag253
ag255
ag257
ag260
ag262
ag264
ag266
ag269
ag271
ag273
ag275
ag278
ag280
ag282
ag284
ag287
ag289
ag291
ag293
ag296
ag298
ag300
ag302
ag305
ag307
ag309
ag311
ag314
ag316
ag318
ag320
ag323
ag325
ag327
ag329
ag332
ag334
ag336
ag338
ag341
ag343
ag345
ag347
ag350
ag352
ag354
ag356
ag359
ag361
ag363
ag365
ag368
ag370
ag372
ag374
ag377
ag379
ag381
ag383
ag386
ag388
ag390
ag392
ag395
ag397
ag399
ag401
ag404
ag406
ag408
ag410
ag413
ag415
ag417
ag419
ag422
ag424
ag426
ag428
ag431
ag433
ag435
ag437
ag440
ag442
ag444
ag446
ag449
ag451
ag453
ag455
ag458
ag460
ag462
ag464
ag467
ag469
ag471
ag473
ag476
ag478
ag480
ag482
ag485
ag487
ag489
ag491
ag494
ag496
ag498
ag500
ag503
ag505
ag507
ag509
ag512
ag514
ag516
ag518
ag521
ag523
ag525
ag527
ag530
ag532
ag534
ag536
ag539
ag541
ag543
ag545
ag548
ag550
ag552
ag554
ag557
ag559
ag561
ag563
ag566
ag568
ag570
ag572
ag575
ag577
ag579
ag581
ag584
ag586
ag588
ag590
ag593
ag595
ag597
ag599
ag602
ag604
ag606
ag608
ag611
ag613
ag615
ag617
ag620
ag622
ag624
ag626
ag629
ag631
ag633
ag635
ag638
ag640
ag642
ag644
ag647
ag649
ag651
ag653
ag656
ag658
ag660
ag665
ag667
ag669
ag671
ag674
ag676
ag678
ag680
ag683
ag685
ag687
ag689
ag692
ag694
ag696
ag698
ag701
ag703
ag705
ag707
ag710
ag712
ag714
ag716
ag719
ag721
ag723
ag725
ag728
ag730
ag732
ag734
ag737
ag739
ag741
ag743
ag746
ag748
ag750
ag752
ag755
ag757
ag759
ag761
ag764
ag766
ag768
ag770
ag773
ag775
ag777
ag779
ag782
ag784
ag786
ag788
ag791
ag793
ag795
ag797
ag800
ag802
ag804
ag806
ag809
ag811
ag813
ag815
ag818
ag820
ag822
ag824
ag827
ag829
ag831
ag833
ag836
ag838
ag840
ag842
ag845
ag847
ag849
ag851
ag854
ag856
ag858
ag860
ag863
ag865
ag867
ag869
ag872
ag874
ag876
ag878
ag881
ag883
ag885
ag887
ag890
ag892
ag894
ag896
ag899
ag901
ag903
ag905
ag908
ag910
ag912
ag914
ag917
ag919
ag921
ag923
ag926
ag928
ag930
ag932
ag935
ag937
ag939
ag941
ag944
ag946
ag948
ag950
ag953
ag955
ag957
ag959
ag962
ag964
ag966
ag968
ag971
ag973
ag975
ag977
ag980
ag982
ag984
ag986
ag989
ag991
ag993
ag995
ag998
ag1000
ag1002
ag1004
ag1007
ag1009
ag1011
ag1013
ag1016
ag1018
ag1020
ag1022
ag1025
ag1027
ag1029
ag1031
ag1034
ag1036
ag1038
ag1040
ag1043
ag1045
ag1047
ag1049
ag1052
ag1054
ag1056
ag1058
ag1061
ag1063
ag1065
ag1067
ag1070
ag1072
ag1074
ag1076
ag1079
ag1081
ag1083
ag1085
ag1088
ag1090
ag1092
ag1094
ag1097
ag1099
ag1101
ag1103
ag1106
ag1108
ag1110
ag1112
ag1115
ag1117
ag1119
ag1121
ag1124
ag1126
ag1128
ag1130
ag1133
ag1135
ag1137
ag1139
ag1142
ag1144
ag1146
ag1148
ag1151
ag1153
ag1155
ag1157
ag1160
ag1162
ag1164
ag1166
ag1169
ag1171
ag1173
ag1175
ag1178
ag1180
ag1182
ag1184
ag1187
ag1189
ag1191
ag1193
ag1196
ag1198
ag1200
ag1202
ag1205
ag1207
ag1209
ag1211
ag1214
ag1216
ag1218
ag1220
ag1223
ag1225
ag1227
ag1229
ag1232
ag1234
ag1236
ag1238
ag1241
ag1243
ag1245
ag1247
ag1250
ag1252
ag1254
ag1256
ag1259
ag1261
ag1263
ag1265
ag1268
ag1270
ag1272
ag1274
ag1277
ag1279
ag1281
ag1283
ag1286
ag1288
ag1290
ag1292
ag1295
ag1297
ag1299
ag1301
ag1304
ag1306
ag1308
ag1310
ag1313
ag1315
ag1317
ag1319
ag1322
ag1324
ag1326
ag1328
ag1331
ag1333
ag1335
ag1337
ag1340
ag1342
ag1344
ag1346
ag1349
ag1351
ag1353
ag1355
ag1358
ag1360
ag1362
ag1364
ag1367
ag1369
ag1371
ag1373
ag1376
ag1378
ag1380
ag1382
ag1385
ag1387
ag1389
ag1391
ag1394
ag1396
ag1398
ag1400
ag1403
ag1405
ag1407
ag1409
ag1412
ag1414
ag1416
ag1418
ag1421
ag1423
ag1425
ag1427
ag1430
ag1432
ag1434
ag1436
ag1439
ag1441
ag1443
ag1445
ag1448
ag1450
ag1452
ag1454
ag1457
ag1459
ag1461
ag1463
ag1466
ag1468
ag1470
ag1475
ag1477
ag1479
ag1481
ag1484
ag1486
ag1488
ag1490
ag1493
ag1495
ag1497
ag1499
ag1502
ag1504
ag1506
ag1508
ag1511
ag1513
ag1515
ag1517
ag1520
ag1522
ag1524
ag1526
ag1529
ag1531
ag1533
ag1535
ag1538
ag1540
ag1542
ag1544
ag1547
ag1549
ag1551
ag1553
ag1556
ag1558
ag1560
ag1562
ag1565
ag1567
ag1569
ag1571
ag1574
ag1576
ag1578
ag1583
ag1585
ag1587
ag1592
ag1594
ag1596
ag1598
ag1601
ag1603
ag1605
ag1607
ag1610
ag1612
ag1619
ag1621
ag1625
ag1628
ag1630
ag1632
asS'featureMap'
p4789
(lp4790
(lp4791
I18
aI21
ag5
ag6
ag9
ag11
ag13
aa(lp4792
I28
aI30
ag15
ag16
ag18
ag20
ag22
aa(lp4793
I32
aI40
ag24
ag25
ag27
ag29
ag31
aa(lp4794
I43
aI48
ag33
ag34
ag36
ag38
ag40
aa(lp4795
I53
aI54
ag42
ag43
ag45
ag47
ag49
aa(lp4796
I60
aI68
ag51
ag52
ag54
ag56
ag58
aa(lp4797
I76
aI78
ag60
ag61
ag63
ag65
ag67
aa(lp4798
I80
aI88
ag69
ag70
ag72
ag74
ag76
aa(lp4799
I103
aI111
ag78
ag79
ag81
ag83
ag85
aa(lp4800
I119
aI121
ag87
ag88
ag90
ag92
ag94
aa(lp4801
I123
aI131
ag96
ag97
ag99
ag101
ag103
aa(lp4802
I137
aI140
ag105
ag106
ag108
ag110
ag112
aa(lp4803
I145
aI152
ag114
ag115
ag117
ag119
ag121
aa(lp4804
I163
aI165
ag123
ag124
ag126
ag128
ag130
aa(lp4805
I171
aI175
ag132
ag133
ag135
ag137
ag139
aa(lp4806
I181
aI184
ag141
ag142
ag144
ag146
ag148
aa(lp4807
I189
aI193
ag150
ag151
ag153
ag155
ag157
aa(lp4808
I200
aI205
ag159
ag160
ag162
ag164
ag166
aa(lp4809
I207
aI210
ag168
ag169
ag171
ag173
ag175
aa(lp4810
I212
aI218
ag177
ag178
ag180
ag182
ag184
aa(lp4811
I239
aI247
ag186
ag187
ag189
ag191
ag193
aa(lp4812
I264
aI269
ag195
ag196
ag198
ag200
ag202
aa(lp4813
I286
aI289
ag204
ag205
ag207
ag209
ag211
aa(lp4814
I298
aI302
ag213
ag214
ag216
ag218
ag220
aa(lp4815
I304
aI307
ag222
ag223
ag225
ag227
ag229
aa(lp4816
I314
aI319
ag231
ag232
ag234
ag236
ag238
aa(lp4817
I324
aI331
ag240
ag241
ag243
ag245
ag247
aa(lp4818
I333
aI335
ag249
ag250
ag252
ag254
ag256
aa(lp4819
I342
aI348
ag258
ag259
ag261
ag263
ag265
aa(lp4820
I350
aI357
ag267
ag268
ag270
ag272
ag274
aa(lp4821
I364
aI369
ag276
ag277
ag279
ag281
ag283
aa(lp4822
I371
aI381
ag285
ag286
ag288
ag290
ag292
aa(lp4823
I392
aI399
ag294
ag295
ag297
ag299
ag301
aa(lp4824
I406
aI407
ag303
ag304
ag306
ag308
ag310
aa(lp4825
I412
aI415
ag312
ag313
ag315
ag317
ag319
aa(lp4826
I429
aI434
ag321
ag322
ag324
ag326
ag328
aa(lp4827
I448
aI453
ag330
ag331
ag333
ag335
ag337
aa(lp4828
I460
aI463
ag339
ag340
ag342
ag344
ag346
aa(lp4829
I472
aI477
ag348
ag349
ag351
ag353
ag355
aa(lp4830
I484
aI494
ag357
ag358
ag360
ag362
ag364
aa(lp4831
I497
aI499
ag366
ag367
ag369
ag371
ag373
aa(lp4832
I501
aI502
ag375
ag376
ag378
ag380
ag382
aa(lp4833
I504
aI511
ag384
ag385
ag387
ag389
ag391
aa(lp4834
I519
aI525
ag393
ag394
ag396
ag398
ag400
aa(lp4835
I532
aI535
ag402
ag403
ag405
ag407
ag409
aa(lp4836
I537
aI547
ag411
ag412
ag414
ag416
ag418
aa(lp4837
I554
aI558
ag420
ag421
ag423
ag425
ag427
aa(lp4838
I567
aI576
ag429
ag430
ag432
ag434
ag436
aa(lp4839
I586
aI589
ag438
ag439
ag441
ag443
ag445
aa(lp4840
I591
aI596
ag447
ag448
ag450
ag452
ag454
aa(lp4841
I606
aI608
ag456
ag457
ag459
ag461
ag463
aa(lp4842
I615
aI619
ag465
ag466
ag468
ag470
ag472
aa(lp4843
I628
aI634
ag474
ag475
ag477
ag479
ag481
aa(lp4844
I636
aI641
ag483
ag484
ag486
ag488
ag490
aa(lp4845
I654
aI656
ag492
ag493
ag495
ag497
ag499
aa(lp4846
I658
aI667
ag501
ag502
ag504
ag506
ag508
aa(lp4847
I669
aI671
ag510
ag511
ag513
ag515
ag517
aa(lp4848
I680
aI683
ag519
ag520
ag522
ag524
ag526
aa(lp4849
I688
aI695
ag528
ag529
ag531
ag533
ag535
aa(lp4850
I697
aI700
ag537
ag538
ag540
ag542
ag544
aa(lp4851
I702
aI710
ag546
ag547
ag549
ag551
ag553
aa(lp4852
I720
aI725
ag555
ag556
ag558
ag560
ag562
aa(lp4853
I730
aI734
ag564
ag565
ag567
ag569
ag571
aa(lp4854
I740
aI744
ag573
ag574
ag576
ag578
ag580
aa(lp4855
I746
aI749
ag582
ag583
ag585
ag587
ag589
aa(lp4856
I755
aI759
ag591
ag592
ag594
ag596
ag598
aa(lp4857
I761
aI770
ag600
ag601
ag603
ag605
ag607
aa(lp4858
I784
aI787
ag609
ag610
ag612
ag614
ag616
aa(lp4859
I790
aI797
ag618
ag619
ag621
ag623
ag625
aa(lp4860
I825
aI833
ag627
ag628
ag630
ag632
ag634
aa(lp4861
I849
aI853
ag636
ag637
ag639
ag641
ag643
aa(lp4862
I880
aI882
ag645
ag646
ag648
ag650
ag652
aa(lp4863
I908
aI910
ag654
ag655
ag657
ag659
ag661
aa(lp4864
I912
aI920
ag663
ag664
ag666
ag668
ag670
aa(lp4865
I930
aI934
ag672
ag673
ag675
ag677
ag679
aa(lp4866
I947
aI953
ag681
ag682
ag684
ag686
ag688
aa(lp4867
I955
aI961
ag690
ag691
ag693
ag695
ag697
aa(lp4868
I963
aI965
ag699
ag700
ag702
ag704
ag706
aa(lp4869
I968
aI973
ag708
ag709
ag711
ag713
ag715
aa(lp4870
I979
aI984
ag717
ag718
ag720
ag722
ag724
aa(lp4871
I986
aI992
ag726
ag727
ag729
ag731
ag733
aa(lp4872
I998
aI1003
ag735
ag736
ag738
ag740
ag742
aa(lp4873
I1005
aI1010
ag744
ag745
ag747
ag749
ag751
aa(lp4874
I1014
aI1025
ag753
ag754
ag756
ag758
ag760
aa(lp4875
I1027
aI1031
ag762
ag763
ag765
ag767
ag769
aa(lp4876
I1038
aI1042
ag771
ag772
ag774
ag776
ag778
aa(lp4877
I1044
aI1045
ag780
ag781
ag783
ag785
ag787
aa(lp4878
I1047
aI1051
ag789
ag790
ag792
ag794
ag796
aa(lp4879
I1063
aI1067
ag798
ag799
ag801
ag803
ag805
aa(lp4880
I1070
aI1074
ag807
ag808
ag810
ag812
ag814
aa(lp4881
I1076
aI1080
ag816
ag817
ag819
ag821
ag823
aa(lp4882
I1083
aI1087
ag825
ag826
ag828
ag830
ag832
aa(lp4883
I1089
aI1094
ag834
ag835
ag837
ag839
ag841
aa(lp4884
I1097
aI1101
ag843
ag844
ag846
ag848
ag850
aa(lp4885
I1103
aI1106
ag852
ag853
ag855
ag857
ag859
aa(lp4886
I1121
aI1124
ag861
ag862
ag864
ag866
ag868
aa(lp4887
I1126
aI1130
ag870
ag871
ag873
ag875
ag877
aa(lp4888
I1138
aI1141
ag879
ag880
ag882
ag884
ag886
aa(lp4889
I1143
aI1145
ag888
ag889
ag891
ag893
ag895
aa(lp4890
I1154
aI1161
ag897
ag898
ag900
ag902
ag904
aa(lp4891
I1166
aI1169
ag906
ag907
ag909
ag911
ag913
aa(lp4892
I1184
aI1194
ag915
ag916
ag918
ag920
ag922
aa(lp4893
I1205
aI1211
ag924
ag925
ag927
ag929
ag931
aa(lp4894
I1220
aI1223
ag933
ag934
ag936
ag938
ag940
aa(lp4895
I1230
aI1233
ag942
ag943
ag945
ag947
ag949
aa(lp4896
I1238
aI1242
ag951
ag952
ag954
ag956
ag958
aa(lp4897
I1249
aI1253
ag960
ag961
ag963
ag965
ag967
aa(lp4898
I1255
aI1258
ag969
ag970
ag972
ag974
ag976
aa(lp4899
I1260
aI1273
ag978
ag979
ag981
ag983
ag985
aa(lp4900
I1290
aI1298
ag987
ag988
ag990
ag992
ag994
aa(lp4901
I1300
aI1303
ag996
ag997
ag999
ag1001
ag1003
aa(lp4902
I1306
aI1312
ag1005
ag1006
ag1008
ag1010
ag1012
aa(lp4903
I1318
aI1328
ag1014
ag1015
ag1017
ag1019
ag1021
aa(lp4904
I1330
aI1334
ag1023
ag1024
ag1026
ag1028
ag1030
aa(lp4905
I1336
aI1341
ag1032
ag1033
ag1035
ag1037
ag1039
aa(lp4906
I1346
aI1349
ag1041
ag1042
ag1044
ag1046
ag1048
aa(lp4907
I1351
aI1357
ag1050
ag1051
ag1053
ag1055
ag1057
aa(lp4908
I1368
aI1372
ag1059
ag1060
ag1062
ag1064
ag1066
aa(lp4909
I1379
aI1388
ag1068
ag1069
ag1071
ag1073
ag1075
aa(lp4910
I1391
aI1393
ag1077
ag1078
ag1080
ag1082
ag1084
aa(lp4911
I1395
aI1404
ag1086
ag1087
ag1089
ag1091
ag1093
aa(lp4912
I1407
aI1410
ag1095
ag1096
ag1098
ag1100
ag1102
aa(lp4913
I1412
aI1415
ag1104
ag1105
ag1107
ag1109
ag1111
aa(lp4914
I1433
aI1436
ag1113
ag1114
ag1116
ag1118
ag1120
aa(lp4915
I1442
aI1445
ag1122
ag1123
ag1125
ag1127
ag1129
aa(lp4916
I1452
aI1458
ag1131
ag1132
ag1134
ag1136
ag1138
aa(lp4917
I1460
aI1467
ag1140
ag1141
ag1143
ag1145
ag1147
aa(lp4918
I1477
aI1480
ag1149
ag1150
ag1152
ag1154
ag1156
aa(lp4919
I1510
aI1512
ag1158
ag1159
ag1161
ag1163
ag1165
aa(lp4920
I1514
aI1521
ag1167
ag1168
ag1170
ag1172
ag1174
aa(lp4921
I1523
aI1525
ag1176
ag1177
ag1179
ag1181
ag1183
aa(lp4922
I1527
aI1529
ag1185
ag1186
ag1188
ag1190
ag1192
aa(lp4923
I1534
aI1540
ag1194
ag1195
ag1197
ag1199
ag1201
aa(lp4924
I1552
aI1554
ag1203
ag1204
ag1206
ag1208
ag1210
aa(lp4925
I1556
aI1562
ag1212
ag1213
ag1215
ag1217
ag1219
aa(lp4926
I1565
aI1567
ag1221
ag1222
ag1224
ag1226
ag1228
aa(lp4927
I1582
aI1584
ag1230
ag1231
ag1233
ag1235
ag1237
aa(lp4928
I1591
aI1596
ag1239
ag1240
ag1242
ag1244
ag1246
aa(lp4929
I1601
aI1604
ag1248
ag1249
ag1251
ag1253
ag1255
aa(lp4930
I1611
aI1618
ag1257
ag1258
ag1260
ag1262
ag1264
aa(lp4931
I1620
aI1624
ag1266
ag1267
ag1269
ag1271
ag1273
aa(lp4932
I1633
aI1637
ag1275
ag1276
ag1278
ag1280
ag1282
aa(lp4933
I1642
aI1645
ag1284
ag1285
ag1287
ag1289
ag1291
aa(lp4934
I1652
aI1663
ag1293
ag1294
ag1296
ag1298
ag1300
aa(lp4935
I1668
aI1671
ag1302
ag1303
ag1305
ag1307
ag1309
aa(lp4936
I1675
aI1686
ag1311
ag1312
ag1314
ag1316
ag1318
aa(lp4937
I1688
aI1690
ag1320
ag1321
ag1323
ag1325
ag1327
aa(lp4938
I1697
aI1699
ag1329
ag1330
ag1332
ag1334
ag1336
aa(lp4939
I1702
aI1706
ag1338
ag1339
ag1341
ag1343
ag1345
aa(lp4940
I1708
aI1711
ag1347
ag1348
ag1350
ag1352
ag1354
aa(lp4941
I1713
aI1723
ag1356
ag1357
ag1359
ag1361
ag1363
aa(lp4942
I1732
aI1740
ag1365
ag1366
ag1368
ag1370
ag1372
aa(lp4943
I1747
aI1749
ag1374
ag1375
ag1377
ag1379
ag1381
aa(lp4944
I1756
aI1758
ag1383
ag1384
ag1386
ag1388
ag1390
aa(lp4945
I1763
aI1768
ag1392
ag1393
ag1395
ag1397
ag1399
aa(lp4946
I1781
aI1787
ag1401
ag1402
ag1404
ag1406
ag1408
aa(lp4947
I1814
aI1818
ag1410
ag1411
ag1413
ag1415
ag1417
aa(lp4948
I1820
aI1826
ag1419
ag1420
ag1422
ag1424
ag1426
aa(lp4949
I1833
aI1836
ag1428
ag1429
ag1431
ag1433
ag1435
aa(lp4950
I1838
aI1843
ag1437
ag1438
ag1440
ag1442
ag1444
aa(lp4951
I1854
aI1857
ag1446
ag1447
ag1449
ag1451
ag1453
aa(lp4952
I1859
aI1865
ag1455
ag1456
ag1458
ag1460
ag1462
aa(lp4953
I1873
aI1875
ag1464
ag1465
ag1467
ag1469
ag1471
aa(lp4954
I1877
aI1885
ag1473
ag1474
ag1476
ag1478
ag1480
aa(lp4955
I1905
aI1912
ag1482
ag1483
ag1485
ag1487
ag1489
aa(lp4956
I1918
aI1922
ag1491
ag1492
ag1494
ag1496
ag1498
aa(lp4957
I1924
aI1932
ag1500
ag1501
ag1503
ag1505
ag1507
aa(lp4958
I1937
aI1943
ag1509
ag1510
ag1512
ag1514
ag1516
aa(lp4959
I1945
aI1956
ag1518
ag1519
ag1521
ag1523
ag1525
aa(lp4960
I1962
aI1972
ag1527
ag1528
ag1530
ag1532
ag1534
aa(lp4961
I1980
aI1986
ag1536
ag1537
ag1539
ag1541
ag1543
aa(lp4962
I1988
aI1992
ag1545
ag1546
ag1548
ag1550
ag1552
aa(lp4963
I1994
aI2003
ag1554
ag1555
ag1557
ag1559
ag1561
aa(lp4964
I2010
aI2016
ag1563
ag1564
ag1566
ag1568
ag1570
aa(lp4965
I2036
aI2044
ag1572
ag1573
ag1575
ag1577
ag1579
aa(lp4966
I2052
aI2054
ag1581
ag1582
ag1584
ag1586
ag1588
aa(lp4967
I2056
aI2064
ag1590
ag1591
ag1593
ag1595
ag1597
aa(lp4968
I2087
aI2090
ag1599
ag1600
ag1602
ag1604
ag1606
aa(lp4969
I2116
aI2118
ag1608
ag1609
ag1611
ag1613
ag1615
aa(lp4970
I2120
aI2128
ag1617
ag1618
ag1620
ag1622
ag1624
aa(lp4971
I2134
aI2141
ag1626
ag1627
ag1629
ag1631
ag1633
aasS'characterMap'
p4972
(lp4973
g1639
ag1641
ag1643
ag1645
ag4359
ag1650
ag1652
ag1653
ag1655
ag1657
ag1659
ag4361
ag1664
ag4362
ag1668
ag1670
ag1671
ag4363
ag1674
ag1675
ag1677
ag1678
ag4364
ag1683
ag1684
ag4365
ag1687
ag4366
ag1690
ag1692
ag1693
ag4367
ag1697
ag1698
ag1699
ag1700
ag1701
ag1702
ag1704
ag1705
ag1706
a(lp4974
I41
aS'?'
p4975
aag4368
ag1709
ag1711
ag1712
ag1713
ag1714
ag1715
ag4369
ag1719
ag1720
ag4370
ag1724
ag1725
ag4371
a(lp4976
I56
aS'|'
p4977
aag4372
a(lp4978
I58
ag4977
aag4373
ag1728
ag1729
ag1730
ag1731
ag1732
ag1733
ag1734
ag1735
ag1736
ag4374
ag1741
ag1743
ag1744
ag4375
ag1747
ag4376
ag1750
ag1751
ag1752
ag4377
ag1755
ag1756
ag1757
ag1758
ag1759
ag1760
ag1761
ag1762
ag1763
ag4378
ag1767
ag1768
ag1769
ag1770
ag4379
ag1774
ag1775
ag1776
ag4380
ag1780
ag1781
ag1782
ag4381
ag1785
ag1786
ag1787
ag1788
ag1789
ag1790
ag1791
ag1792
ag1793
ag4382
ag1797
ag1798
ag1799
ag4383
ag1802
ag4384
ag1805
ag1806
ag1807
ag4385
ag1810
ag1811
ag1812
ag1813
ag1814
ag1815
ag1816
ag1817
ag1818
ag4386
ag1822
ag1823
ag1824
ag4387
ag1827
ag1828
ag1829
ag1830
ag4388
ag1834
ag1835
ag4389
ag1838
ag1839
ag1840
ag1842
ag1843
ag1844
ag1845
ag1846
ag4390
ag1850
ag1851
ag1852
ag1853
ag4391
ag1857
ag1858
ag1859
ag4392
ag1862
ag1863
ag1864
ag4393
ag1868
ag1869
ag1870
ag4394
ag1873
ag1874
ag1875
ag1876
ag1877
ag4395
ag1881
ag1883
ag1884
ag4396
ag1887
ag1888
ag1889
ag1891
ag4397
ag1895
ag1896
ag4398
ag1899
ag1900
ag1901
ag1902
ag1903
ag4399
ag1907
ag1908
ag1909
a(lp4979
I198
aS'.'
p4980
aag4400
ag1912
ag1913
ag1914
ag1915
ag1916
ag1917
ag4401
ag1920
ag1921
ag1922
ag1923
ag4402
ag1926
ag1927
ag1928
ag1929
ag1930
ag1931
ag1932
a(lp4981
I219
aS','
p4982
aag4403
ag1936
ag1937
ag1938
ag4404
ag1942
ag1943
ag1944
ag1945
ag4405
ag1949
ag1950
ag1951
ag1952
ag4406
ag1956
ag1957
ag1958
ag4407
ag1961
ag1962
ag1963
ag1964
ag1965
ag1966
ag1967
ag1968
ag1969
a(lp4983
I248
ag4982
aag4408
ag1973
ag1974
ag4409
ag1978
ag1979
ag1980
ag4410
ag1984
ag1985
ag1986
ag4411
ag1990
ag1991
ag4412
ag1994
ag1995
ag1996
ag1997
ag1998
ag1999
ag4413
ag2003
ag2004
ag2005
ag2006
ag4414
ag2010
ag2011
ag2012
ag2013
ag2014
ag4415
ag2018
ag2019
ag2020
ag4416
ag2023
ag2024
ag2025
ag2026
ag4417
ag2030
ag2031
ag2032
ag4418
ag2036
ag2037
ag4419
ag2040
ag2041
ag2042
ag2043
ag2044
ag4420
ag2047
ag2048
ag2049
ag2050
a(lp4984
I308
ag4982
aag4421
ag2054
ag2055
ag2056
ag4422
ag2059
ag2060
ag2061
ag2062
ag2063
ag2064
ag4423
ag2068
ag2069
ag4424
ag2072
ag2073
ag2074
ag2075
ag2076
ag2077
ag2078
ag2079
ag4425
ag2082
ag2083
ag2084
ag4426
ag2088
ag2089
ag4427
ag2092
ag4428
ag2095
ag2096
ag2097
ag2098
ag2099
ag2100
ag2101
ag4429
ag2104
ag2105
ag2106
ag2107
ag2108
ag2109
ag2110
ag2111
ag4430
ag2115
ag2116
ag2117
ag2118
ag4431
ag2121
ag2122
ag2123
ag2124
ag2125
ag2126
ag4432
ag2129
ag2130
ag2131
ag2132
ag2133
ag2134
ag2135
ag2136
ag2137
ag2138
ag2139
ag4433
ag2143
ag2144
ag2145
ag2146
ag4434
ag2150
ag2151
ag2152
ag4435
ag2155
ag2156
ag2157
ag2158
ag2159
ag2160
ag2161
ag2162
a(lp4985
I400
ag4980
aag4436
ag2166
ag2167
ag2168
ag4437
ag2171
ag2172
ag4438
ag2176
ag2177
ag4439
ag2180
ag2181
ag2182
ag2183
ag4440
ag2187
ag2188
ag4441
ag2192
ag2193
ag2194
ag2195
ag4442
ag2199
ag2200
ag2201
ag4443
ag2204
ag2205
ag2206
ag2207
ag2208
ag2209
ag4444
ag2213
ag2214
ag2215
ag4445
ag2219
ag2220
ag2221
ag2222
ag4446
ag2226
ag2227
ag4447
ag2230
ag2231
ag2232
ag2233
ag2234
ag2235
ag4448
ag2239
ag2240
ag2241
ag2242
ag4449
ag2245
ag2246
ag2247
ag2248
ag4450
ag2252
ag2253
ag2254
ag2255
ag2256
ag2257
ag4451
ag2260
ag2261
ag2262
ag2263
ag2264
ag2265
ag4452
ag2269
ag2270
ag2271
ag2272
ag4453
ag2275
ag2276
ag2277
ag2278
ag2279
ag2280
ag2281
ag2282
ag2283
ag2284
ag2285
a(lp4986
I495
ag4982
aag4454
ag2288
ag2289
ag2290
ag4455
ag2293
ag2294
ag4456
ag2297
ag2298
ag2299
ag2300
ag2301
ag2302
ag2303
ag2304
ag4457
ag2308
ag2309
ag2310
ag2311
ag2312
ag4458
ag2315
ag2316
ag2317
ag2318
ag2319
ag2320
ag2321
a(lp4987
I526
ag4982
aag4459
ag2325
ag2326
ag2327
ag4460
ag2330
ag2331
ag2332
ag2333
ag4461
ag2336
ag2337
ag2338
ag2339
ag2340
ag2341
ag2342
ag2343
ag2344
ag2345
ag2346
ag4462
ag2350
ag2351
ag2352
ag2353
ag4463
ag2356
ag2357
ag2358
ag2359
ag2360
ag4464
ag2364
ag2365
ag2366
ag4465
ag2370
ag2371
ag4466
ag2374
ag2375
ag2376
ag2377
ag2378
ag2379
ag2380
ag2381
ag2382
ag2383
ag4467
ag2387
ag2388
ag4468
ag2392
ag2393
ag2394
a(lp4988
I584
ag4980
aag4469
ag2397
ag2398
ag2399
ag2400
ag4470
ag2403
ag2404
ag2405
ag2406
ag2407
ag2408
ag4471
ag2412
ag2413
ag2414
ag4472
ag2418
ag2419
ag2420
ag4473
ag2423
ag2424
ag2425
a(lp4989
I609
ag4980
aag4474
ag2429
ag2430
ag2431
ag4475
ag2434
ag2435
ag2436
ag2437
ag2438
ag4476
ag2442
ag2443
ag4477
ag2447
ag2448
ag2449
ag4478
ag2452
ag2453
ag2454
ag2455
ag2456
ag2457
ag2458
ag4479
ag2461
ag2462
ag2463
ag2464
ag2465
ag2466
ag4480
ag2470
ag2471
ag2472
ag2473
ag4481
ag2477
ag2478
ag2479
ag2480
ag2481
ag4482
ag2484
ag2485
ag2486
ag4483
ag2489
ag2490
ag2491
a(lp4990
I661
aS'-'
p4991
aag2492
ag2493
a(lp4992
I664
ag4991
aag2494
ag2495
ag2496
ag4484
ag2499
ag2500
ag2501
ag4485
ag2505
ag2506
a(lp4993
I675
ag4980
aag4486
ag2510
ag2511
ag4487
ag2514
ag2515
ag2516
ag2517
ag4488
ag2521
ag2522
ag4489
ag2525
ag2526
ag2527
ag2528
ag2529
ag2530
ag2531
ag2532
ag4490
ag2535
ag2536
ag2537
ag2538
ag4491
ag2541
ag2542
ag2543
ag2544
ag2545
ag2546
ag2547
ag2548
ag2549
ag4492
ag2553
ag2554
ag2555
ag2556
ag4493
ag2560
ag2561
ag4494
ag2564
ag2565
ag2566
ag2567
ag2568
ag2569
ag4495
ag2573
ag2574
ag4496
ag2577
ag2578
ag2579
ag2580
ag2581
ag4497
ag2585
ag2586
ag2587
ag4498
ag2590
ag2591
ag2592
ag2593
ag2594
ag4499
ag2597
ag2598
ag2599
ag2600
ag4500
ag2604
ag2605
ag2606
ag4501
ag2609
ag2610
ag2611
ag2612
ag2613
ag4502
ag2616
ag2617
ag2618
ag2619
ag2620
ag2621
ag2622
ag2623
ag2624
ag2625
ag4503
ag2629
ag2630
ag2631
ag4504
ag2635
ag2636
ag2637
ag4505
ag2641
ag2642
ag2643
ag4506
ag2646
ag2647
ag2648
ag2649
a(lp4994
I788
ag4980
aag4507
ag2652
ag2653
ag2654
ag2655
ag2656
ag2657
ag2658
ag2659
ag4508
ag2663
ag2664
ag2665
ag2666
ag4509
ag2670
ag2671
ag2672
ag4510
ag2676
ag2677
ag2678
ag4511
ag2682
ag2683
ag2684
ag2685
ag2686
ag4512
ag2690
ag2691
ag2692
ag4513
ag2696
ag2697
ag4514
ag2700
ag2701
ag2702
ag2703
ag2704
ag2705
ag2706
ag2707
ag2708
ag4515
ag2712
ag2713
ag2714
ag4516
ag2718
ag2719
ag2720
ag4517
ag2724
ag2725
ag2726
ag4518
ag2729
ag4519
ag2732
ag2733
ag2734
ag2735
ag2736
ag4520
ag2740
ag2741
ag2742
a(lp4995
I858
ag4980
aag4521
ag2746
ag2747
ag4522
ag2751
ag2752
ag4523
ag2756
ag2757
ag2758
a(lp4996
I869
ag4982
aag4524
ag2762
ag2763
ag2764
ag4525
ag2768
ag2769
ag2770
ag2771
ag4526
ag2774
ag2775
ag2776
a(lp4997
I883
ag4980
aag4527
ag2780
ag2781
ag2782
ag2783
ag4528
ag2787
ag2788
ag2789
ag4529
ag2793
ag2794
ag2795
ag4530
ag2799
ag2800
ag2801
ag4531
ag2805
ag2806
ag2807
ag4532
ag2810
ag4533
ag2813
ag2814
ag2815
ag4534
ag2818
ag2819
ag2820
ag2821
ag2822
ag2823
ag2824
ag2825
ag2826
a(lp4998
I921
ag4982
aag4535
ag2830
ag2831
ag4536
ag2835
ag2836
ag2837
ag4537
ag2840
ag2841
ag2842
ag2843
ag2844
ag4538
ag2848
ag2849
ag2850
ag2851
ag4539
ag2855
ag2856
ag2857
ag4540
ag2860
ag4541
ag2863
ag2864
ag2865
ag2866
ag2867
ag2868
ag2869
ag4542
ag2872
ag2873
ag2874
ag2875
ag2876
ag2877
ag2878
ag4543
ag2881
ag2882
ag2883
a(lp4999
I966
ag4982
aag4544
ag2886
ag2887
ag2888
ag2889
ag2890
ag2891
ag4545
ag2895
ag2896
ag2897
ag4546
ag2900
ag2901
ag2902
ag2903
ag2904
ag2905
ag4547
ag2908
ag2909
ag2910
ag2911
ag2912
ag2913
ag2914
ag4548
ag2918
ag2919
ag2920
ag4549
ag2923
ag2924
ag2925
ag2926
ag2927
ag2928
ag4550
ag2931
ag2932
ag2933
ag2934
ag2935
ag2936
ag4551
ag2939
ag4552
ag2942
ag2943
ag2944
ag2945
ag2946
ag2947
ag2948
ag2949
ag2950
ag2951
ag2952
ag2953
ag4553
ag2956
ag2957
ag2958
ag2959
ag2960
ag4554
ag2964
ag2965
ag2966
ag2967
ag4555
ag2970
ag2971
ag2972
ag2973
ag2974
ag4556
ag2977
ag2978
ag4557
ag2981
ag2982
ag2983
ag2984
ag2985
ag4558
ag2989
ag2990
ag2991
ag2992
ag4559
ag2996
ag2997
ag2998
ag2999
ag4560
ag3002
ag3003
ag3004
ag3005
ag3006
a(lp5000
I1068
ag4980
aag4561
ag3009
ag3010
ag3011
ag3012
ag3013
ag4562
ag3016
ag3017
ag3018
ag3019
ag3020
a(lp5001
I1081
ag4982
aag4563
ag3023
ag3024
ag3025
ag3026
ag3027
ag4564
ag3030
ag3031
ag3032
ag3033
ag3034
ag3035
a(lp5002
I1095
ag4980
aag4565
ag3038
ag3039
ag3040
ag3041
ag3042
ag4566
ag3045
ag3046
ag3047
ag3048
ag4567
ag3052
ag3053
ag4568
ag3057
ag3058
ag3059
ag3060
ag3061
ag4569
ag3065
ag3066
ag3067
ag4570
ag3070
ag3071
ag3072
ag3073
ag4571
ag3076
ag3077
ag3078
ag3079
ag3080
a(lp5003
I1131
ag4980
aag4572
ag3084
ag3085
ag3086
ag3087
ag4573
ag3090
ag3091
ag3092
ag3093
ag4574
ag3096
ag3097
ag3098
ag4575
ag3102
ag3103
ag4576
ag3107
ag3108
ag3109
ag4577
ag3112
ag3113
ag3114
ag3115
ag3116
ag3117
ag3118
ag3119
ag4578
ag3123
ag3124
ag4579
ag3127
ag3128
ag3129
ag3130
ag4580
ag3134
ag3135
ag3136
ag4581
ag3140
ag3141
ag3142
ag3143
ag3144
ag4582
ag3148
ag3149
ag4583
ag3152
ag3153
ag3154
ag3155
ag3156
ag3157
ag3158
ag3159
ag3160
ag3161
ag3162
ag4584
ag3166
ag3167
ag3168
ag3169
ag4585
ag3173
ag3174
ag3175
ag4586
ag3178
ag3179
ag3180
ag3182
ag3183
ag3184
ag3185
ag4587
ag3189
ag3190
ag3191
ag4588
ag3195
ag3196
ag4589
ag3199
ag3200
ag3201
ag3202
ag4590
ag3206
ag3207
ag3208
ag3209
ag4591
ag3212
ag3213
ag3214
ag3215
ag4592
ag3219
ag3220
ag4593
ag3223
ag3224
ag3225
ag3226
ag3227
a(lp5004
I1243
ag4980
aag4594
ag3231
ag3232
ag3233
ag4595
ag3236
ag3237
ag3238
ag3239
ag3240
ag4596
ag3243
ag3244
ag3245
ag3246
ag4597
ag3249
ag3250
ag3251
ag3252
ag3253
ag3254
ag3255
ag3256
ag3257
ag3258
ag3259
ag3260
ag3261
ag3262
a(lp5005
I1274
ag4980
aag4598
ag3266
ag3267
ag3268
ag4599
ag3272
ag3273
ag3274
ag4600
ag3278
ag3279
ag3280
ag4601
ag3283
ag4602
ag3286
ag3287
ag3288
ag3289
ag3290
ag3291
ag3292
ag3293
ag3294
ag4603
ag3297
ag3298
ag3299
ag3300
a(lp5006
I1304
ag4980
aag4604
ag3303
ag3304
ag3305
ag3306
ag3307
ag3308
ag3309
ag4605
ag3313
ag3314
ag3315
ag4606
ag3318
ag3319
ag3320
ag3321
ag3322
ag3323
ag3324
ag3325
ag3326
ag3327
ag3328
ag4607
ag3331
ag3332
ag3333
ag3334
ag3335
ag4608
ag3338
ag3339
ag3340
ag3341
ag3342
ag3343
ag4609
ag3347
ag3348
ag4610
ag3351
ag3352
ag3353
ag3354
ag4611
ag3357
ag3358
ag3359
a(lp5007
I1354
ag4991
aag3360
ag3361
ag3362
ag4612
ag3366
ag3367
ag3368
ag4613
ag3372
ag3373
ag3374
ag3375
ag4614
ag3378
ag3379
ag3380
ag3381
ag3382
a(lp5008
I1373
ag4980
aag4615
ag3386
ag3387
ag3388
ag4616
ag3391
ag3392
ag3393
ag3394
ag3395
ag3396
ag3397
ag3398
ag3399
ag3400
a(lp5009
I1389
ag4982
aag4617
ag3403
ag3404
ag3405
ag4618
ag3408
ag3409
ag3410
ag3411
ag3412
ag3413
ag3414
ag3415
ag3416
ag3417
a(lp5010
I1405
ag4982
aag4619
ag3420
ag3421
ag3422
ag3423
ag4620
ag3426
ag3427
ag3428
ag3429
ag4621
ag3433
ag3434
ag3435
ag3436
ag4622
ag3440
ag3441
ag3442
ag4623
ag3446
ag3447
ag4624
ag3451
ag3452
ag3453
ag4625
ag3456
ag3457
ag3458
ag3459
ag4626
ag3463
ag3464
ag3465
ag4627
ag3468
ag3469
ag3470
ag3471
a(lp5011
I1446
ag4980
aag4628
ag3475
ag3476
ag3477
ag4629
ag3480
ag3481
ag3483
ag3484
ag3485
ag3486
ag3487
ag4630
ag3490
ag3491
ag3492
ag3493
ag3494
ag3495
ag3496
ag3497
a(lp5012
I1468
ag4982
aag4631
ag3501
ag3502
ag4632
ag3506
ag3507
ag3508
ag4633
ag3511
ag3512
ag3513
ag3514
ag4634
ag3518
ag3519
ag3520
ag4635
ag3524
ag3525
ag3526
ag3527
ag4636
ag3531
ag3532
ag3533
ag4637
ag3537
ag3538
ag3539
ag3540
ag4638
ag3544
ag3545
ag3546
ag3547
ag4639
ag3551
ag3552
ag3553
ag3554
ag4640
ag3557
ag3558
ag3559
ag4641
ag3562
ag3563
ag3564
ag3565
ag3566
ag3567
ag3568
ag3569
ag4642
ag3572
ag3573
ag3574
ag4643
ag3577
ag3578
ag3579
ag4644
ag3583
ag3584
ag4645
ag3587
ag3588
ag3589
ag3590
ag3591
ag3592
ag3593
ag4646
ag3597
ag3598
ag3599
ag3600
ag4647
ag3604
ag3605
ag3606
ag3607
ag4648
ag3610
ag3611
ag3612
ag4649
ag3615
ag3616
ag3617
ag3618
ag3619
ag3620
ag3621
a(lp5013
I1563
ag4980
aag4650
ag3624
ag3625
ag3626
ag4651
ag3630
ag3631
ag3632
ag4652
ag3636
ag3637
ag3638
a(lp5014
I1576
ag4980
aag4653
ag3642
ag3643
ag3644
ag4654
ag3647
ag3648
ag3649
a(lp5015
I1585
ag4982
aag4655
ag3653
ag3654
ag3655
ag4656
ag3658
ag3659
ag3660
ag3661
ag3662
ag3663
ag4657
ag3667
ag3668
ag4658
ag3671
ag3672
ag3673
ag3674
ag4659
ag3678
ag3679
ag4660
ag3682
ag4661
ag3685
ag3686
ag3687
ag3688
ag3689
ag3690
ag3691
ag3692
ag4662
ag3695
ag3696
ag3697
ag3698
ag3699
ag4663
ag3703
ag3704
ag3705
ag4664
ag3709
ag3710
ag4665
ag3713
ag3714
ag3715
ag3716
ag3717
ag4666
ag3721
ag3722
ag4667
ag3725
ag3726
ag3727
ag3728
ag4668
ag3732
ag3733
ag3734
ag3735
ag4669
ag3738
ag3739
ag3740
ag3741
ag3742
ag3743
ag3744
ag3745
ag3746
ag3747
ag3748
ag3749
ag4670
ag3753
ag3754
ag4671
ag3757
ag3758
ag3759
ag3760
ag4672
ag3763
ag4673
ag3766
ag3767
ag3768
ag3769
a(lp5016
I1679
ag4991
aag3770
ag3771
ag3772
ag3773
ag3774
ag3775
ag3776
ag4674
ag3779
ag3780
ag3781
ag4675
ag3785
ag3786
ag3787
ag3788
ag4676
ag3791
ag3792
ag3793
a(lp5017
I1700
ag4980
aag4677
ag3796
ag3797
ag3798
ag3799
ag3800
ag4678
ag3803
ag3804
ag3805
ag3806
ag4679
ag3809
ag3810
ag3811
ag3812
ag3813
ag3814
a(lp5018
I1719
ag4991
aag3815
ag3816
ag3817
ag3818
ag4680
ag3822
ag3823
ag3824
ag4681
ag3828
ag3829
ag4682
ag3832
ag3833
ag3834
ag3835
ag3836
ag3837
ag3838
ag3839
ag3840
a(lp5019
I1741
ag4980
aag4683
ag3844
ag3845
ag3846
ag4684
ag3849
ag3850
ag3851
ag4685
ag3855
ag3856
ag3857
ag3858
ag4686
ag3861
ag3862
ag3863
ag4687
ag3867
ag3868
ag4688
ag3871
ag3872
ag3873
ag3874
ag3875
ag3876
ag4689
ag3880
ag3881
ag3882
ag4690
ag3886
ag3887
ag3888
ag4691
ag3892
ag3893
ag4692
ag3896
ag3897
ag3898
ag3899
ag3900
ag3901
ag3902
a(lp5020
I1788
ag4980
aag4693
ag3906
ag3907
ag3908
ag4694
ag3912
ag3913
ag4695
ag3917
ag3918
ag3919
ag4696
ag3923
ag3924
ag3925
ag3926
ag4697
ag3930
ag3931
ag4698
ag3935
ag3936
ag4699
ag3939
ag4700
ag3942
ag3943
ag3944
ag3945
ag3946
ag4701
ag3949
ag3950
ag3951
ag3952
ag3953
ag3954
ag3955
ag4702
ag3959
ag3960
ag4703
ag3963
ag4704
ag3966
ag3967
ag3968
ag3969
ag4705
ag3972
ag3973
ag3974
ag3975
ag3976
ag3977
ag4706
ag3981
ag3982
ag3983
ag3984
ag4707
ag3988
ag3989
ag3990
ag4708
ag3993
ag3994
ag3995
ag3996
ag4709
ag3999
ag4000
ag4001
ag4002
ag4003
ag4004
ag4005
ag4710
ag4009
ag4010
ag4011
ag4711
ag4014
ag4712
ag4017
ag4018
ag4019
ag4713
ag4022
ag4023
ag4024
ag4025
ag4026
ag4027
ag4028
ag4029
ag4030
a(lp5021
I1886
ag4980
aag4714
ag4034
ag4035
ag4036
ag4715
ag4040
ag4041
ag4042
ag4043
ag4716
ag4047
ag4048
ag4049
ag4050
ag4717
ag4054
ag4055
ag4718
ag4058
ag4059
ag4060
ag4061
ag4062
ag4063
ag4064
ag4065
ag4719
ag4069
ag4070
ag4071
ag4720
ag4074
ag4075
ag4076
ag4077
ag4078
ag4721
ag4081
ag4082
ag4083
ag4084
ag4085
ag4086
ag4087
ag4088
ag4089
ag4722
ag4093
ag4094
ag4723
ag4097
ag4098
ag4099
ag4100
ag4101
ag4102
ag4103
ag4724
ag4106
ag4107
ag4108
ag4109
ag4110
ag4111
ag4112
ag4113
ag4114
ag4115
ag4116
ag4117
ag4725
ag4121
ag4122
ag4123
ag4726
ag4126
ag4127
ag4128
ag4129
ag4130
ag4131
ag4132
ag4133
ag4134
ag4135
ag4136
a(lp5022
I1973
ag4980
aag4727
ag4140
ag4141
ag4142
ag4143
ag4728
ag4146
ag4147
ag4148
ag4149
ag4150
ag4151
ag4152
ag4729
ag4155
ag4156
ag4157
ag4158
ag4159
ag4730
ag4162
ag4163
ag4164
ag4165
ag4166
ag4167
ag4168
ag4169
ag4170
ag4171
ag4731
ag4175
ag4176
ag4732
ag4179
ag4733
ag4182
ag4183
ag4184
ag4185
ag4186
ag4187
ag4188
ag4734
ag4192
ag4193
ag4194
ag4735
ag4198
ag4199
ag4200
ag4201
ag4202
ag4736
ag4206
ag4207
ag4208
ag4737
ag4212
ag4213
ag4214
ag4738
ag4217
ag4218
ag4219
ag4220
ag4221
ag4222
ag4223
ag4224
ag4225
ag4739
ag4229
ag4230
ag4231
ag4740
ag4234
ag4741
ag4237
ag4238
ag4239
ag4742
ag4242
ag4243
ag4244
ag4245
ag4246
ag4247
ag4248
ag4249
ag4250
a(lp5023
I2065
ag4982
aag4743
ag4254
ag4255
ag4256
ag4744
ag4260
ag4261
ag4745
ag4265
ag4266
ag4267
ag4746
ag4271
ag4272
ag4273
ag4274
ag4747
ag4278
ag4279
ag4280
ag4748
ag4283
ag4284
ag4285
ag4286
ag4749
ag4290
ag4291
ag4750
ag4295
ag4296
ag4297
ag4751
ag4301
ag4302
ag4752
ag4306
ag4307
ag4753
ag4311
ag4312
ag4754
ag4316
ag4317
ag4755
ag4321
ag4322
ag4756
ag4325
ag4757
ag4328
ag4329
ag4330
ag4758
ag4333
ag4334
ag4335
ag4336
ag4337
ag4338
ag4339
ag4340
ag4341
a(lp5024
I2129
ag4980
aag4759
ag4345
ag4346
ag4760
ag4349
ag4350
ag4351
ag4352
ag4353
ag4354
ag4355
ag4356
ag4761
a(lp5025
I2143
aS'\xc2'
p5026
aag4762
asS'docName'
p5027
S'source-document00846.txt'
p5028
sb.