(iModel.Document
Document
p0
(dp1
S'fmap'
p2
(lp3
(lp4
I0
aI9
aS'homemaking'
p5
a(lp6
S'*'
p7
ag5
aaa(lp8
I0
aI9
ag5
a(lp9
g7
ag5
aaa(lp10
I0
aI9
ag5
a(lp11
g7
ag5
aaa(lp12
I0
aI9
ag5
a(lp13
g7
ag5
aaa(lp14
I17
aI20
aS'blog'
p15
a(lp16
g5
ag15
aaa(lp17
I17
aI20
ag15
a(lp18
g7
ag15
aaa(lp19
I17
aI20
ag15
a(lp20
g7
ag15
aaa(lp21
I17
aI20
ag15
a(lp22
g7
ag15
aaa(lp23
I27
aI30
aS'blog'
p24
a(lp25
g15
ag24
aaa(lp26
I27
aI30
ag24
a(lp27
g5
ag24
aaa(lp28
I27
aI30
ag24
a(lp29
g7
ag24
aaa(lp30
I27
aI30
ag24
a(lp31
g7
ag24
aaa(lp32
I39
aI46
aS'everyone'
p33
a(lp34
g24
ag33
aaa(lp35
I39
aI46
ag33
a(lp36
g15
ag33
aaa(lp37
I39
aI46
ag33
a(lp38
g5
ag33
aaa(lp39
I39
aI46
ag33
a(lp40
g7
ag33
aaa(lp41
I56
aI62
aS'created'
p42
a(lp43
g33
ag42
aaa(lp44
I56
aI62
ag42
a(lp45
g24
ag42
aaa(lp46
I56
aI62
ag42
a(lp47
g15
ag42
aaa(lp48
I56
aI62
ag42
a(lp49
g5
ag42
aaa(lp50
I83
aI86
aS'help'
p51
a(lp52
g42
ag51
aaa(lp53
I83
aI86
ag51
a(lp54
g33
ag51
aaa(lp55
I83
aI86
ag51
a(lp56
g24
ag51
aaa(lp57
I83
aI86
ag51
a(lp58
g15
ag51
aaa(lp59
I88
aI89
aS'us'
p60
a(lp61
g51
ag60
aaa(lp62
I88
aI89
ag60
a(lp63
g42
ag60
aaa(lp64
I88
aI89
ag60
a(lp65
g33
ag60
aaa(lp66
I88
aI89
ag60
a(lp67
g24
ag60
aaa(lp68
I91
aI96
aS'become'
p69
a(lp70
g60
ag69
aaa(lp71
I91
aI96
ag69
a(lp72
g51
ag69
aaa(lp73
I91
aI96
ag69
a(lp74
g42
ag69
aaa(lp75
I91
aI96
ag69
a(lp76
g33
ag69
aaa(lp77
I98
aI103
aS'better'
p78
a(lp79
g69
ag78
aaa(lp80
I98
aI103
ag78
a(lp81
g60
ag78
aaa(lp82
I98
aI103
ag78
a(lp83
g51
ag78
aaa(lp84
I98
aI103
ag78
a(lp85
g42
ag78
aaa(lp86
I105
aI114
aS'homemakers'
p87
a(lp88
g78
ag87
aaa(lp89
I105
aI114
ag87
a(lp90
g69
ag87
aaa(lp91
I105
aI114
ag87
a(lp92
g60
ag87
aaa(lp93
I105
aI114
ag87
a(lp94
g51
ag87
aaa(lp95
I117
aI122
aS'heres'
p96
a(lp97
g87
ag96
aaa(lp98
I117
aI122
ag96
a(lp99
g78
ag96
aaa(lp100
I117
aI122
ag96
a(lp101
g69
ag96
aaa(lp102
I117
aI122
ag96
a(lp103
g60
ag96
aaa(lp104
I131
aI141
aS'worksyou'
p105
a(lp106
g96
ag105
aaa(lp107
I131
aI141
ag105
a(lp108
g87
ag105
aaa(lp109
I131
aI141
ag105
a(lp110
g78
ag105
aaa(lp111
I131
aI141
ag105
a(lp112
g69
ag105
aaa(lp113
I143
aI148
aS'create'
p114
a(lp115
g105
ag114
aaa(lp116
I143
aI148
ag114
a(lp117
g96
ag114
aaa(lp118
I143
aI148
ag114
a(lp119
g87
ag114
aaa(lp120
I143
aI148
ag114
a(lp121
g78
ag114
aaa(lp122
I153
aI156
aS'post'
p123
a(lp124
g114
ag123
aaa(lp125
I153
aI156
ag123
a(lp126
g105
ag123
aaa(lp127
I153
aI156
ag123
a(lp128
g96
ag123
aaa(lp129
I153
aI156
ag123
a(lp130
g87
ag123
aaa(lp131
I163
aI170
aS'everyone'
p132
a(lp133
g123
ag132
aaa(lp134
I163
aI170
ag132
a(lp135
g114
ag132
aaa(lp136
I163
aI170
ag132
a(lp137
g105
ag132
aaa(lp138
I163
aI170
ag132
a(lp139
g96
ag132
aaa(lp140
I175
aI177
aS'see'
p141
a(lp142
g132
ag141
aaa(lp143
I175
aI177
ag141
a(lp144
g123
ag141
aaa(lp145
I175
aI177
ag141
a(lp146
g114
ag141
aaa(lp147
I175
aI177
ag141
a(lp148
g105
ag141
aaa(lp149
I181
aI185
aS'posts'
p150
a(lp151
g141
ag150
aaa(lp152
I181
aI185
ag150
a(lp153
g132
ag150
aaa(lp154
I181
aI185
ag150
a(lp155
g123
ag150
aaa(lp156
I181
aI185
ag150
a(lp157
g114
ag150
aaa(lp158
I195
aI201
aS'deleted'
p159
a(lp160
g150
ag159
aaa(lp161
I195
aI201
ag159
a(lp162
g141
ag159
aaa(lp163
I195
aI201
ag159
a(lp164
g132
ag159
aaa(lp165
I195
aI201
ag159
a(lp166
g123
ag159
aaa(lp167
I206
aI218
aS'inappropriate'
p168
a(lp169
g159
ag168
aaa(lp170
I206
aI218
ag168
a(lp171
g150
ag168
aaa(lp172
I206
aI218
ag168
a(lp173
g141
ag168
aaa(lp174
I206
aI218
ag168
a(lp175
g132
ag168
aaa(lp176
I227
aI232
aS'people'
p177
a(lp178
g168
ag177
aaa(lp179
I227
aI232
ag177
a(lp180
g159
ag177
aaa(lp181
I227
aI232
ag177
a(lp182
g150
ag177
aaa(lp183
I227
aI232
ag177
a(lp184
g141
ag177
aaa(lp185
I238
aI241
aS'make'
p186
a(lp187
g177
ag186
aaa(lp188
I238
aI241
ag186
a(lp189
g168
ag186
aaa(lp190
I238
aI241
ag186
a(lp191
g159
ag186
aaa(lp192
I238
aI241
ag186
a(lp193
g150
ag186
aaa(lp194
I243
aI250
aS'comments'
p195
a(lp196
g186
ag195
aaa(lp197
I243
aI250
ag195
a(lp198
g177
ag195
aaa(lp199
I243
aI250
ag195
a(lp200
g168
ag195
aaa(lp201
I243
aI250
ag195
a(lp202
g159
ag195
aaa(lp203
I256
aI259
aS'give'
p204
a(lp205
g195
ag204
aaa(lp206
I256
aI259
ag204
a(lp207
g186
ag204
aaa(lp208
I256
aI259
ag204
a(lp209
g177
ag204
aaa(lp210
I256
aI259
ag204
a(lp211
g168
ag204
aaa(lp212
I261
aI267
aS'answers'
p213
a(lp214
g204
ag213
aaa(lp215
I261
aI267
ag213
a(lp216
g195
ag213
aaa(lp217
I261
aI267
ag213
a(lp218
g186
ag213
aaa(lp219
I261
aI267
ag213
a(lp220
g177
ag213
aaa(lp221
I281
aI284
aS'post'
p222
a(lp223
g213
ag222
aaa(lp224
I281
aI284
ag222
a(lp225
g204
ag222
aaa(lp226
I281
aI284
ag222
a(lp227
g195
ag222
aaa(lp228
I281
aI284
ag222
a(lp229
g186
ag222
aaa(lp230
I291
aI294
aS'idea'
p231
a(lp232
g222
ag231
aaa(lp233
I291
aI294
ag231
a(lp234
g213
ag231
aaa(lp235
I291
aI294
ag231
a(lp236
g204
ag231
aaa(lp237
I291
aI294
ag231
a(lp238
g195
ag231
aaa(lp239
I304
aI307
aS'blog'
p240
a(lp241
g231
ag240
aaa(lp242
I304
aI307
ag240
a(lp243
g222
ag240
aaa(lp244
I304
aI307
ag240
a(lp245
g213
ag240
aaa(lp246
I304
aI307
ag240
a(lp247
g204
ag240
aaa(lp248
I315
aI319
aS'offer'
p249
a(lp250
g240
ag249
aaa(lp251
I315
aI319
ag249
a(lp252
g231
ag249
aaa(lp253
I315
aI319
ag249
a(lp254
g222
ag249
aaa(lp255
I315
aI319
ag249
a(lp256
g213
ag249
aaa(lp257
I321
aI326
aS'advice'
p258
a(lp259
g249
ag258
aaa(lp260
I321
aI326
ag258
a(lp261
g240
ag258
aaa(lp262
I321
aI326
ag258
a(lp263
g231
ag258
aaa(lp264
I321
aI326
ag258
a(lp265
g222
ag258
aaa(lp266
I329
aI333
aS'ideas'
p267
a(lp268
g258
ag267
aaa(lp269
I329
aI333
ag267
a(lp270
g249
ag267
aaa(lp271
I329
aI333
ag267
a(lp272
g240
ag267
aaa(lp273
I329
aI333
ag267
a(lp274
g231
ag267
aaa(lp275
I336
aI338
aS'ask'
p276
a(lp277
g267
ag276
aaa(lp278
I336
aI338
ag276
a(lp279
g258
ag276
aaa(lp280
I336
aI338
ag276
a(lp281
g249
ag276
aaa(lp282
I336
aI338
ag276
a(lp283
g240
ag276
aaa(lp284
I340
aI348
aS'questions'
p285
a(lp286
g276
ag285
aaa(lp287
I340
aI348
ag285
a(lp288
g267
ag285
aaa(lp289
I340
aI348
ag285
a(lp290
g258
ag285
aaa(lp291
I340
aI348
ag285
a(lp292
g249
ag285
aaa(lp293
I351
aI353
aS'etc'
p294
a(lp295
g285
ag294
aaa(lp296
I351
aI353
ag294
a(lp297
g276
ag294
aaa(lp298
I351
aI353
ag294
a(lp299
g267
ag294
aaa(lp300
I351
aI353
ag294
a(lp301
g258
ag294
aaa(lp302
I366
aI369
aS'help'
p303
a(lp304
g294
ag303
aaa(lp305
I366
aI369
ag303
a(lp306
g285
ag303
aaa(lp307
I366
aI369
ag303
a(lp308
g276
ag303
aaa(lp309
I366
aI369
ag303
a(lp310
g267
ag303
aaa(lp311
I379
aI384
aS'others'
p312
a(lp313
g303
ag312
aaa(lp314
I379
aI384
ag312
a(lp315
g294
ag312
aaa(lp316
I379
aI384
ag312
a(lp317
g285
ag312
aaa(lp318
I379
aI384
ag312
a(lp319
g276
ag312
aaa(lp320
I386
aI391
aS'become'
p321
a(lp322
g312
ag321
aaa(lp323
I386
aI391
ag321
a(lp324
g303
ag321
aaa(lp325
I386
aI391
ag321
a(lp326
g294
ag321
aaa(lp327
I386
aI391
ag321
a(lp328
g285
ag321
aaa(lp329
I393
aI398
aS'better'
p330
a(lp331
g321
ag330
aaa(lp332
I393
aI398
ag330
a(lp333
g312
ag330
aaa(lp334
I393
aI398
ag330
a(lp335
g303
ag330
aaa(lp336
I393
aI398
ag330
a(lp337
g294
ag330
aaa(lp338
I400
aI409
aS'homemakers'
p339
a(lp340
g330
ag339
aaa(lp341
I400
aI409
ag339
a(lp342
g321
ag339
aaa(lp343
I400
aI409
ag339
a(lp344
g312
ag339
aaa(lp345
I400
aI409
ag339
a(lp346
g303
ag339
aaa(lp347
I415
aI421
aS'setting'
p348
a(lp349
g339
ag348
aaa(lp350
I415
aI421
ag348
a(lp351
g330
ag348
aaa(lp352
I415
aI421
ag348
a(lp353
g321
ag348
aaa(lp354
I415
aI421
ag348
a(lp355
g312
ag348
aaa(lp356
I434
aI436
aS'way'
p357
a(lp358
g348
ag357
aaa(lp359
I434
aI436
ag357
a(lp360
g339
ag357
aaa(lp361
I434
aI436
ag357
a(lp362
g330
ag357
aaa(lp363
I434
aI436
ag357
a(lp364
g321
ag357
aaa(lp365
I438
aI443
aS'people'
p366
a(lp367
g357
ag366
aaa(lp368
I438
aI443
ag366
a(lp369
g348
ag366
aaa(lp370
I438
aI443
ag366
a(lp371
g339
ag366
aaa(lp372
I438
aI443
ag366
a(lp373
g330
ag366
aaa(lp374
I445
aI449
aS'dont'
p375
a(lp376
g366
ag375
aaa(lp377
I445
aI449
ag375
a(lp378
g357
ag375
aaa(lp379
I445
aI449
ag375
a(lp380
g348
ag375
aaa(lp381
I445
aI449
ag375
a(lp382
g339
ag375
aaa(lp383
I462
aI472
aS'embarrassed'
p384
a(lp385
g375
ag384
aaa(lp386
I462
aI472
ag384
a(lp387
g366
ag384
aaa(lp388
I462
aI472
ag384
a(lp389
g357
ag384
aaa(lp390
I462
aI472
ag384
a(lp391
g348
ag384
aaa(lp392
I477
aI479
aS'ask'
p393
a(lp394
g384
ag393
aaa(lp395
I477
aI479
ag393
a(lp396
g375
ag393
aaa(lp397
I477
aI479
ag393
a(lp398
g366
ag393
aaa(lp399
I477
aI479
ag393
a(lp400
g357
ag393
aaa(lp401
I481
aI486
aS'simple'
p402
a(lp403
g393
ag402
aaa(lp404
I481
aI486
ag402
a(lp405
g384
ag402
aaa(lp406
I481
aI486
ag402
a(lp407
g375
ag402
aaa(lp408
I481
aI486
ag402
a(lp409
g366
ag402
aaa(lp410
I491
aI501
aS'complicated'
p411
a(lp412
g402
ag411
aaa(lp413
I491
aI501
ag411
a(lp414
g393
ag411
aaa(lp415
I491
aI501
ag411
a(lp416
g384
ag411
aaa(lp417
I491
aI501
ag411
a(lp418
g375
ag411
aaa(lp419
I503
aI511
aS'questions'
p420
a(lp421
g411
ag420
aaa(lp422
I503
aI511
ag420
a(lp423
g402
ag420
aaa(lp424
I503
aI511
ag420
a(lp425
g393
ag420
aaa(lp426
I503
aI511
ag420
a(lp427
g384
ag420
aaa(lp428
I521
aI523
aS'ask'
p429
a(lp430
g420
ag429
aaa(lp431
I521
aI523
ag429
a(lp432
g411
ag429
aaa(lp433
I521
aI523
ag429
a(lp434
g402
ag429
aaa(lp435
I521
aI523
ag429
a(lp436
g393
ag429
aaa(lp437
I529
aI534
aS'advice'
p438
a(lp439
g429
ag438
aaa(lp440
I529
aI534
ag438
a(lp441
g420
ag438
aaa(lp442
I529
aI534
ag438
a(lp443
g411
ag438
aaa(lp444
I529
aI534
ag438
a(lp445
g402
ag438
aaa(lp446
I536
aI542
aS'without'
p447
a(lp448
g438
ag447
aaa(lp449
I536
aI542
ag447
a(lp450
g429
ag447
aaa(lp451
I536
aI542
ag447
a(lp452
g420
ag447
aaa(lp453
I536
aI542
ag447
a(lp454
g411
ag447
aaa(lp455
I544
aI550
aS'feeling'
p456
a(lp457
g447
ag456
aaa(lp458
I544
aI550
ag456
a(lp459
g438
ag456
aaa(lp460
I544
aI550
ag456
a(lp461
g429
ag456
aaa(lp462
I544
aI550
ag456
a(lp463
g420
ag456
aaa(lp464
I552
aI555
aS'like'
p465
a(lp466
g456
ag465
aaa(lp467
I552
aI555
ag465
a(lp468
g447
ag465
aaa(lp469
I552
aI555
ag465
a(lp470
g438
ag465
aaa(lp471
I552
aI555
ag465
a(lp472
g429
ag465
aaa(lp473
I574
aI580
aS'already'
p474
a(lp475
g465
ag474
aaa(lp476
I574
aI580
ag474
a(lp477
g456
ag474
aaa(lp478
I574
aI580
ag474
a(lp479
g447
ag474
aaa(lp480
I574
aI580
ag474
a(lp481
g438
ag474
aaa(lp482
I582
aI586
aS'known'
p483
a(lp484
g474
ag483
aaa(lp485
I582
aI586
ag483
a(lp486
g465
ag483
aaa(lp487
I582
aI586
ag483
a(lp488
g456
ag483
aaa(lp489
I582
aI586
ag483
a(lp490
g447
ag483
aaa(lp491
I603
aI607
aS'login'
p492
a(lp493
g483
ag492
aaa(lp494
I603
aI607
ag492
a(lp495
g474
ag492
aaa(lp496
I603
aI607
ag492
a(lp497
g465
ag492
aaa(lp498
I603
aI607
ag492
a(lp499
g456
ag492
aaa(lp500
I614
aI620
aS'account'
p501
a(lp502
g492
ag501
aaa(lp503
I614
aI620
ag501
a(lp504
g483
ag501
aaa(lp505
I614
aI620
ag501
a(lp506
g474
ag501
aaa(lp507
I614
aI620
ag501
a(lp508
g465
ag501
aaa(lp509
I631
aI634
aS'made'
p510
a(lp511
g501
ag510
aaa(lp512
I631
aI634
ag510
a(lp513
g492
ag510
aaa(lp514
I631
aI634
ag510
a(lp515
g483
ag510
aaa(lp516
I631
aI634
ag510
a(lp517
g474
ag510
aaa(lp518
I641
aI645
aS'gmail'
p519
a(lp520
g510
ag519
aaa(lp521
I641
aI645
ag519
a(lp522
g501
ag519
aaa(lp523
I641
aI645
ag519
a(lp524
g492
ag519
aaa(lp525
I641
aI645
ag519
a(lp526
g483
ag519
aaa(lp527
I661
aI664
aS'need'
p528
a(lp529
g519
ag528
aaa(lp530
I661
aI664
ag528
a(lp531
g510
ag528
aaa(lp532
I661
aI664
ag528
a(lp533
g501
ag528
aaa(lp534
I661
aI664
ag528
a(lp535
g492
ag528
aaa(lp536
I669
aI673
aS'enter'
p537
a(lp538
g528
ag537
aaa(lp539
I669
aI673
ag537
a(lp540
g519
ag537
aaa(lp541
I669
aI673
ag537
a(lp542
g510
ag537
aaa(lp543
I669
aI673
ag537
a(lp544
g501
ag537
aaa(lp545
I675
aI679
aS'along'
p546
a(lp547
g537
ag546
aaa(lp548
I675
aI679
ag546
a(lp549
g528
ag546
aaa(lp550
I675
aI679
ag546
a(lp551
g519
ag546
aaa(lp552
I675
aI679
ag546
a(lp553
g510
ag546
aaa(lp554
I690
aI697
aS'password'
p555
a(lp556
g546
ag555
aaa(lp557
I690
aI697
ag555
a(lp558
g537
ag555
aaa(lp559
I690
aI697
ag555
a(lp560
g528
ag555
aaa(lp561
I690
aI697
ag555
a(lp562
g519
ag555
aaa(lp563
I700
aI704
aS'email'
p564
a(lp565
g555
ag564
aaa(lp566
I700
aI704
ag564
a(lp567
g546
ag564
aaa(lp568
I700
aI704
ag564
a(lp569
g537
ag564
aaa(lp570
I700
aI704
ag564
a(lp571
g528
ag564
aaa(lp572
I707
aI714
aS'password'
p573
a(lp574
g564
ag573
aaa(lp575
I707
aI714
ag573
a(lp576
g555
ag573
aaa(lp577
I707
aI714
ag573
a(lp578
g546
ag573
aaa(lp579
I707
aI714
ag573
a(lp580
g537
ag573
aaa(lp581
I717
aI722
aS'please'
p582
a(lp583
g573
ag582
aaa(lp584
I717
aI722
ag582
a(lp585
g564
ag582
aaa(lp586
I717
aI722
ag582
a(lp587
g555
ag582
aaa(lp588
I717
aI722
ag582
a(lp589
g546
ag582
aaa(lp590
I731
aI736
aS'change'
p591
a(lp592
g582
ag591
aaa(lp593
I731
aI736
ag591
a(lp594
g573
ag591
aaa(lp595
I731
aI736
ag591
a(lp596
g564
ag591
aaa(lp597
I731
aI736
ag591
a(lp598
g555
ag591
aaa(lp599
I742
aI749
aS'settings'
p600
a(lp601
g591
ag600
aaa(lp602
I742
aI749
ag600
a(lp603
g582
ag600
aaa(lp604
I742
aI749
ag600
a(lp605
g573
ag600
aaa(lp606
I742
aI749
ag600
a(lp607
g564
ag600
aaa(lp608
I754
aI756
aS'use'
p609
a(lp610
g600
ag609
aaa(lp611
I754
aI756
ag609
a(lp612
g591
ag609
aaa(lp613
I754
aI756
ag609
a(lp614
g582
ag609
aaa(lp615
I754
aI756
ag609
a(lp616
g573
ag609
aaa(lp617
I763
aI767
aS'email'
p618
a(lp619
g609
ag618
aaa(lp620
I763
aI767
ag618
a(lp621
g600
ag618
aaa(lp622
I763
aI767
ag618
a(lp623
g591
ag618
aaa(lp624
I763
aI767
ag618
a(lp625
g582
ag618
aaa(lp626
I769
aI775
aS'account'
p627
a(lp628
g618
ag627
aaa(lp629
I769
aI775
ag627
a(lp630
g609
ag627
aaa(lp631
I769
aI775
ag627
a(lp632
g600
ag627
aaa(lp633
I769
aI775
ag627
a(lp634
g591
ag627
aaa(lp635
I791
aI794
aS'sign'
p636
a(lp637
g627
ag636
aaa(lp638
I791
aI794
ag636
a(lp639
g618
ag636
aaa(lp640
I791
aI794
ag636
a(lp641
g609
ag636
aaa(lp642
I791
aI794
ag636
a(lp643
g600
ag636
aaa(lp644
I806
aI809
aS'blog'
p645
a(lp646
g636
ag645
aaa(lp647
I806
aI809
ag645
a(lp648
g627
ag645
aaa(lp649
I806
aI809
ag645
a(lp650
g618
ag645
aaa(lp651
I806
aI809
ag645
a(lp652
g609
ag645
aaa(lp653
I820
aI826
aS'welcome'
p654
a(lp655
g645
ag654
aaa(lp656
I820
aI826
ag654
a(lp657
g636
ag654
aaa(lp658
I820
aI826
ag654
a(lp659
g627
ag654
aaa(lp660
I820
aI826
ag654
a(lp661
g618
ag654
aaa(lp662
I831
aI833
aS'add'
p663
a(lp664
g654
ag663
aaa(lp665
I831
aI833
ag663
a(lp666
g645
ag663
aaa(lp667
I831
aI833
ag663
a(lp668
g636
ag663
aaa(lp669
I831
aI833
ag663
a(lp670
g627
ag663
aaa(lp671
I844
aI851
aS'personal'
p672
a(lp673
g663
ag672
aaa(lp674
I844
aI851
ag672
a(lp675
g654
ag672
aaa(lp676
I844
aI851
ag672
a(lp677
g645
ag672
aaa(lp678
I844
aI851
ag672
a(lp679
g636
ag672
aaa(lp680
I853
aI856
aS'blog'
p681
a(lp682
g672
ag681
aaa(lp683
I853
aI856
ag681
a(lp684
g663
ag681
aaa(lp685
I853
aI856
ag681
a(lp686
g654
ag681
aaa(lp687
I853
aI856
ag681
a(lp688
g645
ag681
aaa(lp689
I859
aI862
aS'link'
p690
a(lp691
g681
ag690
aaa(lp692
I859
aI862
ag690
a(lp693
g672
ag690
aaa(lp694
I859
aI862
ag690
a(lp695
g663
ag690
aaa(lp696
I859
aI862
ag690
a(lp697
g654
ag690
aaa(lp698
I867
aI872
aS'others'
p699
a(lp700
g690
ag699
aaa(lp701
I867
aI872
ag699
a(lp702
g681
ag699
aaa(lp703
I867
aI872
ag699
a(lp704
g672
ag699
aaa(lp705
I867
aI872
ag699
a(lp706
g663
ag699
aaa(lp707
I878
aI880
aS'get'
p708
a(lp709
g699
ag708
aaa(lp710
I878
aI880
ag708
a(lp711
g690
ag708
aaa(lp712
I878
aI880
ag708
a(lp713
g681
ag708
aaa(lp714
I878
aI880
ag708
a(lp715
g672
ag708
aaa(lp716
I885
aI888
aS'know'
p717
a(lp718
g708
ag717
aaa(lp719
I885
aI888
ag717
a(lp720
g699
ag717
aaa(lp721
I885
aI888
ag717
a(lp722
g690
ag717
aaa(lp723
I885
aI888
ag717
a(lp724
g681
ag717
aaa(lp725
I894
aI899
aS'better'
p726
a(lp727
g717
ag726
aaa(lp728
I894
aI899
ag726
a(lp729
g708
ag726
aaa(lp730
I894
aI899
ag726
a(lp731
g699
ag726
aaa(lp732
I894
aI899
ag726
a(lp733
g690
ag726
aaa(lp734
I906
aI910
aS'lets'
p735
a(lp736
g726
ag735
aaa(lp737
I906
aI910
ag735
a(lp738
g717
ag735
aaa(lp739
I906
aI910
ag735
a(lp740
g708
ag735
aaa(lp741
I906
aI910
ag735
a(lp742
g699
ag735
aaa(lp743
I912
aI914
aS'get'
p744
a(lp745
g735
ag744
aaa(lp746
I912
aI914
ag744
a(lp747
g726
ag744
aaa(lp748
I912
aI914
ag744
a(lp749
g717
ag744
aaa(lp750
I912
aI914
ag744
a(lp751
g708
ag744
aaa(lp752
I916
aI923
aS'blogging'
p753
a(lp754
g744
ag753
aaa(lp755
I916
aI923
ag753
a(lp756
g735
ag753
aaa(lp757
I916
aI923
ag753
a(lp758
g726
ag753
aaa(lp759
I916
aI923
ag753
a(lp760
g717
ag753
aaa(lp761
I929
aI936
aS'remember'
p762
a(lp763
g753
ag762
aaa(lp764
I929
aI936
ag762
a(lp765
g744
ag762
aaa(lp766
I929
aI936
ag762
a(lp767
g735
ag762
aaa(lp768
I929
aI936
ag762
a(lp769
g726
ag762
aaa(lp770
I944
aI947
aS'kind'
p771
a(lp772
g762
ag771
aaa(lp773
I944
aI947
ag771
a(lp774
g753
ag771
aaa(lp775
I944
aI947
ag771
a(lp776
g744
ag771
aaa(lp777
I944
aI947
ag771
a(lp778
g735
ag771
aaa(lp779
I953
aI959
aS'helpful'
p780
a(lp781
g771
ag780
aaa(lp782
I953
aI959
ag780
a(lp783
g762
ag780
aaa(lp784
I953
aI959
ag780
a(lp785
g753
ag780
aaa(lp786
I953
aI959
ag780
a(lp787
g744
ag780
aaasS'wordMap'
p788
(lp789
(lp790
I0
aI9
ag5
a(lp791
(lp792
I0
aS'h'
p793
aa(lp794
I1
aS'o'
p795
aa(lp796
I2
aS'm'
p797
aa(lp798
I3
aS'e'
p799
aa(lp800
I4
ag797
aa(lp801
I5
aS'a'
p802
aa(lp803
I6
aS'k'
p804
aa(lp805
I7
aS'i'
p806
aa(lp807
I8
aS'n'
p808
aa(lp809
I9
aS'g'
p810
aaaa(lp811
I11
aI15
aS'about'
p812
a(lp813
(lp814
I11
ag802
aa(lp815
I12
aS'b'
p816
aa(lp817
I13
ag795
aa(lp818
I14
aS'u'
p819
aa(lp820
I15
aS't'
p821
aaaa(lp822
I17
aI20
ag15
a(lp823
(lp824
I17
ag816
aa(lp825
I18
aS'l'
p826
aa(lp827
I19
ag795
aa(lp828
I20
ag810
aaaa(lp829
I22
aI25
aS'this'
p830
a(lp831
(lp832
I22
ag821
aa(lp833
I23
ag793
aa(lp834
I24
ag806
aa(lp835
I25
aS's'
p836
aaaa(lp837
I27
aI30
ag24
a(lp838
(lp839
I27
ag816
aa(lp840
I28
ag826
aa(lp841
I29
ag795
aa(lp842
I30
ag810
aaaa(lp843
I32
aI33
aS'is'
p844
a(lp845
(lp846
I32
ag806
aa(lp847
I33
ag836
aaaa(lp848
I35
aI37
aS'for'
p849
a(lp850
(lp851
I35
aS'f'
p852
aa(lp853
I36
ag795
aa(lp854
I37
aS'r'
p855
aaaa(lp856
I39
aI46
ag33
a(lp857
(lp858
I39
ag799
aa(lp859
I40
aS'v'
p860
aa(lp861
I41
ag799
aa(lp862
I42
ag855
aa(lp863
I43
aS'y'
p864
aa(lp865
I44
ag795
aa(lp866
I45
ag808
aa(lp867
I46
ag799
aaaa(lp868
I49
aI50
aS'it'
p869
a(lp870
(lp871
I49
ag806
aa(lp872
I50
ag821
aaaa(lp873
I52
aI54
aS'was'
p874
a(lp875
(lp876
I52
aS'w'
p877
aa(lp878
I53
ag802
aa(lp879
I54
ag836
aaaa(lp880
I56
aI62
ag42
a(lp881
(lp882
I56
aS'c'
p883
aa(lp884
I57
ag855
aa(lp885
I58
ag799
aa(lp886
I59
ag802
aa(lp887
I60
ag821
aa(lp888
I61
ag799
aa(lp889
I62
aS'd'
p890
aaaa(lp891
I64
aI66
aS'for'
p892
a(lp893
(lp894
I64
ag852
aa(lp895
I65
ag795
aa(lp896
I66
ag855
aaaa(lp897
I68
aI70
aS'you'
p898
a(lp899
(lp900
I68
ag864
aa(lp901
I69
ag795
aa(lp902
I70
ag819
aaaa(lp903
I72
aI74
aS'and'
p904
a(lp905
(lp906
I72
ag802
aa(lp907
I73
ag808
aa(lp908
I74
ag890
aaaa(lp909
I76
aI77
aS'me'
p910
a(lp911
(lp912
I76
ag797
aa(lp913
I77
ag799
aaaa(lp914
I80
aI81
aS'to'
p915
a(lp916
(lp917
I80
ag821
aa(lp918
I81
ag795
aaaa(lp919
I83
aI86
ag51
a(lp920
(lp921
I83
ag793
aa(lp922
I84
ag799
aa(lp923
I85
ag826
aa(lp924
I86
aS'p'
p925
aaaa(lp926
I88
aI89
ag60
a(lp927
(lp928
I88
ag819
aa(lp929
I89
ag836
aaaa(lp930
I91
aI96
ag69
a(lp931
(lp932
I91
ag816
aa(lp933
I92
ag799
aa(lp934
I93
ag883
aa(lp935
I94
ag795
aa(lp936
I95
ag797
aa(lp937
I96
ag799
aaaa(lp938
I98
aI103
ag78
a(lp939
(lp940
I98
ag816
aa(lp941
I99
ag799
aa(lp942
I100
ag821
aa(lp943
I101
ag821
aa(lp944
I102
ag799
aa(lp945
I103
ag855
aaaa(lp946
I105
aI114
ag87
a(lp947
(lp948
I105
ag793
aa(lp949
I106
ag795
aa(lp950
I107
ag797
aa(lp951
I108
ag799
aa(lp952
I109
ag797
aa(lp953
I110
ag802
aa(lp954
I111
ag804
aa(lp955
I112
ag799
aa(lp956
I113
ag855
aa(lp957
I114
ag836
aaaa(lp958
I117
aI122
ag96
a(lp959
(lp960
I117
ag793
aa(lp961
I118
ag799
aa(lp962
I119
ag855
aa(lp963
I120
ag799
aa(lp964
I122
ag836
aaaa(lp965
I124
aI126
aS'how'
p966
a(lp967
(lp968
I124
ag793
aa(lp969
I125
ag795
aa(lp970
I126
ag877
aaaa(lp971
I128
aI129
aS'it'
p972
a(lp973
(lp974
I128
ag806
aa(lp975
I129
ag821
aaaa(lp976
I131
aI141
ag105
a(lp977
(lp978
I131
ag877
aa(lp979
I132
ag795
aa(lp980
I133
ag855
aa(lp981
I134
ag804
aa(lp982
I135
ag836
aa(lp983
I139
ag864
aa(lp984
I140
ag795
aa(lp985
I141
ag819
aaaa(lp986
I143
aI148
ag114
a(lp987
(lp988
I143
ag883
aa(lp989
I144
ag855
aa(lp990
I145
ag799
aa(lp991
I146
ag802
aa(lp992
I147
ag821
aa(lp993
I148
ag799
aaaa(lp994
I150
aI150
ag802
a(lp995
(lp996
I150
ag802
aaaa(lp997
I153
aI156
ag123
a(lp998
(lp999
I153
ag925
aa(lp1000
I154
ag795
aa(lp1001
I155
ag836
aa(lp1002
I156
ag821
aaaa(lp1003
I159
aI161
aS'for'
p1004
a(lp1005
(lp1006
I159
ag852
aa(lp1007
I160
ag795
aa(lp1008
I161
ag855
aaaa(lp1009
I163
aI170
ag132
a(lp1010
(lp1011
I163
ag799
aa(lp1012
I164
ag860
aa(lp1013
I165
ag799
aa(lp1014
I166
ag855
aa(lp1015
I167
ag864
aa(lp1016
I168
ag795
aa(lp1017
I169
ag808
aa(lp1018
I170
ag799
aaaa(lp1019
I172
aI173
aS'to'
p1020
a(lp1021
(lp1022
I172
ag821
aa(lp1023
I173
ag795
aaaa(lp1024
I175
aI177
ag141
a(lp1025
(lp1026
I175
ag836
aa(lp1027
I176
ag799
aa(lp1028
I177
ag799
aaaa(lp1029
I181
aI185
ag150
a(lp1030
(lp1031
I181
ag925
aa(lp1032
I182
ag795
aa(lp1033
I183
ag836
aa(lp1034
I184
ag821
aa(lp1035
I185
ag836
aaaa(lp1036
I187
aI190
aS'will'
p1037
a(lp1038
(lp1039
I187
ag877
aa(lp1040
I188
ag806
aa(lp1041
I189
ag826
aa(lp1042
I190
ag826
aaaa(lp1043
I192
aI193
aS'be'
p1044
a(lp1045
(lp1046
I192
ag816
aa(lp1047
I193
ag799
aaaa(lp1048
I195
aI201
ag159
a(lp1049
(lp1050
I195
ag890
aa(lp1051
I196
ag799
aa(lp1052
I197
ag826
aa(lp1053
I198
ag799
aa(lp1054
I199
ag821
aa(lp1055
I200
ag799
aa(lp1056
I201
ag890
aaaa(lp1057
I203
aI204
aS'if'
p1058
a(lp1059
(lp1060
I203
ag806
aa(lp1061
I204
ag852
aaaa(lp1062
I206
aI218
ag168
a(lp1063
(lp1064
I206
ag806
aa(lp1065
I207
ag808
aa(lp1066
I208
ag802
aa(lp1067
I209
ag925
aa(lp1068
I210
ag925
aa(lp1069
I211
ag855
aa(lp1070
I212
ag795
aa(lp1071
I213
ag925
aa(lp1072
I214
ag855
aa(lp1073
I215
ag806
aa(lp1074
I216
ag802
aa(lp1075
I217
ag821
aa(lp1076
I218
ag799
aaaa(lp1077
I222
aI225
aS'then'
p1078
a(lp1079
(lp1080
I222
ag821
aa(lp1081
I223
ag793
aa(lp1082
I224
ag799
aa(lp1083
I225
ag808
aaaa(lp1084
I227
aI232
ag177
a(lp1085
(lp1086
I227
ag925
aa(lp1087
I228
ag799
aa(lp1088
I229
ag795
aa(lp1089
I230
ag925
aa(lp1090
I231
ag826
aa(lp1091
I232
ag799
aaaa(lp1092
I234
aI236
aS'can'
p1093
a(lp1094
(lp1095
I234
ag883
aa(lp1096
I235
ag802
aa(lp1097
I236
ag808
aaaa(lp1098
I238
aI241
ag186
a(lp1099
(lp1100
I238
ag797
aa(lp1101
I239
ag802
aa(lp1102
I240
ag804
aa(lp1103
I241
ag799
aaaa(lp1104
I243
aI250
ag195
a(lp1105
(lp1106
I243
ag883
aa(lp1107
I244
ag795
aa(lp1108
I245
ag797
aa(lp1109
I246
ag797
aa(lp1110
I247
ag799
aa(lp1111
I248
ag808
aa(lp1112
I249
ag821
aa(lp1113
I250
ag836
aaaa(lp1114
I253
aI254
aS'or'
p1115
a(lp1116
(lp1117
I253
ag795
aa(lp1118
I254
ag855
aaaa(lp1119
I256
aI259
ag204
a(lp1120
(lp1121
I256
ag810
aa(lp1122
I257
ag806
aa(lp1123
I258
ag860
aa(lp1124
I259
ag799
aaaa(lp1125
I261
aI267
ag213
a(lp1126
(lp1127
I261
ag802
aa(lp1128
I262
ag808
aa(lp1129
I263
ag836
aa(lp1130
I264
ag877
aa(lp1131
I265
ag799
aa(lp1132
I266
ag855
aa(lp1133
I267
ag836
aaaa(lp1134
I270
aI274
aS'about'
p1135
a(lp1136
(lp1137
I270
ag802
aa(lp1138
I271
ag816
aa(lp1139
I272
ag795
aa(lp1140
I273
ag819
aa(lp1141
I274
ag821
aaaa(lp1142
I276
aI279
aS'that'
p1143
a(lp1144
(lp1145
I276
ag821
aa(lp1146
I277
ag793
aa(lp1147
I278
ag802
aa(lp1148
I279
ag821
aaaa(lp1149
I281
aI284
ag222
a(lp1150
(lp1151
I281
ag925
aa(lp1152
I282
ag795
aa(lp1153
I283
ag836
aa(lp1154
I284
ag821
aaaa(lp1155
I287
aI289
aS'the'
p1156
a(lp1157
(lp1158
I287
ag821
aa(lp1159
I288
ag793
aa(lp1160
I289
ag799
aaaa(lp1161
I291
aI294
ag231
a(lp1162
(lp1163
I291
ag806
aa(lp1164
I292
ag890
aa(lp1165
I293
ag799
aa(lp1166
I294
ag802
aaaa(lp1167
I296
aI297
aS'of'
p1168
a(lp1169
(lp1170
I296
ag795
aa(lp1171
I297
ag852
aaaa(lp1172
I299
aI302
aS'this'
p1173
a(lp1174
(lp1175
I299
ag821
aa(lp1176
I300
ag793
aa(lp1177
I301
ag806
aa(lp1178
I302
ag836
aaaa(lp1179
I304
aI307
ag240
a(lp1180
(lp1181
I304
ag816
aa(lp1182
I305
ag826
aa(lp1183
I306
ag795
aa(lp1184
I307
ag810
aaaa(lp1185
I309
aI310
aS'is'
p1186
a(lp1187
(lp1188
I309
ag806
aa(lp1189
I310
ag836
aaaa(lp1190
I312
aI313
aS'to'
p1191
a(lp1192
(lp1193
I312
ag821
aa(lp1194
I313
ag795
aaaa(lp1195
I315
aI319
ag249
a(lp1196
(lp1197
I315
ag795
aa(lp1198
I316
ag852
aa(lp1199
I317
ag852
aa(lp1200
I318
ag799
aa(lp1201
I319
ag855
aaaa(lp1202
I321
aI326
ag258
a(lp1203
(lp1204
I321
ag802
aa(lp1205
I322
ag890
aa(lp1206
I323
ag860
aa(lp1207
I324
ag806
aa(lp1208
I325
ag883
aa(lp1209
I326
ag799
aaaa(lp1210
I329
aI333
ag267
a(lp1211
(lp1212
I329
ag806
aa(lp1213
I330
ag890
aa(lp1214
I331
ag799
aa(lp1215
I332
ag802
aa(lp1216
I333
ag836
aaaa(lp1217
I336
aI338
ag276
a(lp1218
(lp1219
I336
ag802
aa(lp1220
I337
ag836
aa(lp1221
I338
ag804
aaaa(lp1222
I340
aI348
ag285
a(lp1223
(lp1224
I340
aS'q'
p1225
aa(lp1226
I341
ag819
aa(lp1227
I342
ag799
aa(lp1228
I343
ag836
aa(lp1229
I344
ag821
aa(lp1230
I345
ag806
aa(lp1231
I346
ag795
aa(lp1232
I347
ag808
aa(lp1233
I348
ag836
aaaa(lp1234
I351
aI353
ag294
a(lp1235
(lp1236
I351
ag799
aa(lp1237
I352
ag821
aa(lp1238
I353
ag883
aaaa(lp1239
I356
aI359
aS'that'
p1240
a(lp1241
(lp1242
I356
ag821
aa(lp1243
I357
ag793
aa(lp1244
I358
ag802
aa(lp1245
I359
ag821
aaaa(lp1246
I361
aI364
aS'will'
p1247
a(lp1248
(lp1249
I361
ag877
aa(lp1250
I362
ag806
aa(lp1251
I363
ag826
aa(lp1252
I364
ag826
aaaa(lp1253
I366
aI369
ag303
a(lp1254
(lp1255
I366
ag793
aa(lp1256
I367
ag799
aa(lp1257
I368
ag826
aa(lp1258
I369
ag925
aaaa(lp1259
I371
aI373
aS'you'
p1260
a(lp1261
(lp1262
I371
ag864
aa(lp1263
I372
ag795
aa(lp1264
I373
ag819
aaaa(lp1265
I375
aI377
aS'and'
p1266
a(lp1267
(lp1268
I375
ag802
aa(lp1269
I376
ag808
aa(lp1270
I377
ag890
aaaa(lp1271
I379
aI384
ag312
a(lp1272
(lp1273
I379
ag795
aa(lp1274
I380
ag821
aa(lp1275
I381
ag793
aa(lp1276
I382
ag799
aa(lp1277
I383
ag855
aa(lp1278
I384
ag836
aaaa(lp1279
I386
aI391
ag321
a(lp1280
(lp1281
I386
ag816
aa(lp1282
I387
ag799
aa(lp1283
I388
ag883
aa(lp1284
I389
ag795
aa(lp1285
I390
ag797
aa(lp1286
I391
ag799
aaaa(lp1287
I393
aI398
ag330
a(lp1288
(lp1289
I393
ag816
aa(lp1290
I394
ag799
aa(lp1291
I395
ag821
aa(lp1292
I396
ag821
aa(lp1293
I397
ag799
aa(lp1294
I398
ag855
aaaa(lp1295
I400
aI409
ag339
a(lp1296
(lp1297
I400
ag793
aa(lp1298
I401
ag795
aa(lp1299
I402
ag797
aa(lp1300
I403
ag799
aa(lp1301
I404
ag797
aa(lp1302
I405
ag802
aa(lp1303
I406
ag804
aa(lp1304
I407
ag799
aa(lp1305
I408
ag855
aa(lp1306
I409
ag836
aaaa(lp1307
I412
aI413
aS'by'
p1308
a(lp1309
(lp1310
I412
ag816
aa(lp1311
I413
ag864
aaaa(lp1312
I415
aI421
ag348
a(lp1313
(lp1314
I415
ag836
aa(lp1315
I416
ag799
aa(lp1316
I417
ag821
aa(lp1317
I418
ag821
aa(lp1318
I419
ag806
aa(lp1319
I420
ag808
aa(lp1320
I421
ag810
aaaa(lp1321
I423
aI424
aS'it'
p1322
a(lp1323
(lp1324
I423
ag806
aa(lp1325
I424
ag821
aaaa(lp1326
I426
aI427
aS'up'
p1327
a(lp1328
(lp1329
I426
ag819
aa(lp1330
I427
ag925
aaaa(lp1331
I429
aI432
aS'this'
p1332
a(lp1333
(lp1334
I429
ag821
aa(lp1335
I430
ag793
aa(lp1336
I431
ag806
aa(lp1337
I432
ag836
aaaa(lp1338
I434
aI436
ag357
a(lp1339
(lp1340
I434
ag877
aa(lp1341
I435
ag802
aa(lp1342
I436
ag864
aaaa(lp1343
I438
aI443
ag366
a(lp1344
(lp1345
I438
ag925
aa(lp1346
I439
ag799
aa(lp1347
I440
ag795
aa(lp1348
I441
ag925
aa(lp1349
I442
ag826
aa(lp1350
I443
ag799
aaaa(lp1351
I445
aI449
ag375
a(lp1352
(lp1353
I445
ag890
aa(lp1354
I446
ag795
aa(lp1355
I447
ag808
aa(lp1356
I449
ag821
aaaa(lp1357
I451
aI454
aS'have'
p1358
a(lp1359
(lp1360
I451
ag793
aa(lp1361
I452
ag802
aa(lp1362
I453
ag860
aa(lp1363
I454
ag799
aaaa(lp1364
I456
aI457
aS'to'
p1365
a(lp1366
(lp1367
I456
ag821
aa(lp1368
I457
ag795
aaaa(lp1369
I459
aI460
aS'be'
p1370
a(lp1371
(lp1372
I459
ag816
aa(lp1373
I460
ag799
aaaa(lp1374
I462
aI472
ag384
a(lp1375
(lp1376
I462
ag799
aa(lp1377
I463
ag797
aa(lp1378
I464
ag816
aa(lp1379
I465
ag802
aa(lp1380
I466
ag855
aa(lp1381
I467
ag855
aa(lp1382
I468
ag802
aa(lp1383
I469
ag836
aa(lp1384
I470
ag836
aa(lp1385
I471
ag799
aa(lp1386
I472
ag890
aaaa(lp1387
I474
aI475
aS'to'
p1388
a(lp1389
(lp1390
I474
ag821
aa(lp1391
I475
ag795
aaaa(lp1392
I477
aI479
ag393
a(lp1393
(lp1394
I477
ag802
aa(lp1395
I478
ag836
aa(lp1396
I479
ag804
aaaa(lp1397
I481
aI486
ag402
a(lp1398
(lp1399
I481
ag836
aa(lp1400
I482
ag806
aa(lp1401
I483
ag797
aa(lp1402
I484
ag925
aa(lp1403
I485
ag826
aa(lp1404
I486
ag799
aaaa(lp1405
I488
aI489
aS'or'
p1406
a(lp1407
(lp1408
I488
ag795
aa(lp1409
I489
ag855
aaaa(lp1410
I491
aI501
ag411
a(lp1411
(lp1412
I491
ag883
aa(lp1413
I492
ag795
aa(lp1414
I493
ag797
aa(lp1415
I494
ag925
aa(lp1416
I495
ag826
aa(lp1417
I496
ag806
aa(lp1418
I497
ag883
aa(lp1419
I498
ag802
aa(lp1420
I499
ag821
aa(lp1421
I500
ag799
aa(lp1422
I501
ag890
aaaa(lp1423
I503
aI511
ag420
a(lp1424
(lp1425
I503
ag1225
aa(lp1426
I504
ag819
aa(lp1427
I505
ag799
aa(lp1428
I506
ag836
aa(lp1429
I507
ag821
aa(lp1430
I508
ag806
aa(lp1431
I509
ag795
aa(lp1432
I510
ag808
aa(lp1433
I511
ag836
aaaa(lp1434
I513
aI515
aS'and'
p1435
a(lp1436
(lp1437
I513
ag802
aa(lp1438
I514
ag808
aa(lp1439
I515
ag890
aaaa(lp1440
I517
aI519
aS'can'
p1441
a(lp1442
(lp1443
I517
ag883
aa(lp1444
I518
ag802
aa(lp1445
I519
ag808
aaaa(lp1446
I521
aI523
ag429
a(lp1447
(lp1448
I521
ag802
aa(lp1449
I522
ag836
aa(lp1450
I523
ag804
aaaa(lp1451
I525
aI527
aS'for'
p1452
a(lp1453
(lp1454
I525
ag852
aa(lp1455
I526
ag795
aa(lp1456
I527
ag855
aaaa(lp1457
I529
aI534
ag438
a(lp1458
(lp1459
I529
ag802
aa(lp1460
I530
ag890
aa(lp1461
I531
ag860
aa(lp1462
I532
ag806
aa(lp1463
I533
ag883
aa(lp1464
I534
ag799
aaaa(lp1465
I536
aI542
ag447
a(lp1466
(lp1467
I536
ag877
aa(lp1468
I537
ag806
aa(lp1469
I538
ag821
aa(lp1470
I539
ag793
aa(lp1471
I540
ag795
aa(lp1472
I541
ag819
aa(lp1473
I542
ag821
aaaa(lp1474
I544
aI550
ag456
a(lp1475
(lp1476
I544
ag852
aa(lp1477
I545
ag799
aa(lp1478
I546
ag799
aa(lp1479
I547
ag826
aa(lp1480
I548
ag806
aa(lp1481
I549
ag808
aa(lp1482
I550
ag810
aaaa(lp1483
I552
aI555
ag465
a(lp1484
(lp1485
I552
ag826
aa(lp1486
I553
ag806
aa(lp1487
I554
ag804
aa(lp1488
I555
ag799
aaaa(lp1489
I557
aI560
aS'they'
p1490
a(lp1491
(lp1492
I557
ag821
aa(lp1493
I558
ag793
aa(lp1494
I559
ag799
aa(lp1495
I560
ag864
aaaa(lp1496
I562
aI567
aS'should'
p1497
a(lp1498
(lp1499
I562
ag836
aa(lp1500
I563
ag793
aa(lp1501
I564
ag795
aa(lp1502
I565
ag819
aa(lp1503
I566
ag826
aa(lp1504
I567
ag890
aaaa(lp1505
I569
aI572
aS'have'
p1506
a(lp1507
(lp1508
I569
ag793
aa(lp1509
I570
ag802
aa(lp1510
I571
ag860
aa(lp1511
I572
ag799
aaaa(lp1512
I574
aI580
ag474
a(lp1513
(lp1514
I574
ag802
aa(lp1515
I575
ag826
aa(lp1516
I576
ag855
aa(lp1517
I577
ag799
aa(lp1518
I578
ag802
aa(lp1519
I579
ag890
aa(lp1520
I580
ag864
aaaa(lp1521
I582
aI586
ag483
a(lp1522
(lp1523
I582
ag804
aa(lp1524
I583
ag808
aa(lp1525
I584
ag795
aa(lp1526
I585
ag877
aa(lp1527
I586
ag808
aaaa(lp1528
I589
aI592
aS'that'
p1529
a(lp1530
(lp1531
I589
ag821
aa(lp1532
I590
ag793
aa(lp1533
I591
ag802
aa(lp1534
I592
ag821
aaaa(lp1535
I596
aI598
aS'how'
p1536
a(lp1537
(lp1538
I596
ag793
aa(lp1539
I597
ag795
aa(lp1540
I598
ag877
aaaa(lp1541
I600
aI601
aS'to'
p1542
a(lp1543
(lp1544
I600
ag821
aa(lp1545
I601
ag795
aaaa(lp1546
I603
aI607
ag492
a(lp1547
(lp1548
I603
ag826
aa(lp1549
I604
ag795
aa(lp1550
I605
ag810
aa(lp1551
I606
ag806
aa(lp1552
I607
ag808
aaaa(lp1553
I611
aI612
aS'an'
p1554
a(lp1555
(lp1556
I611
ag802
aa(lp1557
I612
ag808
aaaa(lp1558
I614
aI620
ag501
a(lp1559
(lp1560
I614
ag802
aa(lp1561
I615
ag883
aa(lp1562
I616
ag883
aa(lp1563
I617
ag795
aa(lp1564
I618
ag819
aa(lp1565
I619
ag808
aa(lp1566
I620
ag821
aaaa(lp1567
I622
aI624
aS'has'
p1568
a(lp1569
(lp1570
I622
ag793
aa(lp1571
I623
ag802
aa(lp1572
I624
ag836
aaaa(lp1573
I626
aI629
aS'been'
p1574
a(lp1575
(lp1576
I626
ag816
aa(lp1577
I627
ag799
aa(lp1578
I628
ag799
aa(lp1579
I629
ag808
aaaa(lp1580
I631
aI634
ag510
a(lp1581
(lp1582
I631
ag797
aa(lp1583
I632
ag802
aa(lp1584
I633
ag890
aa(lp1585
I634
ag799
aaaa(lp1586
I636
aI639
aS'with'
p1587
a(lp1588
(lp1589
I636
ag877
aa(lp1590
I637
ag806
aa(lp1591
I638
ag821
aa(lp1592
I639
ag793
aaaa(lp1593
I641
aI645
ag519
a(lp1594
(lp1595
I641
ag810
aa(lp1596
I642
ag797
aa(lp1597
I643
ag802
aa(lp1598
I644
ag806
aa(lp1599
I645
ag826
aaaa(lp1600
I647
aI650
aS'that'
p1601
a(lp1602
(lp1603
I647
ag821
aa(lp1604
I648
ag793
aa(lp1605
I649
ag802
aa(lp1606
I650
ag821
aaaa(lp1607
I652
aI654
aS'you'
p1608
a(lp1609
(lp1610
I652
ag864
aa(lp1611
I653
ag795
aa(lp1612
I654
ag819
aaaa(lp1613
I656
aI659
aS'will'
p1614
a(lp1615
(lp1616
I656
ag877
aa(lp1617
I657
ag806
aa(lp1618
I658
ag826
aa(lp1619
I659
ag826
aaaa(lp1620
I661
aI664
ag528
a(lp1621
(lp1622
I661
ag808
aa(lp1623
I662
ag799
aa(lp1624
I663
ag799
aa(lp1625
I664
ag890
aaaa(lp1626
I666
aI667
aS'to'
p1627
a(lp1628
(lp1629
I666
ag821
aa(lp1630
I667
ag795
aaaa(lp1631
I669
aI673
ag537
a(lp1632
(lp1633
I669
ag799
aa(lp1634
I670
ag808
aa(lp1635
I671
ag821
aa(lp1636
I672
ag799
aa(lp1637
I673
ag855
aaaa(lp1638
I675
aI679
ag546
a(lp1639
(lp1640
I675
ag802
aa(lp1641
I676
ag826
aa(lp1642
I677
ag795
aa(lp1643
I678
ag808
aa(lp1644
I679
ag810
aaaa(lp1645
I681
aI684
aS'with'
p1646
a(lp1647
(lp1648
I681
ag877
aa(lp1649
I682
ag806
aa(lp1650
I683
ag821
aa(lp1651
I684
ag793
aaaa(lp1652
I686
aI688
aS'the'
p1653
a(lp1654
(lp1655
I686
ag821
aa(lp1656
I687
ag793
aa(lp1657
I688
ag799
aaaa(lp1658
I690
aI697
ag555
a(lp1659
(lp1660
I690
ag925
aa(lp1661
I691
ag802
aa(lp1662
I692
ag836
aa(lp1663
I693
ag836
aa(lp1664
I694
ag877
aa(lp1665
I695
ag795
aa(lp1666
I696
ag855
aa(lp1667
I697
ag890
aaaa(lp1668
I700
aI704
ag564
a(lp1669
(lp1670
I700
ag799
aa(lp1671
I701
ag797
aa(lp1672
I702
ag802
aa(lp1673
I703
ag806
aa(lp1674
I704
ag826
aaaa(lp1675
I707
aI714
ag573
a(lp1676
(lp1677
I707
ag925
aa(lp1678
I708
ag802
aa(lp1679
I709
ag836
aa(lp1680
I710
ag836
aa(lp1681
I711
ag877
aa(lp1682
I712
ag795
aa(lp1683
I713
ag855
aa(lp1684
I714
ag890
aaaa(lp1685
I717
aI722
ag582
a(lp1686
(lp1687
I717
ag925
aa(lp1688
I718
ag826
aa(lp1689
I719
ag799
aa(lp1690
I720
ag802
aa(lp1691
I721
ag836
aa(lp1692
I722
ag799
aaaa(lp1693
I724
aI725
aS'do'
p1694
a(lp1695
(lp1696
I724
ag890
aa(lp1697
I725
ag795
aaaa(lp1698
I727
aI729
aS'not'
p1699
a(lp1700
(lp1701
I727
ag808
aa(lp1702
I728
ag795
aa(lp1703
I729
ag821
aaaa(lp1704
I731
aI736
ag591
a(lp1705
(lp1706
I731
ag883
aa(lp1707
I732
ag793
aa(lp1708
I733
ag802
aa(lp1709
I734
ag808
aa(lp1710
I735
ag810
aa(lp1711
I736
ag799
aaaa(lp1712
I738
aI740
aS'the'
p1713
a(lp1714
(lp1715
I738
ag821
aa(lp1716
I739
ag793
aa(lp1717
I740
ag799
aaaa(lp1718
I742
aI749
ag600
a(lp1719
(lp1720
I742
ag836
aa(lp1721
I743
ag799
aa(lp1722
I744
ag821
aa(lp1723
I745
ag821
aa(lp1724
I746
ag806
aa(lp1725
I747
ag808
aa(lp1726
I748
ag810
aa(lp1727
I749
ag836
aaaa(lp1728
I751
aI752
aS'or'
p1729
a(lp1730
(lp1731
I751
ag795
aa(lp1732
I752
ag855
aaaa(lp1733
I754
aI756
ag609
a(lp1734
(lp1735
I754
ag819
aa(lp1736
I755
ag836
aa(lp1737
I756
ag799
aaaa(lp1738
I758
aI761
aS'this'
p1739
a(lp1740
(lp1741
I758
ag821
aa(lp1742
I759
ag793
aa(lp1743
I760
ag806
aa(lp1744
I761
ag836
aaaa(lp1745
I763
aI767
ag618
a(lp1746
(lp1747
I763
ag799
aa(lp1748
I764
ag797
aa(lp1749
I765
ag802
aa(lp1750
I766
ag806
aa(lp1751
I767
ag826
aaaa(lp1752
I769
aI775
ag627
a(lp1753
(lp1754
I769
ag802
aa(lp1755
I770
ag883
aa(lp1756
I771
ag883
aa(lp1757
I772
ag795
aa(lp1758
I773
ag819
aa(lp1759
I774
ag808
aa(lp1760
I775
ag821
aaaa(lp1761
I777
aI781
aS'other'
p1762
a(lp1763
(lp1764
I777
ag795
aa(lp1765
I778
ag821
aa(lp1766
I779
ag793
aa(lp1767
I780
ag799
aa(lp1768
I781
ag855
aaaa(lp1769
I783
aI786
aS'than'
p1770
a(lp1771
(lp1772
I783
ag821
aa(lp1773
I784
ag793
aa(lp1774
I785
ag802
aa(lp1775
I786
ag808
aaaa(lp1776
I788
aI789
aS'to'
p1777
a(lp1778
(lp1779
I788
ag821
aa(lp1780
I789
ag795
aaaa(lp1781
I791
aI794
ag636
a(lp1782
(lp1783
I791
ag836
aa(lp1784
I792
ag806
aa(lp1785
I793
ag810
aa(lp1786
I794
ag808
aaaa(lp1787
I796
aI799
aS'into'
p1788
a(lp1789
(lp1790
I796
ag806
aa(lp1791
I797
ag808
aa(lp1792
I798
ag821
aa(lp1793
I799
ag795
aaaa(lp1794
I801
aI804
aS'this'
p1795
a(lp1796
(lp1797
I801
ag821
aa(lp1798
I802
ag793
aa(lp1799
I803
ag806
aa(lp1800
I804
ag836
aaaa(lp1801
I806
aI809
ag645
a(lp1802
(lp1803
I806
ag816
aa(lp1804
I807
ag826
aa(lp1805
I808
ag795
aa(lp1806
I809
ag810
aaaa(lp1807
I812
aI814
aS'you'
p1808
a(lp1809
(lp1810
I812
ag864
aa(lp1811
I813
ag795
aa(lp1812
I814
ag819
aaaa(lp1813
I816
aI818
aS'are'
p1814
a(lp1815
(lp1816
I816
ag802
aa(lp1817
I817
ag855
aa(lp1818
I818
ag799
aaaa(lp1819
I820
aI826
ag654
a(lp1820
(lp1821
I820
ag877
aa(lp1822
I821
ag799
aa(lp1823
I822
ag826
aa(lp1824
I823
ag883
aa(lp1825
I824
ag795
aa(lp1826
I825
ag797
aa(lp1827
I826
ag799
aaaa(lp1828
I828
aI829
aS'to'
p1829
a(lp1830
(lp1831
I828
ag821
aa(lp1832
I829
ag795
aaaa(lp1833
I831
aI833
ag663
a(lp1834
(lp1835
I831
ag802
aa(lp1836
I832
ag890
aa(lp1837
I833
ag890
aaaa(lp1838
I835
aI838
aS'your'
p1839
a(lp1840
(lp1841
I835
ag864
aa(lp1842
I836
ag795
aa(lp1843
I837
ag819
aa(lp1844
I838
ag855
aaaa(lp1845
I840
aI842
aS'own'
p1846
a(lp1847
(lp1848
I840
ag795
aa(lp1849
I841
ag877
aa(lp1850
I842
ag808
aaaa(lp1851
I844
aI851
ag672
a(lp1852
(lp1853
I844
ag925
aa(lp1854
I845
ag799
aa(lp1855
I846
ag855
aa(lp1856
I847
ag836
aa(lp1857
I848
ag795
aa(lp1858
I849
ag808
aa(lp1859
I850
ag802
aa(lp1860
I851
ag826
aaaa(lp1861
I853
aI856
ag681
a(lp1862
(lp1863
I853
ag816
aa(lp1864
I854
ag826
aa(lp1865
I855
ag795
aa(lp1866
I856
ag810
aaaa(lp1867
I859
aI862
ag690
a(lp1868
(lp1869
I859
ag826
aa(lp1870
I860
ag806
aa(lp1871
I861
ag808
aa(lp1872
I862
ag804
aaaa(lp1873
I864
aI865
aS'so'
p1874
a(lp1875
(lp1876
I864
ag836
aa(lp1877
I865
ag795
aaaa(lp1878
I867
aI872
ag699
a(lp1879
(lp1880
I867
ag795
aa(lp1881
I868
ag821
aa(lp1882
I869
ag793
aa(lp1883
I870
ag799
aa(lp1884
I871
ag855
aa(lp1885
I872
ag836
aaaa(lp1886
I874
aI876
aS'can'
p1887
a(lp1888
(lp1889
I874
ag883
aa(lp1890
I875
ag802
aa(lp1891
I876
ag808
aaaa(lp1892
I878
aI880
ag708
a(lp1893
(lp1894
I878
ag810
aa(lp1895
I879
ag799
aa(lp1896
I880
ag821
aaaa(lp1897
I882
aI883
aS'to'
p1898
a(lp1899
(lp1900
I882
ag821
aa(lp1901
I883
ag795
aaaa(lp1902
I885
aI888
ag717
a(lp1903
(lp1904
I885
ag804
aa(lp1905
I886
ag808
aa(lp1906
I887
ag795
aa(lp1907
I888
ag877
aaaa(lp1908
I890
aI892
aS'you'
p1909
a(lp1910
(lp1911
I890
ag864
aa(lp1912
I891
ag795
aa(lp1913
I892
ag819
aaaa(lp1914
I894
aI899
ag726
a(lp1915
(lp1916
I894
ag816
aa(lp1917
I895
ag799
aa(lp1918
I896
ag821
aa(lp1919
I897
ag821
aa(lp1920
I898
ag799
aa(lp1921
I899
ag855
aaaa(lp1922
I901
aI903
aS'too'
p1923
a(lp1924
(lp1925
I901
ag821
aa(lp1926
I902
ag795
aa(lp1927
I903
ag795
aaaa(lp1928
I906
aI910
ag735
a(lp1929
(lp1930
I906
ag826
aa(lp1931
I907
ag799
aa(lp1932
I908
ag821
aa(lp1933
I910
ag836
aaaa(lp1934
I912
aI914
ag744
a(lp1935
(lp1936
I912
ag810
aa(lp1937
I913
ag799
aa(lp1938
I914
ag821
aaaa(lp1939
I916
aI923
ag753
a(lp1940
(lp1941
I916
ag816
aa(lp1942
I917
ag826
aa(lp1943
I918
ag795
aa(lp1944
I919
ag810
aa(lp1945
I920
ag810
aa(lp1946
I921
ag806
aa(lp1947
I922
ag808
aa(lp1948
I923
ag810
aaaa(lp1949
I925
aI927
aS'and'
p1950
a(lp1951
(lp1952
I925
ag802
aa(lp1953
I926
ag808
aa(lp1954
I927
ag890
aaaa(lp1955
I929
aI936
ag762
a(lp1956
(lp1957
I929
ag855
aa(lp1958
I930
ag799
aa(lp1959
I931
ag797
aa(lp1960
I932
ag799
aa(lp1961
I933
ag797
aa(lp1962
I934
ag816
aa(lp1963
I935
ag799
aa(lp1964
I936
ag855
aaaa(lp1965
I938
aI939
aS'to'
p1966
a(lp1967
(lp1968
I938
ag821
aa(lp1969
I939
ag795
aaaa(lp1970
I941
aI942
aS'be'
p1971
a(lp1972
(lp1973
I941
ag816
aa(lp1974
I942
ag799
aaaa(lp1975
I944
aI947
ag771
a(lp1976
(lp1977
I944
ag804
aa(lp1978
I945
ag806
aa(lp1979
I946
ag808
aa(lp1980
I947
ag890
aaaa(lp1981
I949
aI951
aS'and'
p1982
a(lp1983
(lp1984
I949
ag802
aa(lp1985
I950
ag808
aa(lp1986
I951
ag890
aaaa(lp1987
I953
aI959
ag780
a(lp1988
(lp1989
I953
ag793
aa(lp1990
I954
ag799
aa(lp1991
I955
ag826
aa(lp1992
I956
ag925
aa(lp1993
I957
ag852
aa(lp1994
I958
ag819
aa(lp1995
I959
ag826
aaaa(lp1996
I961
aI964
aS'when'
p1997
a(lp1998
(lp1999
I961
ag877
aa(lp2000
I962
ag793
aa(lp2001
I963
ag799
aa(lp2002
I964
ag808
aaaasS'cleanCharacterMap'
p2003
(lp2004
g792
ag794
ag796
ag798
ag800
ag801
ag803
ag805
ag807
ag809
a(lp2005
I10
aS' '
p2006
aag814
ag815
ag817
ag818
ag820
a(lp2007
I16
ag2006
aag824
ag825
ag827
ag828
a(lp2008
I21
ag2006
aag832
ag833
ag834
ag835
a(lp2009
I26
ag2006
aag839
ag840
ag841
ag842
a(lp2010
I31
ag2006
aag846
ag847
a(lp2011
I34
ag2006
aag851
ag853
ag854
a(lp2012
I38
ag2006
aag858
ag859
ag861
ag862
ag863
ag865
ag866
ag867
a(lp2013
I48
ag2006
aag871
ag872
a(lp2014
I51
ag2006
aag876
ag878
ag879
a(lp2015
I55
ag2006
aag882
ag884
ag885
ag886
ag887
ag888
ag889
a(lp2016
I63
ag2006
aag894
ag895
ag896
a(lp2017
I67
ag2006
aag900
ag901
ag902
a(lp2018
I71
ag2006
aag906
ag907
ag908
a(lp2019
I75
ag2006
aag912
ag913
a(lp2020
I79
ag2006
aag917
ag918
a(lp2021
I82
ag2006
aag921
ag922
ag923
ag924
a(lp2022
I87
ag2006
aag928
ag929
a(lp2023
I90
ag2006
aag932
ag933
ag934
ag935
ag936
ag937
a(lp2024
I97
ag2006
aag940
ag941
ag942
ag943
ag944
ag945
a(lp2025
I104
ag2006
aag948
ag949
ag950
ag951
ag952
ag953
ag954
ag955
ag956
ag957
a(lp2026
I116
ag2006
aag960
ag961
ag962
ag963
ag964
a(lp2027
I123
ag2006
aag968
ag969
ag970
a(lp2028
I127
ag2006
aag974
ag975
a(lp2029
I130
ag2006
aag978
ag979
ag980
ag981
ag982
ag983
ag984
ag985
a(lp2030
I142
ag2006
aag988
ag989
ag990
ag991
ag992
ag993
a(lp2031
I149
ag2006
aag996
a(lp2032
I151
ag2006
aag999
ag1000
ag1001
ag1002
a(lp2033
I158
ag2006
aag1006
ag1007
ag1008
a(lp2034
I162
ag2006
aag1011
ag1012
ag1013
ag1014
ag1015
ag1016
ag1017
ag1018
a(lp2035
I171
ag2006
aag1022
ag1023
a(lp2036
I174
ag2006
aag1026
ag1027
ag1028
a(lp2037
I179
ag2006
aag1031
ag1032
ag1033
ag1034
ag1035
a(lp2038
I186
ag2006
aag1039
ag1040
ag1041
ag1042
a(lp2039
I191
ag2006
aag1046
ag1047
a(lp2040
I194
ag2006
aag1050
ag1051
ag1052
ag1053
ag1054
ag1055
ag1056
a(lp2041
I202
ag2006
aag1060
ag1061
a(lp2042
I205
ag2006
aag1064
ag1065
ag1066
ag1067
ag1068
ag1069
ag1070
ag1071
ag1072
ag1073
ag1074
ag1075
ag1076
a(lp2043
I221
ag2006
aag1080
ag1081
ag1082
ag1083
a(lp2044
I226
ag2006
aag1086
ag1087
ag1088
ag1089
ag1090
ag1091
a(lp2045
I233
ag2006
aag1095
ag1096
ag1097
a(lp2046
I237
ag2006
aag1100
ag1101
ag1102
ag1103
a(lp2047
I242
ag2006
aag1106
ag1107
ag1108
ag1109
ag1110
ag1111
ag1112
ag1113
a(lp2048
I251
ag2006
aag1117
ag1118
a(lp2049
I255
ag2006
aag1121
ag1122
ag1123
ag1124
a(lp2050
I260
ag2006
aag1127
ag1128
ag1129
ag1130
ag1131
ag1132
ag1133
a(lp2051
I269
ag2006
aag1137
ag1138
ag1139
ag1140
ag1141
a(lp2052
I275
ag2006
aag1145
ag1146
ag1147
ag1148
a(lp2053
I280
ag2006
aag1151
ag1152
ag1153
ag1154
a(lp2054
I286
ag2006
aag1158
ag1159
ag1160
a(lp2055
I290
ag2006
aag1163
ag1164
ag1165
ag1166
a(lp2056
I295
ag2006
aag1170
ag1171
a(lp2057
I298
ag2006
aag1175
ag1176
ag1177
ag1178
a(lp2058
I303
ag2006
aag1181
ag1182
ag1183
ag1184
a(lp2059
I308
ag2006
aag1188
ag1189
a(lp2060
I311
ag2006
aag1193
ag1194
a(lp2061
I314
ag2006
aag1197
ag1198
ag1199
ag1200
ag1201
a(lp2062
I320
ag2006
aag1204
ag1205
ag1206
ag1207
ag1208
ag1209
a(lp2063
I328
ag2006
aag1212
ag1213
ag1214
ag1215
ag1216
a(lp2064
I335
ag2006
aag1219
ag1220
ag1221
a(lp2065
I339
ag2006
aag1224
ag1226
ag1227
ag1228
ag1229
ag1230
ag1231
ag1232
ag1233
a(lp2066
I350
ag2006
aag1236
ag1237
ag1238
a(lp2067
I355
ag2006
aag1242
ag1243
ag1244
ag1245
a(lp2068
I360
ag2006
aag1249
ag1250
ag1251
ag1252
a(lp2069
I365
ag2006
aag1255
ag1256
ag1257
ag1258
a(lp2070
I370
ag2006
aag1262
ag1263
ag1264
a(lp2071
I374
ag2006
aag1268
ag1269
ag1270
a(lp2072
I378
ag2006
aag1273
ag1274
ag1275
ag1276
ag1277
ag1278
a(lp2073
I385
ag2006
aag1281
ag1282
ag1283
ag1284
ag1285
ag1286
a(lp2074
I392
ag2006
aag1289
ag1290
ag1291
ag1292
ag1293
ag1294
a(lp2075
I399
ag2006
aag1297
ag1298
ag1299
ag1300
ag1301
ag1302
ag1303
ag1304
ag1305
ag1306
a(lp2076
I411
ag2006
aag1310
ag1311
a(lp2077
I414
ag2006
aag1314
ag1315
ag1316
ag1317
ag1318
ag1319
ag1320
a(lp2078
I422
ag2006
aag1324
ag1325
a(lp2079
I425
ag2006
aag1329
ag1330
a(lp2080
I428
ag2006
aag1334
ag1335
ag1336
ag1337
a(lp2081
I433
ag2006
aag1340
ag1341
ag1342
a(lp2082
I437
ag2006
aag1345
ag1346
ag1347
ag1348
ag1349
ag1350
a(lp2083
I444
ag2006
aag1353
ag1354
ag1355
ag1356
a(lp2084
I450
ag2006
aag1360
ag1361
ag1362
ag1363
a(lp2085
I455
ag2006
aag1367
ag1368
a(lp2086
I458
ag2006
aag1372
ag1373
a(lp2087
I461
ag2006
aag1376
ag1377
ag1378
ag1379
ag1380
ag1381
ag1382
ag1383
ag1384
ag1385
ag1386
a(lp2088
I473
ag2006
aag1390
ag1391
a(lp2089
I476
ag2006
aag1394
ag1395
ag1396
a(lp2090
I480
ag2006
aag1399
ag1400
ag1401
ag1402
ag1403
ag1404
a(lp2091
I487
ag2006
aag1408
ag1409
a(lp2092
I490
ag2006
aag1412
ag1413
ag1414
ag1415
ag1416
ag1417
ag1418
ag1419
ag1420
ag1421
ag1422
a(lp2093
I502
ag2006
aag1425
ag1426
ag1427
ag1428
ag1429
ag1430
ag1431
ag1432
ag1433
a(lp2094
I512
ag2006
aag1437
ag1438
ag1439
a(lp2095
I516
ag2006
aag1443
ag1444
ag1445
a(lp2096
I520
ag2006
aag1448
ag1449
ag1450
a(lp2097
I524
ag2006
aag1454
ag1455
ag1456
a(lp2098
I528
ag2006
aag1459
ag1460
ag1461
ag1462
ag1463
ag1464
a(lp2099
I535
ag2006
aag1467
ag1468
ag1469
ag1470
ag1471
ag1472
ag1473
a(lp2100
I543
ag2006
aag1476
ag1477
ag1478
ag1479
ag1480
ag1481
ag1482
a(lp2101
I551
ag2006
aag1485
ag1486
ag1487
ag1488
a(lp2102
I556
ag2006
aag1492
ag1493
ag1494
ag1495
a(lp2103
I561
ag2006
aag1499
ag1500
ag1501
ag1502
ag1503
ag1504
a(lp2104
I568
ag2006
aag1508
ag1509
ag1510
ag1511
a(lp2105
I573
ag2006
aag1514
ag1515
ag1516
ag1517
ag1518
ag1519
ag1520
a(lp2106
I581
ag2006
aag1523
ag1524
ag1525
ag1526
ag1527
a(lp2107
I587
ag2006
aag1531
ag1532
ag1533
ag1534
a(lp2108
I595
ag2006
aag1538
ag1539
ag1540
a(lp2109
I599
ag2006
aag1544
ag1545
a(lp2110
I602
ag2006
aag1548
ag1549
ag1550
ag1551
ag1552
a(lp2111
I608
ag2006
aa(lp2112
I610
ag2006
aag1556
ag1557
a(lp2113
I613
ag2006
aag1560
ag1561
ag1562
ag1563
ag1564
ag1565
ag1566
a(lp2114
I621
ag2006
aag1570
ag1571
ag1572
a(lp2115
I625
ag2006
aag1576
ag1577
ag1578
ag1579
a(lp2116
I630
ag2006
aag1582
ag1583
ag1584
ag1585
a(lp2117
I635
ag2006
aag1589
ag1590
ag1591
ag1592
a(lp2118
I640
ag2006
aag1595
ag1596
ag1597
ag1598
ag1599
a(lp2119
I646
ag2006
aag1603
ag1604
ag1605
ag1606
a(lp2120
I651
ag2006
aag1610
ag1611
ag1612
a(lp2121
I655
ag2006
aag1616
ag1617
ag1618
ag1619
a(lp2122
I660
ag2006
aag1622
ag1623
ag1624
ag1625
a(lp2123
I665
ag2006
aag1629
ag1630
a(lp2124
I668
ag2006
aag1633
ag1634
ag1635
ag1636
ag1637
a(lp2125
I674
ag2006
aag1640
ag1641
ag1642
ag1643
ag1644
a(lp2126
I680
ag2006
aag1648
ag1649
ag1650
ag1651
a(lp2127
I685
ag2006
aag1655
ag1656
ag1657
a(lp2128
I689
ag2006
aag1660
ag1661
ag1662
ag1663
ag1664
ag1665
ag1666
ag1667
a(lp2129
I699
ag2006
aag1670
ag1671
ag1672
ag1673
ag1674
a(lp2130
I706
ag2006
aag1677
ag1678
ag1679
ag1680
ag1681
ag1682
ag1683
ag1684
a(lp2131
I716
ag2006
aag1687
ag1688
ag1689
ag1690
ag1691
ag1692
a(lp2132
I723
ag2006
aag1696
ag1697
a(lp2133
I726
ag2006
aag1701
ag1702
ag1703
a(lp2134
I730
ag2006
aag1706
ag1707
ag1708
ag1709
ag1710
ag1711
a(lp2135
I737
ag2006
aag1715
ag1716
ag1717
a(lp2136
I741
ag2006
aag1720
ag1721
ag1722
ag1723
ag1724
ag1725
ag1726
ag1727
a(lp2137
I750
ag2006
aag1731
ag1732
a(lp2138
I753
ag2006
aag1735
ag1736
ag1737
a(lp2139
I757
ag2006
aag1741
ag1742
ag1743
ag1744
a(lp2140
I762
ag2006
aag1747
ag1748
ag1749
ag1750
ag1751
a(lp2141
I768
ag2006
aag1754
ag1755
ag1756
ag1757
ag1758
ag1759
ag1760
a(lp2142
I776
ag2006
aag1764
ag1765
ag1766
ag1767
ag1768
a(lp2143
I782
ag2006
aag1772
ag1773
ag1774
ag1775
a(lp2144
I787
ag2006
aag1779
ag1780
a(lp2145
I790
ag2006
aag1783
ag1784
ag1785
ag1786
a(lp2146
I795
ag2006
aag1790
ag1791
ag1792
ag1793
a(lp2147
I800
ag2006
aag1797
ag1798
ag1799
ag1800
a(lp2148
I805
ag2006
aag1803
ag1804
ag1805
ag1806
a(lp2149
I811
ag2006
aag1810
ag1811
ag1812
a(lp2150
I815
ag2006
aag1816
ag1817
ag1818
a(lp2151
I819
ag2006
aag1821
ag1822
ag1823
ag1824
ag1825
ag1826
ag1827
a(lp2152
I827
ag2006
aag1831
ag1832
a(lp2153
I830
ag2006
aag1835
ag1836
ag1837
a(lp2154
I834
ag2006
aag1841
ag1842
ag1843
ag1844
a(lp2155
I839
ag2006
aag1848
ag1849
ag1850
a(lp2156
I843
ag2006
aag1853
ag1854
ag1855
ag1856
ag1857
ag1858
ag1859
ag1860
a(lp2157
I852
ag2006
aag1863
ag1864
ag1865
ag1866
a(lp2158
I857
ag2006
aag1869
ag1870
ag1871
ag1872
a(lp2159
I863
ag2006
aag1876
ag1877
a(lp2160
I866
ag2006
aag1880
ag1881
ag1882
ag1883
ag1884
ag1885
a(lp2161
I873
ag2006
aag1889
ag1890
ag1891
a(lp2162
I877
ag2006
aag1894
ag1895
ag1896
a(lp2163
I881
ag2006
aag1900
ag1901
a(lp2164
I884
ag2006
aag1904
ag1905
ag1906
ag1907
a(lp2165
I889
ag2006
aag1911
ag1912
ag1913
a(lp2166
I893
ag2006
aag1916
ag1917
ag1918
ag1919
ag1920
ag1921
a(lp2167
I900
ag2006
aag1925
ag1926
ag1927
a(lp2168
I905
ag2006
aag1930
ag1931
ag1932
ag1933
a(lp2169
I911
ag2006
aag1936
ag1937
ag1938
a(lp2170
I915
ag2006
aag1941
ag1942
ag1943
ag1944
ag1945
ag1946
ag1947
ag1948
a(lp2171
I924
ag2006
aag1952
ag1953
ag1954
a(lp2172
I928
ag2006
aag1957
ag1958
ag1959
ag1960
ag1961
ag1962
ag1963
ag1964
a(lp2173
I937
ag2006
aag1968
ag1969
a(lp2174
I940
ag2006
aag1973
ag1974
a(lp2175
I943
ag2006
aag1977
ag1978
ag1979
ag1980
a(lp2176
I948
ag2006
aag1984
ag1985
ag1986
a(lp2177
I952
ag2006
aag1989
ag1990
ag1991
ag1992
ag1993
ag1994
ag1995
a(lp2178
I960
ag2006
aag1999
ag2000
ag2001
ag2002
a(lp2179
I965
ag2006
aa(lp2180
I966
ag925
aa(lp2181
I967
ag795
aa(lp2182
I968
ag836
aa(lp2183
I969
ag821
aa(lp2184
I970
ag806
aa(lp2185
I971
ag808
aa(lp2186
I972
ag810
aa(lp2187
I974
ag883
aa(lp2188
I975
ag795
aa(lp2189
I976
ag797
aa(lp2190
I977
ag797
aa(lp2191
I978
ag799
aa(lp2192
I979
ag808
aa(lp2193
I980
ag821
aa(lp2194
I981
ag806
aa(lp2195
I982
ag808
aa(lp2196
I983
ag810
aasS'text'
p2197
S'homemaking about blog this blog is for everyone! it was created for you and me, to help us become better homemakers! here\'s how it works...you create a "post" for everyone to see. (posts will be deleted if inappropriate!) then people can make comments (or give answers) about that post. the idea of this blog is to offer advice, ideas, ask questions, etc. that will help you and others become better homemakers. by setting it up this way people don\'t have to be embarrassed to ask simple or complicated questions and can ask for advice without feeling like they should have already known "that." how to login - an account has been made with gmail that you will need to enter along with the password. email: password: please do not change the settings or use this email account other than to sign into this blog! you are welcome to add your own personal blog /link so others can get to know you better too! let\'s get blogging and remember to be kind and helpful when posting/commenting.'
p2198
sS'cleanWordMap'
p2199
(lp2200
g790
ag822
ag837
ag856
ag880
ag919
ag926
ag930
ag938
ag946
ag958
ag976
ag986
ag997
ag1009
ag1024
ag1029
ag1048
ag1062
ag1084
ag1098
ag1104
ag1119
ag1125
ag1149
ag1161
ag1179
ag1195
ag1202
ag1210
ag1217
ag1222
ag1234
ag1253
ag1271
ag1279
ag1287
ag1295
ag1312
ag1338
ag1343
ag1351
ag1374
ag1392
ag1397
ag1410
ag1423
ag1446
ag1457
ag1465
ag1474
ag1483
ag1512
ag1521
ag1546
ag1558
ag1580
ag1593
ag1620
ag1631
ag1638
ag1658
ag1668
ag1675
ag1685
ag1704
ag1718
ag1733
ag1745
ag1752
ag1781
ag1801
ag1819
ag1833
ag1851
ag1861
ag1867
ag1878
ag1892
ag1902
ag1914
ag1928
ag1934
ag1939
ag1955
ag1975
ag1987
asS'lines'
p2201
(lp2202
VHomemaking\u000a
p2203
aVAbout Blog\u000a
p2204
aVThis Blog is for EVERYONE! It was created for You and Me, to help us become better Homemakers! Here's how it works...you create a "post" for everyone to see. (Posts will be deleted if inappropriate!) Then people can make comments (or give answers) about that post. The idea of this blog is to offer advice, ideas, ask questions, etc. that will help you and others become better homemakers. By setting it up this way people don't have to be embarrassed to ask simple or complicated questions and can ask for advice without feeling like they should have already known "that." How to login - An account has been made with GMail that you will need to enter along with the password. Email: Password: Please do not change the settings or use this email account other than to sign into this blog! You are welcome to add your own personal blog /link so others can get to know you better too! Let's get Blogging and remember to be kind and helpful when Posting/Commenting.
p2205
asS'docType'
p2206
S'src'
p2207
sS'newfmap'
p2208
(lp2209
g4
ag8
ag10
ag12
ag14
ag23
ag26
ag32
ag35
ag37
ag39
ag41
ag44
ag46
ag48
ag50
ag53
ag55
ag57
ag59
ag62
ag64
ag66
ag68
ag71
ag73
ag75
ag77
ag80
ag82
ag84
ag86
ag89
ag91
ag93
ag95
ag98
ag100
ag102
ag104
ag107
ag109
ag111
ag113
ag116
ag118
ag120
ag122
ag125
ag127
ag129
ag131
ag134
ag136
ag138
ag140
ag143
ag145
ag147
ag149
ag152
ag154
ag156
ag158
ag161
ag163
ag165
ag167
ag170
ag172
ag174
ag176
ag179
ag181
ag183
ag185
ag188
ag190
ag192
ag194
ag197
ag199
ag201
ag203
ag206
ag208
ag210
ag212
ag215
ag217
ag219
ag221
ag224
ag226
ag228
ag230
ag233
ag235
ag237
ag239
ag242
ag244
ag246
ag248
ag251
ag253
ag255
ag257
ag260
ag262
ag264
ag266
ag269
ag271
ag273
ag275
ag278
ag280
ag282
ag284
ag287
ag289
ag291
ag293
ag296
ag298
ag300
ag302
ag305
ag307
ag309
ag311
ag314
ag316
ag318
ag320
ag323
ag325
ag327
ag329
ag332
ag334
ag336
ag338
ag341
ag343
ag345
ag347
ag350
ag352
ag354
ag356
ag359
ag361
ag363
ag365
ag368
ag370
ag372
ag374
ag377
ag379
ag381
ag383
ag386
ag388
ag390
ag392
ag395
ag397
ag399
ag401
ag404
ag406
ag408
ag410
ag413
ag415
ag417
ag419
ag422
ag424
ag426
ag428
ag431
ag433
ag435
ag437
ag440
ag442
ag444
ag446
ag449
ag451
ag453
ag455
ag458
ag460
ag462
ag464
ag467
ag469
ag471
ag473
ag476
ag478
ag480
ag482
ag485
ag487
ag489
ag491
ag494
ag496
ag498
ag500
ag503
ag505
ag507
ag509
ag512
ag514
ag516
ag518
ag521
ag523
ag525
ag527
ag530
ag532
ag534
ag536
ag539
ag541
ag543
ag545
ag548
ag550
ag552
ag554
ag557
ag559
ag561
ag563
ag566
ag568
ag570
ag572
ag575
ag577
ag579
ag581
ag584
ag586
ag588
ag590
ag593
ag595
ag597
ag599
ag602
ag604
ag606
ag608
ag611
ag613
ag615
ag617
ag620
ag622
ag624
ag626
ag629
ag631
ag633
ag635
ag638
ag640
ag642
ag644
ag647
ag649
ag651
ag653
ag656
ag658
ag660
ag662
ag665
ag667
ag669
ag671
ag674
ag676
ag678
ag680
ag683
ag685
ag687
ag689
ag692
ag694
ag696
ag698
ag701
ag703
ag705
ag707
ag710
ag712
ag714
ag716
ag719
ag721
ag723
ag725
ag728
ag730
ag732
ag734
ag737
ag739
ag741
ag743
ag746
ag748
ag750
ag752
ag755
ag757
ag759
ag761
ag764
ag766
ag768
ag770
ag773
ag775
ag777
ag779
ag782
ag784
ag786
asS'featureMap'
p2210
(lp2211
(lp2212
I0
aI9
ag5
ag6
ag9
ag11
ag13
aa(lp2213
I17
aI20
ag15
ag16
ag18
ag20
ag22
aa(lp2214
I27
aI30
ag24
ag25
ag27
ag29
ag31
aa(lp2215
I39
aI46
ag33
ag34
ag36
ag38
ag40
aa(lp2216
I56
aI62
ag42
ag43
ag45
ag47
ag49
aa(lp2217
I83
aI86
ag51
ag52
ag54
ag56
ag58
aa(lp2218
I88
aI89
ag60
ag61
ag63
ag65
ag67
aa(lp2219
I91
aI96
ag69
ag70
ag72
ag74
ag76
aa(lp2220
I98
aI103
ag78
ag79
ag81
ag83
ag85
aa(lp2221
I105
aI114
ag87
ag88
ag90
ag92
ag94
aa(lp2222
I117
aI122
ag96
ag97
ag99
ag101
ag103
aa(lp2223
I131
aI141
ag105
ag106
ag108
ag110
ag112
aa(lp2224
I143
aI148
ag114
ag115
ag117
ag119
ag121
aa(lp2225
I153
aI156
ag123
ag124
ag126
ag128
ag130
aa(lp2226
I163
aI170
ag132
ag133
ag135
ag137
ag139
aa(lp2227
I175
aI177
ag141
ag142
ag144
ag146
ag148
aa(lp2228
I181
aI185
ag150
ag151
ag153
ag155
ag157
aa(lp2229
I195
aI201
ag159
ag160
ag162
ag164
ag166
aa(lp2230
I206
aI218
ag168
ag169
ag171
ag173
ag175
aa(lp2231
I227
aI232
ag177
ag178
ag180
ag182
ag184
aa(lp2232
I238
aI241
ag186
ag187
ag189
ag191
ag193
aa(lp2233
I243
aI250
ag195
ag196
ag198
ag200
ag202
aa(lp2234
I256
aI259
ag204
ag205
ag207
ag209
ag211
aa(lp2235
I261
aI267
ag213
ag214
ag216
ag218
ag220
aa(lp2236
I281
aI284
ag222
ag223
ag225
ag227
ag229
aa(lp2237
I291
aI294
ag231
ag232
ag234
ag236
ag238
aa(lp2238
I304
aI307
ag240
ag241
ag243
ag245
ag247
aa(lp2239
I315
aI319
ag249
ag250
ag252
ag254
ag256
aa(lp2240
I321
aI326
ag258
ag259
ag261
ag263
ag265
aa(lp2241
I329
aI333
ag267
ag268
ag270
ag272
ag274
aa(lp2242
I336
aI338
ag276
ag277
ag279
ag281
ag283
aa(lp2243
I340
aI348
ag285
ag286
ag288
ag290
ag292
aa(lp2244
I351
aI353
ag294
ag295
ag297
ag299
ag301
aa(lp2245
I366
aI369
ag303
ag304
ag306
ag308
ag310
aa(lp2246
I379
aI384
ag312
ag313
ag315
ag317
ag319
aa(lp2247
I386
aI391
ag321
ag322
ag324
ag326
ag328
aa(lp2248
I393
aI398
ag330
ag331
ag333
ag335
ag337
aa(lp2249
I400
aI409
ag339
ag340
ag342
ag344
ag346
aa(lp2250
I415
aI421
ag348
ag349
ag351
ag353
ag355
aa(lp2251
I434
aI436
ag357
ag358
ag360
ag362
ag364
aa(lp2252
I438
aI443
ag366
ag367
ag369
ag371
ag373
aa(lp2253
I445
aI449
ag375
ag376
ag378
ag380
ag382
aa(lp2254
I462
aI472
ag384
ag385
ag387
ag389
ag391
aa(lp2255
I477
aI479
ag393
ag394
ag396
ag398
ag400
aa(lp2256
I481
aI486
ag402
ag403
ag405
ag407
ag409
aa(lp2257
I491
aI501
ag411
ag412
ag414
ag416
ag418
aa(lp2258
I503
aI511
ag420
ag421
ag423
ag425
ag427
aa(lp2259
I521
aI523
ag429
ag430
ag432
ag434
ag436
aa(lp2260
I529
aI534
ag438
ag439
ag441
ag443
ag445
aa(lp2261
I536
aI542
ag447
ag448
ag450
ag452
ag454
aa(lp2262
I544
aI550
ag456
ag457
ag459
ag461
ag463
aa(lp2263
I552
aI555
ag465
ag466
ag468
ag470
ag472
aa(lp2264
I574
aI580
ag474
ag475
ag477
ag479
ag481
aa(lp2265
I582
aI586
ag483
ag484
ag486
ag488
ag490
aa(lp2266
I603
aI607
ag492
ag493
ag495
ag497
ag499
aa(lp2267
I614
aI620
ag501
ag502
ag504
ag506
ag508
aa(lp2268
I631
aI634
ag510
ag511
ag513
ag515
ag517
aa(lp2269
I641
aI645
ag519
ag520
ag522
ag524
ag526
aa(lp2270
I661
aI664
ag528
ag529
ag531
ag533
ag535
aa(lp2271
I669
aI673
ag537
ag538
ag540
ag542
ag544
aa(lp2272
I675
aI679
ag546
ag547
ag549
ag551
ag553
aa(lp2273
I690
aI697
ag555
ag556
ag558
ag560
ag562
aa(lp2274
I700
aI704
ag564
ag565
ag567
ag569
ag571
aa(lp2275
I707
aI714
ag573
ag574
ag576
ag578
ag580
aa(lp2276
I717
aI722
ag582
ag583
ag585
ag587
ag589
aa(lp2277
I731
aI736
ag591
ag592
ag594
ag596
ag598
aa(lp2278
I742
aI749
ag600
ag601
ag603
ag605
ag607
aa(lp2279
I754
aI756
ag609
ag610
ag612
ag614
ag616
aa(lp2280
I763
aI767
ag618
ag619
ag621
ag623
ag625
aa(lp2281
I769
aI775
ag627
ag628
ag630
ag632
ag634
aa(lp2282
I791
aI794
ag636
ag637
ag639
ag641
ag643
aa(lp2283
I806
aI809
ag645
ag646
ag648
ag650
ag652
aa(lp2284
I820
aI826
ag654
ag655
ag657
ag659
ag661
aa(lp2285
I831
aI833
ag663
ag664
ag666
ag668
ag670
aa(lp2286
I844
aI851
ag672
ag673
ag675
ag677
ag679
aa(lp2287
I853
aI856
ag681
ag682
ag684
ag686
ag688
aa(lp2288
I859
aI862
ag690
ag691
ag693
ag695
ag697
aa(lp2289
I867
aI872
ag699
ag700
ag702
ag704
ag706
aa(lp2290
I878
aI880
ag708
ag709
ag711
ag713
ag715
aa(lp2291
I885
aI888
ag717
ag718
ag720
ag722
ag724
aa(lp2292
I894
aI899
ag726
ag727
ag729
ag731
ag733
aa(lp2293
I906
aI910
ag735
ag736
ag738
ag740
ag742
aa(lp2294
I912
aI914
ag744
ag745
ag747
ag749
ag751
aa(lp2295
I916
aI923
ag753
ag754
ag756
ag758
ag760
aa(lp2296
I929
aI936
ag762
ag763
ag765
ag767
ag769
aa(lp2297
I944
aI947
ag771
ag772
ag774
ag776
ag778
aa(lp2298
I953
aI959
ag780
ag781
ag783
ag785
ag787
aasS'characterMap'
p2299
(lp2300
g792
ag794
ag796
ag798
ag800
ag801
ag803
ag805
ag807
ag809
ag2005
ag814
ag815
ag817
ag818
ag820
ag2007
ag824
ag825
ag827
ag828
ag2008
ag832
ag833
ag834
ag835
ag2009
ag839
ag840
ag841
ag842
ag2010
ag846
ag847
ag2011
ag851
ag853
ag854
ag2012
ag858
ag859
ag861
ag862
ag863
ag865
ag866
ag867
a(lp2301
I47
aS'!'
p2302
aag2013
ag871
ag872
ag2014
ag876
ag878
ag879
ag2015
ag882
ag884
ag885
ag886
ag887
ag888
ag889
ag2016
ag894
ag895
ag896
ag2017
ag900
ag901
ag902
ag2018
ag906
ag907
ag908
ag2019
ag912
ag913
a(lp2303
I78
aS','
p2304
aag2020
ag917
ag918
ag2021
ag921
ag922
ag923
ag924
ag2022
ag928
ag929
ag2023
ag932
ag933
ag934
ag935
ag936
ag937
ag2024
ag940
ag941
ag942
ag943
ag944
ag945
ag2025
ag948
ag949
ag950
ag951
ag952
ag953
ag954
ag955
ag956
ag957
a(lp2305
I115
ag2302
aag2026
ag960
ag961
ag962
ag963
a(lp2306
I121
aS"'"
p2307
aag964
ag2027
ag968
ag969
ag970
ag2028
ag974
ag975
ag2029
ag978
ag979
ag980
ag981
ag982
a(lp2308
I136
aS'.'
p2309
aa(lp2310
I137
ag2309
aa(lp2311
I138
ag2309
aag983
ag984
ag985
ag2030
ag988
ag989
ag990
ag991
ag992
ag993
ag2031
ag996
ag2032
a(lp2312
I152
aS'"'
p2313
aag999
ag1000
ag1001
ag1002
a(lp2314
I157
ag2313
aag2033
ag1006
ag1007
ag1008
ag2034
ag1011
ag1012
ag1013
ag1014
ag1015
ag1016
ag1017
ag1018
ag2035
ag1022
ag1023
ag2036
ag1026
ag1027
ag1028
a(lp2315
I178
ag2309
aag2037
a(lp2316
I180
aS'('
p2317
aag1031
ag1032
ag1033
ag1034
ag1035
ag2038
ag1039
ag1040
ag1041
ag1042
ag2039
ag1046
ag1047
ag2040
ag1050
ag1051
ag1052
ag1053
ag1054
ag1055
ag1056
ag2041
ag1060
ag1061
ag2042
ag1064
ag1065
ag1066
ag1067
ag1068
ag1069
ag1070
ag1071
ag1072
ag1073
ag1074
ag1075
ag1076
a(lp2318
I219
ag2302
aa(lp2319
I220
aS')'
p2320
aag2043
ag1080
ag1081
ag1082
ag1083
ag2044
ag1086
ag1087
ag1088
ag1089
ag1090
ag1091
ag2045
ag1095
ag1096
ag1097
ag2046
ag1100
ag1101
ag1102
ag1103
ag2047
ag1106
ag1107
ag1108
ag1109
ag1110
ag1111
ag1112
ag1113
ag2048
a(lp2321
I252
ag2317
aag1117
ag1118
ag2049
ag1121
ag1122
ag1123
ag1124
ag2050
ag1127
ag1128
ag1129
ag1130
ag1131
ag1132
ag1133
a(lp2322
I268
ag2320
aag2051
ag1137
ag1138
ag1139
ag1140
ag1141
ag2052
ag1145
ag1146
ag1147
ag1148
ag2053
ag1151
ag1152
ag1153
ag1154
a(lp2323
I285
ag2309
aag2054
ag1158
ag1159
ag1160
ag2055
ag1163
ag1164
ag1165
ag1166
ag2056
ag1170
ag1171
ag2057
ag1175
ag1176
ag1177
ag1178
ag2058
ag1181
ag1182
ag1183
ag1184
ag2059
ag1188
ag1189
ag2060
ag1193
ag1194
ag2061
ag1197
ag1198
ag1199
ag1200
ag1201
ag2062
ag1204
ag1205
ag1206
ag1207
ag1208
ag1209
a(lp2324
I327
ag2304
aag2063
ag1212
ag1213
ag1214
ag1215
ag1216
a(lp2325
I334
ag2304
aag2064
ag1219
ag1220
ag1221
ag2065
ag1224
ag1226
ag1227
ag1228
ag1229
ag1230
ag1231
ag1232
ag1233
a(lp2326
I349
ag2304
aag2066
ag1236
ag1237
ag1238
a(lp2327
I354
ag2309
aag2067
ag1242
ag1243
ag1244
ag1245
ag2068
ag1249
ag1250
ag1251
ag1252
ag2069
ag1255
ag1256
ag1257
ag1258
ag2070
ag1262
ag1263
ag1264
ag2071
ag1268
ag1269
ag1270
ag2072
ag1273
ag1274
ag1275
ag1276
ag1277
ag1278
ag2073
ag1281
ag1282
ag1283
ag1284
ag1285
ag1286
ag2074
ag1289
ag1290
ag1291
ag1292
ag1293
ag1294
ag2075
ag1297
ag1298
ag1299
ag1300
ag1301
ag1302
ag1303
ag1304
ag1305
ag1306
a(lp2328
I410
ag2309
aag2076
ag1310
ag1311
ag2077
ag1314
ag1315
ag1316
ag1317
ag1318
ag1319
ag1320
ag2078
ag1324
ag1325
ag2079
ag1329
ag1330
ag2080
ag1334
ag1335
ag1336
ag1337
ag2081
ag1340
ag1341
ag1342
ag2082
ag1345
ag1346
ag1347
ag1348
ag1349
ag1350
ag2083
ag1353
ag1354
ag1355
a(lp2329
I448
ag2307
aag1356
ag2084
ag1360
ag1361
ag1362
ag1363
ag2085
ag1367
ag1368
ag2086
ag1372
ag1373
ag2087
ag1376
ag1377
ag1378
ag1379
ag1380
ag1381
ag1382
ag1383
ag1384
ag1385
ag1386
ag2088
ag1390
ag1391
ag2089
ag1394
ag1395
ag1396
ag2090
ag1399
ag1400
ag1401
ag1402
ag1403
ag1404
ag2091
ag1408
ag1409
ag2092
ag1412
ag1413
ag1414
ag1415
ag1416
ag1417
ag1418
ag1419
ag1420
ag1421
ag1422
ag2093
ag1425
ag1426
ag1427
ag1428
ag1429
ag1430
ag1431
ag1432
ag1433
ag2094
ag1437
ag1438
ag1439
ag2095
ag1443
ag1444
ag1445
ag2096
ag1448
ag1449
ag1450
ag2097
ag1454
ag1455
ag1456
ag2098
ag1459
ag1460
ag1461
ag1462
ag1463
ag1464
ag2099
ag1467
ag1468
ag1469
ag1470
ag1471
ag1472
ag1473
ag2100
ag1476
ag1477
ag1478
ag1479
ag1480
ag1481
ag1482
ag2101
ag1485
ag1486
ag1487
ag1488
ag2102
ag1492
ag1493
ag1494
ag1495
ag2103
ag1499
ag1500
ag1501
ag1502
ag1503
ag1504
ag2104
ag1508
ag1509
ag1510
ag1511
ag2105
ag1514
ag1515
ag1516
ag1517
ag1518
ag1519
ag1520
ag2106
ag1523
ag1524
ag1525
ag1526
ag1527
ag2107
a(lp2330
I588
ag2313
aag1531
ag1532
ag1533
ag1534
a(lp2331
I593
ag2309
aa(lp2332
I594
ag2313
aag2108
ag1538
ag1539
ag1540
ag2109
ag1544
ag1545
ag2110
ag1548
ag1549
ag1550
ag1551
ag1552
ag2111
a(lp2333
I609
aS'-'
p2334
aag2112
ag1556
ag1557
ag2113
ag1560
ag1561
ag1562
ag1563
ag1564
ag1565
ag1566
ag2114
ag1570
ag1571
ag1572
ag2115
ag1576
ag1577
ag1578
ag1579
ag2116
ag1582
ag1583
ag1584
ag1585
ag2117
ag1589
ag1590
ag1591
ag1592
ag2118
ag1595
ag1596
ag1597
ag1598
ag1599
ag2119
ag1603
ag1604
ag1605
ag1606
ag2120
ag1610
ag1611
ag1612
ag2121
ag1616
ag1617
ag1618
ag1619
ag2122
ag1622
ag1623
ag1624
ag1625
ag2123
ag1629
ag1630
ag2124
ag1633
ag1634
ag1635
ag1636
ag1637
ag2125
ag1640
ag1641
ag1642
ag1643
ag1644
ag2126
ag1648
ag1649
ag1650
ag1651
ag2127
ag1655
ag1656
ag1657
ag2128
ag1660
ag1661
ag1662
ag1663
ag1664
ag1665
ag1666
ag1667
a(lp2335
I698
ag2309
aag2129
ag1670
ag1671
ag1672
ag1673
ag1674
a(lp2336
I705
aS':'
p2337
aag2130
ag1677
ag1678
ag1679
ag1680
ag1681
ag1682
ag1683
ag1684
a(lp2338
I715
ag2337
aag2131
ag1687
ag1688
ag1689
ag1690
ag1691
ag1692
ag2132
ag1696
ag1697
ag2133
ag1701
ag1702
ag1703
ag2134
ag1706
ag1707
ag1708
ag1709
ag1710
ag1711
ag2135
ag1715
ag1716
ag1717
ag2136
ag1720
ag1721
ag1722
ag1723
ag1724
ag1725
ag1726
ag1727
ag2137
ag1731
ag1732
ag2138
ag1735
ag1736
ag1737
ag2139
ag1741
ag1742
ag1743
ag1744
ag2140
ag1747
ag1748
ag1749
ag1750
ag1751
ag2141
ag1754
ag1755
ag1756
ag1757
ag1758
ag1759
ag1760
ag2142
ag1764
ag1765
ag1766
ag1767
ag1768
ag2143
ag1772
ag1773
ag1774
ag1775
ag2144
ag1779
ag1780
ag2145
ag1783
ag1784
ag1785
ag1786
ag2146
ag1790
ag1791
ag1792
ag1793
ag2147
ag1797
ag1798
ag1799
ag1800
ag2148
ag1803
ag1804
ag1805
ag1806
a(lp2339
I810
ag2302
aag2149
ag1810
ag1811
ag1812
ag2150
ag1816
ag1817
ag1818
ag2151
ag1821
ag1822
ag1823
ag1824
ag1825
ag1826
ag1827
ag2152
ag1831
ag1832
ag2153
ag1835
ag1836
ag1837
ag2154
ag1841
ag1842
ag1843
ag1844
ag2155
ag1848
ag1849
ag1850
ag2156
ag1853
ag1854
ag1855
ag1856
ag1857
ag1858
ag1859
ag1860
ag2157
ag1863
ag1864
ag1865
ag1866
ag2158
a(lp2340
I858
aS'/'
p2341
aag1869
ag1870
ag1871
ag1872
ag2159
ag1876
ag1877
ag2160
ag1880
ag1881
ag1882
ag1883
ag1884
ag1885
ag2161
ag1889
ag1890
ag1891
ag2162
ag1894
ag1895
ag1896
ag2163
ag1900
ag1901
ag2164
ag1904
ag1905
ag1906
ag1907
ag2165
ag1911
ag1912
ag1913
ag2166
ag1916
ag1917
ag1918
ag1919
ag1920
ag1921
ag2167
ag1925
ag1926
ag1927
a(lp2342
I904
ag2302
aag2168
ag1930
ag1931
ag1932
a(lp2343
I909
ag2307
aag1933
ag2169
ag1936
ag1937
ag1938
ag2170
ag1941
ag1942
ag1943
ag1944
ag1945
ag1946
ag1947
ag1948
ag2171
ag1952
ag1953
ag1954
ag2172
ag1957
ag1958
ag1959
ag1960
ag1961
ag1962
ag1963
ag1964
ag2173
ag1968
ag1969
ag2174
ag1973
ag1974
ag2175
ag1977
ag1978
ag1979
ag1980
ag2176
ag1984
ag1985
ag1986
ag2177
ag1989
ag1990
ag1991
ag1992
ag1993
ag1994
ag1995
ag2178
ag1999
ag2000
ag2001
ag2002
ag2179
ag2180
ag2181
ag2182
ag2183
ag2184
ag2185
ag2186
a(lp2344
I973
ag2341
aag2187
ag2188
ag2189
ag2190
ag2191
ag2192
ag2193
ag2194
ag2195
ag2196
a(lp2345
I984
ag2309
aasS'docName'
p2346
S'source-document01212.txt'
p2347
sb.