(iModel.Document
Document
p0
(dp1
S'fmap'
p2
(lp3
(lp4
I1
aI8
aS'trombone'
p5
a(lp6
S'*'
p7
ag5
aaa(lp8
I1
aI8
ag5
a(lp9
g7
ag5
aaa(lp10
I1
aI8
ag5
a(lp11
g7
ag5
aaa(lp12
I1
aI8
ag5
a(lp13
g7
ag5
aaa(lp14
I10
aI13
aS'tips'
p15
a(lp16
g5
ag15
aaa(lp17
I10
aI13
ag15
a(lp18
g7
ag15
aaa(lp19
I10
aI13
ag15
a(lp20
g7
ag15
aaa(lp21
I10
aI13
ag15
a(lp22
g7
ag15
aaa(lp23
I17
aI21
aS'learn'
p24
a(lp25
g15
ag24
aaa(lp26
I17
aI21
ag24
a(lp27
g5
ag24
aaa(lp28
I17
aI21
ag24
a(lp29
g7
ag24
aaa(lp30
I17
aI21
ag24
a(lp31
g7
ag24
aaa(lp32
I26
aI33
aS'practice'
p33
a(lp34
g24
ag33
aaa(lp35
I26
aI33
ag33
a(lp36
g15
ag33
aaa(lp37
I26
aI33
ag33
a(lp38
g5
ag33
aaa(lp39
I26
aI33
ag33
a(lp40
g7
ag33
aaa(lp41
I35
aI37
aS'\xe2\x80\x93'
p42
a(lp43
g33
ag42
aaa(lp44
I35
aI37
ag42
a(lp45
g24
ag42
aaa(lp46
I35
aI37
ag42
a(lp47
g15
ag42
aaa(lp48
I35
aI37
ag42
a(lp49
g5
ag42
aaa(lp50
I39
aI42
aS'step'
p51
a(lp52
g42
ag51
aaa(lp53
I39
aI42
ag51
a(lp54
g33
ag51
aaa(lp55
I39
aI42
ag51
a(lp56
g24
ag51
aaa(lp57
I39
aI42
ag51
a(lp58
g15
ag51
aaa(lp59
I44
aI44
aS'1'
p60
a(lp61
g51
ag60
aaa(lp62
I44
aI44
ag60
a(lp63
g42
ag60
aaa(lp64
I44
aI44
ag60
a(lp65
g33
ag60
aaa(lp66
I44
aI44
ag60
a(lp67
g24
ag60
aaa(lp68
I47
aI49
aS'say'
p69
a(lp70
g60
ag69
aaa(lp71
I47
aI49
ag69
a(lp72
g51
ag69
aaa(lp73
I47
aI49
ag69
a(lp74
g42
ag69
aaa(lp75
I47
aI49
ag69
a(lp76
g33
ag69
aaa(lp77
I54
aI59
aS'rhythm'
p78
a(lp79
g69
ag78
aaa(lp80
I54
aI59
ag78
a(lp81
g60
ag78
aaa(lp82
I54
aI59
ag78
a(lp83
g51
ag78
aaa(lp84
I54
aI59
ag78
a(lp85
g42
ag78
aaa(lp86
I62
aI65
aS'stay'
p87
a(lp88
g78
ag87
aaa(lp89
I62
aI65
ag87
a(lp90
g69
ag87
aaa(lp91
I62
aI65
ag87
a(lp92
g60
ag87
aaa(lp93
I62
aI65
ag87
a(lp94
g51
ag87
aaa(lp95
I70
aI75
aS'rhythm'
p96
a(lp97
g87
ag96
aaa(lp98
I70
aI75
ag96
a(lp99
g78
ag96
aaa(lp100
I70
aI75
ag96
a(lp101
g69
ag96
aaa(lp102
I70
aI75
ag96
a(lp103
g60
ag96
aaa(lp104
I87
aI91
aS'first'
p105
a(lp106
g96
ag105
aaa(lp107
I87
aI91
ag105
a(lp108
g87
ag105
aaa(lp109
I87
aI91
ag105
a(lp110
g78
ag105
aaa(lp111
I87
aI91
ag105
a(lp112
g69
ag105
aaa(lp113
I93
aI100
aS'practice'
p114
a(lp115
g105
ag114
aaa(lp116
I93
aI100
ag114
a(lp117
g96
ag114
aaa(lp118
I93
aI100
ag114
a(lp119
g87
ag114
aaa(lp120
I93
aI100
ag114
a(lp121
g78
ag114
aaa(lp122
I107
aI111
aS'music'
p123
a(lp124
g114
ag123
aaa(lp125
I107
aI111
ag123
a(lp126
g105
ag123
aaa(lp127
I107
aI111
ag123
a(lp128
g96
ag123
aaa(lp129
I107
aI111
ag123
a(lp130
g87
ag123
aaa(lp131
I118
aI121
aS'need'
p132
a(lp133
g123
ag132
aaa(lp134
I118
aI121
ag132
a(lp135
g114
ag132
aaa(lp136
I118
aI121
ag132
a(lp137
g105
ag132
aaa(lp138
I118
aI121
ag132
a(lp139
g96
ag132
aaa(lp140
I126
aI129
aS'know'
p141
a(lp142
g132
ag141
aaa(lp143
I126
aI129
ag141
a(lp144
g123
ag141
aaa(lp145
I126
aI129
ag141
a(lp146
g114
ag141
aaa(lp147
I126
aI129
ag141
a(lp148
g105
ag141
aaa(lp149
I139
aI144
aS'rhythm'
p150
a(lp151
g141
ag150
aaa(lp152
I139
aI144
ag150
a(lp153
g132
ag150
aaa(lp154
I139
aI144
ag150
a(lp155
g123
ag150
aaa(lp156
I139
aI144
ag150
a(lp157
g114
ag150
aaa(lp158
I146
aI151
aS'sounds'
p159
a(lp160
g150
ag159
aaa(lp161
I146
aI151
ag159
a(lp162
g141
ag159
aaa(lp163
I146
aI151
ag159
a(lp164
g132
ag159
aaa(lp165
I146
aI151
ag159
a(lp166
g123
ag159
aaa(lp167
I167
aI174
aS'anything'
p168
a(lp169
g159
ag168
aaa(lp170
I167
aI174
ag168
a(lp171
g150
ag168
aaa(lp172
I167
aI174
ag168
a(lp173
g141
ag168
aaa(lp174
I167
aI174
ag168
a(lp175
g132
ag168
aaa(lp176
I176
aI179
aS'else'
p177
a(lp178
g168
ag177
aaa(lp179
I176
aI179
ag177
a(lp180
g159
ag177
aaa(lp181
I176
aI179
ag177
a(lp182
g150
ag177
aaa(lp183
I176
aI179
ag177
a(lp184
g141
ag177
aaa(lp185
I185
aI189
aS'music'
p186
a(lp187
g177
ag186
aaa(lp188
I185
aI189
ag186
a(lp189
g168
ag186
aaa(lp190
I185
aI189
ag186
a(lp191
g159
ag186
aaa(lp192
I185
aI189
ag186
a(lp193
g150
ag186
aaa(lp194
I192
aI201
aS'everything'
p195
a(lp196
g186
ag195
aaa(lp197
I192
aI201
ag195
a(lp198
g177
ag195
aaa(lp199
I192
aI201
ag195
a(lp200
g168
ag195
aaa(lp201
I192
aI201
ag195
a(lp202
g159
ag195
aaa(lp203
I203
aI207
aS'meets'
p204
a(lp205
g195
ag204
aaa(lp206
I203
aI207
ag204
a(lp207
g186
ag204
aaa(lp208
I203
aI207
ag204
a(lp209
g177
ag204
aaa(lp210
I203
aI207
ag204
a(lp211
g168
ag204
aaa(lp212
I216
aI221
aS'rhythm'
p213
a(lp214
g204
ag213
aaa(lp215
I216
aI221
ag213
a(lp216
g195
ag213
aaa(lp217
I216
aI221
ag213
a(lp218
g186
ag213
aaa(lp219
I216
aI221
ag213
a(lp220
g177
ag213
aaa(lp221
I229
aI233
aS'means'
p222
a(lp223
g213
ag222
aaa(lp224
I229
aI233
ag222
a(lp225
g204
ag222
aaa(lp226
I229
aI233
ag222
a(lp227
g195
ag222
aaa(lp228
I229
aI233
ag222
a(lp229
g186
ag222
aaa(lp230
I240
aI249
aS'everything'
p231
a(lp232
g222
ag231
aaa(lp233
I240
aI249
ag231
a(lp234
g213
ag231
aaa(lp235
I240
aI249
ag231
a(lp236
g204
ag231
aaa(lp237
I240
aI249
ag231
a(lp238
g195
ag231
aaa(lp239
I255
aI258
aS'must'
p240
a(lp241
g231
ag240
aaa(lp242
I255
aI258
ag240
a(lp243
g222
ag240
aaa(lp244
I255
aI258
ag240
a(lp245
g213
ag240
aaa(lp246
I255
aI258
ag240
a(lp247
g204
ag240
aaa(lp248
I266
aI269
aS'play'
p249
a(lp250
g240
ag249
aaa(lp251
I266
aI269
ag249
a(lp252
g231
ag249
aaa(lp253
I266
aI269
ag249
a(lp254
g222
ag249
aaa(lp255
I266
aI269
ag249
a(lp256
g213
ag249
aaa(lp257
I271
aI275
aS'music'
p258
a(lp259
g249
ag258
aaa(lp260
I271
aI275
ag258
a(lp261
g240
ag258
aaa(lp262
I271
aI275
ag258
a(lp263
g231
ag258
aaa(lp264
I271
aI275
ag258
a(lp265
g222
ag258
aaa(lp266
I283
aI292
aS'instrument'
p267
a(lp268
g258
ag267
aaa(lp269
I283
aI292
ag267
a(lp270
g249
ag267
aaa(lp271
I283
aI292
ag267
a(lp272
g240
ag267
aaa(lp273
I283
aI292
ag267
a(lp274
g231
ag267
aaa(lp275
I298
aI301
aS'must'
p276
a(lp277
g267
ag276
aaa(lp278
I298
aI301
ag276
a(lp279
g258
ag276
aaa(lp280
I298
aI301
ag276
a(lp281
g249
ag276
aaa(lp282
I298
aI301
ag276
a(lp283
g240
ag276
aaa(lp284
I303
aI307
aS'learn'
p285
a(lp286
g276
ag285
aaa(lp287
I303
aI307
ag285
a(lp288
g267
ag285
aaa(lp289
I303
aI307
ag285
a(lp290
g258
ag285
aaa(lp291
I303
aI307
ag285
a(lp292
g249
ag285
aaa(lp293
I318
aI323
aS'rhythm'
p294
a(lp295
g285
ag294
aaa(lp296
I318
aI323
ag294
a(lp297
g276
ag294
aaa(lp298
I318
aI323
ag294
a(lp299
g267
ag294
aaa(lp300
I318
aI323
ag294
a(lp301
g258
ag294
aaa(lp302
I330
aI335
aS'steady'
p303
a(lp304
g294
ag303
aaa(lp305
I330
aI335
ag303
a(lp306
g285
ag303
aaa(lp307
I330
aI335
ag303
a(lp308
g276
ag303
aaa(lp309
I330
aI335
ag303
a(lp310
g267
ag303
aaa(lp311
I337
aI341
aS'tempo'
p312
a(lp313
g303
ag312
aaa(lp314
I337
aI341
ag312
a(lp315
g294
ag312
aaa(lp316
I337
aI341
ag312
a(lp317
g285
ag312
aaa(lp318
I337
aI341
ag312
a(lp319
g276
ag312
aaa(lp320
I348
aI352
aS'first'
p321
a(lp322
g312
ag321
aaa(lp323
I348
aI352
ag321
a(lp324
g303
ag321
aaa(lp325
I348
aI352
ag321
a(lp326
g294
ag321
aaa(lp327
I348
aI352
ag321
a(lp328
g285
ag321
aaa(lp329
I354
aI357
aS'step'
p330
a(lp331
g321
ag330
aaa(lp332
I354
aI357
ag330
a(lp333
g312
ag330
aaa(lp334
I354
aI357
ag330
a(lp335
g303
ag330
aaa(lp336
I354
aI357
ag330
a(lp337
g294
ag330
aaa(lp338
I365
aI370
aS'figure'
p339
a(lp340
g330
ag339
aaa(lp341
I365
aI370
ag339
a(lp342
g321
ag339
aaa(lp343
I365
aI370
ag339
a(lp344
g312
ag339
aaa(lp345
I365
aI370
ag339
a(lp346
g303
ag339
aaa(lp347
I384
aI389
aS'rhythm'
p348
a(lp349
g339
ag348
aaa(lp350
I384
aI389
ag348
a(lp351
g330
ag348
aaa(lp352
I384
aI389
ag348
a(lp353
g321
ag348
aaa(lp354
I384
aI389
ag348
a(lp355
g312
ag348
aaa(lp356
I391
aI394
aS'goes'
p357
a(lp358
g348
ag357
aaa(lp359
I391
aI394
ag357
a(lp360
g339
ag357
aaa(lp361
I391
aI394
ag357
a(lp362
g330
ag357
aaa(lp363
I391
aI394
ag357
a(lp364
g321
ag357
aaa(lp365
I397
aI399
aS'try'
p366
a(lp367
g357
ag366
aaa(lp368
I397
aI399
ag366
a(lp369
g348
ag366
aaa(lp370
I397
aI399
ag366
a(lp371
g339
ag366
aaa(lp372
I397
aI399
ag366
a(lp373
g330
ag366
aaa(lp374
I401
aI406
aS'saying'
p375
a(lp376
g366
ag375
aaa(lp377
I401
aI406
ag375
a(lp378
g357
ag375
aaa(lp379
I401
aI406
ag375
a(lp380
g348
ag375
aaa(lp381
I401
aI406
ag375
a(lp382
g339
ag375
aaa(lp383
I412
aI417
aS'rhythm'
p384
a(lp385
g375
ag384
aaa(lp386
I412
aI417
ag384
a(lp387
g366
ag384
aaa(lp388
I412
aI417
ag384
a(lp389
g357
ag384
aaa(lp390
I412
aI417
ag384
a(lp391
g348
ag384
aaa(lp392
I423
aI426
aS'loud'
p393
a(lp394
g384
ag393
aaa(lp395
I423
aI426
ag393
a(lp396
g375
ag393
aaa(lp397
I423
aI426
ag393
a(lp398
g366
ag393
aaa(lp399
I423
aI426
ag393
a(lp400
g357
ag393
aaa(lp401
I431
aI433
aS'tah'
p402
a(lp403
g393
ag402
aaa(lp404
I431
aI433
ag402
a(lp405
g384
ag402
aaa(lp406
I431
aI433
ag402
a(lp407
g375
ag402
aaa(lp408
I431
aI433
ag402
a(lp409
g366
ag402
aaa(lp410
I444
aI446
aS'toh'
p411
a(lp412
g402
ag411
aaa(lp413
I444
aI446
ag411
a(lp414
g393
ag411
aaa(lp415
I444
aI446
ag411
a(lp416
g384
ag411
aaa(lp417
I444
aI446
ag411
a(lp418
g375
ag411
aaa(lp419
I449
aI457
aS'whichever'
p420
a(lp421
g411
ag420
aaa(lp422
I449
aI457
ag420
a(lp423
g402
ag420
aaa(lp424
I449
aI457
ag420
a(lp425
g393
ag420
aaa(lp426
I449
aI457
ag420
a(lp427
g384
ag420
aaa(lp428
I463
aI465
aS'use'
p429
a(lp430
g420
ag429
aaa(lp431
I463
aI465
ag429
a(lp432
g411
ag429
aaa(lp433
I463
aI465
ag429
a(lp434
g402
ag429
aaa(lp435
I463
aI465
ag429
a(lp436
g393
ag429
aaa(lp437
I468
aI471
aS'keep'
p438
a(lp439
g429
ag438
aaa(lp440
I468
aI471
ag438
a(lp441
g420
ag438
aaa(lp442
I468
aI471
ag438
a(lp443
g411
ag438
aaa(lp444
I468
aI471
ag438
a(lp445
g402
ag438
aaa(lp446
I477
aI481
aS'tempo'
p447
a(lp448
g438
ag447
aaa(lp449
I477
aI481
ag447
a(lp450
g429
ag447
aaa(lp451
I477
aI481
ag447
a(lp452
g420
ag447
aaa(lp453
I477
aI481
ag447
a(lp454
g411
ag447
aaa(lp455
I483
aI488
aS'steady'
p456
a(lp457
g447
ag456
aaa(lp458
I483
aI488
ag456
a(lp459
g438
ag456
aaa(lp460
I483
aI488
ag456
a(lp461
g429
ag456
aaa(lp462
I483
aI488
ag456
a(lp463
g420
ag456
aaa(lp464
I494
aI496
aS'say'
p465
a(lp466
g456
ag465
aaa(lp467
I494
aI496
ag465
a(lp468
g447
ag465
aaa(lp469
I494
aI496
ag465
a(lp470
g438
ag465
aaa(lp471
I494
aI496
ag465
a(lp472
g429
ag465
aaa(lp473
I502
aI507
aS'rhythm'
p474
a(lp475
g465
ag474
aaa(lp476
I502
aI507
ag474
a(lp477
g456
ag474
aaa(lp478
I502
aI507
ag474
a(lp479
g447
ag474
aaa(lp480
I502
aI507
ag474
a(lp481
g438
ag474
aaa(lp482
I514
aI517
aS'like'
p483
a(lp484
g474
ag483
aaa(lp485
I514
aI517
ag483
a(lp486
g465
ag483
aaa(lp487
I514
aI517
ag483
a(lp488
g456
ag483
aaa(lp489
I514
aI517
ag483
a(lp490
g447
ag483
aaa(lp491
I523
aI527
aS'would'
p492
a(lp493
g483
ag492
aaa(lp494
I523
aI527
ag492
a(lp495
g474
ag492
aaa(lp496
I523
aI527
ag492
a(lp497
g465
ag492
aaa(lp498
I523
aI527
ag492
a(lp499
g456
ag492
aaa(lp500
I529
aI532
aS'play'
p501
a(lp502
g492
ag501
aaa(lp503
I529
aI532
ag501
a(lp504
g483
ag501
aaa(lp505
I529
aI532
ag501
a(lp506
g474
ag501
aaa(lp507
I529
aI532
ag501
a(lp508
g465
ag501
aaa(lp509
I550
aI556
aS'trouble'
p510
a(lp511
g501
ag510
aaa(lp512
I550
aI556
ag510
a(lp513
g492
ag510
aaa(lp514
I550
aI556
ag510
a(lp515
g483
ag510
aaa(lp516
I550
aI556
ag510
a(lp517
g474
ag510
aaa(lp518
I566
aI571
aS'places'
p519
a(lp520
g510
ag519
aaa(lp521
I566
aI571
ag519
a(lp522
g501
ag519
aaa(lp523
I566
aI571
ag519
a(lp524
g492
ag519
aaa(lp525
I566
aI571
ag519
a(lp526
g483
ag519
aaa(lp527
I574
aI576
aS'see'
p528
a(lp529
g519
ag528
aaa(lp530
I574
aI576
ag528
a(lp531
g510
ag528
aaa(lp532
I574
aI576
ag528
a(lp533
g501
ag528
aaa(lp534
I574
aI576
ag528
a(lp535
g492
ag528
aaa(lp536
I586
aI592
aS'rhythms'
p537
a(lp538
g528
ag537
aaa(lp539
I586
aI592
ag537
a(lp540
g519
ag537
aaa(lp541
I586
aI592
ag537
a(lp542
g510
ag537
aaa(lp543
I586
aI592
ag537
a(lp544
g501
ag537
aaa(lp545
I594
aI596
aS'add'
p546
a(lp547
g537
ag546
aaa(lp548
I594
aI596
ag546
a(lp549
g528
ag546
aaa(lp550
I594
aI596
ag546
a(lp551
g519
ag546
aaa(lp552
I594
aI596
ag546
a(lp553
g510
ag546
aaa(lp554
I608
aI612
aS'beats'
p555
a(lp556
g546
ag555
aaa(lp557
I608
aI612
ag555
a(lp558
g537
ag555
aaa(lp559
I608
aI612
ag555
a(lp560
g528
ag555
aaa(lp561
I608
aI612
ag555
a(lp562
g519
ag555
aaa(lp563
I622
aI628
aS'measure'
p564
a(lp565
g555
ag564
aaa(lp566
I622
aI628
ag564
a(lp567
g546
ag564
aaa(lp568
I622
aI628
ag564
a(lp569
g537
ag564
aaa(lp570
I622
aI628
ag564
a(lp571
g528
ag564
aaa(lp572
I636
aI641
aS'rhythm'
p573
a(lp574
g564
ag573
aaa(lp575
I636
aI641
ag573
a(lp576
g555
ag573
aaa(lp577
I636
aI641
ag573
a(lp578
g546
ag573
aaa(lp579
I636
aI641
ag573
a(lp580
g537
ag573
aaa(lp581
I643
aI646
aS'uses'
p582
a(lp583
g573
ag582
aaa(lp584
I643
aI646
ag582
a(lp585
g564
ag582
aaa(lp586
I643
aI646
ag582
a(lp587
g555
ag582
aaa(lp588
I643
aI646
ag582
a(lp589
g546
ag582
aaa(lp590
I651
aI654
aS'beat'
p591
a(lp592
g582
ag591
aaa(lp593
I651
aI654
ag591
a(lp594
g573
ag591
aaa(lp595
I651
aI654
ag591
a(lp596
g564
ag591
aaa(lp597
I651
aI654
ag591
a(lp598
g555
ag591
aaa(lp599
I656
aI656
ag60
a(lp600
g591
ag60
aaa(lp601
I656
aI656
ag60
a(lp602
g582
ag60
aaa(lp603
I656
aI656
ag60
a(lp604
g573
ag60
aaa(lp605
I656
aI656
ag60
a(lp606
g564
ag60
aaa(lp607
I659
aI662
aS'beat'
p608
a(lp609
g60
ag608
aaa(lp610
I659
aI662
ag608
a(lp611
g591
ag608
aaa(lp612
I659
aI662
ag608
a(lp613
g582
ag608
aaa(lp614
I659
aI662
ag608
a(lp615
g573
ag608
aaa(lp616
I664
aI678
aS'2\xe2\x80\xa63\xe2\x80\xa64\xe2\x80\xa6etc'
p617
a(lp618
g608
ag617
aaa(lp619
I664
aI678
ag617
a(lp620
g60
ag617
aaa(lp621
I664
aI678
ag617
a(lp622
g591
ag617
aaa(lp623
I664
aI678
ag617
a(lp624
g582
ag617
aaa(lp625
I681
aI685
aS'learn'
p626
a(lp627
g617
ag626
aaa(lp628
I681
aI685
ag626
a(lp629
g608
ag626
aaa(lp630
I681
aI685
ag626
a(lp631
g60
ag626
aaa(lp632
I681
aI685
ag626
a(lp633
g591
ag626
aaa(lp634
I690
aI692
aS'say'
p635
a(lp636
g626
ag635
aaa(lp637
I690
aI692
ag635
a(lp638
g617
ag635
aaa(lp639
I690
aI692
ag635
a(lp640
g608
ag635
aaa(lp641
I690
aI692
ag635
a(lp642
g60
ag635
aaa(lp643
I698
aI703
aS'rhythm'
p644
a(lp645
g635
ag644
aaa(lp646
I698
aI703
ag644
a(lp647
g626
ag644
aaa(lp648
I698
aI703
ag644
a(lp649
g617
ag644
aaa(lp650
I698
aI703
ag644
a(lp651
g608
ag644
aaa(lp652
I709
aI712
aS'loud'
p653
a(lp654
g644
ag653
aaa(lp655
I709
aI712
ag653
a(lp656
g635
ag653
aaa(lp657
I709
aI712
ag653
a(lp658
g626
ag653
aaa(lp659
I709
aI712
ag653
a(lp660
g617
ag653
aaa(lp661
I719
aI722
aS'well'
p662
a(lp663
g653
ag662
aaa(lp664
I719
aI722
ag662
a(lp665
g644
ag662
aaa(lp666
I719
aI722
ag662
a(lp667
g635
ag662
aaa(lp668
I719
aI722
ag662
a(lp669
g626
ag662
aaa(lp670
I731
aI736
aS'really'
p671
a(lp672
g662
ag671
aaa(lp673
I731
aI736
ag671
a(lp674
g653
ag671
aaa(lp675
I731
aI736
ag671
a(lp676
g644
ag671
aaa(lp677
I731
aI736
ag671
a(lp678
g635
ag671
aaa(lp679
I738
aI741
aS'know'
p680
a(lp681
g671
ag680
aaa(lp682
I738
aI741
ag680
a(lp683
g662
ag680
aaa(lp684
I738
aI741
ag680
a(lp685
g653
ag680
aaa(lp686
I738
aI741
ag680
a(lp687
g644
ag680
aaa(lp688
I750
aI753
aS'goes'
p689
a(lp690
g680
ag689
aaa(lp691
I750
aI753
ag689
a(lp692
g671
ag689
aaa(lp693
I750
aI753
ag689
a(lp694
g662
ag689
aaa(lp695
I750
aI753
ag689
a(lp696
g653
ag689
aaa(lp697
I756
aI758
aS'use'
p698
a(lp699
g689
ag698
aaa(lp700
I756
aI758
ag698
a(lp701
g680
ag698
aaa(lp702
I756
aI758
ag698
a(lp703
g671
ag698
aaa(lp704
I756
aI758
ag698
a(lp705
g662
ag698
aaa(lp706
I770
aI773
aS'game'
p707
a(lp708
g698
ag707
aaa(lp709
I770
aI773
ag707
a(lp710
g689
ag707
aaa(lp711
I770
aI773
ag707
a(lp712
g680
ag707
aaa(lp713
I770
aI773
ag707
a(lp714
g671
ag707
aaa(lp715
I778
aI781
aS'test'
p716
a(lp717
g707
ag716
aaa(lp718
I778
aI781
ag716
a(lp719
g698
ag716
aaa(lp720
I778
aI781
ag716
a(lp721
g689
ag716
aaa(lp722
I778
aI781
ag716
a(lp723
g680
ag716
aaa(lp724
I786
aI788
aS'see'
p725
a(lp726
g716
ag725
aaa(lp727
I786
aI788
ag725
a(lp728
g707
ag725
aaa(lp729
I786
aI788
ag725
a(lp730
g698
ag725
aaa(lp731
I786
aI788
ag725
a(lp732
g689
ag725
aaa(lp733
I794
aI797
aS'well'
p734
a(lp735
g725
ag734
aaa(lp736
I794
aI797
ag734
a(lp737
g716
ag734
aaa(lp738
I794
aI797
ag734
a(lp739
g707
ag734
aaa(lp740
I794
aI797
ag734
a(lp741
g698
ag734
aaa(lp742
I807
aI809
aS'say'
p743
a(lp744
g734
ag743
aaa(lp745
I807
aI809
ag743
a(lp746
g725
ag743
aaa(lp747
I807
aI809
ag743
a(lp748
g716
ag743
aaa(lp749
I807
aI809
ag743
a(lp750
g707
ag743
aaa(lp751
I815
aI820
aS'rhythm'
p752
a(lp753
g743
ag752
aaa(lp754
I815
aI820
ag752
a(lp755
g734
ag752
aaa(lp756
I815
aI820
ag752
a(lp757
g725
ag752
aaa(lp758
I815
aI820
ag752
a(lp759
g716
ag752
aaa(lp760
I836
aI843
aS'anything'
p761
a(lp762
g752
ag761
aaa(lp763
I836
aI843
ag761
a(lp764
g743
ag761
aaa(lp765
I836
aI843
ag761
a(lp766
g734
ag761
aaa(lp767
I836
aI843
ag761
a(lp768
g725
ag761
aaa(lp769
I845
aI848
aS'else'
p770
a(lp771
g761
ag770
aaa(lp772
I845
aI848
ag770
a(lp773
g752
ag770
aaa(lp774
I845
aI848
ag770
a(lp775
g743
ag770
aaa(lp776
I845
aI848
ag770
a(lp777
g734
ag770
aaa(lp778
I859
aI863
aS'music'
p779
a(lp780
g770
ag779
aaa(lp781
I859
aI863
ag779
a(lp782
g761
ag779
aaa(lp783
I859
aI863
ag779
a(lp784
g752
ag779
aaa(lp785
I859
aI863
ag779
a(lp786
g743
ag779
aaa(lp787
I871
aI875
aS'music'
p788
a(lp789
g779
ag788
aaa(lp790
I871
aI875
ag788
a(lp791
g770
ag788
aaa(lp792
I871
aI875
ag788
a(lp793
g761
ag788
aaa(lp794
I871
aI875
ag788
a(lp795
g752
ag788
aaa(lp796
I885
aI888
aS'easy'
p797
a(lp798
g788
ag797
aaa(lp799
I885
aI888
ag797
a(lp800
g779
ag797
aaa(lp801
I885
aI888
ag797
a(lp802
g770
ag797
aaa(lp803
I885
aI888
ag797
a(lp804
g761
ag797
aaa(lp805
I896
aI900
aS'music'
p806
a(lp807
g797
ag806
aaa(lp808
I896
aI900
ag806
a(lp809
g788
ag806
aaa(lp810
I896
aI900
ag806
a(lp811
g779
ag806
aaa(lp812
I896
aI900
ag806
a(lp813
g770
ag806
aaa(lp814
I917
aI920
aS'easy'
p815
a(lp816
g806
ag815
aaa(lp817
I917
aI920
ag815
a(lp818
g797
ag815
aaa(lp819
I917
aI920
ag815
a(lp820
g788
ag815
aaa(lp821
I917
aI920
ag815
a(lp822
g779
ag815
aaa(lp823
I927
aI929
aS'may'
p824
a(lp825
g815
ag824
aaa(lp826
I927
aI929
ag824
a(lp827
g806
ag824
aaa(lp828
I927
aI929
ag824
a(lp829
g797
ag824
aaa(lp830
I927
aI929
ag824
a(lp831
g788
ag824
aaa(lp832
I934
aI942
aS'surprised'
p833
a(lp834
g824
ag833
aaa(lp835
I934
aI942
ag833
a(lp836
g815
ag833
aaa(lp837
I934
aI942
ag833
a(lp838
g806
ag833
aaa(lp839
I934
aI942
ag833
a(lp840
g797
ag833
aaa(lp841
I953
aI956
aS'need'
p842
a(lp843
g833
ag842
aaa(lp844
I953
aI956
ag842
a(lp845
g824
ag842
aaa(lp846
I953
aI956
ag842
a(lp847
g815
ag842
aaa(lp848
I953
aI956
ag842
a(lp849
g806
ag842
aaa(lp850
I961
aI964
aS'work'
p851
a(lp852
g842
ag851
aaa(lp853
I961
aI964
ag851
a(lp854
g833
ag851
aaa(lp855
I961
aI964
ag851
a(lp856
g824
ag851
aaa(lp857
I961
aI964
ag851
a(lp858
g815
ag851
aaa(lp859
I973
aI978
aS'rhythm'
p860
a(lp861
g851
ag860
aaa(lp862
I973
aI978
ag860
a(lp863
g842
ag860
aaa(lp864
I973
aI978
ag860
a(lp865
g833
ag860
aaa(lp866
I973
aI978
ag860
a(lp867
g824
ag860
aaa(lp868
I983
aI986
aS'much'
p869
a(lp870
g860
ag869
aaa(lp871
I983
aI986
ag869
a(lp872
g851
ag869
aaa(lp873
I983
aI986
ag869
a(lp874
g842
ag869
aaa(lp875
I983
aI986
ag869
a(lp876
g833
ag869
aaa(lp877
I992
aI995
aS'find'
p878
a(lp879
g869
ag878
aaa(lp880
I992
aI995
ag878
a(lp881
g860
ag878
aaa(lp882
I992
aI995
ag878
a(lp883
g851
ag878
aaa(lp884
I992
aI995
ag878
a(lp885
g842
ag878
aaa(lp886
I1010
aI1017
aS'remember'
p887
a(lp888
g878
ag887
aaa(lp889
I1010
aI1017
ag887
a(lp890
g869
ag887
aaa(lp891
I1010
aI1017
ag887
a(lp892
g860
ag887
aaa(lp893
I1010
aI1017
ag887
a(lp894
g851
ag887
aaa(lp895
I1020
aI1029
aS'everything'
p896
a(lp897
g887
ag896
aaa(lp898
I1020
aI1029
ag896
a(lp899
g878
ag896
aaa(lp900
I1020
aI1029
ag896
a(lp901
g869
ag896
aaa(lp902
I1020
aI1029
ag896
a(lp903
g860
ag896
aaa(lp904
I1031
aI1034
aS'else'
p905
a(lp906
g896
ag905
aaa(lp907
I1031
aI1034
ag905
a(lp908
g887
ag905
aaa(lp909
I1031
aI1034
ag905
a(lp910
g878
ag905
aaa(lp911
I1031
aI1034
ag905
a(lp912
g869
ag905
aaa(lp913
I1046
aI1049
aS'play'
p914
a(lp915
g905
ag914
aaa(lp916
I1046
aI1049
ag914
a(lp917
g896
ag914
aaa(lp918
I1046
aI1049
ag914
a(lp919
g887
ag914
aaa(lp920
I1046
aI1049
ag914
a(lp921
g878
ag914
aaa(lp922
I1056
aI1060
aS'music'
p923
a(lp924
g914
ag923
aaa(lp925
I1056
aI1060
ag923
a(lp926
g905
ag923
aaa(lp927
I1056
aI1060
ag923
a(lp928
g896
ag923
aaa(lp929
I1056
aI1060
ag923
a(lp930
g887
ag923
aaa(lp931
I1070
aI1079
aS'instrument'
p932
a(lp933
g923
ag932
aaa(lp934
I1070
aI1079
ag932
a(lp935
g914
ag932
aaa(lp936
I1070
aI1079
ag932
a(lp937
g905
ag932
aaa(lp938
I1070
aI1079
ag932
a(lp939
g896
ag932
aaa(lp940
I1081
aI1084
aS'must'
p941
a(lp942
g932
ag941
aaa(lp943
I1081
aI1084
ag941
a(lp944
g923
ag941
aaa(lp945
I1081
aI1084
ag941
a(lp946
g914
ag941
aaa(lp947
I1081
aI1084
ag941
a(lp948
g905
ag941
aaa(lp949
I1092
aI1097
aS'rhythm'
p950
a(lp951
g941
ag950
aaa(lp952
I1092
aI1097
ag950
a(lp953
g932
ag950
aaa(lp954
I1092
aI1097
ag950
a(lp955
g923
ag950
aaa(lp956
I1092
aI1097
ag950
a(lp957
g914
ag950
aaa(lp958
I1106
aI1114
aS'important'
p959
a(lp960
g950
ag959
aaa(lp961
I1106
aI1114
ag959
a(lp962
g941
ag959
aaa(lp963
I1106
aI1114
ag959
a(lp964
g932
ag959
aaa(lp965
I1106
aI1114
ag959
a(lp966
g923
ag959
aaa(lp967
I1129
aI1131
aS'say'
p968
a(lp969
g959
ag968
aaa(lp970
I1129
aI1131
ag968
a(lp971
g950
ag968
aaa(lp972
I1129
aI1131
ag968
a(lp973
g941
ag968
aaa(lp974
I1129
aI1131
ag968
a(lp975
g932
ag968
aaa(lp976
I1137
aI1142
aS'rhythm'
p977
a(lp978
g968
ag977
aaa(lp979
I1137
aI1142
ag977
a(lp980
g959
ag977
aaa(lp981
I1137
aI1142
ag977
a(lp982
g950
ag977
aaa(lp983
I1137
aI1142
ag977
a(lp984
g941
ag977
aaa(lp985
I1148
aI1151
aS'loud'
p986
a(lp987
g977
ag986
aaa(lp988
I1148
aI1151
ag986
a(lp989
g968
ag986
aaa(lp990
I1148
aI1151
ag986
a(lp991
g959
ag986
aaa(lp992
I1148
aI1151
ag986
a(lp993
g950
ag986
aaa(lp994
I1153
aI1161
aS'correctly'
p995
a(lp996
g986
ag995
aaa(lp997
I1153
aI1161
ag995
a(lp998
g977
ag995
aaa(lp999
I1153
aI1161
ag995
a(lp1000
g968
ag995
aaa(lp1001
I1153
aI1161
ag995
a(lp1002
g959
ag995
aaa(lp1003
I1163
aI1167
aS'first'
p1004
a(lp1005
g995
ag1004
aaa(lp1006
I1163
aI1167
ag1004
a(lp1007
g986
ag1004
aaa(lp1008
I1163
aI1167
ag1004
a(lp1009
g977
ag1004
aaa(lp1010
I1163
aI1167
ag1004
a(lp1011
g968
ag1004
aaa(lp1012
I1181
aI1183
aS'say'
p1013
a(lp1014
g1004
ag1013
aaa(lp1015
I1181
aI1183
ag1013
a(lp1016
g995
ag1013
aaa(lp1017
I1181
aI1183
ag1013
a(lp1018
g986
ag1013
aaa(lp1019
I1181
aI1183
ag1013
a(lp1020
g977
ag1013
aaa(lp1021
I1191
aI1196
aS'rhythm'
p1022
a(lp1023
g1013
ag1022
aaa(lp1024
I1191
aI1196
ag1022
a(lp1025
g1004
ag1022
aaa(lp1026
I1191
aI1196
ag1022
a(lp1027
g995
ag1022
aaa(lp1028
I1191
aI1196
ag1022
a(lp1029
g986
ag1022
aaa(lp1030
I1212
aI1215
aS'stay'
p1031
a(lp1032
g1022
ag1031
aaa(lp1033
I1212
aI1215
ag1031
a(lp1034
g1013
ag1031
aaa(lp1035
I1212
aI1215
ag1031
a(lp1036
g1004
ag1031
aaa(lp1037
I1212
aI1215
ag1031
a(lp1038
g995
ag1031
aaa(lp1039
I1220
aI1225
aS'rhythm'
p1040
a(lp1041
g1031
ag1040
aaa(lp1042
I1220
aI1225
ag1040
a(lp1043
g1022
ag1040
aaa(lp1044
I1220
aI1225
ag1040
a(lp1045
g1013
ag1040
aaa(lp1046
I1220
aI1225
ag1040
a(lp1047
g1004
ag1040
aaa(lp1048
I1234
aI1238
aS'learn'
p1049
a(lp1050
g1040
ag1049
aaa(lp1051
I1234
aI1238
ag1049
a(lp1052
g1031
ag1049
aaa(lp1053
I1234
aI1238
ag1049
a(lp1054
g1022
ag1049
aaa(lp1055
I1234
aI1238
ag1049
a(lp1056
g1013
ag1049
aaa(lp1057
I1243
aI1246
aS'play'
p1058
a(lp1059
g1049
ag1058
aaa(lp1060
I1243
aI1246
ag1058
a(lp1061
g1040
ag1058
aaa(lp1062
I1243
aI1246
ag1058
a(lp1063
g1031
ag1058
aaa(lp1064
I1243
aI1246
ag1058
a(lp1065
g1022
ag1058
aaa(lp1066
I1260
aI1266
aS'already'
p1067
a(lp1068
g1058
ag1067
aaa(lp1069
I1260
aI1266
ag1067
a(lp1070
g1049
ag1067
aaa(lp1071
I1260
aI1266
ag1067
a(lp1072
g1040
ag1067
aaa(lp1073
I1260
aI1266
ag1067
a(lp1074
g1031
ag1067
aaa(lp1075
I1268
aI1271
aS'know'
p1076
a(lp1077
g1067
ag1076
aaa(lp1078
I1268
aI1271
ag1076
a(lp1079
g1058
ag1076
aaa(lp1080
I1268
aI1271
ag1076
a(lp1081
g1049
ag1076
aaa(lp1082
I1268
aI1271
ag1076
a(lp1083
g1040
ag1076
aaa(lp1084
I1281
aI1286
aS'rhythm'
p1085
a(lp1086
g1076
ag1085
aaa(lp1087
I1281
aI1286
ag1085
a(lp1088
g1067
ag1085
aaa(lp1089
I1281
aI1286
ag1085
a(lp1090
g1058
ag1085
aaa(lp1091
I1281
aI1286
ag1085
a(lp1092
g1049
ag1085
aaa(lp1093
I1288
aI1291
aS'goes'
p1094
a(lp1095
g1085
ag1094
aaa(lp1096
I1288
aI1291
ag1094
a(lp1097
g1076
ag1094
aaa(lp1098
I1288
aI1291
ag1094
a(lp1099
g1067
ag1094
aaa(lp1100
I1288
aI1291
ag1094
a(lp1101
g1058
ag1094
aaa(lp1102
I1301
aI1304
aS'play'
p1103
a(lp1104
g1094
ag1103
aaa(lp1105
I1301
aI1304
ag1103
a(lp1106
g1085
ag1103
aaa(lp1107
I1301
aI1304
ag1103
a(lp1108
g1076
ag1103
aaa(lp1109
I1301
aI1304
ag1103
a(lp1110
g1067
ag1103
aaa(lp1111
I1313
aI1318
aS'rhythm'
p1112
a(lp1113
g1103
ag1112
aaa(lp1114
I1313
aI1318
ag1112
a(lp1115
g1094
ag1112
aaa(lp1116
I1313
aI1318
ag1112
a(lp1117
g1085
ag1112
aaa(lp1118
I1313
aI1318
ag1112
a(lp1119
g1076
ag1112
aaa(lp1120
I1333
aI1336
aS'able'
p1121
a(lp1122
g1112
ag1121
aaa(lp1123
I1333
aI1336
ag1121
a(lp1124
g1103
ag1121
aaa(lp1125
I1333
aI1336
ag1121
a(lp1126
g1094
ag1121
aaa(lp1127
I1333
aI1336
ag1121
a(lp1128
g1085
ag1121
aaa(lp1129
I1341
aI1344
aS'tell'
p1130
a(lp1131
g1121
ag1130
aaa(lp1132
I1341
aI1344
ag1130
a(lp1133
g1112
ag1130
aaa(lp1134
I1341
aI1344
ag1130
a(lp1135
g1103
ag1130
aaa(lp1136
I1341
aI1344
ag1130
a(lp1137
g1094
ag1130
aaa(lp1138
I1350
aI1359
aS'difference'
p1139
a(lp1140
g1130
ag1139
aaa(lp1141
I1350
aI1359
ag1139
a(lp1142
g1121
ag1139
aaa(lp1143
I1350
aI1359
ag1139
a(lp1144
g1112
ag1139
aaa(lp1145
I1350
aI1359
ag1139
a(lp1146
g1103
ag1139
aaa(lp1147
I1372
aI1378
aS'correct'
p1148
a(lp1149
g1139
ag1148
aaa(lp1150
I1372
aI1378
ag1148
a(lp1151
g1130
ag1148
aaa(lp1152
I1372
aI1378
ag1148
a(lp1153
g1121
ag1148
aaa(lp1154
I1372
aI1378
ag1148
a(lp1155
g1112
ag1148
aaa(lp1156
I1393
aI1396
aS'play'
p1157
a(lp1158
g1148
ag1157
aaa(lp1159
I1393
aI1396
ag1157
a(lp1160
g1139
ag1157
aaa(lp1161
I1393
aI1396
ag1157
a(lp1162
g1130
ag1157
aaa(lp1163
I1393
aI1396
ag1157
a(lp1164
g1121
ag1157
aaa(lp1165
I1401
aI1406
aS'rhythm'
p1166
a(lp1167
g1157
ag1166
aaa(lp1168
I1401
aI1406
ag1166
a(lp1169
g1148
ag1166
aaa(lp1170
I1401
aI1406
ag1166
a(lp1171
g1139
ag1166
aaa(lp1172
I1401
aI1406
ag1166
a(lp1173
g1130
ag1166
aaa(lp1174
I1415
aI1422
aS'practice'
p1175
a(lp1176
g1166
ag1175
aaa(lp1177
I1415
aI1422
ag1175
a(lp1178
g1157
ag1175
aaa(lp1179
I1415
aI1422
ag1175
a(lp1180
g1148
ag1175
aaa(lp1181
I1415
aI1422
ag1175
a(lp1182
g1139
ag1175
aaa(lp1183
I1425
aI1433
aS'copyright'
p1184
a(lp1185
g1175
ag1184
aaa(lp1186
I1425
aI1433
ag1184
a(lp1187
g1166
ag1184
aaa(lp1188
I1425
aI1433
ag1184
a(lp1189
g1157
ag1184
aaa(lp1190
I1425
aI1433
ag1184
a(lp1191
g1148
ag1184
aaa(lp1192
I1435
aI1440
aS'norlan'
p1193
a(lp1194
g1184
ag1193
aaa(lp1195
I1435
aI1440
ag1193
a(lp1196
g1175
ag1193
aaa(lp1197
I1435
aI1440
ag1193
a(lp1198
g1166
ag1193
aaa(lp1199
I1435
aI1440
ag1193
a(lp1200
g1157
ag1193
aaa(lp1201
I1442
aI1447
aS'bewley'
p1202
a(lp1203
g1193
ag1202
aaa(lp1204
I1442
aI1447
ag1202
a(lp1205
g1184
ag1202
aaa(lp1206
I1442
aI1447
ag1202
a(lp1207
g1175
ag1202
aaa(lp1208
I1442
aI1447
ag1202
a(lp1209
g1166
ag1202
aaasS'wordMap'
p1210
(lp1211
(lp1212
I1
aI8
ag5
a(lp1213
(lp1214
I1
aS't'
p1215
aa(lp1216
I2
aS'r'
p1217
aa(lp1218
I3
aS'o'
p1219
aa(lp1220
I4
aS'm'
p1221
aa(lp1222
I5
aS'b'
p1223
aa(lp1224
I6
ag1219
aa(lp1225
I7
aS'n'
p1226
aa(lp1227
I8
aS'e'
p1228
aaaa(lp1229
I10
aI13
ag15
a(lp1230
(lp1231
I10
ag1215
aa(lp1232
I11
aS'i'
p1233
aa(lp1234
I12
aS'p'
p1235
aa(lp1236
I13
aS's'
p1237
aaaa(lp1238
I17
aI21
ag24
a(lp1239
(lp1240
I17
aS'l'
p1241
aa(lp1242
I18
ag1228
aa(lp1243
I19
aS'a'
p1244
aa(lp1245
I20
ag1217
aa(lp1246
I21
ag1226
aaaa(lp1247
I23
aI24
aS'to'
p1248
a(lp1249
(lp1250
I23
ag1215
aa(lp1251
I24
ag1219
aaaa(lp1252
I26
aI33
ag33
a(lp1253
(lp1254
I26
ag1235
aa(lp1255
I27
ag1217
aa(lp1256
I28
ag1244
aa(lp1257
I29
aS'c'
p1258
aa(lp1259
I30
ag1215
aa(lp1260
I31
ag1233
aa(lp1261
I32
ag1258
aa(lp1262
I33
ag1228
aaaa(lp1263
I35
aI37
ag42
a(lp1264
(lp1265
I35
aS'\xe2'
p1266
aa(lp1267
I36
aS'\x80'
p1268
aa(lp1269
I37
aS'\x93'
p1270
aaaa(lp1271
I39
aI42
ag51
a(lp1272
(lp1273
I39
ag1237
aa(lp1274
I40
ag1215
aa(lp1275
I41
ag1228
aa(lp1276
I42
ag1235
aaaa(lp1277
I44
aI44
ag60
a(lp1278
(lp1279
I44
ag60
aaaa(lp1280
I47
aI49
ag69
a(lp1281
(lp1282
I47
ag1237
aa(lp1283
I48
ag1244
aa(lp1284
I49
aS'y'
p1285
aaaa(lp1286
I51
aI52
aS'in'
p1287
a(lp1288
(lp1289
I51
ag1233
aa(lp1290
I52
ag1226
aaaa(lp1291
I54
aI59
ag78
a(lp1292
(lp1293
I54
ag1217
aa(lp1294
I55
aS'h'
p1295
aa(lp1296
I56
ag1285
aa(lp1297
I57
ag1215
aa(lp1298
I58
ag1295
aa(lp1299
I59
ag1221
aaaa(lp1300
I62
aI65
ag87
a(lp1301
(lp1302
I62
ag1237
aa(lp1303
I63
ag1215
aa(lp1304
I64
ag1244
aa(lp1305
I65
ag1285
aaaa(lp1306
I67
aI68
aS'in'
p1307
a(lp1308
(lp1309
I67
ag1233
aa(lp1310
I68
ag1226
aaaa(lp1311
I70
aI75
ag96
a(lp1312
(lp1313
I70
ag1217
aa(lp1314
I71
ag1295
aa(lp1315
I72
ag1285
aa(lp1316
I73
ag1215
aa(lp1317
I74
ag1295
aa(lp1318
I75
ag1221
aaaa(lp1319
I78
aI81
aS'when'
p1320
a(lp1321
(lp1322
I78
aS'w'
p1323
aa(lp1324
I79
ag1295
aa(lp1325
I80
ag1228
aa(lp1326
I81
ag1226
aaaa(lp1327
I83
aI85
aS'you'
p1328
a(lp1329
(lp1330
I83
ag1285
aa(lp1331
I84
ag1219
aa(lp1332
I85
aS'u'
p1333
aaaa(lp1334
I87
aI91
ag105
a(lp1335
(lp1336
I87
aS'f'
p1337
aa(lp1338
I88
ag1233
aa(lp1339
I89
ag1217
aa(lp1340
I90
ag1237
aa(lp1341
I91
ag1215
aaaa(lp1342
I93
aI100
ag114
a(lp1343
(lp1344
I93
ag1235
aa(lp1345
I94
ag1217
aa(lp1346
I95
ag1244
aa(lp1347
I96
ag1258
aa(lp1348
I97
ag1215
aa(lp1349
I98
ag1233
aa(lp1350
I99
ag1258
aa(lp1351
I100
ag1228
aaaa(lp1352
I102
aI105
aS'your'
p1353
a(lp1354
(lp1355
I102
ag1285
aa(lp1356
I103
ag1219
aa(lp1357
I104
ag1333
aa(lp1358
I105
ag1217
aaaa(lp1359
I107
aI111
ag123
a(lp1360
(lp1361
I107
ag1221
aa(lp1362
I108
ag1333
aa(lp1363
I109
ag1237
aa(lp1364
I110
ag1233
aa(lp1365
I111
ag1258
aaaa(lp1366
I114
aI116
aS'you'
p1367
a(lp1368
(lp1369
I114
ag1285
aa(lp1370
I115
ag1219
aa(lp1371
I116
ag1333
aaaa(lp1372
I118
aI121
ag132
a(lp1373
(lp1374
I118
ag1226
aa(lp1375
I119
ag1228
aa(lp1376
I120
ag1228
aa(lp1377
I121
aS'd'
p1378
aaaa(lp1379
I123
aI124
aS'to'
p1380
a(lp1381
(lp1382
I123
ag1215
aa(lp1383
I124
ag1219
aaaa(lp1384
I126
aI129
ag141
a(lp1385
(lp1386
I126
aS'k'
p1387
aa(lp1388
I127
ag1226
aa(lp1389
I128
ag1219
aa(lp1390
I129
ag1323
aaaa(lp1391
I131
aI133
aS'how'
p1392
a(lp1393
(lp1394
I131
ag1295
aa(lp1395
I132
ag1219
aa(lp1396
I133
ag1323
aaaa(lp1397
I135
aI137
aS'the'
p1398
a(lp1399
(lp1400
I135
ag1215
aa(lp1401
I136
ag1295
aa(lp1402
I137
ag1228
aaaa(lp1403
I139
aI144
ag150
a(lp1404
(lp1405
I139
ag1217
aa(lp1406
I140
ag1295
aa(lp1407
I141
ag1285
aa(lp1408
I142
ag1215
aa(lp1409
I143
ag1295
aa(lp1410
I144
ag1221
aaaa(lp1411
I146
aI151
ag159
a(lp1412
(lp1413
I146
ag1237
aa(lp1414
I147
ag1219
aa(lp1415
I148
ag1333
aa(lp1416
I149
ag1226
aa(lp1417
I150
ag1378
aa(lp1418
I151
ag1237
aaaa(lp1419
I153
aI158
aS'before'
p1420
a(lp1421
(lp1422
I153
ag1223
aa(lp1423
I154
ag1228
aa(lp1424
I155
ag1337
aa(lp1425
I156
ag1219
aa(lp1426
I157
ag1217
aa(lp1427
I158
ag1228
aaaa(lp1428
I160
aI162
aS'you'
p1429
a(lp1430
(lp1431
I160
ag1285
aa(lp1432
I161
ag1219
aa(lp1433
I162
ag1333
aaaa(lp1434
I164
aI165
aS'do'
p1435
a(lp1436
(lp1437
I164
ag1378
aa(lp1438
I165
ag1219
aaaa(lp1439
I167
aI174
ag168
a(lp1440
(lp1441
I167
ag1244
aa(lp1442
I168
ag1226
aa(lp1443
I169
ag1285
aa(lp1444
I170
ag1215
aa(lp1445
I171
ag1295
aa(lp1446
I172
ag1233
aa(lp1447
I173
ag1226
aa(lp1448
I174
aS'g'
p1449
aaaa(lp1450
I176
aI179
ag177
a(lp1451
(lp1452
I176
ag1228
aa(lp1453
I177
ag1241
aa(lp1454
I178
ag1237
aa(lp1455
I179
ag1228
aaaa(lp1456
I182
aI183
aS'in'
p1457
a(lp1458
(lp1459
I182
ag1233
aa(lp1460
I183
ag1226
aaaa(lp1461
I185
aI189
ag186
a(lp1462
(lp1463
I185
ag1221
aa(lp1464
I186
ag1333
aa(lp1465
I187
ag1237
aa(lp1466
I188
ag1233
aa(lp1467
I189
ag1258
aaaa(lp1468
I192
aI201
ag195
a(lp1469
(lp1470
I192
ag1228
aa(lp1471
I193
aS'v'
p1472
aa(lp1473
I194
ag1228
aa(lp1474
I195
ag1217
aa(lp1475
I196
ag1285
aa(lp1476
I197
ag1215
aa(lp1477
I198
ag1295
aa(lp1478
I199
ag1233
aa(lp1479
I200
ag1226
aa(lp1480
I201
ag1449
aaaa(lp1481
I203
aI207
ag204
a(lp1482
(lp1483
I203
ag1221
aa(lp1484
I204
ag1228
aa(lp1485
I205
ag1228
aa(lp1486
I206
ag1215
aa(lp1487
I207
ag1237
aaaa(lp1488
I209
aI210
aS'at'
p1489
a(lp1490
(lp1491
I209
ag1244
aa(lp1492
I210
ag1215
aaaa(lp1493
I212
aI214
aS'the'
p1494
a(lp1495
(lp1496
I212
ag1215
aa(lp1497
I213
ag1295
aa(lp1498
I214
ag1228
aaaa(lp1499
I216
aI221
ag213
a(lp1500
(lp1501
I216
ag1217
aa(lp1502
I217
ag1295
aa(lp1503
I218
ag1285
aa(lp1504
I219
ag1215
aa(lp1505
I220
ag1295
aa(lp1506
I221
ag1221
aaaa(lp1507
I224
aI227
aS'this'
p1508
a(lp1509
(lp1510
I224
ag1215
aa(lp1511
I225
ag1295
aa(lp1512
I226
ag1233
aa(lp1513
I227
ag1237
aaaa(lp1514
I229
aI233
ag222
a(lp1515
(lp1516
I229
ag1221
aa(lp1517
I230
ag1228
aa(lp1518
I231
ag1244
aa(lp1519
I232
ag1226
aa(lp1520
I233
ag1237
aaaa(lp1521
I235
aI238
aS'that'
p1522
a(lp1523
(lp1524
I235
ag1215
aa(lp1525
I236
ag1295
aa(lp1526
I237
ag1244
aa(lp1527
I238
ag1215
aaaa(lp1528
I240
aI249
ag231
a(lp1529
(lp1530
I240
ag1228
aa(lp1531
I241
ag1472
aa(lp1532
I242
ag1228
aa(lp1533
I243
ag1217
aa(lp1534
I244
ag1285
aa(lp1535
I245
ag1215
aa(lp1536
I246
ag1295
aa(lp1537
I247
ag1233
aa(lp1538
I248
ag1226
aa(lp1539
I249
ag1449
aaaa(lp1540
I251
aI253
aS'you'
p1541
a(lp1542
(lp1543
I251
ag1285
aa(lp1544
I252
ag1219
aa(lp1545
I253
ag1333
aaaa(lp1546
I255
aI258
ag240
a(lp1547
(lp1548
I255
ag1221
aa(lp1549
I256
ag1333
aa(lp1550
I257
ag1237
aa(lp1551
I258
ag1215
aaaa(lp1552
I260
aI261
aS'do'
p1553
a(lp1554
(lp1555
I260
ag1378
aa(lp1556
I261
ag1219
aaaa(lp1557
I263
aI264
aS'to'
p1558
a(lp1559
(lp1560
I263
ag1215
aa(lp1561
I264
ag1219
aaaa(lp1562
I266
aI269
ag249
a(lp1563
(lp1564
I266
ag1235
aa(lp1565
I267
ag1241
aa(lp1566
I268
ag1244
aa(lp1567
I269
ag1285
aaaa(lp1568
I271
aI275
ag258
a(lp1569
(lp1570
I271
ag1221
aa(lp1571
I272
ag1333
aa(lp1572
I273
ag1237
aa(lp1573
I274
ag1233
aa(lp1574
I275
ag1258
aaaa(lp1575
I277
aI278
aS'on'
p1576
a(lp1577
(lp1578
I277
ag1219
aa(lp1579
I278
ag1226
aaaa(lp1580
I280
aI281
aS'an'
p1581
a(lp1582
(lp1583
I280
ag1244
aa(lp1584
I281
ag1226
aaaa(lp1585
I283
aI292
ag267
a(lp1586
(lp1587
I283
ag1233
aa(lp1588
I284
ag1226
aa(lp1589
I285
ag1237
aa(lp1590
I286
ag1215
aa(lp1591
I287
ag1217
aa(lp1592
I288
ag1333
aa(lp1593
I289
ag1221
aa(lp1594
I290
ag1228
aa(lp1595
I291
ag1226
aa(lp1596
I292
ag1215
aaaa(lp1597
I294
aI296
aS'you'
p1598
a(lp1599
(lp1600
I294
ag1285
aa(lp1601
I295
ag1219
aa(lp1602
I296
ag1333
aaaa(lp1603
I298
aI301
ag276
a(lp1604
(lp1605
I298
ag1221
aa(lp1606
I299
ag1333
aa(lp1607
I300
ag1237
aa(lp1608
I301
ag1215
aaaa(lp1609
I303
aI307
ag285
a(lp1610
(lp1611
I303
ag1241
aa(lp1612
I304
ag1228
aa(lp1613
I305
ag1244
aa(lp1614
I306
ag1217
aa(lp1615
I307
ag1226
aaaa(lp1616
I309
aI310
aS'to'
p1617
a(lp1618
(lp1619
I309
ag1215
aa(lp1620
I310
ag1219
aaaa(lp1621
I312
aI313
aS'do'
p1622
a(lp1623
(lp1624
I312
ag1378
aa(lp1625
I313
ag1219
aaaa(lp1626
I315
aI316
aS'in'
p1627
a(lp1628
(lp1629
I315
ag1233
aa(lp1630
I316
ag1226
aaaa(lp1631
I318
aI323
ag294
a(lp1632
(lp1633
I318
ag1217
aa(lp1634
I319
ag1295
aa(lp1635
I320
ag1285
aa(lp1636
I321
ag1215
aa(lp1637
I322
ag1295
aa(lp1638
I323
ag1221
aaaa(lp1639
I325
aI326
aS'at'
p1640
a(lp1641
(lp1642
I325
ag1244
aa(lp1643
I326
ag1215
aaaa(lp1644
I328
aI328
ag1244
a(lp1645
(lp1646
I328
ag1244
aaaa(lp1647
I330
aI335
ag303
a(lp1648
(lp1649
I330
ag1237
aa(lp1650
I331
ag1215
aa(lp1651
I332
ag1228
aa(lp1652
I333
ag1244
aa(lp1653
I334
ag1378
aa(lp1654
I335
ag1285
aaaa(lp1655
I337
aI341
ag312
a(lp1656
(lp1657
I337
ag1215
aa(lp1658
I338
ag1228
aa(lp1659
I339
ag1221
aa(lp1660
I340
ag1235
aa(lp1661
I341
ag1219
aaaa(lp1662
I344
aI346
aS'the'
p1663
a(lp1664
(lp1665
I344
ag1215
aa(lp1666
I345
ag1295
aa(lp1667
I346
ag1228
aaaa(lp1668
I348
aI352
ag321
a(lp1669
(lp1670
I348
ag1337
aa(lp1671
I349
ag1233
aa(lp1672
I350
ag1217
aa(lp1673
I351
ag1237
aa(lp1674
I352
ag1215
aaaa(lp1675
I354
aI357
ag330
a(lp1676
(lp1677
I354
ag1237
aa(lp1678
I355
ag1215
aa(lp1679
I356
ag1228
aa(lp1680
I357
ag1235
aaaa(lp1681
I359
aI360
aS'is'
p1682
a(lp1683
(lp1684
I359
ag1233
aa(lp1685
I360
ag1237
aaaa(lp1686
I362
aI363
aS'to'
p1687
a(lp1688
(lp1689
I362
ag1215
aa(lp1690
I363
ag1219
aaaa(lp1691
I365
aI370
ag339
a(lp1692
(lp1693
I365
ag1337
aa(lp1694
I366
ag1233
aa(lp1695
I367
ag1449
aa(lp1696
I368
ag1333
aa(lp1697
I369
ag1217
aa(lp1698
I370
ag1228
aaaa(lp1699
I372
aI374
aS'out'
p1700
a(lp1701
(lp1702
I372
ag1219
aa(lp1703
I373
ag1333
aa(lp1704
I374
ag1215
aaaa(lp1705
I376
aI378
aS'how'
p1706
a(lp1707
(lp1708
I376
ag1295
aa(lp1709
I377
ag1219
aa(lp1710
I378
ag1323
aaaa(lp1711
I380
aI382
aS'the'
p1712
a(lp1713
(lp1714
I380
ag1215
aa(lp1715
I381
ag1295
aa(lp1716
I382
ag1228
aaaa(lp1717
I384
aI389
ag348
a(lp1718
(lp1719
I384
ag1217
aa(lp1720
I385
ag1295
aa(lp1721
I386
ag1285
aa(lp1722
I387
ag1215
aa(lp1723
I388
ag1295
aa(lp1724
I389
ag1221
aaaa(lp1725
I391
aI394
ag357
a(lp1726
(lp1727
I391
ag1449
aa(lp1728
I392
ag1219
aa(lp1729
I393
ag1228
aa(lp1730
I394
ag1237
aaaa(lp1731
I397
aI399
ag366
a(lp1732
(lp1733
I397
ag1215
aa(lp1734
I398
ag1217
aa(lp1735
I399
ag1285
aaaa(lp1736
I401
aI406
ag375
a(lp1737
(lp1738
I401
ag1237
aa(lp1739
I402
ag1244
aa(lp1740
I403
ag1285
aa(lp1741
I404
ag1233
aa(lp1742
I405
ag1226
aa(lp1743
I406
ag1449
aaaa(lp1744
I408
aI410
aS'the'
p1745
a(lp1746
(lp1747
I408
ag1215
aa(lp1748
I409
ag1295
aa(lp1749
I410
ag1228
aaaa(lp1750
I412
aI417
ag384
a(lp1751
(lp1752
I412
ag1217
aa(lp1753
I413
ag1295
aa(lp1754
I414
ag1285
aa(lp1755
I415
ag1215
aa(lp1756
I416
ag1295
aa(lp1757
I417
ag1221
aaaa(lp1758
I419
aI421
aS'out'
p1759
a(lp1760
(lp1761
I419
ag1219
aa(lp1762
I420
ag1333
aa(lp1763
I421
ag1215
aaaa(lp1764
I423
aI426
ag393
a(lp1765
(lp1766
I423
ag1241
aa(lp1767
I424
ag1219
aa(lp1768
I425
ag1333
aa(lp1769
I426
ag1378
aaaa(lp1770
I428
aI429
aS'on'
p1771
a(lp1772
(lp1773
I428
ag1219
aa(lp1774
I429
ag1226
aaaa(lp1775
I431
aI433
ag402
a(lp1776
(lp1777
I431
ag1215
aa(lp1778
I432
ag1244
aa(lp1779
I433
ag1295
aaaa(lp1780
I436
aI438
aS'too'
p1781
a(lp1782
(lp1783
I436
ag1215
aa(lp1784
I437
ag1219
aa(lp1785
I438
ag1219
aaaa(lp1786
I441
aI442
aS'or'
p1787
a(lp1788
(lp1789
I441
ag1219
aa(lp1790
I442
ag1217
aaaa(lp1791
I444
aI446
ag411
a(lp1792
(lp1793
I444
ag1215
aa(lp1794
I445
ag1219
aa(lp1795
I446
ag1295
aaaa(lp1796
I449
aI457
ag420
a(lp1797
(lp1798
I449
ag1323
aa(lp1799
I450
ag1295
aa(lp1800
I451
ag1233
aa(lp1801
I452
ag1258
aa(lp1802
I453
ag1295
aa(lp1803
I454
ag1228
aa(lp1804
I455
ag1472
aa(lp1805
I456
ag1228
aa(lp1806
I457
ag1217
aaaa(lp1807
I459
aI461
aS'you'
p1808
a(lp1809
(lp1810
I459
ag1285
aa(lp1811
I460
ag1219
aa(lp1812
I461
ag1333
aaaa(lp1813
I463
aI465
ag429
a(lp1814
(lp1815
I463
ag1333
aa(lp1816
I464
ag1237
aa(lp1817
I465
ag1228
aaaa(lp1818
I468
aI471
ag438
a(lp1819
(lp1820
I468
ag1387
aa(lp1821
I469
ag1228
aa(lp1822
I470
ag1228
aa(lp1823
I471
ag1235
aaaa(lp1824
I473
aI475
aS'the'
p1825
a(lp1826
(lp1827
I473
ag1215
aa(lp1828
I474
ag1295
aa(lp1829
I475
ag1228
aaaa(lp1830
I477
aI481
ag447
a(lp1831
(lp1832
I477
ag1215
aa(lp1833
I478
ag1228
aa(lp1834
I479
ag1221
aa(lp1835
I480
ag1235
aa(lp1836
I481
ag1219
aaaa(lp1837
I483
aI488
ag456
a(lp1838
(lp1839
I483
ag1237
aa(lp1840
I484
ag1215
aa(lp1841
I485
ag1228
aa(lp1842
I486
ag1244
aa(lp1843
I487
ag1378
aa(lp1844
I488
ag1285
aaaa(lp1845
I490
aI492
aS'and'
p1846
a(lp1847
(lp1848
I490
ag1244
aa(lp1849
I491
ag1226
aa(lp1850
I492
ag1378
aaaa(lp1851
I494
aI496
ag465
a(lp1852
(lp1853
I494
ag1237
aa(lp1854
I495
ag1244
aa(lp1855
I496
ag1285
aaaa(lp1856
I498
aI500
aS'the'
p1857
a(lp1858
(lp1859
I498
ag1215
aa(lp1860
I499
ag1295
aa(lp1861
I500
ag1228
aaaa(lp1862
I502
aI507
ag474
a(lp1863
(lp1864
I502
ag1217
aa(lp1865
I503
ag1295
aa(lp1866
I504
ag1285
aa(lp1867
I505
ag1215
aa(lp1868
I506
ag1295
aa(lp1869
I507
ag1221
aaaa(lp1870
I509
aI512
aS'just'
p1871
a(lp1872
(lp1873
I509
aS'j'
p1874
aa(lp1875
I510
ag1333
aa(lp1876
I511
ag1237
aa(lp1877
I512
ag1215
aaaa(lp1878
I514
aI517
ag483
a(lp1879
(lp1880
I514
ag1241
aa(lp1881
I515
ag1233
aa(lp1882
I516
ag1387
aa(lp1883
I517
ag1228
aaaa(lp1884
I519
aI521
aS'you'
p1885
a(lp1886
(lp1887
I519
ag1285
aa(lp1888
I520
ag1219
aa(lp1889
I521
ag1333
aaaa(lp1890
I523
aI527
ag492
a(lp1891
(lp1892
I523
ag1323
aa(lp1893
I524
ag1219
aa(lp1894
I525
ag1333
aa(lp1895
I526
ag1241
aa(lp1896
I527
ag1378
aaaa(lp1897
I529
aI532
ag501
a(lp1898
(lp1899
I529
ag1235
aa(lp1900
I530
ag1241
aa(lp1901
I531
ag1244
aa(lp1902
I532
ag1285
aaaa(lp1903
I534
aI535
aS'it'
p1904
a(lp1905
(lp1906
I534
ag1233
aa(lp1907
I535
ag1215
aaaa(lp1908
I538
aI539
aS'if'
p1909
a(lp1910
(lp1911
I538
ag1233
aa(lp1912
I539
ag1337
aaaa(lp1913
I541
aI543
aS'you'
p1914
a(lp1915
(lp1916
I541
ag1285
aa(lp1917
I542
ag1219
aa(lp1918
I543
ag1333
aaaa(lp1919
I545
aI548
aS'have'
p1920
a(lp1921
(lp1922
I545
ag1295
aa(lp1923
I546
ag1244
aa(lp1924
I547
ag1472
aa(lp1925
I548
ag1228
aaaa(lp1926
I550
aI556
ag510
a(lp1927
(lp1928
I550
ag1215
aa(lp1929
I551
ag1217
aa(lp1930
I552
ag1219
aa(lp1931
I553
ag1333
aa(lp1932
I554
ag1223
aa(lp1933
I555
ag1241
aa(lp1934
I556
ag1228
aaaa(lp1935
I558
aI559
aS'in'
p1936
a(lp1937
(lp1938
I558
ag1233
aa(lp1939
I559
ag1226
aaaa(lp1940
I561
aI564
aS'some'
p1941
a(lp1942
(lp1943
I561
ag1237
aa(lp1944
I562
ag1219
aa(lp1945
I563
ag1221
aa(lp1946
I564
ag1228
aaaa(lp1947
I566
aI571
ag519
a(lp1948
(lp1949
I566
ag1235
aa(lp1950
I567
ag1241
aa(lp1951
I568
ag1244
aa(lp1952
I569
ag1258
aa(lp1953
I570
ag1228
aa(lp1954
I571
ag1237
aaaa(lp1955
I574
aI576
ag528
a(lp1956
(lp1957
I574
ag1237
aa(lp1958
I575
ag1228
aa(lp1959
I576
ag1228
aaaa(lp1960
I578
aI580
aS'how'
p1961
a(lp1962
(lp1963
I578
ag1295
aa(lp1964
I579
ag1219
aa(lp1965
I580
ag1323
aaaa(lp1966
I582
aI584
aS'the'
p1967
a(lp1968
(lp1969
I582
ag1215
aa(lp1970
I583
ag1295
aa(lp1971
I584
ag1228
aaaa(lp1972
I586
aI592
ag537
a(lp1973
(lp1974
I586
ag1217
aa(lp1975
I587
ag1295
aa(lp1976
I588
ag1285
aa(lp1977
I589
ag1215
aa(lp1978
I590
ag1295
aa(lp1979
I591
ag1221
aa(lp1980
I592
ag1237
aaaa(lp1981
I594
aI596
ag546
a(lp1982
(lp1983
I594
ag1244
aa(lp1984
I595
ag1378
aa(lp1985
I596
ag1378
aaaa(lp1986
I598
aI599
aS'up'
p1987
a(lp1988
(lp1989
I598
ag1333
aa(lp1990
I599
ag1235
aaaa(lp1991
I601
aI602
aS'to'
p1992
a(lp1993
(lp1994
I601
ag1215
aa(lp1995
I602
ag1219
aaaa(lp1996
I604
aI606
aS'the'
p1997
a(lp1998
(lp1999
I604
ag1215
aa(lp2000
I605
ag1295
aa(lp2001
I606
ag1228
aaaa(lp2002
I608
aI612
ag555
a(lp2003
(lp2004
I608
ag1223
aa(lp2005
I609
ag1228
aa(lp2006
I610
ag1244
aa(lp2007
I611
ag1215
aa(lp2008
I612
ag1237
aaaa(lp2009
I614
aI615
aS'in'
p2010
a(lp2011
(lp2012
I614
ag1233
aa(lp2013
I615
ag1226
aaaa(lp2014
I617
aI620
aS'each'
p2015
a(lp2016
(lp2017
I617
ag1228
aa(lp2018
I618
ag1244
aa(lp2019
I619
ag1258
aa(lp2020
I620
ag1295
aaaa(lp2021
I622
aI628
ag564
a(lp2022
(lp2023
I622
ag1221
aa(lp2024
I623
ag1228
aa(lp2025
I624
ag1244
aa(lp2026
I625
ag1237
aa(lp2027
I626
ag1333
aa(lp2028
I627
ag1217
aa(lp2029
I628
ag1228
aaaa(lp2030
I631
aI634
aS'what'
p2031
a(lp2032
(lp2033
I631
ag1323
aa(lp2034
I632
ag1295
aa(lp2035
I633
ag1244
aa(lp2036
I634
ag1215
aaaa(lp2037
I636
aI641
ag573
a(lp2038
(lp2039
I636
ag1217
aa(lp2040
I637
ag1295
aa(lp2041
I638
ag1285
aa(lp2042
I639
ag1215
aa(lp2043
I640
ag1295
aa(lp2044
I641
ag1221
aaaa(lp2045
I643
aI646
ag582
a(lp2046
(lp2047
I643
ag1333
aa(lp2048
I644
ag1237
aa(lp2049
I645
ag1228
aa(lp2050
I646
ag1237
aaaa(lp2051
I648
aI649
aS'up'
p2052
a(lp2053
(lp2054
I648
ag1333
aa(lp2055
I649
ag1235
aaaa(lp2056
I651
aI654
ag591
a(lp2057
(lp2058
I651
ag1223
aa(lp2059
I652
ag1228
aa(lp2060
I653
ag1244
aa(lp2061
I654
ag1215
aaaa(lp2062
I656
aI656
ag60
a(lp2063
(lp2064
I656
ag60
aaaa(lp2065
I659
aI662
ag608
a(lp2066
(lp2067
I659
ag1223
aa(lp2068
I660
ag1228
aa(lp2069
I661
ag1244
aa(lp2070
I662
ag1215
aaaa(lp2071
I664
aI678
ag617
a(lp2072
(lp2073
I664
aS'2'
p2074
aa(lp2075
I665
ag1266
aa(lp2076
I666
ag1268
aa(lp2077
I667
aS'\xa6'
p2078
aa(lp2079
I668
aS'3'
p2080
aa(lp2081
I669
ag1266
aa(lp2082
I670
ag1268
aa(lp2083
I671
ag2078
aa(lp2084
I672
aS'4'
p2085
aa(lp2086
I673
ag1266
aa(lp2087
I674
ag1268
aa(lp2088
I675
ag2078
aa(lp2089
I676
ag1228
aa(lp2090
I677
ag1215
aa(lp2091
I678
ag1258
aaaa(lp2092
I681
aI685
ag626
a(lp2093
(lp2094
I681
ag1241
aa(lp2095
I682
ag1228
aa(lp2096
I683
ag1244
aa(lp2097
I684
ag1217
aa(lp2098
I685
ag1226
aaaa(lp2099
I687
aI688
aS'to'
p2100
a(lp2101
(lp2102
I687
ag1215
aa(lp2103
I688
ag1219
aaaa(lp2104
I690
aI692
ag635
a(lp2105
(lp2106
I690
ag1237
aa(lp2107
I691
ag1244
aa(lp2108
I692
ag1285
aaaa(lp2109
I694
aI696
aS'the'
p2110
a(lp2111
(lp2112
I694
ag1215
aa(lp2113
I695
ag1295
aa(lp2114
I696
ag1228
aaaa(lp2115
I698
aI703
ag644
a(lp2116
(lp2117
I698
ag1217
aa(lp2118
I699
ag1295
aa(lp2119
I700
ag1285
aa(lp2120
I701
ag1215
aa(lp2121
I702
ag1295
aa(lp2122
I703
ag1221
aaaa(lp2123
I705
aI707
aS'out'
p2124
a(lp2125
(lp2126
I705
ag1219
aa(lp2127
I706
ag1333
aa(lp2128
I707
ag1215
aaaa(lp2129
I709
aI712
ag653
a(lp2130
(lp2131
I709
ag1241
aa(lp2132
I710
ag1219
aa(lp2133
I711
ag1333
aa(lp2134
I712
ag1378
aaaa(lp2135
I714
aI717
aS'very'
p2136
a(lp2137
(lp2138
I714
ag1472
aa(lp2139
I715
ag1228
aa(lp2140
I716
ag1217
aa(lp2141
I717
ag1285
aaaa(lp2142
I719
aI722
ag662
a(lp2143
(lp2144
I719
ag1323
aa(lp2145
I720
ag1228
aa(lp2146
I721
ag1241
aa(lp2147
I722
ag1241
aaaa(lp2148
I724
aI725
aS'so'
p2149
a(lp2150
(lp2151
I724
ag1237
aa(lp2152
I725
ag1219
aaaa(lp2153
I727
aI729
aS'you'
p2154
a(lp2155
(lp2156
I727
ag1285
aa(lp2157
I728
ag1219
aa(lp2158
I729
ag1333
aaaa(lp2159
I731
aI736
ag671
a(lp2160
(lp2161
I731
ag1217
aa(lp2162
I732
ag1228
aa(lp2163
I733
ag1244
aa(lp2164
I734
ag1241
aa(lp2165
I735
ag1241
aa(lp2166
I736
ag1285
aaaa(lp2167
I738
aI741
ag680
a(lp2168
(lp2169
I738
ag1387
aa(lp2170
I739
ag1226
aa(lp2171
I740
ag1219
aa(lp2172
I741
ag1323
aaaa(lp2173
I743
aI745
aS'how'
p2174
a(lp2175
(lp2176
I743
ag1295
aa(lp2177
I744
ag1219
aa(lp2178
I745
ag1323
aaaa(lp2179
I747
aI748
aS'it'
p2180
a(lp2181
(lp2182
I747
ag1233
aa(lp2183
I748
ag1215
aaaa(lp2184
I750
aI753
ag689
a(lp2185
(lp2186
I750
ag1449
aa(lp2187
I751
ag1219
aa(lp2188
I752
ag1228
aa(lp2189
I753
ag1237
aaaa(lp2190
I756
aI758
ag698
a(lp2191
(lp2192
I756
ag1333
aa(lp2193
I757
ag1237
aa(lp2194
I758
ag1228
aaaa(lp2195
I760
aI763
aS'this'
p2196
a(lp2197
(lp2198
I760
ag1215
aa(lp2199
I761
ag1295
aa(lp2200
I762
ag1233
aa(lp2201
I763
ag1237
aaaa(lp2202
I765
aI766
aS'as'
p2203
a(lp2204
(lp2205
I765
ag1244
aa(lp2206
I766
ag1237
aaaa(lp2207
I768
aI768
ag1244
a(lp2208
(lp2209
I768
ag1244
aaaa(lp2210
I770
aI773
ag707
a(lp2211
(lp2212
I770
ag1449
aa(lp2213
I771
ag1244
aa(lp2214
I772
ag1221
aa(lp2215
I773
ag1228
aaaa(lp2216
I775
aI776
aS'or'
p2217
a(lp2218
(lp2219
I775
ag1219
aa(lp2220
I776
ag1217
aaaa(lp2221
I778
aI781
ag716
a(lp2222
(lp2223
I778
ag1215
aa(lp2224
I779
ag1228
aa(lp2225
I780
ag1237
aa(lp2226
I781
ag1215
aaaa(lp2227
I783
aI784
aS'to'
p2228
a(lp2229
(lp2230
I783
ag1215
aa(lp2231
I784
ag1219
aaaa(lp2232
I786
aI788
ag725
a(lp2233
(lp2234
I786
ag1237
aa(lp2235
I787
ag1228
aa(lp2236
I788
ag1228
aaaa(lp2237
I790
aI792
aS'how'
p2238
a(lp2239
(lp2240
I790
ag1295
aa(lp2241
I791
ag1219
aa(lp2242
I792
ag1323
aaaa(lp2243
I794
aI797
ag734
a(lp2244
(lp2245
I794
ag1323
aa(lp2246
I795
ag1228
aa(lp2247
I796
ag1241
aa(lp2248
I797
ag1241
aaaa(lp2249
I799
aI801
aS'you'
p2250
a(lp2251
(lp2252
I799
ag1285
aa(lp2253
I800
ag1219
aa(lp2254
I801
ag1333
aaaa(lp2255
I803
aI805
aS'can'
p2256
a(lp2257
(lp2258
I803
ag1258
aa(lp2259
I804
ag1244
aa(lp2260
I805
ag1226
aaaa(lp2261
I807
aI809
ag743
a(lp2262
(lp2263
I807
ag1237
aa(lp2264
I808
ag1244
aa(lp2265
I809
ag1285
aaaa(lp2266
I811
aI813
aS'the'
p2267
a(lp2268
(lp2269
I811
ag1215
aa(lp2270
I812
ag1295
aa(lp2271
I813
ag1228
aaaa(lp2272
I815
aI820
ag752
a(lp2273
(lp2274
I815
ag1217
aa(lp2275
I816
ag1295
aa(lp2276
I817
ag1285
aa(lp2277
I818
ag1215
aa(lp2278
I819
ag1295
aa(lp2279
I820
ag1221
aaaa(lp2280
I822
aI827
aS'before'
p2281
a(lp2282
(lp2283
I822
ag1223
aa(lp2284
I823
ag1228
aa(lp2285
I824
ag1337
aa(lp2286
I825
ag1219
aa(lp2287
I826
ag1217
aa(lp2288
I827
ag1228
aaaa(lp2289
I829
aI831
aS'you'
p2290
a(lp2291
(lp2292
I829
ag1285
aa(lp2293
I830
ag1219
aa(lp2294
I831
ag1333
aaaa(lp2295
I833
aI834
aS'do'
p2296
a(lp2297
(lp2298
I833
ag1378
aa(lp2299
I834
ag1219
aaaa(lp2300
I836
aI843
ag761
a(lp2301
(lp2302
I836
ag1244
aa(lp2303
I837
ag1226
aa(lp2304
I838
ag1285
aa(lp2305
I839
ag1215
aa(lp2306
I840
ag1295
aa(lp2307
I841
ag1233
aa(lp2308
I842
ag1226
aa(lp2309
I843
ag1449
aaaa(lp2310
I845
aI848
ag770
a(lp2311
(lp2312
I845
ag1228
aa(lp2313
I846
ag1241
aa(lp2314
I847
ag1237
aa(lp2315
I848
ag1228
aaaa(lp2316
I850
aI853
aS'with'
p2317
a(lp2318
(lp2319
I850
ag1323
aa(lp2320
I851
ag1233
aa(lp2321
I852
ag1215
aa(lp2322
I853
ag1295
aaaa(lp2323
I855
aI857
aS'the'
p2324
a(lp2325
(lp2326
I855
ag1215
aa(lp2327
I856
ag1295
aa(lp2328
I857
ag1228
aaaa(lp2329
I859
aI863
ag779
a(lp2330
(lp2331
I859
ag1221
aa(lp2332
I860
ag1333
aa(lp2333
I861
ag1237
aa(lp2334
I862
ag1233
aa(lp2335
I863
ag1258
aaaa(lp2336
I866
aI869
aS'some'
p2337
a(lp2338
(lp2339
I866
ag1237
aa(lp2340
I867
ag1219
aa(lp2341
I868
ag1221
aa(lp2342
I869
ag1228
aaaa(lp2343
I871
aI875
ag788
a(lp2344
(lp2345
I871
ag1221
aa(lp2346
I872
ag1333
aa(lp2347
I873
ag1237
aa(lp2348
I874
ag1233
aa(lp2349
I875
ag1258
aaaa(lp2350
I877
aI880
aS'will'
p2351
a(lp2352
(lp2353
I877
ag1323
aa(lp2354
I878
ag1233
aa(lp2355
I879
ag1241
aa(lp2356
I880
ag1241
aaaa(lp2357
I882
aI883
aS'be'
p2358
a(lp2359
(lp2360
I882
ag1223
aa(lp2361
I883
ag1228
aaaa(lp2362
I885
aI888
ag797
a(lp2363
(lp2364
I885
ag1228
aa(lp2365
I886
ag1244
aa(lp2366
I887
ag1237
aa(lp2367
I888
ag1285
aaaa(lp2368
I891
aI894
aS'some'
p2369
a(lp2370
(lp2371
I891
ag1237
aa(lp2372
I892
ag1219
aa(lp2373
I893
ag1221
aa(lp2374
I894
ag1228
aaaa(lp2375
I896
aI900
ag806
a(lp2376
(lp2377
I896
ag1221
aa(lp2378
I897
ag1333
aa(lp2379
I898
ag1237
aa(lp2380
I899
ag1233
aa(lp2381
I900
ag1258
aaaa(lp2382
I902
aI905
aS'will'
p2383
a(lp2384
(lp2385
I902
ag1323
aa(lp2386
I903
ag1233
aa(lp2387
I904
ag1241
aa(lp2388
I905
ag1241
aaaa(lp2389
I907
aI909
aS'not'
p2390
a(lp2391
(lp2392
I907
ag1226
aa(lp2393
I908
ag1219
aa(lp2394
I909
ag1215
aaaa(lp2395
I911
aI912
aS'be'
p2396
a(lp2397
(lp2398
I911
ag1223
aa(lp2399
I912
ag1228
aaaa(lp2400
I914
aI915
aS'so'
p2401
a(lp2402
(lp2403
I914
ag1237
aa(lp2404
I915
ag1219
aaaa(lp2405
I917
aI920
ag815
a(lp2406
(lp2407
I917
ag1228
aa(lp2408
I918
ag1244
aa(lp2409
I919
ag1237
aa(lp2410
I920
ag1285
aaaa(lp2411
I923
aI925
aS'you'
p2412
a(lp2413
(lp2414
I923
ag1285
aa(lp2415
I924
ag1219
aa(lp2416
I925
ag1333
aaaa(lp2417
I927
aI929
ag824
a(lp2418
(lp2419
I927
ag1221
aa(lp2420
I928
ag1244
aa(lp2421
I929
ag1285
aaaa(lp2422
I931
aI932
aS'be'
p2423
a(lp2424
(lp2425
I931
ag1223
aa(lp2426
I932
ag1228
aaaa(lp2427
I934
aI942
ag833
a(lp2428
(lp2429
I934
ag1237
aa(lp2430
I935
ag1333
aa(lp2431
I936
ag1217
aa(lp2432
I937
ag1235
aa(lp2433
I938
ag1217
aa(lp2434
I939
ag1233
aa(lp2435
I940
ag1237
aa(lp2436
I941
ag1228
aa(lp2437
I942
ag1378
aaaa(lp2438
I944
aI947
aS'that'
p2439
a(lp2440
(lp2441
I944
ag1215
aa(lp2442
I945
ag1295
aa(lp2443
I946
ag1244
aa(lp2444
I947
ag1215
aaaa(lp2445
I949
aI951
aS'you'
p2446
a(lp2447
(lp2448
I949
ag1285
aa(lp2449
I950
ag1219
aa(lp2450
I951
ag1333
aaaa(lp2451
I953
aI956
ag842
a(lp2452
(lp2453
I953
ag1226
aa(lp2454
I954
ag1228
aa(lp2455
I955
ag1228
aa(lp2456
I956
ag1378
aaaa(lp2457
I958
aI959
aS'to'
p2458
a(lp2459
(lp2460
I958
ag1215
aa(lp2461
I959
ag1219
aaaa(lp2462
I961
aI964
ag851
a(lp2463
(lp2464
I961
ag1323
aa(lp2465
I962
ag1219
aa(lp2466
I963
ag1217
aa(lp2467
I964
ag1387
aaaa(lp2468
I966
aI967
aS'on'
p2469
a(lp2470
(lp2471
I966
ag1219
aa(lp2472
I967
ag1226
aaaa(lp2473
I969
aI971
aS'the'
p2474
a(lp2475
(lp2476
I969
ag1215
aa(lp2477
I970
ag1295
aa(lp2478
I971
ag1228
aaaa(lp2479
I973
aI978
ag860
a(lp2480
(lp2481
I973
ag1217
aa(lp2482
I974
ag1295
aa(lp2483
I975
ag1285
aa(lp2484
I976
ag1215
aa(lp2485
I977
ag1295
aa(lp2486
I978
ag1221
aaaa(lp2487
I980
aI981
aS'as'
p2488
a(lp2489
(lp2490
I980
ag1244
aa(lp2491
I981
ag1237
aaaa(lp2492
I983
aI986
ag869
a(lp2493
(lp2494
I983
ag1221
aa(lp2495
I984
ag1333
aa(lp2496
I985
ag1258
aa(lp2497
I986
ag1295
aaaa(lp2498
I988
aI990
aS'you'
p2499
a(lp2500
(lp2501
I988
ag1285
aa(lp2502
I989
ag1219
aa(lp2503
I990
ag1333
aaaa(lp2504
I992
aI995
ag878
a(lp2505
(lp2506
I992
ag1337
aa(lp2507
I993
ag1233
aa(lp2508
I994
ag1226
aa(lp2509
I995
ag1378
aaaa(lp2510
I997
aI1000
aS'that'
p2511
a(lp2512
(lp2513
I997
ag1215
aa(lp2514
I998
ag1295
aa(lp2515
I999
ag1244
aa(lp2516
I1000
ag1215
aaaa(lp2517
I1002
aI1004
aS'you'
p2518
a(lp2519
(lp2520
I1002
ag1285
aa(lp2521
I1003
ag1219
aa(lp2522
I1004
ag1333
aaaa(lp2523
I1006
aI1007
aS'do'
p2524
a(lp2525
(lp2526
I1006
ag1378
aa(lp2527
I1007
ag1219
aaaa(lp2528
I1010
aI1017
ag887
a(lp2529
(lp2530
I1010
ag1217
aa(lp2531
I1011
ag1228
aa(lp2532
I1012
ag1221
aa(lp2533
I1013
ag1228
aa(lp2534
I1014
ag1221
aa(lp2535
I1015
ag1223
aa(lp2536
I1016
ag1228
aa(lp2537
I1017
ag1217
aaaa(lp2538
I1020
aI1029
ag896
a(lp2539
(lp2540
I1020
ag1228
aa(lp2541
I1021
ag1472
aa(lp2542
I1022
ag1228
aa(lp2543
I1023
ag1217
aa(lp2544
I1024
ag1285
aa(lp2545
I1025
ag1215
aa(lp2546
I1026
ag1295
aa(lp2547
I1027
ag1233
aa(lp2548
I1028
ag1226
aa(lp2549
I1029
ag1449
aaaa(lp2550
I1031
aI1034
ag905
a(lp2551
(lp2552
I1031
ag1228
aa(lp2553
I1032
ag1241
aa(lp2554
I1033
ag1237
aa(lp2555
I1034
ag1228
aaaa(lp2556
I1036
aI1038
aS'you'
p2557
a(lp2558
(lp2559
I1036
ag1285
aa(lp2560
I1037
ag1219
aa(lp2561
I1038
ag1333
aaaa(lp2562
I1040
aI1041
aS'do'
p2563
a(lp2564
(lp2565
I1040
ag1378
aa(lp2566
I1041
ag1219
aaaa(lp2567
I1043
aI1044
aS'to'
p2568
a(lp2569
(lp2570
I1043
ag1215
aa(lp2571
I1044
ag1219
aaaa(lp2572
I1046
aI1049
ag914
a(lp2573
(lp2574
I1046
ag1235
aa(lp2575
I1047
ag1241
aa(lp2576
I1048
ag1244
aa(lp2577
I1049
ag1285
aaaa(lp2578
I1051
aI1054
aS'your'
p2579
a(lp2580
(lp2581
I1051
ag1285
aa(lp2582
I1052
ag1219
aa(lp2583
I1053
ag1333
aa(lp2584
I1054
ag1217
aaaa(lp2585
I1056
aI1060
ag923
a(lp2586
(lp2587
I1056
ag1221
aa(lp2588
I1057
ag1333
aa(lp2589
I1058
ag1237
aa(lp2590
I1059
ag1233
aa(lp2591
I1060
ag1258
aaaa(lp2592
I1062
aI1063
aS'on'
p2593
a(lp2594
(lp2595
I1062
ag1219
aa(lp2596
I1063
ag1226
aaaa(lp2597
I1065
aI1068
aS'your'
p2598
a(lp2599
(lp2600
I1065
ag1285
aa(lp2601
I1066
ag1219
aa(lp2602
I1067
ag1333
aa(lp2603
I1068
ag1217
aaaa(lp2604
I1070
aI1079
ag932
a(lp2605
(lp2606
I1070
ag1233
aa(lp2607
I1071
ag1226
aa(lp2608
I1072
ag1237
aa(lp2609
I1073
ag1215
aa(lp2610
I1074
ag1217
aa(lp2611
I1075
ag1333
aa(lp2612
I1076
ag1221
aa(lp2613
I1077
ag1228
aa(lp2614
I1078
ag1226
aa(lp2615
I1079
ag1215
aaaa(lp2616
I1081
aI1084
ag941
a(lp2617
(lp2618
I1081
ag1221
aa(lp2619
I1082
ag1333
aa(lp2620
I1083
ag1237
aa(lp2621
I1084
ag1215
aaaa(lp2622
I1086
aI1087
aS'be'
p2623
a(lp2624
(lp2625
I1086
ag1223
aa(lp2626
I1087
ag1228
aaaa(lp2627
I1089
aI1090
aS'in'
p2628
a(lp2629
(lp2630
I1089
ag1233
aa(lp2631
I1090
ag1226
aaaa(lp2632
I1092
aI1097
ag950
a(lp2633
(lp2634
I1092
ag1217
aa(lp2635
I1093
ag1295
aa(lp2636
I1094
ag1285
aa(lp2637
I1095
ag1215
aa(lp2638
I1096
ag1295
aa(lp2639
I1097
ag1221
aaaa(lp2640
I1100
aI1101
aS'it'
p2641
a(lp2642
(lp2643
I1100
ag1233
aa(lp2644
I1101
ag1215
aaaa(lp2645
I1103
aI1104
aS'is'
p2646
a(lp2647
(lp2648
I1103
ag1233
aa(lp2649
I1104
ag1237
aaaa(lp2650
I1106
aI1114
ag959
a(lp2651
(lp2652
I1106
ag1233
aa(lp2653
I1107
ag1221
aa(lp2654
I1108
ag1235
aa(lp2655
I1109
ag1219
aa(lp2656
I1110
ag1217
aa(lp2657
I1111
ag1215
aa(lp2658
I1112
ag1244
aa(lp2659
I1113
ag1226
aa(lp2660
I1114
ag1215
aaaa(lp2661
I1116
aI1119
aS'that'
p2662
a(lp2663
(lp2664
I1116
ag1215
aa(lp2665
I1117
ag1295
aa(lp2666
I1118
ag1244
aa(lp2667
I1119
ag1215
aaaa(lp2668
I1121
aI1123
aS'you'
p2669
a(lp2670
(lp2671
I1121
ag1285
aa(lp2672
I1122
ag1219
aa(lp2673
I1123
ag1333
aaaa(lp2674
I1125
aI1127
aS'can'
p2675
a(lp2676
(lp2677
I1125
ag1258
aa(lp2678
I1126
ag1244
aa(lp2679
I1127
ag1226
aaaa(lp2680
I1129
aI1131
ag968
a(lp2681
(lp2682
I1129
ag1237
aa(lp2683
I1130
ag1244
aa(lp2684
I1131
ag1285
aaaa(lp2685
I1133
aI1135
aS'the'
p2686
a(lp2687
(lp2688
I1133
ag1215
aa(lp2689
I1134
ag1295
aa(lp2690
I1135
ag1228
aaaa(lp2691
I1137
aI1142
ag977
a(lp2692
(lp2693
I1137
ag1217
aa(lp2694
I1138
ag1295
aa(lp2695
I1139
ag1285
aa(lp2696
I1140
ag1215
aa(lp2697
I1141
ag1295
aa(lp2698
I1142
ag1221
aaaa(lp2699
I1144
aI1146
aS'out'
p2700
a(lp2701
(lp2702
I1144
ag1219
aa(lp2703
I1145
ag1333
aa(lp2704
I1146
ag1215
aaaa(lp2705
I1148
aI1151
ag986
a(lp2706
(lp2707
I1148
ag1241
aa(lp2708
I1149
ag1219
aa(lp2709
I1150
ag1333
aa(lp2710
I1151
ag1378
aaaa(lp2711
I1153
aI1161
ag995
a(lp2712
(lp2713
I1153
ag1258
aa(lp2714
I1154
ag1219
aa(lp2715
I1155
ag1217
aa(lp2716
I1156
ag1217
aa(lp2717
I1157
ag1228
aa(lp2718
I1158
ag1258
aa(lp2719
I1159
ag1215
aa(lp2720
I1160
ag1241
aa(lp2721
I1161
ag1285
aaaa(lp2722
I1163
aI1167
ag1004
a(lp2723
(lp2724
I1163
ag1337
aa(lp2725
I1164
ag1233
aa(lp2726
I1165
ag1217
aa(lp2727
I1166
ag1237
aa(lp2728
I1167
ag1215
aaaa(lp2729
I1170
aI1171
aS'if'
p2730
a(lp2731
(lp2732
I1170
ag1233
aa(lp2733
I1171
ag1337
aaaa(lp2734
I1173
aI1175
aS'you'
p2735
a(lp2736
(lp2737
I1173
ag1285
aa(lp2738
I1174
ag1219
aa(lp2739
I1175
ag1333
aaaa(lp2740
I1177
aI1179
aS'can'
p2741
a(lp2742
(lp2743
I1177
ag1258
aa(lp2744
I1178
ag1244
aa(lp2745
I1179
ag1226
aaaa(lp2746
I1181
aI1183
ag1013
a(lp2747
(lp2748
I1181
ag1237
aa(lp2749
I1182
ag1244
aa(lp2750
I1183
ag1285
aaaa(lp2751
I1185
aI1186
aS'it'
p2752
a(lp2753
(lp2754
I1185
ag1233
aa(lp2755
I1186
ag1215
aaaa(lp2756
I1188
aI1189
aS'in'
p2757
a(lp2758
(lp2759
I1188
ag1233
aa(lp2760
I1189
ag1226
aaaa(lp2761
I1191
aI1196
ag1022
a(lp2762
(lp2763
I1191
ag1217
aa(lp2764
I1192
ag1295
aa(lp2765
I1193
ag1285
aa(lp2766
I1194
ag1215
aa(lp2767
I1195
ag1295
aa(lp2768
I1196
ag1221
aaaa(lp2769
I1199
aI1202
aS'then'
p2770
a(lp2771
(lp2772
I1199
ag1215
aa(lp2773
I1200
ag1295
aa(lp2774
I1201
ag1228
aa(lp2775
I1202
ag1226
aaaa(lp2776
I1204
aI1206
aS'you'
p2777
a(lp2778
(lp2779
I1204
ag1285
aa(lp2780
I1205
ag1219
aa(lp2781
I1206
ag1333
aaaa(lp2782
I1208
aI1210
aS'can'
p2783
a(lp2784
(lp2785
I1208
ag1258
aa(lp2786
I1209
ag1244
aa(lp2787
I1210
ag1226
aaaa(lp2788
I1212
aI1215
ag1031
a(lp2789
(lp2790
I1212
ag1237
aa(lp2791
I1213
ag1215
aa(lp2792
I1214
ag1244
aa(lp2793
I1215
ag1285
aaaa(lp2794
I1217
aI1218
aS'in'
p2795
a(lp2796
(lp2797
I1217
ag1233
aa(lp2798
I1218
ag1226
aaaa(lp2799
I1220
aI1225
ag1040
a(lp2800
(lp2801
I1220
ag1217
aa(lp2802
I1221
ag1295
aa(lp2803
I1222
ag1285
aa(lp2804
I1223
ag1215
aa(lp2805
I1224
ag1295
aa(lp2806
I1225
ag1221
aaaa(lp2807
I1227
aI1228
aS'as'
p2808
a(lp2809
(lp2810
I1227
ag1244
aa(lp2811
I1228
ag1237
aaaa(lp2812
I1230
aI1232
aS'you'
p2813
a(lp2814
(lp2815
I1230
ag1285
aa(lp2816
I1231
ag1219
aa(lp2817
I1232
ag1333
aaaa(lp2818
I1234
aI1238
ag1049
a(lp2819
(lp2820
I1234
ag1241
aa(lp2821
I1235
ag1228
aa(lp2822
I1236
ag1244
aa(lp2823
I1237
ag1217
aa(lp2824
I1238
ag1226
aaaa(lp2825
I1240
aI1241
aS'to'
p2826
a(lp2827
(lp2828
I1240
ag1215
aa(lp2829
I1241
ag1219
aaaa(lp2830
I1243
aI1246
ag1058
a(lp2831
(lp2832
I1243
ag1235
aa(lp2833
I1244
ag1241
aa(lp2834
I1245
ag1244
aa(lp2835
I1246
ag1285
aaaa(lp2836
I1248
aI1254
aS'because'
p2837
a(lp2838
(lp2839
I1248
ag1223
aa(lp2840
I1249
ag1228
aa(lp2841
I1250
ag1258
aa(lp2842
I1251
ag1244
aa(lp2843
I1252
ag1333
aa(lp2844
I1253
ag1237
aa(lp2845
I1254
ag1228
aaaa(lp2846
I1256
aI1258
aS'you'
p2847
a(lp2848
(lp2849
I1256
ag1285
aa(lp2850
I1257
ag1219
aa(lp2851
I1258
ag1333
aaaa(lp2852
I1260
aI1266
ag1067
a(lp2853
(lp2854
I1260
ag1244
aa(lp2855
I1261
ag1241
aa(lp2856
I1262
ag1217
aa(lp2857
I1263
ag1228
aa(lp2858
I1264
ag1244
aa(lp2859
I1265
ag1378
aa(lp2860
I1266
ag1285
aaaa(lp2861
I1268
aI1271
ag1076
a(lp2862
(lp2863
I1268
ag1387
aa(lp2864
I1269
ag1226
aa(lp2865
I1270
ag1219
aa(lp2866
I1271
ag1323
aaaa(lp2867
I1273
aI1275
aS'how'
p2868
a(lp2869
(lp2870
I1273
ag1295
aa(lp2871
I1274
ag1219
aa(lp2872
I1275
ag1323
aaaa(lp2873
I1277
aI1279
aS'the'
p2874
a(lp2875
(lp2876
I1277
ag1215
aa(lp2877
I1278
ag1295
aa(lp2878
I1279
ag1228
aaaa(lp2879
I1281
aI1286
ag1085
a(lp2880
(lp2881
I1281
ag1217
aa(lp2882
I1282
ag1295
aa(lp2883
I1283
ag1285
aa(lp2884
I1284
ag1215
aa(lp2885
I1285
ag1295
aa(lp2886
I1286
ag1221
aaaa(lp2887
I1288
aI1291
ag1094
a(lp2888
(lp2889
I1288
ag1449
aa(lp2890
I1289
ag1219
aa(lp2891
I1290
ag1228
aa(lp2892
I1291
ag1237
aaaa(lp2893
I1294
aI1295
aS'if'
p2894
a(lp2895
(lp2896
I1294
ag1233
aa(lp2897
I1295
ag1337
aaaa(lp2898
I1297
aI1299
aS'you'
p2899
a(lp2900
(lp2901
I1297
ag1285
aa(lp2902
I1298
ag1219
aa(lp2903
I1299
ag1333
aaaa(lp2904
I1301
aI1304
ag1103
a(lp2905
(lp2906
I1301
ag1235
aa(lp2907
I1302
ag1241
aa(lp2908
I1303
ag1244
aa(lp2909
I1304
ag1285
aaaa(lp2910
I1306
aI1308
aS'out'
p2911
a(lp2912
(lp2913
I1306
ag1219
aa(lp2914
I1307
ag1333
aa(lp2915
I1308
ag1215
aaaa(lp2916
I1310
aI1311
aS'of'
p2917
a(lp2918
(lp2919
I1310
ag1219
aa(lp2920
I1311
ag1337
aaaa(lp2921
I1313
aI1318
ag1112
a(lp2922
(lp2923
I1313
ag1217
aa(lp2924
I1314
ag1295
aa(lp2925
I1315
ag1285
aa(lp2926
I1316
ag1215
aa(lp2927
I1317
ag1295
aa(lp2928
I1318
ag1221
aaaa(lp2929
I1321
aI1323
aS'you'
p2930
a(lp2931
(lp2932
I1321
ag1285
aa(lp2933
I1322
ag1219
aa(lp2934
I1323
ag1333
aaaa(lp2935
I1325
aI1328
aS'will'
p2936
a(lp2937
(lp2938
I1325
ag1323
aa(lp2939
I1326
ag1233
aa(lp2940
I1327
ag1241
aa(lp2941
I1328
ag1241
aaaa(lp2942
I1330
aI1331
aS'be'
p2943
a(lp2944
(lp2945
I1330
ag1223
aa(lp2946
I1331
ag1228
aaaa(lp2947
I1333
aI1336
ag1121
a(lp2948
(lp2949
I1333
ag1244
aa(lp2950
I1334
ag1223
aa(lp2951
I1335
ag1241
aa(lp2952
I1336
ag1228
aaaa(lp2953
I1338
aI1339
aS'to'
p2954
a(lp2955
(lp2956
I1338
ag1215
aa(lp2957
I1339
ag1219
aaaa(lp2958
I1341
aI1344
ag1130
a(lp2959
(lp2960
I1341
ag1215
aa(lp2961
I1342
ag1228
aa(lp2962
I1343
ag1241
aa(lp2963
I1344
ag1241
aaaa(lp2964
I1346
aI1348
aS'the'
p2965
a(lp2966
(lp2967
I1346
ag1215
aa(lp2968
I1347
ag1295
aa(lp2969
I1348
ag1228
aaaa(lp2970
I1350
aI1359
ag1139
a(lp2971
(lp2972
I1350
ag1378
aa(lp2973
I1351
ag1233
aa(lp2974
I1352
ag1337
aa(lp2975
I1353
ag1337
aa(lp2976
I1354
ag1228
aa(lp2977
I1355
ag1217
aa(lp2978
I1356
ag1228
aa(lp2979
I1357
ag1226
aa(lp2980
I1358
ag1258
aa(lp2981
I1359
ag1228
aaaa(lp2982
I1361
aI1362
aS'so'
p2983
a(lp2984
(lp2985
I1361
ag1237
aa(lp2986
I1362
ag1219
aaaa(lp2987
I1364
aI1366
aS'you'
p2988
a(lp2989
(lp2990
I1364
ag1285
aa(lp2991
I1365
ag1219
aa(lp2992
I1366
ag1333
aaaa(lp2993
I1368
aI1370
aS'can'
p2994
a(lp2995
(lp2996
I1368
ag1258
aa(lp2997
I1369
ag1244
aa(lp2998
I1370
ag1226
aaaa(lp2999
I1372
aI1378
ag1148
a(lp3000
(lp3001
I1372
ag1258
aa(lp3002
I1373
ag1219
aa(lp3003
I1374
ag1217
aa(lp3004
I1375
ag1217
aa(lp3005
I1376
ag1228
aa(lp3006
I1377
ag1258
aa(lp3007
I1378
ag1215
aaaa(lp3008
I1380
aI1387
aS'yourself'
p3009
a(lp3010
(lp3011
I1380
ag1285
aa(lp3012
I1381
ag1219
aa(lp3013
I1382
ag1333
aa(lp3014
I1383
ag1217
aa(lp3015
I1384
ag1237
aa(lp3016
I1385
ag1228
aa(lp3017
I1386
ag1241
aa(lp3018
I1387
ag1337
aaaa(lp3019
I1389
aI1391
aS'and'
p3020
a(lp3021
(lp3022
I1389
ag1244
aa(lp3023
I1390
ag1226
aa(lp3024
I1391
ag1378
aaaa(lp3025
I1393
aI1396
ag1157
a(lp3026
(lp3027
I1393
ag1235
aa(lp3028
I1394
ag1241
aa(lp3029
I1395
ag1244
aa(lp3030
I1396
ag1285
aaaa(lp3031
I1398
aI1399
aS'in'
p3032
a(lp3033
(lp3034
I1398
ag1233
aa(lp3035
I1399
ag1226
aaaa(lp3036
I1401
aI1406
ag1166
a(lp3037
(lp3038
I1401
ag1217
aa(lp3039
I1402
ag1295
aa(lp3040
I1403
ag1285
aa(lp3041
I1404
ag1215
aa(lp3042
I1405
ag1295
aa(lp3043
I1406
ag1221
aaaa(lp3044
I1408
aI1409
aS'as'
p3045
a(lp3046
(lp3047
I1408
ag1244
aa(lp3048
I1409
ag1237
aaaa(lp3049
I1411
aI1413
aS'you'
p3050
a(lp3051
(lp3052
I1411
ag1285
aa(lp3053
I1412
ag1219
aa(lp3054
I1413
ag1333
aaaa(lp3055
I1415
aI1422
ag1175
a(lp3056
(lp3057
I1415
ag1235
aa(lp3058
I1416
ag1217
aa(lp3059
I1417
ag1244
aa(lp3060
I1418
ag1258
aa(lp3061
I1419
ag1215
aa(lp3062
I1420
ag1233
aa(lp3063
I1421
ag1258
aa(lp3064
I1422
ag1228
aaaa(lp3065
I1425
aI1433
ag1184
a(lp3066
(lp3067
I1425
ag1258
aa(lp3068
I1426
ag1219
aa(lp3069
I1427
ag1235
aa(lp3070
I1428
ag1285
aa(lp3071
I1429
ag1217
aa(lp3072
I1430
ag1233
aa(lp3073
I1431
ag1449
aa(lp3074
I1432
ag1295
aa(lp3075
I1433
ag1215
aaaa(lp3076
I1435
aI1440
ag1193
a(lp3077
(lp3078
I1435
ag1226
aa(lp3079
I1436
ag1219
aa(lp3080
I1437
ag1217
aa(lp3081
I1438
ag1241
aa(lp3082
I1439
ag1244
aa(lp3083
I1440
ag1226
aaaa(lp3084
I1442
aI1447
ag1202
a(lp3085
(lp3086
I1442
ag1223
aa(lp3087
I1443
ag1228
aa(lp3088
I1444
ag1323
aa(lp3089
I1445
ag1241
aa(lp3090
I1446
ag1228
aa(lp3091
I1447
ag1285
aaaasS'cleanCharacterMap'
p3092
(lp3093
g1214
ag1216
ag1218
ag1220
ag1222
ag1224
ag1225
ag1227
a(lp3094
I9
aS' '
p3095
aag1231
ag1232
ag1234
ag1236
a(lp3096
I15
ag3095
aag1240
ag1242
ag1243
ag1245
ag1246
a(lp3097
I22
ag3095
aag1250
ag1251
a(lp3098
I25
ag3095
aag1254
ag1255
ag1256
ag1257
ag1259
ag1260
ag1261
ag1262
a(lp3099
I34
ag3095
aag1265
ag1267
ag1269
a(lp3100
I38
ag3095
aag1273
ag1274
ag1275
ag1276
a(lp3101
I43
ag3095
aag1279
a(lp3102
I46
ag3095
aag1282
ag1283
ag1284
a(lp3103
I50
ag3095
aag1289
ag1290
a(lp3104
I53
ag3095
aag1293
ag1294
ag1296
ag1297
ag1298
ag1299
a(lp3105
I61
ag3095
aag1302
ag1303
ag1304
ag1305
a(lp3106
I66
ag3095
aag1309
ag1310
a(lp3107
I69
ag3095
aag1313
ag1314
ag1315
ag1316
ag1317
ag1318
a(lp3108
I77
ag3095
aag1322
ag1324
ag1325
ag1326
a(lp3109
I82
ag3095
aag1330
ag1331
ag1332
a(lp3110
I86
ag3095
aag1336
ag1338
ag1339
ag1340
ag1341
a(lp3111
I92
ag3095
aag1344
ag1345
ag1346
ag1347
ag1348
ag1349
ag1350
ag1351
a(lp3112
I101
ag3095
aag1355
ag1356
ag1357
ag1358
a(lp3113
I106
ag3095
aag1361
ag1362
ag1363
ag1364
ag1365
a(lp3114
I113
ag3095
aag1369
ag1370
ag1371
a(lp3115
I117
ag3095
aag1374
ag1375
ag1376
ag1377
a(lp3116
I122
ag3095
aag1382
ag1383
a(lp3117
I125
ag3095
aag1386
ag1388
ag1389
ag1390
a(lp3118
I130
ag3095
aag1394
ag1395
ag1396
a(lp3119
I134
ag3095
aag1400
ag1401
ag1402
a(lp3120
I138
ag3095
aag1405
ag1406
ag1407
ag1408
ag1409
ag1410
a(lp3121
I145
ag3095
aag1413
ag1414
ag1415
ag1416
ag1417
ag1418
a(lp3122
I152
ag3095
aag1422
ag1423
ag1424
ag1425
ag1426
ag1427
a(lp3123
I159
ag3095
aag1431
ag1432
ag1433
a(lp3124
I163
ag3095
aag1437
ag1438
a(lp3125
I166
ag3095
aag1441
ag1442
ag1443
ag1444
ag1445
ag1446
ag1447
ag1448
a(lp3126
I175
ag3095
aag1452
ag1453
ag1454
ag1455
a(lp3127
I181
ag3095
aag1459
ag1460
a(lp3128
I184
ag3095
aag1463
ag1464
ag1465
ag1466
ag1467
a(lp3129
I191
ag3095
aag1470
ag1471
ag1473
ag1474
ag1475
ag1476
ag1477
ag1478
ag1479
ag1480
a(lp3130
I202
ag3095
aag1483
ag1484
ag1485
ag1486
ag1487
a(lp3131
I208
ag3095
aag1491
ag1492
a(lp3132
I211
ag3095
aag1496
ag1497
ag1498
a(lp3133
I215
ag3095
aag1501
ag1502
ag1503
ag1504
ag1505
ag1506
a(lp3134
I223
ag3095
aag1510
ag1511
ag1512
ag1513
a(lp3135
I228
ag3095
aag1516
ag1517
ag1518
ag1519
ag1520
a(lp3136
I234
ag3095
aag1524
ag1525
ag1526
ag1527
a(lp3137
I239
ag3095
aag1530
ag1531
ag1532
ag1533
ag1534
ag1535
ag1536
ag1537
ag1538
ag1539
a(lp3138
I250
ag3095
aag1543
ag1544
ag1545
a(lp3139
I254
ag3095
aag1548
ag1549
ag1550
ag1551
a(lp3140
I259
ag3095
aag1555
ag1556
a(lp3141
I262
ag3095
aag1560
ag1561
a(lp3142
I265
ag3095
aag1564
ag1565
ag1566
ag1567
a(lp3143
I270
ag3095
aag1570
ag1571
ag1572
ag1573
ag1574
a(lp3144
I276
ag3095
aag1578
ag1579
a(lp3145
I279
ag3095
aag1583
ag1584
a(lp3146
I282
ag3095
aag1587
ag1588
ag1589
ag1590
ag1591
ag1592
ag1593
ag1594
ag1595
ag1596
a(lp3147
I293
ag3095
aag1600
ag1601
ag1602
a(lp3148
I297
ag3095
aag1605
ag1606
ag1607
ag1608
a(lp3149
I302
ag3095
aag1611
ag1612
ag1613
ag1614
ag1615
a(lp3150
I308
ag3095
aag1619
ag1620
a(lp3151
I311
ag3095
aag1624
ag1625
a(lp3152
I314
ag3095
aag1629
ag1630
a(lp3153
I317
ag3095
aag1633
ag1634
ag1635
ag1636
ag1637
ag1638
a(lp3154
I324
ag3095
aag1642
ag1643
a(lp3155
I327
ag3095
aag1646
a(lp3156
I329
ag3095
aag1649
ag1650
ag1651
ag1652
ag1653
ag1654
a(lp3157
I336
ag3095
aag1657
ag1658
ag1659
ag1660
ag1661
a(lp3158
I343
ag3095
aag1665
ag1666
ag1667
a(lp3159
I347
ag3095
aag1670
ag1671
ag1672
ag1673
ag1674
a(lp3160
I353
ag3095
aag1677
ag1678
ag1679
ag1680
a(lp3161
I358
ag3095
aag1684
ag1685
a(lp3162
I361
ag3095
aag1689
ag1690
a(lp3163
I364
ag3095
aag1693
ag1694
ag1695
ag1696
ag1697
ag1698
a(lp3164
I371
ag3095
aag1702
ag1703
ag1704
a(lp3165
I375
ag3095
aag1708
ag1709
ag1710
a(lp3166
I379
ag3095
aag1714
ag1715
ag1716
a(lp3167
I383
ag3095
aag1719
ag1720
ag1721
ag1722
ag1723
ag1724
a(lp3168
I390
ag3095
aag1727
ag1728
ag1729
ag1730
a(lp3169
I396
ag3095
aag1733
ag1734
ag1735
a(lp3170
I400
ag3095
aag1738
ag1739
ag1740
ag1741
ag1742
ag1743
a(lp3171
I407
ag3095
aag1747
ag1748
ag1749
a(lp3172
I411
ag3095
aag1752
ag1753
ag1754
ag1755
ag1756
ag1757
a(lp3173
I418
ag3095
aag1761
ag1762
ag1763
a(lp3174
I422
ag3095
aag1766
ag1767
ag1768
ag1769
a(lp3175
I427
ag3095
aag1773
ag1774
a(lp3176
I430
ag3095
aag1777
ag1778
ag1779
a(lp3177
I435
ag3095
aag1783
ag1784
ag1785
a(lp3178
I440
ag3095
aag1789
ag1790
a(lp3179
I443
ag3095
aag1793
ag1794
ag1795
a(lp3180
I448
ag3095
aag1798
ag1799
ag1800
ag1801
ag1802
ag1803
ag1804
ag1805
ag1806
a(lp3181
I458
ag3095
aag1810
ag1811
ag1812
a(lp3182
I462
ag3095
aag1815
ag1816
ag1817
a(lp3183
I467
ag3095
aag1820
ag1821
ag1822
ag1823
a(lp3184
I472
ag3095
aag1827
ag1828
ag1829
a(lp3185
I476
ag3095
aag1832
ag1833
ag1834
ag1835
ag1836
a(lp3186
I482
ag3095
aag1839
ag1840
ag1841
ag1842
ag1843
ag1844
a(lp3187
I489
ag3095
aag1848
ag1849
ag1850
a(lp3188
I493
ag3095
aag1853
ag1854
ag1855
a(lp3189
I497
ag3095
aag1859
ag1860
ag1861
a(lp3190
I501
ag3095
aag1864
ag1865
ag1866
ag1867
ag1868
ag1869
a(lp3191
I508
ag3095
aag1873
ag1875
ag1876
ag1877
a(lp3192
I513
ag3095
aag1880
ag1881
ag1882
ag1883
a(lp3193
I518
ag3095
aag1887
ag1888
ag1889
a(lp3194
I522
ag3095
aag1892
ag1893
ag1894
ag1895
ag1896
a(lp3195
I528
ag3095
aag1899
ag1900
ag1901
ag1902
a(lp3196
I533
ag3095
aag1906
ag1907
a(lp3197
I537
ag3095
aag1911
ag1912
a(lp3198
I540
ag3095
aag1916
ag1917
ag1918
a(lp3199
I544
ag3095
aag1922
ag1923
ag1924
ag1925
a(lp3200
I549
ag3095
aag1928
ag1929
ag1930
ag1931
ag1932
ag1933
ag1934
a(lp3201
I557
ag3095
aag1938
ag1939
a(lp3202
I560
ag3095
aag1943
ag1944
ag1945
ag1946
a(lp3203
I565
ag3095
aag1949
ag1950
ag1951
ag1952
ag1953
ag1954
a(lp3204
I573
ag3095
aag1957
ag1958
ag1959
a(lp3205
I577
ag3095
aag1963
ag1964
ag1965
a(lp3206
I581
ag3095
aag1969
ag1970
ag1971
a(lp3207
I585
ag3095
aag1974
ag1975
ag1976
ag1977
ag1978
ag1979
ag1980
a(lp3208
I593
ag3095
aag1983
ag1984
ag1985
a(lp3209
I597
ag3095
aag1989
ag1990
a(lp3210
I600
ag3095
aag1994
ag1995
a(lp3211
I603
ag3095
aag1999
ag2000
ag2001
a(lp3212
I607
ag3095
aag2004
ag2005
ag2006
ag2007
ag2008
a(lp3213
I613
ag3095
aag2012
ag2013
a(lp3214
I616
ag3095
aag2017
ag2018
ag2019
ag2020
a(lp3215
I621
ag3095
aag2023
ag2024
ag2025
ag2026
ag2027
ag2028
ag2029
a(lp3216
I630
ag3095
aag2033
ag2034
ag2035
ag2036
a(lp3217
I635
ag3095
aag2039
ag2040
ag2041
ag2042
ag2043
ag2044
a(lp3218
I642
ag3095
aag2047
ag2048
ag2049
ag2050
a(lp3219
I647
ag3095
aag2054
ag2055
a(lp3220
I650
ag3095
aag2058
ag2059
ag2060
ag2061
a(lp3221
I655
ag3095
aag2064
a(lp3222
I658
ag3095
aag2067
ag2068
ag2069
ag2070
a(lp3223
I663
ag3095
aag2073
ag2075
ag2076
ag2077
ag2079
ag2081
ag2082
ag2083
ag2084
ag2086
ag2087
ag2088
ag2089
ag2090
ag2091
a(lp3224
I680
ag3095
aag2094
ag2095
ag2096
ag2097
ag2098
a(lp3225
I686
ag3095
aag2102
ag2103
a(lp3226
I689
ag3095
aag2106
ag2107
ag2108
a(lp3227
I693
ag3095
aag2112
ag2113
ag2114
a(lp3228
I697
ag3095
aag2117
ag2118
ag2119
ag2120
ag2121
ag2122
a(lp3229
I704
ag3095
aag2126
ag2127
ag2128
a(lp3230
I708
ag3095
aag2131
ag2132
ag2133
ag2134
a(lp3231
I713
ag3095
aag2138
ag2139
ag2140
ag2141
a(lp3232
I718
ag3095
aag2144
ag2145
ag2146
ag2147
a(lp3233
I723
ag3095
aag2151
ag2152
a(lp3234
I726
ag3095
aag2156
ag2157
ag2158
a(lp3235
I730
ag3095
aag2161
ag2162
ag2163
ag2164
ag2165
ag2166
a(lp3236
I737
ag3095
aag2169
ag2170
ag2171
ag2172
a(lp3237
I742
ag3095
aag2176
ag2177
ag2178
a(lp3238
I746
ag3095
aag2182
ag2183
a(lp3239
I749
ag3095
aag2186
ag2187
ag2188
ag2189
a(lp3240
I755
ag3095
aag2192
ag2193
ag2194
a(lp3241
I759
ag3095
aag2198
ag2199
ag2200
ag2201
a(lp3242
I764
ag3095
aag2205
ag2206
a(lp3243
I767
ag3095
aag2209
a(lp3244
I769
ag3095
aag2212
ag2213
ag2214
ag2215
a(lp3245
I774
ag3095
aag2219
ag2220
a(lp3246
I777
ag3095
aag2223
ag2224
ag2225
ag2226
a(lp3247
I782
ag3095
aag2230
ag2231
a(lp3248
I785
ag3095
aag2234
ag2235
ag2236
a(lp3249
I789
ag3095
aag2240
ag2241
ag2242
a(lp3250
I793
ag3095
aag2245
ag2246
ag2247
ag2248
a(lp3251
I798
ag3095
aag2252
ag2253
ag2254
a(lp3252
I802
ag3095
aag2258
ag2259
ag2260
a(lp3253
I806
ag3095
aag2263
ag2264
ag2265
a(lp3254
I810
ag3095
aag2269
ag2270
ag2271
a(lp3255
I814
ag3095
aag2274
ag2275
ag2276
ag2277
ag2278
ag2279
a(lp3256
I821
ag3095
aag2283
ag2284
ag2285
ag2286
ag2287
ag2288
a(lp3257
I828
ag3095
aag2292
ag2293
ag2294
a(lp3258
I832
ag3095
aag2298
ag2299
a(lp3259
I835
ag3095
aag2302
ag2303
ag2304
ag2305
ag2306
ag2307
ag2308
ag2309
a(lp3260
I844
ag3095
aag2312
ag2313
ag2314
ag2315
a(lp3261
I849
ag3095
aag2319
ag2320
ag2321
ag2322
a(lp3262
I854
ag3095
aag2326
ag2327
ag2328
a(lp3263
I858
ag3095
aag2331
ag2332
ag2333
ag2334
ag2335
a(lp3264
I865
ag3095
aag2339
ag2340
ag2341
ag2342
a(lp3265
I870
ag3095
aag2345
ag2346
ag2347
ag2348
ag2349
a(lp3266
I876
ag3095
aag2353
ag2354
ag2355
ag2356
a(lp3267
I881
ag3095
aag2360
ag2361
a(lp3268
I884
ag3095
aag2364
ag2365
ag2366
ag2367
a(lp3269
I890
ag3095
aag2371
ag2372
ag2373
ag2374
a(lp3270
I895
ag3095
aag2377
ag2378
ag2379
ag2380
ag2381
a(lp3271
I901
ag3095
aag2385
ag2386
ag2387
ag2388
a(lp3272
I906
ag3095
aag2392
ag2393
ag2394
a(lp3273
I910
ag3095
aag2398
ag2399
a(lp3274
I913
ag3095
aag2403
ag2404
a(lp3275
I916
ag3095
aag2407
ag2408
ag2409
ag2410
a(lp3276
I922
ag3095
aag2414
ag2415
ag2416
a(lp3277
I926
ag3095
aag2419
ag2420
ag2421
a(lp3278
I930
ag3095
aag2425
ag2426
a(lp3279
I933
ag3095
aag2429
ag2430
ag2431
ag2432
ag2433
ag2434
ag2435
ag2436
ag2437
a(lp3280
I943
ag3095
aag2441
ag2442
ag2443
ag2444
a(lp3281
I948
ag3095
aag2448
ag2449
ag2450
a(lp3282
I952
ag3095
aag2453
ag2454
ag2455
ag2456
a(lp3283
I957
ag3095
aag2460
ag2461
a(lp3284
I960
ag3095
aag2464
ag2465
ag2466
ag2467
a(lp3285
I965
ag3095
aag2471
ag2472
a(lp3286
I968
ag3095
aag2476
ag2477
ag2478
a(lp3287
I972
ag3095
aag2481
ag2482
ag2483
ag2484
ag2485
ag2486
a(lp3288
I979
ag3095
aag2490
ag2491
a(lp3289
I982
ag3095
aag2494
ag2495
ag2496
ag2497
a(lp3290
I987
ag3095
aag2501
ag2502
ag2503
a(lp3291
I991
ag3095
aag2506
ag2507
ag2508
ag2509
a(lp3292
I996
ag3095
aag2513
ag2514
ag2515
ag2516
a(lp3293
I1001
ag3095
aag2520
ag2521
ag2522
a(lp3294
I1005
ag3095
aag2526
ag2527
a(lp3295
I1009
ag3095
aag2530
ag2531
ag2532
ag2533
ag2534
ag2535
ag2536
ag2537
a(lp3296
I1019
ag3095
aag2540
ag2541
ag2542
ag2543
ag2544
ag2545
ag2546
ag2547
ag2548
ag2549
a(lp3297
I1030
ag3095
aag2552
ag2553
ag2554
ag2555
a(lp3298
I1035
ag3095
aag2559
ag2560
ag2561
a(lp3299
I1039
ag3095
aag2565
ag2566
a(lp3300
I1042
ag3095
aag2570
ag2571
a(lp3301
I1045
ag3095
aag2574
ag2575
ag2576
ag2577
a(lp3302
I1050
ag3095
aag2581
ag2582
ag2583
ag2584
a(lp3303
I1055
ag3095
aag2587
ag2588
ag2589
ag2590
ag2591
a(lp3304
I1061
ag3095
aag2595
ag2596
a(lp3305
I1064
ag3095
aag2600
ag2601
ag2602
ag2603
a(lp3306
I1069
ag3095
aag2606
ag2607
ag2608
ag2609
ag2610
ag2611
ag2612
ag2613
ag2614
ag2615
a(lp3307
I1080
ag3095
aag2618
ag2619
ag2620
ag2621
a(lp3308
I1085
ag3095
aag2625
ag2626
a(lp3309
I1088
ag3095
aag2630
ag2631
a(lp3310
I1091
ag3095
aag2634
ag2635
ag2636
ag2637
ag2638
ag2639
a(lp3311
I1099
ag3095
aag2643
ag2644
a(lp3312
I1102
ag3095
aag2648
ag2649
a(lp3313
I1105
ag3095
aag2652
ag2653
ag2654
ag2655
ag2656
ag2657
ag2658
ag2659
ag2660
a(lp3314
I1115
ag3095
aag2664
ag2665
ag2666
ag2667
a(lp3315
I1120
ag3095
aag2671
ag2672
ag2673
a(lp3316
I1124
ag3095
aag2677
ag2678
ag2679
a(lp3317
I1128
ag3095
aag2682
ag2683
ag2684
a(lp3318
I1132
ag3095
aag2688
ag2689
ag2690
a(lp3319
I1136
ag3095
aag2693
ag2694
ag2695
ag2696
ag2697
ag2698
a(lp3320
I1143
ag3095
aag2702
ag2703
ag2704
a(lp3321
I1147
ag3095
aag2707
ag2708
ag2709
ag2710
a(lp3322
I1152
ag3095
aag2713
ag2714
ag2715
ag2716
ag2717
ag2718
ag2719
ag2720
ag2721
a(lp3323
I1162
ag3095
aag2724
ag2725
ag2726
ag2727
ag2728
a(lp3324
I1169
ag3095
aag2732
ag2733
a(lp3325
I1172
ag3095
aag2737
ag2738
ag2739
a(lp3326
I1176
ag3095
aag2743
ag2744
ag2745
a(lp3327
I1180
ag3095
aag2748
ag2749
ag2750
a(lp3328
I1184
ag3095
aag2754
ag2755
a(lp3329
I1187
ag3095
aag2759
ag2760
a(lp3330
I1190
ag3095
aag2763
ag2764
ag2765
ag2766
ag2767
ag2768
a(lp3331
I1198
ag3095
aag2772
ag2773
ag2774
ag2775
a(lp3332
I1203
ag3095
aag2779
ag2780
ag2781
a(lp3333
I1207
ag3095
aag2785
ag2786
ag2787
a(lp3334
I1211
ag3095
aag2790
ag2791
ag2792
ag2793
a(lp3335
I1216
ag3095
aag2797
ag2798
a(lp3336
I1219
ag3095
aag2801
ag2802
ag2803
ag2804
ag2805
ag2806
a(lp3337
I1226
ag3095
aag2810
ag2811
a(lp3338
I1229
ag3095
aag2815
ag2816
ag2817
a(lp3339
I1233
ag3095
aag2820
ag2821
ag2822
ag2823
ag2824
a(lp3340
I1239
ag3095
aag2828
ag2829
a(lp3341
I1242
ag3095
aag2832
ag2833
ag2834
ag2835
a(lp3342
I1247
ag3095
aag2839
ag2840
ag2841
ag2842
ag2843
ag2844
ag2845
a(lp3343
I1255
ag3095
aag2849
ag2850
ag2851
a(lp3344
I1259
ag3095
aag2854
ag2855
ag2856
ag2857
ag2858
ag2859
ag2860
a(lp3345
I1267
ag3095
aag2863
ag2864
ag2865
ag2866
a(lp3346
I1272
ag3095
aag2870
ag2871
ag2872
a(lp3347
I1276
ag3095
aag2876
ag2877
ag2878
a(lp3348
I1280
ag3095
aag2881
ag2882
ag2883
ag2884
ag2885
ag2886
a(lp3349
I1287
ag3095
aag2889
ag2890
ag2891
ag2892
a(lp3350
I1293
ag3095
aag2896
ag2897
a(lp3351
I1296
ag3095
aag2901
ag2902
ag2903
a(lp3352
I1300
ag3095
aag2906
ag2907
ag2908
ag2909
a(lp3353
I1305
ag3095
aag2913
ag2914
ag2915
a(lp3354
I1309
ag3095
aag2919
ag2920
a(lp3355
I1312
ag3095
aag2923
ag2924
ag2925
ag2926
ag2927
ag2928
a(lp3356
I1320
ag3095
aag2932
ag2933
ag2934
a(lp3357
I1324
ag3095
aag2938
ag2939
ag2940
ag2941
a(lp3358
I1329
ag3095
aag2945
ag2946
a(lp3359
I1332
ag3095
aag2949
ag2950
ag2951
ag2952
a(lp3360
I1337
ag3095
aag2956
ag2957
a(lp3361
I1340
ag3095
aag2960
ag2961
ag2962
ag2963
a(lp3362
I1345
ag3095
aag2967
ag2968
ag2969
a(lp3363
I1349
ag3095
aag2972
ag2973
ag2974
ag2975
ag2976
ag2977
ag2978
ag2979
ag2980
ag2981
a(lp3364
I1360
ag3095
aag2985
ag2986
a(lp3365
I1363
ag3095
aag2990
ag2991
ag2992
a(lp3366
I1367
ag3095
aag2996
ag2997
ag2998
a(lp3367
I1371
ag3095
aag3001
ag3002
ag3003
ag3004
ag3005
ag3006
ag3007
a(lp3368
I1379
ag3095
aag3011
ag3012
ag3013
ag3014
ag3015
ag3016
ag3017
ag3018
a(lp3369
I1388
ag3095
aag3022
ag3023
ag3024
a(lp3370
I1392
ag3095
aag3027
ag3028
ag3029
ag3030
a(lp3371
I1397
ag3095
aag3034
ag3035
a(lp3372
I1400
ag3095
aag3038
ag3039
ag3040
ag3041
ag3042
ag3043
a(lp3373
I1407
ag3095
aag3047
ag3048
a(lp3374
I1410
ag3095
aag3052
ag3053
ag3054
a(lp3375
I1414
ag3095
aag3057
ag3058
ag3059
ag3060
ag3061
ag3062
ag3063
ag3064
a(lp3376
I1424
ag3095
aag3067
ag3068
ag3069
ag3070
ag3071
ag3072
ag3073
ag3074
ag3075
a(lp3377
I1434
ag3095
aag3078
ag3079
ag3080
ag3081
ag3082
ag3083
a(lp3378
I1441
ag3095
aag3086
ag3087
ag3088
ag3089
ag3090
ag3091
a(lp3379
I1448
ag3095
aa(lp3380
I1449
ag60
aa(lp3381
I1450
aS'9'
p3382
aa(lp3383
I1451
ag3382
aa(lp3384
I1452
ag3382
aasS'text'
p3385
S'"trombone tips" "learn to practice \xe2\x80\x93 step 1: say in rhythm, stay in rhythm" when you first practice your music, you need to know how the rhythm sounds before you do anything else. in music, everything meets at the rhythm. this means that everything you must do to play music on an instrument you must learn to do in rhythm at a steady tempo. the first step is to figure out how the rhythm goes. try saying the rhythm out loud on tah, too, or toh; whichever you use. keep the tempo steady and say the rhythm just like you would play it. if you have trouble in some places, see how the rhythms add up to the beats in each measure. what rhythm uses up beat 1? beat 2\xe2\x80\xa63\xe2\x80\xa64\xe2\x80\xa6etc. learn to say the rhythm out loud very well so you really know how it goes. use this as a game or test to see how well you can say the rhythm before you do anything else with the music. some music will be easy, some music will not be so easy. you may be surprised that you need to work on the rhythm as much you find that you do. remember: everything else you do to play your music on your instrument must be in rhythm. it is important that you can say the rhythm out loud correctly first. if you can say it in rhythm, then you can stay in rhythm as you learn to play because you already know how the rhythm goes. if you play out of rhythm, you will be able to tell the difference so you can correct yourself and play in rhythm as you practice. copyright norlan bewley 1999'
p3386
sS'cleanWordMap'
p3387
(lp3388
g1212
ag1229
ag1238
ag1252
ag1263
ag1271
ag1277
ag1280
ag1291
ag1300
ag1311
ag1334
ag1342
ag1359
ag1372
ag1384
ag1403
ag1411
ag1439
ag1450
ag1461
ag1468
ag1481
ag1499
ag1514
ag1528
ag1546
ag1562
ag1568
ag1585
ag1603
ag1609
ag1631
ag1647
ag1655
ag1668
ag1675
ag1691
ag1717
ag1725
ag1731
ag1736
ag1750
ag1764
ag1775
ag1791
ag1796
ag1813
ag1818
ag1830
ag1837
ag1851
ag1862
ag1878
ag1890
ag1897
ag1926
ag1947
ag1955
ag1972
ag1981
ag2002
ag2021
ag2037
ag2045
ag2056
ag2062
ag2065
ag2071
ag2092
ag2104
ag2115
ag2129
ag2142
ag2159
ag2167
ag2184
ag2190
ag2210
ag2221
ag2232
ag2243
ag2261
ag2272
ag2300
ag2310
ag2329
ag2343
ag2362
ag2375
ag2405
ag2417
ag2427
ag2451
ag2462
ag2479
ag2492
ag2504
ag2528
ag2538
ag2550
ag2572
ag2585
ag2604
ag2616
ag2632
ag2650
ag2680
ag2691
ag2705
ag2711
ag2722
ag2746
ag2761
ag2788
ag2799
ag2818
ag2830
ag2852
ag2861
ag2879
ag2887
ag2904
ag2921
ag2947
ag2958
ag2970
ag2999
ag3025
ag3036
ag3055
ag3065
ag3076
ag3084
asS'lines'
p3389
(lp3390
V"trombone tips"\u000a
p3391
aV"Learn To Practice \u2013 Step 1: Say In Rhythm, Stay In Rhythm"\u000a
p3392
aVWhen you first practice your music, you need to know how the rhythm sounds before you do anything else. In music, everything meets at the rhythm. This means that everything you must do to play music on an instrument you must learn to do in rhythm at a steady tempo. The first step is to figure out how the rhythm goes.\u000a
p3393
aVTry saying the rhythm out loud on Tah, Too, or Toh; whichever you use. Keep the tempo steady and say the rhythm just like you would play it. If you have trouble in some places, see how the rhythms add up to the beats in each measure. What rhythm uses up beat 1? Beat 2\u20263\u20264\u2026etc.\u000a
p3394
aVLearn to say the rhythm out loud very well so you really know how it goes. Use this as a game or test to see how well you can say the rhythm before you do anything else with the music. Some music will be easy, some music will not be so easy. You may be surprised that you need to work on the rhythm as much you find that you do.\u000a
p3395
aVRemember: Everything else you do to play your music on your instrument must be in rhythm. It is important that you can say the rhythm out loud correctly first. If you can say it in rhythm, then you can stay in rhythm as you learn to play because you already know how the rhythm goes. If you play out of rhythm, you will be able to tell the difference so you can correct yourself and play in rhythm as you practice.\u000a
p3396
aVCopyright Norlan Bewley 1999
p3397
asS'docType'
p3398
S'src'
p3399
sS'newfmap'
p3400
(lp3401
g4
ag8
ag10
ag12
ag14
ag17
ag19
ag21
ag23
ag26
ag28
ag30
ag32
ag35
ag37
ag39
ag41
ag44
ag46
ag48
ag50
ag53
ag55
ag57
ag59
ag62
ag64
ag66
ag68
ag71
ag73
ag75
ag80
ag82
ag84
ag86
ag89
ag91
ag93
ag95
ag102
ag104
ag107
ag109
ag111
ag113
ag116
ag118
ag120
ag122
ag125
ag127
ag129
ag131
ag134
ag136
ag138
ag140
ag143
ag145
ag147
ag149
ag152
ag154
ag156
ag158
ag161
ag163
ag165
ag167
ag170
ag172
ag174
ag176
ag179
ag181
ag183
ag188
ag190
ag192
ag194
ag197
ag199
ag201
ag203
ag206
ag208
ag210
ag212
ag215
ag217
ag219
ag221
ag224
ag226
ag228
ag230
ag233
ag235
ag237
ag239
ag242
ag244
ag246
ag248
ag251
ag253
ag257
ag260
ag262
ag264
ag266
ag269
ag271
ag273
ag275
ag278
ag280
ag282
ag284
ag287
ag289
ag291
ag293
ag296
ag298
ag300
ag302
ag305
ag307
ag309
ag311
ag314
ag316
ag318
ag320
ag323
ag325
ag327
ag329
ag332
ag334
ag336
ag338
ag341
ag343
ag345
ag347
ag350
ag352
ag354
ag356
ag359
ag361
ag363
ag365
ag368
ag370
ag372
ag374
ag377
ag379
ag381
ag383
ag386
ag388
ag392
ag395
ag397
ag399
ag401
ag404
ag406
ag408
ag410
ag413
ag415
ag417
ag419
ag422
ag424
ag426
ag428
ag431
ag433
ag435
ag437
ag440
ag442
ag444
ag446
ag449
ag451
ag453
ag455
ag458
ag460
ag462
ag464
ag467
ag469
ag471
ag476
ag478
ag480
ag482
ag485
ag487
ag489
ag491
ag494
ag496
ag498
ag500
ag503
ag507
ag509
ag512
ag514
ag516
ag518
ag521
ag523
ag525
ag527
ag530
ag532
ag534
ag536
ag539
ag541
ag543
ag545
ag548
ag550
ag552
ag554
ag557
ag559
ag561
ag563
ag566
ag568
ag570
ag572
ag575
ag577
ag579
ag581
ag584
ag586
ag588
ag590
ag593
ag595
ag597
ag599
ag601
ag603
ag605
ag607
ag610
ag612
ag614
ag616
ag619
ag621
ag623
ag625
ag628
ag630
ag632
ag634
ag637
ag639
ag641
ag646
ag648
ag650
ag652
ag655
ag657
ag659
ag661
ag664
ag666
ag668
ag670
ag673
ag675
ag677
ag679
ag682
ag684
ag686
ag688
ag691
ag693
ag695
ag697
ag700
ag702
ag704
ag706
ag709
ag711
ag713
ag715
ag718
ag720
ag722
ag724
ag727
ag729
ag731
ag733
ag736
ag738
ag740
ag742
ag745
ag747
ag749
ag754
ag756
ag758
ag760
ag763
ag765
ag767
ag769
ag772
ag774
ag776
ag781
ag783
ag785
ag787
ag792
ag794
ag801
ag803
ag805
ag808
ag810
ag817
ag823
ag826
ag828
ag830
ag832
ag835
ag837
ag839
ag841
ag844
ag846
ag848
ag850
ag853
ag855
ag857
ag859
ag862
ag864
ag866
ag868
ag871
ag873
ag875
ag877
ag880
ag882
ag884
ag886
ag889
ag891
ag893
ag895
ag898
ag900
ag902
ag904
ag907
ag909
ag911
ag913
ag916
ag918
ag920
ag922
ag927
ag929
ag931
ag934
ag936
ag938
ag940
ag943
ag945
ag947
ag949
ag952
ag954
ag956
ag958
ag961
ag963
ag965
ag967
ag970
ag972
ag974
ag979
ag983
ag985
ag988
ag990
ag992
ag994
ag997
ag999
ag1001
ag1003
ag1006
ag1008
ag1010
ag1012
ag1015
ag1017
ag1019
ag1024
ag1026
ag1028
ag1030
ag1033
ag1035
ag1037
ag1039
ag1046
ag1048
ag1051
ag1053
ag1055
ag1057
ag1062
ag1066
ag1069
ag1071
ag1073
ag1075
ag1078
ag1080
ag1082
ag1084
ag1087
ag1089
ag1091
ag1093
ag1096
ag1098
ag1100
ag1102
ag1107
ag1109
ag1111
ag1114
ag1118
ag1120
ag1123
ag1125
ag1127
ag1129
ag1132
ag1134
ag1136
ag1138
ag1141
ag1143
ag1145
ag1147
ag1150
ag1152
ag1154
ag1156
ag1159
ag1161
ag1163
ag1165
ag1168
ag1170
ag1172
ag1174
ag1177
ag1179
ag1181
ag1183
ag1186
ag1188
ag1190
ag1192
ag1195
ag1197
ag1199
ag1201
ag1204
ag1206
ag1208
asS'featureMap'
p3402
(lp3403
(lp3404
I1
aI8
ag5
ag6
ag9
ag11
ag13
aa(lp3405
I10
aI13
ag15
ag16
ag18
ag20
ag22
aa(lp3406
I17
aI21
ag24
ag25
ag27
ag29
ag31
aa(lp3407
I26
aI33
ag33
ag34
ag36
ag38
ag40
aa(lp3408
I35
aI37
ag42
ag43
ag45
ag47
ag49
aa(lp3409
I39
aI42
ag51
ag52
ag54
ag56
ag58
aa(lp3410
I44
aI44
ag60
ag61
ag63
ag65
ag67
aa(lp3411
I47
aI49
ag69
ag70
ag72
ag74
ag76
aa(lp3412
I54
aI59
ag78
ag79
ag81
ag83
ag85
aa(lp3413
I62
aI65
ag87
ag88
ag90
ag92
ag94
aa(lp3414
I70
aI75
ag96
ag97
ag99
ag101
ag103
aa(lp3415
I87
aI91
ag105
ag106
ag108
ag110
ag112
aa(lp3416
I93
aI100
ag114
ag115
ag117
ag119
ag121
aa(lp3417
I107
aI111
ag123
ag124
ag126
ag128
ag130
aa(lp3418
I118
aI121
ag132
ag133
ag135
ag137
ag139
aa(lp3419
I126
aI129
ag141
ag142
ag144
ag146
ag148
aa(lp3420
I139
aI144
ag150
ag151
ag153
ag155
ag157
aa(lp3421
I146
aI151
ag159
ag160
ag162
ag164
ag166
aa(lp3422
I167
aI174
ag168
ag169
ag171
ag173
ag175
aa(lp3423
I176
aI179
ag177
ag178
ag180
ag182
ag184
aa(lp3424
I185
aI189
ag186
ag187
ag189
ag191
ag193
aa(lp3425
I192
aI201
ag195
ag196
ag198
ag200
ag202
aa(lp3426
I203
aI207
ag204
ag205
ag207
ag209
ag211
aa(lp3427
I216
aI221
ag213
ag214
ag216
ag218
ag220
aa(lp3428
I229
aI233
ag222
ag223
ag225
ag227
ag229
aa(lp3429
I240
aI249
ag231
ag232
ag234
ag236
ag238
aa(lp3430
I255
aI258
ag240
ag241
ag243
ag245
ag247
aa(lp3431
I266
aI269
ag249
ag250
ag252
ag254
ag256
aa(lp3432
I271
aI275
ag258
ag259
ag261
ag263
ag265
aa(lp3433
I283
aI292
ag267
ag268
ag270
ag272
ag274
aa(lp3434
I298
aI301
ag276
ag277
ag279
ag281
ag283
aa(lp3435
I303
aI307
ag285
ag286
ag288
ag290
ag292
aa(lp3436
I318
aI323
ag294
ag295
ag297
ag299
ag301
aa(lp3437
I330
aI335
ag303
ag304
ag306
ag308
ag310
aa(lp3438
I337
aI341
ag312
ag313
ag315
ag317
ag319
aa(lp3439
I348
aI352
ag321
ag322
ag324
ag326
ag328
aa(lp3440
I354
aI357
ag330
ag331
ag333
ag335
ag337
aa(lp3441
I365
aI370
ag339
ag340
ag342
ag344
ag346
aa(lp3442
I384
aI389
ag348
ag349
ag351
ag353
ag355
aa(lp3443
I391
aI394
ag357
ag358
ag360
ag362
ag364
aa(lp3444
I397
aI399
ag366
ag367
ag369
ag371
ag373
aa(lp3445
I401
aI406
ag375
ag376
ag378
ag380
ag382
aa(lp3446
I412
aI417
ag384
ag385
ag387
ag389
ag391
aa(lp3447
I423
aI426
ag393
ag394
ag396
ag398
ag400
aa(lp3448
I431
aI433
ag402
ag403
ag405
ag407
ag409
aa(lp3449
I444
aI446
ag411
ag412
ag414
ag416
ag418
aa(lp3450
I449
aI457
ag420
ag421
ag423
ag425
ag427
aa(lp3451
I463
aI465
ag429
ag430
ag432
ag434
ag436
aa(lp3452
I468
aI471
ag438
ag439
ag441
ag443
ag445
aa(lp3453
I477
aI481
ag447
ag448
ag450
ag452
ag454
aa(lp3454
I483
aI488
ag456
ag457
ag459
ag461
ag463
aa(lp3455
I494
aI496
ag465
ag466
ag468
ag470
ag472
aa(lp3456
I502
aI507
ag474
ag475
ag477
ag479
ag481
aa(lp3457
I514
aI517
ag483
ag484
ag486
ag488
ag490
aa(lp3458
I523
aI527
ag492
ag493
ag495
ag497
ag499
aa(lp3459
I529
aI532
ag501
ag502
ag504
ag506
ag508
aa(lp3460
I550
aI556
ag510
ag511
ag513
ag515
ag517
aa(lp3461
I566
aI571
ag519
ag520
ag522
ag524
ag526
aa(lp3462
I574
aI576
ag528
ag529
ag531
ag533
ag535
aa(lp3463
I586
aI592
ag537
ag538
ag540
ag542
ag544
aa(lp3464
I594
aI596
ag546
ag547
ag549
ag551
ag553
aa(lp3465
I608
aI612
ag555
ag556
ag558
ag560
ag562
aa(lp3466
I622
aI628
ag564
ag565
ag567
ag569
ag571
aa(lp3467
I636
aI641
ag573
ag574
ag576
ag578
ag580
aa(lp3468
I643
aI646
ag582
ag583
ag585
ag587
ag589
aa(lp3469
I651
aI654
ag591
ag592
ag594
ag596
ag598
aa(lp3470
I656
aI656
ag60
ag600
ag602
ag604
ag606
aa(lp3471
I659
aI662
ag608
ag609
ag611
ag613
ag615
aa(lp3472
I664
aI678
ag617
ag618
ag620
ag622
ag624
aa(lp3473
I681
aI685
ag626
ag627
ag629
ag631
ag633
aa(lp3474
I690
aI692
ag635
ag636
ag638
ag640
ag642
aa(lp3475
I698
aI703
ag644
ag645
ag647
ag649
ag651
aa(lp3476
I709
aI712
ag653
ag654
ag656
ag658
ag660
aa(lp3477
I719
aI722
ag662
ag663
ag665
ag667
ag669
aa(lp3478
I731
aI736
ag671
ag672
ag674
ag676
ag678
aa(lp3479
I738
aI741
ag680
ag681
ag683
ag685
ag687
aa(lp3480
I750
aI753
ag689
ag690
ag692
ag694
ag696
aa(lp3481
I756
aI758
ag698
ag699
ag701
ag703
ag705
aa(lp3482
I770
aI773
ag707
ag708
ag710
ag712
ag714
aa(lp3483
I778
aI781
ag716
ag717
ag719
ag721
ag723
aa(lp3484
I786
aI788
ag725
ag726
ag728
ag730
ag732
aa(lp3485
I794
aI797
ag734
ag735
ag737
ag739
ag741
aa(lp3486
I807
aI809
ag743
ag744
ag746
ag748
ag750
aa(lp3487
I815
aI820
ag752
ag753
ag755
ag757
ag759
aa(lp3488
I836
aI843
ag761
ag762
ag764
ag766
ag768
aa(lp3489
I845
aI848
ag770
ag771
ag773
ag775
ag777
aa(lp3490
I859
aI863
ag779
ag780
ag782
ag784
ag786
aa(lp3491
I871
aI875
ag788
ag789
ag791
ag793
ag795
aa(lp3492
I885
aI888
ag797
ag798
ag800
ag802
ag804
aa(lp3493
I896
aI900
ag806
ag807
ag809
ag811
ag813
aa(lp3494
I917
aI920
ag815
ag816
ag818
ag820
ag822
aa(lp3495
I927
aI929
ag824
ag825
ag827
ag829
ag831
aa(lp3496
I934
aI942
ag833
ag834
ag836
ag838
ag840
aa(lp3497
I953
aI956
ag842
ag843
ag845
ag847
ag849
aa(lp3498
I961
aI964
ag851
ag852
ag854
ag856
ag858
aa(lp3499
I973
aI978
ag860
ag861
ag863
ag865
ag867
aa(lp3500
I983
aI986
ag869
ag870
ag872
ag874
ag876
aa(lp3501
I992
aI995
ag878
ag879
ag881
ag883
ag885
aa(lp3502
I1010
aI1017
ag887
ag888
ag890
ag892
ag894
aa(lp3503
I1020
aI1029
ag896
ag897
ag899
ag901
ag903
aa(lp3504
I1031
aI1034
ag905
ag906
ag908
ag910
ag912
aa(lp3505
I1046
aI1049
ag914
ag915
ag917
ag919
ag921
aa(lp3506
I1056
aI1060
ag923
ag924
ag926
ag928
ag930
aa(lp3507
I1070
aI1079
ag932
ag933
ag935
ag937
ag939
aa(lp3508
I1081
aI1084
ag941
ag942
ag944
ag946
ag948
aa(lp3509
I1092
aI1097
ag950
ag951
ag953
ag955
ag957
aa(lp3510
I1106
aI1114
ag959
ag960
ag962
ag964
ag966
aa(lp3511
I1129
aI1131
ag968
ag969
ag971
ag973
ag975
aa(lp3512
I1137
aI1142
ag977
ag978
ag980
ag982
ag984
aa(lp3513
I1148
aI1151
ag986
ag987
ag989
ag991
ag993
aa(lp3514
I1153
aI1161
ag995
ag996
ag998
ag1000
ag1002
aa(lp3515
I1163
aI1167
ag1004
ag1005
ag1007
ag1009
ag1011
aa(lp3516
I1181
aI1183
ag1013
ag1014
ag1016
ag1018
ag1020
aa(lp3517
I1191
aI1196
ag1022
ag1023
ag1025
ag1027
ag1029
aa(lp3518
I1212
aI1215
ag1031
ag1032
ag1034
ag1036
ag1038
aa(lp3519
I1220
aI1225
ag1040
ag1041
ag1043
ag1045
ag1047
aa(lp3520
I1234
aI1238
ag1049
ag1050
ag1052
ag1054
ag1056
aa(lp3521
I1243
aI1246
ag1058
ag1059
ag1061
ag1063
ag1065
aa(lp3522
I1260
aI1266
ag1067
ag1068
ag1070
ag1072
ag1074
aa(lp3523
I1268
aI1271
ag1076
ag1077
ag1079
ag1081
ag1083
aa(lp3524
I1281
aI1286
ag1085
ag1086
ag1088
ag1090
ag1092
aa(lp3525
I1288
aI1291
ag1094
ag1095
ag1097
ag1099
ag1101
aa(lp3526
I1301
aI1304
ag1103
ag1104
ag1106
ag1108
ag1110
aa(lp3527
I1313
aI1318
ag1112
ag1113
ag1115
ag1117
ag1119
aa(lp3528
I1333
aI1336
ag1121
ag1122
ag1124
ag1126
ag1128
aa(lp3529
I1341
aI1344
ag1130
ag1131
ag1133
ag1135
ag1137
aa(lp3530
I1350
aI1359
ag1139
ag1140
ag1142
ag1144
ag1146
aa(lp3531
I1372
aI1378
ag1148
ag1149
ag1151
ag1153
ag1155
aa(lp3532
I1393
aI1396
ag1157
ag1158
ag1160
ag1162
ag1164
aa(lp3533
I1401
aI1406
ag1166
ag1167
ag1169
ag1171
ag1173
aa(lp3534
I1415
aI1422
ag1175
ag1176
ag1178
ag1180
ag1182
aa(lp3535
I1425
aI1433
ag1184
ag1185
ag1187
ag1189
ag1191
aa(lp3536
I1435
aI1440
ag1193
ag1194
ag1196
ag1198
ag1200
aa(lp3537
I1442
aI1447
ag1202
ag1203
ag1205
ag1207
ag1209
aasS'characterMap'
p3538
(lp3539
(lp3540
I0
aS'"'
p3541
aag1214
ag1216
ag1218
ag1220
ag1222
ag1224
ag1225
ag1227
ag3094
ag1231
ag1232
ag1234
ag1236
a(lp3542
I14
ag3541
aag3096
a(lp3543
I16
ag3541
aag1240
ag1242
ag1243
ag1245
ag1246
ag3097
ag1250
ag1251
ag3098
ag1254
ag1255
ag1256
ag1257
ag1259
ag1260
ag1261
ag1262
ag3099
ag1265
ag1267
ag1269
ag3100
ag1273
ag1274
ag1275
ag1276
ag3101
ag1279
a(lp3544
I45
aS':'
p3545
aag3102
ag1282
ag1283
ag1284
ag3103
ag1289
ag1290
ag3104
ag1293
ag1294
ag1296
ag1297
ag1298
ag1299
a(lp3546
I60
aS','
p3547
aag3105
ag1302
ag1303
ag1304
ag1305
ag3106
ag1309
ag1310
ag3107
ag1313
ag1314
ag1315
ag1316
ag1317
ag1318
a(lp3548
I76
ag3541
aag3108
ag1322
ag1324
ag1325
ag1326
ag3109
ag1330
ag1331
ag1332
ag3110
ag1336
ag1338
ag1339
ag1340
ag1341
ag3111
ag1344
ag1345
ag1346
ag1347
ag1348
ag1349
ag1350
ag1351
ag3112
ag1355
ag1356
ag1357
ag1358
ag3113
ag1361
ag1362
ag1363
ag1364
ag1365
a(lp3549
I112
ag3547
aag3114
ag1369
ag1370
ag1371
ag3115
ag1374
ag1375
ag1376
ag1377
ag3116
ag1382
ag1383
ag3117
ag1386
ag1388
ag1389
ag1390
ag3118
ag1394
ag1395
ag1396
ag3119
ag1400
ag1401
ag1402
ag3120
ag1405
ag1406
ag1407
ag1408
ag1409
ag1410
ag3121
ag1413
ag1414
ag1415
ag1416
ag1417
ag1418
ag3122
ag1422
ag1423
ag1424
ag1425
ag1426
ag1427
ag3123
ag1431
ag1432
ag1433
ag3124
ag1437
ag1438
ag3125
ag1441
ag1442
ag1443
ag1444
ag1445
ag1446
ag1447
ag1448
ag3126
ag1452
ag1453
ag1454
ag1455
a(lp3550
I180
aS'.'
p3551
aag3127
ag1459
ag1460
ag3128
ag1463
ag1464
ag1465
ag1466
ag1467
a(lp3552
I190
ag3547
aag3129
ag1470
ag1471
ag1473
ag1474
ag1475
ag1476
ag1477
ag1478
ag1479
ag1480
ag3130
ag1483
ag1484
ag1485
ag1486
ag1487
ag3131
ag1491
ag1492
ag3132
ag1496
ag1497
ag1498
ag3133
ag1501
ag1502
ag1503
ag1504
ag1505
ag1506
a(lp3553
I222
ag3551
aag3134
ag1510
ag1511
ag1512
ag1513
ag3135
ag1516
ag1517
ag1518
ag1519
ag1520
ag3136
ag1524
ag1525
ag1526
ag1527
ag3137
ag1530
ag1531
ag1532
ag1533
ag1534
ag1535
ag1536
ag1537
ag1538
ag1539
ag3138
ag1543
ag1544
ag1545
ag3139
ag1548
ag1549
ag1550
ag1551
ag3140
ag1555
ag1556
ag3141
ag1560
ag1561
ag3142
ag1564
ag1565
ag1566
ag1567
ag3143
ag1570
ag1571
ag1572
ag1573
ag1574
ag3144
ag1578
ag1579
ag3145
ag1583
ag1584
ag3146
ag1587
ag1588
ag1589
ag1590
ag1591
ag1592
ag1593
ag1594
ag1595
ag1596
ag3147
ag1600
ag1601
ag1602
ag3148
ag1605
ag1606
ag1607
ag1608
ag3149
ag1611
ag1612
ag1613
ag1614
ag1615
ag3150
ag1619
ag1620
ag3151
ag1624
ag1625
ag3152
ag1629
ag1630
ag3153
ag1633
ag1634
ag1635
ag1636
ag1637
ag1638
ag3154
ag1642
ag1643
ag3155
ag1646
ag3156
ag1649
ag1650
ag1651
ag1652
ag1653
ag1654
ag3157
ag1657
ag1658
ag1659
ag1660
ag1661
a(lp3554
I342
ag3551
aag3158
ag1665
ag1666
ag1667
ag3159
ag1670
ag1671
ag1672
ag1673
ag1674
ag3160
ag1677
ag1678
ag1679
ag1680
ag3161
ag1684
ag1685
ag3162
ag1689
ag1690
ag3163
ag1693
ag1694
ag1695
ag1696
ag1697
ag1698
ag3164
ag1702
ag1703
ag1704
ag3165
ag1708
ag1709
ag1710
ag3166
ag1714
ag1715
ag1716
ag3167
ag1719
ag1720
ag1721
ag1722
ag1723
ag1724
ag3168
ag1727
ag1728
ag1729
ag1730
a(lp3555
I395
ag3551
aag3169
ag1733
ag1734
ag1735
ag3170
ag1738
ag1739
ag1740
ag1741
ag1742
ag1743
ag3171
ag1747
ag1748
ag1749
ag3172
ag1752
ag1753
ag1754
ag1755
ag1756
ag1757
ag3173
ag1761
ag1762
ag1763
ag3174
ag1766
ag1767
ag1768
ag1769
ag3175
ag1773
ag1774
ag3176
ag1777
ag1778
ag1779
a(lp3556
I434
ag3547
aag3177
ag1783
ag1784
ag1785
a(lp3557
I439
ag3547
aag3178
ag1789
ag1790
ag3179
ag1793
ag1794
ag1795
a(lp3558
I447
aS';'
p3559
aag3180
ag1798
ag1799
ag1800
ag1801
ag1802
ag1803
ag1804
ag1805
ag1806
ag3181
ag1810
ag1811
ag1812
ag3182
ag1815
ag1816
ag1817
a(lp3560
I466
ag3551
aag3183
ag1820
ag1821
ag1822
ag1823
ag3184
ag1827
ag1828
ag1829
ag3185
ag1832
ag1833
ag1834
ag1835
ag1836
ag3186
ag1839
ag1840
ag1841
ag1842
ag1843
ag1844
ag3187
ag1848
ag1849
ag1850
ag3188
ag1853
ag1854
ag1855
ag3189
ag1859
ag1860
ag1861
ag3190
ag1864
ag1865
ag1866
ag1867
ag1868
ag1869
ag3191
ag1873
ag1875
ag1876
ag1877
ag3192
ag1880
ag1881
ag1882
ag1883
ag3193
ag1887
ag1888
ag1889
ag3194
ag1892
ag1893
ag1894
ag1895
ag1896
ag3195
ag1899
ag1900
ag1901
ag1902
ag3196
ag1906
ag1907
a(lp3561
I536
ag3551
aag3197
ag1911
ag1912
ag3198
ag1916
ag1917
ag1918
ag3199
ag1922
ag1923
ag1924
ag1925
ag3200
ag1928
ag1929
ag1930
ag1931
ag1932
ag1933
ag1934
ag3201
ag1938
ag1939
ag3202
ag1943
ag1944
ag1945
ag1946
ag3203
ag1949
ag1950
ag1951
ag1952
ag1953
ag1954
a(lp3562
I572
ag3547
aag3204
ag1957
ag1958
ag1959
ag3205
ag1963
ag1964
ag1965
ag3206
ag1969
ag1970
ag1971
ag3207
ag1974
ag1975
ag1976
ag1977
ag1978
ag1979
ag1980
ag3208
ag1983
ag1984
ag1985
ag3209
ag1989
ag1990
ag3210
ag1994
ag1995
ag3211
ag1999
ag2000
ag2001
ag3212
ag2004
ag2005
ag2006
ag2007
ag2008
ag3213
ag2012
ag2013
ag3214
ag2017
ag2018
ag2019
ag2020
ag3215
ag2023
ag2024
ag2025
ag2026
ag2027
ag2028
ag2029
a(lp3563
I629
ag3551
aag3216
ag2033
ag2034
ag2035
ag2036
ag3217
ag2039
ag2040
ag2041
ag2042
ag2043
ag2044
ag3218
ag2047
ag2048
ag2049
ag2050
ag3219
ag2054
ag2055
ag3220
ag2058
ag2059
ag2060
ag2061
ag3221
ag2064
a(lp3564
I657
aS'?'
p3565
aag3222
ag2067
ag2068
ag2069
ag2070
ag3223
ag2073
ag2075
ag2076
ag2077
ag2079
ag2081
ag2082
ag2083
ag2084
ag2086
ag2087
ag2088
ag2089
ag2090
ag2091
a(lp3566
I679
ag3551
aag3224
ag2094
ag2095
ag2096
ag2097
ag2098
ag3225
ag2102
ag2103
ag3226
ag2106
ag2107
ag2108
ag3227
ag2112
ag2113
ag2114
ag3228
ag2117
ag2118
ag2119
ag2120
ag2121
ag2122
ag3229
ag2126
ag2127
ag2128
ag3230
ag2131
ag2132
ag2133
ag2134
ag3231
ag2138
ag2139
ag2140
ag2141
ag3232
ag2144
ag2145
ag2146
ag2147
ag3233
ag2151
ag2152
ag3234
ag2156
ag2157
ag2158
ag3235
ag2161
ag2162
ag2163
ag2164
ag2165
ag2166
ag3236
ag2169
ag2170
ag2171
ag2172
ag3237
ag2176
ag2177
ag2178
ag3238
ag2182
ag2183
ag3239
ag2186
ag2187
ag2188
ag2189
a(lp3567
I754
ag3551
aag3240
ag2192
ag2193
ag2194
ag3241
ag2198
ag2199
ag2200
ag2201
ag3242
ag2205
ag2206
ag3243
ag2209
ag3244
ag2212
ag2213
ag2214
ag2215
ag3245
ag2219
ag2220
ag3246
ag2223
ag2224
ag2225
ag2226
ag3247
ag2230
ag2231
ag3248
ag2234
ag2235
ag2236
ag3249
ag2240
ag2241
ag2242
ag3250
ag2245
ag2246
ag2247
ag2248
ag3251
ag2252
ag2253
ag2254
ag3252
ag2258
ag2259
ag2260
ag3253
ag2263
ag2264
ag2265
ag3254
ag2269
ag2270
ag2271
ag3255
ag2274
ag2275
ag2276
ag2277
ag2278
ag2279
ag3256
ag2283
ag2284
ag2285
ag2286
ag2287
ag2288
ag3257
ag2292
ag2293
ag2294
ag3258
ag2298
ag2299
ag3259
ag2302
ag2303
ag2304
ag2305
ag2306
ag2307
ag2308
ag2309
ag3260
ag2312
ag2313
ag2314
ag2315
ag3261
ag2319
ag2320
ag2321
ag2322
ag3262
ag2326
ag2327
ag2328
ag3263
ag2331
ag2332
ag2333
ag2334
ag2335
a(lp3568
I864
ag3551
aag3264
ag2339
ag2340
ag2341
ag2342
ag3265
ag2345
ag2346
ag2347
ag2348
ag2349
ag3266
ag2353
ag2354
ag2355
ag2356
ag3267
ag2360
ag2361
ag3268
ag2364
ag2365
ag2366
ag2367
a(lp3569
I889
ag3547
aag3269
ag2371
ag2372
ag2373
ag2374
ag3270
ag2377
ag2378
ag2379
ag2380
ag2381
ag3271
ag2385
ag2386
ag2387
ag2388
ag3272
ag2392
ag2393
ag2394
ag3273
ag2398
ag2399
ag3274
ag2403
ag2404
ag3275
ag2407
ag2408
ag2409
ag2410
a(lp3570
I921
ag3551
aag3276
ag2414
ag2415
ag2416
ag3277
ag2419
ag2420
ag2421
ag3278
ag2425
ag2426
ag3279
ag2429
ag2430
ag2431
ag2432
ag2433
ag2434
ag2435
ag2436
ag2437
ag3280
ag2441
ag2442
ag2443
ag2444
ag3281
ag2448
ag2449
ag2450
ag3282
ag2453
ag2454
ag2455
ag2456
ag3283
ag2460
ag2461
ag3284
ag2464
ag2465
ag2466
ag2467
ag3285
ag2471
ag2472
ag3286
ag2476
ag2477
ag2478
ag3287
ag2481
ag2482
ag2483
ag2484
ag2485
ag2486
ag3288
ag2490
ag2491
ag3289
ag2494
ag2495
ag2496
ag2497
ag3290
ag2501
ag2502
ag2503
ag3291
ag2506
ag2507
ag2508
ag2509
ag3292
ag2513
ag2514
ag2515
ag2516
ag3293
ag2520
ag2521
ag2522
ag3294
ag2526
ag2527
a(lp3571
I1008
ag3551
aag3295
ag2530
ag2531
ag2532
ag2533
ag2534
ag2535
ag2536
ag2537
a(lp3572
I1018
ag3545
aag3296
ag2540
ag2541
ag2542
ag2543
ag2544
ag2545
ag2546
ag2547
ag2548
ag2549
ag3297
ag2552
ag2553
ag2554
ag2555
ag3298
ag2559
ag2560
ag2561
ag3299
ag2565
ag2566
ag3300
ag2570
ag2571
ag3301
ag2574
ag2575
ag2576
ag2577
ag3302
ag2581
ag2582
ag2583
ag2584
ag3303
ag2587
ag2588
ag2589
ag2590
ag2591
ag3304
ag2595
ag2596
ag3305
ag2600
ag2601
ag2602
ag2603
ag3306
ag2606
ag2607
ag2608
ag2609
ag2610
ag2611
ag2612
ag2613
ag2614
ag2615
ag3307
ag2618
ag2619
ag2620
ag2621
ag3308
ag2625
ag2626
ag3309
ag2630
ag2631
ag3310
ag2634
ag2635
ag2636
ag2637
ag2638
ag2639
a(lp3573
I1098
ag3551
aag3311
ag2643
ag2644
ag3312
ag2648
ag2649
ag3313
ag2652
ag2653
ag2654
ag2655
ag2656
ag2657
ag2658
ag2659
ag2660
ag3314
ag2664
ag2665
ag2666
ag2667
ag3315
ag2671
ag2672
ag2673
ag3316
ag2677
ag2678
ag2679
ag3317
ag2682
ag2683
ag2684
ag3318
ag2688
ag2689
ag2690
ag3319
ag2693
ag2694
ag2695
ag2696
ag2697
ag2698
ag3320
ag2702
ag2703
ag2704
ag3321
ag2707
ag2708
ag2709
ag2710
ag3322
ag2713
ag2714
ag2715
ag2716
ag2717
ag2718
ag2719
ag2720
ag2721
ag3323
ag2724
ag2725
ag2726
ag2727
ag2728
a(lp3574
I1168
ag3551
aag3324
ag2732
ag2733
ag3325
ag2737
ag2738
ag2739
ag3326
ag2743
ag2744
ag2745
ag3327
ag2748
ag2749
ag2750
ag3328
ag2754
ag2755
ag3329
ag2759
ag2760
ag3330
ag2763
ag2764
ag2765
ag2766
ag2767
ag2768
a(lp3575
I1197
ag3547
aag3331
ag2772
ag2773
ag2774
ag2775
ag3332
ag2779
ag2780
ag2781
ag3333
ag2785
ag2786
ag2787
ag3334
ag2790
ag2791
ag2792
ag2793
ag3335
ag2797
ag2798
ag3336
ag2801
ag2802
ag2803
ag2804
ag2805
ag2806
ag3337
ag2810
ag2811
ag3338
ag2815
ag2816
ag2817
ag3339
ag2820
ag2821
ag2822
ag2823
ag2824
ag3340
ag2828
ag2829
ag3341
ag2832
ag2833
ag2834
ag2835
ag3342
ag2839
ag2840
ag2841
ag2842
ag2843
ag2844
ag2845
ag3343
ag2849
ag2850
ag2851
ag3344
ag2854
ag2855
ag2856
ag2857
ag2858
ag2859
ag2860
ag3345
ag2863
ag2864
ag2865
ag2866
ag3346
ag2870
ag2871
ag2872
ag3347
ag2876
ag2877
ag2878
ag3348
ag2881
ag2882
ag2883
ag2884
ag2885
ag2886
ag3349
ag2889
ag2890
ag2891
ag2892
a(lp3576
I1292
ag3551
aag3350
ag2896
ag2897
ag3351
ag2901
ag2902
ag2903
ag3352
ag2906
ag2907
ag2908
ag2909
ag3353
ag2913
ag2914
ag2915
ag3354
ag2919
ag2920
ag3355
ag2923
ag2924
ag2925
ag2926
ag2927
ag2928
a(lp3577
I1319
ag3547
aag3356
ag2932
ag2933
ag2934
ag3357
ag2938
ag2939
ag2940
ag2941
ag3358
ag2945
ag2946
ag3359
ag2949
ag2950
ag2951
ag2952
ag3360
ag2956
ag2957
ag3361
ag2960
ag2961
ag2962
ag2963
ag3362
ag2967
ag2968
ag2969
ag3363
ag2972
ag2973
ag2974
ag2975
ag2976
ag2977
ag2978
ag2979
ag2980
ag2981
ag3364
ag2985
ag2986
ag3365
ag2990
ag2991
ag2992
ag3366
ag2996
ag2997
ag2998
ag3367
ag3001
ag3002
ag3003
ag3004
ag3005
ag3006
ag3007
ag3368
ag3011
ag3012
ag3013
ag3014
ag3015
ag3016
ag3017
ag3018
ag3369
ag3022
ag3023
ag3024
ag3370
ag3027
ag3028
ag3029
ag3030
ag3371
ag3034
ag3035
ag3372
ag3038
ag3039
ag3040
ag3041
ag3042
ag3043
ag3373
ag3047
ag3048
ag3374
ag3052
ag3053
ag3054
ag3375
ag3057
ag3058
ag3059
ag3060
ag3061
ag3062
ag3063
ag3064
a(lp3578
I1423
ag3551
aag3376
ag3067
ag3068
ag3069
ag3070
ag3071
ag3072
ag3073
ag3074
ag3075
ag3377
ag3078
ag3079
ag3080
ag3081
ag3082
ag3083
ag3378
ag3086
ag3087
ag3088
ag3089
ag3090
ag3091
ag3379
ag3380
ag3381
ag3383
ag3384
asS'docName'
p3579
S'source-document02608.txt'
p3580
sb.