(iModel.Document
Document
p0
(dp1
S'fmap'
p2
(lp3
(lp4
I0
aI5
aS'images'
p5
a(lp6
S'*'
p7
ag5
aaa(lp8
I0
aI5
ag5
a(lp9
g7
ag5
aaa(lp10
I0
aI5
ag5
a(lp11
g7
ag5
aaa(lp12
I0
aI5
ag5
a(lp13
g7
ag5
aaa(lp14
I11
aI17
aS'resized'
p15
a(lp16
g5
ag15
aaa(lp17
I11
aI17
ag15
a(lp18
g7
ag15
aaa(lp19
I11
aI17
ag15
a(lp20
g7
ag15
aaa(lp21
I11
aI17
ag15
a(lp22
g7
ag15
aaa(lp23
I21
aI25
aS'click'
p24
a(lp25
g15
ag24
aaa(lp26
I21
aI25
ag24
a(lp27
g5
ag24
aaa(lp28
I21
aI25
ag24
a(lp29
g7
ag24
aaa(lp30
I21
aI25
ag24
a(lp31
g7
ag24
aaa(lp32
I38
aI41
aS'view'
p33
a(lp34
g24
ag33
aaa(lp35
I38
aI41
ag33
a(lp36
g15
ag33
aaa(lp37
I38
aI41
ag33
a(lp38
g5
ag33
aaa(lp39
I38
aI41
ag33
a(lp40
g7
ag33
aaa(lp41
I51
aI54
aS'full'
p42
a(lp43
g33
ag42
aaa(lp44
I51
aI54
ag42
a(lp45
g24
ag42
aaa(lp46
I51
aI54
ag42
a(lp47
g15
ag42
aaa(lp48
I51
aI54
ag42
a(lp49
g5
ag42
aaa(lp50
I56
aI59
aS'size'
p51
a(lp52
g42
ag51
aaa(lp53
I56
aI59
ag51
a(lp54
g33
ag51
aaa(lp55
I56
aI59
ag51
a(lp56
g24
ag51
aaa(lp57
I56
aI59
ag51
a(lp58
g15
ag51
aaa(lp59
I61
aI68
aS'feedback'
p60
a(lp61
g51
ag60
aaa(lp62
I61
aI68
ag60
a(lp63
g42
ag60
aaa(lp64
I61
aI68
ag60
a(lp65
g33
ag60
aaa(lp66
I61
aI68
ag60
a(lp67
g24
ag60
aaa(lp68
I75
aI82
aS'what\xe2\x80\x99s'
p69
a(lp70
g60
ag69
aaa(lp71
I75
aI82
ag69
a(lp72
g51
ag69
aaa(lp73
I75
aI82
ag69
a(lp74
g42
ag69
aaa(lp75
I75
aI82
ag69
a(lp76
g33
ag69
aaa(lp77
I89
aI96
aS'favorite'
p78
a(lp79
g69
ag78
aaa(lp80
I89
aI96
ag78
a(lp81
g60
ag78
aaa(lp82
I89
aI96
ag78
a(lp83
g51
ag78
aaa(lp84
I89
aI96
ag78
a(lp85
g42
ag78
aaa(lp86
I100
aI106
aS'related'
p87
a(lp88
g78
ag87
aaa(lp89
I100
aI106
ag87
a(lp90
g69
ag87
aaa(lp91
I100
aI106
ag87
a(lp92
g60
ag87
aaa(lp93
I100
aI106
ag87
a(lp94
g51
ag87
aaa(lp95
I108
aI112
aS'posts'
p96
a(lp97
g87
ag96
aaa(lp98
I108
aI112
ag96
a(lp99
g78
ag96
aaa(lp100
I108
aI112
ag96
a(lp101
g69
ag96
aaa(lp102
I108
aI112
ag96
a(lp103
g60
ag96
aaa(lp104
I122
aI127
aS'follow'
p105
a(lp106
g96
ag105
aaa(lp107
I122
aI127
ag105
a(lp108
g87
ag105
aaa(lp109
I122
aI127
ag105
a(lp110
g78
ag105
aaa(lp111
I122
aI127
ag105
a(lp112
g69
ag105
aaa(lp113
I133
aI141
aS'responses'
p114
a(lp115
g105
ag114
aaa(lp116
I133
aI141
ag114
a(lp117
g96
ag114
aaa(lp118
I133
aI141
ag114
a(lp119
g87
ag114
aaa(lp120
I133
aI141
ag114
a(lp121
g78
ag114
aaa(lp122
I151
aI155
aS'entry'
p123
a(lp124
g114
ag123
aaa(lp125
I151
aI155
ag123
a(lp126
g105
ag123
aaa(lp127
I151
aI155
ag123
a(lp128
g96
ag123
aaa(lp129
I151
aI155
ag123
a(lp130
g87
ag123
aaa(lp131
I169
aI172
aS'feed'
p132
a(lp133
g123
ag132
aaa(lp134
I169
aI172
ag132
a(lp135
g114
ag132
aaa(lp136
I169
aI172
ag132
a(lp137
g105
ag132
aaa(lp138
I169
aI172
ag132
a(lp139
g96
ag132
aaa(lp140
I202
aI205
aS'site'
p141
a(lp142
g132
ag141
aaa(lp143
I202
aI205
ag141
a(lp144
g123
ag141
aaa(lp145
I202
aI205
ag141
a(lp146
g114
ag141
aaa(lp147
I202
aI205
ag141
a(lp148
g105
ag141
aaa(lp149
I208
aI210
aS'rss'
p150
a(lp151
g141
ag150
aaa(lp152
I208
aI210
ag150
a(lp153
g132
ag150
aaa(lp154
I208
aI210
ag150
a(lp155
g123
ag150
aaa(lp156
I208
aI210
ag150
a(lp157
g114
ag150
aaa(lp158
I212
aI214
aS'20'
p159
a(lp160
g150
ag159
aaa(lp161
I212
aI214
ag159
a(lp162
g141
ag159
aaa(lp163
I212
aI214
ag159
a(lp164
g132
ag159
aaa(lp165
I212
aI214
ag159
a(lp166
g123
ag159
aaa(lp167
I216
aI220
aS'leave'
p168
a(lp169
g159
ag168
aaa(lp170
I216
aI220
ag168
a(lp171
g150
ag168
aaa(lp172
I216
aI220
ag168
a(lp173
g141
ag168
aaa(lp174
I216
aI220
ag168
a(lp175
g132
ag168
aaa(lp176
I224
aI231
aS'response'
p177
a(lp178
g168
ag177
aaa(lp179
I224
aI231
ag177
a(lp180
g159
ag177
aaa(lp181
I224
aI231
ag177
a(lp182
g150
ag177
aaa(lp183
I224
aI231
ag177
a(lp184
g141
ag177
aaa(lp185
I233
aI241
aS'trackback'
p186
a(lp187
g177
ag186
aaa(lp188
I233
aI241
ag186
a(lp189
g168
ag186
aaa(lp190
I233
aI241
ag186
a(lp191
g159
ag186
aaa(lp192
I233
aI241
ag186
a(lp193
g150
ag186
aaa(lp194
I243
aI243
aS'5'
p195
a(lp196
g186
ag195
aaa(lp197
I243
aI243
ag195
a(lp198
g177
ag195
aaa(lp199
I243
aI243
ag195
a(lp200
g168
ag195
aaa(lp201
I243
aI243
ag195
a(lp202
g159
ag195
aaa(lp203
I245
aI253
aS'responses'
p204
a(lp205
g195
ag204
aaa(lp206
I245
aI253
ag204
a(lp207
g186
ag204
aaa(lp208
I245
aI253
ag204
a(lp209
g177
ag204
aaa(lp210
I245
aI253
ag204
a(lp211
g168
ag204
aaa(lp212
I258
aI264
aS'\xe2\x80\x9cnice'
p213
a(lp214
g204
ag213
aaa(lp215
I258
aI264
ag213
a(lp216
g195
ag213
aaa(lp217
I258
aI264
ag213
a(lp218
g186
ag213
aaa(lp219
I258
aI264
ag213
a(lp220
g177
ag213
aaa(lp221
I266
aI271
aS'images'
p222
a(lp223
g213
ag222
aaa(lp224
I266
aI271
ag222
a(lp225
g204
ag222
aaa(lp226
I266
aI271
ag222
a(lp227
g195
ag222
aaa(lp228
I266
aI271
ag222
a(lp229
g186
ag222
aaa(lp230
I273
aI276
aS'made'
p231
a(lp232
g222
ag231
aaa(lp233
I273
aI276
ag231
a(lp234
g213
ag231
aaa(lp235
I273
aI276
ag231
a(lp236
g204
ag231
aaa(lp237
I273
aI276
ag231
a(lp238
g195
ag231
aaa(lp239
I281
aI292
aS'photoshop\xe2\x80\x9d'
p240
a(lp241
g231
ag240
aaa(lp242
I281
aI292
ag240
a(lp243
g222
ag240
aaa(lp244
I281
aI292
ag240
a(lp245
g213
ag240
aaa(lp246
I281
aI292
ag240
a(lp247
g204
ag240
aaa(lp248
I294
aI299
aS'ashley'
p249
a(lp250
g240
ag249
aaa(lp251
I294
aI299
ag249
a(lp252
g231
ag249
aaa(lp253
I294
aI299
ag249
a(lp254
g222
ag249
aaa(lp255
I294
aI299
ag249
a(lp256
g213
ag249
aaa(lp257
I301
aI303
aS'red'
p258
a(lp259
g249
ag258
aaa(lp260
I301
aI303
ag258
a(lp261
g240
ag258
aaa(lp262
I301
aI303
ag258
a(lp263
g231
ag258
aaa(lp264
I301
aI303
ag258
a(lp265
g222
ag258
aaa(lp266
I306
aI310
aS'would'
p267
a(lp268
g258
ag267
aaa(lp269
I306
aI310
ag267
a(lp270
g249
ag267
aaa(lp271
I306
aI310
ag267
a(lp272
g240
ag267
aaa(lp273
I306
aI310
ag267
a(lp274
g231
ag267
aaa(lp275
I316
aI319
aS'like'
p276
a(lp277
g267
ag276
aaa(lp278
I316
aI319
ag276
a(lp279
g258
ag276
aaa(lp280
I316
aI319
ag276
a(lp281
g249
ag276
aaa(lp282
I316
aI319
ag276
a(lp283
g240
ag276
aaa(lp284
I324
aI326
aS'see'
p285
a(lp286
g276
ag285
aaa(lp287
I324
aI326
ag285
a(lp288
g267
ag285
aaa(lp289
I324
aI326
ag285
a(lp290
g258
ag285
aaa(lp291
I324
aI326
ag285
a(lp292
g249
ag285
aaa(lp293
I332
aI338
aS'covered'
p294
a(lp295
g285
ag294
aaa(lp296
I332
aI338
ag294
a(lp297
g276
ag294
aaa(lp298
I332
aI338
ag294
a(lp299
g267
ag294
aaa(lp300
I332
aI338
ag294
a(lp301
g258
ag294
aaa(lp302
I343
aI347
aS'blood'
p303
a(lp304
g294
ag303
aaa(lp305
I343
aI347
ag303
a(lp306
g285
ag303
aaa(lp307
I343
aI347
ag303
a(lp308
g276
ag303
aaa(lp309
I343
aI347
ag303
a(lp310
g267
ag303
aaa(lp311
I354
aI359
aS'ashley'
p312
a(lp313
g303
ag312
aaa(lp314
I354
aI359
ag312
a(lp315
g294
ag312
aaa(lp316
I354
aI359
ag312
a(lp317
g285
ag312
aaa(lp318
I354
aI359
ag312
a(lp319
g276
ag312
aaa(lp320
I361
aI365
aS'march'
p321
a(lp322
g312
ag321
aaa(lp323
I361
aI365
ag321
a(lp324
g303
ag321
aaa(lp325
I361
aI365
ag321
a(lp326
g294
ag321
aaa(lp327
I361
aI365
ag321
a(lp328
g285
ag321
aaa(lp329
I367
aI370
aS'24th'
p330
a(lp331
g321
ag330
aaa(lp332
I367
aI370
ag330
a(lp333
g312
ag330
aaa(lp334
I367
aI370
ag330
a(lp335
g303
ag330
aaa(lp336
I367
aI370
ag330
a(lp337
g294
ag330
aaa(lp338
I373
aI376
aS'2008'
p339
a(lp340
g330
ag339
aaa(lp341
I373
aI376
ag339
a(lp342
g321
ag339
aaa(lp343
I373
aI376
ag339
a(lp344
g312
ag339
aaa(lp345
I373
aI376
ag339
a(lp346
g303
ag339
aaa(lp347
I381
aI384
aS'115'
p348
a(lp349
g339
ag348
aaa(lp350
I381
aI384
ag348
a(lp351
g330
ag348
aaa(lp352
I381
aI384
ag348
a(lp353
g321
ag348
aaa(lp354
I381
aI384
ag348
a(lp355
g312
ag348
aaa(lp356
I397
aI400
aS'make'
p357
a(lp358
g348
ag357
aaa(lp359
I397
aI400
ag357
a(lp360
g339
ag357
aaa(lp361
I397
aI400
ag357
a(lp362
g330
ag357
aaa(lp363
I397
aI400
ag357
a(lp364
g321
ag357
aaa(lp365
I411
aI416
aS'really'
p366
a(lp367
g357
ag366
aaa(lp368
I411
aI416
ag366
a(lp369
g348
ag366
aaa(lp370
I411
aI416
ag366
a(lp371
g339
ag366
aaa(lp372
I411
aI416
ag366
a(lp373
g330
ag366
aaa(lp374
I418
aI421
aS'like'
p375
a(lp376
g366
ag375
aaa(lp377
I418
aI421
ag375
a(lp378
g357
ag375
aaa(lp379
I418
aI421
ag375
a(lp380
g348
ag375
aaa(lp381
I418
aI421
ag375
a(lp382
g339
ag375
aaa(lp383
I440
aI449
aS'paintwoman'
p384
a(lp385
g375
ag384
aaa(lp386
I440
aI449
ag384
a(lp387
g366
ag384
aaa(lp388
I440
aI449
ag384
a(lp389
g357
ag384
aaa(lp390
I440
aI449
ag384
a(lp391
g348
ag384
aaa(lp392
I456
aI458
aS'bit'
p393
a(lp394
g384
ag393
aaa(lp395
I456
aI458
ag393
a(lp396
g375
ag393
aaa(lp397
I456
aI458
ag393
a(lp398
g366
ag393
aaa(lp399
I456
aI458
ag393
a(lp400
g357
ag393
aaa(lp401
I467
aI472
aS'skinny'
p402
a(lp403
g393
ag402
aaa(lp404
I467
aI472
ag402
a(lp405
g384
ag402
aaa(lp406
I467
aI472
ag402
a(lp407
g375
ag402
aaa(lp408
I467
aI472
ag402
a(lp409
g366
ag402
aaa(lp410
I474
aI477
aS'side'
p411
a(lp412
g402
ag411
aaa(lp413
I474
aI477
ag411
a(lp414
g393
ag411
aaa(lp415
I474
aI477
ag411
a(lp416
g384
ag411
aaa(lp417
I474
aI477
ag411
a(lp418
g375
ag411
aaa(lp419
I482
aI486
aS'would'
p420
a(lp421
g411
ag420
aaa(lp422
I482
aI486
ag420
a(lp423
g402
ag420
aaa(lp424
I482
aI486
ag420
a(lp425
g393
ag420
aaa(lp426
I482
aI486
ag420
a(lp427
g384
ag420
aaa(lp428
I488
aI491
aS'like'
p429
a(lp430
g420
ag429
aaa(lp431
I488
aI491
ag429
a(lp432
g411
ag429
aaa(lp433
I488
aI491
ag429
a(lp434
g402
ag429
aaa(lp435
I488
aI491
ag429
a(lp436
g393
ag429
aaa(lp437
I496
aI498
aS'see'
p438
a(lp439
g429
ag438
aaa(lp440
I496
aI498
ag438
a(lp441
g420
ag438
aaa(lp442
I496
aI498
ag438
a(lp443
g411
ag438
aaa(lp444
I496
aI498
ag438
a(lp445
g402
ag438
aaa(lp446
I507
aI516
aS'voluptuous'
p447
a(lp448
g438
ag447
aaa(lp449
I507
aI516
ag447
a(lp450
g429
ag447
aaa(lp451
I507
aI516
ag447
a(lp452
g420
ag447
aaa(lp453
I507
aI516
ag447
a(lp454
g411
ag447
aaa(lp455
I518
aI520
aS'one'
p456
a(lp457
g447
ag456
aaa(lp458
I518
aI520
ag456
a(lp459
g438
ag456
aaa(lp460
I518
aI520
ag456
a(lp461
g429
ag456
aaa(lp462
I518
aI520
ag456
a(lp463
g420
ag456
aaa(lp464
I523
aI527
aS'would'
p465
a(lp466
g456
ag465
aaa(lp467
I523
aI527
ag465
a(lp468
g447
ag465
aaa(lp469
I523
aI527
ag465
a(lp470
g438
ag465
aaa(lp471
I523
aI527
ag465
a(lp472
g429
ag465
aaa(lp473
I529
aI535
aS'combine'
p474
a(lp475
g465
ag474
aaa(lp476
I529
aI535
ag474
a(lp477
g456
ag474
aaa(lp478
I529
aI535
ag474
a(lp479
g447
ag474
aaa(lp480
I529
aI535
ag474
a(lp481
g438
ag474
aaa(lp482
I546
aI550
aS'paint'
p483
a(lp484
g474
ag483
aaa(lp485
I546
aI550
ag483
a(lp486
g465
ag483
aaa(lp487
I546
aI550
ag483
a(lp488
g456
ag483
aaa(lp489
I546
aI550
ag483
a(lp490
g447
ag483
aaa(lp491
I554
aI558
aS'think'
p492
a(lp493
g483
ag492
aaa(lp494
I554
aI558
ag492
a(lp495
g474
ag492
aaa(lp496
I554
aI558
ag492
a(lp497
g465
ag492
aaa(lp498
I554
aI558
ag492
a(lp499
g456
ag492
aaa(lp500
I564
aI572
aS'favourite'
p501
a(lp502
g492
ag501
aaa(lp503
I564
aI572
ag501
a(lp504
g483
ag501
aaa(lp505
I564
aI572
ag501
a(lp506
g474
ag501
aaa(lp507
I564
aI572
ag501
a(lp508
g465
ag501
aaa(lp509
I581
aI584
aS'girl'
p510
a(lp511
g501
ag510
aaa(lp512
I581
aI584
ag510
a(lp513
g492
ag510
aaa(lp514
I581
aI584
ag510
a(lp515
g483
ag510
aaa(lp516
I581
aI584
ag510
a(lp517
g474
ag510
aaa(lp518
I595
aI603
aS'horsehair'
p519
a(lp520
g510
ag519
aaa(lp521
I595
aI603
ag519
a(lp522
g501
ag519
aaa(lp523
I595
aI603
ag519
a(lp524
g492
ag519
aaa(lp525
I595
aI603
ag519
a(lp526
g483
ag519
aaa(lp527
I606
aI610
aS'jyoti'
p528
a(lp529
g519
ag528
aaa(lp530
I606
aI610
ag528
a(lp531
g510
ag528
aaa(lp532
I606
aI610
ag528
a(lp533
g501
ag528
aaa(lp534
I606
aI610
ag528
a(lp535
g492
ag528
aaa(lp536
I612
aI617
aS'sharma'
p537
a(lp538
g528
ag537
aaa(lp539
I612
aI617
ag537
a(lp540
g519
ag537
aaa(lp541
I612
aI617
ag537
a(lp542
g510
ag537
aaa(lp543
I612
aI617
ag537
a(lp544
g501
ag537
aaa(lp545
I621
aI624
aS'like'
p546
a(lp547
g537
ag546
aaa(lp548
I621
aI624
ag546
a(lp549
g528
ag546
aaa(lp550
I621
aI624
ag546
a(lp551
g519
ag546
aaa(lp552
I621
aI624
ag546
a(lp553
g510
ag546
aaa(lp554
I634
aI642
aS'imagesbt'
p555
a(lp556
g546
ag555
aaa(lp557
I634
aI642
ag555
a(lp558
g537
ag555
aaa(lp559
I634
aI642
ag555
a(lp560
g528
ag555
aaa(lp561
I634
aI642
ag555
a(lp562
g519
ag555
aaa(lp563
I646
aI649
aS'like'
p564
a(lp565
g555
ag564
aaa(lp566
I646
aI649
ag564
a(lp567
g546
ag564
aaa(lp568
I646
aI649
ag564
a(lp569
g537
ag564
aaa(lp570
I646
aI649
ag564
a(lp571
g528
ag564
aaa(lp572
I655
aI659
aS'horse'
p573
a(lp574
g564
ag573
aaa(lp575
I655
aI659
ag573
a(lp576
g555
ag573
aaa(lp577
I655
aI659
ag573
a(lp578
g546
ag573
aaa(lp579
I655
aI659
ag573
a(lp580
g537
ag573
aaa(lp581
I661
aI663
aS'one'
p582
a(lp583
g573
ag582
aaa(lp584
I661
aI663
ag582
a(lp585
g564
ag582
aaa(lp586
I661
aI663
ag582
a(lp587
g555
ag582
aaa(lp588
I661
aI663
ag582
a(lp589
g546
ag582
aaa(lp590
I670
aI670
aS'2'
p591
a(lp592
g582
ag591
aaa(lp593
I670
aI670
ag591
a(lp594
g573
ag591
aaa(lp595
I670
aI670
ag591
a(lp596
g564
ag591
aaa(lp597
I670
aI670
ag591
a(lp598
g555
ag591
aaa(lp599
I672
aI674
aS'gud'
p600
a(lp601
g591
ag600
aaa(lp602
I672
aI674
ag600
a(lp603
g582
ag600
aaa(lp604
I672
aI674
ag600
a(lp605
g573
ag600
aaa(lp606
I672
aI674
ag600
a(lp607
g564
ag600
aaa(lp608
I676
aI684
aS'workkeep'
p609
a(lp610
g600
ag609
aaa(lp611
I676
aI684
ag609
a(lp612
g591
ag609
aaa(lp613
I676
aI684
ag609
a(lp614
g582
ag609
aaa(lp615
I676
aI684
ag609
a(lp616
g573
ag609
aaa(lp617
I692
aI696
aS'enter'
p618
a(lp619
g609
ag618
aaa(lp620
I692
aI696
ag618
a(lp621
g600
ag618
aaa(lp622
I692
aI696
ag618
a(lp623
g591
ag618
aaa(lp624
I692
aI696
ag618
a(lp625
g582
ag618
aaa(lp626
I703
aI707
aS'email'
p627
a(lp628
g618
ag627
aaa(lp629
I703
aI707
ag627
a(lp630
g609
ag627
aaa(lp631
I703
aI707
ag627
a(lp632
g600
ag627
aaa(lp633
I703
aI707
ag627
a(lp634
g591
ag627
aaasS'wordMap'
p635
(lp636
(lp637
I0
aI5
ag5
a(lp638
(lp639
I0
aS'i'
p640
aa(lp641
I1
aS'm'
p642
aa(lp643
I2
aS'a'
p644
aa(lp645
I3
aS'g'
p646
aa(lp647
I4
aS'e'
p648
aa(lp649
I5
aS's'
p650
aaaa(lp651
I7
aI9
aS'are'
p652
a(lp653
(lp654
I7
ag644
aa(lp655
I8
aS'r'
p656
aa(lp657
I9
ag648
aaaa(lp658
I11
aI17
ag15
a(lp659
(lp660
I11
ag656
aa(lp661
I12
ag648
aa(lp662
I13
ag650
aa(lp663
I14
ag640
aa(lp664
I15
aS'z'
p665
aa(lp666
I16
ag648
aa(lp667
I17
aS'd'
p668
aaaa(lp669
I21
aI25
ag24
a(lp670
(lp671
I21
aS'c'
p672
aa(lp673
I22
aS'l'
p674
aa(lp675
I23
ag640
aa(lp676
I24
ag672
aa(lp677
I25
aS'k'
p678
aaaa(lp679
I27
aI28
aS'on'
p680
a(lp681
(lp682
I27
aS'o'
p683
aa(lp684
I28
aS'n'
p685
aaaa(lp686
I30
aI33
aS'them'
p687
a(lp688
(lp689
I30
aS't'
p690
aa(lp691
I31
aS'h'
p692
aa(lp693
I32
ag648
aa(lp694
I33
ag642
aaaa(lp695
I35
aI36
aS'to'
p696
a(lp697
(lp698
I35
ag690
aa(lp699
I36
ag683
aaaa(lp700
I38
aI41
ag33
a(lp701
(lp702
I38
aS'v'
p703
aa(lp704
I39
ag640
aa(lp705
I40
ag648
aa(lp706
I41
aS'w'
p707
aaaa(lp708
I43
aI46
aS'them'
p709
a(lp710
(lp711
I43
ag690
aa(lp712
I44
ag692
aa(lp713
I45
ag648
aa(lp714
I46
ag642
aaaa(lp715
I48
aI49
aS'in'
p716
a(lp717
(lp718
I48
ag640
aa(lp719
I49
ag685
aaaa(lp720
I51
aI54
ag42
a(lp721
(lp722
I51
aS'f'
p723
aa(lp724
I52
aS'u'
p725
aa(lp726
I53
ag674
aa(lp727
I54
ag674
aaaa(lp728
I56
aI59
ag51
a(lp729
(lp730
I56
ag650
aa(lp731
I57
ag640
aa(lp732
I58
ag665
aa(lp733
I59
ag648
aaaa(lp734
I61
aI68
ag60
a(lp735
(lp736
I61
ag723
aa(lp737
I62
ag648
aa(lp738
I63
ag648
aa(lp739
I64
ag668
aa(lp740
I65
aS'b'
p741
aa(lp742
I66
ag644
aa(lp743
I67
ag672
aa(lp744
I68
ag678
aaaa(lp745
I75
aI82
ag69
a(lp746
(lp747
I75
ag707
aa(lp748
I76
ag692
aa(lp749
I77
ag644
aa(lp750
I78
ag690
aa(lp751
I79
aS'\xe2'
p752
aa(lp753
I80
aS'\x80'
p754
aa(lp755
I81
aS'\x99'
p756
aa(lp757
I82
ag650
aaaa(lp758
I84
aI87
aS'your'
p759
a(lp760
(lp761
I84
aS'y'
p762
aa(lp763
I85
ag683
aa(lp764
I86
ag725
aa(lp765
I87
ag656
aaaa(lp766
I89
aI96
ag78
a(lp767
(lp768
I89
ag723
aa(lp769
I90
ag644
aa(lp770
I91
ag703
aa(lp771
I92
ag683
aa(lp772
I93
ag656
aa(lp773
I94
ag640
aa(lp774
I95
ag690
aa(lp775
I96
ag648
aaaa(lp776
I100
aI106
ag87
a(lp777
(lp778
I100
ag656
aa(lp779
I101
ag648
aa(lp780
I102
ag674
aa(lp781
I103
ag644
aa(lp782
I104
ag690
aa(lp783
I105
ag648
aa(lp784
I106
ag668
aaaa(lp785
I108
aI112
ag96
a(lp786
(lp787
I108
aS'p'
p788
aa(lp789
I109
ag683
aa(lp790
I110
ag650
aa(lp791
I111
ag690
aa(lp792
I112
ag650
aaaa(lp793
I114
aI116
aS'you'
p794
a(lp795
(lp796
I114
ag762
aa(lp797
I115
ag683
aa(lp798
I116
ag725
aaaa(lp799
I118
aI120
aS'can'
p800
a(lp801
(lp802
I118
ag672
aa(lp803
I119
ag644
aa(lp804
I120
ag685
aaaa(lp805
I122
aI127
ag105
a(lp806
(lp807
I122
ag723
aa(lp808
I123
ag683
aa(lp809
I124
ag674
aa(lp810
I125
ag674
aa(lp811
I126
ag683
aa(lp812
I127
ag707
aaaa(lp813
I129
aI131
aS'any'
p814
a(lp815
(lp816
I129
ag644
aa(lp817
I130
ag685
aa(lp818
I131
ag762
aaaa(lp819
I133
aI141
ag114
a(lp820
(lp821
I133
ag656
aa(lp822
I134
ag648
aa(lp823
I135
ag650
aa(lp824
I136
ag788
aa(lp825
I137
ag683
aa(lp826
I138
ag685
aa(lp827
I139
ag650
aa(lp828
I140
ag648
aa(lp829
I141
ag650
aaaa(lp830
I143
aI144
aS'to'
p831
a(lp832
(lp833
I143
ag690
aa(lp834
I144
ag683
aaaa(lp835
I146
aI149
aS'this'
p836
a(lp837
(lp838
I146
ag690
aa(lp839
I147
ag692
aa(lp840
I148
ag640
aa(lp841
I149
ag650
aaaa(lp842
I151
aI155
ag123
a(lp843
(lp844
I151
ag648
aa(lp845
I152
ag685
aa(lp846
I153
ag690
aa(lp847
I154
ag656
aa(lp848
I155
ag762
aaaa(lp849
I157
aI163
aS'through'
p850
a(lp851
(lp852
I157
ag690
aa(lp853
I158
ag692
aa(lp854
I159
ag656
aa(lp855
I160
ag683
aa(lp856
I161
ag725
aa(lp857
I162
ag646
aa(lp858
I163
ag692
aaaa(lp859
I165
aI167
aS'the'
p860
a(lp861
(lp862
I165
ag690
aa(lp863
I166
ag692
aa(lp864
I167
ag648
aaaa(lp865
I169
aI172
ag132
a(lp866
(lp867
I169
ag723
aa(lp868
I170
ag648
aa(lp869
I171
ag648
aa(lp870
I172
ag668
aaaa(lp871
I175
aI177
aS'you'
p872
a(lp873
(lp874
I175
ag762
aa(lp875
I176
ag683
aa(lp876
I177
ag725
aaaa(lp877
I179
aI181
aS'can'
p878
a(lp879
(lp880
I179
ag672
aa(lp881
I180
ag644
aa(lp882
I181
ag685
aaaa(lp883
I185
aI186
aS'or'
p884
a(lp885
(lp886
I185
ag683
aa(lp887
I186
ag656
aaaa(lp888
I188
aI191
aS'from'
p889
a(lp890
(lp891
I188
ag723
aa(lp892
I189
ag656
aa(lp893
I190
ag683
aa(lp894
I191
ag642
aaaa(lp895
I193
aI196
aS'your'
p896
a(lp897
(lp898
I193
ag762
aa(lp899
I194
ag683
aa(lp900
I195
ag725
aa(lp901
I196
ag656
aaaa(lp902
I198
aI200
aS'own'
p903
a(lp904
(lp905
I198
ag683
aa(lp906
I199
ag707
aa(lp907
I200
ag685
aaaa(lp908
I202
aI205
ag141
a(lp909
(lp910
I202
ag650
aa(lp911
I203
ag640
aa(lp912
I204
ag690
aa(lp913
I205
ag648
aaaa(lp914
I208
aI210
ag150
a(lp915
(lp916
I208
ag656
aa(lp917
I209
ag650
aa(lp918
I210
ag650
aaaa(lp919
I212
aI214
ag159
a(lp920
(lp921
I212
ag591
aa(lp922
I214
aS'0'
p923
aaaa(lp924
I216
aI220
ag168
a(lp925
(lp926
I216
ag674
aa(lp927
I217
ag648
aa(lp928
I218
ag644
aa(lp929
I219
ag703
aa(lp930
I220
ag648
aaaa(lp931
I222
aI222
ag644
a(lp932
(lp933
I222
ag644
aaaa(lp934
I224
aI231
ag177
a(lp935
(lp936
I224
ag656
aa(lp937
I225
ag648
aa(lp938
I226
ag650
aa(lp939
I227
ag788
aa(lp940
I228
ag683
aa(lp941
I229
ag685
aa(lp942
I230
ag650
aa(lp943
I231
ag648
aaaa(lp944
I233
aI241
ag186
a(lp945
(lp946
I233
ag690
aa(lp947
I234
ag656
aa(lp948
I235
ag644
aa(lp949
I236
ag672
aa(lp950
I237
ag678
aa(lp951
I238
ag741
aa(lp952
I239
ag644
aa(lp953
I240
ag672
aa(lp954
I241
ag678
aaaa(lp955
I243
aI243
ag195
a(lp956
(lp957
I243
ag195
aaaa(lp958
I245
aI253
ag204
a(lp959
(lp960
I245
ag656
aa(lp961
I246
ag648
aa(lp962
I247
ag650
aa(lp963
I248
ag788
aa(lp964
I249
ag683
aa(lp965
I250
ag685
aa(lp966
I251
ag650
aa(lp967
I252
ag648
aa(lp968
I253
ag650
aaaa(lp969
I255
aI256
aS'to'
p970
a(lp971
(lp972
I255
ag690
aa(lp973
I256
ag683
aaaa(lp974
I258
aI264
ag213
a(lp975
(lp976
I258
ag752
aa(lp977
I259
ag754
aa(lp978
I260
aS'\x9c'
p979
aa(lp980
I261
ag685
aa(lp981
I262
ag640
aa(lp982
I263
ag672
aa(lp983
I264
ag648
aaaa(lp984
I266
aI271
ag222
a(lp985
(lp986
I266
ag640
aa(lp987
I267
ag642
aa(lp988
I268
ag644
aa(lp989
I269
ag646
aa(lp990
I270
ag648
aa(lp991
I271
ag650
aaaa(lp992
I273
aI276
ag231
a(lp993
(lp994
I273
ag642
aa(lp995
I274
ag644
aa(lp996
I275
ag668
aa(lp997
I276
ag648
aaaa(lp998
I278
aI279
aS'in'
p999
a(lp1000
(lp1001
I278
ag640
aa(lp1002
I279
ag685
aaaa(lp1003
I281
aI292
ag240
a(lp1004
(lp1005
I281
ag788
aa(lp1006
I282
ag692
aa(lp1007
I283
ag683
aa(lp1008
I284
ag690
aa(lp1009
I285
ag683
aa(lp1010
I286
ag650
aa(lp1011
I287
ag692
aa(lp1012
I288
ag683
aa(lp1013
I289
ag788
aa(lp1014
I290
ag752
aa(lp1015
I291
ag754
aa(lp1016
I292
aS'\x9d'
p1017
aaaa(lp1018
I294
aI299
ag249
a(lp1019
(lp1020
I294
ag644
aa(lp1021
I295
ag650
aa(lp1022
I296
ag692
aa(lp1023
I297
ag674
aa(lp1024
I298
ag648
aa(lp1025
I299
ag762
aaaa(lp1026
I301
aI303
ag258
a(lp1027
(lp1028
I301
ag656
aa(lp1029
I302
ag648
aa(lp1030
I303
ag668
aaaa(lp1031
I306
aI310
ag267
a(lp1032
(lp1033
I306
ag707
aa(lp1034
I307
ag683
aa(lp1035
I308
ag725
aa(lp1036
I309
ag674
aa(lp1037
I310
ag668
aaaa(lp1038
I312
aI314
aS'you'
p1039
a(lp1040
(lp1041
I312
ag762
aa(lp1042
I313
ag683
aa(lp1043
I314
ag725
aaaa(lp1044
I316
aI319
ag276
a(lp1045
(lp1046
I316
ag674
aa(lp1047
I317
ag640
aa(lp1048
I318
ag678
aa(lp1049
I319
ag648
aaaa(lp1050
I321
aI322
aS'to'
p1051
a(lp1052
(lp1053
I321
ag690
aa(lp1054
I322
ag683
aaaa(lp1055
I324
aI326
ag285
a(lp1056
(lp1057
I324
ag650
aa(lp1058
I325
ag648
aa(lp1059
I326
ag648
aaaa(lp1060
I328
aI330
aS'her'
p1061
a(lp1062
(lp1063
I328
ag692
aa(lp1064
I329
ag648
aa(lp1065
I330
ag656
aaaa(lp1066
I332
aI338
ag294
a(lp1067
(lp1068
I332
ag672
aa(lp1069
I333
ag683
aa(lp1070
I334
ag703
aa(lp1071
I335
ag648
aa(lp1072
I336
ag656
aa(lp1073
I337
ag648
aa(lp1074
I338
ag668
aaaa(lp1075
I340
aI341
aS'in'
p1076
a(lp1077
(lp1078
I340
ag640
aa(lp1079
I341
ag685
aaaa(lp1080
I343
aI347
ag303
a(lp1081
(lp1082
I343
ag741
aa(lp1083
I344
ag674
aa(lp1084
I345
ag683
aa(lp1085
I346
ag683
aa(lp1086
I347
ag668
aaaa(lp1087
I352
aI352
ag668
a(lp1088
(lp1089
I352
ag668
aaaa(lp1090
I354
aI359
ag312
a(lp1091
(lp1092
I354
ag644
aa(lp1093
I355
ag650
aa(lp1094
I356
ag692
aa(lp1095
I357
ag674
aa(lp1096
I358
ag648
aa(lp1097
I359
ag762
aaaa(lp1098
I361
aI365
ag321
a(lp1099
(lp1100
I361
ag642
aa(lp1101
I362
ag644
aa(lp1102
I363
ag656
aa(lp1103
I364
ag672
aa(lp1104
I365
ag692
aaaa(lp1105
I367
aI370
ag330
a(lp1106
(lp1107
I367
ag591
aa(lp1108
I368
aS'4'
p1109
aa(lp1110
I369
ag690
aa(lp1111
I370
ag692
aaaa(lp1112
I373
aI376
ag339
a(lp1113
(lp1114
I373
ag591
aa(lp1115
I374
ag923
aa(lp1116
I375
ag923
aa(lp1117
I376
aS'8'
p1118
aaaa(lp1119
I378
aI379
aS'at'
p1120
a(lp1121
(lp1122
I378
ag644
aa(lp1123
I379
ag690
aaaa(lp1124
I381
aI384
ag348
a(lp1125
(lp1126
I381
aS'1'
p1127
aa(lp1128
I383
ag1127
aa(lp1129
I384
ag195
aaaa(lp1130
I386
aI387
aS'am'
p1131
a(lp1132
(lp1133
I386
ag644
aa(lp1134
I387
ag642
aaaa(lp1135
I389
aI391
aS'did'
p1136
a(lp1137
(lp1138
I389
ag668
aa(lp1139
I390
ag640
aa(lp1140
I391
ag668
aaaa(lp1141
I393
aI395
aS'you'
p1142
a(lp1143
(lp1144
I393
ag762
aa(lp1145
I394
ag683
aa(lp1146
I395
ag725
aaaa(lp1147
I397
aI400
ag357
a(lp1148
(lp1149
I397
ag642
aa(lp1150
I398
ag644
aa(lp1151
I399
ag678
aa(lp1152
I400
ag648
aaaa(lp1153
I402
aI406
aS'these'
p1154
a(lp1155
(lp1156
I402
ag690
aa(lp1157
I403
ag692
aa(lp1158
I404
ag648
aa(lp1159
I405
ag650
aa(lp1160
I406
ag648
aaaa(lp1161
I409
aI409
ag640
a(lp1162
(lp1163
I409
ag640
aaaa(lp1164
I411
aI416
ag366
a(lp1165
(lp1166
I411
ag656
aa(lp1167
I412
ag648
aa(lp1168
I413
ag644
aa(lp1169
I414
ag674
aa(lp1170
I415
ag674
aa(lp1171
I416
ag762
aaaa(lp1172
I418
aI421
ag375
a(lp1173
(lp1174
I418
ag674
aa(lp1175
I419
ag640
aa(lp1176
I420
ag678
aa(lp1177
I421
ag648
aaaa(lp1178
I423
aI425
aS'all'
p1179
a(lp1180
(lp1181
I423
ag644
aa(lp1182
I424
ag674
aa(lp1183
I425
ag674
aaaa(lp1184
I427
aI428
aS'of'
p1185
a(lp1186
(lp1187
I427
ag683
aa(lp1188
I428
ag723
aaaa(lp1189
I430
aI433
aS'them'
p1190
a(lp1191
(lp1192
I430
ag690
aa(lp1193
I431
ag692
aa(lp1194
I432
ag648
aa(lp1195
I433
ag642
aaaa(lp1196
I436
aI438
aS'the'
p1197
a(lp1198
(lp1199
I436
ag690
aa(lp1200
I437
ag692
aa(lp1201
I438
ag648
aaaa(lp1202
I440
aI449
ag384
a(lp1203
(lp1204
I440
ag788
aa(lp1205
I441
ag644
aa(lp1206
I442
ag640
aa(lp1207
I443
ag685
aa(lp1208
I444
ag690
aa(lp1209
I445
ag707
aa(lp1210
I446
ag683
aa(lp1211
I447
ag642
aa(lp1212
I448
ag644
aa(lp1213
I449
ag685
aaaa(lp1214
I451
aI452
aS'is'
p1215
a(lp1216
(lp1217
I451
ag640
aa(lp1218
I452
ag650
aaaa(lp1219
I454
aI454
ag644
a(lp1220
(lp1221
I454
ag644
aaaa(lp1222
I456
aI458
ag393
a(lp1223
(lp1224
I456
ag741
aa(lp1225
I457
ag640
aa(lp1226
I458
ag690
aaaa(lp1227
I460
aI461
aS'on'
p1228
a(lp1229
(lp1230
I460
ag683
aa(lp1231
I461
ag685
aaaa(lp1232
I463
aI465
aS'the'
p1233
a(lp1234
(lp1235
I463
ag690
aa(lp1236
I464
ag692
aa(lp1237
I465
ag648
aaaa(lp1238
I467
aI472
ag402
a(lp1239
(lp1240
I467
ag650
aa(lp1241
I468
ag678
aa(lp1242
I469
ag640
aa(lp1243
I470
ag685
aa(lp1244
I471
ag685
aa(lp1245
I472
ag762
aaaa(lp1246
I474
aI477
ag411
a(lp1247
(lp1248
I474
ag650
aa(lp1249
I475
ag640
aa(lp1250
I476
ag668
aa(lp1251
I477
ag648
aaaa(lp1252
I480
aI480
ag640
a(lp1253
(lp1254
I480
ag640
aaaa(lp1255
I482
aI486
ag420
a(lp1256
(lp1257
I482
ag707
aa(lp1258
I483
ag683
aa(lp1259
I484
ag725
aa(lp1260
I485
ag674
aa(lp1261
I486
ag668
aaaa(lp1262
I488
aI491
ag429
a(lp1263
(lp1264
I488
ag674
aa(lp1265
I489
ag640
aa(lp1266
I490
ag678
aa(lp1267
I491
ag648
aaaa(lp1268
I493
aI494
aS'to'
p1269
a(lp1270
(lp1271
I493
ag690
aa(lp1272
I494
ag683
aaaa(lp1273
I496
aI498
ag438
a(lp1274
(lp1275
I496
ag650
aa(lp1276
I497
ag648
aa(lp1277
I498
ag648
aaaa(lp1278
I500
aI500
ag644
a(lp1279
(lp1280
I500
ag644
aaaa(lp1281
I502
aI505
aS'more'
p1282
a(lp1283
(lp1284
I502
ag642
aa(lp1285
I503
ag683
aa(lp1286
I504
ag656
aa(lp1287
I505
ag648
aaaa(lp1288
I507
aI516
ag447
a(lp1289
(lp1290
I507
ag703
aa(lp1291
I508
ag683
aa(lp1292
I509
ag674
aa(lp1293
I510
ag725
aa(lp1294
I511
ag788
aa(lp1295
I512
ag690
aa(lp1296
I513
ag725
aa(lp1297
I514
ag683
aa(lp1298
I515
ag725
aa(lp1299
I516
ag650
aaaa(lp1300
I518
aI520
ag456
a(lp1301
(lp1302
I518
ag683
aa(lp1303
I519
ag685
aa(lp1304
I520
ag648
aaaa(lp1305
I523
aI527
ag465
a(lp1306
(lp1307
I523
ag707
aa(lp1308
I524
ag683
aa(lp1309
I525
ag725
aa(lp1310
I526
ag674
aa(lp1311
I527
ag668
aaaa(lp1312
I529
aI535
ag474
a(lp1313
(lp1314
I529
ag672
aa(lp1315
I530
ag683
aa(lp1316
I531
ag642
aa(lp1317
I532
ag741
aa(lp1318
I533
ag640
aa(lp1319
I534
ag685
aa(lp1320
I535
ag648
aaaa(lp1321
I537
aI540
aS'with'
p1322
a(lp1323
(lp1324
I537
ag707
aa(lp1325
I538
ag640
aa(lp1326
I539
ag690
aa(lp1327
I540
ag692
aaaa(lp1328
I542
aI544
aS'the'
p1329
a(lp1330
(lp1331
I542
ag690
aa(lp1332
I543
ag692
aa(lp1333
I544
ag648
aaaa(lp1334
I546
aI550
ag483
a(lp1335
(lp1336
I546
ag788
aa(lp1337
I547
ag644
aa(lp1338
I548
ag640
aa(lp1339
I549
ag685
aa(lp1340
I550
ag690
aaaa(lp1341
I552
aI552
ag640
a(lp1342
(lp1343
I552
ag640
aaaa(lp1344
I554
aI558
ag492
a(lp1345
(lp1346
I554
ag690
aa(lp1347
I555
ag692
aa(lp1348
I556
ag640
aa(lp1349
I557
ag685
aa(lp1350
I558
ag678
aaaa(lp1351
I561
aI562
aS'my'
p1352
a(lp1353
(lp1354
I561
ag642
aa(lp1355
I562
ag762
aaaa(lp1356
I564
aI572
ag501
a(lp1357
(lp1358
I564
ag723
aa(lp1359
I565
ag644
aa(lp1360
I566
ag703
aa(lp1361
I567
ag683
aa(lp1362
I568
ag725
aa(lp1363
I569
ag656
aa(lp1364
I570
ag640
aa(lp1365
I571
ag690
aa(lp1366
I572
ag648
aaaa(lp1367
I574
aI575
aS'is'
p1368
a(lp1369
(lp1370
I574
ag640
aa(lp1371
I575
ag650
aaaa(lp1372
I577
aI579
aS'the'
p1373
a(lp1374
(lp1375
I577
ag690
aa(lp1376
I578
ag692
aa(lp1377
I579
ag648
aaaa(lp1378
I581
aI584
ag510
a(lp1379
(lp1380
I581
ag646
aa(lp1381
I582
ag640
aa(lp1382
I583
ag656
aa(lp1383
I584
ag674
aaaa(lp1384
I586
aI589
aS'with'
p1385
a(lp1386
(lp1387
I586
ag707
aa(lp1388
I587
ag640
aa(lp1389
I588
ag690
aa(lp1390
I589
ag692
aaaa(lp1391
I591
aI593
aS'the'
p1392
a(lp1393
(lp1394
I591
ag690
aa(lp1395
I592
ag692
aa(lp1396
I593
ag648
aaaa(lp1397
I595
aI603
ag519
a(lp1398
(lp1399
I595
ag692
aa(lp1400
I596
ag683
aa(lp1401
I597
ag656
aa(lp1402
I598
ag650
aa(lp1403
I599
ag648
aa(lp1404
I600
ag692
aa(lp1405
I601
ag644
aa(lp1406
I602
ag640
aa(lp1407
I603
ag656
aaaa(lp1408
I606
aI610
ag528
a(lp1409
(lp1410
I606
aS'j'
p1411
aa(lp1412
I607
ag762
aa(lp1413
I608
ag683
aa(lp1414
I609
ag690
aa(lp1415
I610
ag640
aaaa(lp1416
I612
aI617
ag537
a(lp1417
(lp1418
I612
ag650
aa(lp1419
I613
ag692
aa(lp1420
I614
ag644
aa(lp1421
I615
ag656
aa(lp1422
I616
ag642
aa(lp1423
I617
ag644
aaaa(lp1424
I619
aI619
ag640
a(lp1425
(lp1426
I619
ag640
aaaa(lp1427
I621
aI624
ag546
a(lp1428
(lp1429
I621
ag674
aa(lp1430
I622
ag640
aa(lp1431
I623
ag678
aa(lp1432
I624
ag648
aaaa(lp1433
I626
aI628
aS'all'
p1434
a(lp1435
(lp1436
I626
ag644
aa(lp1437
I627
ag674
aa(lp1438
I628
ag674
aaaa(lp1439
I630
aI632
aS'the'
p1440
a(lp1441
(lp1442
I630
ag690
aa(lp1443
I631
ag692
aa(lp1444
I632
ag648
aaaa(lp1445
I634
aI642
ag555
a(lp1446
(lp1447
I634
ag640
aa(lp1448
I635
ag642
aa(lp1449
I636
ag644
aa(lp1450
I637
ag646
aa(lp1451
I638
ag648
aa(lp1452
I639
ag650
aa(lp1453
I641
ag741
aa(lp1454
I642
ag690
aaaa(lp1455
I644
aI644
ag640
a(lp1456
(lp1457
I644
ag640
aaaa(lp1458
I646
aI649
ag564
a(lp1459
(lp1460
I646
ag674
aa(lp1461
I647
ag640
aa(lp1462
I648
ag678
aa(lp1463
I649
ag648
aaaa(lp1464
I651
aI653
aS'the'
p1465
a(lp1466
(lp1467
I651
ag690
aa(lp1468
I652
ag692
aa(lp1469
I653
ag648
aaaa(lp1470
I655
aI659
ag573
a(lp1471
(lp1472
I655
ag692
aa(lp1473
I656
ag683
aa(lp1474
I657
ag656
aa(lp1475
I658
ag650
aa(lp1476
I659
ag648
aaaa(lp1477
I661
aI663
ag582
a(lp1478
(lp1479
I661
ag683
aa(lp1480
I662
ag685
aa(lp1481
I663
ag648
aaaa(lp1482
I666
aI668
aS'its'
p1483
a(lp1484
(lp1485
I666
ag640
aa(lp1486
I667
ag690
aa(lp1487
I668
ag650
aaaa(lp1488
I670
aI670
ag591
a(lp1489
(lp1490
I670
ag591
aaaa(lp1491
I672
aI674
ag600
a(lp1492
(lp1493
I672
ag646
aa(lp1494
I673
ag725
aa(lp1495
I674
ag668
aaaa(lp1496
I676
aI684
ag609
a(lp1497
(lp1498
I676
ag707
aa(lp1499
I677
ag683
aa(lp1500
I678
ag656
aa(lp1501
I679
ag678
aa(lp1502
I681
ag678
aa(lp1503
I682
ag648
aa(lp1504
I683
ag648
aa(lp1505
I684
ag788
aaaa(lp1506
I686
aI687
aS'it'
p1507
a(lp1508
(lp1509
I686
ag640
aa(lp1510
I687
ag690
aaaa(lp1511
I689
aI690
aS'up'
p1512
a(lp1513
(lp1514
I689
ag725
aa(lp1515
I690
ag788
aaaa(lp1516
I692
aI696
ag618
a(lp1517
(lp1518
I692
ag648
aa(lp1519
I693
ag685
aa(lp1520
I694
ag690
aa(lp1521
I695
ag648
aa(lp1522
I696
ag656
aaaa(lp1523
I698
aI701
aS'your'
p1524
a(lp1525
(lp1526
I698
ag762
aa(lp1527
I699
ag683
aa(lp1528
I700
ag725
aa(lp1529
I701
ag656
aaaa(lp1530
I703
aI707
ag627
a(lp1531
(lp1532
I703
ag648
aa(lp1533
I704
ag642
aa(lp1534
I705
ag644
aa(lp1535
I706
ag640
aa(lp1536
I707
ag674
aaaasS'cleanCharacterMap'
p1537
(lp1538
g639
ag641
ag643
ag645
ag647
ag649
a(lp1539
I6
aS' '
p1540
aag654
ag655
ag657
a(lp1541
I10
ag1540
aag660
ag661
ag662
ag663
ag664
ag666
ag667
a(lp1542
I18
ag1540
aa(lp1543
I20
ag1540
aag671
ag673
ag675
ag676
ag677
a(lp1544
I26
ag1540
aag682
ag684
a(lp1545
I29
ag1540
aag689
ag691
ag693
ag694
a(lp1546
I34
ag1540
aag698
ag699
a(lp1547
I37
ag1540
aag702
ag704
ag705
ag706
a(lp1548
I42
ag1540
aag711
ag712
ag713
ag714
a(lp1549
I47
ag1540
aag718
ag719
a(lp1550
I50
ag1540
aag722
ag724
ag726
ag727
a(lp1551
I55
ag1540
aag730
ag731
ag732
ag733
a(lp1552
I60
ag1540
aag736
ag737
ag738
ag739
ag740
ag742
ag743
ag744
a(lp1553
I69
ag1540
aa(lp1554
I71
ag1540
aa(lp1555
I74
ag1540
aag747
ag748
ag749
ag750
ag751
ag753
ag755
ag757
a(lp1556
I83
ag1540
aag761
ag763
ag764
ag765
a(lp1557
I88
ag1540
aag768
ag769
ag770
ag771
ag772
ag773
ag774
ag775
a(lp1558
I97
ag1540
aa(lp1559
I99
ag1540
aag778
ag779
ag780
ag781
ag782
ag783
ag784
a(lp1560
I107
ag1540
aag787
ag789
ag790
ag791
ag792
a(lp1561
I113
ag1540
aag796
ag797
ag798
a(lp1562
I117
ag1540
aag802
ag803
ag804
a(lp1563
I121
ag1540
aag807
ag808
ag809
ag810
ag811
ag812
a(lp1564
I128
ag1540
aag816
ag817
ag818
a(lp1565
I132
ag1540
aag821
ag822
ag823
ag824
ag825
ag826
ag827
ag828
ag829
a(lp1566
I142
ag1540
aag833
ag834
a(lp1567
I145
ag1540
aag838
ag839
ag840
ag841
a(lp1568
I150
ag1540
aag844
ag845
ag846
ag847
ag848
a(lp1569
I156
ag1540
aag852
ag853
ag854
ag855
ag856
ag857
ag858
a(lp1570
I164
ag1540
aag862
ag863
ag864
a(lp1571
I168
ag1540
aag867
ag868
ag869
ag870
a(lp1572
I174
ag1540
aag874
ag875
ag876
a(lp1573
I178
ag1540
aag880
ag881
ag882
a(lp1574
I182
ag1540
aa(lp1575
I184
ag1540
aag886
ag887
a(lp1576
I187
ag1540
aag891
ag892
ag893
ag894
a(lp1577
I192
ag1540
aag898
ag899
ag900
ag901
a(lp1578
I197
ag1540
aag905
ag906
ag907
a(lp1579
I201
ag1540
aag910
ag911
ag912
ag913
a(lp1580
I207
ag1540
aag916
ag917
ag918
a(lp1581
I211
ag1540
aag921
ag922
a(lp1582
I215
ag1540
aag926
ag927
ag928
ag929
ag930
a(lp1583
I221
ag1540
aag933
a(lp1584
I223
ag1540
aag936
ag937
ag938
ag939
ag940
ag941
ag942
ag943
a(lp1585
I232
ag1540
aag946
ag947
ag948
ag949
ag950
ag951
ag952
ag953
ag954
a(lp1586
I242
ag1540
aag957
a(lp1587
I244
ag1540
aag960
ag961
ag962
ag963
ag964
ag965
ag966
ag967
ag968
a(lp1588
I254
ag1540
aag972
ag973
a(lp1589
I257
ag1540
aag976
ag977
ag978
ag980
ag981
ag982
ag983
a(lp1590
I265
ag1540
aag986
ag987
ag988
ag989
ag990
ag991
a(lp1591
I272
ag1540
aag994
ag995
ag996
ag997
a(lp1592
I277
ag1540
aag1001
ag1002
a(lp1593
I280
ag1540
aag1005
ag1006
ag1007
ag1008
ag1009
ag1010
ag1011
ag1012
ag1013
ag1014
ag1015
ag1016
a(lp1594
I293
ag1540
aag1020
ag1021
ag1022
ag1023
ag1024
ag1025
a(lp1595
I300
ag1540
aag1028
ag1029
ag1030
a(lp1596
I305
ag1540
aag1033
ag1034
ag1035
ag1036
ag1037
a(lp1597
I311
ag1540
aag1041
ag1042
ag1043
a(lp1598
I315
ag1540
aag1046
ag1047
ag1048
ag1049
a(lp1599
I320
ag1540
aag1053
ag1054
a(lp1600
I323
ag1540
aag1057
ag1058
ag1059
a(lp1601
I327
ag1540
aag1063
ag1064
ag1065
a(lp1602
I331
ag1540
aag1068
ag1069
ag1070
ag1071
ag1072
ag1073
ag1074
a(lp1603
I339
ag1540
aag1078
ag1079
a(lp1604
I342
ag1540
aag1082
ag1083
ag1084
ag1085
ag1086
a(lp1605
I348
ag1540
aa(lp1606
I350
ag1540
aag1089
a(lp1607
I353
ag1540
aag1092
ag1093
ag1094
ag1095
ag1096
ag1097
a(lp1608
I360
ag1540
aag1100
ag1101
ag1102
ag1103
ag1104
a(lp1609
I366
ag1540
aag1107
ag1108
ag1110
ag1111
a(lp1610
I372
ag1540
aag1114
ag1115
ag1116
ag1117
a(lp1611
I377
ag1540
aag1122
ag1123
a(lp1612
I380
ag1540
aag1126
ag1128
ag1129
a(lp1613
I385
ag1540
aag1133
ag1134
a(lp1614
I388
ag1540
aag1138
ag1139
ag1140
a(lp1615
I392
ag1540
aag1144
ag1145
ag1146
a(lp1616
I396
ag1540
aag1149
ag1150
ag1151
ag1152
a(lp1617
I401
ag1540
aag1156
ag1157
ag1158
ag1159
ag1160
a(lp1618
I408
ag1540
aag1163
a(lp1619
I410
ag1540
aag1166
ag1167
ag1168
ag1169
ag1170
ag1171
a(lp1620
I417
ag1540
aag1174
ag1175
ag1176
ag1177
a(lp1621
I422
ag1540
aag1181
ag1182
ag1183
a(lp1622
I426
ag1540
aag1187
ag1188
a(lp1623
I429
ag1540
aag1192
ag1193
ag1194
ag1195
a(lp1624
I435
ag1540
aag1199
ag1200
ag1201
a(lp1625
I439
ag1540
aag1204
ag1205
ag1206
ag1207
ag1208
ag1209
ag1210
ag1211
ag1212
ag1213
a(lp1626
I450
ag1540
aag1217
ag1218
a(lp1627
I453
ag1540
aag1221
a(lp1628
I455
ag1540
aag1224
ag1225
ag1226
a(lp1629
I459
ag1540
aag1230
ag1231
a(lp1630
I462
ag1540
aag1235
ag1236
ag1237
a(lp1631
I466
ag1540
aag1240
ag1241
ag1242
ag1243
ag1244
ag1245
a(lp1632
I473
ag1540
aag1248
ag1249
ag1250
ag1251
a(lp1633
I479
ag1540
aag1254
a(lp1634
I481
ag1540
aag1257
ag1258
ag1259
ag1260
ag1261
a(lp1635
I487
ag1540
aag1264
ag1265
ag1266
ag1267
a(lp1636
I492
ag1540
aag1271
ag1272
a(lp1637
I495
ag1540
aag1275
ag1276
ag1277
a(lp1638
I499
ag1540
aag1280
a(lp1639
I501
ag1540
aag1284
ag1285
ag1286
ag1287
a(lp1640
I506
ag1540
aag1290
ag1291
ag1292
ag1293
ag1294
ag1295
ag1296
ag1297
ag1298
ag1299
a(lp1641
I517
ag1540
aag1302
ag1303
ag1304
a(lp1642
I522
ag1540
aag1307
ag1308
ag1309
ag1310
ag1311
a(lp1643
I528
ag1540
aag1314
ag1315
ag1316
ag1317
ag1318
ag1319
ag1320
a(lp1644
I536
ag1540
aag1324
ag1325
ag1326
ag1327
a(lp1645
I541
ag1540
aag1331
ag1332
ag1333
a(lp1646
I545
ag1540
aag1336
ag1337
ag1338
ag1339
ag1340
a(lp1647
I551
ag1540
aag1343
a(lp1648
I553
ag1540
aag1346
ag1347
ag1348
ag1349
ag1350
a(lp1649
I560
ag1540
aag1354
ag1355
a(lp1650
I563
ag1540
aag1358
ag1359
ag1360
ag1361
ag1362
ag1363
ag1364
ag1365
ag1366
a(lp1651
I573
ag1540
aag1370
ag1371
a(lp1652
I576
ag1540
aag1375
ag1376
ag1377
a(lp1653
I580
ag1540
aag1380
ag1381
ag1382
ag1383
a(lp1654
I585
ag1540
aag1387
ag1388
ag1389
ag1390
a(lp1655
I590
ag1540
aag1394
ag1395
ag1396
a(lp1656
I594
ag1540
aag1399
ag1400
ag1401
ag1402
ag1403
ag1404
ag1405
ag1406
ag1407
a(lp1657
I605
ag1540
aag1410
ag1412
ag1413
ag1414
ag1415
a(lp1658
I611
ag1540
aag1418
ag1419
ag1420
ag1421
ag1422
ag1423
a(lp1659
I618
ag1540
aag1426
a(lp1660
I620
ag1540
aag1429
ag1430
ag1431
ag1432
a(lp1661
I625
ag1540
aag1436
ag1437
ag1438
a(lp1662
I629
ag1540
aag1442
ag1443
ag1444
a(lp1663
I633
ag1540
aag1447
ag1448
ag1449
ag1450
ag1451
ag1452
ag1453
ag1454
a(lp1664
I643
ag1540
aag1457
a(lp1665
I645
ag1540
aag1460
ag1461
ag1462
ag1463
a(lp1666
I650
ag1540
aag1467
ag1468
ag1469
a(lp1667
I654
ag1540
aag1472
ag1473
ag1474
ag1475
ag1476
a(lp1668
I660
ag1540
aag1479
ag1480
ag1481
a(lp1669
I664
ag1540
aag1485
ag1486
ag1487
a(lp1670
I669
ag1540
aag1490
a(lp1671
I671
ag1540
aag1493
ag1494
ag1495
a(lp1672
I675
ag1540
aag1498
ag1499
ag1500
ag1501
ag1502
ag1503
ag1504
ag1505
a(lp1673
I685
ag1540
aag1509
ag1510
a(lp1674
I688
ag1540
aag1514
ag1515
a(lp1675
I691
ag1540
aag1518
ag1519
ag1520
ag1521
ag1522
a(lp1676
I697
ag1540
aag1526
ag1527
ag1528
ag1529
a(lp1677
I702
ag1540
aag1532
ag1533
ag1534
ag1535
ag1536
a(lp1678
I708
ag1540
aa(lp1679
I709
ag644
aa(lp1680
I710
ag668
aa(lp1681
I711
ag668
aa(lp1682
I712
ag656
aa(lp1683
I713
ag648
aa(lp1684
I714
ag650
aa(lp1685
I715
ag650
aasS'text'
p1686
S'images are resized - click on them to view them in full size feedback ? :) what\xe2\x80\x99s your favorite ? related posts you can follow any responses to this entry through the feed. you can , or from your own site. rss 2.0 leave a response trackback 5 responses to \xe2\x80\x9cnice images made in photoshop\xe2\x80\x9d ashley red? would you like to see her covered in blood ? :d ashley march 24th, 2008 at 1:15 am did you make these? i really like all of them. the paintwoman is a bit on the skinny side. i would like to see a more voluptuous one, would combine with the paint i think. my favourite is the girl with the horsehair. jyoti sharma i like all the images.bt i like the horse one .its 2 gud work.keep it up enter your email address:'
p1687
sS'cleanWordMap'
p1688
(lp1689
g637
ag658
ag669
ag700
ag720
ag728
ag734
ag745
ag766
ag776
ag785
ag805
ag819
ag842
ag865
ag908
ag914
ag919
ag924
ag934
ag944
ag955
ag958
ag974
ag984
ag992
ag1003
ag1018
ag1026
ag1031
ag1044
ag1055
ag1066
ag1080
ag1090
ag1098
ag1105
ag1112
ag1124
ag1147
ag1164
ag1172
ag1202
ag1222
ag1238
ag1246
ag1255
ag1262
ag1273
ag1288
ag1300
ag1305
ag1312
ag1334
ag1344
ag1356
ag1378
ag1397
ag1408
ag1416
ag1427
ag1445
ag1458
ag1470
ag1477
ag1488
ag1491
ag1496
ag1516
ag1530
asS'lines'
p1690
(lp1691
VImages are resized - Click on them to view them in full size\u000a
p1692
aVFeedback ? :) What\u2019s your favorite ?\u000a
p1693
aVRelated posts\u000a
p1694
aVYou can follow any responses to this entry through the feed. You can , or from your own site. RSS 2.0 leave a response trackback\u000a
p1695
aV5 Responses to \u201cNice images made in Photoshop\u201d\u000a
p1696
aVAshley\u000a
p1697
aVRed? would you like to see her covered in blood ? :D\u000a
p1698
aVAshley\u000a
p1699
aVMarch 24th, 2008 at 1:15 am\u000a
p1700
aVDid you make these? I really like all of them. The paintwoman is a bit on the skinny side. I would like to see a more voluptuous one, would combine with the paint I think. My favourite is the girl with the horsehair.\u000a
p1701
aVjyoti sharma\u000a
p1702
aVi like all the images.bt i like the horse one .its 2 gud work.keep it up\u000a
p1703
aVEnter your email address:
p1704
asS'docType'
p1705
S'src'
p1706
sS'newfmap'
p1707
(lp1708
g4
ag8
ag10
ag12
ag14
ag17
ag19
ag21
ag23
ag26
ag28
ag30
ag32
ag35
ag37
ag39
ag41
ag44
ag46
ag48
ag50
ag53
ag55
ag57
ag59
ag62
ag64
ag66
ag68
ag71
ag73
ag75
ag77
ag80
ag82
ag84
ag86
ag89
ag91
ag93
ag95
ag98
ag100
ag102
ag104
ag107
ag109
ag111
ag113
ag116
ag118
ag120
ag122
ag125
ag127
ag129
ag131
ag134
ag136
ag138
ag140
ag143
ag145
ag147
ag149
ag152
ag154
ag156
ag158
ag161
ag163
ag165
ag167
ag170
ag172
ag174
ag176
ag179
ag181
ag183
ag185
ag188
ag190
ag192
ag194
ag197
ag199
ag201
ag203
ag206
ag208
ag210
ag212
ag215
ag217
ag219
ag221
ag224
ag226
ag228
ag230
ag233
ag235
ag237
ag239
ag242
ag244
ag246
ag248
ag251
ag253
ag255
ag257
ag260
ag262
ag264
ag266
ag269
ag271
ag273
ag275
ag278
ag280
ag282
ag284
ag287
ag289
ag291
ag293
ag296
ag298
ag300
ag302
ag305
ag307
ag309
ag311
ag314
ag316
ag318
ag320
ag323
ag325
ag327
ag329
ag332
ag334
ag336
ag338
ag341
ag343
ag345
ag347
ag350
ag352
ag354
ag356
ag359
ag361
ag363
ag365
ag368
ag370
ag372
ag374
ag377
ag379
ag381
ag383
ag386
ag388
ag390
ag392
ag395
ag397
ag399
ag401
ag404
ag406
ag408
ag410
ag413
ag415
ag417
ag419
ag422
ag424
ag426
ag428
ag431
ag433
ag435
ag437
ag440
ag442
ag444
ag446
ag449
ag451
ag453
ag455
ag458
ag460
ag462
ag464
ag467
ag469
ag471
ag473
ag476
ag478
ag480
ag482
ag485
ag487
ag489
ag491
ag494
ag496
ag498
ag500
ag503
ag505
ag507
ag509
ag512
ag514
ag516
ag518
ag521
ag523
ag525
ag527
ag530
ag532
ag534
ag536
ag539
ag541
ag543
ag545
ag548
ag550
ag552
ag554
ag557
ag559
ag561
ag563
ag566
ag568
ag570
ag572
ag575
ag577
ag579
ag581
ag584
ag586
ag588
ag590
ag593
ag595
ag597
ag599
ag602
ag604
ag606
ag608
ag611
ag613
ag615
ag617
ag620
ag622
ag624
ag626
ag629
ag631
ag633
asS'featureMap'
p1709
(lp1710
(lp1711
I0
aI5
ag5
ag6
ag9
ag11
ag13
aa(lp1712
I11
aI17
ag15
ag16
ag18
ag20
ag22
aa(lp1713
I21
aI25
ag24
ag25
ag27
ag29
ag31
aa(lp1714
I38
aI41
ag33
ag34
ag36
ag38
ag40
aa(lp1715
I51
aI54
ag42
ag43
ag45
ag47
ag49
aa(lp1716
I56
aI59
ag51
ag52
ag54
ag56
ag58
aa(lp1717
I61
aI68
ag60
ag61
ag63
ag65
ag67
aa(lp1718
I75
aI82
ag69
ag70
ag72
ag74
ag76
aa(lp1719
I89
aI96
ag78
ag79
ag81
ag83
ag85
aa(lp1720
I100
aI106
ag87
ag88
ag90
ag92
ag94
aa(lp1721
I108
aI112
ag96
ag97
ag99
ag101
ag103
aa(lp1722
I122
aI127
ag105
ag106
ag108
ag110
ag112
aa(lp1723
I133
aI141
ag114
ag115
ag117
ag119
ag121
aa(lp1724
I151
aI155
ag123
ag124
ag126
ag128
ag130
aa(lp1725
I169
aI172
ag132
ag133
ag135
ag137
ag139
aa(lp1726
I202
aI205
ag141
ag142
ag144
ag146
ag148
aa(lp1727
I208
aI210
ag150
ag151
ag153
ag155
ag157
aa(lp1728
I212
aI214
ag159
ag160
ag162
ag164
ag166
aa(lp1729
I216
aI220
ag168
ag169
ag171
ag173
ag175
aa(lp1730
I224
aI231
ag177
ag178
ag180
ag182
ag184
aa(lp1731
I233
aI241
ag186
ag187
ag189
ag191
ag193
aa(lp1732
I243
aI243
ag195
ag196
ag198
ag200
ag202
aa(lp1733
I245
aI253
ag204
ag205
ag207
ag209
ag211
aa(lp1734
I258
aI264
ag213
ag214
ag216
ag218
ag220
aa(lp1735
I266
aI271
ag222
ag223
ag225
ag227
ag229
aa(lp1736
I273
aI276
ag231
ag232
ag234
ag236
ag238
aa(lp1737
I281
aI292
ag240
ag241
ag243
ag245
ag247
aa(lp1738
I294
aI299
ag249
ag250
ag252
ag254
ag256
aa(lp1739
I301
aI303
ag258
ag259
ag261
ag263
ag265
aa(lp1740
I306
aI310
ag267
ag268
ag270
ag272
ag274
aa(lp1741
I316
aI319
ag276
ag277
ag279
ag281
ag283
aa(lp1742
I324
aI326
ag285
ag286
ag288
ag290
ag292
aa(lp1743
I332
aI338
ag294
ag295
ag297
ag299
ag301
aa(lp1744
I343
aI347
ag303
ag304
ag306
ag308
ag310
aa(lp1745
I354
aI359
ag312
ag313
ag315
ag317
ag319
aa(lp1746
I361
aI365
ag321
ag322
ag324
ag326
ag328
aa(lp1747
I367
aI370
ag330
ag331
ag333
ag335
ag337
aa(lp1748
I373
aI376
ag339
ag340
ag342
ag344
ag346
aa(lp1749
I381
aI384
ag348
ag349
ag351
ag353
ag355
aa(lp1750
I397
aI400
ag357
ag358
ag360
ag362
ag364
aa(lp1751
I411
aI416
ag366
ag367
ag369
ag371
ag373
aa(lp1752
I418
aI421
ag375
ag376
ag378
ag380
ag382
aa(lp1753
I440
aI449
ag384
ag385
ag387
ag389
ag391
aa(lp1754
I456
aI458
ag393
ag394
ag396
ag398
ag400
aa(lp1755
I467
aI472
ag402
ag403
ag405
ag407
ag409
aa(lp1756
I474
aI477
ag411
ag412
ag414
ag416
ag418
aa(lp1757
I482
aI486
ag420
ag421
ag423
ag425
ag427
aa(lp1758
I488
aI491
ag429
ag430
ag432
ag434
ag436
aa(lp1759
I496
aI498
ag438
ag439
ag441
ag443
ag445
aa(lp1760
I507
aI516
ag447
ag448
ag450
ag452
ag454
aa(lp1761
I518
aI520
ag456
ag457
ag459
ag461
ag463
aa(lp1762
I523
aI527
ag465
ag466
ag468
ag470
ag472
aa(lp1763
I529
aI535
ag474
ag475
ag477
ag479
ag481
aa(lp1764
I546
aI550
ag483
ag484
ag486
ag488
ag490
aa(lp1765
I554
aI558
ag492
ag493
ag495
ag497
ag499
aa(lp1766
I564
aI572
ag501
ag502
ag504
ag506
ag508
aa(lp1767
I581
aI584
ag510
ag511
ag513
ag515
ag517
aa(lp1768
I595
aI603
ag519
ag520
ag522
ag524
ag526
aa(lp1769
I606
aI610
ag528
ag529
ag531
ag533
ag535
aa(lp1770
I612
aI617
ag537
ag538
ag540
ag542
ag544
aa(lp1771
I621
aI624
ag546
ag547
ag549
ag551
ag553
aa(lp1772
I634
aI642
ag555
ag556
ag558
ag560
ag562
aa(lp1773
I646
aI649
ag564
ag565
ag567
ag569
ag571
aa(lp1774
I655
aI659
ag573
ag574
ag576
ag578
ag580
aa(lp1775
I661
aI663
ag582
ag583
ag585
ag587
ag589
aa(lp1776
I670
aI670
ag591
ag592
ag594
ag596
ag598
aa(lp1777
I672
aI674
ag600
ag601
ag603
ag605
ag607
aa(lp1778
I676
aI684
ag609
ag610
ag612
ag614
ag616
aa(lp1779
I692
aI696
ag618
ag619
ag621
ag623
ag625
aa(lp1780
I703
aI707
ag627
ag628
ag630
ag632
ag634
aasS'characterMap'
p1781
(lp1782
g639
ag641
ag643
ag645
ag647
ag649
ag1539
ag654
ag655
ag657
ag1541
ag660
ag661
ag662
ag663
ag664
ag666
ag667
ag1542
a(lp1783
I19
aS'-'
p1784
aag1543
ag671
ag673
ag675
ag676
ag677
ag1544
ag682
ag684
ag1545
ag689
ag691
ag693
ag694
ag1546
ag698
ag699
ag1547
ag702
ag704
ag705
ag706
ag1548
ag711
ag712
ag713
ag714
ag1549
ag718
ag719
ag1550
ag722
ag724
ag726
ag727
ag1551
ag730
ag731
ag732
ag733
ag1552
ag736
ag737
ag738
ag739
ag740
ag742
ag743
ag744
ag1553
a(lp1785
I70
aS'?'
p1786
aag1554
a(lp1787
I72
aS':'
p1788
aa(lp1789
I73
aS')'
p1790
aag1555
ag747
ag748
ag749
ag750
ag751
ag753
ag755
ag757
ag1556
ag761
ag763
ag764
ag765
ag1557
ag768
ag769
ag770
ag771
ag772
ag773
ag774
ag775
ag1558
a(lp1791
I98
ag1786
aag1559
ag778
ag779
ag780
ag781
ag782
ag783
ag784
ag1560
ag787
ag789
ag790
ag791
ag792
ag1561
ag796
ag797
ag798
ag1562
ag802
ag803
ag804
ag1563
ag807
ag808
ag809
ag810
ag811
ag812
ag1564
ag816
ag817
ag818
ag1565
ag821
ag822
ag823
ag824
ag825
ag826
ag827
ag828
ag829
ag1566
ag833
ag834
ag1567
ag838
ag839
ag840
ag841
ag1568
ag844
ag845
ag846
ag847
ag848
ag1569
ag852
ag853
ag854
ag855
ag856
ag857
ag858
ag1570
ag862
ag863
ag864
ag1571
ag867
ag868
ag869
ag870
a(lp1792
I173
aS'.'
p1793
aag1572
ag874
ag875
ag876
ag1573
ag880
ag881
ag882
ag1574
a(lp1794
I183
aS','
p1795
aag1575
ag886
ag887
ag1576
ag891
ag892
ag893
ag894
ag1577
ag898
ag899
ag900
ag901
ag1578
ag905
ag906
ag907
ag1579
ag910
ag911
ag912
ag913
a(lp1796
I206
ag1793
aag1580
ag916
ag917
ag918
ag1581
ag921
a(lp1797
I213
ag1793
aag922
ag1582
ag926
ag927
ag928
ag929
ag930
ag1583
ag933
ag1584
ag936
ag937
ag938
ag939
ag940
ag941
ag942
ag943
ag1585
ag946
ag947
ag948
ag949
ag950
ag951
ag952
ag953
ag954
ag1586
ag957
ag1587
ag960
ag961
ag962
ag963
ag964
ag965
ag966
ag967
ag968
ag1588
ag972
ag973
ag1589
ag976
ag977
ag978
ag980
ag981
ag982
ag983
ag1590
ag986
ag987
ag988
ag989
ag990
ag991
ag1591
ag994
ag995
ag996
ag997
ag1592
ag1001
ag1002
ag1593
ag1005
ag1006
ag1007
ag1008
ag1009
ag1010
ag1011
ag1012
ag1013
ag1014
ag1015
ag1016
ag1594
ag1020
ag1021
ag1022
ag1023
ag1024
ag1025
ag1595
ag1028
ag1029
ag1030
a(lp1798
I304
ag1786
aag1596
ag1033
ag1034
ag1035
ag1036
ag1037
ag1597
ag1041
ag1042
ag1043
ag1598
ag1046
ag1047
ag1048
ag1049
ag1599
ag1053
ag1054
ag1600
ag1057
ag1058
ag1059
ag1601
ag1063
ag1064
ag1065
ag1602
ag1068
ag1069
ag1070
ag1071
ag1072
ag1073
ag1074
ag1603
ag1078
ag1079
ag1604
ag1082
ag1083
ag1084
ag1085
ag1086
ag1605
a(lp1799
I349
ag1786
aag1606
a(lp1800
I351
ag1788
aag1089
ag1607
ag1092
ag1093
ag1094
ag1095
ag1096
ag1097
ag1608
ag1100
ag1101
ag1102
ag1103
ag1104
ag1609
ag1107
ag1108
ag1110
ag1111
a(lp1801
I371
ag1795
aag1610
ag1114
ag1115
ag1116
ag1117
ag1611
ag1122
ag1123
ag1612
ag1126
a(lp1802
I382
ag1788
aag1128
ag1129
ag1613
ag1133
ag1134
ag1614
ag1138
ag1139
ag1140
ag1615
ag1144
ag1145
ag1146
ag1616
ag1149
ag1150
ag1151
ag1152
ag1617
ag1156
ag1157
ag1158
ag1159
ag1160
a(lp1803
I407
ag1786
aag1618
ag1163
ag1619
ag1166
ag1167
ag1168
ag1169
ag1170
ag1171
ag1620
ag1174
ag1175
ag1176
ag1177
ag1621
ag1181
ag1182
ag1183
ag1622
ag1187
ag1188
ag1623
ag1192
ag1193
ag1194
ag1195
a(lp1804
I434
ag1793
aag1624
ag1199
ag1200
ag1201
ag1625
ag1204
ag1205
ag1206
ag1207
ag1208
ag1209
ag1210
ag1211
ag1212
ag1213
ag1626
ag1217
ag1218
ag1627
ag1221
ag1628
ag1224
ag1225
ag1226
ag1629
ag1230
ag1231
ag1630
ag1235
ag1236
ag1237
ag1631
ag1240
ag1241
ag1242
ag1243
ag1244
ag1245
ag1632
ag1248
ag1249
ag1250
ag1251
a(lp1805
I478
ag1793
aag1633
ag1254
ag1634
ag1257
ag1258
ag1259
ag1260
ag1261
ag1635
ag1264
ag1265
ag1266
ag1267
ag1636
ag1271
ag1272
ag1637
ag1275
ag1276
ag1277
ag1638
ag1280
ag1639
ag1284
ag1285
ag1286
ag1287
ag1640
ag1290
ag1291
ag1292
ag1293
ag1294
ag1295
ag1296
ag1297
ag1298
ag1299
ag1641
ag1302
ag1303
ag1304
a(lp1806
I521
ag1795
aag1642
ag1307
ag1308
ag1309
ag1310
ag1311
ag1643
ag1314
ag1315
ag1316
ag1317
ag1318
ag1319
ag1320
ag1644
ag1324
ag1325
ag1326
ag1327
ag1645
ag1331
ag1332
ag1333
ag1646
ag1336
ag1337
ag1338
ag1339
ag1340
ag1647
ag1343
ag1648
ag1346
ag1347
ag1348
ag1349
ag1350
a(lp1807
I559
ag1793
aag1649
ag1354
ag1355
ag1650
ag1358
ag1359
ag1360
ag1361
ag1362
ag1363
ag1364
ag1365
ag1366
ag1651
ag1370
ag1371
ag1652
ag1375
ag1376
ag1377
ag1653
ag1380
ag1381
ag1382
ag1383
ag1654
ag1387
ag1388
ag1389
ag1390
ag1655
ag1394
ag1395
ag1396
ag1656
ag1399
ag1400
ag1401
ag1402
ag1403
ag1404
ag1405
ag1406
ag1407
a(lp1808
I604
ag1793
aag1657
ag1410
ag1412
ag1413
ag1414
ag1415
ag1658
ag1418
ag1419
ag1420
ag1421
ag1422
ag1423
ag1659
ag1426
ag1660
ag1429
ag1430
ag1431
ag1432
ag1661
ag1436
ag1437
ag1438
ag1662
ag1442
ag1443
ag1444
ag1663
ag1447
ag1448
ag1449
ag1450
ag1451
ag1452
a(lp1809
I640
ag1793
aag1453
ag1454
ag1664
ag1457
ag1665
ag1460
ag1461
ag1462
ag1463
ag1666
ag1467
ag1468
ag1469
ag1667
ag1472
ag1473
ag1474
ag1475
ag1476
ag1668
ag1479
ag1480
ag1481
ag1669
a(lp1810
I665
ag1793
aag1485
ag1486
ag1487
ag1670
ag1490
ag1671
ag1493
ag1494
ag1495
ag1672
ag1498
ag1499
ag1500
ag1501
a(lp1811
I680
ag1793
aag1502
ag1503
ag1504
ag1505
ag1673
ag1509
ag1510
ag1674
ag1514
ag1515
ag1675
ag1518
ag1519
ag1520
ag1521
ag1522
ag1676
ag1526
ag1527
ag1528
ag1529
ag1677
ag1532
ag1533
ag1534
ag1535
ag1536
ag1678
ag1679
ag1680
ag1681
ag1682
ag1683
ag1684
ag1685
a(lp1812
I716
ag1788
aasS'docName'
p1813
S'source-document01777.txt'
p1814
sb.