(iModel.Document
Document
p0
(dp1
S'fmap'
p2
(lp3
(lp4
I11
aI15
aS'bells'
p5
a(lp6
S'*'
p7
ag5
aaa(lp8
I11
aI15
ag5
a(lp9
g7
ag5
aaa(lp10
I11
aI15
ag5
a(lp11
g7
ag5
aaa(lp12
I11
aI15
ag5
a(lp13
g7
ag5
aaa(lp14
I22
aI25
aS'hill'
p15
a(lp16
g5
ag15
aaa(lp17
I22
aI25
ag15
a(lp18
g7
ag15
aaa(lp19
I22
aI25
ag15
a(lp20
g7
ag15
aaa(lp21
I22
aI25
ag15
a(lp22
g7
ag15
aaa(lp23
I33
aI37
aS'never'
p24
a(lp25
g15
ag24
aaa(lp26
I33
aI37
ag24
a(lp27
g5
ag24
aaa(lp28
I33
aI37
ag24
a(lp29
g7
ag24
aaa(lp30
I33
aI37
ag24
a(lp31
g7
ag24
aaa(lp32
I39
aI43
aS'heard'
p33
a(lp34
g24
ag33
aaa(lp35
I39
aI43
ag33
a(lp36
g15
ag33
aaa(lp37
I39
aI43
ag33
a(lp38
g5
ag33
aaa(lp39
I39
aI43
ag33
a(lp40
g7
ag33
aaa(lp41
I50
aI56
aS'ringing'
p42
a(lp43
g33
ag42
aaa(lp44
I50
aI56
ag42
a(lp45
g24
ag42
aaa(lp46
I50
aI56
ag42
a(lp47
g15
ag42
aaa(lp48
I50
aI56
ag42
a(lp49
g5
ag42
aaa(lp50
I64
aI68
aS'never'
p51
a(lp52
g42
ag51
aaa(lp53
I64
aI68
ag51
a(lp54
g33
ag51
aaa(lp55
I64
aI68
ag51
a(lp56
g24
ag51
aaa(lp57
I64
aI68
ag51
a(lp58
g15
ag51
aaa(lp59
I70
aI74
aS'heard'
p60
a(lp61
g51
ag60
aaa(lp62
I70
aI74
ag60
a(lp63
g42
ag60
aaa(lp64
I70
aI74
ag60
a(lp65
g33
ag60
aaa(lp66
I70
aI74
ag60
a(lp67
g24
ag60
aaa(lp68
I88
aI91
aS'till'
p69
a(lp70
g60
ag69
aaa(lp71
I88
aI91
ag69
a(lp72
g51
ag69
aaa(lp73
I88
aI91
ag69
a(lp74
g42
ag69
aaa(lp75
I88
aI91
ag69
a(lp76
g33
ag69
aaa(lp77
I118
aI122
aS'birds'
p78
a(lp79
g69
ag78
aaa(lp80
I118
aI122
ag78
a(lp81
g60
ag78
aaa(lp82
I118
aI122
ag78
a(lp83
g51
ag78
aaa(lp84
I118
aI122
ag78
a(lp85
g42
ag78
aaa(lp86
I131
aI133
aS'sky'
p87
a(lp88
g78
ag87
aaa(lp89
I131
aI133
ag87
a(lp90
g69
ag87
aaa(lp91
I131
aI133
ag87
a(lp92
g60
ag87
aaa(lp93
I131
aI133
ag87
a(lp94
g51
ag87
aaa(lp95
I141
aI145
aS'never'
p96
a(lp97
g87
ag96
aaa(lp98
I141
aI145
ag96
a(lp99
g78
ag96
aaa(lp100
I141
aI145
ag96
a(lp101
g69
ag96
aaa(lp102
I141
aI145
ag96
a(lp103
g60
ag96
aaa(lp104
I147
aI149
aS'saw'
p105
a(lp106
g96
ag105
aaa(lp107
I147
aI149
ag105
a(lp108
g87
ag105
aaa(lp109
I147
aI149
ag105
a(lp110
g78
ag105
aaa(lp111
I147
aI149
ag105
a(lp112
g69
ag105
aaa(lp113
I156
aI162
aS'winging'
p114
a(lp115
g105
ag114
aaa(lp116
I156
aI162
ag114
a(lp117
g96
ag114
aaa(lp118
I156
aI162
ag114
a(lp119
g87
ag114
aaa(lp120
I156
aI162
ag114
a(lp121
g78
ag114
aaa(lp122
I170
aI174
aS'never'
p123
a(lp124
g114
ag123
aaa(lp125
I170
aI174
ag123
a(lp126
g105
ag123
aaa(lp127
I170
aI174
ag123
a(lp128
g96
ag123
aaa(lp129
I170
aI174
ag123
a(lp130
g87
ag123
aaa(lp131
I176
aI178
aS'saw'
p132
a(lp133
g123
ag132
aaa(lp134
I176
aI178
ag132
a(lp135
g114
ag132
aaa(lp136
I176
aI178
ag132
a(lp137
g105
ag132
aaa(lp138
I176
aI178
ag132
a(lp139
g96
ag132
aaa(lp140
I192
aI195
aS'till'
p141
a(lp142
g132
ag141
aaa(lp143
I192
aI195
ag141
a(lp144
g123
ag141
aaa(lp145
I192
aI195
ag141
a(lp146
g114
ag141
aaa(lp147
I192
aI195
ag141
a(lp148
g105
ag141
aaa(lp149
I226
aI230
aS'music'
p150
a(lp151
g141
ag150
aaa(lp152
I226
aI230
ag150
a(lp153
g132
ag150
aaa(lp154
I226
aI230
ag150
a(lp155
g123
ag150
aaa(lp156
I226
aI230
ag150
a(lp157
g114
ag150
aaa(lp158
I236
aI244
aS'wonderful'
p159
a(lp160
g150
ag159
aaa(lp161
I236
aI244
ag159
a(lp162
g141
ag159
aaa(lp163
I236
aI244
ag159
a(lp164
g132
ag159
aaa(lp165
I236
aI244
ag159
a(lp166
g123
ag159
aaa(lp167
I246
aI250
aS'roses'
p168
a(lp169
g159
ag168
aaa(lp170
I246
aI250
ag168
a(lp171
g150
ag168
aaa(lp172
I246
aI250
ag168
a(lp173
g141
ag168
aaa(lp174
I246
aI250
ag168
a(lp175
g132
ag168
aaa(lp176
I257
aI260
aS'tell'
p177
a(lp178
g168
ag177
aaa(lp179
I257
aI260
ag177
a(lp180
g159
ag177
aaa(lp181
I257
aI260
ag177
a(lp182
g150
ag177
aaa(lp183
I257
aI260
ag177
a(lp184
g141
ag177
aaa(lp185
I268
aI272
aS'sweet'
p186
a(lp187
g177
ag186
aaa(lp188
I268
aI272
ag186
a(lp189
g168
ag186
aaa(lp190
I268
aI272
ag186
a(lp191
g159
ag186
aaa(lp192
I268
aI272
ag186
a(lp193
g150
ag186
aaa(lp194
I274
aI281
aS'fragrant'
p195
a(lp196
g186
ag195
aaa(lp197
I274
aI281
ag195
a(lp198
g177
ag195
aaa(lp199
I274
aI281
ag195
a(lp200
g168
ag195
aaa(lp201
I274
aI281
ag195
a(lp202
g159
ag195
aaa(lp203
I283
aI289
aS'meadows'
p204
a(lp205
g195
ag204
aaa(lp206
I283
aI289
ag204
a(lp207
g186
ag204
aaa(lp208
I283
aI289
ag204
a(lp209
g177
ag204
aaa(lp210
I283
aI289
ag204
a(lp211
g168
ag204
aaa(lp212
I294
aI297
aS'dawn'
p213
a(lp214
g204
ag213
aaa(lp215
I294
aI297
ag213
a(lp216
g195
ag213
aaa(lp217
I294
aI297
ag213
a(lp218
g186
ag213
aaa(lp219
I294
aI297
ag213
a(lp220
g177
ag213
aaa(lp221
I303
aI305
aS'dew'
p222
a(lp223
g213
ag222
aaa(lp224
I303
aI305
ag222
a(lp225
g204
ag222
aaa(lp226
I303
aI305
ag222
a(lp227
g195
ag222
aaa(lp228
I303
aI305
ag222
a(lp229
g186
ag222
aaa(lp230
I317
aI320
aS'love'
p231
a(lp232
g222
ag231
aaa(lp233
I317
aI320
ag231
a(lp234
g213
ag231
aaa(lp235
I317
aI320
ag231
a(lp236
g204
ag231
aaa(lp237
I317
aI320
ag231
a(lp238
g195
ag231
aaa(lp239
I326
aI331
aS'around'
p240
a(lp241
g231
ag240
aaa(lp242
I326
aI331
ag240
a(lp243
g222
ag240
aaa(lp244
I326
aI331
ag240
a(lp245
g213
ag240
aaa(lp246
I326
aI331
ag240
a(lp247
g204
ag240
aaa(lp248
I339
aI343
aS'never'
p249
a(lp250
g240
ag249
aaa(lp251
I339
aI343
ag249
a(lp252
g231
ag249
aaa(lp253
I339
aI343
ag249
a(lp254
g222
ag249
aaa(lp255
I339
aI343
ag249
a(lp256
g213
ag249
aaa(lp257
I345
aI349
aS'heard'
p258
a(lp259
g249
ag258
aaa(lp260
I345
aI349
ag258
a(lp261
g240
ag258
aaa(lp262
I345
aI349
ag258
a(lp263
g231
ag258
aaa(lp264
I345
aI349
ag258
a(lp265
g222
ag258
aaa(lp266
I354
aI360
aS'singing'
p267
a(lp268
g258
ag267
aaa(lp269
I354
aI360
ag267
a(lp270
g249
ag267
aaa(lp271
I354
aI360
ag267
a(lp272
g240
ag267
aaa(lp273
I354
aI360
ag267
a(lp274
g231
ag267
aaa(lp275
I367
aI371
aS'never'
p276
a(lp277
g267
ag276
aaa(lp278
I367
aI371
ag276
a(lp279
g258
ag276
aaa(lp280
I367
aI371
ag276
a(lp281
g249
ag276
aaa(lp282
I367
aI371
ag276
a(lp283
g240
ag276
aaa(lp284
I373
aI377
aS'heard'
p285
a(lp286
g276
ag285
aaa(lp287
I373
aI377
ag285
a(lp288
g267
ag285
aaa(lp289
I373
aI377
ag285
a(lp290
g258
ag285
aaa(lp291
I373
aI377
ag285
a(lp292
g249
ag285
aaa(lp293
I389
aI392
aS'till'
p294
a(lp295
g285
ag294
aaa(lp296
I389
aI392
ag294
a(lp297
g276
ag294
aaa(lp298
I389
aI392
ag294
a(lp299
g267
ag294
aaa(lp300
I389
aI392
ag294
a(lp301
g258
ag294
aaa(lp302
I423
aI427
aS'music'
p303
a(lp304
g294
ag303
aaa(lp305
I423
aI427
ag303
a(lp306
g285
ag303
aaa(lp307
I423
aI427
ag303
a(lp308
g276
ag303
aaa(lp309
I423
aI427
ag303
a(lp310
g267
ag303
aaa(lp311
I433
aI441
aS'wonderful'
p312
a(lp313
g303
ag312
aaa(lp314
I433
aI441
ag312
a(lp315
g294
ag312
aaa(lp316
I433
aI441
ag312
a(lp317
g285
ag312
aaa(lp318
I433
aI441
ag312
a(lp319
g276
ag312
aaa(lp320
I443
aI447
aS'roses'
p321
a(lp322
g312
ag321
aaa(lp323
I443
aI447
ag321
a(lp324
g303
ag321
aaa(lp325
I443
aI447
ag321
a(lp326
g294
ag321
aaa(lp327
I443
aI447
ag321
a(lp328
g285
ag321
aaa(lp329
I454
aI457
aS'tell'
p330
a(lp331
g321
ag330
aaa(lp332
I454
aI457
ag330
a(lp333
g312
ag330
aaa(lp334
I454
aI457
ag330
a(lp335
g303
ag330
aaa(lp336
I454
aI457
ag330
a(lp337
g294
ag330
aaa(lp338
I465
aI469
aS'sweet'
p339
a(lp340
g330
ag339
aaa(lp341
I465
aI469
ag339
a(lp342
g321
ag339
aaa(lp343
I465
aI469
ag339
a(lp344
g312
ag339
aaa(lp345
I465
aI469
ag339
a(lp346
g303
ag339
aaa(lp347
I471
aI478
aS'fragrant'
p348
a(lp349
g339
ag348
aaa(lp350
I471
aI478
ag348
a(lp351
g330
ag348
aaa(lp352
I471
aI478
ag348
a(lp353
g321
ag348
aaa(lp354
I471
aI478
ag348
a(lp355
g312
ag348
aaa(lp356
I480
aI486
aS'meadows'
p357
a(lp358
g348
ag357
aaa(lp359
I480
aI486
ag357
a(lp360
g339
ag357
aaa(lp361
I480
aI486
ag357
a(lp362
g330
ag357
aaa(lp363
I480
aI486
ag357
a(lp364
g321
ag357
aaa(lp365
I491
aI494
aS'dawn'
p366
a(lp367
g357
ag366
aaa(lp368
I491
aI494
ag366
a(lp369
g348
ag366
aaa(lp370
I491
aI494
ag366
a(lp371
g339
ag366
aaa(lp372
I491
aI494
ag366
a(lp373
g330
ag366
aaa(lp374
I500
aI502
aS'dew'
p375
a(lp376
g366
ag375
aaa(lp377
I500
aI502
ag375
a(lp378
g357
ag375
aaa(lp379
I500
aI502
ag375
a(lp380
g348
ag375
aaa(lp381
I500
aI502
ag375
a(lp382
g339
ag375
aaa(lp383
I514
aI517
aS'love'
p384
a(lp385
g375
ag384
aaa(lp386
I514
aI517
ag384
a(lp387
g366
ag384
aaa(lp388
I514
aI517
ag384
a(lp389
g357
ag384
aaa(lp390
I514
aI517
ag384
a(lp391
g348
ag384
aaa(lp392
I523
aI528
aS'around'
p393
a(lp394
g384
ag393
aaa(lp395
I523
aI528
ag393
a(lp396
g375
ag393
aaa(lp397
I523
aI528
ag393
a(lp398
g366
ag393
aaa(lp399
I523
aI528
ag393
a(lp400
g357
ag393
aaa(lp401
I536
aI540
aS'never'
p402
a(lp403
g393
ag402
aaa(lp404
I536
aI540
ag402
a(lp405
g384
ag402
aaa(lp406
I536
aI540
ag402
a(lp407
g375
ag402
aaa(lp408
I536
aI540
ag402
a(lp409
g366
ag402
aaa(lp410
I542
aI546
aS'heard'
p411
a(lp412
g402
ag411
aaa(lp413
I542
aI546
ag411
a(lp414
g393
ag411
aaa(lp415
I542
aI546
ag411
a(lp416
g384
ag411
aaa(lp417
I542
aI546
ag411
a(lp418
g375
ag411
aaa(lp419
I551
aI557
aS'singing'
p420
a(lp421
g411
ag420
aaa(lp422
I551
aI557
ag420
a(lp423
g402
ag420
aaa(lp424
I551
aI557
ag420
a(lp425
g393
ag420
aaa(lp426
I551
aI557
ag420
a(lp427
g384
ag420
aaa(lp428
I565
aI569
aS'never'
p429
a(lp430
g420
ag429
aaa(lp431
I565
aI569
ag429
a(lp432
g411
ag429
aaa(lp433
I565
aI569
ag429
a(lp434
g402
ag429
aaa(lp435
I565
aI569
ag429
a(lp436
g393
ag429
aaa(lp437
I571
aI575
aS'heard'
p438
a(lp439
g429
ag438
aaa(lp440
I571
aI575
ag438
a(lp441
g420
ag438
aaa(lp442
I571
aI575
ag438
a(lp443
g411
ag438
aaa(lp444
I571
aI575
ag438
a(lp445
g402
ag438
aaa(lp446
I587
aI590
aS'till'
p447
a(lp448
g438
ag447
aaa(lp449
I587
aI590
ag447
a(lp450
g429
ag447
aaa(lp451
I587
aI590
ag447
a(lp452
g420
ag447
aaa(lp453
I587
aI590
ag447
a(lp454
g411
ag447
aaa(lp455
I606
aI609
aS'till'
p456
a(lp457
g447
ag456
aaa(lp458
I606
aI609
ag456
a(lp459
g438
ag456
aaa(lp460
I606
aI609
ag456
a(lp461
g429
ag456
aaa(lp462
I606
aI609
ag456
a(lp463
g420
ag456
aaa(lp464
I629
aI631
aS'rod'
p465
a(lp466
g456
ag465
aaa(lp467
I629
aI631
ag465
a(lp468
g447
ag465
aaa(lp469
I629
aI631
ag465
a(lp470
g438
ag465
aaa(lp471
I629
aI631
ag465
a(lp472
g429
ag465
aaa(lp473
I633
aI639
aS'stewart'
p474
a(lp475
g465
ag474
aaa(lp476
I633
aI639
ag474
a(lp477
g456
ag474
aaa(lp478
I633
aI639
ag474
a(lp479
g447
ag474
aaa(lp480
I633
aI639
ag474
a(lp481
g438
ag474
aaa(lp482
I642
aI645
aS'till'
p483
a(lp484
g474
ag483
aaa(lp485
I642
aI645
ag483
a(lp486
g465
ag483
aaa(lp487
I642
aI645
ag483
a(lp488
g456
ag483
aaa(lp489
I642
aI645
ag483
a(lp490
g447
ag483
aaasS'wordMap'
p491
(lp492
(lp493
I0
aI4
aS'there'
p494
a(lp495
(lp496
I0
aS't'
p497
aa(lp498
I1
aS'h'
p499
aa(lp500
I2
aS'e'
p501
aa(lp502
I3
aS'r'
p503
aa(lp504
I4
ag501
aaaa(lp505
I6
aI9
aS'were'
p506
a(lp507
(lp508
I6
aS'w'
p509
aa(lp510
I7
ag501
aa(lp511
I8
ag503
aa(lp512
I9
ag501
aaaa(lp513
I11
aI15
ag5
a(lp514
(lp515
I11
aS'b'
p516
aa(lp517
I12
ag501
aa(lp518
I13
aS'l'
p519
aa(lp520
I14
ag519
aa(lp521
I15
aS's'
p522
aaaa(lp523
I17
aI18
aS'on'
p524
a(lp525
(lp526
I17
aS'o'
p527
aa(lp528
I18
aS'n'
p529
aaaa(lp530
I20
aI20
aS'a'
p531
a(lp532
(lp533
I20
ag531
aaaa(lp534
I22
aI25
ag15
a(lp535
(lp536
I22
ag499
aa(lp537
I23
aS'i'
p538
aa(lp539
I24
ag519
aa(lp540
I25
ag519
aaaa(lp541
I27
aI29
aS'but'
p542
a(lp543
(lp544
I27
ag516
aa(lp545
I28
aS'u'
p546
aa(lp547
I29
ag497
aaaa(lp548
I31
aI31
ag538
a(lp549
(lp550
I31
ag538
aaaa(lp551
I33
aI37
ag24
a(lp552
(lp553
I33
ag529
aa(lp554
I34
ag501
aa(lp555
I35
aS'v'
p556
aa(lp557
I36
ag501
aa(lp558
I37
ag503
aaaa(lp559
I39
aI43
ag33
a(lp560
(lp561
I39
ag499
aa(lp562
I40
ag501
aa(lp563
I41
ag531
aa(lp564
I42
ag503
aa(lp565
I43
aS'd'
p566
aaaa(lp567
I45
aI48
aS'them'
p568
a(lp569
(lp570
I45
ag497
aa(lp571
I46
ag499
aa(lp572
I47
ag501
aa(lp573
I48
aS'm'
p574
aaaa(lp575
I50
aI56
ag42
a(lp576
(lp577
I50
ag503
aa(lp578
I51
ag538
aa(lp579
I52
ag529
aa(lp580
I53
aS'g'
p581
aa(lp582
I54
ag538
aa(lp583
I55
ag529
aa(lp584
I56
ag581
aaaa(lp585
I58
aI59
aS'no'
p586
a(lp587
(lp588
I58
ag529
aa(lp589
I59
ag527
aaaa(lp590
I62
aI62
ag538
a(lp591
(lp592
I62
ag538
aaaa(lp593
I64
aI68
ag51
a(lp594
(lp595
I64
ag529
aa(lp596
I65
ag501
aa(lp597
I66
ag556
aa(lp598
I67
ag501
aa(lp599
I68
ag503
aaaa(lp600
I70
aI74
ag60
a(lp601
(lp602
I70
ag499
aa(lp603
I71
ag501
aa(lp604
I72
ag531
aa(lp605
I73
ag503
aa(lp606
I74
ag566
aaaa(lp607
I76
aI79
aS'them'
p608
a(lp609
(lp610
I76
ag497
aa(lp611
I77
ag499
aa(lp612
I78
ag501
aa(lp613
I79
ag574
aaaa(lp614
I81
aI82
aS'at'
p615
a(lp616
(lp617
I81
ag531
aa(lp618
I82
ag497
aaaa(lp619
I84
aI86
aS'all'
p620
a(lp621
(lp622
I84
ag531
aa(lp623
I85
ag519
aa(lp624
I86
ag519
aaaa(lp625
I88
aI91
ag69
a(lp626
(lp627
I88
ag497
aa(lp628
I89
ag538
aa(lp629
I90
ag519
aa(lp630
I91
ag519
aaaa(lp631
I93
aI97
aS'there'
p632
a(lp633
(lp634
I93
ag497
aa(lp635
I94
ag499
aa(lp636
I95
ag501
aa(lp637
I96
ag503
aa(lp638
I97
ag501
aaaa(lp639
I99
aI101
aS'was'
p640
a(lp641
(lp642
I99
ag509
aa(lp643
I100
ag531
aa(lp644
I101
ag522
aaaa(lp645
I103
aI105
aS'you'
p646
a(lp647
(lp648
I103
aS'y'
p649
aa(lp650
I104
ag527
aa(lp651
I105
ag546
aaaa(lp652
I107
aI111
aS'there'
p653
a(lp654
(lp655
I107
ag497
aa(lp656
I108
ag499
aa(lp657
I109
ag501
aa(lp658
I110
ag503
aa(lp659
I111
ag501
aaaa(lp660
I113
aI116
aS'were'
p661
a(lp662
(lp663
I113
ag509
aa(lp664
I114
ag501
aa(lp665
I115
ag503
aa(lp666
I116
ag501
aaaa(lp667
I118
aI122
ag78
a(lp668
(lp669
I118
ag516
aa(lp670
I119
ag538
aa(lp671
I120
ag503
aa(lp672
I121
ag566
aa(lp673
I122
ag522
aaaa(lp674
I124
aI125
aS'in'
p675
a(lp676
(lp677
I124
ag538
aa(lp678
I125
ag529
aaaa(lp679
I127
aI129
aS'the'
p680
a(lp681
(lp682
I127
ag497
aa(lp683
I128
ag499
aa(lp684
I129
ag501
aaaa(lp685
I131
aI133
ag87
a(lp686
(lp687
I131
ag522
aa(lp688
I132
aS'k'
p689
aa(lp690
I133
ag649
aaaa(lp691
I135
aI137
aS'but'
p692
a(lp693
(lp694
I135
ag516
aa(lp695
I136
ag546
aa(lp696
I137
ag497
aaaa(lp697
I139
aI139
ag538
a(lp698
(lp699
I139
ag538
aaaa(lp700
I141
aI145
ag96
a(lp701
(lp702
I141
ag529
aa(lp703
I142
ag501
aa(lp704
I143
ag556
aa(lp705
I144
ag501
aa(lp706
I145
ag503
aaaa(lp707
I147
aI149
ag105
a(lp708
(lp709
I147
ag522
aa(lp710
I148
ag531
aa(lp711
I149
ag509
aaaa(lp712
I151
aI154
aS'them'
p713
a(lp714
(lp715
I151
ag497
aa(lp716
I152
ag499
aa(lp717
I153
ag501
aa(lp718
I154
ag574
aaaa(lp719
I156
aI162
ag114
a(lp720
(lp721
I156
ag509
aa(lp722
I157
ag538
aa(lp723
I158
ag529
aa(lp724
I159
ag581
aa(lp725
I160
ag538
aa(lp726
I161
ag529
aa(lp727
I162
ag581
aaaa(lp728
I164
aI165
aS'no'
p729
a(lp730
(lp731
I164
ag529
aa(lp732
I165
ag527
aaaa(lp733
I168
aI168
ag538
a(lp734
(lp735
I168
ag538
aaaa(lp736
I170
aI174
ag123
a(lp737
(lp738
I170
ag529
aa(lp739
I171
ag501
aa(lp740
I172
ag556
aa(lp741
I173
ag501
aa(lp742
I174
ag503
aaaa(lp743
I176
aI178
ag132
a(lp744
(lp745
I176
ag522
aa(lp746
I177
ag531
aa(lp747
I178
ag509
aaaa(lp748
I180
aI183
aS'them'
p749
a(lp750
(lp751
I180
ag497
aa(lp752
I181
ag499
aa(lp753
I182
ag501
aa(lp754
I183
ag574
aaaa(lp755
I185
aI186
aS'at'
p756
a(lp757
(lp758
I185
ag531
aa(lp759
I186
ag497
aaaa(lp760
I188
aI190
aS'all'
p761
a(lp762
(lp763
I188
ag531
aa(lp764
I189
ag519
aa(lp765
I190
ag519
aaaa(lp766
I192
aI195
ag141
a(lp767
(lp768
I192
ag497
aa(lp769
I193
ag538
aa(lp770
I194
ag519
aa(lp771
I195
ag519
aaaa(lp772
I197
aI201
aS'there'
p773
a(lp774
(lp775
I197
ag497
aa(lp776
I198
ag499
aa(lp777
I199
ag501
aa(lp778
I200
ag503
aa(lp779
I201
ag501
aaaa(lp780
I203
aI205
aS'was'
p781
a(lp782
(lp783
I203
ag509
aa(lp784
I204
ag531
aa(lp785
I205
ag522
aaaa(lp786
I207
aI209
aS'you'
p787
a(lp788
(lp789
I207
ag649
aa(lp790
I208
ag527
aa(lp791
I209
ag546
aaaa(lp792
I211
aI214
aS'then'
p793
a(lp794
(lp795
I211
ag497
aa(lp796
I212
ag499
aa(lp797
I213
ag501
aa(lp798
I214
ag529
aaaa(lp799
I216
aI220
aS'there'
p800
a(lp801
(lp802
I216
ag497
aa(lp803
I217
ag499
aa(lp804
I218
ag501
aa(lp805
I219
ag503
aa(lp806
I220
ag501
aaaa(lp807
I222
aI224
aS'was'
p808
a(lp809
(lp810
I222
ag509
aa(lp811
I223
ag531
aa(lp812
I224
ag522
aaaa(lp813
I226
aI230
ag150
a(lp814
(lp815
I226
ag574
aa(lp816
I227
ag546
aa(lp817
I228
ag522
aa(lp818
I229
ag538
aa(lp819
I230
aS'c'
p820
aaaa(lp821
I232
aI234
aS'and'
p822
a(lp823
(lp824
I232
ag531
aa(lp825
I233
ag529
aa(lp826
I234
ag566
aaaa(lp827
I236
aI244
ag159
a(lp828
(lp829
I236
ag509
aa(lp830
I237
ag527
aa(lp831
I238
ag529
aa(lp832
I239
ag566
aa(lp833
I240
ag501
aa(lp834
I241
ag503
aa(lp835
I242
aS'f'
p836
aa(lp837
I243
ag546
aa(lp838
I244
ag519
aaaa(lp839
I246
aI250
ag168
a(lp840
(lp841
I246
ag503
aa(lp842
I247
ag527
aa(lp843
I248
ag522
aa(lp844
I249
ag501
aa(lp845
I250
ag522
aaaa(lp846
I252
aI255
aS'they'
p847
a(lp848
(lp849
I252
ag497
aa(lp850
I253
ag499
aa(lp851
I254
ag501
aa(lp852
I255
ag649
aaaa(lp853
I257
aI260
ag177
a(lp854
(lp855
I257
ag497
aa(lp856
I258
ag501
aa(lp857
I259
ag519
aa(lp858
I260
ag519
aaaa(lp859
I262
aI263
aS'me'
p860
a(lp861
(lp862
I262
ag574
aa(lp863
I263
ag501
aaaa(lp864
I265
aI266
aS'in'
p865
a(lp866
(lp867
I265
ag538
aa(lp868
I266
ag529
aaaa(lp869
I268
aI272
ag186
a(lp870
(lp871
I268
ag522
aa(lp872
I269
ag509
aa(lp873
I270
ag501
aa(lp874
I271
ag501
aa(lp875
I272
ag497
aaaa(lp876
I274
aI281
ag195
a(lp877
(lp878
I274
ag836
aa(lp879
I275
ag503
aa(lp880
I276
ag531
aa(lp881
I277
ag581
aa(lp882
I278
ag503
aa(lp883
I279
ag531
aa(lp884
I280
ag529
aa(lp885
I281
ag497
aaaa(lp886
I283
aI289
ag204
a(lp887
(lp888
I283
ag574
aa(lp889
I284
ag501
aa(lp890
I285
ag531
aa(lp891
I286
ag566
aa(lp892
I287
ag527
aa(lp893
I288
ag509
aa(lp894
I289
ag522
aaaa(lp895
I291
aI292
aS'of'
p896
a(lp897
(lp898
I291
ag527
aa(lp899
I292
ag836
aaaa(lp900
I294
aI297
ag213
a(lp901
(lp902
I294
ag566
aa(lp903
I295
ag531
aa(lp904
I296
ag509
aa(lp905
I297
ag529
aaaa(lp906
I299
aI301
aS'and'
p907
a(lp908
(lp909
I299
ag531
aa(lp910
I300
ag529
aa(lp911
I301
ag566
aaaa(lp912
I303
aI305
ag222
a(lp913
(lp914
I303
ag566
aa(lp915
I304
ag501
aa(lp916
I305
ag509
aaaa(lp917
I307
aI311
aS'there'
p918
a(lp919
(lp920
I307
ag497
aa(lp921
I308
ag499
aa(lp922
I309
ag501
aa(lp923
I310
ag503
aa(lp924
I311
ag501
aaaa(lp925
I313
aI315
aS'was'
p926
a(lp927
(lp928
I313
ag509
aa(lp929
I314
ag531
aa(lp930
I315
ag522
aaaa(lp931
I317
aI320
ag231
a(lp932
(lp933
I317
ag519
aa(lp934
I318
ag527
aa(lp935
I319
ag556
aa(lp936
I320
ag501
aaaa(lp937
I322
aI324
aS'all'
p938
a(lp939
(lp940
I322
ag531
aa(lp941
I323
ag519
aa(lp942
I324
ag519
aaaa(lp943
I326
aI331
ag240
a(lp944
(lp945
I326
ag531
aa(lp946
I327
ag503
aa(lp947
I328
ag527
aa(lp948
I329
ag546
aa(lp949
I330
ag529
aa(lp950
I331
ag566
aaaa(lp951
I333
aI335
aS'but'
p952
a(lp953
(lp954
I333
ag516
aa(lp955
I334
ag546
aa(lp956
I335
ag497
aaaa(lp957
I337
aI337
ag538
a(lp958
(lp959
I337
ag538
aaaa(lp960
I339
aI343
ag249
a(lp961
(lp962
I339
ag529
aa(lp963
I340
ag501
aa(lp964
I341
ag556
aa(lp965
I342
ag501
aa(lp966
I343
ag503
aaaa(lp967
I345
aI349
ag258
a(lp968
(lp969
I345
ag499
aa(lp970
I346
ag501
aa(lp971
I347
ag531
aa(lp972
I348
ag503
aa(lp973
I349
ag566
aaaa(lp974
I351
aI352
aS'it'
p975
a(lp976
(lp977
I351
ag538
aa(lp978
I352
ag497
aaaa(lp979
I354
aI360
ag267
a(lp980
(lp981
I354
ag522
aa(lp982
I355
ag538
aa(lp983
I356
ag529
aa(lp984
I357
ag581
aa(lp985
I358
ag538
aa(lp986
I359
ag529
aa(lp987
I360
ag581
aaaa(lp988
I362
aI363
aS'no'
p989
a(lp990
(lp991
I362
ag529
aa(lp992
I363
ag527
aaaa(lp993
I365
aI365
ag538
a(lp994
(lp995
I365
ag538
aaaa(lp996
I367
aI371
ag276
a(lp997
(lp998
I367
ag529
aa(lp999
I368
ag501
aa(lp1000
I369
ag556
aa(lp1001
I370
ag501
aa(lp1002
I371
ag503
aaaa(lp1003
I373
aI377
ag285
a(lp1004
(lp1005
I373
ag499
aa(lp1006
I374
ag501
aa(lp1007
I375
ag531
aa(lp1008
I376
ag503
aa(lp1009
I377
ag566
aaaa(lp1010
I379
aI380
aS'it'
p1011
a(lp1012
(lp1013
I379
ag538
aa(lp1014
I380
ag497
aaaa(lp1015
I382
aI383
aS'at'
p1016
a(lp1017
(lp1018
I382
ag531
aa(lp1019
I383
ag497
aaaa(lp1020
I385
aI387
aS'all'
p1021
a(lp1022
(lp1023
I385
ag531
aa(lp1024
I386
ag519
aa(lp1025
I387
ag519
aaaa(lp1026
I389
aI392
ag294
a(lp1027
(lp1028
I389
ag497
aa(lp1029
I390
ag538
aa(lp1030
I391
ag519
aa(lp1031
I392
ag519
aaaa(lp1032
I394
aI398
aS'there'
p1033
a(lp1034
(lp1035
I394
ag497
aa(lp1036
I395
ag499
aa(lp1037
I396
ag501
aa(lp1038
I397
ag503
aa(lp1039
I398
ag501
aaaa(lp1040
I400
aI402
aS'was'
p1041
a(lp1042
(lp1043
I400
ag509
aa(lp1044
I401
ag531
aa(lp1045
I402
ag522
aaaa(lp1046
I404
aI406
aS'you'
p1047
a(lp1048
(lp1049
I404
ag649
aa(lp1050
I405
ag527
aa(lp1051
I406
ag546
aaaa(lp1052
I408
aI411
aS'then'
p1053
a(lp1054
(lp1055
I408
ag497
aa(lp1056
I409
ag499
aa(lp1057
I410
ag501
aa(lp1058
I411
ag529
aaaa(lp1059
I413
aI417
aS'there'
p1060
a(lp1061
(lp1062
I413
ag497
aa(lp1063
I414
ag499
aa(lp1064
I415
ag501
aa(lp1065
I416
ag503
aa(lp1066
I417
ag501
aaaa(lp1067
I419
aI421
aS'was'
p1068
a(lp1069
(lp1070
I419
ag509
aa(lp1071
I420
ag531
aa(lp1072
I421
ag522
aaaa(lp1073
I423
aI427
ag303
a(lp1074
(lp1075
I423
ag574
aa(lp1076
I424
ag546
aa(lp1077
I425
ag522
aa(lp1078
I426
ag538
aa(lp1079
I427
ag820
aaaa(lp1080
I429
aI431
aS'and'
p1081
a(lp1082
(lp1083
I429
ag531
aa(lp1084
I430
ag529
aa(lp1085
I431
ag566
aaaa(lp1086
I433
aI441
ag312
a(lp1087
(lp1088
I433
ag509
aa(lp1089
I434
ag527
aa(lp1090
I435
ag529
aa(lp1091
I436
ag566
aa(lp1092
I437
ag501
aa(lp1093
I438
ag503
aa(lp1094
I439
ag836
aa(lp1095
I440
ag546
aa(lp1096
I441
ag519
aaaa(lp1097
I443
aI447
ag321
a(lp1098
(lp1099
I443
ag503
aa(lp1100
I444
ag527
aa(lp1101
I445
ag522
aa(lp1102
I446
ag501
aa(lp1103
I447
ag522
aaaa(lp1104
I449
aI452
aS'they'
p1105
a(lp1106
(lp1107
I449
ag497
aa(lp1108
I450
ag499
aa(lp1109
I451
ag501
aa(lp1110
I452
ag649
aaaa(lp1111
I454
aI457
ag330
a(lp1112
(lp1113
I454
ag497
aa(lp1114
I455
ag501
aa(lp1115
I456
ag519
aa(lp1116
I457
ag519
aaaa(lp1117
I459
aI460
aS'me'
p1118
a(lp1119
(lp1120
I459
ag574
aa(lp1121
I460
ag501
aaaa(lp1122
I462
aI463
aS'in'
p1123
a(lp1124
(lp1125
I462
ag538
aa(lp1126
I463
ag529
aaaa(lp1127
I465
aI469
ag339
a(lp1128
(lp1129
I465
ag522
aa(lp1130
I466
ag509
aa(lp1131
I467
ag501
aa(lp1132
I468
ag501
aa(lp1133
I469
ag497
aaaa(lp1134
I471
aI478
ag348
a(lp1135
(lp1136
I471
ag836
aa(lp1137
I472
ag503
aa(lp1138
I473
ag531
aa(lp1139
I474
ag581
aa(lp1140
I475
ag503
aa(lp1141
I476
ag531
aa(lp1142
I477
ag529
aa(lp1143
I478
ag497
aaaa(lp1144
I480
aI486
ag357
a(lp1145
(lp1146
I480
ag574
aa(lp1147
I481
ag501
aa(lp1148
I482
ag531
aa(lp1149
I483
ag566
aa(lp1150
I484
ag527
aa(lp1151
I485
ag509
aa(lp1152
I486
ag522
aaaa(lp1153
I488
aI489
aS'of'
p1154
a(lp1155
(lp1156
I488
ag527
aa(lp1157
I489
ag836
aaaa(lp1158
I491
aI494
ag366
a(lp1159
(lp1160
I491
ag566
aa(lp1161
I492
ag531
aa(lp1162
I493
ag509
aa(lp1163
I494
ag529
aaaa(lp1164
I496
aI498
aS'and'
p1165
a(lp1166
(lp1167
I496
ag531
aa(lp1168
I497
ag529
aa(lp1169
I498
ag566
aaaa(lp1170
I500
aI502
ag375
a(lp1171
(lp1172
I500
ag566
aa(lp1173
I501
ag501
aa(lp1174
I502
ag509
aaaa(lp1175
I504
aI508
aS'there'
p1176
a(lp1177
(lp1178
I504
ag497
aa(lp1179
I505
ag499
aa(lp1180
I506
ag501
aa(lp1181
I507
ag503
aa(lp1182
I508
ag501
aaaa(lp1183
I510
aI512
aS'was'
p1184
a(lp1185
(lp1186
I510
ag509
aa(lp1187
I511
ag531
aa(lp1188
I512
ag522
aaaa(lp1189
I514
aI517
ag384
a(lp1190
(lp1191
I514
ag519
aa(lp1192
I515
ag527
aa(lp1193
I516
ag556
aa(lp1194
I517
ag501
aaaa(lp1195
I519
aI521
aS'all'
p1196
a(lp1197
(lp1198
I519
ag531
aa(lp1199
I520
ag519
aa(lp1200
I521
ag519
aaaa(lp1201
I523
aI528
ag393
a(lp1202
(lp1203
I523
ag531
aa(lp1204
I524
ag503
aa(lp1205
I525
ag527
aa(lp1206
I526
ag546
aa(lp1207
I527
ag529
aa(lp1208
I528
ag566
aaaa(lp1209
I530
aI532
aS'but'
p1210
a(lp1211
(lp1212
I530
ag516
aa(lp1213
I531
ag546
aa(lp1214
I532
ag497
aaaa(lp1215
I534
aI534
ag538
a(lp1216
(lp1217
I534
ag538
aaaa(lp1218
I536
aI540
ag402
a(lp1219
(lp1220
I536
ag529
aa(lp1221
I537
ag501
aa(lp1222
I538
ag556
aa(lp1223
I539
ag501
aa(lp1224
I540
ag503
aaaa(lp1225
I542
aI546
ag411
a(lp1226
(lp1227
I542
ag499
aa(lp1228
I543
ag501
aa(lp1229
I544
ag531
aa(lp1230
I545
ag503
aa(lp1231
I546
ag566
aaaa(lp1232
I548
aI549
aS'it'
p1233
a(lp1234
(lp1235
I548
ag538
aa(lp1236
I549
ag497
aaaa(lp1237
I551
aI557
ag420
a(lp1238
(lp1239
I551
ag522
aa(lp1240
I552
ag538
aa(lp1241
I553
ag529
aa(lp1242
I554
ag581
aa(lp1243
I555
ag538
aa(lp1244
I556
ag529
aa(lp1245
I557
ag581
aaaa(lp1246
I559
aI560
aS'no'
p1247
a(lp1248
(lp1249
I559
ag529
aa(lp1250
I560
ag527
aaaa(lp1251
I563
aI563
ag538
a(lp1252
(lp1253
I563
ag538
aaaa(lp1254
I565
aI569
ag429
a(lp1255
(lp1256
I565
ag529
aa(lp1257
I566
ag501
aa(lp1258
I567
ag556
aa(lp1259
I568
ag501
aa(lp1260
I569
ag503
aaaa(lp1261
I571
aI575
ag438
a(lp1262
(lp1263
I571
ag499
aa(lp1264
I572
ag501
aa(lp1265
I573
ag531
aa(lp1266
I574
ag503
aa(lp1267
I575
ag566
aaaa(lp1268
I577
aI578
aS'it'
p1269
a(lp1270
(lp1271
I577
ag538
aa(lp1272
I578
ag497
aaaa(lp1273
I580
aI581
aS'at'
p1274
a(lp1275
(lp1276
I580
ag531
aa(lp1277
I581
ag497
aaaa(lp1278
I583
aI585
aS'all'
p1279
a(lp1280
(lp1281
I583
ag531
aa(lp1282
I584
ag519
aa(lp1283
I585
ag519
aaaa(lp1284
I587
aI590
ag447
a(lp1285
(lp1286
I587
ag497
aa(lp1287
I588
ag538
aa(lp1288
I589
ag519
aa(lp1289
I590
ag519
aaaa(lp1290
I592
aI596
aS'there'
p1291
a(lp1292
(lp1293
I592
ag497
aa(lp1294
I593
ag499
aa(lp1295
I594
ag501
aa(lp1296
I595
ag503
aa(lp1297
I596
ag501
aaaa(lp1298
I598
aI600
aS'was'
p1299
a(lp1300
(lp1301
I598
ag509
aa(lp1302
I599
ag531
aa(lp1303
I600
ag522
aaaa(lp1304
I602
aI604
aS'you'
p1305
a(lp1306
(lp1307
I602
ag649
aa(lp1308
I603
ag527
aa(lp1309
I604
ag546
aaaa(lp1310
I606
aI609
ag456
a(lp1311
(lp1312
I606
ag497
aa(lp1313
I607
ag538
aa(lp1314
I608
ag519
aa(lp1315
I609
ag519
aaaa(lp1316
I611
aI615
aS'there'
p1317
a(lp1318
(lp1319
I611
ag497
aa(lp1320
I612
ag499
aa(lp1321
I613
ag501
aa(lp1322
I614
ag503
aa(lp1323
I615
ag501
aaaa(lp1324
I617
aI619
aS'was'
p1325
a(lp1326
(lp1327
I617
ag509
aa(lp1328
I618
ag531
aa(lp1329
I619
ag522
aaaa(lp1330
I621
aI623
aS'you'
p1331
a(lp1332
(lp1333
I621
ag649
aa(lp1334
I622
ag527
aa(lp1335
I623
ag546
aaaa(lp1336
I629
aI631
ag465
a(lp1337
(lp1338
I629
ag503
aa(lp1339
I630
ag527
aa(lp1340
I631
ag566
aaaa(lp1341
I633
aI639
ag474
a(lp1342
(lp1343
I633
ag522
aa(lp1344
I634
ag497
aa(lp1345
I635
ag501
aa(lp1346
I636
ag509
aa(lp1347
I637
ag531
aa(lp1348
I638
ag503
aa(lp1349
I639
ag497
aaaa(lp1350
I642
aI645
ag483
a(lp1351
(lp1352
I642
ag497
aa(lp1353
I643
ag538
aa(lp1354
I644
ag519
aa(lp1355
I645
ag519
aaaa(lp1356
I647
aI651
aS'there'
p1357
a(lp1358
(lp1359
I647
ag497
aa(lp1360
I648
ag499
aa(lp1361
I649
ag501
aa(lp1362
I650
ag503
aa(lp1363
I651
ag501
aaaa(lp1364
I653
aI655
aS'was'
p1365
a(lp1366
(lp1367
I653
ag509
aa(lp1368
I654
ag531
aa(lp1369
I655
ag522
aaaa(lp1370
I657
aI659
aS'you'
p1371
a(lp1372
(lp1373
I657
ag649
aa(lp1374
I658
ag527
aa(lp1375
I659
ag546
aaaasS'cleanCharacterMap'
p1376
(lp1377
g496
ag498
ag500
ag502
ag504
a(lp1378
I5
aS' '
p1379
aag508
ag510
ag511
ag512
a(lp1380
I10
ag1379
aag515
ag517
ag518
ag520
ag521
a(lp1381
I16
ag1379
aag526
ag528
a(lp1382
I19
ag1379
aag533
a(lp1383
I21
ag1379
aag536
ag537
ag539
ag540
a(lp1384
I26
ag1379
aag544
ag545
ag547
a(lp1385
I30
ag1379
aag550
a(lp1386
I32
ag1379
aag553
ag554
ag555
ag557
ag558
a(lp1387
I38
ag1379
aag561
ag562
ag563
ag564
ag565
a(lp1388
I44
ag1379
aag570
ag571
ag572
ag573
a(lp1389
I49
ag1379
aag577
ag578
ag579
ag580
ag582
ag583
ag584
a(lp1390
I57
ag1379
aag588
ag589
a(lp1391
I61
ag1379
aag592
a(lp1392
I63
ag1379
aag595
ag596
ag597
ag598
ag599
a(lp1393
I69
ag1379
aag602
ag603
ag604
ag605
ag606
a(lp1394
I75
ag1379
aag610
ag611
ag612
ag613
a(lp1395
I80
ag1379
aag617
ag618
a(lp1396
I83
ag1379
aag622
ag623
ag624
a(lp1397
I87
ag1379
aag627
ag628
ag629
ag630
a(lp1398
I92
ag1379
aag634
ag635
ag636
ag637
ag638
a(lp1399
I98
ag1379
aag642
ag643
ag644
a(lp1400
I102
ag1379
aag648
ag650
ag651
a(lp1401
I106
ag1379
aag655
ag656
ag657
ag658
ag659
a(lp1402
I112
ag1379
aag663
ag664
ag665
ag666
a(lp1403
I117
ag1379
aag669
ag670
ag671
ag672
ag673
a(lp1404
I123
ag1379
aag677
ag678
a(lp1405
I126
ag1379
aag682
ag683
ag684
a(lp1406
I130
ag1379
aag687
ag688
ag690
a(lp1407
I134
ag1379
aag694
ag695
ag696
a(lp1408
I138
ag1379
aag699
a(lp1409
I140
ag1379
aag702
ag703
ag704
ag705
ag706
a(lp1410
I146
ag1379
aag709
ag710
ag711
a(lp1411
I150
ag1379
aag715
ag716
ag717
ag718
a(lp1412
I155
ag1379
aag721
ag722
ag723
ag724
ag725
ag726
ag727
a(lp1413
I163
ag1379
aag731
ag732
a(lp1414
I167
ag1379
aag735
a(lp1415
I169
ag1379
aag738
ag739
ag740
ag741
ag742
a(lp1416
I175
ag1379
aag745
ag746
ag747
a(lp1417
I179
ag1379
aag751
ag752
ag753
ag754
a(lp1418
I184
ag1379
aag758
ag759
a(lp1419
I187
ag1379
aag763
ag764
ag765
a(lp1420
I191
ag1379
aag768
ag769
ag770
ag771
a(lp1421
I196
ag1379
aag775
ag776
ag777
ag778
ag779
a(lp1422
I202
ag1379
aag783
ag784
ag785
a(lp1423
I206
ag1379
aag789
ag790
ag791
a(lp1424
I210
ag1379
aag795
ag796
ag797
ag798
a(lp1425
I215
ag1379
aag802
ag803
ag804
ag805
ag806
a(lp1426
I221
ag1379
aag810
ag811
ag812
a(lp1427
I225
ag1379
aag815
ag816
ag817
ag818
ag819
a(lp1428
I231
ag1379
aag824
ag825
ag826
a(lp1429
I235
ag1379
aag829
ag830
ag831
ag832
ag833
ag834
ag835
ag837
ag838
a(lp1430
I245
ag1379
aag841
ag842
ag843
ag844
ag845
a(lp1431
I251
ag1379
aag849
ag850
ag851
ag852
a(lp1432
I256
ag1379
aag855
ag856
ag857
ag858
a(lp1433
I261
ag1379
aag862
ag863
a(lp1434
I264
ag1379
aag867
ag868
a(lp1435
I267
ag1379
aag871
ag872
ag873
ag874
ag875
a(lp1436
I273
ag1379
aag878
ag879
ag880
ag881
ag882
ag883
ag884
ag885
a(lp1437
I282
ag1379
aag888
ag889
ag890
ag891
ag892
ag893
ag894
a(lp1438
I290
ag1379
aag898
ag899
a(lp1439
I293
ag1379
aag902
ag903
ag904
ag905
a(lp1440
I298
ag1379
aag909
ag910
ag911
a(lp1441
I302
ag1379
aag914
ag915
ag916
a(lp1442
I306
ag1379
aag920
ag921
ag922
ag923
ag924
a(lp1443
I312
ag1379
aag928
ag929
ag930
a(lp1444
I316
ag1379
aag933
ag934
ag935
ag936
a(lp1445
I321
ag1379
aag940
ag941
ag942
a(lp1446
I325
ag1379
aag945
ag946
ag947
ag948
ag949
ag950
a(lp1447
I332
ag1379
aag954
ag955
ag956
a(lp1448
I336
ag1379
aag959
a(lp1449
I338
ag1379
aag962
ag963
ag964
ag965
ag966
a(lp1450
I344
ag1379
aag969
ag970
ag971
ag972
ag973
a(lp1451
I350
ag1379
aag977
ag978
a(lp1452
I353
ag1379
aag981
ag982
ag983
ag984
ag985
ag986
ag987
a(lp1453
I361
ag1379
aag991
ag992
a(lp1454
I364
ag1379
aag995
a(lp1455
I366
ag1379
aag998
ag999
ag1000
ag1001
ag1002
a(lp1456
I372
ag1379
aag1005
ag1006
ag1007
ag1008
ag1009
a(lp1457
I378
ag1379
aag1013
ag1014
a(lp1458
I381
ag1379
aag1018
ag1019
a(lp1459
I384
ag1379
aag1023
ag1024
ag1025
a(lp1460
I388
ag1379
aag1028
ag1029
ag1030
ag1031
a(lp1461
I393
ag1379
aag1035
ag1036
ag1037
ag1038
ag1039
a(lp1462
I399
ag1379
aag1043
ag1044
ag1045
a(lp1463
I403
ag1379
aag1049
ag1050
ag1051
a(lp1464
I407
ag1379
aag1055
ag1056
ag1057
ag1058
a(lp1465
I412
ag1379
aag1062
ag1063
ag1064
ag1065
ag1066
a(lp1466
I418
ag1379
aag1070
ag1071
ag1072
a(lp1467
I422
ag1379
aag1075
ag1076
ag1077
ag1078
ag1079
a(lp1468
I428
ag1379
aag1083
ag1084
ag1085
a(lp1469
I432
ag1379
aag1088
ag1089
ag1090
ag1091
ag1092
ag1093
ag1094
ag1095
ag1096
a(lp1470
I442
ag1379
aag1099
ag1100
ag1101
ag1102
ag1103
a(lp1471
I448
ag1379
aag1107
ag1108
ag1109
ag1110
a(lp1472
I453
ag1379
aag1113
ag1114
ag1115
ag1116
a(lp1473
I458
ag1379
aag1120
ag1121
a(lp1474
I461
ag1379
aag1125
ag1126
a(lp1475
I464
ag1379
aag1129
ag1130
ag1131
ag1132
ag1133
a(lp1476
I470
ag1379
aag1136
ag1137
ag1138
ag1139
ag1140
ag1141
ag1142
ag1143
a(lp1477
I479
ag1379
aag1146
ag1147
ag1148
ag1149
ag1150
ag1151
ag1152
a(lp1478
I487
ag1379
aag1156
ag1157
a(lp1479
I490
ag1379
aag1160
ag1161
ag1162
ag1163
a(lp1480
I495
ag1379
aag1167
ag1168
ag1169
a(lp1481
I499
ag1379
aag1172
ag1173
ag1174
a(lp1482
I503
ag1379
aag1178
ag1179
ag1180
ag1181
ag1182
a(lp1483
I509
ag1379
aag1186
ag1187
ag1188
a(lp1484
I513
ag1379
aag1191
ag1192
ag1193
ag1194
a(lp1485
I518
ag1379
aag1198
ag1199
ag1200
a(lp1486
I522
ag1379
aag1203
ag1204
ag1205
ag1206
ag1207
ag1208
a(lp1487
I529
ag1379
aag1212
ag1213
ag1214
a(lp1488
I533
ag1379
aag1217
a(lp1489
I535
ag1379
aag1220
ag1221
ag1222
ag1223
ag1224
a(lp1490
I541
ag1379
aag1227
ag1228
ag1229
ag1230
ag1231
a(lp1491
I547
ag1379
aag1235
ag1236
a(lp1492
I550
ag1379
aag1239
ag1240
ag1241
ag1242
ag1243
ag1244
ag1245
a(lp1493
I558
ag1379
aag1249
ag1250
a(lp1494
I562
ag1379
aag1253
a(lp1495
I564
ag1379
aag1256
ag1257
ag1258
ag1259
ag1260
a(lp1496
I570
ag1379
aag1263
ag1264
ag1265
ag1266
ag1267
a(lp1497
I576
ag1379
aag1271
ag1272
a(lp1498
I579
ag1379
aag1276
ag1277
a(lp1499
I582
ag1379
aag1281
ag1282
ag1283
a(lp1500
I586
ag1379
aag1286
ag1287
ag1288
ag1289
a(lp1501
I591
ag1379
aag1293
ag1294
ag1295
ag1296
ag1297
a(lp1502
I597
ag1379
aag1301
ag1302
ag1303
a(lp1503
I601
ag1379
aag1307
ag1308
ag1309
a(lp1504
I605
ag1379
aag1312
ag1313
ag1314
ag1315
a(lp1505
I610
ag1379
aag1319
ag1320
ag1321
ag1322
ag1323
a(lp1506
I616
ag1379
aag1327
ag1328
ag1329
a(lp1507
I620
ag1379
aag1333
ag1334
ag1335
a(lp1508
I624
ag1379
aa(lp1509
I626
ag1379
aa(lp1510
I628
ag1379
aag1338
ag1339
ag1340
a(lp1511
I632
ag1379
aag1343
ag1344
ag1345
ag1346
ag1347
ag1348
ag1349
a(lp1512
I640
ag1379
aag1352
ag1353
ag1354
ag1355
a(lp1513
I646
ag1379
aag1359
ag1360
ag1361
ag1362
ag1363
a(lp1514
I652
ag1379
aag1367
ag1368
ag1369
a(lp1515
I656
ag1379
aag1373
ag1374
ag1375
a(lp1516
I660
ag1379
aa(lp1517
I661
ag519
aa(lp1518
I662
ag649
aa(lp1519
I663
ag503
aa(lp1520
I664
ag538
aa(lp1521
I665
ag820
aa(lp1522
I666
ag522
aasS'text'
p1523
S"there were bells on a hill but i never heard them ringing no, i never heard them at all till there was you there were birds in the sky but i never saw them winging no, i never saw them at all till there was you then there was music and wonderful roses they tell me in sweet fragrant meadows of dawn and dew there was love all around but i never heard it singing no i never heard it at all till there was you then there was music and wonderful roses they tell me in sweet fragrant meadows of dawn and dew there was love all around but i never heard it singing no, i never heard it at all till there was you till there was you | | rod stewart 'till there was you lyrics"
p1524
sS'cleanWordMap'
p1525
(lp1526
g513
ag534
ag551
ag559
ag575
ag593
ag600
ag625
ag667
ag685
ag700
ag707
ag719
ag736
ag743
ag766
ag813
ag827
ag839
ag853
ag869
ag876
ag886
ag900
ag912
ag931
ag943
ag960
ag967
ag979
ag996
ag1003
ag1026
ag1073
ag1086
ag1097
ag1111
ag1127
ag1134
ag1144
ag1158
ag1170
ag1189
ag1201
ag1218
ag1225
ag1237
ag1254
ag1261
ag1284
ag1310
ag1336
ag1341
ag1350
asS'lines'
p1527
(lp1528
VThere were bells on a hill But I never heard them ringing No, I never heard them at all Till there was you There were birds in the sky But I never saw them winging No, I never saw them at all Till there was you Then there was music and wonderful roses They tell me in sweet fragrant meadows Of dawn and dew There was love all around But I never heard it singing No I never heard it at all Till there was you Then there was music and wonderful roses They tell me in sweet fragrant meadows Of dawn and dew There was love all around But I never heard it singing No, I never heard it at all Till there was you Till there was you | |\u000a
p1529
aVROD STEWART 'TILL THERE WAS YOU LYRICS
p1530
asS'docType'
p1531
S'src'
p1532
sS'newfmap'
p1533
(lp1534
g4
ag8
ag10
ag12
ag14
ag17
ag19
ag21
ag23
ag26
ag28
ag30
ag35
ag37
ag39
ag41
ag44
ag46
ag48
ag50
ag53
ag55
ag57
ag62
ag64
ag73
ag77
ag80
ag82
ag84
ag86
ag89
ag91
ag93
ag95
ag98
ag100
ag102
ag104
ag107
ag109
ag111
ag113
ag116
ag118
ag120
ag122
ag125
ag127
ag129
ag131
ag134
ag136
ag138
ag140
ag145
ag147
ag149
ag152
ag154
ag156
ag158
ag161
ag163
ag165
ag167
ag170
ag172
ag174
ag176
ag179
ag181
ag183
ag185
ag188
ag190
ag192
ag194
ag197
ag199
ag201
ag203
ag206
ag208
ag210
ag212
ag215
ag217
ag219
ag221
ag224
ag226
ag228
ag230
ag233
ag235
ag237
ag239
ag242
ag244
ag246
ag248
ag251
ag253
ag255
ag260
ag262
ag264
ag266
ag269
ag271
ag273
ag275
ag278
ag280
ag282
ag287
ag289
ag298
ag302
ag305
ag307
ag309
ag311
ag314
ag316
ag318
ag320
ag323
ag325
ag327
ag329
ag332
ag334
ag336
ag338
ag341
ag343
ag345
ag347
ag350
ag352
ag354
ag356
ag359
ag361
ag363
ag365
ag368
ag370
ag372
ag374
ag377
ag379
ag381
ag383
ag386
ag388
ag390
ag392
ag395
ag397
ag399
ag401
ag404
ag406
ag408
ag413
ag415
ag417
ag419
ag422
ag424
ag426
ag428
ag431
ag433
ag435
ag440
ag442
ag451
ag455
ag462
ag464
ag467
ag469
ag471
ag473
ag476
ag478
ag480
ag482
ag485
ag487
ag489
asS'featureMap'
p1535
(lp1536
(lp1537
I11
aI15
ag5
ag6
ag9
ag11
ag13
aa(lp1538
I22
aI25
ag15
ag16
ag18
ag20
ag22
aa(lp1539
I33
aI37
ag24
ag25
ag27
ag29
ag31
aa(lp1540
I39
aI43
ag33
ag34
ag36
ag38
ag40
aa(lp1541
I50
aI56
ag42
ag43
ag45
ag47
ag49
aa(lp1542
I64
aI68
ag51
ag52
ag54
ag56
ag58
aa(lp1543
I70
aI74
ag60
ag61
ag63
ag65
ag67
aa(lp1544
I88
aI91
ag69
ag70
ag72
ag74
ag76
aa(lp1545
I118
aI122
ag78
ag79
ag81
ag83
ag85
aa(lp1546
I131
aI133
ag87
ag88
ag90
ag92
ag94
aa(lp1547
I141
aI145
ag96
ag97
ag99
ag101
ag103
aa(lp1548
I147
aI149
ag105
ag106
ag108
ag110
ag112
aa(lp1549
I156
aI162
ag114
ag115
ag117
ag119
ag121
aa(lp1550
I170
aI174
ag123
ag124
ag126
ag128
ag130
aa(lp1551
I176
aI178
ag132
ag133
ag135
ag137
ag139
aa(lp1552
I192
aI195
ag141
ag142
ag144
ag146
ag148
aa(lp1553
I226
aI230
ag150
ag151
ag153
ag155
ag157
aa(lp1554
I236
aI244
ag159
ag160
ag162
ag164
ag166
aa(lp1555
I246
aI250
ag168
ag169
ag171
ag173
ag175
aa(lp1556
I257
aI260
ag177
ag178
ag180
ag182
ag184
aa(lp1557
I268
aI272
ag186
ag187
ag189
ag191
ag193
aa(lp1558
I274
aI281
ag195
ag196
ag198
ag200
ag202
aa(lp1559
I283
aI289
ag204
ag205
ag207
ag209
ag211
aa(lp1560
I294
aI297
ag213
ag214
ag216
ag218
ag220
aa(lp1561
I303
aI305
ag222
ag223
ag225
ag227
ag229
aa(lp1562
I317
aI320
ag231
ag232
ag234
ag236
ag238
aa(lp1563
I326
aI331
ag240
ag241
ag243
ag245
ag247
aa(lp1564
I339
aI343
ag249
ag250
ag252
ag254
ag256
aa(lp1565
I345
aI349
ag258
ag259
ag261
ag263
ag265
aa(lp1566
I354
aI360
ag267
ag268
ag270
ag272
ag274
aa(lp1567
I367
aI371
ag276
ag277
ag279
ag281
ag283
aa(lp1568
I373
aI377
ag285
ag286
ag288
ag290
ag292
aa(lp1569
I389
aI392
ag294
ag295
ag297
ag299
ag301
aa(lp1570
I423
aI427
ag303
ag304
ag306
ag308
ag310
aa(lp1571
I433
aI441
ag312
ag313
ag315
ag317
ag319
aa(lp1572
I443
aI447
ag321
ag322
ag324
ag326
ag328
aa(lp1573
I454
aI457
ag330
ag331
ag333
ag335
ag337
aa(lp1574
I465
aI469
ag339
ag340
ag342
ag344
ag346
aa(lp1575
I471
aI478
ag348
ag349
ag351
ag353
ag355
aa(lp1576
I480
aI486
ag357
ag358
ag360
ag362
ag364
aa(lp1577
I491
aI494
ag366
ag367
ag369
ag371
ag373
aa(lp1578
I500
aI502
ag375
ag376
ag378
ag380
ag382
aa(lp1579
I514
aI517
ag384
ag385
ag387
ag389
ag391
aa(lp1580
I523
aI528
ag393
ag394
ag396
ag398
ag400
aa(lp1581
I536
aI540
ag402
ag403
ag405
ag407
ag409
aa(lp1582
I542
aI546
ag411
ag412
ag414
ag416
ag418
aa(lp1583
I551
aI557
ag420
ag421
ag423
ag425
ag427
aa(lp1584
I565
aI569
ag429
ag430
ag432
ag434
ag436
aa(lp1585
I571
aI575
ag438
ag439
ag441
ag443
ag445
aa(lp1586
I587
aI590
ag447
ag448
ag450
ag452
ag454
aa(lp1587
I606
aI609
ag456
ag457
ag459
ag461
ag463
aa(lp1588
I629
aI631
ag465
ag466
ag468
ag470
ag472
aa(lp1589
I633
aI639
ag474
ag475
ag477
ag479
ag481
aa(lp1590
I642
aI645
ag483
ag484
ag486
ag488
ag490
aasS'characterMap'
p1591
(lp1592
g496
ag498
ag500
ag502
ag504
ag1378
ag508
ag510
ag511
ag512
ag1380
ag515
ag517
ag518
ag520
ag521
ag1381
ag526
ag528
ag1382
ag533
ag1383
ag536
ag537
ag539
ag540
ag1384
ag544
ag545
ag547
ag1385
ag550
ag1386
ag553
ag554
ag555
ag557
ag558
ag1387
ag561
ag562
ag563
ag564
ag565
ag1388
ag570
ag571
ag572
ag573
ag1389
ag577
ag578
ag579
ag580
ag582
ag583
ag584
ag1390
ag588
ag589
a(lp1593
I60
aS','
p1594
aag1391
ag592
ag1392
ag595
ag596
ag597
ag598
ag599
ag1393
ag602
ag603
ag604
ag605
ag606
ag1394
ag610
ag611
ag612
ag613
ag1395
ag617
ag618
ag1396
ag622
ag623
ag624
ag1397
ag627
ag628
ag629
ag630
ag1398
ag634
ag635
ag636
ag637
ag638
ag1399
ag642
ag643
ag644
ag1400
ag648
ag650
ag651
ag1401
ag655
ag656
ag657
ag658
ag659
ag1402
ag663
ag664
ag665
ag666
ag1403
ag669
ag670
ag671
ag672
ag673
ag1404
ag677
ag678
ag1405
ag682
ag683
ag684
ag1406
ag687
ag688
ag690
ag1407
ag694
ag695
ag696
ag1408
ag699
ag1409
ag702
ag703
ag704
ag705
ag706
ag1410
ag709
ag710
ag711
ag1411
ag715
ag716
ag717
ag718
ag1412
ag721
ag722
ag723
ag724
ag725
ag726
ag727
ag1413
ag731
ag732
a(lp1595
I166
ag1594
aag1414
ag735
ag1415
ag738
ag739
ag740
ag741
ag742
ag1416
ag745
ag746
ag747
ag1417
ag751
ag752
ag753
ag754
ag1418
ag758
ag759
ag1419
ag763
ag764
ag765
ag1420
ag768
ag769
ag770
ag771
ag1421
ag775
ag776
ag777
ag778
ag779
ag1422
ag783
ag784
ag785
ag1423
ag789
ag790
ag791
ag1424
ag795
ag796
ag797
ag798
ag1425
ag802
ag803
ag804
ag805
ag806
ag1426
ag810
ag811
ag812
ag1427
ag815
ag816
ag817
ag818
ag819
ag1428
ag824
ag825
ag826
ag1429
ag829
ag830
ag831
ag832
ag833
ag834
ag835
ag837
ag838
ag1430
ag841
ag842
ag843
ag844
ag845
ag1431
ag849
ag850
ag851
ag852
ag1432
ag855
ag856
ag857
ag858
ag1433
ag862
ag863
ag1434
ag867
ag868
ag1435
ag871
ag872
ag873
ag874
ag875
ag1436
ag878
ag879
ag880
ag881
ag882
ag883
ag884
ag885
ag1437
ag888
ag889
ag890
ag891
ag892
ag893
ag894
ag1438
ag898
ag899
ag1439
ag902
ag903
ag904
ag905
ag1440
ag909
ag910
ag911
ag1441
ag914
ag915
ag916
ag1442
ag920
ag921
ag922
ag923
ag924
ag1443
ag928
ag929
ag930
ag1444
ag933
ag934
ag935
ag936
ag1445
ag940
ag941
ag942
ag1446
ag945
ag946
ag947
ag948
ag949
ag950
ag1447
ag954
ag955
ag956
ag1448
ag959
ag1449
ag962
ag963
ag964
ag965
ag966
ag1450
ag969
ag970
ag971
ag972
ag973
ag1451
ag977
ag978
ag1452
ag981
ag982
ag983
ag984
ag985
ag986
ag987
ag1453
ag991
ag992
ag1454
ag995
ag1455
ag998
ag999
ag1000
ag1001
ag1002
ag1456
ag1005
ag1006
ag1007
ag1008
ag1009
ag1457
ag1013
ag1014
ag1458
ag1018
ag1019
ag1459
ag1023
ag1024
ag1025
ag1460
ag1028
ag1029
ag1030
ag1031
ag1461
ag1035
ag1036
ag1037
ag1038
ag1039
ag1462
ag1043
ag1044
ag1045
ag1463
ag1049
ag1050
ag1051
ag1464
ag1055
ag1056
ag1057
ag1058
ag1465
ag1062
ag1063
ag1064
ag1065
ag1066
ag1466
ag1070
ag1071
ag1072
ag1467
ag1075
ag1076
ag1077
ag1078
ag1079
ag1468
ag1083
ag1084
ag1085
ag1469
ag1088
ag1089
ag1090
ag1091
ag1092
ag1093
ag1094
ag1095
ag1096
ag1470
ag1099
ag1100
ag1101
ag1102
ag1103
ag1471
ag1107
ag1108
ag1109
ag1110
ag1472
ag1113
ag1114
ag1115
ag1116
ag1473
ag1120
ag1121
ag1474
ag1125
ag1126
ag1475
ag1129
ag1130
ag1131
ag1132
ag1133
ag1476
ag1136
ag1137
ag1138
ag1139
ag1140
ag1141
ag1142
ag1143
ag1477
ag1146
ag1147
ag1148
ag1149
ag1150
ag1151
ag1152
ag1478
ag1156
ag1157
ag1479
ag1160
ag1161
ag1162
ag1163
ag1480
ag1167
ag1168
ag1169
ag1481
ag1172
ag1173
ag1174
ag1482
ag1178
ag1179
ag1180
ag1181
ag1182
ag1483
ag1186
ag1187
ag1188
ag1484
ag1191
ag1192
ag1193
ag1194
ag1485
ag1198
ag1199
ag1200
ag1486
ag1203
ag1204
ag1205
ag1206
ag1207
ag1208
ag1487
ag1212
ag1213
ag1214
ag1488
ag1217
ag1489
ag1220
ag1221
ag1222
ag1223
ag1224
ag1490
ag1227
ag1228
ag1229
ag1230
ag1231
ag1491
ag1235
ag1236
ag1492
ag1239
ag1240
ag1241
ag1242
ag1243
ag1244
ag1245
ag1493
ag1249
ag1250
a(lp1596
I561
ag1594
aag1494
ag1253
ag1495
ag1256
ag1257
ag1258
ag1259
ag1260
ag1496
ag1263
ag1264
ag1265
ag1266
ag1267
ag1497
ag1271
ag1272
ag1498
ag1276
ag1277
ag1499
ag1281
ag1282
ag1283
ag1500
ag1286
ag1287
ag1288
ag1289
ag1501
ag1293
ag1294
ag1295
ag1296
ag1297
ag1502
ag1301
ag1302
ag1303
ag1503
ag1307
ag1308
ag1309
ag1504
ag1312
ag1313
ag1314
ag1315
ag1505
ag1319
ag1320
ag1321
ag1322
ag1323
ag1506
ag1327
ag1328
ag1329
ag1507
ag1333
ag1334
ag1335
ag1508
a(lp1597
I625
aS'|'
p1598
aag1509
a(lp1599
I627
ag1598
aag1510
ag1338
ag1339
ag1340
ag1511
ag1343
ag1344
ag1345
ag1346
ag1347
ag1348
ag1349
ag1512
a(lp1600
I641
aS"'"
p1601
aag1352
ag1353
ag1354
ag1355
ag1513
ag1359
ag1360
ag1361
ag1362
ag1363
ag1514
ag1367
ag1368
ag1369
ag1515
ag1373
ag1374
ag1375
ag1516
ag1517
ag1518
ag1519
ag1520
ag1521
ag1522
asS'docName'
p1602
S'source-document01273.txt'
p1603
sb.