(iModel.Document
Document
p0
(dp1
S'fmap'
p2
(lp3
(lp4
I0
aI8
aS'excellent'
p5
a(lp6
S'*'
p7
ag5
aaa(lp8
I0
aI8
ag5
a(lp9
g7
ag5
aaa(lp10
I0
aI8
ag5
a(lp11
g7
ag5
aaa(lp12
I0
aI8
ag5
a(lp13
g7
ag5
aaa(lp14
I10
aI11
aS'48'
p15
a(lp16
g5
ag15
aaa(lp17
I10
aI11
ag15
a(lp18
g7
ag15
aaa(lp19
I10
aI11
ag15
a(lp20
g7
ag15
aaa(lp21
I10
aI11
ag15
a(lp22
g7
ag15
aaa(lp23
I13
aI16
aS'year'
p24
a(lp25
g15
ag24
aaa(lp26
I13
aI16
ag24
a(lp27
g5
ag24
aaa(lp28
I13
aI16
ag24
a(lp29
g7
ag24
aaa(lp30
I13
aI16
ag24
a(lp31
g7
ag24
aaa(lp32
I18
aI20
aS'old'
p33
a(lp34
g24
ag33
aaa(lp35
I18
aI20
ag33
a(lp36
g15
ag33
aaa(lp37
I18
aI20
ag33
a(lp38
g5
ag33
aaa(lp39
I18
aI20
ag33
a(lp40
g7
ag33
aaa(lp41
I29
aI36
aS'moderate'
p42
a(lp43
g33
ag42
aaa(lp44
I29
aI36
ag42
a(lp45
g24
ag42
aaa(lp46
I29
aI36
ag42
a(lp47
g15
ag42
aaa(lp48
I29
aI36
ag42
a(lp49
g5
ag42
aaa(lp50
I38
aI43
aS'budget'
p51
a(lp52
g42
ag51
aaa(lp53
I38
aI43
ag51
a(lp54
g33
ag51
aaa(lp55
I38
aI43
ag51
a(lp56
g24
ag51
aaa(lp57
I38
aI43
ag51
a(lp58
g15
ag51
aaa(lp59
I46
aI54
aS'traveling'
p60
a(lp61
g51
ag60
aaa(lp62
I46
aI54
ag60
a(lp63
g42
ag60
aaa(lp64
I46
aI54
ag60
a(lp65
g33
ag60
aaa(lp66
I46
aI54
ag60
a(lp67
g24
ag60
aaa(lp68
I60
aI78
aS'leisure1\xa0reviews\xa0'
p69
a(lp70
g60
ag69
aaa(lp71
I60
aI78
ag69
a(lp72
g51
ag69
aaa(lp73
I60
aI78
ag69
a(lp74
g42
ag69
aaa(lp75
I60
aI78
ag69
a(lp76
g33
ag69
aaa(lp77
I83
aI89
aS'husband'
p78
a(lp79
g69
ag78
aaa(lp80
I83
aI89
ag78
a(lp81
g60
ag78
aaa(lp82
I83
aI89
ag78
a(lp83
g51
ag78
aaa(lp84
I83
aI89
ag78
a(lp85
g42
ag78
aaa(lp86
I113
aI113
aS'3'
p87
a(lp88
g78
ag87
aaa(lp89
I113
aI113
ag87
a(lp90
g69
ag87
aaa(lp91
I113
aI113
ag87
a(lp92
g60
ag87
aaa(lp93
I113
aI113
ag87
a(lp94
g51
ag87
aaa(lp95
I115
aI119
aS'times'
p96
a(lp97
g87
ag96
aaa(lp98
I115
aI119
ag96
a(lp99
g78
ag96
aaa(lp100
I115
aI119
ag96
a(lp101
g69
ag96
aaa(lp102
I115
aI119
ag96
a(lp103
g60
ag96
aaa(lp104
I128
aI131
aS'last'
p105
a(lp106
g96
ag105
aaa(lp107
I128
aI131
ag105
a(lp108
g87
ag105
aaa(lp109
I128
aI131
ag105
a(lp110
g78
ag105
aaa(lp111
I128
aI131
ag105
a(lp112
g69
ag105
aaa(lp113
I133
aI136
aS'year'
p114
a(lp115
g105
ag114
aaa(lp116
I133
aI136
ag114
a(lp117
g96
ag114
aaa(lp118
I133
aI136
ag114
a(lp119
g87
ag114
aaa(lp120
I133
aI136
ag114
a(lp121
g78
ag114
aaa(lp122
I144
aI147
aS'time'
p123
a(lp124
g114
ag123
aaa(lp125
I144
aI147
ag123
a(lp126
g105
ag123
aaa(lp127
I144
aI147
ag123
a(lp128
g96
ag123
aaa(lp129
I144
aI147
ag123
a(lp130
g87
ag123
aaa(lp131
I180
aI188
aS'wonderful'
p132
a(lp133
g123
ag132
aaa(lp134
I180
aI188
ag132
a(lp135
g114
ag132
aaa(lp136
I180
aI188
ag132
a(lp137
g105
ag132
aaa(lp138
I180
aI188
ag132
a(lp139
g96
ag132
aaa(lp140
I195
aI201
aS'service'
p141
a(lp142
g132
ag141
aaa(lp143
I195
aI201
ag141
a(lp144
g123
ag141
aaa(lp145
I195
aI201
ag141
a(lp146
g114
ag141
aaa(lp147
I195
aI201
ag141
a(lp148
g105
ag141
aaa(lp149
I212
aI216
aS'great'
p150
a(lp151
g141
ag150
aaa(lp152
I212
aI216
ag150
a(lp153
g132
ag150
aaa(lp154
I212
aI216
ag150
a(lp155
g123
ag150
aaa(lp156
I212
aI216
ag150
a(lp157
g114
ag150
aaa(lp158
I219
aI223
aS'might'
p159
a(lp160
g150
ag159
aaa(lp161
I219
aI223
ag159
a(lp162
g141
ag159
aaa(lp163
I219
aI223
ag159
a(lp164
g132
ag159
aaa(lp165
I219
aI223
ag159
a(lp166
g123
ag159
aaa(lp167
I239
aI240
aS'go'
p168
a(lp169
g159
ag168
aaa(lp170
I239
aI240
ag168
a(lp171
g150
ag168
aaa(lp172
I239
aI240
ag168
a(lp173
g141
ag168
aaa(lp174
I239
aI240
ag168
a(lp175
g132
ag168
aaa(lp176
I253
aI256
aS'week'
p177
a(lp178
g168
ag177
aaa(lp179
I253
aI256
ag177
a(lp180
g159
ag177
aaa(lp181
I253
aI256
ag177
a(lp182
g150
ag177
aaa(lp183
I253
aI256
ag177
a(lp184
g141
ag177
aaa(lp185
I272
aI275
aS'less'
p186
a(lp187
g177
ag186
aaa(lp188
I272
aI275
ag186
a(lp189
g168
ag186
aaa(lp190
I272
aI275
ag186
a(lp191
g159
ag186
aaa(lp192
I272
aI275
ag186
a(lp193
g150
ag186
aaa(lp194
I277
aI280
aS'busy'
p195
a(lp196
g186
ag195
aaa(lp197
I277
aI280
ag195
a(lp198
g177
ag195
aaa(lp199
I277
aI280
ag195
a(lp200
g168
ag195
aaa(lp201
I277
aI280
ag195
a(lp202
g159
ag195
aaa(lp203
I287
aI291
aS'rooms'
p204
a(lp205
g195
ag204
aaa(lp206
I287
aI291
ag204
a(lp207
g186
ag204
aaa(lp208
I287
aI291
ag204
a(lp209
g177
ag204
aaa(lp210
I287
aI291
ag204
a(lp211
g168
ag204
aaa(lp212
I298
aI303
aS'always'
p213
a(lp214
g204
ag213
aaa(lp215
I298
aI303
ag213
a(lp216
g195
ag213
aaa(lp217
I298
aI303
ag213
a(lp218
g186
ag213
aaa(lp219
I298
aI303
ag213
a(lp220
g177
ag213
aaa(lp221
I310
aI314
aS'ready'
p222
a(lp223
g213
ag222
aaa(lp224
I310
aI314
ag222
a(lp225
g204
ag222
aaa(lp226
I310
aI314
ag222
a(lp227
g195
ag222
aaa(lp228
I310
aI314
ag222
a(lp229
g186
ag222
aaa(lp230
I319
aI322
aS'time'
p231
a(lp232
g222
ag231
aaa(lp233
I319
aI322
ag231
a(lp234
g213
ag231
aaa(lp235
I319
aI322
ag231
a(lp236
g204
ag231
aaa(lp237
I319
aI322
ag231
a(lp238
g195
ag231
aaa(lp239
I332
aI336
aS'early'
p240
a(lp241
g231
ag240
aaa(lp242
I332
aI336
ag240
a(lp243
g222
ag240
aaa(lp244
I332
aI336
ag240
a(lp245
g213
ag240
aaa(lp246
I332
aI336
ag240
a(lp247
g204
ag240
aaa(lp248
I349
aI354
aS'always'
p249
a(lp250
g240
ag249
aaa(lp251
I349
aI354
ag249
a(lp252
g231
ag249
aaa(lp253
I349
aI354
ag249
a(lp254
g222
ag249
aaa(lp255
I349
aI354
ag249
a(lp256
g213
ag249
aaa(lp257
I356
aI363
aS'upgraded'
p258
a(lp259
g249
ag258
aaa(lp260
I356
aI363
ag258
a(lp261
g240
ag258
aaa(lp262
I356
aI363
ag258
a(lp263
g231
ag258
aaa(lp264
I356
aI363
ag258
a(lp265
g222
ag258
aaa(lp266
I365
aI366
aS'us'
p267
a(lp268
g258
ag267
aaa(lp269
I365
aI366
ag267
a(lp270
g249
ag267
aaa(lp271
I365
aI366
ag267
a(lp272
g240
ag267
aaa(lp273
I365
aI366
ag267
a(lp274
g231
ag267
aaa(lp275
I373
aI377
aS'suite'
p276
a(lp277
g267
ag276
aaa(lp278
I373
aI377
ag276
a(lp279
g258
ag276
aaa(lp280
I373
aI377
ag276
a(lp281
g249
ag276
aaa(lp282
I373
aI377
ag276
a(lp283
g240
ag276
aaa(lp284
I392
aI400
aS'extremely'
p285
a(lp286
g276
ag285
aaa(lp287
I392
aI400
ag285
a(lp288
g267
ag285
aaa(lp289
I392
aI400
ag285
a(lp290
g258
ag285
aaa(lp291
I392
aI400
ag285
a(lp292
g249
ag285
aaa(lp293
I402
aI405
aS'nice'
p294
a(lp295
g285
ag294
aaa(lp296
I402
aI405
ag294
a(lp297
g276
ag294
aaa(lp298
I402
aI405
ag294
a(lp299
g267
ag294
aaa(lp300
I402
aI405
ag294
a(lp301
g258
ag294
aaa(lp302
I416
aI420
aS'never'
p303
a(lp304
g294
ag303
aaa(lp305
I416
aI420
ag303
a(lp306
g285
ag303
aaa(lp307
I416
aI420
ag303
a(lp308
g276
ag303
aaa(lp309
I416
aI420
ag303
a(lp310
g267
ag303
aaa(lp311
I422
aI426
aS'eaten'
p312
a(lp313
g303
ag312
aaa(lp314
I422
aI426
ag312
a(lp315
g294
ag312
aaa(lp316
I422
aI426
ag312
a(lp317
g285
ag312
aaa(lp318
I422
aI426
ag312
a(lp319
g276
ag312
aaa(lp320
I428
aI433
aS'dinner'
p321
a(lp322
g312
ag321
aaa(lp323
I428
aI433
ag321
a(lp324
g303
ag321
aaa(lp325
I428
aI433
ag321
a(lp326
g294
ag321
aaa(lp327
I428
aI433
ag321
a(lp328
g285
ag321
aaa(lp329
I442
aI447
aS'buffet'
p330
a(lp331
g321
ag330
aaa(lp332
I442
aI447
ag330
a(lp333
g312
ag330
aaa(lp334
I442
aI447
ag330
a(lp335
g303
ag330
aaa(lp336
I442
aI447
ag330
a(lp337
g294
ag330
aaa(lp338
I458
aI466
aS'breakfast'
p339
a(lp340
g330
ag339
aaa(lp341
I458
aI466
ag339
a(lp342
g321
ag339
aaa(lp343
I458
aI466
ag339
a(lp344
g312
ag339
aaa(lp345
I458
aI466
ag339
a(lp346
g303
ag339
aaa(lp347
I477
aI480
aS'good'
p348
a(lp349
g339
ag348
aaa(lp350
I477
aI480
ag348
a(lp351
g330
ag348
aaa(lp352
I477
aI480
ag348
a(lp353
g321
ag348
aaa(lp354
I477
aI480
ag348
a(lp355
g312
ag348
aaa(lp356
I487
aI490
aS'1875'
p357
a(lp358
g348
ag357
aaa(lp359
I487
aI490
ag357
a(lp360
g339
ag357
aaa(lp361
I487
aI490
ag357
a(lp362
g330
ag357
aaa(lp363
I487
aI490
ag357
a(lp364
g321
ag357
aaa(lp365
I492
aI501
aS'steakhouse'
p366
a(lp367
g357
ag366
aaa(lp368
I492
aI501
ag366
a(lp369
g348
ag366
aaa(lp370
I492
aI501
ag366
a(lp371
g339
ag366
aaa(lp372
I492
aI501
ag366
a(lp373
g330
ag366
aaa(lp374
I507
aI510
aS'good'
p375
a(lp376
g366
ag375
aaa(lp377
I507
aI510
ag375
a(lp378
g357
ag375
aaa(lp379
I507
aI510
ag375
a(lp380
g348
ag375
aaa(lp381
I507
aI510
ag375
a(lp382
g339
ag375
aaa(lp383
I513
aI518
aS'little'
p384
a(lp385
g375
ag384
aaa(lp386
I513
aI518
ag384
a(lp387
g366
ag384
aaa(lp388
I513
aI518
ag384
a(lp389
g357
ag384
aaa(lp390
I513
aI518
ag384
a(lp391
g348
ag384
aaa(lp392
I520
aI525
aS'pricey'
p393
a(lp394
g384
ag393
aaa(lp395
I520
aI525
ag393
a(lp396
g375
ag393
aaa(lp397
I520
aI525
ag393
a(lp398
g366
ag393
aaa(lp399
I520
aI525
ag393
a(lp400
g357
ag393
aaa(lp401
I532
aI538
aS'hagens'
p402
a(lp403
g393
ag402
aaa(lp404
I532
aI538
ag402
a(lp405
g384
ag402
aaa(lp406
I532
aI538
ag402
a(lp407
g375
ag402
aaa(lp408
I532
aI538
ag402
a(lp409
g366
ag402
aaa(lp410
I543
aI546
aS'also'
p411
a(lp412
g402
ag411
aaa(lp413
I543
aI546
ag411
a(lp414
g393
ag411
aaa(lp415
I543
aI546
ag411
a(lp416
g384
ag411
aaa(lp417
I543
aI546
ag411
a(lp418
g375
ag411
aaa(lp419
I548
aI551
aS'good'
p420
a(lp421
g411
ag420
aaa(lp422
I548
aI551
ag420
a(lp423
g402
ag420
aaa(lp424
I548
aI551
ag420
a(lp425
g393
ag420
aaa(lp426
I548
aI551
ag420
a(lp427
g384
ag420
aaa(lp428
I558
aI562
aS'pizza'
p429
a(lp430
g420
ag429
aaa(lp431
I558
aI562
ag429
a(lp432
g411
ag429
aaa(lp433
I558
aI562
ag429
a(lp434
g402
ag429
aaa(lp435
I558
aI562
ag429
a(lp436
g393
ag429
aaa(lp437
I567
aI573
aS'plutos'
p438
a(lp439
g429
ag438
aaa(lp440
I567
aI573
ag438
a(lp441
g420
ag438
aaa(lp442
I567
aI573
ag438
a(lp443
g411
ag438
aaa(lp444
I567
aI573
ag438
a(lp445
g402
ag438
aaa(lp446
I578
aI588
aS'outstanding'
p447
a(lp448
g438
ag447
aaa(lp449
I578
aI588
ag447
a(lp450
g429
ag447
aaa(lp451
I578
aI588
ag447
a(lp452
g420
ag447
aaa(lp453
I578
aI588
ag447
a(lp454
g411
ag447
aaa(lp455
I596
aI599
aS'time'
p456
a(lp457
g447
ag456
aaa(lp458
I596
aI599
ag456
a(lp459
g438
ag456
aaa(lp460
I596
aI599
ag456
a(lp461
g429
ag456
aaa(lp462
I596
aI599
ag456
a(lp463
g420
ag456
aaa(lp464
I641
aI649
aS'different'
p465
a(lp466
g456
ag465
aaa(lp467
I641
aI649
ag465
a(lp468
g447
ag465
aaa(lp469
I641
aI649
ag465
a(lp470
g438
ag465
aaa(lp471
I641
aI649
ag465
a(lp472
g429
ag465
aaa(lp473
I651
aI656
aS'season'
p474
a(lp475
g465
ag474
aaa(lp476
I651
aI656
ag474
a(lp477
g456
ag474
aaa(lp478
I651
aI656
ag474
a(lp479
g447
ag474
aaa(lp480
I651
aI656
ag474
a(lp481
g438
ag474
aaa(lp482
I675
aI680
aS'chance'
p483
a(lp484
g474
ag483
aaa(lp485
I675
aI680
ag483
a(lp486
g465
ag483
aaa(lp487
I675
aI680
ag483
a(lp488
g456
ag483
aaa(lp489
I675
aI680
ag483
a(lp490
g447
ag483
aaa(lp491
I685
aI686
aS'go'
p492
a(lp493
g483
ag492
aaa(lp494
I685
aI686
ag492
a(lp495
g474
ag492
aaa(lp496
I685
aI686
ag492
a(lp497
g465
ag492
aaa(lp498
I685
aI686
ag492
a(lp499
g456
ag492
aaa(lp500
I691
aI699
aS'christmas'
p501
a(lp502
g492
ag501
aaa(lp503
I691
aI699
ag501
a(lp504
g483
ag501
aaa(lp505
I691
aI699
ag501
a(lp506
g474
ag501
aaa(lp507
I691
aI699
ag501
a(lp508
g465
ag501
aaa(lp509
I705
aI715
aS'decorations'
p510
a(lp511
g501
ag510
aaa(lp512
I705
aI715
ag510
a(lp513
g492
ag510
aaa(lp514
I705
aI715
ag510
a(lp515
g483
ag510
aaa(lp516
I705
aI715
ag510
a(lp517
g474
ag510
aaa(lp518
I721
aI729
aS'beautiful'
p519
a(lp520
g510
ag519
aaa(lp521
I721
aI729
ag519
a(lp522
g501
ag519
aaa(lp523
I721
aI729
ag519
a(lp524
g492
ag519
aaa(lp525
I721
aI729
ag519
a(lp526
g483
ag519
aaa(lp527
I737
aI740
aS'fall'
p528
a(lp529
g519
ag528
aaa(lp530
I737
aI740
ag528
a(lp531
g510
ag528
aaa(lp532
I737
aI740
ag528
a(lp533
g501
ag528
aaa(lp534
I737
aI740
ag528
a(lp535
g492
ag528
aaa(lp536
I754
aI759
aS'fourth'
p537
a(lp538
g528
ag537
aaa(lp539
I754
aI759
ag537
a(lp540
g519
ag537
aaa(lp541
I754
aI759
ag537
a(lp542
g510
ag537
aaa(lp543
I754
aI759
ag537
a(lp544
g501
ag537
aaa(lp545
I761
aI764
aS'trip'
p546
a(lp547
g537
ag546
aaa(lp548
I761
aI764
ag546
a(lp549
g528
ag546
aaa(lp550
I761
aI764
ag546
a(lp551
g519
ag546
aaa(lp552
I761
aI764
ag546
a(lp553
g510
ag546
aaa(lp554
I771
aI774
aS'year'
p555
a(lp556
g546
ag555
aaa(lp557
I771
aI774
ag555
a(lp558
g537
ag555
aaa(lp559
I771
aI774
ag555
a(lp560
g528
ag555
aaa(lp561
I771
aI774
ag555
a(lp562
g519
ag555
aaa(lp563
I784
aI787
aS'last'
p564
a(lp565
g555
ag564
aaa(lp566
I784
aI787
ag564
a(lp567
g546
ag564
aaa(lp568
I784
aI787
ag564
a(lp569
g537
ag564
aaa(lp570
I784
aI787
ag564
a(lp571
g528
ag564
aaa(lp572
I796
aI802
aS'seasons'
p573
a(lp574
g564
ag573
aaa(lp575
I796
aI802
ag573
a(lp576
g555
ag573
aaa(lp577
I796
aI802
ag573
a(lp578
g546
ag573
aaa(lp579
I796
aI802
ag573
a(lp580
g537
ag573
aaa(lp581
I808
aI809
aS'us'
p582
a(lp583
g573
ag582
aaa(lp584
I808
aI809
ag582
a(lp585
g564
ag582
aaa(lp586
I808
aI809
ag582
a(lp587
g555
ag582
aaa(lp588
I808
aI809
ag582
a(lp589
g546
ag582
aaa(lp590
I825
aI828
aS'seen'
p591
a(lp592
g582
ag591
aaa(lp593
I825
aI828
ag591
a(lp594
g573
ag591
aaa(lp595
I825
aI828
ag591
a(lp596
g564
ag591
aaa(lp597
I825
aI828
ag591
a(lp598
g555
ag591
aaa(lp599
I836
aI840
aS'every'
p600
a(lp601
g591
ag600
aaa(lp602
I836
aI840
ag600
a(lp603
g582
ag600
aaa(lp604
I836
aI840
ag600
a(lp605
g573
ag600
aaa(lp606
I836
aI840
ag600
a(lp607
g564
ag600
aaa(lp608
I842
aI845
aS'time'
p609
a(lp610
g600
ag609
aaa(lp611
I842
aI845
ag609
a(lp612
g591
ag609
aaa(lp613
I842
aI845
ag609
a(lp614
g582
ag609
aaa(lp615
I842
aI845
ag609
a(lp616
g573
ag609
aaa(lp617
I854
aI857
aS'year'
p618
a(lp619
g609
ag618
aaa(lp620
I854
aI857
ag618
a(lp621
g600
ag618
aaa(lp622
I854
aI857
ag618
a(lp623
g591
ag618
aaa(lp624
I854
aI857
ag618
a(lp625
g582
ag618
aaa(lp626
I871
aI875
aS'going'
p627
a(lp628
g618
ag627
aaa(lp629
I871
aI875
ag627
a(lp630
g609
ag627
aaa(lp631
I871
aI875
ag627
a(lp632
g600
ag627
aaa(lp633
I871
aI875
ag627
a(lp634
g591
ag627
aaa(lp635
I880
aI885
aS'gamble'
p636
a(lp637
g627
ag636
aaa(lp638
I880
aI885
ag636
a(lp639
g618
ag636
aaa(lp640
I880
aI885
ag636
a(lp641
g609
ag636
aaa(lp642
I880
aI885
ag636
a(lp643
g600
ag636
aaa(lp644
I887
aI893
aS'request'
p645
a(lp646
g636
ag645
aaa(lp647
I887
aI893
ag645
a(lp648
g627
ag645
aaa(lp649
I887
aI893
ag645
a(lp650
g618
ag645
aaa(lp651
I887
aI893
ag645
a(lp652
g609
ag645
aaa(lp653
I899
aI904
aS'garden'
p654
a(lp655
g645
ag654
aaa(lp656
I899
aI904
ag654
a(lp657
g636
ag654
aaa(lp658
I899
aI904
ag654
a(lp659
g627
ag654
aaa(lp660
I899
aI904
ag654
a(lp661
g618
ag654
aaa(lp662
I906
aI909
aS'wing'
p663
a(lp664
g654
ag663
aaa(lp665
I906
aI909
ag663
a(lp666
g645
ag663
aaa(lp667
I906
aI909
ag663
a(lp668
g636
ag663
aaa(lp669
I906
aI909
ag663
a(lp670
g627
ag663
aaa(lp671
I922
aI928
aS'closest'
p672
a(lp673
g663
ag672
aaa(lp674
I922
aI928
ag672
a(lp675
g654
ag672
aaa(lp676
I922
aI928
ag672
a(lp677
g645
ag672
aaa(lp678
I922
aI928
ag672
a(lp679
g636
ag672
aaa(lp680
I937
aI942
aS'casino'
p681
a(lp682
g672
ag681
aaa(lp683
I937
aI942
ag681
a(lp684
g663
ag681
aaa(lp685
I937
aI942
ag681
a(lp686
g654
ag681
aaa(lp687
I937
aI942
ag681
a(lp688
g645
ag681
aaa(lp689
I957
aI963
aS'service'
p690
a(lp691
g681
ag690
aaa(lp692
I957
aI963
ag690
a(lp693
g672
ag690
aaa(lp694
I957
aI963
ag690
a(lp695
g663
ag690
aaa(lp696
I957
aI963
ag690
a(lp697
g654
ag690
aaa(lp698
I965
aI973
aS'elevators'
p699
a(lp700
g690
ag699
aaa(lp701
I965
aI973
ag699
a(lp702
g681
ag699
aaa(lp703
I965
aI973
ag699
a(lp704
g672
ag699
aaa(lp705
I965
aI973
ag699
a(lp706
g663
ag699
aaa(lp707
I976
aI978
aS'ask'
p708
a(lp709
g699
ag708
aaa(lp710
I976
aI978
ag708
a(lp711
g690
ag708
aaa(lp712
I976
aI978
ag708
a(lp713
g681
ag708
aaa(lp714
I976
aI978
ag708
a(lp715
g672
ag708
aaa(lp716
I1013
aI1015
aS'far'
p717
a(lp718
g708
ag717
aaa(lp719
I1013
aI1015
ag717
a(lp720
g699
ag717
aaa(lp721
I1013
aI1015
ag717
a(lp722
g690
ag717
aaa(lp723
I1013
aI1015
ag717
a(lp724
g681
ag717
aaa(lp725
I1017
aI1020
aS'walk'
p726
a(lp727
g717
ag726
aaa(lp728
I1017
aI1020
ag726
a(lp729
g708
ag726
aaa(lp730
I1017
aI1020
ag726
a(lp731
g699
ag726
aaa(lp732
I1017
aI1020
ag726
a(lp733
g690
ag726
aaa(lp734
I1038
aI1042
aS'found'
p735
a(lp736
g726
ag735
aaa(lp737
I1038
aI1042
ag735
a(lp738
g717
ag735
aaa(lp739
I1038
aI1042
ag735
a(lp740
g708
ag735
aaa(lp741
I1038
aI1042
ag735
a(lp742
g699
ag735
aaa(lp743
I1048
aI1052
aS'staff'
p744
a(lp745
g735
ag744
aaa(lp746
I1048
aI1052
ag744
a(lp747
g726
ag744
aaa(lp748
I1048
aI1052
ag744
a(lp749
g717
ag744
aaa(lp750
I1048
aI1052
ag744
a(lp751
g708
ag744
aaa(lp752
I1059
aI1066
aS'friendly'
p753
a(lp754
g744
ag753
aaa(lp755
I1059
aI1066
ag753
a(lp756
g735
ag753
aaa(lp757
I1059
aI1066
ag753
a(lp758
g726
ag753
aaa(lp759
I1059
aI1066
ag753
a(lp760
g717
ag753
aaa(lp761
I1082
aI1088
aS'willing'
p762
a(lp763
g753
ag762
aaa(lp764
I1082
aI1088
ag762
a(lp765
g744
ag762
aaa(lp766
I1082
aI1088
ag762
a(lp767
g735
ag762
aaa(lp768
I1082
aI1088
ag762
a(lp769
g726
ag762
aaa(lp770
I1093
aI1098
aS'answer'
p771
a(lp772
g762
ag771
aaa(lp773
I1093
aI1098
ag771
a(lp774
g753
ag771
aaa(lp775
I1093
aI1098
ag771
a(lp776
g744
ag771
aaa(lp777
I1093
aI1098
ag771
a(lp778
g735
ag771
aaa(lp779
I1100
aI1108
aS'questions'
p780
a(lp781
g771
ag780
aaa(lp782
I1100
aI1108
ag780
a(lp783
g762
ag780
aaa(lp784
I1100
aI1108
ag780
a(lp785
g753
ag780
aaa(lp786
I1100
aI1108
ag780
a(lp787
g744
ag780
aaa(lp788
I1114
aI1117
aS'talk'
p789
a(lp790
g780
ag789
aaa(lp791
I1114
aI1117
ag789
a(lp792
g771
ag789
aaa(lp793
I1114
aI1117
ag789
a(lp794
g762
ag789
aaa(lp795
I1114
aI1117
ag789
a(lp796
g753
ag789
aaa(lp797
I1124
aI1125
aS'us'
p798
a(lp799
g789
ag798
aaa(lp800
I1124
aI1125
ag798
a(lp801
g780
ag798
aaa(lp802
I1124
aI1125
ag798
a(lp803
g771
ag798
aaa(lp804
I1124
aI1125
ag798
a(lp805
g762
ag798
aaa(lp806
I1137
aI1143
aS'history'
p807
a(lp808
g798
ag807
aaa(lp809
I1137
aI1143
ag807
a(lp810
g789
ag807
aaa(lp811
I1137
aI1143
ag807
a(lp812
g780
ag807
aaa(lp813
I1137
aI1143
ag807
a(lp814
g771
ag807
aaa(lp815
I1152
aI1157
aS'hotels'
p816
a(lp817
g807
ag816
aaa(lp818
I1152
aI1157
ag816
a(lp819
g798
ag816
aaa(lp820
I1152
aI1157
ag816
a(lp821
g789
ag816
aaa(lp822
I1152
aI1157
ag816
a(lp823
g780
ag816
aaa(lp824
I1160
aI1164
aS'since'
p825
a(lp826
g816
ag825
aaa(lp827
I1160
aI1164
ag825
a(lp828
g807
ag825
aaa(lp829
I1160
aI1164
ag825
a(lp830
g798
ag825
aaa(lp831
I1160
aI1164
ag825
a(lp832
g789
ag825
aaa(lp833
I1169
aI1172
aS'like'
p834
a(lp835
g825
ag834
aaa(lp836
I1169
aI1172
ag834
a(lp837
g816
ag834
aaa(lp838
I1169
aI1172
ag834
a(lp839
g807
ag834
aaa(lp840
I1169
aI1172
ag834
a(lp841
g798
ag834
aaa(lp842
I1177
aI1181
aS'sleep'
p843
a(lp844
g834
ag843
aaa(lp845
I1177
aI1181
ag843
a(lp846
g825
ag843
aaa(lp847
I1177
aI1181
ag843
a(lp848
g816
ag843
aaa(lp849
I1177
aI1181
ag843
a(lp850
g807
ag843
aaa(lp851
I1199
aI1202
aS'away'
p852
a(lp853
g843
ag852
aaa(lp854
I1199
aI1202
ag852
a(lp855
g834
ag852
aaa(lp856
I1199
aI1202
ag852
a(lp857
g825
ag852
aaa(lp858
I1199
aI1202
ag852
a(lp859
g816
ag852
aaa(lp860
I1207
aI1213
aS'usually'
p861
a(lp862
g852
ag861
aaa(lp863
I1207
aI1213
ag861
a(lp864
g843
ag861
aaa(lp865
I1207
aI1213
ag861
a(lp866
g834
ag861
aaa(lp867
I1207
aI1213
ag861
a(lp868
g825
ag861
aaa(lp869
I1231
aI1234
aS'room'
p870
a(lp871
g861
ag870
aaa(lp872
I1231
aI1234
ag870
a(lp873
g852
ag870
aaa(lp874
I1231
aI1234
ag870
a(lp875
g843
ag870
aaa(lp876
I1231
aI1234
ag870
a(lp877
g834
ag870
aaa(lp878
I1236
aI1242
aS'cleaned'
p879
a(lp880
g870
ag879
aaa(lp881
I1236
aI1242
ag879
a(lp882
g861
ag879
aaa(lp883
I1236
aI1242
ag879
a(lp884
g852
ag879
aaa(lp885
I1236
aI1242
ag879
a(lp886
g843
ag879
aaa(lp887
I1244
aI1248
aS'every'
p888
a(lp889
g879
ag888
aaa(lp890
I1244
aI1248
ag888
a(lp891
g870
ag888
aaa(lp892
I1244
aI1248
ag888
a(lp893
g861
ag888
aaa(lp894
I1244
aI1248
ag888
a(lp895
g852
ag888
aaa(lp896
I1250
aI1252
aS'day'
p897
a(lp898
g888
ag897
aaa(lp899
I1250
aI1252
ag897
a(lp900
g879
ag897
aaa(lp901
I1250
aI1252
ag897
a(lp902
g870
ag897
aaa(lp903
I1250
aI1252
ag897
a(lp904
g861
ag897
aaa(lp905
I1282
aI1287
aS'enough'
p906
a(lp907
g897
ag906
aaa(lp908
I1282
aI1287
ag906
a(lp909
g888
ag906
aaa(lp910
I1282
aI1287
ag906
a(lp911
g879
ag906
aaa(lp912
I1282
aI1287
ag906
a(lp913
g870
ag906
aaa(lp914
I1297
aI1299
aS'ask'
p915
a(lp916
g906
ag915
aaa(lp917
I1297
aI1299
ag915
a(lp918
g897
ag915
aaa(lp919
I1297
aI1299
ag915
a(lp920
g888
ag915
aaa(lp921
I1297
aI1299
ag915
a(lp922
g879
ag915
aaa(lp923
I1305
aI1309
aS'extra'
p924
a(lp925
g915
ag924
aaa(lp926
I1305
aI1309
ag924
a(lp927
g906
ag924
aaa(lp928
I1305
aI1309
ag924
a(lp929
g897
ag924
aaa(lp930
I1305
aI1309
ag924
a(lp931
g888
ag924
aaa(lp932
I1311
aI1316
aS'towels'
p933
a(lp934
g924
ag933
aaa(lp935
I1311
aI1316
ag933
a(lp936
g915
ag933
aaa(lp937
I1311
aI1316
ag933
a(lp938
g906
ag933
aaa(lp939
I1311
aI1316
ag933
a(lp940
g897
ag933
aaa(lp941
I1322
aI1327
aS'coffee'
p942
a(lp943
g933
ag942
aaa(lp944
I1322
aI1327
ag942
a(lp945
g924
ag942
aaa(lp946
I1322
aI1327
ag942
a(lp947
g915
ag942
aaa(lp948
I1322
aI1327
ag942
a(lp949
g906
ag942
aaa(lp950
I1334
aI1338
aS'floor'
p951
a(lp952
g942
ag951
aaa(lp953
I1334
aI1338
ag951
a(lp954
g933
ag951
aaa(lp955
I1334
aI1338
ag951
a(lp956
g924
ag951
aaa(lp957
I1334
aI1338
ag951
a(lp958
g915
ag951
aaa(lp959
I1340
aI1343
aS'maid'
p960
a(lp961
g951
ag960
aaa(lp962
I1340
aI1343
ag960
a(lp963
g942
ag960
aaa(lp964
I1340
aI1343
ag960
a(lp965
g933
ag960
aaa(lp966
I1340
aI1343
ag960
a(lp967
g924
ag960
aaa(lp968
I1348
aI1354
aS'usually'
p969
a(lp970
g960
ag969
aaa(lp971
I1348
aI1354
ag969
a(lp972
g951
ag969
aaa(lp973
I1348
aI1354
ag969
a(lp974
g942
ag969
aaa(lp975
I1348
aI1354
ag969
a(lp976
g933
ag969
aaa(lp977
I1356
aI1362
aS'waiting'
p978
a(lp979
g969
ag978
aaa(lp980
I1356
aI1362
ag978
a(lp981
g960
ag978
aaa(lp982
I1356
aI1362
ag978
a(lp983
g951
ag978
aaa(lp984
I1356
aI1362
ag978
a(lp985
g942
ag978
aaa(lp986
I1371
aI1374
aS'hall'
p987
a(lp988
g978
ag987
aaa(lp989
I1371
aI1374
ag987
a(lp990
g969
ag987
aaa(lp991
I1371
aI1374
ag987
a(lp992
g960
ag987
aaa(lp993
I1371
aI1374
ag987
a(lp994
g951
ag987
aaa(lp995
I1382
aI1386
aS'close'
p996
a(lp997
g987
ag996
aaa(lp998
I1382
aI1386
ag996
a(lp999
g978
ag996
aaa(lp1000
I1382
aI1386
ag996
a(lp1001
g969
ag996
aaa(lp1002
I1382
aI1386
ag996
a(lp1003
g960
ag996
aaa(lp1004
I1399
aI1403
aS'leave'
p1005
a(lp1006
g996
ag1005
aaa(lp1007
I1399
aI1403
ag1005
a(lp1008
g987
ag1005
aaa(lp1009
I1399
aI1403
ag1005
a(lp1010
g978
ag1005
aaa(lp1011
I1399
aI1403
ag1005
a(lp1012
g969
ag1005
aaa(lp1013
I1409
aI1412
aS'room'
p1014
a(lp1015
g1005
ag1014
aaa(lp1016
I1409
aI1412
ag1014
a(lp1017
g996
ag1014
aaa(lp1018
I1409
aI1412
ag1014
a(lp1019
g987
ag1014
aaa(lp1020
I1409
aI1412
ag1014
a(lp1021
g978
ag1014
aaa(lp1022
I1420
aI1424
aS'lunch'
p1023
a(lp1024
g1014
ag1023
aaa(lp1025
I1420
aI1424
ag1023
a(lp1026
g1005
ag1023
aaa(lp1027
I1420
aI1424
ag1023
a(lp1028
g996
ag1023
aaa(lp1029
I1420
aI1424
ag1023
a(lp1030
g987
ag1023
aaa(lp1031
I1430
aI1435
aS'always'
p1032
a(lp1033
g1023
ag1032
aaa(lp1034
I1430
aI1435
ag1032
a(lp1035
g1014
ag1032
aaa(lp1036
I1430
aI1435
ag1032
a(lp1037
g1005
ag1032
aaa(lp1038
I1430
aI1435
ag1032
a(lp1039
g996
ag1032
aaa(lp1040
I1437
aI1440
aS'asks'
p1041
a(lp1042
g1032
ag1041
aaa(lp1043
I1437
aI1440
ag1041
a(lp1044
g1023
ag1041
aaa(lp1045
I1437
aI1440
ag1041
a(lp1046
g1014
ag1041
aaa(lp1047
I1437
aI1440
ag1041
a(lp1048
g1005
ag1041
aaa(lp1049
I1448
aI1451
aS'need'
p1050
a(lp1051
g1041
ag1050
aaa(lp1052
I1448
aI1451
ag1050
a(lp1053
g1032
ag1050
aaa(lp1054
I1448
aI1451
ag1050
a(lp1055
g1023
ag1050
aaa(lp1056
I1448
aI1451
ag1050
a(lp1057
g1014
ag1050
aaa(lp1058
I1453
aI1460
aS'anything'
p1059
a(lp1060
g1050
ag1059
aaa(lp1061
I1453
aI1460
ag1059
a(lp1062
g1041
ag1059
aaa(lp1063
I1453
aI1460
ag1059
a(lp1064
g1032
ag1059
aaa(lp1065
I1453
aI1460
ag1059
a(lp1066
g1023
ag1059
aaa(lp1067
I1473
aI1483
aS'destination'
p1068
a(lp1069
g1059
ag1068
aaa(lp1070
I1473
aI1483
ag1068
a(lp1071
g1050
ag1068
aaa(lp1072
I1473
aI1483
ag1068
a(lp1073
g1041
ag1068
aaa(lp1074
I1473
aI1483
ag1068
a(lp1075
g1032
ag1068
aaa(lp1076
I1485
aI1489
aS'hotel'
p1077
a(lp1078
g1068
ag1077
aaa(lp1079
I1485
aI1489
ag1077
a(lp1080
g1059
ag1077
aaa(lp1081
I1485
aI1489
ag1077
a(lp1082
g1050
ag1077
aaa(lp1083
I1485
aI1489
ag1077
a(lp1084
g1041
ag1077
aaa(lp1085
I1499
aI1502
aS'need'
p1086
a(lp1087
g1077
ag1086
aaa(lp1088
I1499
aI1502
ag1086
a(lp1089
g1068
ag1086
aaa(lp1090
I1499
aI1502
ag1086
a(lp1091
g1059
ag1086
aaa(lp1092
I1499
aI1502
ag1086
a(lp1093
g1050
ag1086
aaa(lp1094
I1507
aI1510
aS'take'
p1095
a(lp1096
g1086
ag1095
aaa(lp1097
I1507
aI1510
ag1095
a(lp1098
g1077
ag1095
aaa(lp1099
I1507
aI1510
ag1095
a(lp1100
g1068
ag1095
aaa(lp1101
I1507
aI1510
ag1095
a(lp1102
g1059
ag1095
aaa(lp1103
I1512
aI1515
aS'time'
p1104
a(lp1105
g1095
ag1104
aaa(lp1106
I1512
aI1515
ag1104
a(lp1107
g1086
ag1104
aaa(lp1108
I1512
aI1515
ag1104
a(lp1109
g1077
ag1104
aaa(lp1110
I1512
aI1515
ag1104
a(lp1111
g1068
ag1104
aaa(lp1112
I1521
aI1527
aS'explore'
p1113
a(lp1114
g1104
ag1113
aaa(lp1115
I1521
aI1527
ag1113
a(lp1116
g1095
ag1113
aaa(lp1117
I1521
aI1527
ag1113
a(lp1118
g1086
ag1113
aaa(lp1119
I1521
aI1527
ag1113
a(lp1120
g1077
ag1113
aaa(lp1121
I1533
aI1537
aS'hotel'
p1122
a(lp1123
g1113
ag1122
aaa(lp1124
I1533
aI1537
ag1122
a(lp1125
g1104
ag1122
aaa(lp1126
I1533
aI1537
ag1122
a(lp1127
g1095
ag1122
aaa(lp1128
I1533
aI1537
ag1122
a(lp1129
g1086
ag1122
aaa(lp1130
I1540
aI1546
aS'grounds'
p1131
a(lp1132
g1122
ag1131
aaa(lp1133
I1540
aI1546
ag1131
a(lp1134
g1113
ag1131
aaa(lp1135
I1540
aI1546
ag1131
a(lp1136
g1104
ag1131
aaa(lp1137
I1540
aI1546
ag1131
a(lp1138
g1095
ag1131
aaa(lp1139
I1553
aI1556
aS'town'
p1140
a(lp1141
g1131
ag1140
aaa(lp1142
I1553
aI1556
ag1140
a(lp1143
g1122
ag1140
aaa(lp1144
I1553
aI1556
ag1140
a(lp1145
g1113
ag1140
aaa(lp1146
I1553
aI1556
ag1140
a(lp1147
g1104
ag1140
aaa(lp1148
I1562
aI1566
aS'never'
p1149
a(lp1150
g1140
ag1149
aaa(lp1151
I1562
aI1566
ag1149
a(lp1152
g1131
ag1149
aaa(lp1153
I1562
aI1566
ag1149
a(lp1154
g1122
ag1149
aaa(lp1155
I1562
aI1566
ag1149
a(lp1156
g1113
ag1149
aaa(lp1157
I1568
aI1571
aS'stay'
p1158
a(lp1159
g1149
ag1158
aaa(lp1160
I1568
aI1571
ag1158
a(lp1161
g1140
ag1158
aaa(lp1162
I1568
aI1571
ag1158
a(lp1163
g1131
ag1158
aaa(lp1164
I1568
aI1571
ag1158
a(lp1165
g1122
ag1158
aaa(lp1166
I1573
aI1576
aS'less'
p1167
a(lp1168
g1158
ag1167
aaa(lp1169
I1573
aI1576
ag1167
a(lp1170
g1149
ag1167
aaa(lp1171
I1573
aI1576
ag1167
a(lp1172
g1140
ag1167
aaa(lp1173
I1573
aI1576
ag1167
a(lp1174
g1131
ag1167
aaa(lp1175
I1583
aI1583
ag87
a(lp1176
g1167
ag87
aaa(lp1177
I1583
aI1583
ag87
a(lp1178
g1158
ag87
aaa(lp1179
I1583
aI1583
ag87
a(lp1180
g1149
ag87
aaa(lp1181
I1583
aI1583
ag87
a(lp1182
g1140
ag87
aaa(lp1183
I1585
aI1588
aS'days'
p1184
a(lp1185
g87
ag1184
aaa(lp1186
I1585
aI1588
ag1184
a(lp1187
g1167
ag1184
aaa(lp1188
I1585
aI1588
ag1184
a(lp1189
g1158
ag1184
aaa(lp1190
I1585
aI1588
ag1184
a(lp1191
g1149
ag1184
aaa(lp1192
I1599
aI1601
aS'day'
p1193
a(lp1194
g1184
ag1193
aaa(lp1195
I1599
aI1601
ag1193
a(lp1196
g87
ag1193
aaa(lp1197
I1599
aI1601
ag1193
a(lp1198
g1167
ag1193
aaa(lp1199
I1599
aI1601
ag1193
a(lp1200
g1158
ag1193
aaa(lp1201
I1607
aI1609
aS'age'
p1202
a(lp1203
g1193
ag1202
aaa(lp1204
I1607
aI1609
ag1202
a(lp1205
g1184
ag1202
aaa(lp1206
I1607
aI1609
ag1202
a(lp1207
g87
ag1202
aaa(lp1208
I1607
aI1609
ag1202
a(lp1209
g1167
ag1202
aaa(lp1210
I1611
aI1616
aS'people'
p1211
a(lp1212
g1202
ag1211
aaa(lp1213
I1611
aI1616
ag1211
a(lp1214
g1193
ag1211
aaa(lp1215
I1611
aI1616
ag1211
a(lp1216
g1184
ag1211
aaa(lp1217
I1611
aI1616
ag1211
a(lp1218
g87
ag1211
aaa(lp1219
I1618
aI1622
aS'dont'
p1220
a(lp1221
g1211
ag1220
aaa(lp1222
I1618
aI1622
ag1220
a(lp1223
g1202
ag1220
aaa(lp1224
I1618
aI1622
ag1220
a(lp1225
g1193
ag1220
aaa(lp1226
I1618
aI1622
ag1220
a(lp1227
g1184
ag1220
aaa(lp1228
I1624
aI1627
aS'know'
p1229
a(lp1230
g1220
ag1229
aaa(lp1231
I1624
aI1627
ag1229
a(lp1232
g1211
ag1229
aaa(lp1233
I1624
aI1627
ag1229
a(lp1234
g1202
ag1229
aaa(lp1235
I1624
aI1627
ag1229
a(lp1236
g1193
ag1229
aaa(lp1237
I1636
aI1639
aS'slow'
p1238
a(lp1239
g1229
ag1238
aaa(lp1240
I1636
aI1639
ag1238
a(lp1241
g1220
ag1238
aaa(lp1242
I1636
aI1639
ag1238
a(lp1243
g1211
ag1238
aaa(lp1244
I1636
aI1639
ag1238
a(lp1245
g1202
ag1238
aaa(lp1246
I1650
aI1653
aS'take'
p1247
a(lp1248
g1238
ag1247
aaa(lp1249
I1650
aI1653
ag1247
a(lp1250
g1229
ag1247
aaa(lp1251
I1650
aI1653
ag1247
a(lp1252
g1220
ag1247
aaa(lp1253
I1650
aI1653
ag1247
a(lp1254
g1211
ag1247
aaa(lp1255
I1662
aI1671
aS'atmosphere'
p1256
a(lp1257
g1247
ag1256
aaa(lp1258
I1662
aI1671
ag1256
a(lp1259
g1238
ag1256
aaa(lp1260
I1662
aI1671
ag1256
a(lp1261
g1229
ag1256
aaa(lp1262
I1662
aI1671
ag1256
a(lp1263
g1220
ag1256
aaa(lp1264
I1677
aI1683
aS'history'
p1265
a(lp1266
g1256
ag1265
aaa(lp1267
I1677
aI1683
ag1265
a(lp1268
g1247
ag1265
aaa(lp1269
I1677
aI1683
ag1265
a(lp1270
g1238
ag1265
aaa(lp1271
I1677
aI1683
ag1265
a(lp1272
g1229
ag1265
aaa(lp1273
I1690
aI1694
aS'grand'
p1274
a(lp1275
g1265
ag1274
aaa(lp1276
I1690
aI1694
ag1274
a(lp1277
g1256
ag1274
aaa(lp1278
I1690
aI1694
ag1274
a(lp1279
g1247
ag1274
aaa(lp1280
I1690
aI1694
ag1274
a(lp1281
g1238
ag1274
aaa(lp1282
I1696
aI1700
aS'hotel'
p1283
a(lp1284
g1274
ag1283
aaa(lp1285
I1696
aI1700
ag1283
a(lp1286
g1265
ag1283
aaa(lp1287
I1696
aI1700
ag1283
a(lp1288
g1256
ag1283
aaa(lp1289
I1696
aI1700
ag1283
a(lp1290
g1247
ag1283
aaa(lp1291
I1711
aI1714
aS'past'
p1292
a(lp1293
g1283
ag1292
aaa(lp1294
I1711
aI1714
ag1292
a(lp1295
g1274
ag1292
aaa(lp1296
I1711
aI1714
ag1292
a(lp1297
g1265
ag1292
aaa(lp1298
I1711
aI1714
ag1292
a(lp1299
g1256
ag1292
aaa(lp1300
I1720
aI1726
aS'husband'
p1301
a(lp1302
g1292
ag1301
aaa(lp1303
I1720
aI1726
ag1301
a(lp1304
g1283
ag1301
aaa(lp1305
I1720
aI1726
ag1301
a(lp1306
g1274
ag1301
aaa(lp1307
I1720
aI1726
ag1301
a(lp1308
g1265
ag1301
aaa(lp1309
I1745
aI1748
aS'40s'
p1310
a(lp1311
g1301
ag1310
aaa(lp1312
I1745
aI1748
ag1310
a(lp1313
g1292
ag1310
aaa(lp1314
I1745
aI1748
ag1310
a(lp1315
g1283
ag1310
aaa(lp1316
I1745
aI1748
ag1310
a(lp1317
g1274
ag1310
aaa(lp1318
I1759
aI1762
aS'work'
p1319
a(lp1320
g1310
ag1319
aaa(lp1321
I1759
aI1762
ag1319
a(lp1322
g1301
ag1319
aaa(lp1323
I1759
aI1762
ag1319
a(lp1324
g1292
ag1319
aaa(lp1325
I1759
aI1762
ag1319
a(lp1326
g1283
ag1319
aaa(lp1327
I1768
aI1771
aS'like'
p1328
a(lp1329
g1319
ag1328
aaa(lp1330
I1768
aI1771
ag1328
a(lp1331
g1310
ag1328
aaa(lp1332
I1768
aI1771
ag1328
a(lp1333
g1301
ag1328
aaa(lp1334
I1768
aI1771
ag1328
a(lp1335
g1292
ag1328
aaa(lp1336
I1776
aI1780
aS'relax'
p1337
a(lp1338
g1328
ag1337
aaa(lp1339
I1776
aI1780
ag1337
a(lp1340
g1319
ag1337
aaa(lp1341
I1776
aI1780
ag1337
a(lp1342
g1310
ag1337
aaa(lp1343
I1776
aI1780
ag1337
a(lp1344
g1301
ag1337
aaa(lp1345
I1790
aI1791
aS'go'
p1346
a(lp1347
g1337
ag1346
aaa(lp1348
I1790
aI1791
ag1346
a(lp1349
g1328
ag1346
aaa(lp1350
I1790
aI1791
ag1346
a(lp1351
g1319
ag1346
aaa(lp1352
I1790
aI1791
ag1346
a(lp1353
g1310
ag1346
aaa(lp1354
I1793
aI1796
aS'away'
p1355
a(lp1356
g1346
ag1355
aaa(lp1357
I1793
aI1796
ag1355
a(lp1358
g1337
ag1355
aaa(lp1359
I1793
aI1796
ag1355
a(lp1360
g1328
ag1355
aaa(lp1361
I1793
aI1796
ag1355
a(lp1362
g1319
ag1355
aaa(lp1363
I1799
aI1802
aS'take'
p1364
a(lp1365
g1355
ag1364
aaa(lp1366
I1799
aI1802
ag1364
a(lp1367
g1346
ag1364
aaa(lp1368
I1799
aI1802
ag1364
a(lp1369
g1337
ag1364
aaa(lp1370
I1799
aI1802
ag1364
a(lp1371
g1328
ag1364
aaa(lp1372
I1804
aI1807
aS'time'
p1373
a(lp1374
g1364
ag1373
aaa(lp1375
I1804
aI1807
ag1373
a(lp1376
g1355
ag1373
aaa(lp1377
I1804
aI1807
ag1373
a(lp1378
g1346
ag1373
aaa(lp1379
I1804
aI1807
ag1373
a(lp1380
g1337
ag1373
aaa(lp1381
I1812
aI1814
aS'sit'
p1382
a(lp1383
g1373
ag1382
aaa(lp1384
I1812
aI1814
ag1382
a(lp1385
g1364
ag1382
aaa(lp1386
I1812
aI1814
ag1382
a(lp1387
g1355
ag1382
aaa(lp1388
I1812
aI1814
ag1382
a(lp1389
g1346
ag1382
aaa(lp1390
I1823
aI1829
aS'veranda'
p1391
a(lp1392
g1382
ag1391
aaa(lp1393
I1823
aI1829
ag1391
a(lp1394
g1373
ag1391
aaa(lp1395
I1823
aI1829
ag1391
a(lp1396
g1364
ag1391
aaa(lp1397
I1823
aI1829
ag1391
a(lp1398
g1355
ag1391
aaa(lp1399
I1834
aI1836
aS'one'
p1400
a(lp1401
g1391
ag1400
aaa(lp1402
I1834
aI1836
ag1400
a(lp1403
g1382
ag1400
aaa(lp1404
I1834
aI1836
ag1400
a(lp1405
g1373
ag1400
aaa(lp1406
I1834
aI1836
ag1400
a(lp1407
g1364
ag1400
aaa(lp1408
I1845
aI1848
aS'many'
p1409
a(lp1410
g1400
ag1409
aaa(lp1411
I1845
aI1848
ag1409
a(lp1412
g1391
ag1409
aaa(lp1413
I1845
aI1848
ag1409
a(lp1414
g1382
ag1409
aaa(lp1415
I1845
aI1848
ag1409
a(lp1416
g1373
ag1409
aaa(lp1417
I1850
aI1856
aS'rocking'
p1418
a(lp1419
g1409
ag1418
aaa(lp1420
I1850
aI1856
ag1418
a(lp1421
g1400
ag1418
aaa(lp1422
I1850
aI1856
ag1418
a(lp1423
g1391
ag1418
aaa(lp1424
I1850
aI1856
ag1418
a(lp1425
g1382
ag1418
aaa(lp1426
I1858
aI1863
aS'chairs'
p1427
a(lp1428
g1418
ag1427
aaa(lp1429
I1858
aI1863
ag1427
a(lp1430
g1409
ag1427
aaa(lp1431
I1858
aI1863
ag1427
a(lp1432
g1400
ag1427
aaa(lp1433
I1858
aI1863
ag1427
a(lp1434
g1391
ag1427
aaa(lp1435
I1866
aI1869
aS'walk'
p1436
a(lp1437
g1427
ag1436
aaa(lp1438
I1866
aI1869
ag1436
a(lp1439
g1418
ag1436
aaa(lp1440
I1866
aI1869
ag1436
a(lp1441
g1409
ag1436
aaa(lp1442
I1866
aI1869
ag1436
a(lp1443
g1400
ag1436
aaa(lp1444
I1880
aI1888
aS'promenade'
p1445
a(lp1446
g1436
ag1445
aaa(lp1447
I1880
aI1888
ag1445
a(lp1448
g1427
ag1445
aaa(lp1449
I1880
aI1888
ag1445
a(lp1450
g1418
ag1445
aaa(lp1451
I1880
aI1888
ag1445
a(lp1452
g1409
ag1445
aaa(lp1453
I1894
aI1900
aS'explore'
p1454
a(lp1455
g1445
ag1454
aaa(lp1456
I1894
aI1900
ag1454
a(lp1457
g1436
ag1454
aaa(lp1458
I1894
aI1900
ag1454
a(lp1459
g1427
ag1454
aaa(lp1460
I1894
aI1900
ag1454
a(lp1461
g1418
ag1454
aaa(lp1462
I1906
aI1910
aS'shops'
p1463
a(lp1464
g1454
ag1463
aaa(lp1465
I1906
aI1910
ag1463
a(lp1466
g1445
ag1463
aaa(lp1467
I1906
aI1910
ag1463
a(lp1468
g1436
ag1463
aaa(lp1469
I1906
aI1910
ag1463
a(lp1470
g1427
ag1463
aaa(lp1471
I1913
aI1914
aS'go'
p1472
a(lp1473
g1463
ag1472
aaa(lp1474
I1913
aI1914
ag1472
a(lp1475
g1454
ag1472
aaa(lp1476
I1913
aI1914
ag1472
a(lp1477
g1445
ag1472
aaa(lp1478
I1913
aI1914
ag1472
a(lp1479
g1436
ag1472
aaa(lp1480
I1923
aI1927
aS'lobby'
p1481
a(lp1482
g1472
ag1481
aaa(lp1483
I1923
aI1927
ag1481
a(lp1484
g1463
ag1481
aaa(lp1485
I1923
aI1927
ag1481
a(lp1486
g1454
ag1481
aaa(lp1487
I1923
aI1927
ag1481
a(lp1488
g1445
ag1481
aaa(lp1489
I1933
aI1938
aS'drinks'
p1490
a(lp1491
g1481
ag1490
aaa(lp1492
I1933
aI1938
ag1490
a(lp1493
g1472
ag1490
aaa(lp1494
I1933
aI1938
ag1490
a(lp1495
g1463
ag1490
aaa(lp1496
I1933
aI1938
ag1490
a(lp1497
g1454
ag1490
aaa(lp1498
I1947
aI1950
aS'late'
p1499
a(lp1500
g1490
ag1499
aaa(lp1501
I1947
aI1950
ag1499
a(lp1502
g1481
ag1499
aaa(lp1503
I1947
aI1950
ag1499
a(lp1504
g1472
ag1499
aaa(lp1505
I1947
aI1950
ag1499
a(lp1506
g1463
ag1499
aaa(lp1507
I1952
aI1960
aS'afternoon'
p1508
a(lp1509
g1499
ag1508
aaa(lp1510
I1952
aI1960
ag1508
a(lp1511
g1490
ag1508
aaa(lp1512
I1952
aI1960
ag1508
a(lp1513
g1481
ag1508
aaa(lp1514
I1952
aI1960
ag1508
a(lp1515
g1472
ag1508
aaa(lp1516
I1974
aI1978
aS'means'
p1517
a(lp1518
g1508
ag1517
aaa(lp1519
I1974
aI1978
ag1517
a(lp1520
g1499
ag1517
aaa(lp1521
I1974
aI1978
ag1517
a(lp1522
g1490
ag1517
aaa(lp1523
I1974
aI1978
ag1517
a(lp1524
g1481
ag1517
aaa(lp1525
I1981
aI1983
aS'ask'
p1526
a(lp1527
g1517
ag1526
aaa(lp1528
I1981
aI1983
ag1526
a(lp1529
g1508
ag1526
aaa(lp1530
I1981
aI1983
ag1526
a(lp1531
g1499
ag1526
aaa(lp1532
I1981
aI1983
ag1526
a(lp1533
g1490
ag1526
aaa(lp1534
I1985
aI1993
aS'questions'
p1535
a(lp1536
g1526
ag1535
aaa(lp1537
I1985
aI1993
ag1535
a(lp1538
g1517
ag1535
aaa(lp1539
I1985
aI1993
ag1535
a(lp1540
g1508
ag1535
aaa(lp1541
I1985
aI1993
ag1535
a(lp1542
g1499
ag1535
aaa(lp1543
I2000
aI2004
aS'might'
p1544
a(lp1545
g1535
ag1544
aaa(lp1546
I2000
aI2004
ag1544
a(lp1547
g1526
ag1544
aaa(lp1548
I2000
aI2004
ag1544
a(lp1549
g1517
ag1544
aaa(lp1550
I2000
aI2004
ag1544
a(lp1551
g1508
ag1544
aaa(lp1552
I2009
aI2016
aS'suprized'
p1553
a(lp1554
g1544
ag1553
aaa(lp1555
I2009
aI2016
ag1553
a(lp1556
g1535
ag1553
aaa(lp1557
I2009
aI2016
ag1553
a(lp1558
g1526
ag1553
aaa(lp1559
I2009
aI2016
ag1553
a(lp1560
g1517
ag1553
aaa(lp1561
I2025
aI2031
aS'history'
p1562
a(lp1563
g1553
ag1562
aaa(lp1564
I2025
aI2031
ag1562
a(lp1565
g1544
ag1562
aaa(lp1566
I2025
aI2031
ag1562
a(lp1567
g1535
ag1562
aaa(lp1568
I2025
aI2031
ag1562
a(lp1569
g1526
ag1562
aaa(lp1570
I2033
aI2038
aS'lesson'
p1571
a(lp1572
g1562
ag1571
aaa(lp1573
I2033
aI2038
ag1571
a(lp1574
g1553
ag1571
aaa(lp1575
I2033
aI2038
ag1571
a(lp1576
g1544
ag1571
aaa(lp1577
I2033
aI2038
ag1571
a(lp1578
g1535
ag1571
aaa(lp1579
I2044
aI2046
aS'get'
p1580
a(lp1581
g1571
ag1580
aaa(lp1582
I2044
aI2046
ag1580
a(lp1583
g1562
ag1580
aaa(lp1584
I2044
aI2046
ag1580
a(lp1585
g1553
ag1580
aaa(lp1586
I2044
aI2046
ag1580
a(lp1587
g1544
ag1580
aaa(lp1588
I2049
aI2055
aS'another'
p1589
a(lp1590
g1580
ag1589
aaa(lp1591
I2049
aI2055
ag1589
a(lp1592
g1571
ag1589
aaa(lp1593
I2049
aI2055
ag1589
a(lp1594
g1562
ag1589
aaa(lp1595
I2049
aI2055
ag1589
a(lp1596
g1553
ag1589
aaa(lp1597
I2057
aI2060
aS'plus'
p1598
a(lp1599
g1589
ag1598
aaa(lp1600
I2057
aI2060
ag1598
a(lp1601
g1580
ag1598
aaa(lp1602
I2057
aI2060
ag1598
a(lp1603
g1571
ag1598
aaa(lp1604
I2057
aI2060
ag1598
a(lp1605
g1562
ag1598
aaa(lp1606
I2065
aI2069
aS'going'
p1607
a(lp1608
g1598
ag1607
aaa(lp1609
I2065
aI2069
ag1607
a(lp1610
g1589
ag1607
aaa(lp1611
I2065
aI2069
ag1607
a(lp1612
g1580
ag1607
aaa(lp1613
I2065
aI2069
ag1607
a(lp1614
g1571
ag1607
aaa(lp1615
I2084
aI2091
aS'shuttles'
p1616
a(lp1617
g1607
ag1616
aaa(lp1618
I2084
aI2091
ag1616
a(lp1619
g1598
ag1616
aaa(lp1620
I2084
aI2091
ag1616
a(lp1621
g1589
ag1616
aaa(lp1622
I2084
aI2091
ag1616
a(lp1623
g1580
ag1616
aaa(lp1624
I2108
aI2110
aS'run'
p1625
a(lp1626
g1616
ag1625
aaa(lp1627
I2108
aI2110
ag1625
a(lp1628
g1607
ag1625
aaa(lp1629
I2108
aI2110
ag1625
a(lp1630
g1598
ag1625
aaa(lp1631
I2108
aI2110
ag1625
a(lp1632
g1589
ag1625
aaa(lp1633
I2121
aI2126
aS'resort'
p1634
a(lp1635
g1625
ag1634
aaa(lp1636
I2121
aI2126
ag1634
a(lp1637
g1616
ag1634
aaa(lp1638
I2121
aI2126
ag1634
a(lp1639
g1607
ag1634
aaa(lp1640
I2121
aI2126
ag1634
a(lp1641
g1598
ag1634
aaa(lp1642
I2140
aI2143
aS'west'
p1643
a(lp1644
g1634
ag1643
aaa(lp1645
I2140
aI2143
ag1643
a(lp1646
g1625
ag1643
aaa(lp1647
I2140
aI2143
ag1643
a(lp1648
g1616
ag1643
aaa(lp1649
I2140
aI2143
ag1643
a(lp1650
g1607
ag1643
aaa(lp1651
I2145
aI2149
aS'baden'
p1652
a(lp1653
g1643
ag1652
aaa(lp1654
I2145
aI2149
ag1652
a(lp1655
g1634
ag1652
aaa(lp1656
I2145
aI2149
ag1652
a(lp1657
g1625
ag1652
aaa(lp1658
I2145
aI2149
ag1652
a(lp1659
g1616
ag1652
aaa(lp1660
I2152
aI2155
aS'golf'
p1661
a(lp1662
g1652
ag1661
aaa(lp1663
I2152
aI2155
ag1661
a(lp1664
g1643
ag1661
aaa(lp1665
I2152
aI2155
ag1661
a(lp1666
g1634
ag1661
aaa(lp1667
I2152
aI2155
ag1661
a(lp1668
g1625
ag1661
aaa(lp1669
I2157
aI2162
aS'course'
p1670
a(lp1671
g1661
ag1670
aaa(lp1672
I2157
aI2162
ag1670
a(lp1673
g1652
ag1670
aaa(lp1674
I2157
aI2162
ag1670
a(lp1675
g1643
ag1670
aaa(lp1676
I2157
aI2162
ag1670
a(lp1677
g1634
ag1670
aaa(lp1678
I2169
aI2174
aS'winery'
p1679
a(lp1680
g1670
ag1679
aaa(lp1681
I2169
aI2174
ag1679
a(lp1682
g1661
ag1679
aaa(lp1683
I2169
aI2174
ag1679
a(lp1684
g1652
ag1679
aaa(lp1685
I2169
aI2174
ag1679
a(lp1686
g1643
ag1679
aaa(lp1687
I2189
aI2192
aS'park'
p1688
a(lp1689
g1679
ag1688
aaa(lp1690
I2189
aI2192
ag1688
a(lp1691
g1670
ag1688
aaa(lp1692
I2189
aI2192
ag1688
a(lp1693
g1661
ag1688
aaa(lp1694
I2189
aI2192
ag1688
a(lp1695
g1652
ag1688
aaa(lp1696
I2199
aI2201
aS'car'
p1697
a(lp1698
g1688
ag1697
aaa(lp1699
I2199
aI2201
ag1697
a(lp1700
g1679
ag1697
aaa(lp1701
I2199
aI2201
ag1697
a(lp1702
g1670
ag1697
aaa(lp1703
I2199
aI2201
ag1697
a(lp1704
g1661
ag1697
aaa(lp1705
I2211
aI2216
aS'either'
p1706
a(lp1707
g1697
ag1706
aaa(lp1708
I2211
aI2216
ag1706
a(lp1709
g1688
ag1706
aaa(lp1710
I2211
aI2216
ag1706
a(lp1711
g1679
ag1706
aaa(lp1712
I2211
aI2216
ag1706
a(lp1713
g1670
ag1706
aaa(lp1714
I2218
aI2221
aS'take'
p1715
a(lp1716
g1706
ag1715
aaa(lp1717
I2218
aI2221
ag1715
a(lp1718
g1697
ag1715
aaa(lp1719
I2218
aI2221
ag1715
a(lp1720
g1688
ag1715
aaa(lp1721
I2218
aI2221
ag1715
a(lp1722
g1679
ag1715
aaa(lp1723
I2227
aI2234
aS'shuttles'
p1724
a(lp1725
g1715
ag1724
aaa(lp1726
I2227
aI2234
ag1724
a(lp1727
g1706
ag1724
aaa(lp1728
I2227
aI2234
ag1724
a(lp1729
g1697
ag1724
aaa(lp1730
I2227
aI2234
ag1724
a(lp1731
g1688
ag1724
aaa(lp1732
I2239
aI2242
aS'walk'
p1733
a(lp1734
g1724
ag1733
aaa(lp1735
I2239
aI2242
ag1733
a(lp1736
g1715
ag1733
aaa(lp1737
I2239
aI2242
ag1733
a(lp1738
g1706
ag1733
aaa(lp1739
I2239
aI2242
ag1733
a(lp1740
g1697
ag1733
aaa(lp1741
I2255
aI2262
aS'anywhere'
p1742
a(lp1743
g1733
ag1742
aaa(lp1744
I2255
aI2262
ag1742
a(lp1745
g1724
ag1742
aaa(lp1746
I2255
aI2262
ag1742
a(lp1747
g1715
ag1742
aaa(lp1748
I2255
aI2262
ag1742
a(lp1749
g1706
ag1742
aaa(lp1750
I2271
aI2274
aS'town'
p1751
a(lp1752
g1742
ag1751
aaa(lp1753
I2271
aI2274
ag1751
a(lp1754
g1733
ag1751
aaa(lp1755
I2271
aI2274
ag1751
a(lp1756
g1724
ag1751
aaa(lp1757
I2271
aI2274
ag1751
a(lp1758
g1715
ag1751
aaa(lp1759
I2299
aI2302
aS'call'
p1760
a(lp1761
g1751
ag1760
aaa(lp1762
I2299
aI2302
ag1760
a(lp1763
g1742
ag1760
aaa(lp1764
I2299
aI2302
ag1760
a(lp1765
g1733
ag1760
aaa(lp1766
I2299
aI2302
ag1760
a(lp1767
g1724
ag1760
aaa(lp1768
I2316
aI2320
aS'lobby'
p1769
a(lp1770
g1760
ag1769
aaa(lp1771
I2316
aI2320
ag1769
a(lp1772
g1751
ag1769
aaa(lp1773
I2316
aI2320
ag1769
a(lp1774
g1742
ag1769
aaa(lp1775
I2316
aI2320
ag1769
a(lp1776
g1733
ag1769
aaa(lp1777
I2326
aI2329
aS'make'
p1778
a(lp1779
g1769
ag1778
aaa(lp1780
I2326
aI2329
ag1778
a(lp1781
g1760
ag1778
aaa(lp1782
I2326
aI2329
ag1778
a(lp1783
g1751
ag1778
aaa(lp1784
I2326
aI2329
ag1778
a(lp1785
g1742
ag1778
aaa(lp1786
I2331
aI2342
aS'arrangements'
p1787
a(lp1788
g1778
ag1787
aaa(lp1789
I2331
aI2342
ag1787
a(lp1790
g1769
ag1787
aaa(lp1791
I2331
aI2342
ag1787
a(lp1792
g1760
ag1787
aaa(lp1793
I2331
aI2342
ag1787
a(lp1794
g1751
ag1787
aaa(lp1795
I2352
aI2355
aS'time'
p1796
a(lp1797
g1787
ag1796
aaa(lp1798
I2352
aI2355
ag1796
a(lp1799
g1778
ag1796
aaa(lp1800
I2352
aI2355
ag1796
a(lp1801
g1769
ag1796
aaa(lp1802
I2352
aI2355
ag1796
a(lp1803
g1760
ag1796
aaa(lp1804
I2361
aI2364
aS'want'
p1805
a(lp1806
g1796
ag1805
aaa(lp1807
I2361
aI2364
ag1805
a(lp1808
g1787
ag1805
aaa(lp1809
I2361
aI2364
ag1805
a(lp1810
g1778
ag1805
aaa(lp1811
I2361
aI2364
ag1805
a(lp1812
g1769
ag1805
aaa(lp1813
I2369
aI2373
aS'leave'
p1814
a(lp1815
g1805
ag1814
aaa(lp1816
I2369
aI2373
ag1814
a(lp1817
g1796
ag1814
aaa(lp1818
I2369
aI2373
ag1814
a(lp1819
g1787
ag1814
aaa(lp1820
I2369
aI2373
ag1814
a(lp1821
g1778
ag1814
aaa(lp1822
I2389
aI2392
aS'want'
p1823
a(lp1824
g1814
ag1823
aaa(lp1825
I2389
aI2392
ag1823
a(lp1826
g1805
ag1823
aaa(lp1827
I2389
aI2392
ag1823
a(lp1828
g1796
ag1823
aaa(lp1829
I2389
aI2392
ag1823
a(lp1830
g1787
ag1823
aaa(lp1831
I2397
aI2398
aS'go'
p1832
a(lp1833
g1823
ag1832
aaa(lp1834
I2397
aI2398
ag1832
a(lp1835
g1814
ag1832
aaa(lp1836
I2397
aI2398
ag1832
a(lp1837
g1805
ag1832
aaa(lp1838
I2397
aI2398
ag1832
a(lp1839
g1796
ag1832
aaa(lp1840
I2404
aI2407
aS'show'
p1841
a(lp1842
g1832
ag1841
aaa(lp1843
I2404
aI2407
ag1841
a(lp1844
g1823
ag1841
aaa(lp1845
I2404
aI2407
ag1841
a(lp1846
g1814
ag1841
aaa(lp1847
I2404
aI2407
ag1841
a(lp1848
g1805
ag1841
aaa(lp1849
I2426
aI2432
aS'waiting'
p1850
a(lp1851
g1841
ag1850
aaa(lp1852
I2426
aI2432
ag1850
a(lp1853
g1832
ag1850
aaa(lp1854
I2426
aI2432
ag1850
a(lp1855
g1823
ag1850
aaa(lp1856
I2426
aI2432
ag1850
a(lp1857
g1814
ag1850
aaa(lp1858
I2435
aI2439
aS'hotel'
p1859
a(lp1860
g1850
ag1859
aaa(lp1861
I2435
aI2439
ag1859
a(lp1862
g1841
ag1859
aaa(lp1863
I2435
aI2439
ag1859
a(lp1864
g1832
ag1859
aaa(lp1865
I2435
aI2439
ag1859
a(lp1866
g1823
ag1859
aaasS'wordMap'
p1867
(lp1868
(lp1869
I0
aI8
ag5
a(lp1870
(lp1871
I0
aS'e'
p1872
aa(lp1873
I1
aS'x'
p1874
aa(lp1875
I2
aS'c'
p1876
aa(lp1877
I3
ag1872
aa(lp1878
I4
aS'l'
p1879
aa(lp1880
I5
ag1879
aa(lp1881
I6
ag1872
aa(lp1882
I7
aS'n'
p1883
aa(lp1884
I8
aS't'
p1885
aaaa(lp1886
I10
aI11
ag15
a(lp1887
(lp1888
I10
aS'4'
p1889
aa(lp1890
I11
aS'8'
p1891
aaaa(lp1892
I13
aI16
ag24
a(lp1893
(lp1894
I13
aS'y'
p1895
aa(lp1896
I14
ag1872
aa(lp1897
I15
aS'a'
p1898
aa(lp1899
I16
aS'r'
p1900
aaaa(lp1901
I18
aI20
ag33
a(lp1902
(lp1903
I18
aS'o'
p1904
aa(lp1905
I19
ag1879
aa(lp1906
I20
aS'd'
p1907
aaaa(lp1908
I22
aI25
aS'with'
p1909
a(lp1910
(lp1911
I22
aS'w'
p1912
aa(lp1913
I23
aS'i'
p1914
aa(lp1915
I24
ag1885
aa(lp1916
I25
aS'h'
p1917
aaaa(lp1918
I27
aI27
ag1898
a(lp1919
(lp1920
I27
ag1898
aaaa(lp1921
I29
aI36
ag42
a(lp1922
(lp1923
I29
aS'm'
p1924
aa(lp1925
I30
ag1904
aa(lp1926
I31
ag1907
aa(lp1927
I32
ag1872
aa(lp1928
I33
ag1900
aa(lp1929
I34
ag1898
aa(lp1930
I35
ag1885
aa(lp1931
I36
ag1872
aaaa(lp1932
I38
aI43
ag51
a(lp1933
(lp1934
I38
aS'b'
p1935
aa(lp1936
I39
aS'u'
p1937
aa(lp1938
I40
ag1907
aa(lp1939
I41
aS'g'
p1940
aa(lp1941
I42
ag1872
aa(lp1942
I43
ag1885
aaaa(lp1943
I46
aI54
ag60
a(lp1944
(lp1945
I46
ag1885
aa(lp1946
I47
ag1900
aa(lp1947
I48
ag1898
aa(lp1948
I49
aS'v'
p1949
aa(lp1950
I50
ag1872
aa(lp1951
I51
ag1879
aa(lp1952
I52
ag1914
aa(lp1953
I53
ag1883
aa(lp1954
I54
ag1940
aaaa(lp1955
I56
aI58
aS'for'
p1956
a(lp1957
(lp1958
I56
aS'f'
p1959
aa(lp1960
I57
ag1904
aa(lp1961
I58
ag1900
aaaa(lp1962
I60
aI78
ag69
a(lp1963
(lp1964
I60
ag1879
aa(lp1965
I61
ag1872
aa(lp1966
I62
ag1914
aa(lp1967
I63
aS's'
p1968
aa(lp1969
I64
ag1937
aa(lp1970
I65
ag1900
aa(lp1971
I66
ag1872
aa(lp1972
I67
aS'1'
p1973
aa(lp1974
I69
aS'\xa0'
p1975
aa(lp1976
I70
ag1900
aa(lp1977
I71
ag1872
aa(lp1978
I72
ag1949
aa(lp1979
I73
ag1914
aa(lp1980
I74
ag1872
aa(lp1981
I75
ag1912
aa(lp1982
I76
ag1968
aa(lp1983
I78
ag1975
aaaa(lp1984
I80
aI81
aS'my'
p1985
a(lp1986
(lp1987
I80
ag1924
aa(lp1988
I81
ag1895
aaaa(lp1989
I83
aI89
ag78
a(lp1990
(lp1991
I83
ag1917
aa(lp1992
I84
ag1937
aa(lp1993
I85
ag1968
aa(lp1994
I86
ag1935
aa(lp1995
I87
ag1898
aa(lp1996
I88
ag1883
aa(lp1997
I89
ag1907
aaaa(lp1998
I91
aI93
aS'and'
p1999
a(lp2000
(lp2001
I91
ag1898
aa(lp2002
I92
ag1883
aa(lp2003
I93
ag1907
aaaa(lp2004
I95
aI95
ag1914
a(lp2005
(lp2006
I95
ag1914
aaaa(lp2007
I97
aI100
aS'have'
p2008
a(lp2009
(lp2010
I97
ag1917
aa(lp2011
I98
ag1898
aa(lp2012
I99
ag1949
aa(lp2013
I100
ag1872
aaaa(lp2014
I102
aI105
aS'been'
p2015
a(lp2016
(lp2017
I102
ag1935
aa(lp2018
I103
ag1872
aa(lp2019
I104
ag1872
aa(lp2020
I105
ag1883
aaaa(lp2021
I107
aI111
aS'there'
p2022
a(lp2023
(lp2024
I107
ag1885
aa(lp2025
I108
ag1917
aa(lp2026
I109
ag1872
aa(lp2027
I110
ag1900
aa(lp2028
I111
ag1872
aaaa(lp2029
I113
aI113
ag87
a(lp2030
(lp2031
I113
ag87
aaaa(lp2032
I115
aI119
ag96
a(lp2033
(lp2034
I115
ag1885
aa(lp2035
I116
ag1914
aa(lp2036
I117
ag1924
aa(lp2037
I118
ag1872
aa(lp2038
I119
ag1968
aaaa(lp2039
I121
aI122
aS'in'
p2040
a(lp2041
(lp2042
I121
ag1914
aa(lp2043
I122
ag1883
aaaa(lp2044
I124
aI126
aS'the'
p2045
a(lp2046
(lp2047
I124
ag1885
aa(lp2048
I125
ag1917
aa(lp2049
I126
ag1872
aaaa(lp2050
I128
aI131
ag105
a(lp2051
(lp2052
I128
ag1879
aa(lp2053
I129
ag1898
aa(lp2054
I130
ag1968
aa(lp2055
I131
ag1885
aaaa(lp2056
I133
aI136
ag114
a(lp2057
(lp2058
I133
ag1895
aa(lp2059
I134
ag1872
aa(lp2060
I135
ag1898
aa(lp2061
I136
ag1900
aaaa(lp2062
I139
aI142
aS'each'
p2063
a(lp2064
(lp2065
I139
ag1872
aa(lp2066
I140
ag1898
aa(lp2067
I141
ag1876
aa(lp2068
I142
ag1917
aaaa(lp2069
I144
aI147
ag123
a(lp2070
(lp2071
I144
ag1885
aa(lp2072
I145
ag1914
aa(lp2073
I146
ag1924
aa(lp2074
I147
ag1872
aaaa(lp2075
I149
aI150
aS'we'
p2076
a(lp2077
(lp2078
I149
ag1912
aa(lp2079
I150
ag1872
aaaa(lp2080
I152
aI155
aS'have'
p2081
a(lp2082
(lp2083
I152
ag1917
aa(lp2084
I153
ag1898
aa(lp2085
I154
ag1949
aa(lp2086
I155
ag1872
aaaa(lp2087
I157
aI160
aS'been'
p2088
a(lp2089
(lp2090
I157
ag1935
aa(lp2091
I158
ag1872
aa(lp2092
I159
ag1872
aa(lp2093
I160
ag1883
aaaa(lp2094
I162
aI166
aS'there'
p2095
a(lp2096
(lp2097
I162
ag1885
aa(lp2098
I163
ag1917
aa(lp2099
I164
ag1872
aa(lp2100
I165
ag1900
aa(lp2101
I166
ag1872
aaaa(lp2102
I168
aI169
aS'it'
p2103
a(lp2104
(lp2105
I168
ag1914
aa(lp2106
I169
ag1885
aaaa(lp2107
I171
aI173
aS'has'
p2108
a(lp2109
(lp2110
I171
ag1917
aa(lp2111
I172
ag1898
aa(lp2112
I173
ag1968
aaaa(lp2113
I175
aI178
aS'been'
p2114
a(lp2115
(lp2116
I175
ag1935
aa(lp2117
I176
ag1872
aa(lp2118
I177
ag1872
aa(lp2119
I178
ag1883
aaaa(lp2120
I180
aI188
ag132
a(lp2121
(lp2122
I180
ag1912
aa(lp2123
I181
ag1904
aa(lp2124
I182
ag1883
aa(lp2125
I183
ag1907
aa(lp2126
I184
ag1872
aa(lp2127
I185
ag1900
aa(lp2128
I186
ag1959
aa(lp2129
I187
ag1937
aa(lp2130
I188
ag1879
aaaa(lp2131
I191
aI193
aS'the'
p2132
a(lp2133
(lp2134
I191
ag1885
aa(lp2135
I192
ag1917
aa(lp2136
I193
ag1872
aaaa(lp2137
I195
aI201
ag141
a(lp2138
(lp2139
I195
ag1968
aa(lp2140
I196
ag1872
aa(lp2141
I197
ag1900
aa(lp2142
I198
ag1949
aa(lp2143
I199
ag1914
aa(lp2144
I200
ag1876
aa(lp2145
I201
ag1872
aaaa(lp2146
I203
aI205
aS'has'
p2147
a(lp2148
(lp2149
I203
ag1917
aa(lp2150
I204
ag1898
aa(lp2151
I205
ag1968
aaaa(lp2152
I207
aI210
aS'been'
p2153
a(lp2154
(lp2155
I207
ag1935
aa(lp2156
I208
ag1872
aa(lp2157
I209
ag1872
aa(lp2158
I210
ag1883
aaaa(lp2159
I212
aI216
ag150
a(lp2160
(lp2161
I212
ag1940
aa(lp2162
I213
ag1900
aa(lp2163
I214
ag1872
aa(lp2164
I215
ag1898
aa(lp2165
I216
ag1885
aaaa(lp2166
I219
aI223
ag159
a(lp2167
(lp2168
I219
ag1924
aa(lp2169
I220
ag1914
aa(lp2170
I221
ag1940
aa(lp2171
I222
ag1917
aa(lp2172
I223
ag1885
aaaa(lp2173
I225
aI226
aS'be'
p2174
a(lp2175
(lp2176
I225
ag1935
aa(lp2177
I226
ag1872
aaaa(lp2178
I228
aI234
aS'because'
p2179
a(lp2180
(lp2181
I228
ag1935
aa(lp2182
I229
ag1872
aa(lp2183
I230
ag1876
aa(lp2184
I231
ag1898
aa(lp2185
I232
ag1937
aa(lp2186
I233
ag1968
aa(lp2187
I234
ag1872
aaaa(lp2188
I236
aI237
aS'we'
p2189
a(lp2190
(lp2191
I236
ag1912
aa(lp2192
I237
ag1872
aaaa(lp2193
I239
aI240
ag168
a(lp2194
(lp2195
I239
ag1940
aa(lp2196
I240
ag1904
aaaa(lp2197
I242
aI247
aS'during'
p2198
a(lp2199
(lp2200
I242
ag1907
aa(lp2201
I243
ag1937
aa(lp2202
I244
ag1900
aa(lp2203
I245
ag1914
aa(lp2204
I246
ag1883
aa(lp2205
I247
ag1940
aaaa(lp2206
I249
aI251
aS'the'
p2207
a(lp2208
(lp2209
I249
ag1885
aa(lp2210
I250
ag1917
aa(lp2211
I251
ag1872
aaaa(lp2212
I253
aI256
ag177
a(lp2213
(lp2214
I253
ag1912
aa(lp2215
I254
ag1872
aa(lp2216
I255
ag1872
aa(lp2217
I256
aS'k'
p2218
aaaa(lp2219
I258
aI261
aS'when'
p2220
a(lp2221
(lp2222
I258
ag1912
aa(lp2223
I259
ag1917
aa(lp2224
I260
ag1872
aa(lp2225
I261
ag1883
aaaa(lp2226
I263
aI266
aS'they'
p2227
a(lp2228
(lp2229
I263
ag1885
aa(lp2230
I264
ag1917
aa(lp2231
I265
ag1872
aa(lp2232
I266
ag1895
aaaa(lp2233
I268
aI270
aS'are'
p2234
a(lp2235
(lp2236
I268
ag1898
aa(lp2237
I269
ag1900
aa(lp2238
I270
ag1872
aaaa(lp2239
I272
aI275
ag186
a(lp2240
(lp2241
I272
ag1879
aa(lp2242
I273
ag1872
aa(lp2243
I274
ag1968
aa(lp2244
I275
ag1968
aaaa(lp2245
I277
aI280
ag195
a(lp2246
(lp2247
I277
ag1935
aa(lp2248
I278
ag1937
aa(lp2249
I279
ag1968
aa(lp2250
I280
ag1895
aaaa(lp2251
I283
aI285
aS'our'
p2252
a(lp2253
(lp2254
I283
ag1904
aa(lp2255
I284
ag1937
aa(lp2256
I285
ag1900
aaaa(lp2257
I287
aI291
ag204
a(lp2258
(lp2259
I287
ag1900
aa(lp2260
I288
ag1904
aa(lp2261
I289
ag1904
aa(lp2262
I290
ag1924
aa(lp2263
I291
ag1968
aaaa(lp2264
I293
aI296
aS'have'
p2265
a(lp2266
(lp2267
I293
ag1917
aa(lp2268
I294
ag1898
aa(lp2269
I295
ag1949
aa(lp2270
I296
ag1872
aaaa(lp2271
I298
aI303
ag213
a(lp2272
(lp2273
I298
ag1898
aa(lp2274
I299
ag1879
aa(lp2275
I300
ag1912
aa(lp2276
I301
ag1898
aa(lp2277
I302
ag1895
aa(lp2278
I303
ag1968
aaaa(lp2279
I305
aI308
aS'been'
p2280
a(lp2281
(lp2282
I305
ag1935
aa(lp2283
I306
ag1872
aa(lp2284
I307
ag1872
aa(lp2285
I308
ag1883
aaaa(lp2286
I310
aI314
ag222
a(lp2287
(lp2288
I310
ag1900
aa(lp2289
I311
ag1872
aa(lp2290
I312
ag1898
aa(lp2291
I313
ag1907
aa(lp2292
I314
ag1895
aaaa(lp2293
I316
aI317
aS'on'
p2294
a(lp2295
(lp2296
I316
ag1904
aa(lp2297
I317
ag1883
aaaa(lp2298
I319
aI322
ag231
a(lp2299
(lp2300
I319
ag1885
aa(lp2301
I320
ag1914
aa(lp2302
I321
ag1924
aa(lp2303
I322
ag1872
aaaa(lp2304
I325
aI326
aS'if'
p2305
a(lp2306
(lp2307
I325
ag1914
aa(lp2308
I326
ag1959
aaaa(lp2309
I328
aI330
aS'not'
p2310
a(lp2311
(lp2312
I328
ag1883
aa(lp2313
I329
ag1904
aa(lp2314
I330
ag1885
aaaa(lp2315
I332
aI336
ag240
a(lp2316
(lp2317
I332
ag1872
aa(lp2318
I333
ag1898
aa(lp2319
I334
ag1900
aa(lp2320
I335
ag1879
aa(lp2321
I336
ag1895
aaaa(lp2322
I339
aI342
aS'they'
p2323
a(lp2324
(lp2325
I339
ag1885
aa(lp2326
I340
ag1917
aa(lp2327
I341
ag1872
aa(lp2328
I342
ag1895
aaaa(lp2329
I344
aI347
aS'have'
p2330
a(lp2331
(lp2332
I344
ag1917
aa(lp2333
I345
ag1898
aa(lp2334
I346
ag1949
aa(lp2335
I347
ag1872
aaaa(lp2336
I349
aI354
ag249
a(lp2337
(lp2338
I349
ag1898
aa(lp2339
I350
ag1879
aa(lp2340
I351
ag1912
aa(lp2341
I352
ag1898
aa(lp2342
I353
ag1895
aa(lp2343
I354
ag1968
aaaa(lp2344
I356
aI363
ag258
a(lp2345
(lp2346
I356
ag1937
aa(lp2347
I357
aS'p'
p2348
aa(lp2349
I358
ag1940
aa(lp2350
I359
ag1900
aa(lp2351
I360
ag1898
aa(lp2352
I361
ag1907
aa(lp2353
I362
ag1872
aa(lp2354
I363
ag1907
aaaa(lp2355
I365
aI366
ag267
a(lp2356
(lp2357
I365
ag1937
aa(lp2358
I366
ag1968
aaaa(lp2359
I368
aI369
aS'to'
p2360
a(lp2361
(lp2362
I368
ag1885
aa(lp2363
I369
ag1904
aaaa(lp2364
I371
aI371
ag1898
a(lp2365
(lp2366
I371
ag1898
aaaa(lp2367
I373
aI377
ag276
a(lp2368
(lp2369
I373
ag1968
aa(lp2370
I374
ag1937
aa(lp2371
I375
ag1914
aa(lp2372
I376
ag1885
aa(lp2373
I377
ag1872
aaaa(lp2374
I379
aI381
aS'and'
p2375
a(lp2376
(lp2377
I379
ag1898
aa(lp2378
I380
ag1883
aa(lp2379
I381
ag1907
aaaa(lp2380
I383
aI386
aS'they'
p2381
a(lp2382
(lp2383
I383
ag1885
aa(lp2384
I384
ag1917
aa(lp2385
I385
ag1872
aa(lp2386
I386
ag1895
aaaa(lp2387
I388
aI390
aS'are'
p2388
a(lp2389
(lp2390
I388
ag1898
aa(lp2391
I389
ag1900
aa(lp2392
I390
ag1872
aaaa(lp2393
I392
aI400
ag285
a(lp2394
(lp2395
I392
ag1872
aa(lp2396
I393
ag1874
aa(lp2397
I394
ag1885
aa(lp2398
I395
ag1900
aa(lp2399
I396
ag1872
aa(lp2400
I397
ag1924
aa(lp2401
I398
ag1872
aa(lp2402
I399
ag1879
aa(lp2403
I400
ag1895
aaaa(lp2404
I402
aI405
ag294
a(lp2405
(lp2406
I402
ag1883
aa(lp2407
I403
ag1914
aa(lp2408
I404
ag1876
aa(lp2409
I405
ag1872
aaaa(lp2410
I408
aI409
aS'we'
p2411
a(lp2412
(lp2413
I408
ag1912
aa(lp2414
I409
ag1872
aaaa(lp2415
I411
aI414
aS'have'
p2416
a(lp2417
(lp2418
I411
ag1917
aa(lp2419
I412
ag1898
aa(lp2420
I413
ag1949
aa(lp2421
I414
ag1872
aaaa(lp2422
I416
aI420
ag303
a(lp2423
(lp2424
I416
ag1883
aa(lp2425
I417
ag1872
aa(lp2426
I418
ag1949
aa(lp2427
I419
ag1872
aa(lp2428
I420
ag1900
aaaa(lp2429
I422
aI426
ag312
a(lp2430
(lp2431
I422
ag1872
aa(lp2432
I423
ag1898
aa(lp2433
I424
ag1885
aa(lp2434
I425
ag1872
aa(lp2435
I426
ag1883
aaaa(lp2436
I428
aI433
ag321
a(lp2437
(lp2438
I428
ag1907
aa(lp2439
I429
ag1914
aa(lp2440
I430
ag1883
aa(lp2441
I431
ag1883
aa(lp2442
I432
ag1872
aa(lp2443
I433
ag1900
aaaa(lp2444
I435
aI436
aS'at'
p2445
a(lp2446
(lp2447
I435
ag1898
aa(lp2448
I436
ag1885
aaaa(lp2449
I438
aI440
aS'the'
p2450
a(lp2451
(lp2452
I438
ag1885
aa(lp2453
I439
ag1917
aa(lp2454
I440
ag1872
aaaa(lp2455
I442
aI447
ag330
a(lp2456
(lp2457
I442
ag1935
aa(lp2458
I443
ag1937
aa(lp2459
I444
ag1959
aa(lp2460
I445
ag1959
aa(lp2461
I446
ag1872
aa(lp2462
I447
ag1885
aaaa(lp2463
I450
aI452
aS'but'
p2464
a(lp2465
(lp2466
I450
ag1935
aa(lp2467
I451
ag1937
aa(lp2468
I452
ag1885
aaaa(lp2469
I454
aI456
aS'the'
p2470
a(lp2471
(lp2472
I454
ag1885
aa(lp2473
I455
ag1917
aa(lp2474
I456
ag1872
aaaa(lp2475
I458
aI466
ag339
a(lp2476
(lp2477
I458
ag1935
aa(lp2478
I459
ag1900
aa(lp2479
I460
ag1872
aa(lp2480
I461
ag1898
aa(lp2481
I462
ag2218
aa(lp2482
I463
ag1959
aa(lp2483
I464
ag1898
aa(lp2484
I465
ag1968
aa(lp2485
I466
ag1885
aaaa(lp2486
I468
aI470
aS'has'
p2487
a(lp2488
(lp2489
I468
ag1917
aa(lp2490
I469
ag1898
aa(lp2491
I470
ag1968
aaaa(lp2492
I472
aI475
aS'been'
p2493
a(lp2494
(lp2495
I472
ag1935
aa(lp2496
I473
ag1872
aa(lp2497
I474
ag1872
aa(lp2498
I475
ag1883
aaaa(lp2499
I477
aI480
ag348
a(lp2500
(lp2501
I477
ag1940
aa(lp2502
I478
ag1904
aa(lp2503
I479
ag1904
aa(lp2504
I480
ag1907
aaaa(lp2505
I483
aI485
aS'the'
p2506
a(lp2507
(lp2508
I483
ag1885
aa(lp2509
I484
ag1917
aa(lp2510
I485
ag1872
aaaa(lp2511
I487
aI490
ag357
a(lp2512
(lp2513
I487
ag1973
aa(lp2514
I488
ag1891
aa(lp2515
I489
aS'7'
p2516
aa(lp2517
I490
aS'5'
p2518
aaaa(lp2519
I492
aI501
ag366
a(lp2520
(lp2521
I492
ag1968
aa(lp2522
I493
ag1885
aa(lp2523
I494
ag1872
aa(lp2524
I495
ag1898
aa(lp2525
I496
ag2218
aa(lp2526
I497
ag1917
aa(lp2527
I498
ag1904
aa(lp2528
I499
ag1937
aa(lp2529
I500
ag1968
aa(lp2530
I501
ag1872
aaaa(lp2531
I504
aI505
aS'is'
p2532
a(lp2533
(lp2534
I504
ag1914
aa(lp2535
I505
ag1968
aaaa(lp2536
I507
aI510
ag375
a(lp2537
(lp2538
I507
ag1940
aa(lp2539
I508
ag1904
aa(lp2540
I509
ag1904
aa(lp2541
I510
ag1907
aaaa(lp2542
I513
aI518
ag384
a(lp2543
(lp2544
I513
ag1879
aa(lp2545
I514
ag1914
aa(lp2546
I515
ag1885
aa(lp2547
I516
ag1885
aa(lp2548
I517
ag1879
aa(lp2549
I518
ag1872
aaaa(lp2550
I520
aI525
ag393
a(lp2551
(lp2552
I520
ag2348
aa(lp2553
I521
ag1900
aa(lp2554
I522
ag1914
aa(lp2555
I523
ag1876
aa(lp2556
I524
ag1872
aa(lp2557
I525
ag1895
aaaa(lp2558
I528
aI530
aS'and'
p2559
a(lp2560
(lp2561
I528
ag1898
aa(lp2562
I529
ag1883
aa(lp2563
I530
ag1907
aaaa(lp2564
I532
aI538
ag402
a(lp2565
(lp2566
I532
ag1917
aa(lp2567
I533
ag1898
aa(lp2568
I534
ag1940
aa(lp2569
I535
ag1872
aa(lp2570
I536
ag1883
aa(lp2571
I538
ag1968
aaaa(lp2572
I540
aI541
aS'is'
p2573
a(lp2574
(lp2575
I540
ag1914
aa(lp2576
I541
ag1968
aaaa(lp2577
I543
aI546
ag411
a(lp2578
(lp2579
I543
ag1898
aa(lp2580
I544
ag1879
aa(lp2581
I545
ag1968
aa(lp2582
I546
ag1904
aaaa(lp2583
I548
aI551
ag420
a(lp2584
(lp2585
I548
ag1940
aa(lp2586
I549
ag1904
aa(lp2587
I550
ag1904
aa(lp2588
I551
ag1907
aaaa(lp2589
I554
aI556
aS'the'
p2590
a(lp2591
(lp2592
I554
ag1885
aa(lp2593
I555
ag1917
aa(lp2594
I556
ag1872
aaaa(lp2595
I558
aI562
ag429
a(lp2596
(lp2597
I558
ag2348
aa(lp2598
I559
ag1914
aa(lp2599
I560
aS'z'
p2600
aa(lp2601
I561
ag2600
aa(lp2602
I562
ag1898
aaaa(lp2603
I564
aI565
aS'at'
p2604
a(lp2605
(lp2606
I564
ag1898
aa(lp2607
I565
ag1885
aaaa(lp2608
I567
aI573
ag438
a(lp2609
(lp2610
I567
ag2348
aa(lp2611
I568
ag1879
aa(lp2612
I569
ag1937
aa(lp2613
I570
ag1885
aa(lp2614
I571
ag1904
aa(lp2615
I573
ag1968
aaaa(lp2616
I575
aI576
aS'is'
p2617
a(lp2618
(lp2619
I575
ag1914
aa(lp2620
I576
ag1968
aaaa(lp2621
I578
aI588
ag447
a(lp2622
(lp2623
I578
ag1904
aa(lp2624
I579
ag1937
aa(lp2625
I580
ag1885
aa(lp2626
I581
ag1968
aa(lp2627
I582
ag1885
aa(lp2628
I583
ag1898
aa(lp2629
I584
ag1883
aa(lp2630
I585
ag1907
aa(lp2631
I586
ag1914
aa(lp2632
I587
ag1883
aa(lp2633
I588
ag1940
aaaa(lp2634
I591
aI594
aS'each'
p2635
a(lp2636
(lp2637
I591
ag1872
aa(lp2638
I592
ag1898
aa(lp2639
I593
ag1876
aa(lp2640
I594
ag1917
aaaa(lp2641
I596
aI599
ag456
a(lp2642
(lp2643
I596
ag1885
aa(lp2644
I597
ag1914
aa(lp2645
I598
ag1924
aa(lp2646
I599
ag1872
aaaa(lp2647
I601
aI602
aS'we'
p2648
a(lp2649
(lp2650
I601
ag1912
aa(lp2651
I602
ag1872
aaaa(lp2652
I604
aI607
aS'have'
p2653
a(lp2654
(lp2655
I604
ag1917
aa(lp2656
I605
ag1898
aa(lp2657
I606
ag1949
aa(lp2658
I607
ag1872
aaaa(lp2659
I609
aI612
aS'been'
p2660
a(lp2661
(lp2662
I609
ag1935
aa(lp2663
I610
ag1872
aa(lp2664
I611
ag1872
aa(lp2665
I612
ag1883
aaaa(lp2666
I614
aI618
aS'there'
p2667
a(lp2668
(lp2669
I614
ag1885
aa(lp2670
I615
ag1917
aa(lp2671
I616
ag1872
aa(lp2672
I617
ag1900
aa(lp2673
I618
ag1872
aaaa(lp2674
I620
aI621
aS'it'
p2675
a(lp2676
(lp2677
I620
ag1914
aa(lp2678
I621
ag1885
aaaa(lp2679
I623
aI625
aS'has'
p2680
a(lp2681
(lp2682
I623
ag1917
aa(lp2683
I624
ag1898
aa(lp2684
I625
ag1968
aaaa(lp2685
I627
aI630
aS'been'
p2686
a(lp2687
(lp2688
I627
ag1935
aa(lp2689
I628
ag1872
aa(lp2690
I629
ag1872
aa(lp2691
I630
ag1883
aaaa(lp2692
I632
aI637
aS'during'
p2693
a(lp2694
(lp2695
I632
ag1907
aa(lp2696
I633
ag1937
aa(lp2697
I634
ag1900
aa(lp2698
I635
ag1914
aa(lp2699
I636
ag1883
aa(lp2700
I637
ag1940
aaaa(lp2701
I639
aI639
ag1898
a(lp2702
(lp2703
I639
ag1898
aaaa(lp2704
I641
aI649
ag465
a(lp2705
(lp2706
I641
ag1907
aa(lp2707
I642
ag1914
aa(lp2708
I643
ag1959
aa(lp2709
I644
ag1959
aa(lp2710
I645
ag1872
aa(lp2711
I646
ag1900
aa(lp2712
I647
ag1872
aa(lp2713
I648
ag1883
aa(lp2714
I649
ag1885
aaaa(lp2715
I651
aI656
ag474
a(lp2716
(lp2717
I651
ag1968
aa(lp2718
I652
ag1872
aa(lp2719
I653
ag1898
aa(lp2720
I654
ag1968
aa(lp2721
I655
ag1904
aa(lp2722
I656
ag1883
aaaa(lp2723
I659
aI660
aS'if'
p2724
a(lp2725
(lp2726
I659
ag1914
aa(lp2727
I660
ag1959
aaaa(lp2728
I662
aI664
aS'you'
p2729
a(lp2730
(lp2731
I662
ag1895
aa(lp2732
I663
ag1904
aa(lp2733
I664
ag1937
aaaa(lp2734
I666
aI669
aS'have'
p2735
a(lp2736
(lp2737
I666
ag1917
aa(lp2738
I667
ag1898
aa(lp2739
I668
ag1949
aa(lp2740
I669
ag1872
aaaa(lp2741
I671
aI673
aS'the'
p2742
a(lp2743
(lp2744
I671
ag1885
aa(lp2745
I672
ag1917
aa(lp2746
I673
ag1872
aaaa(lp2747
I675
aI680
ag483
a(lp2748
(lp2749
I675
ag1876
aa(lp2750
I676
ag1917
aa(lp2751
I677
ag1898
aa(lp2752
I678
ag1883
aa(lp2753
I679
ag1876
aa(lp2754
I680
ag1872
aaaa(lp2755
I682
aI683
aS'to'
p2756
a(lp2757
(lp2758
I682
ag1885
aa(lp2759
I683
ag1904
aaaa(lp2760
I685
aI686
ag492
a(lp2761
(lp2762
I685
ag1940
aa(lp2763
I686
ag1904
aaaa(lp2764
I688
aI689
aS'at'
p2765
a(lp2766
(lp2767
I688
ag1898
aa(lp2768
I689
ag1885
aaaa(lp2769
I691
aI699
ag501
a(lp2770
(lp2771
I691
ag1876
aa(lp2772
I692
ag1917
aa(lp2773
I693
ag1900
aa(lp2774
I694
ag1914
aa(lp2775
I695
ag1968
aa(lp2776
I696
ag1885
aa(lp2777
I697
ag1924
aa(lp2778
I698
ag1898
aa(lp2779
I699
ag1968
aaaa(lp2780
I701
aI703
aS'the'
p2781
a(lp2782
(lp2783
I701
ag1885
aa(lp2784
I702
ag1917
aa(lp2785
I703
ag1872
aaaa(lp2786
I705
aI715
ag510
a(lp2787
(lp2788
I705
ag1907
aa(lp2789
I706
ag1872
aa(lp2790
I707
ag1876
aa(lp2791
I708
ag1904
aa(lp2792
I709
ag1900
aa(lp2793
I710
ag1898
aa(lp2794
I711
ag1885
aa(lp2795
I712
ag1914
aa(lp2796
I713
ag1904
aa(lp2797
I714
ag1883
aa(lp2798
I715
ag1968
aaaa(lp2799
I717
aI719
aS'are'
p2800
a(lp2801
(lp2802
I717
ag1898
aa(lp2803
I718
ag1900
aa(lp2804
I719
ag1872
aaaa(lp2805
I721
aI729
ag519
a(lp2806
(lp2807
I721
ag1935
aa(lp2808
I722
ag1872
aa(lp2809
I723
ag1898
aa(lp2810
I724
ag1937
aa(lp2811
I725
ag1885
aa(lp2812
I726
ag1914
aa(lp2813
I727
ag1959
aa(lp2814
I728
ag1937
aa(lp2815
I729
ag1879
aaaa(lp2816
I732
aI735
aS'this'
p2817
a(lp2818
(lp2819
I732
ag1885
aa(lp2820
I733
ag1917
aa(lp2821
I734
ag1914
aa(lp2822
I735
ag1968
aaaa(lp2823
I737
aI740
ag528
a(lp2824
(lp2825
I737
ag1959
aa(lp2826
I738
ag1898
aa(lp2827
I739
ag1879
aa(lp2828
I740
ag1879
aaaa(lp2829
I742
aI745
aS'will'
p2830
a(lp2831
(lp2832
I742
ag1912
aa(lp2833
I743
ag1914
aa(lp2834
I744
ag1879
aa(lp2835
I745
ag1879
aaaa(lp2836
I747
aI748
aS'be'
p2837
a(lp2838
(lp2839
I747
ag1935
aa(lp2840
I748
ag1872
aaaa(lp2841
I750
aI752
aS'our'
p2842
a(lp2843
(lp2844
I750
ag1904
aa(lp2845
I751
ag1937
aa(lp2846
I752
ag1900
aaaa(lp2847
I754
aI759
ag537
a(lp2848
(lp2849
I754
ag1959
aa(lp2850
I755
ag1904
aa(lp2851
I756
ag1937
aa(lp2852
I757
ag1900
aa(lp2853
I758
ag1885
aa(lp2854
I759
ag1917
aaaa(lp2855
I761
aI764
ag546
a(lp2856
(lp2857
I761
ag1885
aa(lp2858
I762
ag1900
aa(lp2859
I763
ag1914
aa(lp2860
I764
ag2348
aaaa(lp2861
I766
aI769
aS'this'
p2862
a(lp2863
(lp2864
I766
ag1885
aa(lp2865
I767
ag1917
aa(lp2866
I768
ag1914
aa(lp2867
I769
ag1968
aaaa(lp2868
I771
aI774
ag555
a(lp2869
(lp2870
I771
ag1895
aa(lp2871
I772
ag1872
aa(lp2872
I773
ag1898
aa(lp2873
I774
ag1900
aaaa(lp2874
I776
aI778
aS'and'
p2875
a(lp2876
(lp2877
I776
ag1898
aa(lp2878
I777
ag1883
aa(lp2879
I778
ag1907
aaaa(lp2880
I780
aI782
aS'the'
p2881
a(lp2882
(lp2883
I780
ag1885
aa(lp2884
I781
ag1917
aa(lp2885
I782
ag1872
aaaa(lp2886
I784
aI787
ag564
a(lp2887
(lp2888
I784
ag1879
aa(lp2889
I785
ag1898
aa(lp2890
I786
ag1968
aa(lp2891
I787
ag1885
aaaa(lp2892
I789
aI790
aS'of'
p2893
a(lp2894
(lp2895
I789
ag1904
aa(lp2896
I790
ag1959
aaaa(lp2897
I792
aI794
aS'the'
p2898
a(lp2899
(lp2900
I792
ag1885
aa(lp2901
I793
ag1917
aa(lp2902
I794
ag1872
aaaa(lp2903
I796
aI802
ag573
a(lp2904
(lp2905
I796
ag1968
aa(lp2906
I797
ag1872
aa(lp2907
I798
ag1898
aa(lp2908
I799
ag1968
aa(lp2909
I800
ag1904
aa(lp2910
I801
ag1883
aa(lp2911
I802
ag1968
aaaa(lp2912
I804
aI806
aS'for'
p2913
a(lp2914
(lp2915
I804
ag1959
aa(lp2916
I805
ag1904
aa(lp2917
I806
ag1900
aaaa(lp2918
I808
aI809
ag582
a(lp2919
(lp2920
I808
ag1937
aa(lp2921
I809
ag1968
aaaa(lp2922
I812
aI813
aS'we'
p2923
a(lp2924
(lp2925
I812
ag1912
aa(lp2926
I813
ag1872
aaaa(lp2927
I815
aI818
aS'will'
p2928
a(lp2929
(lp2930
I815
ag1912
aa(lp2931
I816
ag1914
aa(lp2932
I817
ag1879
aa(lp2933
I818
ag1879
aaaa(lp2934
I820
aI823
aS'have'
p2935
a(lp2936
(lp2937
I820
ag1917
aa(lp2938
I821
ag1898
aa(lp2939
I822
ag1949
aa(lp2940
I823
ag1872
aaaa(lp2941
I825
aI828
ag591
a(lp2942
(lp2943
I825
ag1968
aa(lp2944
I826
ag1872
aa(lp2945
I827
ag1872
aa(lp2946
I828
ag1883
aaaa(lp2947
I830
aI831
aS'it'
p2948
a(lp2949
(lp2950
I830
ag1914
aa(lp2951
I831
ag1885
aaaa(lp2952
I833
aI834
aS'at'
p2953
a(lp2954
(lp2955
I833
ag1898
aa(lp2956
I834
ag1885
aaaa(lp2957
I836
aI840
ag600
a(lp2958
(lp2959
I836
ag1872
aa(lp2960
I837
ag1949
aa(lp2961
I838
ag1872
aa(lp2962
I839
ag1900
aa(lp2963
I840
ag1895
aaaa(lp2964
I842
aI845
ag609
a(lp2965
(lp2966
I842
ag1885
aa(lp2967
I843
ag1914
aa(lp2968
I844
ag1924
aa(lp2969
I845
ag1872
aaaa(lp2970
I847
aI848
aS'of'
p2971
a(lp2972
(lp2973
I847
ag1904
aa(lp2974
I848
ag1959
aaaa(lp2975
I850
aI852
aS'the'
p2976
a(lp2977
(lp2978
I850
ag1885
aa(lp2979
I851
ag1917
aa(lp2980
I852
ag1872
aaaa(lp2981
I854
aI857
ag618
a(lp2982
(lp2983
I854
ag1895
aa(lp2984
I855
ag1872
aa(lp2985
I856
ag1898
aa(lp2986
I857
ag1900
aaaa(lp2987
I860
aI861
aS'if'
p2988
a(lp2989
(lp2990
I860
ag1914
aa(lp2991
I861
ag1959
aaaa(lp2992
I863
aI865
aS'you'
p2993
a(lp2994
(lp2995
I863
ag1895
aa(lp2996
I864
ag1904
aa(lp2997
I865
ag1937
aaaa(lp2998
I867
aI869
aS'are'
p2999
a(lp3000
(lp3001
I867
ag1898
aa(lp3002
I868
ag1900
aa(lp3003
I869
ag1872
aaaa(lp3004
I871
aI875
ag627
a(lp3005
(lp3006
I871
ag1940
aa(lp3007
I872
ag1904
aa(lp3008
I873
ag1914
aa(lp3009
I874
ag1883
aa(lp3010
I875
ag1940
aaaa(lp3011
I877
aI878
aS'to'
p3012
a(lp3013
(lp3014
I877
ag1885
aa(lp3015
I878
ag1904
aaaa(lp3016
I880
aI885
ag636
a(lp3017
(lp3018
I880
ag1940
aa(lp3019
I881
ag1898
aa(lp3020
I882
ag1924
aa(lp3021
I883
ag1935
aa(lp3022
I884
ag1879
aa(lp3023
I885
ag1872
aaaa(lp3024
I887
aI893
ag645
a(lp3025
(lp3026
I887
ag1900
aa(lp3027
I888
ag1872
aa(lp3028
I889
aS'q'
p3029
aa(lp3030
I890
ag1937
aa(lp3031
I891
ag1872
aa(lp3032
I892
ag1968
aa(lp3033
I893
ag1885
aaaa(lp3034
I895
aI897
aS'the'
p3035
a(lp3036
(lp3037
I895
ag1885
aa(lp3038
I896
ag1917
aa(lp3039
I897
ag1872
aaaa(lp3040
I899
aI904
ag654
a(lp3041
(lp3042
I899
ag1940
aa(lp3043
I900
ag1898
aa(lp3044
I901
ag1900
aa(lp3045
I902
ag1907
aa(lp3046
I903
ag1872
aa(lp3047
I904
ag1883
aaaa(lp3048
I906
aI909
ag663
a(lp3049
(lp3050
I906
ag1912
aa(lp3051
I907
ag1914
aa(lp3052
I908
ag1883
aa(lp3053
I909
ag1940
aaaa(lp3054
I912
aI913
aS'it'
p3055
a(lp3056
(lp3057
I912
ag1914
aa(lp3058
I913
ag1885
aaaa(lp3059
I915
aI916
aS'is'
p3060
a(lp3061
(lp3062
I915
ag1914
aa(lp3063
I916
ag1968
aaaa(lp3064
I918
aI920
aS'the'
p3065
a(lp3066
(lp3067
I918
ag1885
aa(lp3068
I919
ag1917
aa(lp3069
I920
ag1872
aaaa(lp3070
I922
aI928
ag672
a(lp3071
(lp3072
I922
ag1876
aa(lp3073
I923
ag1879
aa(lp3074
I924
ag1904
aa(lp3075
I925
ag1968
aa(lp3076
I926
ag1872
aa(lp3077
I927
ag1968
aa(lp3078
I928
ag1885
aaaa(lp3079
I930
aI931
aS'to'
p3080
a(lp3081
(lp3082
I930
ag1885
aa(lp3083
I931
ag1904
aaaa(lp3084
I933
aI935
aS'the'
p3085
a(lp3086
(lp3087
I933
ag1885
aa(lp3088
I934
ag1917
aa(lp3089
I935
ag1872
aaaa(lp3090
I937
aI942
ag681
a(lp3091
(lp3092
I937
ag1876
aa(lp3093
I938
ag1898
aa(lp3094
I939
ag1968
aa(lp3095
I940
ag1914
aa(lp3096
I941
ag1883
aa(lp3097
I942
ag1904
aaaa(lp3098
I944
aI946
aS'and'
p3099
a(lp3100
(lp3101
I944
ag1898
aa(lp3102
I945
ag1883
aa(lp3103
I946
ag1907
aaaa(lp3104
I948
aI951
aS'with'
p3105
a(lp3106
(lp3107
I948
ag1912
aa(lp3108
I949
ag1914
aa(lp3109
I950
ag1885
aa(lp3110
I951
ag1917
aaaa(lp3111
I953
aI955
aS'the'
p3112
a(lp3113
(lp3114
I953
ag1885
aa(lp3115
I954
ag1917
aa(lp3116
I955
ag1872
aaaa(lp3117
I957
aI963
ag690
a(lp3118
(lp3119
I957
ag1968
aa(lp3120
I958
ag1872
aa(lp3121
I959
ag1900
aa(lp3122
I960
ag1949
aa(lp3123
I961
ag1914
aa(lp3124
I962
ag1876
aa(lp3125
I963
ag1872
aaaa(lp3126
I965
aI973
ag699
a(lp3127
(lp3128
I965
ag1872
aa(lp3129
I966
ag1879
aa(lp3130
I967
ag1872
aa(lp3131
I968
ag1949
aa(lp3132
I969
ag1898
aa(lp3133
I970
ag1885
aa(lp3134
I971
ag1904
aa(lp3135
I972
ag1900
aa(lp3136
I973
ag1968
aaaa(lp3137
I976
aI978
ag708
a(lp3138
(lp3139
I976
ag1898
aa(lp3140
I977
ag1968
aa(lp3141
I978
ag2218
aaaa(lp3142
I980
aI984
aS'where'
p3143
a(lp3144
(lp3145
I980
ag1912
aa(lp3146
I981
ag1917
aa(lp3147
I982
ag1872
aa(lp3148
I983
ag1900
aa(lp3149
I984
ag1872
aaaa(lp3150
I986
aI989
aS'they'
p3151
a(lp3152
(lp3153
I986
ag1885
aa(lp3154
I987
ag1917
aa(lp3155
I988
ag1872
aa(lp3156
I989
ag1895
aaaa(lp3157
I991
aI993
aS'are'
p3158
a(lp3159
(lp3160
I991
ag1898
aa(lp3161
I992
ag1900
aa(lp3162
I993
ag1872
aaaa(lp3163
I996
aI997
aS'it'
p3164
a(lp3165
(lp3166
I996
ag1914
aa(lp3167
I997
ag1885
aaaa(lp3168
I999
aI1000
aS'is'
p3169
a(lp3170
(lp3171
I999
ag1914
aa(lp3172
I1000
ag1968
aaaa(lp3173
I1002
aI1004
aS'not'
p3174
a(lp3175
(lp3176
I1002
ag1883
aa(lp3177
I1003
ag1904
aa(lp3178
I1004
ag1885
aaaa(lp3179
I1006
aI1006
ag1898
a(lp3180
(lp3181
I1006
ag1898
aaaa(lp3182
I1008
aI1011
aS'very'
p3183
a(lp3184
(lp3185
I1008
ag1949
aa(lp3186
I1009
ag1872
aa(lp3187
I1010
ag1900
aa(lp3188
I1011
ag1895
aaaa(lp3189
I1013
aI1015
ag717
a(lp3190
(lp3191
I1013
ag1959
aa(lp3192
I1014
ag1898
aa(lp3193
I1015
ag1900
aaaa(lp3194
I1017
aI1020
ag726
a(lp3195
(lp3196
I1017
ag1912
aa(lp3197
I1018
ag1898
aa(lp3198
I1019
ag1879
aa(lp3199
I1020
ag2218
aaaa(lp3200
I1022
aI1023
aS'at'
p3201
a(lp3202
(lp3203
I1022
ag1898
aa(lp3204
I1023
ag1885
aaaa(lp3205
I1025
aI1027
aS'all'
p3206
a(lp3207
(lp3208
I1025
ag1898
aa(lp3209
I1026
ag1879
aa(lp3210
I1027
ag1879
aaaa(lp3211
I1030
aI1031
aS'we'
p3212
a(lp3213
(lp3214
I1030
ag1912
aa(lp3215
I1031
ag1872
aaaa(lp3216
I1033
aI1036
aS'have'
p3217
a(lp3218
(lp3219
I1033
ag1917
aa(lp3220
I1034
ag1898
aa(lp3221
I1035
ag1949
aa(lp3222
I1036
ag1872
aaaa(lp3223
I1038
aI1042
ag735
a(lp3224
(lp3225
I1038
ag1959
aa(lp3226
I1039
ag1904
aa(lp3227
I1040
ag1937
aa(lp3228
I1041
ag1883
aa(lp3229
I1042
ag1907
aaaa(lp3230
I1044
aI1046
aS'the'
p3231
a(lp3232
(lp3233
I1044
ag1885
aa(lp3234
I1045
ag1917
aa(lp3235
I1046
ag1872
aaaa(lp3236
I1048
aI1052
ag744
a(lp3237
(lp3238
I1048
ag1968
aa(lp3239
I1049
ag1885
aa(lp3240
I1050
ag1898
aa(lp3241
I1051
ag1959
aa(lp3242
I1052
ag1959
aaaa(lp3243
I1054
aI1057
aS'very'
p3244
a(lp3245
(lp3246
I1054
ag1949
aa(lp3247
I1055
ag1872
aa(lp3248
I1056
ag1900
aa(lp3249
I1057
ag1895
aaaa(lp3250
I1059
aI1066
ag753
a(lp3251
(lp3252
I1059
ag1959
aa(lp3253
I1060
ag1900
aa(lp3254
I1061
ag1914
aa(lp3255
I1062
ag1872
aa(lp3256
I1063
ag1883
aa(lp3257
I1064
ag1907
aa(lp3258
I1065
ag1879
aa(lp3259
I1066
ag1895
aaaa(lp3260
I1068
aI1070
aS'and'
p3261
a(lp3262
(lp3263
I1068
ag1898
aa(lp3264
I1069
ag1883
aa(lp3265
I1070
ag1907
aaaa(lp3266
I1072
aI1075
aS'more'
p3267
a(lp3268
(lp3269
I1072
ag1924
aa(lp3270
I1073
ag1904
aa(lp3271
I1074
ag1900
aa(lp3272
I1075
ag1872
aaaa(lp3273
I1077
aI1080
aS'than'
p3274
a(lp3275
(lp3276
I1077
ag1885
aa(lp3277
I1078
ag1917
aa(lp3278
I1079
ag1898
aa(lp3279
I1080
ag1883
aaaa(lp3280
I1082
aI1088
ag762
a(lp3281
(lp3282
I1082
ag1912
aa(lp3283
I1083
ag1914
aa(lp3284
I1084
ag1879
aa(lp3285
I1085
ag1879
aa(lp3286
I1086
ag1914
aa(lp3287
I1087
ag1883
aa(lp3288
I1088
ag1940
aaaa(lp3289
I1090
aI1091
aS'to'
p3290
a(lp3291
(lp3292
I1090
ag1885
aa(lp3293
I1091
ag1904
aaaa(lp3294
I1093
aI1098
ag771
a(lp3295
(lp3296
I1093
ag1898
aa(lp3297
I1094
ag1883
aa(lp3298
I1095
ag1968
aa(lp3299
I1096
ag1912
aa(lp3300
I1097
ag1872
aa(lp3301
I1098
ag1900
aaaa(lp3302
I1100
aI1108
ag780
a(lp3303
(lp3304
I1100
ag3029
aa(lp3305
I1101
ag1937
aa(lp3306
I1102
ag1872
aa(lp3307
I1103
ag1968
aa(lp3308
I1104
ag1885
aa(lp3309
I1105
ag1914
aa(lp3310
I1106
ag1904
aa(lp3311
I1107
ag1883
aa(lp3312
I1108
ag1968
aaaa(lp3313
I1110
aI1112
aS'and'
p3314
a(lp3315
(lp3316
I1110
ag1898
aa(lp3317
I1111
ag1883
aa(lp3318
I1112
ag1907
aaaa(lp3319
I1114
aI1117
ag789
a(lp3320
(lp3321
I1114
ag1885
aa(lp3322
I1115
ag1898
aa(lp3323
I1116
ag1879
aa(lp3324
I1117
ag2218
aaaa(lp3325
I1119
aI1122
aS'with'
p3326
a(lp3327
(lp3328
I1119
ag1912
aa(lp3329
I1120
ag1914
aa(lp3330
I1121
ag1885
aa(lp3331
I1122
ag1917
aaaa(lp3332
I1124
aI1125
ag798
a(lp3333
(lp3334
I1124
ag1937
aa(lp3335
I1125
ag1968
aaaa(lp3336
I1127
aI1131
aS'about'
p3337
a(lp3338
(lp3339
I1127
ag1898
aa(lp3340
I1128
ag1935
aa(lp3341
I1129
ag1904
aa(lp3342
I1130
ag1937
aa(lp3343
I1131
ag1885
aaaa(lp3344
I1133
aI1135
aS'the'
p3345
a(lp3346
(lp3347
I1133
ag1885
aa(lp3348
I1134
ag1917
aa(lp3349
I1135
ag1872
aaaa(lp3350
I1137
aI1143
ag807
a(lp3351
(lp3352
I1137
ag1917
aa(lp3353
I1138
ag1914
aa(lp3354
I1139
ag1968
aa(lp3355
I1140
ag1885
aa(lp3356
I1141
ag1904
aa(lp3357
I1142
ag1900
aa(lp3358
I1143
ag1895
aaaa(lp3359
I1145
aI1146
aS'of'
p3360
a(lp3361
(lp3362
I1145
ag1904
aa(lp3363
I1146
ag1959
aaaa(lp3364
I1148
aI1150
aS'the'
p3365
a(lp3366
(lp3367
I1148
ag1885
aa(lp3368
I1149
ag1917
aa(lp3369
I1150
ag1872
aaaa(lp3370
I1152
aI1157
ag816
a(lp3371
(lp3372
I1152
ag1917
aa(lp3373
I1153
ag1904
aa(lp3374
I1154
ag1885
aa(lp3375
I1155
ag1872
aa(lp3376
I1156
ag1879
aa(lp3377
I1157
ag1968
aaaa(lp3378
I1160
aI1164
ag825
a(lp3379
(lp3380
I1160
ag1968
aa(lp3381
I1161
ag1914
aa(lp3382
I1162
ag1883
aa(lp3383
I1163
ag1876
aa(lp3384
I1164
ag1872
aaaa(lp3385
I1166
aI1167
aS'we'
p3386
a(lp3387
(lp3388
I1166
ag1912
aa(lp3389
I1167
ag1872
aaaa(lp3390
I1169
aI1172
ag834
a(lp3391
(lp3392
I1169
ag1879
aa(lp3393
I1170
ag1914
aa(lp3394
I1171
ag2218
aa(lp3395
I1172
ag1872
aaaa(lp3396
I1174
aI1175
aS'to'
p3397
a(lp3398
(lp3399
I1174
ag1885
aa(lp3400
I1175
ag1904
aaaa(lp3401
I1177
aI1181
ag843
a(lp3402
(lp3403
I1177
ag1968
aa(lp3404
I1178
ag1879
aa(lp3405
I1179
ag1872
aa(lp3406
I1180
ag1872
aa(lp3407
I1181
ag2348
aaaa(lp3408
I1183
aI1184
aS'in'
p3409
a(lp3410
(lp3411
I1183
ag1914
aa(lp3412
I1184
ag1883
aaaa(lp3413
I1186
aI1190
aS'while'
p3414
a(lp3415
(lp3416
I1186
ag1912
aa(lp3417
I1187
ag1917
aa(lp3418
I1188
ag1914
aa(lp3419
I1189
ag1879
aa(lp3420
I1190
ag1872
aaaa(lp3421
I1192
aI1193
aS'we'
p3422
a(lp3423
(lp3424
I1192
ag1912
aa(lp3425
I1193
ag1872
aaaa(lp3426
I1195
aI1197
aS'are'
p3427
a(lp3428
(lp3429
I1195
ag1898
aa(lp3430
I1196
ag1900
aa(lp3431
I1197
ag1872
aaaa(lp3432
I1199
aI1202
ag852
a(lp3433
(lp3434
I1199
ag1898
aa(lp3435
I1200
ag1912
aa(lp3436
I1201
ag1898
aa(lp3437
I1202
ag1895
aaaa(lp3438
I1204
aI1205
aS'we'
p3439
a(lp3440
(lp3441
I1204
ag1912
aa(lp3442
I1205
ag1872
aaaa(lp3443
I1207
aI1213
ag861
a(lp3444
(lp3445
I1207
ag1937
aa(lp3446
I1208
ag1968
aa(lp3447
I1209
ag1937
aa(lp3448
I1210
ag1898
aa(lp3449
I1211
ag1879
aa(lp3450
I1212
ag1879
aa(lp3451
I1213
ag1895
aaaa(lp3452
I1215
aI1216
aS'do'
p3453
a(lp3454
(lp3455
I1215
ag1907
aa(lp3456
I1216
ag1904
aaaa(lp3457
I1218
aI1220
aS'not'
p3458
a(lp3459
(lp3460
I1218
ag1883
aa(lp3461
I1219
ag1904
aa(lp3462
I1220
ag1885
aaaa(lp3463
I1222
aI1225
aS'have'
p3464
a(lp3465
(lp3466
I1222
ag1917
aa(lp3467
I1223
ag1898
aa(lp3468
I1224
ag1949
aa(lp3469
I1225
ag1872
aaaa(lp3470
I1227
aI1229
aS'our'
p3471
a(lp3472
(lp3473
I1227
ag1904
aa(lp3474
I1228
ag1937
aa(lp3475
I1229
ag1900
aaaa(lp3476
I1231
aI1234
ag870
a(lp3477
(lp3478
I1231
ag1900
aa(lp3479
I1232
ag1904
aa(lp3480
I1233
ag1904
aa(lp3481
I1234
ag1924
aaaa(lp3482
I1236
aI1242
ag879
a(lp3483
(lp3484
I1236
ag1876
aa(lp3485
I1237
ag1879
aa(lp3486
I1238
ag1872
aa(lp3487
I1239
ag1898
aa(lp3488
I1240
ag1883
aa(lp3489
I1241
ag1872
aa(lp3490
I1242
ag1907
aaaa(lp3491
I1244
aI1248
ag888
a(lp3492
(lp3493
I1244
ag1872
aa(lp3494
I1245
ag1949
aa(lp3495
I1246
ag1872
aa(lp3496
I1247
ag1900
aa(lp3497
I1248
ag1895
aaaa(lp3498
I1250
aI1252
ag897
a(lp3499
(lp3500
I1250
ag1907
aa(lp3501
I1251
ag1898
aa(lp3502
I1252
ag1895
aaaa(lp3503
I1255
aI1258
aS'once'
p3504
a(lp3505
(lp3506
I1255
ag1904
aa(lp3507
I1256
ag1883
aa(lp3508
I1257
ag1876
aa(lp3509
I1258
ag1872
aaaa(lp3510
I1260
aI1264
aS'while'
p3511
a(lp3512
(lp3513
I1260
ag1912
aa(lp3514
I1261
ag1917
aa(lp3515
I1262
ag1914
aa(lp3516
I1263
ag1879
aa(lp3517
I1264
ag1872
aaaa(lp3518
I1266
aI1267
aS'we'
p3519
a(lp3520
(lp3521
I1266
ag1912
aa(lp3522
I1267
ag1872
aaaa(lp3523
I1269
aI1271
aS'are'
p3524
a(lp3525
(lp3526
I1269
ag1898
aa(lp3527
I1270
ag1900
aa(lp3528
I1271
ag1872
aaaa(lp3529
I1273
aI1277
aS'there'
p3530
a(lp3531
(lp3532
I1273
ag1885
aa(lp3533
I1274
ag1917
aa(lp3534
I1275
ag1872
aa(lp3535
I1276
ag1900
aa(lp3536
I1277
ag1872
aaaa(lp3537
I1279
aI1280
aS'is'
p3538
a(lp3539
(lp3540
I1279
ag1914
aa(lp3541
I1280
ag1968
aaaa(lp3542
I1282
aI1287
ag906
a(lp3543
(lp3544
I1282
ag1872
aa(lp3545
I1283
ag1883
aa(lp3546
I1284
ag1904
aa(lp3547
I1285
ag1937
aa(lp3548
I1286
ag1940
aa(lp3549
I1287
ag1917
aaaa(lp3550
I1290
aI1290
ag1914
a(lp3551
(lp3552
I1290
ag1914
aaaa(lp3553
I1292
aI1295
aS'just'
p3554
a(lp3555
(lp3556
I1292
aS'j'
p3557
aa(lp3558
I1293
ag1937
aa(lp3559
I1294
ag1968
aa(lp3560
I1295
ag1885
aaaa(lp3561
I1297
aI1299
ag915
a(lp3562
(lp3563
I1297
ag1898
aa(lp3564
I1298
ag1968
aa(lp3565
I1299
ag2218
aaaa(lp3566
I1301
aI1303
aS'for'
p3567
a(lp3568
(lp3569
I1301
ag1959
aa(lp3570
I1302
ag1904
aa(lp3571
I1303
ag1900
aaaa(lp3572
I1305
aI1309
ag924
a(lp3573
(lp3574
I1305
ag1872
aa(lp3575
I1306
ag1874
aa(lp3576
I1307
ag1885
aa(lp3577
I1308
ag1900
aa(lp3578
I1309
ag1898
aaaa(lp3579
I1311
aI1316
ag933
a(lp3580
(lp3581
I1311
ag1885
aa(lp3582
I1312
ag1904
aa(lp3583
I1313
ag1912
aa(lp3584
I1314
ag1872
aa(lp3585
I1315
ag1879
aa(lp3586
I1316
ag1968
aaaa(lp3587
I1318
aI1320
aS'and'
p3588
a(lp3589
(lp3590
I1318
ag1898
aa(lp3591
I1319
ag1883
aa(lp3592
I1320
ag1907
aaaa(lp3593
I1322
aI1327
ag942
a(lp3594
(lp3595
I1322
ag1876
aa(lp3596
I1323
ag1904
aa(lp3597
I1324
ag1959
aa(lp3598
I1325
ag1959
aa(lp3599
I1326
ag1872
aa(lp3600
I1327
ag1872
aaaa(lp3601
I1330
aI1332
aS'the'
p3602
a(lp3603
(lp3604
I1330
ag1885
aa(lp3605
I1331
ag1917
aa(lp3606
I1332
ag1872
aaaa(lp3607
I1334
aI1338
ag951
a(lp3608
(lp3609
I1334
ag1959
aa(lp3610
I1335
ag1879
aa(lp3611
I1336
ag1904
aa(lp3612
I1337
ag1904
aa(lp3613
I1338
ag1900
aaaa(lp3614
I1340
aI1343
ag960
a(lp3615
(lp3616
I1340
ag1924
aa(lp3617
I1341
ag1898
aa(lp3618
I1342
ag1914
aa(lp3619
I1343
ag1907
aaaa(lp3620
I1345
aI1346
aS'is'
p3621
a(lp3622
(lp3623
I1345
ag1914
aa(lp3624
I1346
ag1968
aaaa(lp3625
I1348
aI1354
ag969
a(lp3626
(lp3627
I1348
ag1937
aa(lp3628
I1349
ag1968
aa(lp3629
I1350
ag1937
aa(lp3630
I1351
ag1898
aa(lp3631
I1352
ag1879
aa(lp3632
I1353
ag1879
aa(lp3633
I1354
ag1895
aaaa(lp3634
I1356
aI1362
ag978
a(lp3635
(lp3636
I1356
ag1912
aa(lp3637
I1357
ag1898
aa(lp3638
I1358
ag1914
aa(lp3639
I1359
ag1885
aa(lp3640
I1360
ag1914
aa(lp3641
I1361
ag1883
aa(lp3642
I1362
ag1940
aaaa(lp3643
I1364
aI1365
aS'in'
p3644
a(lp3645
(lp3646
I1364
ag1914
aa(lp3647
I1365
ag1883
aaaa(lp3648
I1367
aI1369
aS'the'
p3649
a(lp3650
(lp3651
I1367
ag1885
aa(lp3652
I1368
ag1917
aa(lp3653
I1369
ag1872
aaaa(lp3654
I1371
aI1374
ag987
a(lp3655
(lp3656
I1371
ag1917
aa(lp3657
I1372
ag1898
aa(lp3658
I1373
ag1879
aa(lp3659
I1374
ag1879
aaaa(lp3660
I1376
aI1377
aS'or'
p3661
a(lp3662
(lp3663
I1376
ag1904
aa(lp3664
I1377
ag1900
aaaa(lp3665
I1379
aI1380
aS'is'
p3666
a(lp3667
(lp3668
I1379
ag1914
aa(lp3669
I1380
ag1968
aaaa(lp3670
I1382
aI1386
ag996
a(lp3671
(lp3672
I1382
ag1876
aa(lp3673
I1383
ag1879
aa(lp3674
I1384
ag1904
aa(lp3675
I1385
ag1968
aa(lp3676
I1386
ag1872
aaaa(lp3677
I1388
aI1389
aS'by'
p3678
a(lp3679
(lp3680
I1388
ag1935
aa(lp3681
I1389
ag1895
aaaa(lp3682
I1391
aI1394
aS'when'
p3683
a(lp3684
(lp3685
I1391
ag1912
aa(lp3686
I1392
ag1917
aa(lp3687
I1393
ag1872
aa(lp3688
I1394
ag1883
aaaa(lp3689
I1396
aI1397
aS'we'
p3690
a(lp3691
(lp3692
I1396
ag1912
aa(lp3693
I1397
ag1872
aaaa(lp3694
I1399
aI1403
ag1005
a(lp3695
(lp3696
I1399
ag1879
aa(lp3697
I1400
ag1872
aa(lp3698
I1401
ag1898
aa(lp3699
I1402
ag1949
aa(lp3700
I1403
ag1872
aaaa(lp3701
I1405
aI1407
aS'our'
p3702
a(lp3703
(lp3704
I1405
ag1904
aa(lp3705
I1406
ag1937
aa(lp3706
I1407
ag1900
aaaa(lp3707
I1409
aI1412
ag1014
a(lp3708
(lp3709
I1409
ag1900
aa(lp3710
I1410
ag1904
aa(lp3711
I1411
ag1904
aa(lp3712
I1412
ag1924
aaaa(lp3713
I1414
aI1418
aS'after'
p3714
a(lp3715
(lp3716
I1414
ag1898
aa(lp3717
I1415
ag1959
aa(lp3718
I1416
ag1885
aa(lp3719
I1417
ag1872
aa(lp3720
I1418
ag1900
aaaa(lp3721
I1420
aI1424
ag1023
a(lp3722
(lp3723
I1420
ag1879
aa(lp3724
I1421
ag1937
aa(lp3725
I1422
ag1883
aa(lp3726
I1423
ag1876
aa(lp3727
I1424
ag1917
aaaa(lp3728
I1426
aI1428
aS'and'
p3729
a(lp3730
(lp3731
I1426
ag1898
aa(lp3732
I1427
ag1883
aa(lp3733
I1428
ag1907
aaaa(lp3734
I1430
aI1435
ag1032
a(lp3735
(lp3736
I1430
ag1898
aa(lp3737
I1431
ag1879
aa(lp3738
I1432
ag1912
aa(lp3739
I1433
ag1898
aa(lp3740
I1434
ag1895
aa(lp3741
I1435
ag1968
aaaa(lp3742
I1437
aI1440
ag1041
a(lp3743
(lp3744
I1437
ag1898
aa(lp3745
I1438
ag1968
aa(lp3746
I1439
ag2218
aa(lp3747
I1440
ag1968
aaaa(lp3748
I1442
aI1443
aS'if'
p3749
a(lp3750
(lp3751
I1442
ag1914
aa(lp3752
I1443
ag1959
aaaa(lp3753
I1445
aI1446
aS'we'
p3754
a(lp3755
(lp3756
I1445
ag1912
aa(lp3757
I1446
ag1872
aaaa(lp3758
I1448
aI1451
ag1050
a(lp3759
(lp3760
I1448
ag1883
aa(lp3761
I1449
ag1872
aa(lp3762
I1450
ag1872
aa(lp3763
I1451
ag1907
aaaa(lp3764
I1453
aI1460
ag1059
a(lp3765
(lp3766
I1453
ag1898
aa(lp3767
I1454
ag1883
aa(lp3768
I1455
ag1895
aa(lp3769
I1456
ag1885
aa(lp3770
I1457
ag1917
aa(lp3771
I1458
ag1914
aa(lp3772
I1459
ag1883
aa(lp3773
I1460
ag1940
aaaa(lp3774
I1463
aI1466
aS'this'
p3775
a(lp3776
(lp3777
I1463
ag1885
aa(lp3778
I1464
ag1917
aa(lp3779
I1465
ag1914
aa(lp3780
I1466
ag1968
aaaa(lp3781
I1468
aI1469
aS'is'
p3782
a(lp3783
(lp3784
I1468
ag1914
aa(lp3785
I1469
ag1968
aaaa(lp3786
I1471
aI1471
ag1898
a(lp3787
(lp3788
I1471
ag1898
aaaa(lp3789
I1473
aI1483
ag1068
a(lp3790
(lp3791
I1473
ag1907
aa(lp3792
I1474
ag1872
aa(lp3793
I1475
ag1968
aa(lp3794
I1476
ag1885
aa(lp3795
I1477
ag1914
aa(lp3796
I1478
ag1883
aa(lp3797
I1479
ag1898
aa(lp3798
I1480
ag1885
aa(lp3799
I1481
ag1914
aa(lp3800
I1482
ag1904
aa(lp3801
I1483
ag1883
aaaa(lp3802
I1485
aI1489
ag1077
a(lp3803
(lp3804
I1485
ag1917
aa(lp3805
I1486
ag1904
aa(lp3806
I1487
ag1885
aa(lp3807
I1488
ag1872
aa(lp3808
I1489
ag1879
aaaa(lp3809
I1491
aI1493
aS'and'
p3810
a(lp3811
(lp3812
I1491
ag1898
aa(lp3813
I1492
ag1883
aa(lp3814
I1493
ag1907
aaaa(lp3815
I1495
aI1497
aS'you'
p3816
a(lp3817
(lp3818
I1495
ag1895
aa(lp3819
I1496
ag1904
aa(lp3820
I1497
ag1937
aaaa(lp3821
I1499
aI1502
ag1086
a(lp3822
(lp3823
I1499
ag1883
aa(lp3824
I1500
ag1872
aa(lp3825
I1501
ag1872
aa(lp3826
I1502
ag1907
aaaa(lp3827
I1504
aI1505
aS'to'
p3828
a(lp3829
(lp3830
I1504
ag1885
aa(lp3831
I1505
ag1904
aaaa(lp3832
I1507
aI1510
ag1095
a(lp3833
(lp3834
I1507
ag1885
aa(lp3835
I1508
ag1898
aa(lp3836
I1509
ag2218
aa(lp3837
I1510
ag1872
aaaa(lp3838
I1512
aI1515
ag1104
a(lp3839
(lp3840
I1512
ag1885
aa(lp3841
I1513
ag1914
aa(lp3842
I1514
ag1924
aa(lp3843
I1515
ag1872
aaaa(lp3844
I1517
aI1519
aS'and'
p3845
a(lp3846
(lp3847
I1517
ag1898
aa(lp3848
I1518
ag1883
aa(lp3849
I1519
ag1907
aaaa(lp3850
I1521
aI1527
ag1113
a(lp3851
(lp3852
I1521
ag1872
aa(lp3853
I1522
ag1874
aa(lp3854
I1523
ag2348
aa(lp3855
I1524
ag1879
aa(lp3856
I1525
ag1904
aa(lp3857
I1526
ag1900
aa(lp3858
I1527
ag1872
aaaa(lp3859
I1529
aI1531
aS'the'
p3860
a(lp3861
(lp3862
I1529
ag1885
aa(lp3863
I1530
ag1917
aa(lp3864
I1531
ag1872
aaaa(lp3865
I1533
aI1537
ag1122
a(lp3866
(lp3867
I1533
ag1917
aa(lp3868
I1534
ag1904
aa(lp3869
I1535
ag1885
aa(lp3870
I1536
ag1872
aa(lp3871
I1537
ag1879
aaaa(lp3872
I1540
aI1546
ag1131
a(lp3873
(lp3874
I1540
ag1940
aa(lp3875
I1541
ag1900
aa(lp3876
I1542
ag1904
aa(lp3877
I1543
ag1937
aa(lp3878
I1544
ag1883
aa(lp3879
I1545
ag1907
aa(lp3880
I1546
ag1968
aaaa(lp3881
I1549
aI1551
aS'and'
p3882
a(lp3883
(lp3884
I1549
ag1898
aa(lp3885
I1550
ag1883
aa(lp3886
I1551
ag1907
aaaa(lp3887
I1553
aI1556
ag1140
a(lp3888
(lp3889
I1553
ag1885
aa(lp3890
I1554
ag1904
aa(lp3891
I1555
ag1912
aa(lp3892
I1556
ag1883
aaaa(lp3893
I1559
aI1560
aS'we'
p3894
a(lp3895
(lp3896
I1559
ag1912
aa(lp3897
I1560
ag1872
aaaa(lp3898
I1562
aI1566
ag1149
a(lp3899
(lp3900
I1562
ag1883
aa(lp3901
I1563
ag1872
aa(lp3902
I1564
ag1949
aa(lp3903
I1565
ag1872
aa(lp3904
I1566
ag1900
aaaa(lp3905
I1568
aI1571
ag1158
a(lp3906
(lp3907
I1568
ag1968
aa(lp3908
I1569
ag1885
aa(lp3909
I1570
ag1898
aa(lp3910
I1571
ag1895
aaaa(lp3911
I1573
aI1576
ag1167
a(lp3912
(lp3913
I1573
ag1879
aa(lp3914
I1574
ag1872
aa(lp3915
I1575
ag1968
aa(lp3916
I1576
ag1968
aaaa(lp3917
I1578
aI1581
aS'than'
p3918
a(lp3919
(lp3920
I1578
ag1885
aa(lp3921
I1579
ag1917
aa(lp3922
I1580
ag1898
aa(lp3923
I1581
ag1883
aaaa(lp3924
I1583
aI1583
ag87
a(lp3925
(lp3926
I1583
ag87
aaaa(lp3927
I1585
aI1588
ag1184
a(lp3928
(lp3929
I1585
ag1907
aa(lp3930
I1586
ag1898
aa(lp3931
I1587
ag1895
aa(lp3932
I1588
ag1968
aaaa(lp3933
I1591
aI1592
aS'in'
p3934
a(lp3935
(lp3936
I1591
ag1914
aa(lp3937
I1592
ag1883
aaaa(lp3938
I1594
aI1597
aS'this'
p3939
a(lp3940
(lp3941
I1594
ag1885
aa(lp3942
I1595
ag1917
aa(lp3943
I1596
ag1914
aa(lp3944
I1597
ag1968
aaaa(lp3945
I1599
aI1601
ag1193
a(lp3946
(lp3947
I1599
ag1907
aa(lp3948
I1600
ag1898
aa(lp3949
I1601
ag1895
aaaa(lp3950
I1603
aI1605
aS'and'
p3951
a(lp3952
(lp3953
I1603
ag1898
aa(lp3954
I1604
ag1883
aa(lp3955
I1605
ag1907
aaaa(lp3956
I1607
aI1609
ag1202
a(lp3957
(lp3958
I1607
ag1898
aa(lp3959
I1608
ag1940
aa(lp3960
I1609
ag1872
aaaa(lp3961
I1611
aI1616
ag1211
a(lp3962
(lp3963
I1611
ag2348
aa(lp3964
I1612
ag1872
aa(lp3965
I1613
ag1904
aa(lp3966
I1614
ag2348
aa(lp3967
I1615
ag1879
aa(lp3968
I1616
ag1872
aaaa(lp3969
I1618
aI1622
ag1220
a(lp3970
(lp3971
I1618
ag1907
aa(lp3972
I1619
ag1904
aa(lp3973
I1620
ag1883
aa(lp3974
I1622
ag1885
aaaa(lp3975
I1624
aI1627
ag1229
a(lp3976
(lp3977
I1624
ag2218
aa(lp3978
I1625
ag1883
aa(lp3979
I1626
ag1904
aa(lp3980
I1627
ag1912
aaaa(lp3981
I1629
aI1631
aS'how'
p3982
a(lp3983
(lp3984
I1629
ag1917
aa(lp3985
I1630
ag1904
aa(lp3986
I1631
ag1912
aaaa(lp3987
I1633
aI1634
aS'to'
p3988
a(lp3989
(lp3990
I1633
ag1885
aa(lp3991
I1634
ag1904
aaaa(lp3992
I1636
aI1639
ag1238
a(lp3993
(lp3994
I1636
ag1968
aa(lp3995
I1637
ag1879
aa(lp3996
I1638
ag1904
aa(lp3997
I1639
ag1912
aaaa(lp3998
I1641
aI1644
aS'down'
p3999
a(lp4000
(lp4001
I1641
ag1907
aa(lp4002
I1642
ag1904
aa(lp4003
I1643
ag1912
aa(lp4004
I1644
ag1883
aaaa(lp4005
I1646
aI1648
aS'and'
p4006
a(lp4007
(lp4008
I1646
ag1898
aa(lp4009
I1647
ag1883
aa(lp4010
I1648
ag1907
aaaa(lp4011
I1650
aI1653
ag1247
a(lp4012
(lp4013
I1650
ag1885
aa(lp4014
I1651
ag1898
aa(lp4015
I1652
ag2218
aa(lp4016
I1653
ag1872
aaaa(lp4017
I1655
aI1656
aS'in'
p4018
a(lp4019
(lp4020
I1655
ag1914
aa(lp4021
I1656
ag1883
aaaa(lp4022
I1658
aI1660
aS'the'
p4023
a(lp4024
(lp4025
I1658
ag1885
aa(lp4026
I1659
ag1917
aa(lp4027
I1660
ag1872
aaaa(lp4028
I1662
aI1671
ag1256
a(lp4029
(lp4030
I1662
ag1898
aa(lp4031
I1663
ag1885
aa(lp4032
I1664
ag1924
aa(lp4033
I1665
ag1904
aa(lp4034
I1666
ag1968
aa(lp4035
I1667
ag2348
aa(lp4036
I1668
ag1917
aa(lp4037
I1669
ag1872
aa(lp4038
I1670
ag1900
aa(lp4039
I1671
ag1872
aaaa(lp4040
I1673
aI1675
aS'and'
p4041
a(lp4042
(lp4043
I1673
ag1898
aa(lp4044
I1674
ag1883
aa(lp4045
I1675
ag1907
aaaa(lp4046
I1677
aI1683
ag1265
a(lp4047
(lp4048
I1677
ag1917
aa(lp4049
I1678
ag1914
aa(lp4050
I1679
ag1968
aa(lp4051
I1680
ag1885
aa(lp4052
I1681
ag1904
aa(lp4053
I1682
ag1900
aa(lp4054
I1683
ag1895
aaaa(lp4055
I1685
aI1686
aS'of'
p4056
a(lp4057
(lp4058
I1685
ag1904
aa(lp4059
I1686
ag1959
aaaa(lp4060
I1688
aI1688
ag1898
a(lp4061
(lp4062
I1688
ag1898
aaaa(lp4063
I1690
aI1694
ag1274
a(lp4064
(lp4065
I1690
ag1940
aa(lp4066
I1691
ag1900
aa(lp4067
I1692
ag1898
aa(lp4068
I1693
ag1883
aa(lp4069
I1694
ag1907
aaaa(lp4070
I1696
aI1700
ag1283
a(lp4071
(lp4072
I1696
ag1917
aa(lp4073
I1697
ag1904
aa(lp4074
I1698
ag1885
aa(lp4075
I1699
ag1872
aa(lp4076
I1700
ag1879
aaaa(lp4077
I1702
aI1705
aS'from'
p4078
a(lp4079
(lp4080
I1702
ag1959
aa(lp4081
I1703
ag1900
aa(lp4082
I1704
ag1904
aa(lp4083
I1705
ag1924
aaaa(lp4084
I1707
aI1709
aS'the'
p4085
a(lp4086
(lp4087
I1707
ag1885
aa(lp4088
I1708
ag1917
aa(lp4089
I1709
ag1872
aaaa(lp4090
I1711
aI1714
ag1292
a(lp4091
(lp4092
I1711
ag2348
aa(lp4093
I1712
ag1898
aa(lp4094
I1713
ag1968
aa(lp4095
I1714
ag1885
aaaa(lp4096
I1717
aI1718
aS'my'
p4097
a(lp4098
(lp4099
I1717
ag1924
aa(lp4100
I1718
ag1895
aaaa(lp4101
I1720
aI1726
ag1301
a(lp4102
(lp4103
I1720
ag1917
aa(lp4104
I1721
ag1937
aa(lp4105
I1722
ag1968
aa(lp4106
I1723
ag1935
aa(lp4107
I1724
ag1898
aa(lp4108
I1725
ag1883
aa(lp4109
I1726
ag1907
aaaa(lp4110
I1728
aI1730
aS'and'
p4111
a(lp4112
(lp4113
I1728
ag1898
aa(lp4114
I1729
ag1883
aa(lp4115
I1730
ag1907
aaaa(lp4116
I1732
aI1732
ag1914
a(lp4117
(lp4118
I1732
ag1914
aaaa(lp4119
I1734
aI1736
aS'are'
p4120
a(lp4121
(lp4122
I1734
ag1898
aa(lp4123
I1735
ag1900
aa(lp4124
I1736
ag1872
aaaa(lp4125
I1738
aI1739
aS'in'
p4126
a(lp4127
(lp4128
I1738
ag1914
aa(lp4129
I1739
ag1883
aaaa(lp4130
I1741
aI1743
aS'our'
p4131
a(lp4132
(lp4133
I1741
ag1904
aa(lp4134
I1742
ag1937
aa(lp4135
I1743
ag1900
aaaa(lp4136
I1745
aI1748
ag1310
a(lp4137
(lp4138
I1745
ag1889
aa(lp4139
I1746
aS'0'
p4140
aa(lp4141
I1748
ag1968
aaaa(lp4142
I1750
aI1752
aS'and'
p4143
a(lp4144
(lp4145
I1750
ag1898
aa(lp4146
I1751
ag1883
aa(lp4147
I1752
ag1907
aaaa(lp4148
I1754
aI1757
aS'both'
p4149
a(lp4150
(lp4151
I1754
ag1935
aa(lp4152
I1755
ag1904
aa(lp4153
I1756
ag1885
aa(lp4154
I1757
ag1917
aaaa(lp4155
I1759
aI1762
ag1319
a(lp4156
(lp4157
I1759
ag1912
aa(lp4158
I1760
ag1904
aa(lp4159
I1761
ag1900
aa(lp4160
I1762
ag2218
aaaa(lp4161
I1765
aI1766
aS'we'
p4162
a(lp4163
(lp4164
I1765
ag1912
aa(lp4165
I1766
ag1872
aaaa(lp4166
I1768
aI1771
ag1328
a(lp4167
(lp4168
I1768
ag1879
aa(lp4169
I1769
ag1914
aa(lp4170
I1770
ag2218
aa(lp4171
I1771
ag1872
aaaa(lp4172
I1773
aI1774
aS'to'
p4173
a(lp4174
(lp4175
I1773
ag1885
aa(lp4176
I1774
ag1904
aaaa(lp4177
I1776
aI1780
ag1337
a(lp4178
(lp4179
I1776
ag1900
aa(lp4180
I1777
ag1872
aa(lp4181
I1778
ag1879
aa(lp4182
I1779
ag1898
aa(lp4183
I1780
ag1874
aaaa(lp4184
I1782
aI1785
aS'when'
p4185
a(lp4186
(lp4187
I1782
ag1912
aa(lp4188
I1783
ag1917
aa(lp4189
I1784
ag1872
aa(lp4190
I1785
ag1883
aaaa(lp4191
I1787
aI1788
aS'we'
p4192
a(lp4193
(lp4194
I1787
ag1912
aa(lp4195
I1788
ag1872
aaaa(lp4196
I1790
aI1791
ag1346
a(lp4197
(lp4198
I1790
ag1940
aa(lp4199
I1791
ag1904
aaaa(lp4200
I1793
aI1796
ag1355
a(lp4201
(lp4202
I1793
ag1898
aa(lp4203
I1794
ag1912
aa(lp4204
I1795
ag1898
aa(lp4205
I1796
ag1895
aaaa(lp4206
I1799
aI1802
ag1364
a(lp4207
(lp4208
I1799
ag1885
aa(lp4209
I1800
ag1898
aa(lp4210
I1801
ag2218
aa(lp4211
I1802
ag1872
aaaa(lp4212
I1804
aI1807
ag1373
a(lp4213
(lp4214
I1804
ag1885
aa(lp4215
I1805
ag1914
aa(lp4216
I1806
ag1924
aa(lp4217
I1807
ag1872
aaaa(lp4218
I1809
aI1810
aS'to'
p4219
a(lp4220
(lp4221
I1809
ag1885
aa(lp4222
I1810
ag1904
aaaa(lp4223
I1812
aI1814
ag1382
a(lp4224
(lp4225
I1812
ag1968
aa(lp4226
I1813
ag1914
aa(lp4227
I1814
ag1885
aaaa(lp4228
I1816
aI1817
aS'on'
p4229
a(lp4230
(lp4231
I1816
ag1904
aa(lp4232
I1817
ag1883
aaaa(lp4233
I1819
aI1821
aS'the'
p4234
a(lp4235
(lp4236
I1819
ag1885
aa(lp4237
I1820
ag1917
aa(lp4238
I1821
ag1872
aaaa(lp4239
I1823
aI1829
ag1391
a(lp4240
(lp4241
I1823
ag1949
aa(lp4242
I1824
ag1872
aa(lp4243
I1825
ag1900
aa(lp4244
I1826
ag1898
aa(lp4245
I1827
ag1883
aa(lp4246
I1828
ag1907
aa(lp4247
I1829
ag1898
aaaa(lp4248
I1831
aI1832
aS'in'
p4249
a(lp4250
(lp4251
I1831
ag1914
aa(lp4252
I1832
ag1883
aaaa(lp4253
I1834
aI1836
ag1400
a(lp4254
(lp4255
I1834
ag1904
aa(lp4256
I1835
ag1883
aa(lp4257
I1836
ag1872
aaaa(lp4258
I1838
aI1839
aS'of'
p4259
a(lp4260
(lp4261
I1838
ag1904
aa(lp4262
I1839
ag1959
aaaa(lp4263
I1841
aI1843
aS'the'
p4264
a(lp4265
(lp4266
I1841
ag1885
aa(lp4267
I1842
ag1917
aa(lp4268
I1843
ag1872
aaaa(lp4269
I1845
aI1848
ag1409
a(lp4270
(lp4271
I1845
ag1924
aa(lp4272
I1846
ag1898
aa(lp4273
I1847
ag1883
aa(lp4274
I1848
ag1895
aaaa(lp4275
I1850
aI1856
ag1418
a(lp4276
(lp4277
I1850
ag1900
aa(lp4278
I1851
ag1904
aa(lp4279
I1852
ag1876
aa(lp4280
I1853
ag2218
aa(lp4281
I1854
ag1914
aa(lp4282
I1855
ag1883
aa(lp4283
I1856
ag1940
aaaa(lp4284
I1858
aI1863
ag1427
a(lp4285
(lp4286
I1858
ag1876
aa(lp4287
I1859
ag1917
aa(lp4288
I1860
ag1898
aa(lp4289
I1861
ag1914
aa(lp4290
I1862
ag1900
aa(lp4291
I1863
ag1968
aaaa(lp4292
I1866
aI1869
ag1436
a(lp4293
(lp4294
I1866
ag1912
aa(lp4295
I1867
ag1898
aa(lp4296
I1868
ag1879
aa(lp4297
I1869
ag2218
aaaa(lp4298
I1871
aI1874
aS'down'
p4299
a(lp4300
(lp4301
I1871
ag1907
aa(lp4302
I1872
ag1904
aa(lp4303
I1873
ag1912
aa(lp4304
I1874
ag1883
aaaa(lp4305
I1876
aI1878
aS'the'
p4306
a(lp4307
(lp4308
I1876
ag1885
aa(lp4309
I1877
ag1917
aa(lp4310
I1878
ag1872
aaaa(lp4311
I1880
aI1888
ag1445
a(lp4312
(lp4313
I1880
ag2348
aa(lp4314
I1881
ag1900
aa(lp4315
I1882
ag1904
aa(lp4316
I1883
ag1924
aa(lp4317
I1884
ag1872
aa(lp4318
I1885
ag1883
aa(lp4319
I1886
ag1898
aa(lp4320
I1887
ag1907
aa(lp4321
I1888
ag1872
aaaa(lp4322
I1890
aI1892
aS'and'
p4323
a(lp4324
(lp4325
I1890
ag1898
aa(lp4326
I1891
ag1883
aa(lp4327
I1892
ag1907
aaaa(lp4328
I1894
aI1900
ag1454
a(lp4329
(lp4330
I1894
ag1872
aa(lp4331
I1895
ag1874
aa(lp4332
I1896
ag2348
aa(lp4333
I1897
ag1879
aa(lp4334
I1898
ag1904
aa(lp4335
I1899
ag1900
aa(lp4336
I1900
ag1872
aaaa(lp4337
I1902
aI1904
aS'the'
p4338
a(lp4339
(lp4340
I1902
ag1885
aa(lp4341
I1903
ag1917
aa(lp4342
I1904
ag1872
aaaa(lp4343
I1906
aI1910
ag1463
a(lp4344
(lp4345
I1906
ag1968
aa(lp4346
I1907
ag1917
aa(lp4347
I1908
ag1904
aa(lp4348
I1909
ag2348
aa(lp4349
I1910
ag1968
aaaa(lp4350
I1913
aI1914
ag1472
a(lp4351
(lp4352
I1913
ag1940
aa(lp4353
I1914
ag1904
aaaa(lp4354
I1916
aI1917
aS'to'
p4355
a(lp4356
(lp4357
I1916
ag1885
aa(lp4358
I1917
ag1904
aaaa(lp4359
I1919
aI1921
aS'the'
p4360
a(lp4361
(lp4362
I1919
ag1885
aa(lp4363
I1920
ag1917
aa(lp4364
I1921
ag1872
aaaa(lp4365
I1923
aI1927
ag1481
a(lp4366
(lp4367
I1923
ag1879
aa(lp4368
I1924
ag1904
aa(lp4369
I1925
ag1935
aa(lp4370
I1926
ag1935
aa(lp4371
I1927
ag1895
aaaa(lp4372
I1929
aI1931
aS'for'
p4373
a(lp4374
(lp4375
I1929
ag1959
aa(lp4376
I1930
ag1904
aa(lp4377
I1931
ag1900
aaaa(lp4378
I1933
aI1938
ag1490
a(lp4379
(lp4380
I1933
ag1907
aa(lp4381
I1934
ag1900
aa(lp4382
I1935
ag1914
aa(lp4383
I1936
ag1883
aa(lp4384
I1937
ag2218
aa(lp4385
I1938
ag1968
aaaa(lp4386
I1940
aI1941
aS'in'
p4387
a(lp4388
(lp4389
I1940
ag1914
aa(lp4390
I1941
ag1883
aaaa(lp4391
I1943
aI1945
aS'the'
p4392
a(lp4393
(lp4394
I1943
ag1885
aa(lp4395
I1944
ag1917
aa(lp4396
I1945
ag1872
aaaa(lp4397
I1947
aI1950
ag1499
a(lp4398
(lp4399
I1947
ag1879
aa(lp4400
I1948
ag1898
aa(lp4401
I1949
ag1885
aa(lp4402
I1950
ag1872
aaaa(lp4403
I1952
aI1960
ag1508
a(lp4404
(lp4405
I1952
ag1898
aa(lp4406
I1953
ag1959
aa(lp4407
I1954
ag1885
aa(lp4408
I1955
ag1872
aa(lp4409
I1956
ag1900
aa(lp4410
I1957
ag1883
aa(lp4411
I1958
ag1904
aa(lp4412
I1959
ag1904
aa(lp4413
I1960
ag1883
aaaa(lp4414
I1963
aI1965
aS'and'
p4415
a(lp4416
(lp4417
I1963
ag1898
aa(lp4418
I1964
ag1883
aa(lp4419
I1965
ag1907
aaaa(lp4420
I1967
aI1968
aS'by'
p4421
a(lp4422
(lp4423
I1967
ag1935
aa(lp4424
I1968
ag1895
aaaa(lp4425
I1970
aI1972
aS'all'
p4426
a(lp4427
(lp4428
I1970
ag1898
aa(lp4429
I1971
ag1879
aa(lp4430
I1972
ag1879
aaaa(lp4431
I1974
aI1978
ag1517
a(lp4432
(lp4433
I1974
ag1924
aa(lp4434
I1975
ag1872
aa(lp4435
I1976
ag1898
aa(lp4436
I1977
ag1883
aa(lp4437
I1978
ag1968
aaaa(lp4438
I1981
aI1983
ag1526
a(lp4439
(lp4440
I1981
ag1898
aa(lp4441
I1982
ag1968
aa(lp4442
I1983
ag2218
aaaa(lp4443
I1985
aI1993
ag1535
a(lp4444
(lp4445
I1985
ag3029
aa(lp4446
I1986
ag1937
aa(lp4447
I1987
ag1872
aa(lp4448
I1988
ag1968
aa(lp4449
I1989
ag1885
aa(lp4450
I1990
ag1914
aa(lp4451
I1991
ag1904
aa(lp4452
I1992
ag1883
aa(lp4453
I1993
ag1968
aaaa(lp4454
I1996
aI1998
aS'you'
p4455
a(lp4456
(lp4457
I1996
ag1895
aa(lp4458
I1997
ag1904
aa(lp4459
I1998
ag1937
aaaa(lp4460
I2000
aI2004
ag1544
a(lp4461
(lp4462
I2000
ag1924
aa(lp4463
I2001
ag1914
aa(lp4464
I2002
ag1940
aa(lp4465
I2003
ag1917
aa(lp4466
I2004
ag1885
aaaa(lp4467
I2006
aI2007
aS'be'
p4468
a(lp4469
(lp4470
I2006
ag1935
aa(lp4471
I2007
ag1872
aaaa(lp4472
I2009
aI2016
ag1553
a(lp4473
(lp4474
I2009
ag1968
aa(lp4475
I2010
ag1937
aa(lp4476
I2011
ag2348
aa(lp4477
I2012
ag1900
aa(lp4478
I2013
ag1914
aa(lp4479
I2014
ag2600
aa(lp4480
I2015
ag1872
aa(lp4481
I2016
ag1907
aaaa(lp4482
I2018
aI2019
aS'at'
p4483
a(lp4484
(lp4485
I2018
ag1898
aa(lp4486
I2019
ag1885
aaaa(lp4487
I2021
aI2023
aS'the'
p4488
a(lp4489
(lp4490
I2021
ag1885
aa(lp4491
I2022
ag1917
aa(lp4492
I2023
ag1872
aaaa(lp4493
I2025
aI2031
ag1562
a(lp4494
(lp4495
I2025
ag1917
aa(lp4496
I2026
ag1914
aa(lp4497
I2027
ag1968
aa(lp4498
I2028
ag1885
aa(lp4499
I2029
ag1904
aa(lp4500
I2030
ag1900
aa(lp4501
I2031
ag1895
aaaa(lp4502
I2033
aI2038
ag1571
a(lp4503
(lp4504
I2033
ag1879
aa(lp4505
I2034
ag1872
aa(lp4506
I2035
ag1968
aa(lp4507
I2036
ag1968
aa(lp4508
I2037
ag1904
aa(lp4509
I2038
ag1883
aaaa(lp4510
I2040
aI2042
aS'you'
p4511
a(lp4512
(lp4513
I2040
ag1895
aa(lp4514
I2041
ag1904
aa(lp4515
I2042
ag1937
aaaa(lp4516
I2044
aI2046
ag1580
a(lp4517
(lp4518
I2044
ag1940
aa(lp4519
I2045
ag1872
aa(lp4520
I2046
ag1885
aaaa(lp4521
I2049
aI2055
ag1589
a(lp4522
(lp4523
I2049
ag1898
aa(lp4524
I2050
ag1883
aa(lp4525
I2051
ag1904
aa(lp4526
I2052
ag1885
aa(lp4527
I2053
ag1917
aa(lp4528
I2054
ag1872
aa(lp4529
I2055
ag1900
aaaa(lp4530
I2057
aI2060
ag1598
a(lp4531
(lp4532
I2057
ag2348
aa(lp4533
I2058
ag1879
aa(lp4534
I2059
ag1937
aa(lp4535
I2060
ag1968
aaaa(lp4536
I2062
aI2063
aS'to'
p4537
a(lp4538
(lp4539
I2062
ag1885
aa(lp4540
I2063
ag1904
aaaa(lp4541
I2065
aI2069
ag1607
a(lp4542
(lp4543
I2065
ag1940
aa(lp4544
I2066
ag1904
aa(lp4545
I2067
ag1914
aa(lp4546
I2068
ag1883
aa(lp4547
I2069
ag1940
aaaa(lp4548
I2071
aI2075
aS'there'
p4549
a(lp4550
(lp4551
I2071
ag1885
aa(lp4552
I2072
ag1917
aa(lp4553
I2073
ag1872
aa(lp4554
I2074
ag1900
aa(lp4555
I2075
ag1872
aaaa(lp4556
I2077
aI2078
aS'is'
p4557
a(lp4558
(lp4559
I2077
ag1914
aa(lp4560
I2078
ag1968
aaaa(lp4561
I2080
aI2082
aS'the'
p4562
a(lp4563
(lp4564
I2080
ag1885
aa(lp4565
I2081
ag1917
aa(lp4566
I2082
ag1872
aaaa(lp4567
I2084
aI2091
ag1616
a(lp4568
(lp4569
I2084
ag1968
aa(lp4570
I2085
ag1917
aa(lp4571
I2086
ag1937
aa(lp4572
I2087
ag1885
aa(lp4573
I2088
ag1885
aa(lp4574
I2089
ag1879
aa(lp4575
I2090
ag1872
aa(lp4576
I2091
ag1968
aaaa(lp4577
I2093
aI2096
aS'they'
p4578
a(lp4579
(lp4580
I2093
ag1885
aa(lp4581
I2094
ag1917
aa(lp4582
I2095
ag1872
aa(lp4583
I2096
ag1895
aaaa(lp4584
I2098
aI2101
aS'have'
p4585
a(lp4586
(lp4587
I2098
ag1917
aa(lp4588
I2099
ag1898
aa(lp4589
I2100
ag1949
aa(lp4590
I2101
ag1872
aaaa(lp4591
I2103
aI2106
aS'that'
p4592
a(lp4593
(lp4594
I2103
ag1885
aa(lp4595
I2104
ag1917
aa(lp4596
I2105
ag1898
aa(lp4597
I2106
ag1885
aaaa(lp4598
I2108
aI2110
ag1625
a(lp4599
(lp4600
I2108
ag1900
aa(lp4601
I2109
ag1937
aa(lp4602
I2110
ag1883
aaaa(lp4603
I2112
aI2115
aS'from'
p4604
a(lp4605
(lp4606
I2112
ag1959
aa(lp4607
I2113
ag1900
aa(lp4608
I2114
ag1904
aa(lp4609
I2115
ag1924
aaaa(lp4610
I2117
aI2119
aS'the'
p4611
a(lp4612
(lp4613
I2117
ag1885
aa(lp4614
I2118
ag1917
aa(lp4615
I2119
ag1872
aaaa(lp4616
I2121
aI2126
ag1634
a(lp4617
(lp4618
I2121
ag1900
aa(lp4619
I2122
ag1872
aa(lp4620
I2123
ag1968
aa(lp4621
I2124
ag1904
aa(lp4622
I2125
ag1900
aa(lp4623
I2126
ag1885
aaaa(lp4624
I2128
aI2131
aS'over'
p4625
a(lp4626
(lp4627
I2128
ag1904
aa(lp4628
I2129
ag1949
aa(lp4629
I2130
ag1872
aa(lp4630
I2131
ag1900
aaaa(lp4631
I2133
aI2134
aS'to'
p4632
a(lp4633
(lp4634
I2133
ag1885
aa(lp4635
I2134
ag1904
aaaa(lp4636
I2136
aI2138
aS'the'
p4637
a(lp4638
(lp4639
I2136
ag1885
aa(lp4640
I2137
ag1917
aa(lp4641
I2138
ag1872
aaaa(lp4642
I2140
aI2143
ag1643
a(lp4643
(lp4644
I2140
ag1912
aa(lp4645
I2141
ag1872
aa(lp4646
I2142
ag1968
aa(lp4647
I2143
ag1885
aaaa(lp4648
I2145
aI2149
ag1652
a(lp4649
(lp4650
I2145
ag1935
aa(lp4651
I2146
ag1898
aa(lp4652
I2147
ag1907
aa(lp4653
I2148
ag1872
aa(lp4654
I2149
ag1883
aaaa(lp4655
I2152
aI2155
ag1661
a(lp4656
(lp4657
I2152
ag1940
aa(lp4658
I2153
ag1904
aa(lp4659
I2154
ag1879
aa(lp4660
I2155
ag1959
aaaa(lp4661
I2157
aI2162
ag1670
a(lp4662
(lp4663
I2157
ag1876
aa(lp4664
I2158
ag1904
aa(lp4665
I2159
ag1937
aa(lp4666
I2160
ag1900
aa(lp4667
I2161
ag1968
aa(lp4668
I2162
ag1872
aaaa(lp4669
I2165
aI2167
aS'and'
p4670
a(lp4671
(lp4672
I2165
ag1898
aa(lp4673
I2166
ag1883
aa(lp4674
I2167
ag1907
aaaa(lp4675
I2169
aI2174
ag1679
a(lp4676
(lp4677
I2169
ag1912
aa(lp4678
I2170
ag1914
aa(lp4679
I2171
ag1883
aa(lp4680
I2172
ag1872
aa(lp4681
I2173
ag1900
aa(lp4682
I2174
ag1895
aaaa(lp4683
I2177
aI2178
aS'so'
p4684
a(lp4685
(lp4686
I2177
ag1968
aa(lp4687
I2178
ag1904
aaaa(lp4688
I2180
aI2183
aS'once'
p4689
a(lp4690
(lp4691
I2180
ag1904
aa(lp4692
I2181
ag1883
aa(lp4693
I2182
ag1876
aa(lp4694
I2183
ag1872
aaaa(lp4695
I2185
aI2187
aS'you'
p4696
a(lp4697
(lp4698
I2185
ag1895
aa(lp4699
I2186
ag1904
aa(lp4700
I2187
ag1937
aaaa(lp4701
I2189
aI2192
ag1688
a(lp4702
(lp4703
I2189
ag2348
aa(lp4704
I2190
ag1898
aa(lp4705
I2191
ag1900
aa(lp4706
I2192
ag2218
aaaa(lp4707
I2194
aI2197
aS'your'
p4708
a(lp4709
(lp4710
I2194
ag1895
aa(lp4711
I2195
ag1904
aa(lp4712
I2196
ag1937
aa(lp4713
I2197
ag1900
aaaa(lp4714
I2199
aI2201
ag1697
a(lp4715
(lp4716
I2199
ag1876
aa(lp4717
I2200
ag1898
aa(lp4718
I2201
ag1900
aaaa(lp4719
I2203
aI2205
aS'you'
p4720
a(lp4721
(lp4722
I2203
ag1895
aa(lp4723
I2204
ag1904
aa(lp4724
I2205
ag1937
aaaa(lp4725
I2207
aI2209
aS'can'
p4726
a(lp4727
(lp4728
I2207
ag1876
aa(lp4729
I2208
ag1898
aa(lp4730
I2209
ag1883
aaaa(lp4731
I2211
aI2216
ag1706
a(lp4732
(lp4733
I2211
ag1872
aa(lp4734
I2212
ag1914
aa(lp4735
I2213
ag1885
aa(lp4736
I2214
ag1917
aa(lp4737
I2215
ag1872
aa(lp4738
I2216
ag1900
aaaa(lp4739
I2218
aI2221
ag1715
a(lp4740
(lp4741
I2218
ag1885
aa(lp4742
I2219
ag1898
aa(lp4743
I2220
ag2218
aa(lp4744
I2221
ag1872
aaaa(lp4745
I2223
aI2225
aS'the'
p4746
a(lp4747
(lp4748
I2223
ag1885
aa(lp4749
I2224
ag1917
aa(lp4750
I2225
ag1872
aaaa(lp4751
I2227
aI2234
ag1724
a(lp4752
(lp4753
I2227
ag1968
aa(lp4754
I2228
ag1917
aa(lp4755
I2229
ag1937
aa(lp4756
I2230
ag1885
aa(lp4757
I2231
ag1885
aa(lp4758
I2232
ag1879
aa(lp4759
I2233
ag1872
aa(lp4760
I2234
ag1968
aaaa(lp4761
I2236
aI2237
aS'or'
p4762
a(lp4763
(lp4764
I2236
ag1904
aa(lp4765
I2237
ag1900
aaaa(lp4766
I2239
aI2242
ag1733
a(lp4767
(lp4768
I2239
ag1912
aa(lp4769
I2240
ag1898
aa(lp4770
I2241
ag1879
aa(lp4771
I2242
ag2218
aaaa(lp4772
I2244
aI2247
aS'just'
p4773
a(lp4774
(lp4775
I2244
ag3557
aa(lp4776
I2245
ag1937
aa(lp4777
I2246
ag1968
aa(lp4778
I2247
ag1885
aaaa(lp4779
I2249
aI2253
aS'about'
p4780
a(lp4781
(lp4782
I2249
ag1898
aa(lp4783
I2250
ag1935
aa(lp4784
I2251
ag1904
aa(lp4785
I2252
ag1937
aa(lp4786
I2253
ag1885
aaaa(lp4787
I2255
aI2262
ag1742
a(lp4788
(lp4789
I2255
ag1898
aa(lp4790
I2256
ag1883
aa(lp4791
I2257
ag1895
aa(lp4792
I2258
ag1912
aa(lp4793
I2259
ag1917
aa(lp4794
I2260
ag1872
aa(lp4795
I2261
ag1900
aa(lp4796
I2262
ag1872
aaaa(lp4797
I2264
aI2265
aS'in'
p4798
a(lp4799
(lp4800
I2264
ag1914
aa(lp4801
I2265
ag1883
aaaa(lp4802
I2267
aI2269
aS'the'
p4803
a(lp4804
(lp4805
I2267
ag1885
aa(lp4806
I2268
ag1917
aa(lp4807
I2269
ag1872
aaaa(lp4808
I2271
aI2274
ag1751
a(lp4809
(lp4810
I2271
ag1885
aa(lp4811
I2272
ag1904
aa(lp4812
I2273
ag1912
aa(lp4813
I2274
ag1883
aaaa(lp4814
I2277
aI2279
aS'all'
p4815
a(lp4816
(lp4817
I2277
ag1898
aa(lp4818
I2278
ag1879
aa(lp4819
I2279
ag1879
aaaa(lp4820
I2281
aI2283
aS'you'
p4821
a(lp4822
(lp4823
I2281
ag1895
aa(lp4824
I2282
ag1904
aa(lp4825
I2283
ag1937
aaaa(lp4826
I2285
aI2288
aS'have'
p4827
a(lp4828
(lp4829
I2285
ag1917
aa(lp4830
I2286
ag1898
aa(lp4831
I2287
ag1949
aa(lp4832
I2288
ag1872
aaaa(lp4833
I2290
aI2291
aS'to'
p4834
a(lp4835
(lp4836
I2290
ag1885
aa(lp4837
I2291
ag1904
aaaa(lp4838
I2293
aI2294
aS'do'
p4839
a(lp4840
(lp4841
I2293
ag1907
aa(lp4842
I2294
ag1904
aaaa(lp4843
I2296
aI2297
aS'is'
p4844
a(lp4845
(lp4846
I2296
ag1914
aa(lp4847
I2297
ag1968
aaaa(lp4848
I2299
aI2302
ag1760
a(lp4849
(lp4850
I2299
ag1876
aa(lp4851
I2300
ag1898
aa(lp4852
I2301
ag1879
aa(lp4853
I2302
ag1879
aaaa(lp4854
I2304
aI2307
aS'down'
p4855
a(lp4856
(lp4857
I2304
ag1907
aa(lp4858
I2305
ag1904
aa(lp4859
I2306
ag1912
aa(lp4860
I2307
ag1883
aaaa(lp4861
I2309
aI2310
aS'to'
p4862
a(lp4863
(lp4864
I2309
ag1885
aa(lp4865
I2310
ag1904
aaaa(lp4866
I2312
aI2314
aS'the'
p4867
a(lp4868
(lp4869
I2312
ag1885
aa(lp4870
I2313
ag1917
aa(lp4871
I2314
ag1872
aaaa(lp4872
I2316
aI2320
ag1769
a(lp4873
(lp4874
I2316
ag1879
aa(lp4875
I2317
ag1904
aa(lp4876
I2318
ag1935
aa(lp4877
I2319
ag1935
aa(lp4878
I2320
ag1895
aaaa(lp4879
I2322
aI2324
aS'and'
p4880
a(lp4881
(lp4882
I2322
ag1898
aa(lp4883
I2323
ag1883
aa(lp4884
I2324
ag1907
aaaa(lp4885
I2326
aI2329
ag1778
a(lp4886
(lp4887
I2326
ag1924
aa(lp4888
I2327
ag1898
aa(lp4889
I2328
ag2218
aa(lp4890
I2329
ag1872
aaaa(lp4891
I2331
aI2342
ag1787
a(lp4892
(lp4893
I2331
ag1898
aa(lp4894
I2332
ag1900
aa(lp4895
I2333
ag1900
aa(lp4896
I2334
ag1898
aa(lp4897
I2335
ag1883
aa(lp4898
I2336
ag1940
aa(lp4899
I2337
ag1872
aa(lp4900
I2338
ag1924
aa(lp4901
I2339
ag1872
aa(lp4902
I2340
ag1883
aa(lp4903
I2341
ag1885
aa(lp4904
I2342
ag1968
aaaa(lp4905
I2344
aI2346
aS'for'
p4906
a(lp4907
(lp4908
I2344
ag1959
aa(lp4909
I2345
ag1904
aa(lp4910
I2346
ag1900
aaaa(lp4911
I2348
aI2350
aS'the'
p4912
a(lp4913
(lp4914
I2348
ag1885
aa(lp4915
I2349
ag1917
aa(lp4916
I2350
ag1872
aaaa(lp4917
I2352
aI2355
ag1796
a(lp4918
(lp4919
I2352
ag1885
aa(lp4920
I2353
ag1914
aa(lp4921
I2354
ag1924
aa(lp4922
I2355
ag1872
aaaa(lp4923
I2357
aI2359
aS'you'
p4924
a(lp4925
(lp4926
I2357
ag1895
aa(lp4927
I2358
ag1904
aa(lp4928
I2359
ag1937
aaaa(lp4929
I2361
aI2364
ag1805
a(lp4930
(lp4931
I2361
ag1912
aa(lp4932
I2362
ag1898
aa(lp4933
I2363
ag1883
aa(lp4934
I2364
ag1885
aaaa(lp4935
I2366
aI2367
aS'to'
p4936
a(lp4937
(lp4938
I2366
ag1885
aa(lp4939
I2367
ag1904
aaaa(lp4940
I2369
aI2373
ag1814
a(lp4941
(lp4942
I2369
ag1879
aa(lp4943
I2370
ag1872
aa(lp4944
I2371
ag1898
aa(lp4945
I2372
ag1949
aa(lp4946
I2373
ag1872
aaaa(lp4947
I2375
aI2377
aS'and'
p4948
a(lp4949
(lp4950
I2375
ag1898
aa(lp4951
I2376
ag1883
aa(lp4952
I2377
ag1907
aaaa(lp4953
I2379
aI2383
aS'where'
p4954
a(lp4955
(lp4956
I2379
ag1912
aa(lp4957
I2380
ag1917
aa(lp4958
I2381
ag1872
aa(lp4959
I2382
ag1900
aa(lp4960
I2383
ag1872
aaaa(lp4961
I2385
aI2387
aS'you'
p4962
a(lp4963
(lp4964
I2385
ag1895
aa(lp4965
I2386
ag1904
aa(lp4966
I2387
ag1937
aaaa(lp4967
I2389
aI2392
ag1823
a(lp4968
(lp4969
I2389
ag1912
aa(lp4970
I2390
ag1898
aa(lp4971
I2391
ag1883
aa(lp4972
I2392
ag1885
aaaa(lp4973
I2394
aI2395
aS'to'
p4974
a(lp4975
(lp4976
I2394
ag1885
aa(lp4977
I2395
ag1904
aaaa(lp4978
I2397
aI2398
ag1832
a(lp4979
(lp4980
I2397
ag1940
aa(lp4981
I2398
ag1904
aaaa(lp4982
I2400
aI2402
aS'and'
p4983
a(lp4984
(lp4985
I2400
ag1898
aa(lp4986
I2401
ag1883
aa(lp4987
I2402
ag1907
aaaa(lp4988
I2404
aI2407
ag1841
a(lp4989
(lp4990
I2404
ag1968
aa(lp4991
I2405
ag1917
aa(lp4992
I2406
ag1904
aa(lp4993
I2407
ag1912
aaaa(lp4994
I2409
aI2410
aS'up'
p4995
a(lp4996
(lp4997
I2409
ag1937
aa(lp4998
I2410
ag2348
aaaa(lp4999
I2413
aI2416
aS'they'
p5000
a(lp5001
(lp5002
I2413
ag1885
aa(lp5003
I2414
ag1917
aa(lp5004
I2415
ag1872
aa(lp5005
I2416
ag1895
aaaa(lp5006
I2418
aI2421
aS'will'
p5007
a(lp5008
(lp5009
I2418
ag1912
aa(lp5010
I2419
ag1914
aa(lp5011
I2420
ag1879
aa(lp5012
I2421
ag1879
aaaa(lp5013
I2423
aI2424
aS'be'
p5014
a(lp5015
(lp5016
I2423
ag1935
aa(lp5017
I2424
ag1872
aaaa(lp5018
I2426
aI2432
ag1850
a(lp5019
(lp5020
I2426
ag1912
aa(lp5021
I2427
ag1898
aa(lp5022
I2428
ag1914
aa(lp5023
I2429
ag1885
aa(lp5024
I2430
ag1914
aa(lp5025
I2431
ag1883
aa(lp5026
I2432
ag1940
aaaa(lp5027
I2435
aI2439
ag1859
a(lp5028
(lp5029
I2435
ag1917
aa(lp5030
I2436
ag1904
aa(lp5031
I2437
ag1885
aa(lp5032
I2438
ag1872
aa(lp5033
I2439
ag1879
aaaasS'cleanCharacterMap'
p5034
(lp5035
g1871
ag1873
ag1875
ag1877
ag1878
ag1880
ag1881
ag1882
ag1884
a(lp5036
I9
aS' '
p5037
aag1888
ag1890
a(lp5038
I12
ag5037
aag1894
ag1896
ag1897
ag1899
a(lp5039
I17
ag5037
aag1903
ag1905
ag1906
a(lp5040
I21
ag5037
aag1911
ag1913
ag1915
ag1916
a(lp5041
I26
ag5037
aag1920
a(lp5042
I28
ag5037
aag1923
ag1925
ag1926
ag1927
ag1928
ag1929
ag1930
ag1931
a(lp5043
I37
ag5037
aag1934
ag1936
ag1938
ag1939
ag1941
ag1942
a(lp5044
I45
ag5037
aag1945
ag1946
ag1947
ag1948
ag1950
ag1951
ag1952
ag1953
ag1954
a(lp5045
I55
ag5037
aag1958
ag1960
ag1961
a(lp5046
I59
ag5037
aag1964
ag1965
ag1966
ag1967
ag1969
ag1970
ag1971
ag1972
ag1974
ag1976
ag1977
ag1978
ag1979
ag1980
ag1981
ag1982
ag1983
a(lp5047
I79
ag5037
aag1987
ag1988
a(lp5048
I82
ag5037
aag1991
ag1992
ag1993
ag1994
ag1995
ag1996
ag1997
a(lp5049
I90
ag5037
aag2001
ag2002
ag2003
a(lp5050
I94
ag5037
aag2006
a(lp5051
I96
ag5037
aag2010
ag2011
ag2012
ag2013
a(lp5052
I101
ag5037
aag2017
ag2018
ag2019
ag2020
a(lp5053
I106
ag5037
aag2024
ag2025
ag2026
ag2027
ag2028
a(lp5054
I112
ag5037
aag2031
a(lp5055
I114
ag5037
aag2034
ag2035
ag2036
ag2037
ag2038
a(lp5056
I120
ag5037
aag2042
ag2043
a(lp5057
I123
ag5037
aag2047
ag2048
ag2049
a(lp5058
I127
ag5037
aag2052
ag2053
ag2054
ag2055
a(lp5059
I132
ag5037
aag2058
ag2059
ag2060
ag2061
a(lp5060
I138
ag5037
aag2065
ag2066
ag2067
ag2068
a(lp5061
I143
ag5037
aag2071
ag2072
ag2073
ag2074
a(lp5062
I148
ag5037
aag2078
ag2079
a(lp5063
I151
ag5037
aag2083
ag2084
ag2085
ag2086
a(lp5064
I156
ag5037
aag2090
ag2091
ag2092
ag2093
a(lp5065
I161
ag5037
aag2097
ag2098
ag2099
ag2100
ag2101
a(lp5066
I167
ag5037
aag2105
ag2106
a(lp5067
I170
ag5037
aag2110
ag2111
ag2112
a(lp5068
I174
ag5037
aag2116
ag2117
ag2118
ag2119
a(lp5069
I179
ag5037
aag2122
ag2123
ag2124
ag2125
ag2126
ag2127
ag2128
ag2129
ag2130
a(lp5070
I190
ag5037
aag2134
ag2135
ag2136
a(lp5071
I194
ag5037
aag2139
ag2140
ag2141
ag2142
ag2143
ag2144
ag2145
a(lp5072
I202
ag5037
aag2149
ag2150
ag2151
a(lp5073
I206
ag5037
aag2155
ag2156
ag2157
ag2158
a(lp5074
I211
ag5037
aag2161
ag2162
ag2163
ag2164
ag2165
a(lp5075
I218
ag5037
aag2168
ag2169
ag2170
ag2171
ag2172
a(lp5076
I224
ag5037
aag2176
ag2177
a(lp5077
I227
ag5037
aag2181
ag2182
ag2183
ag2184
ag2185
ag2186
ag2187
a(lp5078
I235
ag5037
aag2191
ag2192
a(lp5079
I238
ag5037
aag2195
ag2196
a(lp5080
I241
ag5037
aag2200
ag2201
ag2202
ag2203
ag2204
ag2205
a(lp5081
I248
ag5037
aag2209
ag2210
ag2211
a(lp5082
I252
ag5037
aag2214
ag2215
ag2216
ag2217
a(lp5083
I257
ag5037
aag2222
ag2223
ag2224
ag2225
a(lp5084
I262
ag5037
aag2229
ag2230
ag2231
ag2232
a(lp5085
I267
ag5037
aag2236
ag2237
ag2238
a(lp5086
I271
ag5037
aag2241
ag2242
ag2243
ag2244
a(lp5087
I276
ag5037
aag2247
ag2248
ag2249
ag2250
a(lp5088
I282
ag5037
aag2254
ag2255
ag2256
a(lp5089
I286
ag5037
aag2259
ag2260
ag2261
ag2262
ag2263
a(lp5090
I292
ag5037
aag2267
ag2268
ag2269
ag2270
a(lp5091
I297
ag5037
aag2273
ag2274
ag2275
ag2276
ag2277
ag2278
a(lp5092
I304
ag5037
aag2282
ag2283
ag2284
ag2285
a(lp5093
I309
ag5037
aag2288
ag2289
ag2290
ag2291
ag2292
a(lp5094
I315
ag5037
aag2296
ag2297
a(lp5095
I318
ag5037
aag2300
ag2301
ag2302
ag2303
a(lp5096
I324
ag5037
aag2307
ag2308
a(lp5097
I327
ag5037
aag2312
ag2313
ag2314
a(lp5098
I331
ag5037
aag2317
ag2318
ag2319
ag2320
ag2321
a(lp5099
I338
ag5037
aag2325
ag2326
ag2327
ag2328
a(lp5100
I343
ag5037
aag2332
ag2333
ag2334
ag2335
a(lp5101
I348
ag5037
aag2338
ag2339
ag2340
ag2341
ag2342
ag2343
a(lp5102
I355
ag5037
aag2346
ag2347
ag2349
ag2350
ag2351
ag2352
ag2353
ag2354
a(lp5103
I364
ag5037
aag2357
ag2358
a(lp5104
I367
ag5037
aag2362
ag2363
a(lp5105
I370
ag5037
aag2366
a(lp5106
I372
ag5037
aag2369
ag2370
ag2371
ag2372
ag2373
a(lp5107
I378
ag5037
aag2377
ag2378
ag2379
a(lp5108
I382
ag5037
aag2383
ag2384
ag2385
ag2386
a(lp5109
I387
ag5037
aag2390
ag2391
ag2392
a(lp5110
I391
ag5037
aag2395
ag2396
ag2397
ag2398
ag2399
ag2400
ag2401
ag2402
ag2403
a(lp5111
I401
ag5037
aag2406
ag2407
ag2408
ag2409
a(lp5112
I407
ag5037
aag2413
ag2414
a(lp5113
I410
ag5037
aag2418
ag2419
ag2420
ag2421
a(lp5114
I415
ag5037
aag2424
ag2425
ag2426
ag2427
ag2428
a(lp5115
I421
ag5037
aag2431
ag2432
ag2433
ag2434
ag2435
a(lp5116
I427
ag5037
aag2438
ag2439
ag2440
ag2441
ag2442
ag2443
a(lp5117
I434
ag5037
aag2447
ag2448
a(lp5118
I437
ag5037
aag2452
ag2453
ag2454
a(lp5119
I441
ag5037
aag2457
ag2458
ag2459
ag2460
ag2461
ag2462
a(lp5120
I449
ag5037
aag2466
ag2467
ag2468
a(lp5121
I453
ag5037
aag2472
ag2473
ag2474
a(lp5122
I457
ag5037
aag2477
ag2478
ag2479
ag2480
ag2481
ag2482
ag2483
ag2484
ag2485
a(lp5123
I467
ag5037
aag2489
ag2490
ag2491
a(lp5124
I471
ag5037
aag2495
ag2496
ag2497
ag2498
a(lp5125
I476
ag5037
aag2501
ag2502
ag2503
ag2504
a(lp5126
I482
ag5037
aag2508
ag2509
ag2510
a(lp5127
I486
ag5037
aag2513
ag2514
ag2515
ag2517
a(lp5128
I491
ag5037
aag2521
ag2522
ag2523
ag2524
ag2525
ag2526
ag2527
ag2528
ag2529
ag2530
a(lp5129
I503
ag5037
aag2534
ag2535
a(lp5130
I506
ag5037
aag2538
ag2539
ag2540
ag2541
a(lp5131
I511
ag5037
aag2544
ag2545
ag2546
ag2547
ag2548
ag2549
a(lp5132
I519
ag5037
aag2552
ag2553
ag2554
ag2555
ag2556
ag2557
a(lp5133
I527
ag5037
aag2561
ag2562
ag2563
a(lp5134
I531
ag5037
aag2566
ag2567
ag2568
ag2569
ag2570
ag2571
a(lp5135
I539
ag5037
aag2575
ag2576
a(lp5136
I542
ag5037
aag2579
ag2580
ag2581
ag2582
a(lp5137
I547
ag5037
aag2585
ag2586
ag2587
ag2588
a(lp5138
I553
ag5037
aag2592
ag2593
ag2594
a(lp5139
I557
ag5037
aag2597
ag2598
ag2599
ag2601
ag2602
a(lp5140
I563
ag5037
aag2606
ag2607
a(lp5141
I566
ag5037
aag2610
ag2611
ag2612
ag2613
ag2614
ag2615
a(lp5142
I574
ag5037
aag2619
ag2620
a(lp5143
I577
ag5037
aag2623
ag2624
ag2625
ag2626
ag2627
ag2628
ag2629
ag2630
ag2631
ag2632
ag2633
a(lp5144
I590
ag5037
aag2637
ag2638
ag2639
ag2640
a(lp5145
I595
ag5037
aag2643
ag2644
ag2645
ag2646
a(lp5146
I600
ag5037
aag2650
ag2651
a(lp5147
I603
ag5037
aag2655
ag2656
ag2657
ag2658
a(lp5148
I608
ag5037
aag2662
ag2663
ag2664
ag2665
a(lp5149
I613
ag5037
aag2669
ag2670
ag2671
ag2672
ag2673
a(lp5150
I619
ag5037
aag2677
ag2678
a(lp5151
I622
ag5037
aag2682
ag2683
ag2684
a(lp5152
I626
ag5037
aag2688
ag2689
ag2690
ag2691
a(lp5153
I631
ag5037
aag2695
ag2696
ag2697
ag2698
ag2699
ag2700
a(lp5154
I638
ag5037
aag2703
a(lp5155
I640
ag5037
aag2706
ag2707
ag2708
ag2709
ag2710
ag2711
ag2712
ag2713
ag2714
a(lp5156
I650
ag5037
aag2717
ag2718
ag2719
ag2720
ag2721
ag2722
a(lp5157
I658
ag5037
aag2726
ag2727
a(lp5158
I661
ag5037
aag2731
ag2732
ag2733
a(lp5159
I665
ag5037
aag2737
ag2738
ag2739
ag2740
a(lp5160
I670
ag5037
aag2744
ag2745
ag2746
a(lp5161
I674
ag5037
aag2749
ag2750
ag2751
ag2752
ag2753
ag2754
a(lp5162
I681
ag5037
aag2758
ag2759
a(lp5163
I684
ag5037
aag2762
ag2763
a(lp5164
I687
ag5037
aag2767
ag2768
a(lp5165
I690
ag5037
aag2771
ag2772
ag2773
ag2774
ag2775
ag2776
ag2777
ag2778
ag2779
a(lp5166
I700
ag5037
aag2783
ag2784
ag2785
a(lp5167
I704
ag5037
aag2788
ag2789
ag2790
ag2791
ag2792
ag2793
ag2794
ag2795
ag2796
ag2797
ag2798
a(lp5168
I716
ag5037
aag2802
ag2803
ag2804
a(lp5169
I720
ag5037
aag2807
ag2808
ag2809
ag2810
ag2811
ag2812
ag2813
ag2814
ag2815
a(lp5170
I731
ag5037
aag2819
ag2820
ag2821
ag2822
a(lp5171
I736
ag5037
aag2825
ag2826
ag2827
ag2828
a(lp5172
I741
ag5037
aag2832
ag2833
ag2834
ag2835
a(lp5173
I746
ag5037
aag2839
ag2840
a(lp5174
I749
ag5037
aag2844
ag2845
ag2846
a(lp5175
I753
ag5037
aag2849
ag2850
ag2851
ag2852
ag2853
ag2854
a(lp5176
I760
ag5037
aag2857
ag2858
ag2859
ag2860
a(lp5177
I765
ag5037
aag2864
ag2865
ag2866
ag2867
a(lp5178
I770
ag5037
aag2870
ag2871
ag2872
ag2873
a(lp5179
I775
ag5037
aag2877
ag2878
ag2879
a(lp5180
I779
ag5037
aag2883
ag2884
ag2885
a(lp5181
I783
ag5037
aag2888
ag2889
ag2890
ag2891
a(lp5182
I788
ag5037
aag2895
ag2896
a(lp5183
I791
ag5037
aag2900
ag2901
ag2902
a(lp5184
I795
ag5037
aag2905
ag2906
ag2907
ag2908
ag2909
ag2910
ag2911
a(lp5185
I803
ag5037
aag2915
ag2916
ag2917
a(lp5186
I807
ag5037
aag2920
ag2921
a(lp5187
I811
ag5037
aag2925
ag2926
a(lp5188
I814
ag5037
aag2930
ag2931
ag2932
ag2933
a(lp5189
I819
ag5037
aag2937
ag2938
ag2939
ag2940
a(lp5190
I824
ag5037
aag2943
ag2944
ag2945
ag2946
a(lp5191
I829
ag5037
aag2950
ag2951
a(lp5192
I832
ag5037
aag2955
ag2956
a(lp5193
I835
ag5037
aag2959
ag2960
ag2961
ag2962
ag2963
a(lp5194
I841
ag5037
aag2966
ag2967
ag2968
ag2969
a(lp5195
I846
ag5037
aag2973
ag2974
a(lp5196
I849
ag5037
aag2978
ag2979
ag2980
a(lp5197
I853
ag5037
aag2983
ag2984
ag2985
ag2986
a(lp5198
I859
ag5037
aag2990
ag2991
a(lp5199
I862
ag5037
aag2995
ag2996
ag2997
a(lp5200
I866
ag5037
aag3001
ag3002
ag3003
a(lp5201
I870
ag5037
aag3006
ag3007
ag3008
ag3009
ag3010
a(lp5202
I876
ag5037
aag3014
ag3015
a(lp5203
I879
ag5037
aag3018
ag3019
ag3020
ag3021
ag3022
ag3023
a(lp5204
I886
ag5037
aag3026
ag3027
ag3028
ag3030
ag3031
ag3032
ag3033
a(lp5205
I894
ag5037
aag3037
ag3038
ag3039
a(lp5206
I898
ag5037
aag3042
ag3043
ag3044
ag3045
ag3046
ag3047
a(lp5207
I905
ag5037
aag3050
ag3051
ag3052
ag3053
a(lp5208
I911
ag5037
aag3057
ag3058
a(lp5209
I914
ag5037
aag3062
ag3063
a(lp5210
I917
ag5037
aag3067
ag3068
ag3069
a(lp5211
I921
ag5037
aag3072
ag3073
ag3074
ag3075
ag3076
ag3077
ag3078
a(lp5212
I929
ag5037
aag3082
ag3083
a(lp5213
I932
ag5037
aag3087
ag3088
ag3089
a(lp5214
I936
ag5037
aag3092
ag3093
ag3094
ag3095
ag3096
ag3097
a(lp5215
I943
ag5037
aag3101
ag3102
ag3103
a(lp5216
I947
ag5037
aag3107
ag3108
ag3109
ag3110
a(lp5217
I952
ag5037
aag3114
ag3115
ag3116
a(lp5218
I956
ag5037
aag3119
ag3120
ag3121
ag3122
ag3123
ag3124
ag3125
a(lp5219
I964
ag5037
aag3128
ag3129
ag3130
ag3131
ag3132
ag3133
ag3134
ag3135
ag3136
a(lp5220
I974
ag5037
aag3139
ag3140
ag3141
a(lp5221
I979
ag5037
aag3145
ag3146
ag3147
ag3148
ag3149
a(lp5222
I985
ag5037
aag3153
ag3154
ag3155
ag3156
a(lp5223
I990
ag5037
aag3160
ag3161
ag3162
a(lp5224
I995
ag5037
aag3166
ag3167
a(lp5225
I998
ag5037
aag3171
ag3172
a(lp5226
I1001
ag5037
aag3176
ag3177
ag3178
a(lp5227
I1005
ag5037
aag3181
a(lp5228
I1007
ag5037
aag3185
ag3186
ag3187
ag3188
a(lp5229
I1012
ag5037
aag3191
ag3192
ag3193
a(lp5230
I1016
ag5037
aag3196
ag3197
ag3198
ag3199
a(lp5231
I1021
ag5037
aag3203
ag3204
a(lp5232
I1024
ag5037
aag3208
ag3209
ag3210
a(lp5233
I1029
ag5037
aag3214
ag3215
a(lp5234
I1032
ag5037
aag3219
ag3220
ag3221
ag3222
a(lp5235
I1037
ag5037
aag3225
ag3226
ag3227
ag3228
ag3229
a(lp5236
I1043
ag5037
aag3233
ag3234
ag3235
a(lp5237
I1047
ag5037
aag3238
ag3239
ag3240
ag3241
ag3242
a(lp5238
I1053
ag5037
aag3246
ag3247
ag3248
ag3249
a(lp5239
I1058
ag5037
aag3252
ag3253
ag3254
ag3255
ag3256
ag3257
ag3258
ag3259
a(lp5240
I1067
ag5037
aag3263
ag3264
ag3265
a(lp5241
I1071
ag5037
aag3269
ag3270
ag3271
ag3272
a(lp5242
I1076
ag5037
aag3276
ag3277
ag3278
ag3279
a(lp5243
I1081
ag5037
aag3282
ag3283
ag3284
ag3285
ag3286
ag3287
ag3288
a(lp5244
I1089
ag5037
aag3292
ag3293
a(lp5245
I1092
ag5037
aag3296
ag3297
ag3298
ag3299
ag3300
ag3301
a(lp5246
I1099
ag5037
aag3304
ag3305
ag3306
ag3307
ag3308
ag3309
ag3310
ag3311
ag3312
a(lp5247
I1109
ag5037
aag3316
ag3317
ag3318
a(lp5248
I1113
ag5037
aag3321
ag3322
ag3323
ag3324
a(lp5249
I1118
ag5037
aag3328
ag3329
ag3330
ag3331
a(lp5250
I1123
ag5037
aag3334
ag3335
a(lp5251
I1126
ag5037
aag3339
ag3340
ag3341
ag3342
ag3343
a(lp5252
I1132
ag5037
aag3347
ag3348
ag3349
a(lp5253
I1136
ag5037
aag3352
ag3353
ag3354
ag3355
ag3356
ag3357
ag3358
a(lp5254
I1144
ag5037
aag3362
ag3363
a(lp5255
I1147
ag5037
aag3367
ag3368
ag3369
a(lp5256
I1151
ag5037
aag3372
ag3373
ag3374
ag3375
ag3376
ag3377
a(lp5257
I1159
ag5037
aag3380
ag3381
ag3382
ag3383
ag3384
a(lp5258
I1165
ag5037
aag3388
ag3389
a(lp5259
I1168
ag5037
aag3392
ag3393
ag3394
ag3395
a(lp5260
I1173
ag5037
aag3399
ag3400
a(lp5261
I1176
ag5037
aag3403
ag3404
ag3405
ag3406
ag3407
a(lp5262
I1182
ag5037
aag3411
ag3412
a(lp5263
I1185
ag5037
aag3416
ag3417
ag3418
ag3419
ag3420
a(lp5264
I1191
ag5037
aag3424
ag3425
a(lp5265
I1194
ag5037
aag3429
ag3430
ag3431
a(lp5266
I1198
ag5037
aag3434
ag3435
ag3436
ag3437
a(lp5267
I1203
ag5037
aag3441
ag3442
a(lp5268
I1206
ag5037
aag3445
ag3446
ag3447
ag3448
ag3449
ag3450
ag3451
a(lp5269
I1214
ag5037
aag3455
ag3456
a(lp5270
I1217
ag5037
aag3460
ag3461
ag3462
a(lp5271
I1221
ag5037
aag3466
ag3467
ag3468
ag3469
a(lp5272
I1226
ag5037
aag3473
ag3474
ag3475
a(lp5273
I1230
ag5037
aag3478
ag3479
ag3480
ag3481
a(lp5274
I1235
ag5037
aag3484
ag3485
ag3486
ag3487
ag3488
ag3489
ag3490
a(lp5275
I1243
ag5037
aag3493
ag3494
ag3495
ag3496
ag3497
a(lp5276
I1249
ag5037
aag3500
ag3501
ag3502
a(lp5277
I1254
ag5037
aag3506
ag3507
ag3508
ag3509
a(lp5278
I1259
ag5037
aag3513
ag3514
ag3515
ag3516
ag3517
a(lp5279
I1265
ag5037
aag3521
ag3522
a(lp5280
I1268
ag5037
aag3526
ag3527
ag3528
a(lp5281
I1272
ag5037
aag3532
ag3533
ag3534
ag3535
ag3536
a(lp5282
I1278
ag5037
aag3540
ag3541
a(lp5283
I1281
ag5037
aag3544
ag3545
ag3546
ag3547
ag3548
ag3549
a(lp5284
I1289
ag5037
aag3552
a(lp5285
I1291
ag5037
aag3556
ag3558
ag3559
ag3560
a(lp5286
I1296
ag5037
aag3563
ag3564
ag3565
a(lp5287
I1300
ag5037
aag3569
ag3570
ag3571
a(lp5288
I1304
ag5037
aag3574
ag3575
ag3576
ag3577
ag3578
a(lp5289
I1310
ag5037
aag3581
ag3582
ag3583
ag3584
ag3585
ag3586
a(lp5290
I1317
ag5037
aag3590
ag3591
ag3592
a(lp5291
I1321
ag5037
aag3595
ag3596
ag3597
ag3598
ag3599
ag3600
a(lp5292
I1329
ag5037
aag3604
ag3605
ag3606
a(lp5293
I1333
ag5037
aag3609
ag3610
ag3611
ag3612
ag3613
a(lp5294
I1339
ag5037
aag3616
ag3617
ag3618
ag3619
a(lp5295
I1344
ag5037
aag3623
ag3624
a(lp5296
I1347
ag5037
aag3627
ag3628
ag3629
ag3630
ag3631
ag3632
ag3633
a(lp5297
I1355
ag5037
aag3636
ag3637
ag3638
ag3639
ag3640
ag3641
ag3642
a(lp5298
I1363
ag5037
aag3646
ag3647
a(lp5299
I1366
ag5037
aag3651
ag3652
ag3653
a(lp5300
I1370
ag5037
aag3656
ag3657
ag3658
ag3659
a(lp5301
I1375
ag5037
aag3663
ag3664
a(lp5302
I1378
ag5037
aag3668
ag3669
a(lp5303
I1381
ag5037
aag3672
ag3673
ag3674
ag3675
ag3676
a(lp5304
I1387
ag5037
aag3680
ag3681
a(lp5305
I1390
ag5037
aag3685
ag3686
ag3687
ag3688
a(lp5306
I1395
ag5037
aag3692
ag3693
a(lp5307
I1398
ag5037
aag3696
ag3697
ag3698
ag3699
ag3700
a(lp5308
I1404
ag5037
aag3704
ag3705
ag3706
a(lp5309
I1408
ag5037
aag3709
ag3710
ag3711
ag3712
a(lp5310
I1413
ag5037
aag3716
ag3717
ag3718
ag3719
ag3720
a(lp5311
I1419
ag5037
aag3723
ag3724
ag3725
ag3726
ag3727
a(lp5312
I1425
ag5037
aag3731
ag3732
ag3733
a(lp5313
I1429
ag5037
aag3736
ag3737
ag3738
ag3739
ag3740
ag3741
a(lp5314
I1436
ag5037
aag3744
ag3745
ag3746
ag3747
a(lp5315
I1441
ag5037
aag3751
ag3752
a(lp5316
I1444
ag5037
aag3756
ag3757
a(lp5317
I1447
ag5037
aag3760
ag3761
ag3762
ag3763
a(lp5318
I1452
ag5037
aag3766
ag3767
ag3768
ag3769
ag3770
ag3771
ag3772
ag3773
a(lp5319
I1462
ag5037
aag3777
ag3778
ag3779
ag3780
a(lp5320
I1467
ag5037
aag3784
ag3785
a(lp5321
I1470
ag5037
aag3788
a(lp5322
I1472
ag5037
aag3791
ag3792
ag3793
ag3794
ag3795
ag3796
ag3797
ag3798
ag3799
ag3800
ag3801
a(lp5323
I1484
ag5037
aag3804
ag3805
ag3806
ag3807
ag3808
a(lp5324
I1490
ag5037
aag3812
ag3813
ag3814
a(lp5325
I1494
ag5037
aag3818
ag3819
ag3820
a(lp5326
I1498
ag5037
aag3823
ag3824
ag3825
ag3826
a(lp5327
I1503
ag5037
aag3830
ag3831
a(lp5328
I1506
ag5037
aag3834
ag3835
ag3836
ag3837
a(lp5329
I1511
ag5037
aag3840
ag3841
ag3842
ag3843
a(lp5330
I1516
ag5037
aag3847
ag3848
ag3849
a(lp5331
I1520
ag5037
aag3852
ag3853
ag3854
ag3855
ag3856
ag3857
ag3858
a(lp5332
I1528
ag5037
aag3862
ag3863
ag3864
a(lp5333
I1532
ag5037
aag3867
ag3868
ag3869
ag3870
ag3871
a(lp5334
I1539
ag5037
aag3874
ag3875
ag3876
ag3877
ag3878
ag3879
ag3880
a(lp5335
I1548
ag5037
aag3884
ag3885
ag3886
a(lp5336
I1552
ag5037
aag3889
ag3890
ag3891
ag3892
a(lp5337
I1558
ag5037
aag3896
ag3897
a(lp5338
I1561
ag5037
aag3900
ag3901
ag3902
ag3903
ag3904
a(lp5339
I1567
ag5037
aag3907
ag3908
ag3909
ag3910
a(lp5340
I1572
ag5037
aag3913
ag3914
ag3915
ag3916
a(lp5341
I1577
ag5037
aag3920
ag3921
ag3922
ag3923
a(lp5342
I1582
ag5037
aag3926
a(lp5343
I1584
ag5037
aag3929
ag3930
ag3931
ag3932
a(lp5344
I1590
ag5037
aag3936
ag3937
a(lp5345
I1593
ag5037
aag3941
ag3942
ag3943
ag3944
a(lp5346
I1598
ag5037
aag3947
ag3948
ag3949
a(lp5347
I1602
ag5037
aag3953
ag3954
ag3955
a(lp5348
I1606
ag5037
aag3958
ag3959
ag3960
a(lp5349
I1610
ag5037
aag3963
ag3964
ag3965
ag3966
ag3967
ag3968
a(lp5350
I1617
ag5037
aag3971
ag3972
ag3973
ag3974
a(lp5351
I1623
ag5037
aag3977
ag3978
ag3979
ag3980
a(lp5352
I1628
ag5037
aag3984
ag3985
ag3986
a(lp5353
I1632
ag5037
aag3990
ag3991
a(lp5354
I1635
ag5037
aag3994
ag3995
ag3996
ag3997
a(lp5355
I1640
ag5037
aag4001
ag4002
ag4003
ag4004
a(lp5356
I1645
ag5037
aag4008
ag4009
ag4010
a(lp5357
I1649
ag5037
aag4013
ag4014
ag4015
ag4016
a(lp5358
I1654
ag5037
aag4020
ag4021
a(lp5359
I1657
ag5037
aag4025
ag4026
ag4027
a(lp5360
I1661
ag5037
aag4030
ag4031
ag4032
ag4033
ag4034
ag4035
ag4036
ag4037
ag4038
ag4039
a(lp5361
I1672
ag5037
aag4043
ag4044
ag4045
a(lp5362
I1676
ag5037
aag4048
ag4049
ag4050
ag4051
ag4052
ag4053
ag4054
a(lp5363
I1684
ag5037
aag4058
ag4059
a(lp5364
I1687
ag5037
aag4062
a(lp5365
I1689
ag5037
aag4065
ag4066
ag4067
ag4068
ag4069
a(lp5366
I1695
ag5037
aag4072
ag4073
ag4074
ag4075
ag4076
a(lp5367
I1701
ag5037
aag4080
ag4081
ag4082
ag4083
a(lp5368
I1706
ag5037
aag4087
ag4088
ag4089
a(lp5369
I1710
ag5037
aag4092
ag4093
ag4094
ag4095
a(lp5370
I1716
ag5037
aag4099
ag4100
a(lp5371
I1719
ag5037
aag4103
ag4104
ag4105
ag4106
ag4107
ag4108
ag4109
a(lp5372
I1727
ag5037
aag4113
ag4114
ag4115
a(lp5373
I1731
ag5037
aag4118
a(lp5374
I1733
ag5037
aag4122
ag4123
ag4124
a(lp5375
I1737
ag5037
aag4128
ag4129
a(lp5376
I1740
ag5037
aag4133
ag4134
ag4135
a(lp5377
I1744
ag5037
aag4138
ag4139
ag4141
a(lp5378
I1749
ag5037
aag4145
ag4146
ag4147
a(lp5379
I1753
ag5037
aag4151
ag4152
ag4153
ag4154
a(lp5380
I1758
ag5037
aag4157
ag4158
ag4159
ag4160
a(lp5381
I1764
ag5037
aag4164
ag4165
a(lp5382
I1767
ag5037
aag4168
ag4169
ag4170
ag4171
a(lp5383
I1772
ag5037
aag4175
ag4176
a(lp5384
I1775
ag5037
aag4179
ag4180
ag4181
ag4182
ag4183
a(lp5385
I1781
ag5037
aag4187
ag4188
ag4189
ag4190
a(lp5386
I1786
ag5037
aag4194
ag4195
a(lp5387
I1789
ag5037
aag4198
ag4199
a(lp5388
I1792
ag5037
aag4202
ag4203
ag4204
ag4205
a(lp5389
I1798
ag5037
aag4208
ag4209
ag4210
ag4211
a(lp5390
I1803
ag5037
aag4214
ag4215
ag4216
ag4217
a(lp5391
I1808
ag5037
aag4221
ag4222
a(lp5392
I1811
ag5037
aag4225
ag4226
ag4227
a(lp5393
I1815
ag5037
aag4231
ag4232
a(lp5394
I1818
ag5037
aag4236
ag4237
ag4238
a(lp5395
I1822
ag5037
aag4241
ag4242
ag4243
ag4244
ag4245
ag4246
ag4247
a(lp5396
I1830
ag5037
aag4251
ag4252
a(lp5397
I1833
ag5037
aag4255
ag4256
ag4257
a(lp5398
I1837
ag5037
aag4261
ag4262
a(lp5399
I1840
ag5037
aag4266
ag4267
ag4268
a(lp5400
I1844
ag5037
aag4271
ag4272
ag4273
ag4274
a(lp5401
I1849
ag5037
aag4277
ag4278
ag4279
ag4280
ag4281
ag4282
ag4283
a(lp5402
I1857
ag5037
aag4286
ag4287
ag4288
ag4289
ag4290
ag4291
a(lp5403
I1865
ag5037
aag4294
ag4295
ag4296
ag4297
a(lp5404
I1870
ag5037
aag4301
ag4302
ag4303
ag4304
a(lp5405
I1875
ag5037
aag4308
ag4309
ag4310
a(lp5406
I1879
ag5037
aag4313
ag4314
ag4315
ag4316
ag4317
ag4318
ag4319
ag4320
ag4321
a(lp5407
I1889
ag5037
aag4325
ag4326
ag4327
a(lp5408
I1893
ag5037
aag4330
ag4331
ag4332
ag4333
ag4334
ag4335
ag4336
a(lp5409
I1901
ag5037
aag4340
ag4341
ag4342
a(lp5410
I1905
ag5037
aag4345
ag4346
ag4347
ag4348
ag4349
a(lp5411
I1912
ag5037
aag4352
ag4353
a(lp5412
I1915
ag5037
aag4357
ag4358
a(lp5413
I1918
ag5037
aag4362
ag4363
ag4364
a(lp5414
I1922
ag5037
aag4367
ag4368
ag4369
ag4370
ag4371
a(lp5415
I1928
ag5037
aag4375
ag4376
ag4377
a(lp5416
I1932
ag5037
aag4380
ag4381
ag4382
ag4383
ag4384
ag4385
a(lp5417
I1939
ag5037
aag4389
ag4390
a(lp5418
I1942
ag5037
aag4394
ag4395
ag4396
a(lp5419
I1946
ag5037
aag4399
ag4400
ag4401
ag4402
a(lp5420
I1951
ag5037
aag4405
ag4406
ag4407
ag4408
ag4409
ag4410
ag4411
ag4412
ag4413
a(lp5421
I1962
ag5037
aag4417
ag4418
ag4419
a(lp5422
I1966
ag5037
aag4423
ag4424
a(lp5423
I1969
ag5037
aag4428
ag4429
ag4430
a(lp5424
I1973
ag5037
aag4433
ag4434
ag4435
ag4436
ag4437
a(lp5425
I1980
ag5037
aag4440
ag4441
ag4442
a(lp5426
I1984
ag5037
aag4445
ag4446
ag4447
ag4448
ag4449
ag4450
ag4451
ag4452
ag4453
a(lp5427
I1995
ag5037
aag4457
ag4458
ag4459
a(lp5428
I1999
ag5037
aag4462
ag4463
ag4464
ag4465
ag4466
a(lp5429
I2005
ag5037
aag4470
ag4471
a(lp5430
I2008
ag5037
aag4474
ag4475
ag4476
ag4477
ag4478
ag4479
ag4480
ag4481
a(lp5431
I2017
ag5037
aag4485
ag4486
a(lp5432
I2020
ag5037
aag4490
ag4491
ag4492
a(lp5433
I2024
ag5037
aag4495
ag4496
ag4497
ag4498
ag4499
ag4500
ag4501
a(lp5434
I2032
ag5037
aag4504
ag4505
ag4506
ag4507
ag4508
ag4509
a(lp5435
I2039
ag5037
aag4513
ag4514
ag4515
a(lp5436
I2043
ag5037
aag4518
ag4519
ag4520
a(lp5437
I2048
ag5037
aag4523
ag4524
ag4525
ag4526
ag4527
ag4528
ag4529
a(lp5438
I2056
ag5037
aag4532
ag4533
ag4534
ag4535
a(lp5439
I2061
ag5037
aag4539
ag4540
a(lp5440
I2064
ag5037
aag4543
ag4544
ag4545
ag4546
ag4547
a(lp5441
I2070
ag5037
aag4551
ag4552
ag4553
ag4554
ag4555
a(lp5442
I2076
ag5037
aag4559
ag4560
a(lp5443
I2079
ag5037
aag4564
ag4565
ag4566
a(lp5444
I2083
ag5037
aag4569
ag4570
ag4571
ag4572
ag4573
ag4574
ag4575
ag4576
a(lp5445
I2092
ag5037
aag4580
ag4581
ag4582
ag4583
a(lp5446
I2097
ag5037
aag4587
ag4588
ag4589
ag4590
a(lp5447
I2102
ag5037
aag4594
ag4595
ag4596
ag4597
a(lp5448
I2107
ag5037
aag4600
ag4601
ag4602
a(lp5449
I2111
ag5037
aag4606
ag4607
ag4608
ag4609
a(lp5450
I2116
ag5037
aag4613
ag4614
ag4615
a(lp5451
I2120
ag5037
aag4618
ag4619
ag4620
ag4621
ag4622
ag4623
a(lp5452
I2127
ag5037
aag4627
ag4628
ag4629
ag4630
a(lp5453
I2132
ag5037
aag4634
ag4635
a(lp5454
I2135
ag5037
aag4639
ag4640
ag4641
a(lp5455
I2139
ag5037
aag4644
ag4645
ag4646
ag4647
a(lp5456
I2144
ag5037
aag4650
ag4651
ag4652
ag4653
ag4654
a(lp5457
I2151
ag5037
aag4657
ag4658
ag4659
ag4660
a(lp5458
I2156
ag5037
aag4663
ag4664
ag4665
ag4666
ag4667
ag4668
a(lp5459
I2164
ag5037
aag4672
ag4673
ag4674
a(lp5460
I2168
ag5037
aag4677
ag4678
ag4679
ag4680
ag4681
ag4682
a(lp5461
I2176
ag5037
aag4686
ag4687
a(lp5462
I2179
ag5037
aag4691
ag4692
ag4693
ag4694
a(lp5463
I2184
ag5037
aag4698
ag4699
ag4700
a(lp5464
I2188
ag5037
aag4703
ag4704
ag4705
ag4706
a(lp5465
I2193
ag5037
aag4710
ag4711
ag4712
ag4713
a(lp5466
I2198
ag5037
aag4716
ag4717
ag4718
a(lp5467
I2202
ag5037
aag4722
ag4723
ag4724
a(lp5468
I2206
ag5037
aag4728
ag4729
ag4730
a(lp5469
I2210
ag5037
aag4733
ag4734
ag4735
ag4736
ag4737
ag4738
a(lp5470
I2217
ag5037
aag4741
ag4742
ag4743
ag4744
a(lp5471
I2222
ag5037
aag4748
ag4749
ag4750
a(lp5472
I2226
ag5037
aag4753
ag4754
ag4755
ag4756
ag4757
ag4758
ag4759
ag4760
a(lp5473
I2235
ag5037
aag4764
ag4765
a(lp5474
I2238
ag5037
aag4768
ag4769
ag4770
ag4771
a(lp5475
I2243
ag5037
aag4775
ag4776
ag4777
ag4778
a(lp5476
I2248
ag5037
aag4782
ag4783
ag4784
ag4785
ag4786
a(lp5477
I2254
ag5037
aag4789
ag4790
ag4791
ag4792
ag4793
ag4794
ag4795
ag4796
a(lp5478
I2263
ag5037
aag4800
ag4801
a(lp5479
I2266
ag5037
aag4805
ag4806
ag4807
a(lp5480
I2270
ag5037
aag4810
ag4811
ag4812
ag4813
a(lp5481
I2276
ag5037
aag4817
ag4818
ag4819
a(lp5482
I2280
ag5037
aag4823
ag4824
ag4825
a(lp5483
I2284
ag5037
aag4829
ag4830
ag4831
ag4832
a(lp5484
I2289
ag5037
aag4836
ag4837
a(lp5485
I2292
ag5037
aag4841
ag4842
a(lp5486
I2295
ag5037
aag4846
ag4847
a(lp5487
I2298
ag5037
aag4850
ag4851
ag4852
ag4853
a(lp5488
I2303
ag5037
aag4857
ag4858
ag4859
ag4860
a(lp5489
I2308
ag5037
aag4864
ag4865
a(lp5490
I2311
ag5037
aag4869
ag4870
ag4871
a(lp5491
I2315
ag5037
aag4874
ag4875
ag4876
ag4877
ag4878
a(lp5492
I2321
ag5037
aag4882
ag4883
ag4884
a(lp5493
I2325
ag5037
aag4887
ag4888
ag4889
ag4890
a(lp5494
I2330
ag5037
aag4893
ag4894
ag4895
ag4896
ag4897
ag4898
ag4899
ag4900
ag4901
ag4902
ag4903
ag4904
a(lp5495
I2343
ag5037
aag4908
ag4909
ag4910
a(lp5496
I2347
ag5037
aag4914
ag4915
ag4916
a(lp5497
I2351
ag5037
aag4919
ag4920
ag4921
ag4922
a(lp5498
I2356
ag5037
aag4926
ag4927
ag4928
a(lp5499
I2360
ag5037
aag4931
ag4932
ag4933
ag4934
a(lp5500
I2365
ag5037
aag4938
ag4939
a(lp5501
I2368
ag5037
aag4942
ag4943
ag4944
ag4945
ag4946
a(lp5502
I2374
ag5037
aag4950
ag4951
ag4952
a(lp5503
I2378
ag5037
aag4956
ag4957
ag4958
ag4959
ag4960
a(lp5504
I2384
ag5037
aag4964
ag4965
ag4966
a(lp5505
I2388
ag5037
aag4969
ag4970
ag4971
ag4972
a(lp5506
I2393
ag5037
aag4976
ag4977
a(lp5507
I2396
ag5037
aag4980
ag4981
a(lp5508
I2399
ag5037
aag4985
ag4986
ag4987
a(lp5509
I2403
ag5037
aag4990
ag4991
ag4992
ag4993
a(lp5510
I2408
ag5037
aag4997
ag4998
a(lp5511
I2412
ag5037
aag5002
ag5003
ag5004
ag5005
a(lp5512
I2417
ag5037
aag5009
ag5010
ag5011
ag5012
a(lp5513
I2422
ag5037
aag5016
ag5017
a(lp5514
I2425
ag5037
aag5020
ag5021
ag5022
ag5023
ag5024
ag5025
ag5026
a(lp5515
I2434
ag5037
aag5029
ag5030
ag5031
ag5032
ag5033
a(lp5516
I2440
ag5037
aa(lp5517
I2441
ag1907
aa(lp5518
I2442
ag1872
aa(lp5519
I2443
ag1898
aa(lp5520
I2444
ag1879
aa(lp5521
I2445
ag1968
aasS'text'
p5522
S"excellent 48 year old with a moderate budget, traveling for leisure1\xc2\xa0reviews\xc2\xa0 my husband and i have been there 3 times in the last year. each time we have been there it has been wonderful. the service has been great. might be because we go during the week when they are less busy. our rooms have always been ready on time. if not early. they have always upgraded us to a suite and they are extremely nice. we have never eaten dinner at the buffet. but the breakfast has been good. the 1875 steakhouse, is good (little pricey) and hagen's is also good. the pizza at pluto's is outstanding. each time we have been there it has been during a different season. if you have the chance to go at christmas the decorations are beautiful. this fall will be our fourth trip this year and the last of the seasons for us. we will have seen it at every time of the year. if you are going to gamble request the garden wing. it is the closest to the casino and with the service elevators (ask where they are) it is not a very far walk at all. we have found the staff very friendly and more than willing to answer questions and talk with us about the history of the hotels. since we like to sleep in while we are away we usually do not have our room cleaned every day. once while we are there is enough. i just ask for extra towels and coffee. the floor maid is usually waiting in the hall or is close by when we leave our room after lunch and always asks if we need anything. this is a destination hotel and you need to take time and explore the hotel, grounds, and town. we never stay less than 3 days. in this day and age people don't know how to slow down and take in the atmosphere and history of a grand hotel from the past. my husband and i are in our 40's and both work. we like to relax when we go away. take time to sit on the veranda in one of the many rocking chairs, walk down the promenade and explore the shops, go to the lobby for drinks in the late afternoon, and by all means. ask questions. you might be suprized at the history lesson you get. another plus to going there is the shuttles they have that run from the resort over to the west baden, golf course, and winery. so once you park your car you can either take the shuttles or walk just about anywhere in the town. all you have to do is call down to the lobby and make arrangements for the time you want to leave and where you want to go and show up. they will be waiting. hotel deals"
p5523
sS'cleanWordMap'
p5524
(lp5525
g1869
ag1886
ag1892
ag1901
ag1921
ag1932
ag1943
ag1962
ag1989
ag2029
ag2032
ag2050
ag2056
ag2069
ag2120
ag2137
ag2159
ag2166
ag2193
ag2212
ag2239
ag2245
ag2257
ag2271
ag2286
ag2298
ag2315
ag2336
ag2344
ag2355
ag2367
ag2393
ag2404
ag2422
ag2429
ag2436
ag2455
ag2475
ag2499
ag2511
ag2519
ag2536
ag2542
ag2550
ag2564
ag2577
ag2583
ag2595
ag2608
ag2621
ag2641
ag2704
ag2715
ag2747
ag2760
ag2769
ag2786
ag2805
ag2823
ag2847
ag2855
ag2868
ag2886
ag2903
ag2918
ag2941
ag2957
ag2964
ag2981
ag3004
ag3016
ag3024
ag3040
ag3048
ag3070
ag3090
ag3117
ag3126
ag3137
ag3189
ag3194
ag3223
ag3236
ag3250
ag3280
ag3294
ag3302
ag3319
ag3332
ag3350
ag3370
ag3378
ag3390
ag3401
ag3432
ag3443
ag3476
ag3482
ag3491
ag3498
ag3542
ag3561
ag3572
ag3579
ag3593
ag3607
ag3614
ag3625
ag3634
ag3654
ag3670
ag3694
ag3707
ag3721
ag3734
ag3742
ag3758
ag3764
ag3789
ag3802
ag3821
ag3832
ag3838
ag3850
ag3865
ag3872
ag3887
ag3898
ag3905
ag3911
ag3924
ag3927
ag3945
ag3956
ag3961
ag3969
ag3975
ag3992
ag4011
ag4028
ag4046
ag4063
ag4070
ag4090
ag4101
ag4136
ag4155
ag4166
ag4177
ag4196
ag4200
ag4206
ag4212
ag4223
ag4239
ag4253
ag4269
ag4275
ag4284
ag4292
ag4311
ag4328
ag4343
ag4350
ag4365
ag4378
ag4397
ag4403
ag4431
ag4438
ag4443
ag4460
ag4472
ag4493
ag4502
ag4516
ag4521
ag4530
ag4541
ag4567
ag4598
ag4616
ag4642
ag4648
ag4655
ag4661
ag4675
ag4701
ag4714
ag4731
ag4739
ag4751
ag4766
ag4787
ag4808
ag4848
ag4872
ag4885
ag4891
ag4917
ag4929
ag4940
ag4967
ag4978
ag4988
ag5018
ag5027
asS'lines'
p5526
(lp5527
VExcellent\u000a
p5528
aV48 year old with a moderate budget, traveling for leisure1reviews\u000a
p5529
aVMy husband and I have been there 3 times in the last year. Each time we have been there it has been wonderful. The service has been great. Might be because we go during the week when they are less busy. Our rooms have always been ready on time. If not early. They have always upgraded us to a suite and they are extremely nice. We have never eaten dinner at the buffet. but the breakfast has been good. The 1875 Steakhouse, is good (little pricey) and Hagen's is also good. The pizza at Pluto's is outstanding.\u000a
p5530
aVEach time we have been there it has been during a different season. If you have the chance to go at Christmas the decorations are beautiful. This fall will be our fourth trip this year and the last of the seasons for us. We will have seen it at every time of the year.\u000a
p5531
aVIf you are going to gamble request the garden wing. It is the closest to the casino and with the service elevators (ask where they are) it is not a very far walk at all.\u000a
p5532
aVWe have found the staff very friendly and more than willing to answer questions and talk with us about the history of the hotels. Since we like to sleep in while we are away we usually do not have our room cleaned every day. Once while we are there is enough. I just ask for extra towels and coffee. The floor maid is usually waiting in the hall or is close by when we leave our room after lunch and always asks if we need anything.\u000a
p5533
aVThis is a destination hotel and you need to take time and explore the hotel, grounds, and town. We never stay less than 3 days. In this day and age people don't know how to slow down and take in the atmosphere and history of a grand hotel from the past. My husband and I are in our 40's and both work. We like to relax when we go away. Take time to sit on the veranda in one of the many rocking chairs, walk down the promenade and explore the shops, go to the lobby for drinks in the late afternoon, and by all means. Ask questions. You might be suprized at the history lesson you get.\u000a
p5534
aVAnother plus to going there is the shuttles they have that run from the resort over to the West Baden, golf course, and winery. So once you park your car you can either take the shuttles or walk just about anywhere in the town. All you have to do is call down to the lobby and make arrangements for the time you want to leave and where you want to go and show up. They will be waiting.\u000a
p5535
aVHotel Deals
p5536
asS'docType'
p5537
S'src'
p5538
sS'newfmap'
p5539
(lp5540
g4
ag8
ag10
ag12
ag14
ag17
ag19
ag21
ag23
ag26
ag28
ag30
ag32
ag35
ag37
ag39
ag41
ag44
ag46
ag48
ag50
ag53
ag55
ag57
ag59
ag62
ag64
ag66
ag68
ag71
ag73
ag75
ag77
ag80
ag82
ag84
ag86
ag89
ag91
ag93
ag95
ag98
ag100
ag102
ag104
ag107
ag109
ag111
ag113
ag116
ag118
ag120
ag122
ag125
ag127
ag129
ag131
ag134
ag136
ag138
ag140
ag143
ag145
ag147
ag149
ag152
ag154
ag156
ag158
ag161
ag163
ag165
ag167
ag170
ag172
ag174
ag176
ag179
ag181
ag183
ag185
ag188
ag190
ag192
ag194
ag197
ag199
ag201
ag203
ag206
ag208
ag210
ag212
ag215
ag217
ag219
ag221
ag224
ag226
ag228
ag230
ag233
ag235
ag237
ag239
ag242
ag244
ag246
ag248
ag251
ag253
ag255
ag257
ag260
ag262
ag264
ag266
ag269
ag271
ag273
ag275
ag278
ag280
ag282
ag284
ag287
ag289
ag291
ag293
ag296
ag298
ag300
ag302
ag305
ag307
ag309
ag311
ag314
ag316
ag318
ag320
ag323
ag325
ag327
ag329
ag332
ag334
ag336
ag338
ag341
ag343
ag345
ag347
ag350
ag352
ag354
ag356
ag359
ag361
ag363
ag365
ag368
ag370
ag372
ag374
ag377
ag379
ag381
ag383
ag386
ag388
ag390
ag392
ag395
ag397
ag399
ag401
ag404
ag406
ag408
ag410
ag413
ag415
ag417
ag419
ag422
ag424
ag426
ag428
ag431
ag433
ag435
ag437
ag440
ag442
ag444
ag446
ag449
ag451
ag453
ag455
ag458
ag460
ag462
ag464
ag467
ag469
ag471
ag473
ag476
ag478
ag480
ag482
ag485
ag487
ag489
ag491
ag494
ag496
ag498
ag500
ag503
ag505
ag507
ag509
ag512
ag514
ag516
ag518
ag521
ag523
ag525
ag527
ag530
ag532
ag534
ag536
ag539
ag541
ag543
ag545
ag548
ag550
ag552
ag554
ag557
ag559
ag561
ag563
ag566
ag568
ag570
ag572
ag575
ag577
ag579
ag581
ag584
ag586
ag588
ag590
ag593
ag595
ag597
ag599
ag602
ag604
ag606
ag608
ag611
ag613
ag615
ag617
ag620
ag622
ag624
ag626
ag629
ag631
ag633
ag635
ag638
ag640
ag642
ag644
ag647
ag649
ag651
ag653
ag656
ag658
ag660
ag662
ag665
ag667
ag669
ag671
ag674
ag676
ag678
ag680
ag683
ag685
ag687
ag689
ag692
ag694
ag696
ag698
ag701
ag703
ag705
ag707
ag710
ag712
ag714
ag716
ag719
ag721
ag723
ag725
ag728
ag730
ag732
ag734
ag737
ag739
ag741
ag743
ag746
ag748
ag750
ag752
ag755
ag757
ag759
ag761
ag764
ag766
ag768
ag770
ag773
ag775
ag777
ag779
ag782
ag784
ag786
ag788
ag791
ag793
ag795
ag797
ag800
ag802
ag804
ag806
ag809
ag811
ag813
ag815
ag818
ag820
ag822
ag824
ag827
ag829
ag831
ag833
ag836
ag838
ag840
ag842
ag845
ag847
ag849
ag851
ag854
ag856
ag858
ag860
ag863
ag865
ag867
ag869
ag872
ag874
ag876
ag878
ag881
ag883
ag885
ag887
ag890
ag892
ag894
ag896
ag899
ag901
ag903
ag905
ag908
ag910
ag912
ag914
ag917
ag919
ag921
ag923
ag926
ag928
ag930
ag932
ag935
ag937
ag939
ag941
ag944
ag946
ag948
ag950
ag953
ag955
ag957
ag959
ag962
ag964
ag966
ag968
ag971
ag973
ag975
ag977
ag980
ag982
ag984
ag986
ag989
ag991
ag993
ag995
ag998
ag1000
ag1002
ag1004
ag1007
ag1009
ag1011
ag1013
ag1016
ag1018
ag1020
ag1022
ag1025
ag1027
ag1029
ag1031
ag1034
ag1036
ag1038
ag1040
ag1043
ag1045
ag1047
ag1049
ag1052
ag1054
ag1056
ag1058
ag1061
ag1063
ag1065
ag1067
ag1070
ag1072
ag1074
ag1076
ag1079
ag1081
ag1083
ag1085
ag1088
ag1090
ag1092
ag1094
ag1097
ag1099
ag1101
ag1103
ag1106
ag1108
ag1110
ag1112
ag1115
ag1117
ag1119
ag1121
ag1124
ag1126
ag1128
ag1130
ag1133
ag1135
ag1137
ag1139
ag1142
ag1144
ag1146
ag1148
ag1151
ag1153
ag1155
ag1157
ag1160
ag1162
ag1164
ag1166
ag1169
ag1171
ag1173
ag1175
ag1177
ag1179
ag1181
ag1183
ag1186
ag1188
ag1190
ag1192
ag1195
ag1197
ag1199
ag1201
ag1204
ag1206
ag1208
ag1210
ag1213
ag1215
ag1217
ag1219
ag1222
ag1224
ag1226
ag1228
ag1231
ag1233
ag1235
ag1237
ag1240
ag1242
ag1244
ag1246
ag1249
ag1251
ag1253
ag1255
ag1258
ag1260
ag1262
ag1264
ag1267
ag1269
ag1271
ag1273
ag1276
ag1278
ag1280
ag1282
ag1285
ag1287
ag1289
ag1291
ag1294
ag1296
ag1298
ag1300
ag1303
ag1305
ag1307
ag1309
ag1312
ag1314
ag1316
ag1318
ag1321
ag1323
ag1325
ag1327
ag1330
ag1332
ag1334
ag1336
ag1339
ag1341
ag1343
ag1345
ag1348
ag1350
ag1352
ag1354
ag1357
ag1359
ag1361
ag1363
ag1366
ag1368
ag1370
ag1372
ag1375
ag1377
ag1379
ag1381
ag1384
ag1386
ag1388
ag1390
ag1393
ag1395
ag1397
ag1399
ag1402
ag1404
ag1406
ag1408
ag1411
ag1413
ag1415
ag1417
ag1420
ag1422
ag1424
ag1426
ag1429
ag1431
ag1433
ag1435
ag1438
ag1440
ag1442
ag1444
ag1447
ag1449
ag1451
ag1453
ag1456
ag1458
ag1460
ag1462
ag1465
ag1467
ag1469
ag1471
ag1474
ag1476
ag1478
ag1480
ag1483
ag1485
ag1487
ag1489
ag1492
ag1494
ag1496
ag1498
ag1501
ag1503
ag1505
ag1507
ag1510
ag1512
ag1514
ag1516
ag1519
ag1521
ag1523
ag1525
ag1528
ag1530
ag1532
ag1534
ag1537
ag1539
ag1541
ag1543
ag1546
ag1548
ag1550
ag1552
ag1555
ag1557
ag1559
ag1561
ag1564
ag1566
ag1568
ag1570
ag1573
ag1575
ag1577
ag1579
ag1582
ag1584
ag1586
ag1588
ag1591
ag1593
ag1595
ag1597
ag1600
ag1602
ag1604
ag1606
ag1609
ag1611
ag1613
ag1615
ag1618
ag1620
ag1622
ag1624
ag1627
ag1629
ag1631
ag1633
ag1636
ag1638
ag1640
ag1642
ag1645
ag1647
ag1649
ag1651
ag1654
ag1656
ag1658
ag1660
ag1663
ag1665
ag1667
ag1669
ag1672
ag1674
ag1676
ag1678
ag1681
ag1683
ag1685
ag1687
ag1690
ag1692
ag1694
ag1696
ag1699
ag1701
ag1703
ag1705
ag1708
ag1710
ag1712
ag1714
ag1717
ag1719
ag1721
ag1723
ag1726
ag1728
ag1730
ag1732
ag1735
ag1737
ag1739
ag1741
ag1744
ag1746
ag1748
ag1750
ag1753
ag1755
ag1757
ag1759
ag1762
ag1764
ag1766
ag1768
ag1771
ag1773
ag1775
ag1777
ag1780
ag1782
ag1784
ag1786
ag1789
ag1791
ag1793
ag1795
ag1798
ag1800
ag1802
ag1804
ag1807
ag1809
ag1811
ag1813
ag1816
ag1818
ag1820
ag1822
ag1825
ag1827
ag1829
ag1831
ag1834
ag1836
ag1838
ag1840
ag1843
ag1845
ag1847
ag1849
ag1852
ag1854
ag1856
ag1858
ag1861
ag1863
ag1865
asS'featureMap'
p5541
(lp5542
(lp5543
I0
aI8
ag5
ag6
ag9
ag11
ag13
aa(lp5544
I10
aI11
ag15
ag16
ag18
ag20
ag22
aa(lp5545
I13
aI16
ag24
ag25
ag27
ag29
ag31
aa(lp5546
I18
aI20
ag33
ag34
ag36
ag38
ag40
aa(lp5547
I29
aI36
ag42
ag43
ag45
ag47
ag49
aa(lp5548
I38
aI43
ag51
ag52
ag54
ag56
ag58
aa(lp5549
I46
aI54
ag60
ag61
ag63
ag65
ag67
aa(lp5550
I60
aI78
ag69
ag70
ag72
ag74
ag76
aa(lp5551
I83
aI89
ag78
ag79
ag81
ag83
ag85
aa(lp5552
I113
aI113
ag87
ag88
ag90
ag92
ag94
aa(lp5553
I115
aI119
ag96
ag97
ag99
ag101
ag103
aa(lp5554
I128
aI131
ag105
ag106
ag108
ag110
ag112
aa(lp5555
I133
aI136
ag114
ag115
ag117
ag119
ag121
aa(lp5556
I144
aI147
ag123
ag124
ag126
ag128
ag130
aa(lp5557
I180
aI188
ag132
ag133
ag135
ag137
ag139
aa(lp5558
I195
aI201
ag141
ag142
ag144
ag146
ag148
aa(lp5559
I212
aI216
ag150
ag151
ag153
ag155
ag157
aa(lp5560
I219
aI223
ag159
ag160
ag162
ag164
ag166
aa(lp5561
I239
aI240
ag168
ag169
ag171
ag173
ag175
aa(lp5562
I253
aI256
ag177
ag178
ag180
ag182
ag184
aa(lp5563
I272
aI275
ag186
ag187
ag189
ag191
ag193
aa(lp5564
I277
aI280
ag195
ag196
ag198
ag200
ag202
aa(lp5565
I287
aI291
ag204
ag205
ag207
ag209
ag211
aa(lp5566
I298
aI303
ag213
ag214
ag216
ag218
ag220
aa(lp5567
I310
aI314
ag222
ag223
ag225
ag227
ag229
aa(lp5568
I319
aI322
ag231
ag232
ag234
ag236
ag238
aa(lp5569
I332
aI336
ag240
ag241
ag243
ag245
ag247
aa(lp5570
I349
aI354
ag249
ag250
ag252
ag254
ag256
aa(lp5571
I356
aI363
ag258
ag259
ag261
ag263
ag265
aa(lp5572
I365
aI366
ag267
ag268
ag270
ag272
ag274
aa(lp5573
I373
aI377
ag276
ag277
ag279
ag281
ag283
aa(lp5574
I392
aI400
ag285
ag286
ag288
ag290
ag292
aa(lp5575
I402
aI405
ag294
ag295
ag297
ag299
ag301
aa(lp5576
I416
aI420
ag303
ag304
ag306
ag308
ag310
aa(lp5577
I422
aI426
ag312
ag313
ag315
ag317
ag319
aa(lp5578
I428
aI433
ag321
ag322
ag324
ag326
ag328
aa(lp5579
I442
aI447
ag330
ag331
ag333
ag335
ag337
aa(lp5580
I458
aI466
ag339
ag340
ag342
ag344
ag346
aa(lp5581
I477
aI480
ag348
ag349
ag351
ag353
ag355
aa(lp5582
I487
aI490
ag357
ag358
ag360
ag362
ag364
aa(lp5583
I492
aI501
ag366
ag367
ag369
ag371
ag373
aa(lp5584
I507
aI510
ag375
ag376
ag378
ag380
ag382
aa(lp5585
I513
aI518
ag384
ag385
ag387
ag389
ag391
aa(lp5586
I520
aI525
ag393
ag394
ag396
ag398
ag400
aa(lp5587
I532
aI538
ag402
ag403
ag405
ag407
ag409
aa(lp5588
I543
aI546
ag411
ag412
ag414
ag416
ag418
aa(lp5589
I548
aI551
ag420
ag421
ag423
ag425
ag427
aa(lp5590
I558
aI562
ag429
ag430
ag432
ag434
ag436
aa(lp5591
I567
aI573
ag438
ag439
ag441
ag443
ag445
aa(lp5592
I578
aI588
ag447
ag448
ag450
ag452
ag454
aa(lp5593
I596
aI599
ag456
ag457
ag459
ag461
ag463
aa(lp5594
I641
aI649
ag465
ag466
ag468
ag470
ag472
aa(lp5595
I651
aI656
ag474
ag475
ag477
ag479
ag481
aa(lp5596
I675
aI680
ag483
ag484
ag486
ag488
ag490
aa(lp5597
I685
aI686
ag492
ag493
ag495
ag497
ag499
aa(lp5598
I691
aI699
ag501
ag502
ag504
ag506
ag508
aa(lp5599
I705
aI715
ag510
ag511
ag513
ag515
ag517
aa(lp5600
I721
aI729
ag519
ag520
ag522
ag524
ag526
aa(lp5601
I737
aI740
ag528
ag529
ag531
ag533
ag535
aa(lp5602
I754
aI759
ag537
ag538
ag540
ag542
ag544
aa(lp5603
I761
aI764
ag546
ag547
ag549
ag551
ag553
aa(lp5604
I771
aI774
ag555
ag556
ag558
ag560
ag562
aa(lp5605
I784
aI787
ag564
ag565
ag567
ag569
ag571
aa(lp5606
I796
aI802
ag573
ag574
ag576
ag578
ag580
aa(lp5607
I808
aI809
ag582
ag583
ag585
ag587
ag589
aa(lp5608
I825
aI828
ag591
ag592
ag594
ag596
ag598
aa(lp5609
I836
aI840
ag600
ag601
ag603
ag605
ag607
aa(lp5610
I842
aI845
ag609
ag610
ag612
ag614
ag616
aa(lp5611
I854
aI857
ag618
ag619
ag621
ag623
ag625
aa(lp5612
I871
aI875
ag627
ag628
ag630
ag632
ag634
aa(lp5613
I880
aI885
ag636
ag637
ag639
ag641
ag643
aa(lp5614
I887
aI893
ag645
ag646
ag648
ag650
ag652
aa(lp5615
I899
aI904
ag654
ag655
ag657
ag659
ag661
aa(lp5616
I906
aI909
ag663
ag664
ag666
ag668
ag670
aa(lp5617
I922
aI928
ag672
ag673
ag675
ag677
ag679
aa(lp5618
I937
aI942
ag681
ag682
ag684
ag686
ag688
aa(lp5619
I957
aI963
ag690
ag691
ag693
ag695
ag697
aa(lp5620
I965
aI973
ag699
ag700
ag702
ag704
ag706
aa(lp5621
I976
aI978
ag708
ag709
ag711
ag713
ag715
aa(lp5622
I1013
aI1015
ag717
ag718
ag720
ag722
ag724
aa(lp5623
I1017
aI1020
ag726
ag727
ag729
ag731
ag733
aa(lp5624
I1038
aI1042
ag735
ag736
ag738
ag740
ag742
aa(lp5625
I1048
aI1052
ag744
ag745
ag747
ag749
ag751
aa(lp5626
I1059
aI1066
ag753
ag754
ag756
ag758
ag760
aa(lp5627
I1082
aI1088
ag762
ag763
ag765
ag767
ag769
aa(lp5628
I1093
aI1098
ag771
ag772
ag774
ag776
ag778
aa(lp5629
I1100
aI1108
ag780
ag781
ag783
ag785
ag787
aa(lp5630
I1114
aI1117
ag789
ag790
ag792
ag794
ag796
aa(lp5631
I1124
aI1125
ag798
ag799
ag801
ag803
ag805
aa(lp5632
I1137
aI1143
ag807
ag808
ag810
ag812
ag814
aa(lp5633
I1152
aI1157
ag816
ag817
ag819
ag821
ag823
aa(lp5634
I1160
aI1164
ag825
ag826
ag828
ag830
ag832
aa(lp5635
I1169
aI1172
ag834
ag835
ag837
ag839
ag841
aa(lp5636
I1177
aI1181
ag843
ag844
ag846
ag848
ag850
aa(lp5637
I1199
aI1202
ag852
ag853
ag855
ag857
ag859
aa(lp5638
I1207
aI1213
ag861
ag862
ag864
ag866
ag868
aa(lp5639
I1231
aI1234
ag870
ag871
ag873
ag875
ag877
aa(lp5640
I1236
aI1242
ag879
ag880
ag882
ag884
ag886
aa(lp5641
I1244
aI1248
ag888
ag889
ag891
ag893
ag895
aa(lp5642
I1250
aI1252
ag897
ag898
ag900
ag902
ag904
aa(lp5643
I1282
aI1287
ag906
ag907
ag909
ag911
ag913
aa(lp5644
I1297
aI1299
ag915
ag916
ag918
ag920
ag922
aa(lp5645
I1305
aI1309
ag924
ag925
ag927
ag929
ag931
aa(lp5646
I1311
aI1316
ag933
ag934
ag936
ag938
ag940
aa(lp5647
I1322
aI1327
ag942
ag943
ag945
ag947
ag949
aa(lp5648
I1334
aI1338
ag951
ag952
ag954
ag956
ag958
aa(lp5649
I1340
aI1343
ag960
ag961
ag963
ag965
ag967
aa(lp5650
I1348
aI1354
ag969
ag970
ag972
ag974
ag976
aa(lp5651
I1356
aI1362
ag978
ag979
ag981
ag983
ag985
aa(lp5652
I1371
aI1374
ag987
ag988
ag990
ag992
ag994
aa(lp5653
I1382
aI1386
ag996
ag997
ag999
ag1001
ag1003
aa(lp5654
I1399
aI1403
ag1005
ag1006
ag1008
ag1010
ag1012
aa(lp5655
I1409
aI1412
ag1014
ag1015
ag1017
ag1019
ag1021
aa(lp5656
I1420
aI1424
ag1023
ag1024
ag1026
ag1028
ag1030
aa(lp5657
I1430
aI1435
ag1032
ag1033
ag1035
ag1037
ag1039
aa(lp5658
I1437
aI1440
ag1041
ag1042
ag1044
ag1046
ag1048
aa(lp5659
I1448
aI1451
ag1050
ag1051
ag1053
ag1055
ag1057
aa(lp5660
I1453
aI1460
ag1059
ag1060
ag1062
ag1064
ag1066
aa(lp5661
I1473
aI1483
ag1068
ag1069
ag1071
ag1073
ag1075
aa(lp5662
I1485
aI1489
ag1077
ag1078
ag1080
ag1082
ag1084
aa(lp5663
I1499
aI1502
ag1086
ag1087
ag1089
ag1091
ag1093
aa(lp5664
I1507
aI1510
ag1095
ag1096
ag1098
ag1100
ag1102
aa(lp5665
I1512
aI1515
ag1104
ag1105
ag1107
ag1109
ag1111
aa(lp5666
I1521
aI1527
ag1113
ag1114
ag1116
ag1118
ag1120
aa(lp5667
I1533
aI1537
ag1122
ag1123
ag1125
ag1127
ag1129
aa(lp5668
I1540
aI1546
ag1131
ag1132
ag1134
ag1136
ag1138
aa(lp5669
I1553
aI1556
ag1140
ag1141
ag1143
ag1145
ag1147
aa(lp5670
I1562
aI1566
ag1149
ag1150
ag1152
ag1154
ag1156
aa(lp5671
I1568
aI1571
ag1158
ag1159
ag1161
ag1163
ag1165
aa(lp5672
I1573
aI1576
ag1167
ag1168
ag1170
ag1172
ag1174
aa(lp5673
I1583
aI1583
ag87
ag1176
ag1178
ag1180
ag1182
aa(lp5674
I1585
aI1588
ag1184
ag1185
ag1187
ag1189
ag1191
aa(lp5675
I1599
aI1601
ag1193
ag1194
ag1196
ag1198
ag1200
aa(lp5676
I1607
aI1609
ag1202
ag1203
ag1205
ag1207
ag1209
aa(lp5677
I1611
aI1616
ag1211
ag1212
ag1214
ag1216
ag1218
aa(lp5678
I1618
aI1622
ag1220
ag1221
ag1223
ag1225
ag1227
aa(lp5679
I1624
aI1627
ag1229
ag1230
ag1232
ag1234
ag1236
aa(lp5680
I1636
aI1639
ag1238
ag1239
ag1241
ag1243
ag1245
aa(lp5681
I1650
aI1653
ag1247
ag1248
ag1250
ag1252
ag1254
aa(lp5682
I1662
aI1671
ag1256
ag1257
ag1259
ag1261
ag1263
aa(lp5683
I1677
aI1683
ag1265
ag1266
ag1268
ag1270
ag1272
aa(lp5684
I1690
aI1694
ag1274
ag1275
ag1277
ag1279
ag1281
aa(lp5685
I1696
aI1700
ag1283
ag1284
ag1286
ag1288
ag1290
aa(lp5686
I1711
aI1714
ag1292
ag1293
ag1295
ag1297
ag1299
aa(lp5687
I1720
aI1726
ag1301
ag1302
ag1304
ag1306
ag1308
aa(lp5688
I1745
aI1748
ag1310
ag1311
ag1313
ag1315
ag1317
aa(lp5689
I1759
aI1762
ag1319
ag1320
ag1322
ag1324
ag1326
aa(lp5690
I1768
aI1771
ag1328
ag1329
ag1331
ag1333
ag1335
aa(lp5691
I1776
aI1780
ag1337
ag1338
ag1340
ag1342
ag1344
aa(lp5692
I1790
aI1791
ag1346
ag1347
ag1349
ag1351
ag1353
aa(lp5693
I1793
aI1796
ag1355
ag1356
ag1358
ag1360
ag1362
aa(lp5694
I1799
aI1802
ag1364
ag1365
ag1367
ag1369
ag1371
aa(lp5695
I1804
aI1807
ag1373
ag1374
ag1376
ag1378
ag1380
aa(lp5696
I1812
aI1814
ag1382
ag1383
ag1385
ag1387
ag1389
aa(lp5697
I1823
aI1829
ag1391
ag1392
ag1394
ag1396
ag1398
aa(lp5698
I1834
aI1836
ag1400
ag1401
ag1403
ag1405
ag1407
aa(lp5699
I1845
aI1848
ag1409
ag1410
ag1412
ag1414
ag1416
aa(lp5700
I1850
aI1856
ag1418
ag1419
ag1421
ag1423
ag1425
aa(lp5701
I1858
aI1863
ag1427
ag1428
ag1430
ag1432
ag1434
aa(lp5702
I1866
aI1869
ag1436
ag1437
ag1439
ag1441
ag1443
aa(lp5703
I1880
aI1888
ag1445
ag1446
ag1448
ag1450
ag1452
aa(lp5704
I1894
aI1900
ag1454
ag1455
ag1457
ag1459
ag1461
aa(lp5705
I1906
aI1910
ag1463
ag1464
ag1466
ag1468
ag1470
aa(lp5706
I1913
aI1914
ag1472
ag1473
ag1475
ag1477
ag1479
aa(lp5707
I1923
aI1927
ag1481
ag1482
ag1484
ag1486
ag1488
aa(lp5708
I1933
aI1938
ag1490
ag1491
ag1493
ag1495
ag1497
aa(lp5709
I1947
aI1950
ag1499
ag1500
ag1502
ag1504
ag1506
aa(lp5710
I1952
aI1960
ag1508
ag1509
ag1511
ag1513
ag1515
aa(lp5711
I1974
aI1978
ag1517
ag1518
ag1520
ag1522
ag1524
aa(lp5712
I1981
aI1983
ag1526
ag1527
ag1529
ag1531
ag1533
aa(lp5713
I1985
aI1993
ag1535
ag1536
ag1538
ag1540
ag1542
aa(lp5714
I2000
aI2004
ag1544
ag1545
ag1547
ag1549
ag1551
aa(lp5715
I2009
aI2016
ag1553
ag1554
ag1556
ag1558
ag1560
aa(lp5716
I2025
aI2031
ag1562
ag1563
ag1565
ag1567
ag1569
aa(lp5717
I2033
aI2038
ag1571
ag1572
ag1574
ag1576
ag1578
aa(lp5718
I2044
aI2046
ag1580
ag1581
ag1583
ag1585
ag1587
aa(lp5719
I2049
aI2055
ag1589
ag1590
ag1592
ag1594
ag1596
aa(lp5720
I2057
aI2060
ag1598
ag1599
ag1601
ag1603
ag1605
aa(lp5721
I2065
aI2069
ag1607
ag1608
ag1610
ag1612
ag1614
aa(lp5722
I2084
aI2091
ag1616
ag1617
ag1619
ag1621
ag1623
aa(lp5723
I2108
aI2110
ag1625
ag1626
ag1628
ag1630
ag1632
aa(lp5724
I2121
aI2126
ag1634
ag1635
ag1637
ag1639
ag1641
aa(lp5725
I2140
aI2143
ag1643
ag1644
ag1646
ag1648
ag1650
aa(lp5726
I2145
aI2149
ag1652
ag1653
ag1655
ag1657
ag1659
aa(lp5727
I2152
aI2155
ag1661
ag1662
ag1664
ag1666
ag1668
aa(lp5728
I2157
aI2162
ag1670
ag1671
ag1673
ag1675
ag1677
aa(lp5729
I2169
aI2174
ag1679
ag1680
ag1682
ag1684
ag1686
aa(lp5730
I2189
aI2192
ag1688
ag1689
ag1691
ag1693
ag1695
aa(lp5731
I2199
aI2201
ag1697
ag1698
ag1700
ag1702
ag1704
aa(lp5732
I2211
aI2216
ag1706
ag1707
ag1709
ag1711
ag1713
aa(lp5733
I2218
aI2221
ag1715
ag1716
ag1718
ag1720
ag1722
aa(lp5734
I2227
aI2234
ag1724
ag1725
ag1727
ag1729
ag1731
aa(lp5735
I2239
aI2242
ag1733
ag1734
ag1736
ag1738
ag1740
aa(lp5736
I2255
aI2262
ag1742
ag1743
ag1745
ag1747
ag1749
aa(lp5737
I2271
aI2274
ag1751
ag1752
ag1754
ag1756
ag1758
aa(lp5738
I2299
aI2302
ag1760
ag1761
ag1763
ag1765
ag1767
aa(lp5739
I2316
aI2320
ag1769
ag1770
ag1772
ag1774
ag1776
aa(lp5740
I2326
aI2329
ag1778
ag1779
ag1781
ag1783
ag1785
aa(lp5741
I2331
aI2342
ag1787
ag1788
ag1790
ag1792
ag1794
aa(lp5742
I2352
aI2355
ag1796
ag1797
ag1799
ag1801
ag1803
aa(lp5743
I2361
aI2364
ag1805
ag1806
ag1808
ag1810
ag1812
aa(lp5744
I2369
aI2373
ag1814
ag1815
ag1817
ag1819
ag1821
aa(lp5745
I2389
aI2392
ag1823
ag1824
ag1826
ag1828
ag1830
aa(lp5746
I2397
aI2398
ag1832
ag1833
ag1835
ag1837
ag1839
aa(lp5747
I2404
aI2407
ag1841
ag1842
ag1844
ag1846
ag1848
aa(lp5748
I2426
aI2432
ag1850
ag1851
ag1853
ag1855
ag1857
aa(lp5749
I2435
aI2439
ag1859
ag1860
ag1862
ag1864
ag1866
aasS'characterMap'
p5750
(lp5751
g1871
ag1873
ag1875
ag1877
ag1878
ag1880
ag1881
ag1882
ag1884
ag5036
ag1888
ag1890
ag5038
ag1894
ag1896
ag1897
ag1899
ag5039
ag1903
ag1905
ag1906
ag5040
ag1911
ag1913
ag1915
ag1916
ag5041
ag1920
ag5042
ag1923
ag1925
ag1926
ag1927
ag1928
ag1929
ag1930
ag1931
ag5043
ag1934
ag1936
ag1938
ag1939
ag1941
ag1942
a(lp5752
I44
aS','
p5753
aag5044
ag1945
ag1946
ag1947
ag1948
ag1950
ag1951
ag1952
ag1953
ag1954
ag5045
ag1958
ag1960
ag1961
ag5046
ag1964
ag1965
ag1966
ag1967
ag1969
ag1970
ag1971
ag1972
a(lp5754
I68
aS'\xc2'
p5755
aag1974
ag1976
ag1977
ag1978
ag1979
ag1980
ag1981
ag1982
a(lp5756
I77
ag5755
aag1983
ag5047
ag1987
ag1988
ag5048
ag1991
ag1992
ag1993
ag1994
ag1995
ag1996
ag1997
ag5049
ag2001
ag2002
ag2003
ag5050
ag2006
ag5051
ag2010
ag2011
ag2012
ag2013
ag5052
ag2017
ag2018
ag2019
ag2020
ag5053
ag2024
ag2025
ag2026
ag2027
ag2028
ag5054
ag2031
ag5055
ag2034
ag2035
ag2036
ag2037
ag2038
ag5056
ag2042
ag2043
ag5057
ag2047
ag2048
ag2049
ag5058
ag2052
ag2053
ag2054
ag2055
ag5059
ag2058
ag2059
ag2060
ag2061
a(lp5757
I137
aS'.'
p5758
aag5060
ag2065
ag2066
ag2067
ag2068
ag5061
ag2071
ag2072
ag2073
ag2074
ag5062
ag2078
ag2079
ag5063
ag2083
ag2084
ag2085
ag2086
ag5064
ag2090
ag2091
ag2092
ag2093
ag5065
ag2097
ag2098
ag2099
ag2100
ag2101
ag5066
ag2105
ag2106
ag5067
ag2110
ag2111
ag2112
ag5068
ag2116
ag2117
ag2118
ag2119
ag5069
ag2122
ag2123
ag2124
ag2125
ag2126
ag2127
ag2128
ag2129
ag2130
a(lp5759
I189
ag5758
aag5070
ag2134
ag2135
ag2136
ag5071
ag2139
ag2140
ag2141
ag2142
ag2143
ag2144
ag2145
ag5072
ag2149
ag2150
ag2151
ag5073
ag2155
ag2156
ag2157
ag2158
ag5074
ag2161
ag2162
ag2163
ag2164
ag2165
a(lp5760
I217
ag5758
aag5075
ag2168
ag2169
ag2170
ag2171
ag2172
ag5076
ag2176
ag2177
ag5077
ag2181
ag2182
ag2183
ag2184
ag2185
ag2186
ag2187
ag5078
ag2191
ag2192
ag5079
ag2195
ag2196
ag5080
ag2200
ag2201
ag2202
ag2203
ag2204
ag2205
ag5081
ag2209
ag2210
ag2211
ag5082
ag2214
ag2215
ag2216
ag2217
ag5083
ag2222
ag2223
ag2224
ag2225
ag5084
ag2229
ag2230
ag2231
ag2232
ag5085
ag2236
ag2237
ag2238
ag5086
ag2241
ag2242
ag2243
ag2244
ag5087
ag2247
ag2248
ag2249
ag2250
a(lp5761
I281
ag5758
aag5088
ag2254
ag2255
ag2256
ag5089
ag2259
ag2260
ag2261
ag2262
ag2263
ag5090
ag2267
ag2268
ag2269
ag2270
ag5091
ag2273
ag2274
ag2275
ag2276
ag2277
ag2278
ag5092
ag2282
ag2283
ag2284
ag2285
ag5093
ag2288
ag2289
ag2290
ag2291
ag2292
ag5094
ag2296
ag2297
ag5095
ag2300
ag2301
ag2302
ag2303
a(lp5762
I323
ag5758
aag5096
ag2307
ag2308
ag5097
ag2312
ag2313
ag2314
ag5098
ag2317
ag2318
ag2319
ag2320
ag2321
a(lp5763
I337
ag5758
aag5099
ag2325
ag2326
ag2327
ag2328
ag5100
ag2332
ag2333
ag2334
ag2335
ag5101
ag2338
ag2339
ag2340
ag2341
ag2342
ag2343
ag5102
ag2346
ag2347
ag2349
ag2350
ag2351
ag2352
ag2353
ag2354
ag5103
ag2357
ag2358
ag5104
ag2362
ag2363
ag5105
ag2366
ag5106
ag2369
ag2370
ag2371
ag2372
ag2373
ag5107
ag2377
ag2378
ag2379
ag5108
ag2383
ag2384
ag2385
ag2386
ag5109
ag2390
ag2391
ag2392
ag5110
ag2395
ag2396
ag2397
ag2398
ag2399
ag2400
ag2401
ag2402
ag2403
ag5111
ag2406
ag2407
ag2408
ag2409
a(lp5764
I406
ag5758
aag5112
ag2413
ag2414
ag5113
ag2418
ag2419
ag2420
ag2421
ag5114
ag2424
ag2425
ag2426
ag2427
ag2428
ag5115
ag2431
ag2432
ag2433
ag2434
ag2435
ag5116
ag2438
ag2439
ag2440
ag2441
ag2442
ag2443
ag5117
ag2447
ag2448
ag5118
ag2452
ag2453
ag2454
ag5119
ag2457
ag2458
ag2459
ag2460
ag2461
ag2462
a(lp5765
I448
ag5758
aag5120
ag2466
ag2467
ag2468
ag5121
ag2472
ag2473
ag2474
ag5122
ag2477
ag2478
ag2479
ag2480
ag2481
ag2482
ag2483
ag2484
ag2485
ag5123
ag2489
ag2490
ag2491
ag5124
ag2495
ag2496
ag2497
ag2498
ag5125
ag2501
ag2502
ag2503
ag2504
a(lp5766
I481
ag5758
aag5126
ag2508
ag2509
ag2510
ag5127
ag2513
ag2514
ag2515
ag2517
ag5128
ag2521
ag2522
ag2523
ag2524
ag2525
ag2526
ag2527
ag2528
ag2529
ag2530
a(lp5767
I502
ag5753
aag5129
ag2534
ag2535
ag5130
ag2538
ag2539
ag2540
ag2541
ag5131
a(lp5768
I512
aS'('
p5769
aag2544
ag2545
ag2546
ag2547
ag2548
ag2549
ag5132
ag2552
ag2553
ag2554
ag2555
ag2556
ag2557
a(lp5770
I526
aS')'
p5771
aag5133
ag2561
ag2562
ag2563
ag5134
ag2566
ag2567
ag2568
ag2569
ag2570
a(lp5772
I537
aS"'"
p5773
aag2571
ag5135
ag2575
ag2576
ag5136
ag2579
ag2580
ag2581
ag2582
ag5137
ag2585
ag2586
ag2587
ag2588
a(lp5774
I552
ag5758
aag5138
ag2592
ag2593
ag2594
ag5139
ag2597
ag2598
ag2599
ag2601
ag2602
ag5140
ag2606
ag2607
ag5141
ag2610
ag2611
ag2612
ag2613
ag2614
a(lp5775
I572
ag5773
aag2615
ag5142
ag2619
ag2620
ag5143
ag2623
ag2624
ag2625
ag2626
ag2627
ag2628
ag2629
ag2630
ag2631
ag2632
ag2633
a(lp5776
I589
ag5758
aag5144
ag2637
ag2638
ag2639
ag2640
ag5145
ag2643
ag2644
ag2645
ag2646
ag5146
ag2650
ag2651
ag5147
ag2655
ag2656
ag2657
ag2658
ag5148
ag2662
ag2663
ag2664
ag2665
ag5149
ag2669
ag2670
ag2671
ag2672
ag2673
ag5150
ag2677
ag2678
ag5151
ag2682
ag2683
ag2684
ag5152
ag2688
ag2689
ag2690
ag2691
ag5153
ag2695
ag2696
ag2697
ag2698
ag2699
ag2700
ag5154
ag2703
ag5155
ag2706
ag2707
ag2708
ag2709
ag2710
ag2711
ag2712
ag2713
ag2714
ag5156
ag2717
ag2718
ag2719
ag2720
ag2721
ag2722
a(lp5777
I657
ag5758
aag5157
ag2726
ag2727
ag5158
ag2731
ag2732
ag2733
ag5159
ag2737
ag2738
ag2739
ag2740
ag5160
ag2744
ag2745
ag2746
ag5161
ag2749
ag2750
ag2751
ag2752
ag2753
ag2754
ag5162
ag2758
ag2759
ag5163
ag2762
ag2763
ag5164
ag2767
ag2768
ag5165
ag2771
ag2772
ag2773
ag2774
ag2775
ag2776
ag2777
ag2778
ag2779
ag5166
ag2783
ag2784
ag2785
ag5167
ag2788
ag2789
ag2790
ag2791
ag2792
ag2793
ag2794
ag2795
ag2796
ag2797
ag2798
ag5168
ag2802
ag2803
ag2804
ag5169
ag2807
ag2808
ag2809
ag2810
ag2811
ag2812
ag2813
ag2814
ag2815
a(lp5778
I730
ag5758
aag5170
ag2819
ag2820
ag2821
ag2822
ag5171
ag2825
ag2826
ag2827
ag2828
ag5172
ag2832
ag2833
ag2834
ag2835
ag5173
ag2839
ag2840
ag5174
ag2844
ag2845
ag2846
ag5175
ag2849
ag2850
ag2851
ag2852
ag2853
ag2854
ag5176
ag2857
ag2858
ag2859
ag2860
ag5177
ag2864
ag2865
ag2866
ag2867
ag5178
ag2870
ag2871
ag2872
ag2873
ag5179
ag2877
ag2878
ag2879
ag5180
ag2883
ag2884
ag2885
ag5181
ag2888
ag2889
ag2890
ag2891
ag5182
ag2895
ag2896
ag5183
ag2900
ag2901
ag2902
ag5184
ag2905
ag2906
ag2907
ag2908
ag2909
ag2910
ag2911
ag5185
ag2915
ag2916
ag2917
ag5186
ag2920
ag2921
a(lp5779
I810
ag5758
aag5187
ag2925
ag2926
ag5188
ag2930
ag2931
ag2932
ag2933
ag5189
ag2937
ag2938
ag2939
ag2940
ag5190
ag2943
ag2944
ag2945
ag2946
ag5191
ag2950
ag2951
ag5192
ag2955
ag2956
ag5193
ag2959
ag2960
ag2961
ag2962
ag2963
ag5194
ag2966
ag2967
ag2968
ag2969
ag5195
ag2973
ag2974
ag5196
ag2978
ag2979
ag2980
ag5197
ag2983
ag2984
ag2985
ag2986
a(lp5780
I858
ag5758
aag5198
ag2990
ag2991
ag5199
ag2995
ag2996
ag2997
ag5200
ag3001
ag3002
ag3003
ag5201
ag3006
ag3007
ag3008
ag3009
ag3010
ag5202
ag3014
ag3015
ag5203
ag3018
ag3019
ag3020
ag3021
ag3022
ag3023
ag5204
ag3026
ag3027
ag3028
ag3030
ag3031
ag3032
ag3033
ag5205
ag3037
ag3038
ag3039
ag5206
ag3042
ag3043
ag3044
ag3045
ag3046
ag3047
ag5207
ag3050
ag3051
ag3052
ag3053
a(lp5781
I910
ag5758
aag5208
ag3057
ag3058
ag5209
ag3062
ag3063
ag5210
ag3067
ag3068
ag3069
ag5211
ag3072
ag3073
ag3074
ag3075
ag3076
ag3077
ag3078
ag5212
ag3082
ag3083
ag5213
ag3087
ag3088
ag3089
ag5214
ag3092
ag3093
ag3094
ag3095
ag3096
ag3097
ag5215
ag3101
ag3102
ag3103
ag5216
ag3107
ag3108
ag3109
ag3110
ag5217
ag3114
ag3115
ag3116
ag5218
ag3119
ag3120
ag3121
ag3122
ag3123
ag3124
ag3125
ag5219
ag3128
ag3129
ag3130
ag3131
ag3132
ag3133
ag3134
ag3135
ag3136
ag5220
a(lp5782
I975
ag5769
aag3139
ag3140
ag3141
ag5221
ag3145
ag3146
ag3147
ag3148
ag3149
ag5222
ag3153
ag3154
ag3155
ag3156
ag5223
ag3160
ag3161
ag3162
a(lp5783
I994
ag5771
aag5224
ag3166
ag3167
ag5225
ag3171
ag3172
ag5226
ag3176
ag3177
ag3178
ag5227
ag3181
ag5228
ag3185
ag3186
ag3187
ag3188
ag5229
ag3191
ag3192
ag3193
ag5230
ag3196
ag3197
ag3198
ag3199
ag5231
ag3203
ag3204
ag5232
ag3208
ag3209
ag3210
a(lp5784
I1028
ag5758
aag5233
ag3214
ag3215
ag5234
ag3219
ag3220
ag3221
ag3222
ag5235
ag3225
ag3226
ag3227
ag3228
ag3229
ag5236
ag3233
ag3234
ag3235
ag5237
ag3238
ag3239
ag3240
ag3241
ag3242
ag5238
ag3246
ag3247
ag3248
ag3249
ag5239
ag3252
ag3253
ag3254
ag3255
ag3256
ag3257
ag3258
ag3259
ag5240
ag3263
ag3264
ag3265
ag5241
ag3269
ag3270
ag3271
ag3272
ag5242
ag3276
ag3277
ag3278
ag3279
ag5243
ag3282
ag3283
ag3284
ag3285
ag3286
ag3287
ag3288
ag5244
ag3292
ag3293
ag5245
ag3296
ag3297
ag3298
ag3299
ag3300
ag3301
ag5246
ag3304
ag3305
ag3306
ag3307
ag3308
ag3309
ag3310
ag3311
ag3312
ag5247
ag3316
ag3317
ag3318
ag5248
ag3321
ag3322
ag3323
ag3324
ag5249
ag3328
ag3329
ag3330
ag3331
ag5250
ag3334
ag3335
ag5251
ag3339
ag3340
ag3341
ag3342
ag3343
ag5252
ag3347
ag3348
ag3349
ag5253
ag3352
ag3353
ag3354
ag3355
ag3356
ag3357
ag3358
ag5254
ag3362
ag3363
ag5255
ag3367
ag3368
ag3369
ag5256
ag3372
ag3373
ag3374
ag3375
ag3376
ag3377
a(lp5785
I1158
ag5758
aag5257
ag3380
ag3381
ag3382
ag3383
ag3384
ag5258
ag3388
ag3389
ag5259
ag3392
ag3393
ag3394
ag3395
ag5260
ag3399
ag3400
ag5261
ag3403
ag3404
ag3405
ag3406
ag3407
ag5262
ag3411
ag3412
ag5263
ag3416
ag3417
ag3418
ag3419
ag3420
ag5264
ag3424
ag3425
ag5265
ag3429
ag3430
ag3431
ag5266
ag3434
ag3435
ag3436
ag3437
ag5267
ag3441
ag3442
ag5268
ag3445
ag3446
ag3447
ag3448
ag3449
ag3450
ag3451
ag5269
ag3455
ag3456
ag5270
ag3460
ag3461
ag3462
ag5271
ag3466
ag3467
ag3468
ag3469
ag5272
ag3473
ag3474
ag3475
ag5273
ag3478
ag3479
ag3480
ag3481
ag5274
ag3484
ag3485
ag3486
ag3487
ag3488
ag3489
ag3490
ag5275
ag3493
ag3494
ag3495
ag3496
ag3497
ag5276
ag3500
ag3501
ag3502
a(lp5786
I1253
ag5758
aag5277
ag3506
ag3507
ag3508
ag3509
ag5278
ag3513
ag3514
ag3515
ag3516
ag3517
ag5279
ag3521
ag3522
ag5280
ag3526
ag3527
ag3528
ag5281
ag3532
ag3533
ag3534
ag3535
ag3536
ag5282
ag3540
ag3541
ag5283
ag3544
ag3545
ag3546
ag3547
ag3548
ag3549
a(lp5787
I1288
ag5758
aag5284
ag3552
ag5285
ag3556
ag3558
ag3559
ag3560
ag5286
ag3563
ag3564
ag3565
ag5287
ag3569
ag3570
ag3571
ag5288
ag3574
ag3575
ag3576
ag3577
ag3578
ag5289
ag3581
ag3582
ag3583
ag3584
ag3585
ag3586
ag5290
ag3590
ag3591
ag3592
ag5291
ag3595
ag3596
ag3597
ag3598
ag3599
ag3600
a(lp5788
I1328
ag5758
aag5292
ag3604
ag3605
ag3606
ag5293
ag3609
ag3610
ag3611
ag3612
ag3613
ag5294
ag3616
ag3617
ag3618
ag3619
ag5295
ag3623
ag3624
ag5296
ag3627
ag3628
ag3629
ag3630
ag3631
ag3632
ag3633
ag5297
ag3636
ag3637
ag3638
ag3639
ag3640
ag3641
ag3642
ag5298
ag3646
ag3647
ag5299
ag3651
ag3652
ag3653
ag5300
ag3656
ag3657
ag3658
ag3659
ag5301
ag3663
ag3664
ag5302
ag3668
ag3669
ag5303
ag3672
ag3673
ag3674
ag3675
ag3676
ag5304
ag3680
ag3681
ag5305
ag3685
ag3686
ag3687
ag3688
ag5306
ag3692
ag3693
ag5307
ag3696
ag3697
ag3698
ag3699
ag3700
ag5308
ag3704
ag3705
ag3706
ag5309
ag3709
ag3710
ag3711
ag3712
ag5310
ag3716
ag3717
ag3718
ag3719
ag3720
ag5311
ag3723
ag3724
ag3725
ag3726
ag3727
ag5312
ag3731
ag3732
ag3733
ag5313
ag3736
ag3737
ag3738
ag3739
ag3740
ag3741
ag5314
ag3744
ag3745
ag3746
ag3747
ag5315
ag3751
ag3752
ag5316
ag3756
ag3757
ag5317
ag3760
ag3761
ag3762
ag3763
ag5318
ag3766
ag3767
ag3768
ag3769
ag3770
ag3771
ag3772
ag3773
a(lp5789
I1461
ag5758
aag5319
ag3777
ag3778
ag3779
ag3780
ag5320
ag3784
ag3785
ag5321
ag3788
ag5322
ag3791
ag3792
ag3793
ag3794
ag3795
ag3796
ag3797
ag3798
ag3799
ag3800
ag3801
ag5323
ag3804
ag3805
ag3806
ag3807
ag3808
ag5324
ag3812
ag3813
ag3814
ag5325
ag3818
ag3819
ag3820
ag5326
ag3823
ag3824
ag3825
ag3826
ag5327
ag3830
ag3831
ag5328
ag3834
ag3835
ag3836
ag3837
ag5329
ag3840
ag3841
ag3842
ag3843
ag5330
ag3847
ag3848
ag3849
ag5331
ag3852
ag3853
ag3854
ag3855
ag3856
ag3857
ag3858
ag5332
ag3862
ag3863
ag3864
ag5333
ag3867
ag3868
ag3869
ag3870
ag3871
a(lp5790
I1538
ag5753
aag5334
ag3874
ag3875
ag3876
ag3877
ag3878
ag3879
ag3880
a(lp5791
I1547
ag5753
aag5335
ag3884
ag3885
ag3886
ag5336
ag3889
ag3890
ag3891
ag3892
a(lp5792
I1557
ag5758
aag5337
ag3896
ag3897
ag5338
ag3900
ag3901
ag3902
ag3903
ag3904
ag5339
ag3907
ag3908
ag3909
ag3910
ag5340
ag3913
ag3914
ag3915
ag3916
ag5341
ag3920
ag3921
ag3922
ag3923
ag5342
ag3926
ag5343
ag3929
ag3930
ag3931
ag3932
a(lp5793
I1589
ag5758
aag5344
ag3936
ag3937
ag5345
ag3941
ag3942
ag3943
ag3944
ag5346
ag3947
ag3948
ag3949
ag5347
ag3953
ag3954
ag3955
ag5348
ag3958
ag3959
ag3960
ag5349
ag3963
ag3964
ag3965
ag3966
ag3967
ag3968
ag5350
ag3971
ag3972
ag3973
a(lp5794
I1621
ag5773
aag3974
ag5351
ag3977
ag3978
ag3979
ag3980
ag5352
ag3984
ag3985
ag3986
ag5353
ag3990
ag3991
ag5354
ag3994
ag3995
ag3996
ag3997
ag5355
ag4001
ag4002
ag4003
ag4004
ag5356
ag4008
ag4009
ag4010
ag5357
ag4013
ag4014
ag4015
ag4016
ag5358
ag4020
ag4021
ag5359
ag4025
ag4026
ag4027
ag5360
ag4030
ag4031
ag4032
ag4033
ag4034
ag4035
ag4036
ag4037
ag4038
ag4039
ag5361
ag4043
ag4044
ag4045
ag5362
ag4048
ag4049
ag4050
ag4051
ag4052
ag4053
ag4054
ag5363
ag4058
ag4059
ag5364
ag4062
ag5365
ag4065
ag4066
ag4067
ag4068
ag4069
ag5366
ag4072
ag4073
ag4074
ag4075
ag4076
ag5367
ag4080
ag4081
ag4082
ag4083
ag5368
ag4087
ag4088
ag4089
ag5369
ag4092
ag4093
ag4094
ag4095
a(lp5795
I1715
ag5758
aag5370
ag4099
ag4100
ag5371
ag4103
ag4104
ag4105
ag4106
ag4107
ag4108
ag4109
ag5372
ag4113
ag4114
ag4115
ag5373
ag4118
ag5374
ag4122
ag4123
ag4124
ag5375
ag4128
ag4129
ag5376
ag4133
ag4134
ag4135
ag5377
ag4138
ag4139
a(lp5796
I1747
ag5773
aag4141
ag5378
ag4145
ag4146
ag4147
ag5379
ag4151
ag4152
ag4153
ag4154
ag5380
ag4157
ag4158
ag4159
ag4160
a(lp5797
I1763
ag5758
aag5381
ag4164
ag4165
ag5382
ag4168
ag4169
ag4170
ag4171
ag5383
ag4175
ag4176
ag5384
ag4179
ag4180
ag4181
ag4182
ag4183
ag5385
ag4187
ag4188
ag4189
ag4190
ag5386
ag4194
ag4195
ag5387
ag4198
ag4199
ag5388
ag4202
ag4203
ag4204
ag4205
a(lp5798
I1797
ag5758
aag5389
ag4208
ag4209
ag4210
ag4211
ag5390
ag4214
ag4215
ag4216
ag4217
ag5391
ag4221
ag4222
ag5392
ag4225
ag4226
ag4227
ag5393
ag4231
ag4232
ag5394
ag4236
ag4237
ag4238
ag5395
ag4241
ag4242
ag4243
ag4244
ag4245
ag4246
ag4247
ag5396
ag4251
ag4252
ag5397
ag4255
ag4256
ag4257
ag5398
ag4261
ag4262
ag5399
ag4266
ag4267
ag4268
ag5400
ag4271
ag4272
ag4273
ag4274
ag5401
ag4277
ag4278
ag4279
ag4280
ag4281
ag4282
ag4283
ag5402
ag4286
ag4287
ag4288
ag4289
ag4290
ag4291
a(lp5799
I1864
ag5753
aag5403
ag4294
ag4295
ag4296
ag4297
ag5404
ag4301
ag4302
ag4303
ag4304
ag5405
ag4308
ag4309
ag4310
ag5406
ag4313
ag4314
ag4315
ag4316
ag4317
ag4318
ag4319
ag4320
ag4321
ag5407
ag4325
ag4326
ag4327
ag5408
ag4330
ag4331
ag4332
ag4333
ag4334
ag4335
ag4336
ag5409
ag4340
ag4341
ag4342
ag5410
ag4345
ag4346
ag4347
ag4348
ag4349
a(lp5800
I1911
ag5753
aag5411
ag4352
ag4353
ag5412
ag4357
ag4358
ag5413
ag4362
ag4363
ag4364
ag5414
ag4367
ag4368
ag4369
ag4370
ag4371
ag5415
ag4375
ag4376
ag4377
ag5416
ag4380
ag4381
ag4382
ag4383
ag4384
ag4385
ag5417
ag4389
ag4390
ag5418
ag4394
ag4395
ag4396
ag5419
ag4399
ag4400
ag4401
ag4402
ag5420
ag4405
ag4406
ag4407
ag4408
ag4409
ag4410
ag4411
ag4412
ag4413
a(lp5801
I1961
ag5753
aag5421
ag4417
ag4418
ag4419
ag5422
ag4423
ag4424
ag5423
ag4428
ag4429
ag4430
ag5424
ag4433
ag4434
ag4435
ag4436
ag4437
a(lp5802
I1979
ag5758
aag5425
ag4440
ag4441
ag4442
ag5426
ag4445
ag4446
ag4447
ag4448
ag4449
ag4450
ag4451
ag4452
ag4453
a(lp5803
I1994
ag5758
aag5427
ag4457
ag4458
ag4459
ag5428
ag4462
ag4463
ag4464
ag4465
ag4466
ag5429
ag4470
ag4471
ag5430
ag4474
ag4475
ag4476
ag4477
ag4478
ag4479
ag4480
ag4481
ag5431
ag4485
ag4486
ag5432
ag4490
ag4491
ag4492
ag5433
ag4495
ag4496
ag4497
ag4498
ag4499
ag4500
ag4501
ag5434
ag4504
ag4505
ag4506
ag4507
ag4508
ag4509
ag5435
ag4513
ag4514
ag4515
ag5436
ag4518
ag4519
ag4520
a(lp5804
I2047
ag5758
aag5437
ag4523
ag4524
ag4525
ag4526
ag4527
ag4528
ag4529
ag5438
ag4532
ag4533
ag4534
ag4535
ag5439
ag4539
ag4540
ag5440
ag4543
ag4544
ag4545
ag4546
ag4547
ag5441
ag4551
ag4552
ag4553
ag4554
ag4555
ag5442
ag4559
ag4560
ag5443
ag4564
ag4565
ag4566
ag5444
ag4569
ag4570
ag4571
ag4572
ag4573
ag4574
ag4575
ag4576
ag5445
ag4580
ag4581
ag4582
ag4583
ag5446
ag4587
ag4588
ag4589
ag4590
ag5447
ag4594
ag4595
ag4596
ag4597
ag5448
ag4600
ag4601
ag4602
ag5449
ag4606
ag4607
ag4608
ag4609
ag5450
ag4613
ag4614
ag4615
ag5451
ag4618
ag4619
ag4620
ag4621
ag4622
ag4623
ag5452
ag4627
ag4628
ag4629
ag4630
ag5453
ag4634
ag4635
ag5454
ag4639
ag4640
ag4641
ag5455
ag4644
ag4645
ag4646
ag4647
ag5456
ag4650
ag4651
ag4652
ag4653
ag4654
a(lp5805
I2150
ag5753
aag5457
ag4657
ag4658
ag4659
ag4660
ag5458
ag4663
ag4664
ag4665
ag4666
ag4667
ag4668
a(lp5806
I2163
ag5753
aag5459
ag4672
ag4673
ag4674
ag5460
ag4677
ag4678
ag4679
ag4680
ag4681
ag4682
a(lp5807
I2175
ag5758
aag5461
ag4686
ag4687
ag5462
ag4691
ag4692
ag4693
ag4694
ag5463
ag4698
ag4699
ag4700
ag5464
ag4703
ag4704
ag4705
ag4706
ag5465
ag4710
ag4711
ag4712
ag4713
ag5466
ag4716
ag4717
ag4718
ag5467
ag4722
ag4723
ag4724
ag5468
ag4728
ag4729
ag4730
ag5469
ag4733
ag4734
ag4735
ag4736
ag4737
ag4738
ag5470
ag4741
ag4742
ag4743
ag4744
ag5471
ag4748
ag4749
ag4750
ag5472
ag4753
ag4754
ag4755
ag4756
ag4757
ag4758
ag4759
ag4760
ag5473
ag4764
ag4765
ag5474
ag4768
ag4769
ag4770
ag4771
ag5475
ag4775
ag4776
ag4777
ag4778
ag5476
ag4782
ag4783
ag4784
ag4785
ag4786
ag5477
ag4789
ag4790
ag4791
ag4792
ag4793
ag4794
ag4795
ag4796
ag5478
ag4800
ag4801
ag5479
ag4805
ag4806
ag4807
ag5480
ag4810
ag4811
ag4812
ag4813
a(lp5808
I2275
ag5758
aag5481
ag4817
ag4818
ag4819
ag5482
ag4823
ag4824
ag4825
ag5483
ag4829
ag4830
ag4831
ag4832
ag5484
ag4836
ag4837
ag5485
ag4841
ag4842
ag5486
ag4846
ag4847
ag5487
ag4850
ag4851
ag4852
ag4853
ag5488
ag4857
ag4858
ag4859
ag4860
ag5489
ag4864
ag4865
ag5490
ag4869
ag4870
ag4871
ag5491
ag4874
ag4875
ag4876
ag4877
ag4878
ag5492
ag4882
ag4883
ag4884
ag5493
ag4887
ag4888
ag4889
ag4890
ag5494
ag4893
ag4894
ag4895
ag4896
ag4897
ag4898
ag4899
ag4900
ag4901
ag4902
ag4903
ag4904
ag5495
ag4908
ag4909
ag4910
ag5496
ag4914
ag4915
ag4916
ag5497
ag4919
ag4920
ag4921
ag4922
ag5498
ag4926
ag4927
ag4928
ag5499
ag4931
ag4932
ag4933
ag4934
ag5500
ag4938
ag4939
ag5501
ag4942
ag4943
ag4944
ag4945
ag4946
ag5502
ag4950
ag4951
ag4952
ag5503
ag4956
ag4957
ag4958
ag4959
ag4960
ag5504
ag4964
ag4965
ag4966
ag5505
ag4969
ag4970
ag4971
ag4972
ag5506
ag4976
ag4977
ag5507
ag4980
ag4981
ag5508
ag4985
ag4986
ag4987
ag5509
ag4990
ag4991
ag4992
ag4993
ag5510
ag4997
ag4998
a(lp5809
I2411
ag5758
aag5511
ag5002
ag5003
ag5004
ag5005
ag5512
ag5009
ag5010
ag5011
ag5012
ag5513
ag5016
ag5017
ag5514
ag5020
ag5021
ag5022
ag5023
ag5024
ag5025
ag5026
a(lp5810
I2433
ag5758
aag5515
ag5029
ag5030
ag5031
ag5032
ag5033
ag5516
ag5517
ag5518
ag5519
ag5520
ag5521
asS'docName'
p5811
S'source-document02507.txt'
p5812
sb.