(iModel.Document
Document
p0
(dp1
S'fmap'
p2
(lp3
(lp4
I11
aI15
aS'heart'
p5
a(lp6
S'*'
p7
ag5
aaa(lp8
I11
aI15
ag5
a(lp9
g7
ag5
aaa(lp10
I11
aI15
ag5
a(lp11
g7
ag5
aaa(lp12
I11
aI15
ag5
a(lp13
g7
ag5
aaa(lp14
I20
aI27
aS'possible'
p15
a(lp16
g5
ag15
aaa(lp17
I20
aI27
ag15
a(lp18
g7
ag15
aaa(lp19
I20
aI27
ag15
a(lp20
g7
ag15
aaa(lp21
I20
aI27
ag15
a(lp22
g7
ag15
aaa(lp23
I30
aI34
aS'apply'
p24
a(lp25
g15
ag24
aaa(lp26
I30
aI34
ag24
a(lp27
g5
ag24
aaa(lp28
I30
aI34
ag24
a(lp29
g7
ag24
aaa(lp30
I30
aI34
ag24
a(lp31
g7
ag24
aaa(lp32
I38
aI41
aS'cold'
p33
a(lp34
g24
ag33
aaa(lp35
I38
aI41
ag33
a(lp36
g15
ag33
aaa(lp37
I38
aI41
ag33
a(lp38
g5
ag33
aaa(lp39
I38
aI41
ag33
a(lp40
g7
ag33
aaa(lp41
I43
aI50
aS'compress'
p42
a(lp43
g33
ag42
aaa(lp44
I43
aI50
ag42
a(lp45
g24
ag42
aaa(lp46
I43
aI50
ag42
a(lp47
g15
ag42
aaa(lp48
I43
aI50
ag42
a(lp49
g5
ag42
aaa(lp50
I53
aI56
aS'wrap'
p51
a(lp52
g42
ag51
aaa(lp53
I53
aI56
ag51
a(lp54
g33
ag51
aaa(lp55
I53
aI56
ag51
a(lp56
g24
ag51
aaa(lp57
I53
aI56
ag51
a(lp58
g15
ag51
aaa(lp59
I58
aI60
aS'ice'
p60
a(lp61
g51
ag60
aaa(lp62
I58
aI60
ag60
a(lp63
g42
ag60
aaa(lp64
I58
aI60
ag60
a(lp65
g33
ag60
aaa(lp66
I58
aI60
ag60
a(lp67
g24
ag60
aaa(lp68
I67
aI71
aS'moist'
p69
a(lp70
g60
ag69
aaa(lp71
I67
aI71
ag69
a(lp72
g51
ag69
aaa(lp73
I67
aI71
ag69
a(lp74
g42
ag69
aaa(lp75
I67
aI71
ag69
a(lp76
g33
ag69
aaa(lp77
I73
aI76
aS'hand'
p78
a(lp79
g69
ag78
aaa(lp80
I73
aI76
ag78
a(lp81
g60
ag78
aaa(lp82
I73
aI76
ag78
a(lp83
g51
ag78
aaa(lp84
I73
aI76
ag78
a(lp85
g42
ag78
aaa(lp86
I78
aI82
aS'towel'
p87
a(lp88
g78
ag87
aaa(lp89
I78
aI82
ag87
a(lp90
g69
ag87
aaa(lp91
I78
aI82
ag87
a(lp92
g60
ag87
aaa(lp93
I78
aI82
ag87
a(lp94
g51
ag87
aaa(lp95
I92
aI96
aS'apply'
p96
a(lp97
g87
ag96
aaa(lp98
I92
aI96
ag96
a(lp99
g78
ag96
aaa(lp100
I92
aI96
ag96
a(lp101
g69
ag96
aaa(lp102
I92
aI96
ag96
a(lp103
g60
ag96
aaa(lp104
I98
aI100
aS'ice'
p105
a(lp106
g96
ag105
aaa(lp107
I98
aI100
ag105
a(lp108
g87
ag105
aaa(lp109
I98
aI100
ag105
a(lp110
g78
ag105
aaa(lp111
I98
aI100
ag105
a(lp112
g69
ag105
aaa(lp113
I102
aI109
aS'directly'
p114
a(lp115
g105
ag114
aaa(lp116
I102
aI109
ag114
a(lp117
g96
ag114
aaa(lp118
I102
aI109
ag114
a(lp119
g87
ag114
aaa(lp120
I102
aI109
ag114
a(lp121
g78
ag114
aaa(lp122
I118
aI121
aS'skin'
p123
a(lp124
g114
ag123
aaa(lp125
I118
aI121
ag123
a(lp126
g105
ag123
aaa(lp127
I118
aI121
ag123
a(lp128
g96
ag123
aaa(lp129
I118
aI121
ag123
a(lp130
g87
ag123
aaa(lp131
I124
aI128
aS'apply'
p132
a(lp133
g123
ag132
aaa(lp134
I124
aI128
ag132
a(lp135
g114
ag132
aaa(lp136
I124
aI128
ag132
a(lp137
g105
ag132
aaa(lp138
I124
aI128
ag132
a(lp139
g96
ag132
aaa(lp140
I134
aI138
aS'2030'
p141
a(lp142
g132
ag141
aaa(lp143
I134
aI138
ag141
a(lp144
g123
ag141
aaa(lp145
I134
aI138
ag141
a(lp146
g114
ag141
aaa(lp147
I134
aI138
ag141
a(lp148
g105
ag141
aaa(lp149
I140
aI146
aS'minutes'
p150
a(lp151
g141
ag150
aaa(lp152
I140
aI146
ag150
a(lp153
g132
ag150
aaa(lp154
I140
aI146
ag150
a(lp155
g123
ag150
aaa(lp156
I140
aI146
ag150
a(lp157
g114
ag150
aaa(lp158
I149
aI153
aS'every'
p159
a(lp160
g150
ag159
aaa(lp161
I149
aI153
ag159
a(lp162
g141
ag159
aaa(lp163
I149
aI153
ag159
a(lp164
g132
ag159
aaa(lp165
I149
aI153
ag159
a(lp166
g123
ag159
aaa(lp167
I155
aI157
aS'12'
p168
a(lp169
g159
ag168
aaa(lp170
I155
aI157
ag168
a(lp171
g150
ag168
aaa(lp172
I155
aI157
ag168
a(lp173
g141
ag168
aaa(lp174
I155
aI157
ag168
a(lp175
g132
ag168
aaa(lp176
I159
aI163
aS'hours'
p177
a(lp178
g168
ag177
aaa(lp179
I159
aI163
ag177
a(lp180
g159
ag177
aaa(lp181
I159
aI163
ag177
a(lp182
g150
ag177
aaa(lp183
I159
aI163
ag177
a(lp184
g141
ag177
aaa(lp185
I174
aI178
aS'first'
p186
a(lp187
g177
ag186
aaa(lp188
I174
aI178
ag186
a(lp189
g168
ag186
aaa(lp190
I174
aI178
ag186
a(lp191
g159
ag186
aaa(lp192
I174
aI178
ag186
a(lp193
g150
ag186
aaa(lp194
I184
aI187
aS'days'
p195
a(lp196
g186
ag195
aaa(lp197
I184
aI187
ag195
a(lp198
g177
ag195
aaa(lp199
I184
aI187
ag195
a(lp200
g168
ag195
aaa(lp201
I184
aI187
ag195
a(lp202
g159
ag195
aaa(lp203
I190
aI193
aS'wear'
p204
a(lp205
g195
ag204
aaa(lp206
I190
aI193
ag204
a(lp207
g186
ag204
aaa(lp208
I190
aI193
ag204
a(lp209
g177
ag204
aaa(lp210
I190
aI193
ag204
a(lp211
g168
ag204
aaa(lp212
I197
aI201
aS'sling'
p213
a(lp214
g204
ag213
aaa(lp215
I197
aI201
ag213
a(lp216
g195
ag213
aaa(lp217
I197
aI201
ag213
a(lp218
g186
ag213
aaa(lp219
I197
aI201
ag213
a(lp220
g177
ag213
aaa(lp221
I207
aI213
aS'comfort'
p222
a(lp223
g213
ag222
aaa(lp224
I207
aI213
ag222
a(lp225
g204
ag222
aaa(lp226
I207
aI213
ag222
a(lp227
g195
ag222
aaa(lp228
I207
aI213
ag222
a(lp229
g186
ag222
aaa(lp230
I216
aI219
aS'long'
p231
a(lp232
g222
ag231
aaa(lp233
I216
aI219
ag231
a(lp234
g213
ag231
aaa(lp235
I216
aI219
ag231
a(lp236
g204
ag231
aaa(lp237
I216
aI219
ag231
a(lp238
g195
ag231
aaa(lp239
I221
aI224
aS'term'
p240
a(lp241
g231
ag240
aaa(lp242
I221
aI224
ag240
a(lp243
g222
ag240
aaa(lp244
I221
aI224
ag240
a(lp245
g213
ag240
aaa(lp246
I221
aI224
ag240
a(lp247
g204
ag240
aaa(lp248
I226
aI239
aS'immobilization'
p249
a(lp250
g240
ag249
aaa(lp251
I226
aI239
ag249
a(lp252
g231
ag249
aaa(lp253
I226
aI239
ag249
a(lp254
g222
ag249
aaa(lp255
I226
aI239
ag249
a(lp256
g213
ag249
aaa(lp257
I246
aI250
aS'sling'
p258
a(lp259
g249
ag258
aaa(lp260
I246
aI250
ag258
a(lp261
g240
ag258
aaa(lp262
I246
aI250
ag258
a(lp263
g231
ag258
aaa(lp264
I246
aI250
ag258
a(lp265
g222
ag258
aaa(lp266
I256
aI259
aS'lead'
p267
a(lp268
g258
ag267
aaa(lp269
I256
aI259
ag267
a(lp270
g249
ag267
aaa(lp271
I256
aI259
ag267
a(lp272
g240
ag267
aaa(lp273
I256
aI259
ag267
a(lp274
g231
ag267
aaa(lp275
I266
aI271
aS'frozen'
p276
a(lp277
g267
ag276
aaa(lp278
I266
aI271
ag276
a(lp279
g258
ag276
aaa(lp280
I266
aI271
ag276
a(lp281
g249
ag276
aaa(lp282
I266
aI271
ag276
a(lp283
g240
ag276
aaa(lp284
I273
aI280
aS'shoulder'
p285
a(lp286
g276
ag285
aaa(lp287
I273
aI280
ag285
a(lp288
g267
ag285
aaa(lp289
I273
aI280
ag285
a(lp290
g258
ag285
aaa(lp291
I273
aI280
ag285
a(lp292
g249
ag285
aaa(lp293
I289
aI292
aS'wear'
p294
a(lp295
g285
ag294
aaa(lp296
I289
aI292
ag294
a(lp297
g276
ag294
aaa(lp298
I289
aI292
ag294
a(lp299
g267
ag294
aaa(lp300
I289
aI292
ag294
a(lp301
g258
ag294
aaa(lp302
I296
aI303
aS'shoulder'
p303
a(lp304
g294
ag303
aaa(lp305
I296
aI303
ag303
a(lp306
g285
ag303
aaa(lp307
I296
aI303
ag303
a(lp308
g276
ag303
aaa(lp309
I296
aI303
ag303
a(lp310
g267
ag303
aaa(lp311
I305
aI309
aS'sling'
p312
a(lp313
g303
ag312
aaa(lp314
I305
aI309
ag312
a(lp315
g294
ag312
aaa(lp316
I305
aI309
ag312
a(lp317
g285
ag312
aaa(lp318
I305
aI309
ag312
a(lp319
g276
ag312
aaa(lp320
I315
aI320
aS'longer'
p321
a(lp322
g312
ag321
aaa(lp323
I315
aI320
ag321
a(lp324
g303
ag321
aaa(lp325
I315
aI320
ag321
a(lp326
g294
ag321
aaa(lp327
I315
aI320
ag321
a(lp328
g285
ag321
aaa(lp329
I327
aI329
aS'two'
p330
a(lp331
g321
ag330
aaa(lp332
I327
aI329
ag330
a(lp333
g312
ag330
aaa(lp334
I327
aI329
ag330
a(lp335
g303
ag330
aaa(lp336
I327
aI329
ag330
a(lp337
g294
ag330
aaa(lp338
I331
aI335
aS'weeks'
p339
a(lp340
g330
ag339
aaa(lp341
I331
aI335
ag339
a(lp342
g321
ag339
aaa(lp343
I331
aI335
ag339
a(lp344
g312
ag339
aaa(lp345
I331
aI335
ag339
a(lp346
g303
ag339
aaa(lp347
I337
aI340
aS'make'
p348
a(lp349
g339
ag348
aaa(lp350
I337
aI340
ag348
a(lp351
g330
ag348
aaa(lp352
I337
aI340
ag348
a(lp353
g321
ag348
aaa(lp354
I337
aI340
ag348
a(lp355
g312
ag348
aaa(lp356
I342
aI345
aS'sure'
p357
a(lp358
g348
ag357
aaa(lp359
I342
aI345
ag357
a(lp360
g339
ag357
aaa(lp361
I342
aI345
ag357
a(lp362
g330
ag357
aaa(lp363
I342
aI345
ag357
a(lp364
g321
ag357
aaa(lp365
I351
aI357
aS'perform'
p366
a(lp367
g357
ag366
aaa(lp368
I351
aI357
ag366
a(lp369
g348
ag366
aaa(lp370
I351
aI357
ag366
a(lp371
g339
ag366
aaa(lp372
I351
aI357
ag366
a(lp373
g330
ag366
aaa(lp374
I359
aI366
aS'shoulder'
p375
a(lp376
g366
ag375
aaa(lp377
I359
aI366
ag375
a(lp378
g357
ag375
aaa(lp379
I359
aI366
ag375
a(lp380
g348
ag375
aaa(lp381
I359
aI366
ag375
a(lp382
g339
ag375
aaa(lp383
I368
aI372
aS'range'
p384
a(lp385
g375
ag384
aaa(lp386
I368
aI372
ag384
a(lp387
g366
ag384
aaa(lp388
I368
aI372
ag384
a(lp389
g357
ag384
aaa(lp390
I368
aI372
ag384
a(lp391
g348
ag384
aaa(lp392
I377
aI382
aS'motion'
p393
a(lp394
g384
ag393
aaa(lp395
I377
aI382
ag393
a(lp396
g375
ag393
aaa(lp397
I377
aI382
ag393
a(lp398
g366
ag393
aaa(lp399
I377
aI382
ag393
a(lp400
g357
ag393
aaa(lp401
I384
aI392
aS'exercises'
p402
a(lp403
g393
ag402
aaa(lp404
I384
aI392
ag402
a(lp405
g384
ag402
aaa(lp406
I384
aI392
ag402
a(lp407
g375
ag402
aaa(lp408
I384
aI392
ag402
a(lp409
g366
ag402
aaa(lp410
I394
aI398
aS'twice'
p411
a(lp412
g402
ag411
aaa(lp413
I394
aI398
ag411
a(lp414
g393
ag411
aaa(lp415
I394
aI398
ag411
a(lp416
g384
ag411
aaa(lp417
I394
aI398
ag411
a(lp418
g375
ag411
aaa(lp419
I402
aI404
aS'day'
p420
a(lp421
g411
ag420
aaa(lp422
I402
aI404
ag420
a(lp423
g402
ag420
aaa(lp424
I402
aI404
ag420
a(lp425
g393
ag420
aaa(lp426
I402
aI404
ag420
a(lp427
g384
ag420
aaa(lp428
I409
aI413
aS'avoid'
p429
a(lp430
g420
ag429
aaa(lp431
I409
aI413
ag429
a(lp432
g411
ag429
aaa(lp433
I409
aI413
ag429
a(lp434
g402
ag429
aaa(lp435
I409
aI413
ag429
a(lp436
g393
ag429
aaa(lp437
I417
aI422
aS'frozen'
p438
a(lp439
g429
ag438
aaa(lp440
I417
aI422
ag438
a(lp441
g420
ag438
aaa(lp442
I417
aI422
ag438
a(lp443
g411
ag438
aaa(lp444
I417
aI422
ag438
a(lp445
g402
ag438
aaa(lp446
I424
aI431
aS'shoulder'
p447
a(lp448
g438
ag447
aaa(lp449
I424
aI431
ag447
a(lp450
g429
ag447
aaa(lp451
I424
aI431
ag447
a(lp452
g420
ag447
aaa(lp453
I424
aI431
ag447
a(lp454
g411
ag447
aaa(lp455
I440
aI442
aS'use'
p456
a(lp457
g447
ag456
aaa(lp458
I440
aI442
ag456
a(lp459
g438
ag456
aaa(lp460
I440
aI442
ag456
a(lp461
g429
ag456
aaa(lp462
I440
aI442
ag456
a(lp463
g420
ag456
aaa(lp464
I449
aI451
aS'arm'
p465
a(lp466
g456
ag465
aaa(lp467
I449
aI451
ag465
a(lp468
g447
ag465
aaa(lp469
I449
aI451
ag465
a(lp470
g438
ag465
aaa(lp471
I449
aI451
ag465
a(lp472
g429
ag465
aaa(lp473
I464
aI469
aS'doctor'
p474
a(lp475
g465
ag474
aaa(lp476
I464
aI469
ag474
a(lp477
g456
ag474
aaa(lp478
I464
aI469
ag474
a(lp479
g447
ag474
aaa(lp480
I464
aI469
ag474
a(lp481
g438
ag474
aaa(lp482
I471
aI477
aS'directs'
p483
a(lp484
g474
ag483
aaa(lp485
I471
aI477
ag483
a(lp486
g465
ag483
aaa(lp487
I471
aI477
ag483
a(lp488
g456
ag483
aaa(lp489
I471
aI477
ag483
a(lp490
g447
ag483
aaa(lp491
I493
aI498
aS'follow'
p492
a(lp493
g483
ag492
aaa(lp494
I493
aI498
ag492
a(lp495
g474
ag492
aaa(lp496
I493
aI498
ag492
a(lp497
g465
ag492
aaa(lp498
I493
aI498
ag492
a(lp499
g456
ag492
aaa(lp500
I505
aI512
aS'doctors'
p501
a(lp502
g492
ag501
aaa(lp503
I505
aI512
ag501
a(lp504
g483
ag501
aaa(lp505
I505
aI512
ag501
a(lp506
g474
ag501
aaa(lp507
I505
aI512
ag501
a(lp508
g465
ag501
aaa(lp509
I514
aI517
aS'care'
p510
a(lp511
g501
ag510
aaa(lp512
I514
aI517
ag510
a(lp513
g492
ag510
aaa(lp514
I514
aI517
ag510
a(lp515
g483
ag510
aaa(lp516
I514
aI517
ag510
a(lp517
g474
ag510
aaa(lp518
I519
aI530
aS'instructions'
p519
a(lp520
g510
ag519
aaa(lp521
I519
aI530
ag519
a(lp522
g501
ag519
aaa(lp523
I519
aI530
ag519
a(lp524
g492
ag519
aaa(lp525
I519
aI530
ag519
a(lp526
g483
ag519
aaa(lp527
I541
aI544
aS'cast'
p528
a(lp529
g519
ag528
aaa(lp530
I541
aI544
ag528
a(lp531
g510
ag528
aaa(lp532
I541
aI544
ag528
a(lp533
g501
ag528
aaa(lp534
I541
aI544
ag528
a(lp535
g492
ag528
aaasS'wordMap'
p536
(lp537
(lp538
I0
aI4
aS'above'
p539
a(lp540
(lp541
I0
aS'a'
p542
aa(lp543
I1
aS'b'
p544
aa(lp545
I2
aS'o'
p546
aa(lp547
I3
aS'v'
p548
aa(lp549
I4
aS'e'
p550
aaaa(lp551
I6
aI9
aS'your'
p552
a(lp553
(lp554
I6
aS'y'
p555
aa(lp556
I7
ag546
aa(lp557
I8
aS'u'
p558
aa(lp559
I9
aS'r'
p560
aaaa(lp561
I11
aI15
ag5
a(lp562
(lp563
I11
aS'h'
p564
aa(lp565
I12
ag550
aa(lp566
I13
ag542
aa(lp567
I14
ag560
aa(lp568
I15
aS't'
p569
aaaa(lp570
I17
aI18
aS'if'
p571
a(lp572
(lp573
I17
aS'i'
p574
aa(lp575
I18
aS'f'
p576
aaaa(lp577
I20
aI27
ag15
a(lp578
(lp579
I20
aS'p'
p580
aa(lp581
I21
ag546
aa(lp582
I22
aS's'
p583
aa(lp584
I23
ag583
aa(lp585
I24
ag574
aa(lp586
I25
ag544
aa(lp587
I26
aS'l'
p588
aa(lp589
I27
ag550
aaaa(lp590
I30
aI34
ag24
a(lp591
(lp592
I30
ag542
aa(lp593
I31
ag580
aa(lp594
I32
ag580
aa(lp595
I33
ag588
aa(lp596
I34
ag555
aaaa(lp597
I36
aI36
ag542
a(lp598
(lp599
I36
ag542
aaaa(lp600
I38
aI41
ag33
a(lp601
(lp602
I38
aS'c'
p603
aa(lp604
I39
ag546
aa(lp605
I40
ag588
aa(lp606
I41
aS'd'
p607
aaaa(lp608
I43
aI50
ag42
a(lp609
(lp610
I43
ag603
aa(lp611
I44
ag546
aa(lp612
I45
aS'm'
p613
aa(lp614
I46
ag580
aa(lp615
I47
ag560
aa(lp616
I48
ag550
aa(lp617
I49
ag583
aa(lp618
I50
ag583
aaaa(lp619
I53
aI56
ag51
a(lp620
(lp621
I53
aS'w'
p622
aa(lp623
I54
ag560
aa(lp624
I55
ag542
aa(lp625
I56
ag580
aaaa(lp626
I58
aI60
ag60
a(lp627
(lp628
I58
ag574
aa(lp629
I59
ag603
aa(lp630
I60
ag550
aaaa(lp631
I62
aI63
aS'in'
p632
a(lp633
(lp634
I62
ag574
aa(lp635
I63
aS'n'
p636
aaaa(lp637
I65
aI65
ag542
a(lp638
(lp639
I65
ag542
aaaa(lp640
I67
aI71
ag69
a(lp641
(lp642
I67
ag613
aa(lp643
I68
ag546
aa(lp644
I69
ag574
aa(lp645
I70
ag583
aa(lp646
I71
ag569
aaaa(lp647
I73
aI76
ag78
a(lp648
(lp649
I73
ag564
aa(lp650
I74
ag542
aa(lp651
I75
ag636
aa(lp652
I76
ag607
aaaa(lp653
I78
aI82
ag87
a(lp654
(lp655
I78
ag569
aa(lp656
I79
ag546
aa(lp657
I80
ag622
aa(lp658
I81
ag550
aa(lp659
I82
ag588
aaaa(lp660
I85
aI86
aS'do'
p661
a(lp662
(lp663
I85
ag607
aa(lp664
I86
ag546
aaaa(lp665
I88
aI90
aS'not'
p666
a(lp667
(lp668
I88
ag636
aa(lp669
I89
ag546
aa(lp670
I90
ag569
aaaa(lp671
I92
aI96
ag96
a(lp672
(lp673
I92
ag542
aa(lp674
I93
ag580
aa(lp675
I94
ag580
aa(lp676
I95
ag588
aa(lp677
I96
ag555
aaaa(lp678
I98
aI100
ag105
a(lp679
(lp680
I98
ag574
aa(lp681
I99
ag603
aa(lp682
I100
ag550
aaaa(lp683
I102
aI109
ag114
a(lp684
(lp685
I102
ag607
aa(lp686
I103
ag574
aa(lp687
I104
ag560
aa(lp688
I105
ag550
aa(lp689
I106
ag603
aa(lp690
I107
ag569
aa(lp691
I108
ag588
aa(lp692
I109
ag555
aaaa(lp693
I111
aI112
aS'to'
p694
a(lp695
(lp696
I111
ag569
aa(lp697
I112
ag546
aaaa(lp698
I114
aI116
aS'the'
p699
a(lp700
(lp701
I114
ag569
aa(lp702
I115
ag564
aa(lp703
I116
ag550
aaaa(lp704
I118
aI121
ag123
a(lp705
(lp706
I118
ag583
aa(lp707
I119
aS'k'
p708
aa(lp709
I120
ag574
aa(lp710
I121
ag636
aaaa(lp711
I124
aI128
ag132
a(lp712
(lp713
I124
ag542
aa(lp714
I125
ag580
aa(lp715
I126
ag580
aa(lp716
I127
ag588
aa(lp717
I128
ag555
aaaa(lp718
I130
aI132
aS'for'
p719
a(lp720
(lp721
I130
ag576
aa(lp722
I131
ag546
aa(lp723
I132
ag560
aaaa(lp724
I134
aI138
ag141
a(lp725
(lp726
I134
aS'2'
p727
aa(lp728
I135
aS'0'
p729
aa(lp730
I137
aS'3'
p731
aa(lp732
I138
ag729
aaaa(lp733
I140
aI146
ag150
a(lp734
(lp735
I140
ag613
aa(lp736
I141
ag574
aa(lp737
I142
ag636
aa(lp738
I143
ag558
aa(lp739
I144
ag569
aa(lp740
I145
ag550
aa(lp741
I146
ag583
aaaa(lp742
I149
aI153
ag159
a(lp743
(lp744
I149
ag550
aa(lp745
I150
ag548
aa(lp746
I151
ag550
aa(lp747
I152
ag560
aa(lp748
I153
ag555
aaaa(lp749
I155
aI157
ag168
a(lp750
(lp751
I155
aS'1'
p752
aa(lp753
I157
ag727
aaaa(lp754
I159
aI163
ag177
a(lp755
(lp756
I159
ag564
aa(lp757
I160
ag546
aa(lp758
I161
ag558
aa(lp759
I162
ag560
aa(lp760
I163
ag583
aaaa(lp761
I166
aI168
aS'for'
p762
a(lp763
(lp764
I166
ag576
aa(lp765
I167
ag546
aa(lp766
I168
ag560
aaaa(lp767
I170
aI172
aS'the'
p768
a(lp769
(lp770
I170
ag569
aa(lp771
I171
ag564
aa(lp772
I172
ag550
aaaa(lp773
I174
aI178
ag186
a(lp774
(lp775
I174
ag576
aa(lp776
I175
ag574
aa(lp777
I176
ag560
aa(lp778
I177
ag583
aa(lp779
I178
ag569
aaaa(lp780
I180
aI182
aS'few'
p781
a(lp782
(lp783
I180
ag576
aa(lp784
I181
ag550
aa(lp785
I182
ag622
aaaa(lp786
I184
aI187
ag195
a(lp787
(lp788
I184
ag607
aa(lp789
I185
ag542
aa(lp790
I186
ag555
aa(lp791
I187
ag583
aaaa(lp792
I190
aI193
ag204
a(lp793
(lp794
I190
ag622
aa(lp795
I191
ag550
aa(lp796
I192
ag542
aa(lp797
I193
ag560
aaaa(lp798
I195
aI195
ag542
a(lp799
(lp800
I195
ag542
aaaa(lp801
I197
aI201
ag213
a(lp802
(lp803
I197
ag583
aa(lp804
I198
ag588
aa(lp805
I199
ag574
aa(lp806
I200
ag636
aa(lp807
I201
aS'g'
p808
aaaa(lp809
I203
aI205
aS'for'
p810
a(lp811
(lp812
I203
ag576
aa(lp813
I204
ag546
aa(lp814
I205
ag560
aaaa(lp815
I207
aI213
ag222
a(lp816
(lp817
I207
ag603
aa(lp818
I208
ag546
aa(lp819
I209
ag613
aa(lp820
I210
ag576
aa(lp821
I211
ag546
aa(lp822
I212
ag560
aa(lp823
I213
ag569
aaaa(lp824
I216
aI219
ag231
a(lp825
(lp826
I216
ag588
aa(lp827
I217
ag546
aa(lp828
I218
ag636
aa(lp829
I219
ag808
aaaa(lp830
I221
aI224
ag240
a(lp831
(lp832
I221
ag569
aa(lp833
I222
ag550
aa(lp834
I223
ag560
aa(lp835
I224
ag613
aaaa(lp836
I226
aI239
ag249
a(lp837
(lp838
I226
ag574
aa(lp839
I227
ag613
aa(lp840
I228
ag613
aa(lp841
I229
ag546
aa(lp842
I230
ag544
aa(lp843
I231
ag574
aa(lp844
I232
ag588
aa(lp845
I233
ag574
aa(lp846
I234
aS'z'
p847
aa(lp848
I235
ag542
aa(lp849
I236
ag569
aa(lp850
I237
ag574
aa(lp851
I238
ag546
aa(lp852
I239
ag636
aaaa(lp853
I241
aI242
aS'in'
p854
a(lp855
(lp856
I241
ag574
aa(lp857
I242
ag636
aaaa(lp858
I244
aI244
ag542
a(lp859
(lp860
I244
ag542
aaaa(lp861
I246
aI250
ag258
a(lp862
(lp863
I246
ag583
aa(lp864
I247
ag588
aa(lp865
I248
ag574
aa(lp866
I249
ag636
aa(lp867
I250
ag808
aaaa(lp868
I252
aI254
aS'can'
p869
a(lp870
(lp871
I252
ag603
aa(lp872
I253
ag542
aa(lp873
I254
ag636
aaaa(lp874
I256
aI259
ag267
a(lp875
(lp876
I256
ag588
aa(lp877
I257
ag550
aa(lp878
I258
ag542
aa(lp879
I259
ag607
aaaa(lp880
I261
aI262
aS'to'
p881
a(lp882
(lp883
I261
ag569
aa(lp884
I262
ag546
aaaa(lp885
I266
aI271
ag276
a(lp886
(lp887
I266
ag576
aa(lp888
I267
ag560
aa(lp889
I268
ag546
aa(lp890
I269
ag847
aa(lp891
I270
ag550
aa(lp892
I271
ag636
aaaa(lp893
I273
aI280
ag285
a(lp894
(lp895
I273
ag583
aa(lp896
I274
ag564
aa(lp897
I275
ag546
aa(lp898
I276
ag558
aa(lp899
I277
ag588
aa(lp900
I278
ag607
aa(lp901
I279
ag550
aa(lp902
I280
ag560
aaaa(lp903
I282
aI283
aS'if'
p904
a(lp905
(lp906
I282
ag574
aa(lp907
I283
ag576
aaaa(lp908
I285
aI287
aS'you'
p909
a(lp910
(lp911
I285
ag555
aa(lp912
I286
ag546
aa(lp913
I287
ag558
aaaa(lp914
I289
aI292
ag294
a(lp915
(lp916
I289
ag622
aa(lp917
I290
ag550
aa(lp918
I291
ag542
aa(lp919
I292
ag560
aaaa(lp920
I294
aI294
ag542
a(lp921
(lp922
I294
ag542
aaaa(lp923
I296
aI303
ag303
a(lp924
(lp925
I296
ag583
aa(lp926
I297
ag564
aa(lp927
I298
ag546
aa(lp928
I299
ag558
aa(lp929
I300
ag588
aa(lp930
I301
ag607
aa(lp931
I302
ag550
aa(lp932
I303
ag560
aaaa(lp933
I305
aI309
ag312
a(lp934
(lp935
I305
ag583
aa(lp936
I306
ag588
aa(lp937
I307
ag574
aa(lp938
I308
ag636
aa(lp939
I309
ag808
aaaa(lp940
I311
aI313
aS'for'
p941
a(lp942
(lp943
I311
ag576
aa(lp944
I312
ag546
aa(lp945
I313
ag560
aaaa(lp946
I315
aI320
ag321
a(lp947
(lp948
I315
ag588
aa(lp949
I316
ag546
aa(lp950
I317
ag636
aa(lp951
I318
ag808
aa(lp952
I319
ag550
aa(lp953
I320
ag560
aaaa(lp954
I322
aI325
aS'than'
p955
a(lp956
(lp957
I322
ag569
aa(lp958
I323
ag564
aa(lp959
I324
ag542
aa(lp960
I325
ag636
aaaa(lp961
I327
aI329
ag330
a(lp962
(lp963
I327
ag569
aa(lp964
I328
ag622
aa(lp965
I329
ag546
aaaa(lp966
I331
aI335
ag339
a(lp967
(lp968
I331
ag622
aa(lp969
I332
ag550
aa(lp970
I333
ag550
aa(lp971
I334
ag708
aa(lp972
I335
ag583
aaaa(lp973
I337
aI340
ag348
a(lp974
(lp975
I337
ag613
aa(lp976
I338
ag542
aa(lp977
I339
ag708
aa(lp978
I340
ag550
aaaa(lp979
I342
aI345
ag357
a(lp980
(lp981
I342
ag583
aa(lp982
I343
ag558
aa(lp983
I344
ag560
aa(lp984
I345
ag550
aaaa(lp985
I347
aI349
aS'you'
p986
a(lp987
(lp988
I347
ag555
aa(lp989
I348
ag546
aa(lp990
I349
ag558
aaaa(lp991
I351
aI357
ag366
a(lp992
(lp993
I351
ag580
aa(lp994
I352
ag550
aa(lp995
I353
ag560
aa(lp996
I354
ag576
aa(lp997
I355
ag546
aa(lp998
I356
ag560
aa(lp999
I357
ag613
aaaa(lp1000
I359
aI366
ag375
a(lp1001
(lp1002
I359
ag583
aa(lp1003
I360
ag564
aa(lp1004
I361
ag546
aa(lp1005
I362
ag558
aa(lp1006
I363
ag588
aa(lp1007
I364
ag607
aa(lp1008
I365
ag550
aa(lp1009
I366
ag560
aaaa(lp1010
I368
aI372
ag384
a(lp1011
(lp1012
I368
ag560
aa(lp1013
I369
ag542
aa(lp1014
I370
ag636
aa(lp1015
I371
ag808
aa(lp1016
I372
ag550
aaaa(lp1017
I374
aI375
aS'of'
p1018
a(lp1019
(lp1020
I374
ag546
aa(lp1021
I375
ag576
aaaa(lp1022
I377
aI382
ag393
a(lp1023
(lp1024
I377
ag613
aa(lp1025
I378
ag546
aa(lp1026
I379
ag569
aa(lp1027
I380
ag574
aa(lp1028
I381
ag546
aa(lp1029
I382
ag636
aaaa(lp1030
I384
aI392
ag402
a(lp1031
(lp1032
I384
ag550
aa(lp1033
I385
aS'x'
p1034
aa(lp1035
I386
ag550
aa(lp1036
I387
ag560
aa(lp1037
I388
ag603
aa(lp1038
I389
ag574
aa(lp1039
I390
ag583
aa(lp1040
I391
ag550
aa(lp1041
I392
ag583
aaaa(lp1042
I394
aI398
ag411
a(lp1043
(lp1044
I394
ag569
aa(lp1045
I395
ag622
aa(lp1046
I396
ag574
aa(lp1047
I397
ag603
aa(lp1048
I398
ag550
aaaa(lp1049
I400
aI400
ag542
a(lp1050
(lp1051
I400
ag542
aaaa(lp1052
I402
aI404
ag420
a(lp1053
(lp1054
I402
ag607
aa(lp1055
I403
ag542
aa(lp1056
I404
ag555
aaaa(lp1057
I406
aI407
aS'to'
p1058
a(lp1059
(lp1060
I406
ag569
aa(lp1061
I407
ag546
aaaa(lp1062
I409
aI413
ag429
a(lp1063
(lp1064
I409
ag542
aa(lp1065
I410
ag548
aa(lp1066
I411
ag546
aa(lp1067
I412
ag574
aa(lp1068
I413
ag607
aaaa(lp1069
I417
aI422
ag438
a(lp1070
(lp1071
I417
ag576
aa(lp1072
I418
ag560
aa(lp1073
I419
ag546
aa(lp1074
I420
ag847
aa(lp1075
I421
ag550
aa(lp1076
I422
ag636
aaaa(lp1077
I424
aI431
ag447
a(lp1078
(lp1079
I424
ag583
aa(lp1080
I425
ag564
aa(lp1081
I426
ag546
aa(lp1082
I427
ag558
aa(lp1083
I428
ag588
aa(lp1084
I429
ag607
aa(lp1085
I430
ag550
aa(lp1086
I431
ag560
aaaa(lp1087
I433
aI434
aS'do'
p1088
a(lp1089
(lp1090
I433
ag607
aa(lp1091
I434
ag546
aaaa(lp1092
I436
aI438
aS'not'
p1093
a(lp1094
(lp1095
I436
ag636
aa(lp1096
I437
ag546
aa(lp1097
I438
ag569
aaaa(lp1098
I440
aI442
ag456
a(lp1099
(lp1100
I440
ag558
aa(lp1101
I441
ag583
aa(lp1102
I442
ag550
aaaa(lp1103
I444
aI447
aS'your'
p1104
a(lp1105
(lp1106
I444
ag555
aa(lp1107
I445
ag546
aa(lp1108
I446
ag558
aa(lp1109
I447
ag560
aaaa(lp1110
I449
aI451
ag465
a(lp1111
(lp1112
I449
ag542
aa(lp1113
I450
ag560
aa(lp1114
I451
ag613
aaaa(lp1115
I453
aI457
aS'until'
p1116
a(lp1117
(lp1118
I453
ag558
aa(lp1119
I454
ag636
aa(lp1120
I455
ag569
aa(lp1121
I456
ag574
aa(lp1122
I457
ag588
aaaa(lp1123
I459
aI462
aS'your'
p1124
a(lp1125
(lp1126
I459
ag555
aa(lp1127
I460
ag546
aa(lp1128
I461
ag558
aa(lp1129
I462
ag560
aaaa(lp1130
I464
aI469
ag474
a(lp1131
(lp1132
I464
ag607
aa(lp1133
I465
ag546
aa(lp1134
I466
ag603
aa(lp1135
I467
ag569
aa(lp1136
I468
ag546
aa(lp1137
I469
ag560
aaaa(lp1138
I471
aI477
ag483
a(lp1139
(lp1140
I471
ag607
aa(lp1141
I472
ag574
aa(lp1142
I473
ag560
aa(lp1143
I474
ag550
aa(lp1144
I475
ag603
aa(lp1145
I476
ag569
aa(lp1146
I477
ag583
aaaa(lp1147
I479
aI481
aS'you'
p1148
a(lp1149
(lp1150
I479
ag555
aa(lp1151
I480
ag546
aa(lp1152
I481
ag558
aaaa(lp1153
I483
aI484
aS'to'
p1154
a(lp1155
(lp1156
I483
ag569
aa(lp1157
I484
ag546
aaaa(lp1158
I486
aI487
aS'do'
p1159
a(lp1160
(lp1161
I486
ag607
aa(lp1162
I487
ag546
aaaa(lp1163
I489
aI490
aS'so'
p1164
a(lp1165
(lp1166
I489
ag583
aa(lp1167
I490
ag546
aaaa(lp1168
I493
aI498
ag492
a(lp1169
(lp1170
I493
ag576
aa(lp1171
I494
ag546
aa(lp1172
I495
ag588
aa(lp1173
I496
ag588
aa(lp1174
I497
ag546
aa(lp1175
I498
ag622
aaaa(lp1176
I500
aI503
aS'your'
p1177
a(lp1178
(lp1179
I500
ag555
aa(lp1180
I501
ag546
aa(lp1181
I502
ag558
aa(lp1182
I503
ag560
aaaa(lp1183
I505
aI512
ag501
a(lp1184
(lp1185
I505
ag607
aa(lp1186
I506
ag546
aa(lp1187
I507
ag603
aa(lp1188
I508
ag569
aa(lp1189
I509
ag546
aa(lp1190
I510
ag560
aa(lp1191
I512
ag583
aaaa(lp1192
I514
aI517
ag510
a(lp1193
(lp1194
I514
ag603
aa(lp1195
I515
ag542
aa(lp1196
I516
ag560
aa(lp1197
I517
ag550
aaaa(lp1198
I519
aI530
ag519
a(lp1199
(lp1200
I519
ag574
aa(lp1201
I520
ag636
aa(lp1202
I521
ag583
aa(lp1203
I522
ag569
aa(lp1204
I523
ag560
aa(lp1205
I524
ag558
aa(lp1206
I525
ag603
aa(lp1207
I526
ag569
aa(lp1208
I527
ag574
aa(lp1209
I528
ag546
aa(lp1210
I529
ag636
aa(lp1211
I530
ag583
aaaa(lp1212
I532
aI534
aS'for'
p1213
a(lp1214
(lp1215
I532
ag576
aa(lp1216
I533
ag546
aa(lp1217
I534
ag560
aaaa(lp1218
I536
aI539
aS'your'
p1219
a(lp1220
(lp1221
I536
ag555
aa(lp1222
I537
ag546
aa(lp1223
I538
ag558
aa(lp1224
I539
ag560
aaaa(lp1225
I541
aI544
ag528
a(lp1226
(lp1227
I541
ag603
aa(lp1228
I542
ag542
aa(lp1229
I543
ag583
aa(lp1230
I544
ag569
aaaa(lp1231
I546
aI547
aS'or'
p1232
a(lp1233
(lp1234
I546
ag546
aa(lp1235
I547
ag560
aaaasS'cleanCharacterMap'
p1236
(lp1237
g541
ag543
ag545
ag547
ag549
a(lp1238
I5
aS' '
p1239
aag554
ag556
ag557
ag559
a(lp1240
I10
ag1239
aag563
ag565
ag566
ag567
ag568
a(lp1241
I16
ag1239
aag573
ag575
a(lp1242
I19
ag1239
aag579
ag581
ag582
ag584
ag585
ag586
ag587
ag589
a(lp1243
I29
ag1239
aag592
ag593
ag594
ag595
ag596
a(lp1244
I35
ag1239
aag599
a(lp1245
I37
ag1239
aag602
ag604
ag605
ag606
a(lp1246
I42
ag1239
aag610
ag611
ag612
ag614
ag615
ag616
ag617
ag618
a(lp1247
I52
ag1239
aag621
ag623
ag624
ag625
a(lp1248
I57
ag1239
aag628
ag629
ag630
a(lp1249
I61
ag1239
aag634
ag635
a(lp1250
I64
ag1239
aag639
a(lp1251
I66
ag1239
aag642
ag643
ag644
ag645
ag646
a(lp1252
I72
ag1239
aag649
ag650
ag651
ag652
a(lp1253
I77
ag1239
aag655
ag656
ag657
ag658
ag659
a(lp1254
I84
ag1239
aag663
ag664
a(lp1255
I87
ag1239
aag668
ag669
ag670
a(lp1256
I91
ag1239
aag673
ag674
ag675
ag676
ag677
a(lp1257
I97
ag1239
aag680
ag681
ag682
a(lp1258
I101
ag1239
aag685
ag686
ag687
ag688
ag689
ag690
ag691
ag692
a(lp1259
I110
ag1239
aag696
ag697
a(lp1260
I113
ag1239
aag701
ag702
ag703
a(lp1261
I117
ag1239
aag706
ag707
ag709
ag710
a(lp1262
I123
ag1239
aag713
ag714
ag715
ag716
ag717
a(lp1263
I129
ag1239
aag721
ag722
ag723
a(lp1264
I133
ag1239
aag726
ag728
ag730
ag732
a(lp1265
I139
ag1239
aag735
ag736
ag737
ag738
ag739
ag740
ag741
a(lp1266
I148
ag1239
aag744
ag745
ag746
ag747
ag748
a(lp1267
I154
ag1239
aag751
ag753
a(lp1268
I158
ag1239
aag756
ag757
ag758
ag759
ag760
a(lp1269
I165
ag1239
aag764
ag765
ag766
a(lp1270
I169
ag1239
aag770
ag771
ag772
a(lp1271
I173
ag1239
aag775
ag776
ag777
ag778
ag779
a(lp1272
I179
ag1239
aag783
ag784
ag785
a(lp1273
I183
ag1239
aag788
ag789
ag790
ag791
a(lp1274
I189
ag1239
aag794
ag795
ag796
ag797
a(lp1275
I194
ag1239
aag800
a(lp1276
I196
ag1239
aag803
ag804
ag805
ag806
ag807
a(lp1277
I202
ag1239
aag812
ag813
ag814
a(lp1278
I206
ag1239
aag817
ag818
ag819
ag820
ag821
ag822
ag823
a(lp1279
I215
ag1239
aag826
ag827
ag828
ag829
a(lp1280
I220
ag1239
aag832
ag833
ag834
ag835
a(lp1281
I225
ag1239
aag838
ag839
ag840
ag841
ag842
ag843
ag844
ag845
ag846
ag848
ag849
ag850
ag851
ag852
a(lp1282
I240
ag1239
aag856
ag857
a(lp1283
I243
ag1239
aag860
a(lp1284
I245
ag1239
aag863
ag864
ag865
ag866
ag867
a(lp1285
I251
ag1239
aag871
ag872
ag873
a(lp1286
I255
ag1239
aag876
ag877
ag878
ag879
a(lp1287
I260
ag1239
aag883
ag884
a(lp1288
I263
ag1239
aa(lp1289
I265
ag1239
aag887
ag888
ag889
ag890
ag891
ag892
a(lp1290
I272
ag1239
aag895
ag896
ag897
ag898
ag899
ag900
ag901
ag902
a(lp1291
I281
ag1239
aag906
ag907
a(lp1292
I284
ag1239
aag911
ag912
ag913
a(lp1293
I288
ag1239
aag916
ag917
ag918
ag919
a(lp1294
I293
ag1239
aag922
a(lp1295
I295
ag1239
aag925
ag926
ag927
ag928
ag929
ag930
ag931
ag932
a(lp1296
I304
ag1239
aag935
ag936
ag937
ag938
ag939
a(lp1297
I310
ag1239
aag943
ag944
ag945
a(lp1298
I314
ag1239
aag948
ag949
ag950
ag951
ag952
ag953
a(lp1299
I321
ag1239
aag957
ag958
ag959
ag960
a(lp1300
I326
ag1239
aag963
ag964
ag965
a(lp1301
I330
ag1239
aag968
ag969
ag970
ag971
ag972
a(lp1302
I336
ag1239
aag975
ag976
ag977
ag978
a(lp1303
I341
ag1239
aag981
ag982
ag983
ag984
a(lp1304
I346
ag1239
aag988
ag989
ag990
a(lp1305
I350
ag1239
aag993
ag994
ag995
ag996
ag997
ag998
ag999
a(lp1306
I358
ag1239
aag1002
ag1003
ag1004
ag1005
ag1006
ag1007
ag1008
ag1009
a(lp1307
I367
ag1239
aag1012
ag1013
ag1014
ag1015
ag1016
a(lp1308
I373
ag1239
aag1020
ag1021
a(lp1309
I376
ag1239
aag1024
ag1025
ag1026
ag1027
ag1028
ag1029
a(lp1310
I383
ag1239
aag1032
ag1033
ag1035
ag1036
ag1037
ag1038
ag1039
ag1040
ag1041
a(lp1311
I393
ag1239
aag1044
ag1045
ag1046
ag1047
ag1048
a(lp1312
I399
ag1239
aag1051
a(lp1313
I401
ag1239
aag1054
ag1055
ag1056
a(lp1314
I405
ag1239
aag1060
ag1061
a(lp1315
I408
ag1239
aag1064
ag1065
ag1066
ag1067
ag1068
a(lp1316
I414
ag1239
aa(lp1317
I416
ag1239
aag1071
ag1072
ag1073
ag1074
ag1075
ag1076
a(lp1318
I423
ag1239
aag1079
ag1080
ag1081
ag1082
ag1083
ag1084
ag1085
ag1086
a(lp1319
I432
ag1239
aag1090
ag1091
a(lp1320
I435
ag1239
aag1095
ag1096
ag1097
a(lp1321
I439
ag1239
aag1100
ag1101
ag1102
a(lp1322
I443
ag1239
aag1106
ag1107
ag1108
ag1109
a(lp1323
I448
ag1239
aag1112
ag1113
ag1114
a(lp1324
I452
ag1239
aag1118
ag1119
ag1120
ag1121
ag1122
a(lp1325
I458
ag1239
aag1126
ag1127
ag1128
ag1129
a(lp1326
I463
ag1239
aag1132
ag1133
ag1134
ag1135
ag1136
ag1137
a(lp1327
I470
ag1239
aag1140
ag1141
ag1142
ag1143
ag1144
ag1145
ag1146
a(lp1328
I478
ag1239
aag1150
ag1151
ag1152
a(lp1329
I482
ag1239
aag1156
ag1157
a(lp1330
I485
ag1239
aag1161
ag1162
a(lp1331
I488
ag1239
aag1166
ag1167
a(lp1332
I492
ag1239
aag1170
ag1171
ag1172
ag1173
ag1174
ag1175
a(lp1333
I499
ag1239
aag1179
ag1180
ag1181
ag1182
a(lp1334
I504
ag1239
aag1185
ag1186
ag1187
ag1188
ag1189
ag1190
ag1191
a(lp1335
I513
ag1239
aag1194
ag1195
ag1196
ag1197
a(lp1336
I518
ag1239
aag1200
ag1201
ag1202
ag1203
ag1204
ag1205
ag1206
ag1207
ag1208
ag1209
ag1210
ag1211
a(lp1337
I531
ag1239
aag1215
ag1216
ag1217
a(lp1338
I535
ag1239
aag1221
ag1222
ag1223
ag1224
a(lp1339
I540
ag1239
aag1227
ag1228
ag1229
ag1230
a(lp1340
I545
ag1239
aag1234
ag1235
a(lp1341
I548
ag1239
aa(lp1342
I549
ag583
aa(lp1343
I550
ag580
aa(lp1344
I551
ag588
aa(lp1345
I552
ag574
aa(lp1346
I553
ag636
aa(lp1347
I554
ag569
aasS'text'
p1348
S"above your heart if possible. apply a cold compress: wrap ice in a moist hand towel. do not apply ice directly to the skin. apply for 20-30 minutes, every 1-2 hours, for the first few days. wear a sling for comfort: long term immobilization in a sling can lead to . frozen shoulder if you wear a shoulder sling for longer than two weeks make sure you perform shoulder range of motion exercises twice a day to avoid . frozen shoulder do not use your arm until your doctor directs you to do so. follow your doctor's care instructions for your cast or splint."
p1349
sS'cleanWordMap'
p1350
(lp1351
g561
ag577
ag590
ag600
ag608
ag619
ag626
ag640
ag647
ag653
ag671
ag678
ag683
ag704
ag711
ag724
ag733
ag742
ag749
ag754
ag773
ag786
ag792
ag801
ag815
ag824
ag830
ag836
ag861
ag874
ag885
ag893
ag914
ag923
ag933
ag946
ag961
ag966
ag973
ag979
ag991
ag1000
ag1010
ag1022
ag1030
ag1042
ag1052
ag1062
ag1069
ag1077
ag1098
ag1110
ag1130
ag1138
ag1168
ag1183
ag1192
ag1198
ag1225
asS'lines'
p1352
(lp1353
VAbove your heart if possible.\u000a
p1354
aVApply a cold compress:\u000a
p1355
aVWrap ice in a moist hand towel. Do not apply ice directly to the skin.\u000a
p1356
aVApply for 20-30 minutes, every 1-2 hours, for the first few days.\u000a
p1357
aVWear a sling for comfort:\u000a
p1358
aVLong term immobilization in a sling can lead to . frozen shoulder\u000a
p1359
aVIf you wear a shoulder sling for longer than two weeks make sure you perform shoulder range of motion exercises twice a day to avoid . frozen shoulder\u000a
p1360
aVDo not use your arm until your doctor directs you to do so.\u000a
p1361
aVFollow your doctor's care instructions for your cast or splint.
p1362
asS'docType'
p1363
S'src'
p1364
sS'newfmap'
p1365
(lp1366
g4
ag8
ag10
ag12
ag14
ag17
ag19
ag21
ag23
ag26
ag28
ag30
ag32
ag35
ag37
ag39
ag41
ag44
ag46
ag48
ag50
ag53
ag55
ag57
ag59
ag62
ag64
ag66
ag68
ag71
ag73
ag75
ag77
ag80
ag82
ag84
ag86
ag89
ag91
ag93
ag95
ag98
ag100
ag102
ag104
ag107
ag109
ag111
ag113
ag116
ag118
ag120
ag122
ag125
ag127
ag129
ag131
ag134
ag136
ag138
ag140
ag143
ag145
ag147
ag149
ag152
ag154
ag156
ag158
ag161
ag163
ag165
ag167
ag170
ag172
ag174
ag176
ag179
ag181
ag183
ag185
ag188
ag190
ag192
ag194
ag197
ag199
ag201
ag203
ag206
ag208
ag210
ag212
ag215
ag217
ag219
ag221
ag224
ag226
ag228
ag230
ag233
ag235
ag237
ag239
ag242
ag244
ag246
ag248
ag251
ag253
ag255
ag257
ag260
ag262
ag264
ag266
ag269
ag271
ag273
ag275
ag278
ag280
ag282
ag284
ag287
ag289
ag291
ag293
ag296
ag298
ag300
ag302
ag305
ag307
ag309
ag311
ag314
ag316
ag318
ag320
ag323
ag325
ag327
ag329
ag332
ag334
ag336
ag338
ag341
ag343
ag345
ag347
ag350
ag352
ag354
ag356
ag359
ag361
ag363
ag365
ag368
ag370
ag372
ag374
ag377
ag379
ag381
ag383
ag386
ag388
ag390
ag392
ag395
ag397
ag399
ag401
ag404
ag406
ag408
ag410
ag413
ag415
ag417
ag419
ag422
ag424
ag426
ag428
ag431
ag433
ag435
ag437
ag440
ag442
ag444
ag446
ag449
ag451
ag453
ag455
ag458
ag460
ag462
ag464
ag467
ag469
ag471
ag473
ag476
ag478
ag480
ag482
ag485
ag487
ag489
ag491
ag494
ag496
ag498
ag500
ag503
ag505
ag507
ag509
ag512
ag514
ag516
ag518
ag521
ag523
ag525
ag527
ag530
ag532
ag534
asS'featureMap'
p1367
(lp1368
(lp1369
I11
aI15
ag5
ag6
ag9
ag11
ag13
aa(lp1370
I20
aI27
ag15
ag16
ag18
ag20
ag22
aa(lp1371
I30
aI34
ag24
ag25
ag27
ag29
ag31
aa(lp1372
I38
aI41
ag33
ag34
ag36
ag38
ag40
aa(lp1373
I43
aI50
ag42
ag43
ag45
ag47
ag49
aa(lp1374
I53
aI56
ag51
ag52
ag54
ag56
ag58
aa(lp1375
I58
aI60
ag60
ag61
ag63
ag65
ag67
aa(lp1376
I67
aI71
ag69
ag70
ag72
ag74
ag76
aa(lp1377
I73
aI76
ag78
ag79
ag81
ag83
ag85
aa(lp1378
I78
aI82
ag87
ag88
ag90
ag92
ag94
aa(lp1379
I92
aI96
ag96
ag97
ag99
ag101
ag103
aa(lp1380
I98
aI100
ag105
ag106
ag108
ag110
ag112
aa(lp1381
I102
aI109
ag114
ag115
ag117
ag119
ag121
aa(lp1382
I118
aI121
ag123
ag124
ag126
ag128
ag130
aa(lp1383
I124
aI128
ag132
ag133
ag135
ag137
ag139
aa(lp1384
I134
aI138
ag141
ag142
ag144
ag146
ag148
aa(lp1385
I140
aI146
ag150
ag151
ag153
ag155
ag157
aa(lp1386
I149
aI153
ag159
ag160
ag162
ag164
ag166
aa(lp1387
I155
aI157
ag168
ag169
ag171
ag173
ag175
aa(lp1388
I159
aI163
ag177
ag178
ag180
ag182
ag184
aa(lp1389
I174
aI178
ag186
ag187
ag189
ag191
ag193
aa(lp1390
I184
aI187
ag195
ag196
ag198
ag200
ag202
aa(lp1391
I190
aI193
ag204
ag205
ag207
ag209
ag211
aa(lp1392
I197
aI201
ag213
ag214
ag216
ag218
ag220
aa(lp1393
I207
aI213
ag222
ag223
ag225
ag227
ag229
aa(lp1394
I216
aI219
ag231
ag232
ag234
ag236
ag238
aa(lp1395
I221
aI224
ag240
ag241
ag243
ag245
ag247
aa(lp1396
I226
aI239
ag249
ag250
ag252
ag254
ag256
aa(lp1397
I246
aI250
ag258
ag259
ag261
ag263
ag265
aa(lp1398
I256
aI259
ag267
ag268
ag270
ag272
ag274
aa(lp1399
I266
aI271
ag276
ag277
ag279
ag281
ag283
aa(lp1400
I273
aI280
ag285
ag286
ag288
ag290
ag292
aa(lp1401
I289
aI292
ag294
ag295
ag297
ag299
ag301
aa(lp1402
I296
aI303
ag303
ag304
ag306
ag308
ag310
aa(lp1403
I305
aI309
ag312
ag313
ag315
ag317
ag319
aa(lp1404
I315
aI320
ag321
ag322
ag324
ag326
ag328
aa(lp1405
I327
aI329
ag330
ag331
ag333
ag335
ag337
aa(lp1406
I331
aI335
ag339
ag340
ag342
ag344
ag346
aa(lp1407
I337
aI340
ag348
ag349
ag351
ag353
ag355
aa(lp1408
I342
aI345
ag357
ag358
ag360
ag362
ag364
aa(lp1409
I351
aI357
ag366
ag367
ag369
ag371
ag373
aa(lp1410
I359
aI366
ag375
ag376
ag378
ag380
ag382
aa(lp1411
I368
aI372
ag384
ag385
ag387
ag389
ag391
aa(lp1412
I377
aI382
ag393
ag394
ag396
ag398
ag400
aa(lp1413
I384
aI392
ag402
ag403
ag405
ag407
ag409
aa(lp1414
I394
aI398
ag411
ag412
ag414
ag416
ag418
aa(lp1415
I402
aI404
ag420
ag421
ag423
ag425
ag427
aa(lp1416
I409
aI413
ag429
ag430
ag432
ag434
ag436
aa(lp1417
I417
aI422
ag438
ag439
ag441
ag443
ag445
aa(lp1418
I424
aI431
ag447
ag448
ag450
ag452
ag454
aa(lp1419
I440
aI442
ag456
ag457
ag459
ag461
ag463
aa(lp1420
I449
aI451
ag465
ag466
ag468
ag470
ag472
aa(lp1421
I464
aI469
ag474
ag475
ag477
ag479
ag481
aa(lp1422
I471
aI477
ag483
ag484
ag486
ag488
ag490
aa(lp1423
I493
aI498
ag492
ag493
ag495
ag497
ag499
aa(lp1424
I505
aI512
ag501
ag502
ag504
ag506
ag508
aa(lp1425
I514
aI517
ag510
ag511
ag513
ag515
ag517
aa(lp1426
I519
aI530
ag519
ag520
ag522
ag524
ag526
aa(lp1427
I541
aI544
ag528
ag529
ag531
ag533
ag535
aasS'characterMap'
p1428
(lp1429
g541
ag543
ag545
ag547
ag549
ag1238
ag554
ag556
ag557
ag559
ag1240
ag563
ag565
ag566
ag567
ag568
ag1241
ag573
ag575
ag1242
ag579
ag581
ag582
ag584
ag585
ag586
ag587
ag589
a(lp1430
I28
aS'.'
p1431
aag1243
ag592
ag593
ag594
ag595
ag596
ag1244
ag599
ag1245
ag602
ag604
ag605
ag606
ag1246
ag610
ag611
ag612
ag614
ag615
ag616
ag617
ag618
a(lp1432
I51
aS':'
p1433
aag1247
ag621
ag623
ag624
ag625
ag1248
ag628
ag629
ag630
ag1249
ag634
ag635
ag1250
ag639
ag1251
ag642
ag643
ag644
ag645
ag646
ag1252
ag649
ag650
ag651
ag652
ag1253
ag655
ag656
ag657
ag658
ag659
a(lp1434
I83
ag1431
aag1254
ag663
ag664
ag1255
ag668
ag669
ag670
ag1256
ag673
ag674
ag675
ag676
ag677
ag1257
ag680
ag681
ag682
ag1258
ag685
ag686
ag687
ag688
ag689
ag690
ag691
ag692
ag1259
ag696
ag697
ag1260
ag701
ag702
ag703
ag1261
ag706
ag707
ag709
ag710
a(lp1435
I122
ag1431
aag1262
ag713
ag714
ag715
ag716
ag717
ag1263
ag721
ag722
ag723
ag1264
ag726
ag728
a(lp1436
I136
aS'-'
p1437
aag730
ag732
ag1265
ag735
ag736
ag737
ag738
ag739
ag740
ag741
a(lp1438
I147
aS','
p1439
aag1266
ag744
ag745
ag746
ag747
ag748
ag1267
ag751
a(lp1440
I156
ag1437
aag753
ag1268
ag756
ag757
ag758
ag759
ag760
a(lp1441
I164
ag1439
aag1269
ag764
ag765
ag766
ag1270
ag770
ag771
ag772
ag1271
ag775
ag776
ag777
ag778
ag779
ag1272
ag783
ag784
ag785
ag1273
ag788
ag789
ag790
ag791
a(lp1442
I188
ag1431
aag1274
ag794
ag795
ag796
ag797
ag1275
ag800
ag1276
ag803
ag804
ag805
ag806
ag807
ag1277
ag812
ag813
ag814
ag1278
ag817
ag818
ag819
ag820
ag821
ag822
ag823
a(lp1443
I214
ag1433
aag1279
ag826
ag827
ag828
ag829
ag1280
ag832
ag833
ag834
ag835
ag1281
ag838
ag839
ag840
ag841
ag842
ag843
ag844
ag845
ag846
ag848
ag849
ag850
ag851
ag852
ag1282
ag856
ag857
ag1283
ag860
ag1284
ag863
ag864
ag865
ag866
ag867
ag1285
ag871
ag872
ag873
ag1286
ag876
ag877
ag878
ag879
ag1287
ag883
ag884
ag1288
a(lp1444
I264
ag1431
aag1289
ag887
ag888
ag889
ag890
ag891
ag892
ag1290
ag895
ag896
ag897
ag898
ag899
ag900
ag901
ag902
ag1291
ag906
ag907
ag1292
ag911
ag912
ag913
ag1293
ag916
ag917
ag918
ag919
ag1294
ag922
ag1295
ag925
ag926
ag927
ag928
ag929
ag930
ag931
ag932
ag1296
ag935
ag936
ag937
ag938
ag939
ag1297
ag943
ag944
ag945
ag1298
ag948
ag949
ag950
ag951
ag952
ag953
ag1299
ag957
ag958
ag959
ag960
ag1300
ag963
ag964
ag965
ag1301
ag968
ag969
ag970
ag971
ag972
ag1302
ag975
ag976
ag977
ag978
ag1303
ag981
ag982
ag983
ag984
ag1304
ag988
ag989
ag990
ag1305
ag993
ag994
ag995
ag996
ag997
ag998
ag999
ag1306
ag1002
ag1003
ag1004
ag1005
ag1006
ag1007
ag1008
ag1009
ag1307
ag1012
ag1013
ag1014
ag1015
ag1016
ag1308
ag1020
ag1021
ag1309
ag1024
ag1025
ag1026
ag1027
ag1028
ag1029
ag1310
ag1032
ag1033
ag1035
ag1036
ag1037
ag1038
ag1039
ag1040
ag1041
ag1311
ag1044
ag1045
ag1046
ag1047
ag1048
ag1312
ag1051
ag1313
ag1054
ag1055
ag1056
ag1314
ag1060
ag1061
ag1315
ag1064
ag1065
ag1066
ag1067
ag1068
ag1316
a(lp1445
I415
ag1431
aag1317
ag1071
ag1072
ag1073
ag1074
ag1075
ag1076
ag1318
ag1079
ag1080
ag1081
ag1082
ag1083
ag1084
ag1085
ag1086
ag1319
ag1090
ag1091
ag1320
ag1095
ag1096
ag1097
ag1321
ag1100
ag1101
ag1102
ag1322
ag1106
ag1107
ag1108
ag1109
ag1323
ag1112
ag1113
ag1114
ag1324
ag1118
ag1119
ag1120
ag1121
ag1122
ag1325
ag1126
ag1127
ag1128
ag1129
ag1326
ag1132
ag1133
ag1134
ag1135
ag1136
ag1137
ag1327
ag1140
ag1141
ag1142
ag1143
ag1144
ag1145
ag1146
ag1328
ag1150
ag1151
ag1152
ag1329
ag1156
ag1157
ag1330
ag1161
ag1162
ag1331
ag1166
ag1167
a(lp1446
I491
ag1431
aag1332
ag1170
ag1171
ag1172
ag1173
ag1174
ag1175
ag1333
ag1179
ag1180
ag1181
ag1182
ag1334
ag1185
ag1186
ag1187
ag1188
ag1189
ag1190
a(lp1447
I511
aS"'"
p1448
aag1191
ag1335
ag1194
ag1195
ag1196
ag1197
ag1336
ag1200
ag1201
ag1202
ag1203
ag1204
ag1205
ag1206
ag1207
ag1208
ag1209
ag1210
ag1211
ag1337
ag1215
ag1216
ag1217
ag1338
ag1221
ag1222
ag1223
ag1224
ag1339
ag1227
ag1228
ag1229
ag1230
ag1340
ag1234
ag1235
ag1341
ag1342
ag1343
ag1344
ag1345
ag1346
ag1347
a(lp1449
I555
ag1431
aasS'docName'
p1450
S'source-document00947.txt'
p1451
sb.