(iModel.Document
Document
p0
(dp1
S'fmap'
p2
(lp3
(lp4
I0
aI5
aS'sliced'
p5
a(lp6
S'*'
p7
ag5
aaa(lp8
I0
aI5
ag5
a(lp9
g7
ag5
aaa(lp10
I0
aI5
ag5
a(lp11
g7
ag5
aaa(lp12
I0
aI5
ag5
a(lp13
g7
ag5
aaa(lp14
I7
aI11
aS'rings'
p15
a(lp16
g5
ag15
aaa(lp17
I7
aI11
ag15
a(lp18
g7
ag15
aaa(lp19
I7
aI11
ag15
a(lp20
g7
ag15
aaa(lp21
I7
aI11
ag15
a(lp22
g7
ag15
aaa(lp23
I16
aI20
aS'fresh'
p24
a(lp25
g15
ag24
aaa(lp26
I16
aI20
ag24
a(lp27
g5
ag24
aaa(lp28
I16
aI20
ag24
a(lp29
g7
ag24
aaa(lp30
I16
aI20
ag24
a(lp31
g7
ag24
aaa(lp32
I22
aI30
aS'pineapple'
p33
a(lp34
g24
ag33
aaa(lp35
I22
aI30
ag33
a(lp36
g15
ag33
aaa(lp37
I22
aI30
ag33
a(lp38
g5
ag33
aaa(lp39
I22
aI30
ag33
a(lp40
g7
ag33
aaa(lp41
I33
aI33
aS'\xa0'
p42
a(lp43
g33
ag42
aaa(lp44
I33
aI33
ag42
a(lp45
g24
ag42
aaa(lp46
I33
aI33
ag42
a(lp47
g15
ag42
aaa(lp48
I33
aI33
ag42
a(lp49
g5
ag42
aaa(lp50
I35
aI40
aS'method'
p51
a(lp52
g42
ag51
aaa(lp53
I35
aI40
ag51
a(lp54
g33
ag51
aaa(lp55
I35
aI40
ag51
a(lp56
g24
ag51
aaa(lp57
I35
aI40
ag51
a(lp58
g15
ag51
aaa(lp59
I43
aI43
ag42
a(lp60
g51
ag42
aaa(lp61
I43
aI43
ag42
a(lp62
g42
ag42
aaa(lp63
I43
aI43
ag42
a(lp64
g33
ag42
aaa(lp65
I43
aI43
ag42
a(lp66
g24
ag42
aaa(lp67
I45
aI45
aS'1'
p68
a(lp69
g42
ag68
aaa(lp70
I45
aI45
ag68
a(lp71
g51
ag68
aaa(lp72
I45
aI45
ag68
a(lp73
g42
ag68
aaa(lp74
I45
aI45
ag68
a(lp75
g33
ag68
aaa(lp76
I53
aI57
aS'small'
p77
a(lp78
g68
ag77
aaa(lp79
I53
aI57
ag77
a(lp80
g42
ag77
aaa(lp81
I53
aI57
ag77
a(lp82
g51
ag77
aaa(lp83
I53
aI57
ag77
a(lp84
g42
ag77
aaa(lp85
I59
aI62
aS'bowl'
p86
a(lp87
g77
ag86
aaa(lp88
I59
aI62
ag86
a(lp89
g68
ag86
aaa(lp90
I59
aI62
ag86
a(lp91
g42
ag86
aaa(lp92
I59
aI62
ag86
a(lp93
g51
ag86
aaa(lp94
I65
aI71
aS'combine'
p95
a(lp96
g86
ag95
aaa(lp97
I65
aI71
ag95
a(lp98
g77
ag95
aaa(lp99
I65
aI71
ag95
a(lp100
g68
ag95
aaa(lp101
I65
aI71
ag95
a(lp102
g42
ag95
aaa(lp103
I77
aI86
aS'mayonnaise'
p104
a(lp105
g95
ag104
aaa(lp106
I77
aI86
ag104
a(lp107
g86
ag104
aaa(lp108
I77
aI86
ag104
a(lp109
g77
ag104
aaa(lp110
I77
aI86
ag104
a(lp111
g68
ag104
aaa(lp112
I89
aI94
aS'orange'
p113
a(lp114
g104
ag113
aaa(lp115
I89
aI94
ag113
a(lp116
g95
ag113
aaa(lp117
I89
aI94
ag113
a(lp118
g86
ag113
aaa(lp119
I89
aI94
ag113
a(lp120
g77
ag113
aaa(lp121
I96
aI100
aS'juice'
p122
a(lp123
g113
ag122
aaa(lp124
I96
aI100
ag122
a(lp125
g104
ag122
aaa(lp126
I96
aI100
ag122
a(lp127
g95
ag122
aaa(lp128
I96
aI100
ag122
a(lp129
g86
ag122
aaa(lp130
I103
aI106
aS'zest'
p131
a(lp132
g122
ag131
aaa(lp133
I103
aI106
ag131
a(lp134
g113
ag131
aaa(lp135
I103
aI106
ag131
a(lp136
g104
ag131
aaa(lp137
I103
aI106
ag131
a(lp138
g95
ag131
aaa(lp139
I113
aI118
aS'garlic'
p140
a(lp141
g131
ag140
aaa(lp142
I113
aI118
ag140
a(lp143
g122
ag140
aaa(lp144
I113
aI118
ag140
a(lp145
g113
ag140
aaa(lp146
I113
aI118
ag140
a(lp147
g104
ag140
aaa(lp148
I121
aI125
aS'chill'
p149
a(lp150
g140
ag149
aaa(lp151
I121
aI125
ag149
a(lp152
g131
ag149
aaa(lp153
I121
aI125
ag149
a(lp154
g122
ag149
aaa(lp155
I121
aI125
ag149
a(lp156
g113
ag149
aaa(lp157
I133
aI142
aS'readymake'
p158
a(lp159
g149
ag158
aaa(lp160
I133
aI142
ag158
a(lp161
g140
ag158
aaa(lp162
I133
aI142
ag158
a(lp163
g131
ag158
aaa(lp164
I133
aI142
ag158
a(lp165
g122
ag158
aaa(lp166
I148
aI160
aS'orangegarlic'
p167
a(lp168
g158
ag167
aaa(lp169
I148
aI160
ag167
a(lp170
g149
ag167
aaa(lp171
I148
aI160
ag167
a(lp172
g140
ag167
aaa(lp173
I148
aI160
ag167
a(lp174
g131
ag167
aaa(lp175
I162
aI166
aS'aioli'
p176
a(lp177
g167
ag176
aaa(lp178
I162
aI166
ag176
a(lp179
g158
ag176
aaa(lp180
I162
aI166
ag176
a(lp181
g149
ag176
aaa(lp182
I162
aI166
ag176
a(lp183
g140
ag176
aaa(lp184
I168
aI168
ag68
a(lp185
g176
ag68
aaa(lp186
I168
aI168
ag68
a(lp187
g167
ag68
aaa(lp188
I168
aI168
ag68
a(lp189
g158
ag68
aaa(lp190
I168
aI168
ag68
a(lp191
g149
ag68
aaa(lp192
I171
aI177
aS'prepare'
p193
a(lp194
g68
ag193
aaa(lp195
I171
aI177
ag193
a(lp196
g176
ag193
aaa(lp197
I171
aI177
ag193
a(lp198
g167
ag193
aaa(lp199
I171
aI177
ag193
a(lp200
g158
ag193
aaa(lp201
I181
aI183
aS'gas'
p202
a(lp203
g193
ag202
aaa(lp204
I181
aI183
ag202
a(lp205
g68
ag202
aaa(lp206
I181
aI183
ag202
a(lp207
g176
ag202
aaa(lp208
I181
aI183
ag202
a(lp209
g167
ag202
aaa(lp210
I188
aI195
aS'charcoal'
p211
a(lp212
g202
ag211
aaa(lp213
I188
aI195
ag211
a(lp214
g193
ag211
aaa(lp215
I188
aI195
ag211
a(lp216
g68
ag211
aaa(lp217
I188
aI195
ag211
a(lp218
g176
ag211
aaa(lp219
I197
aI201
aS'grill'
p220
a(lp221
g211
ag220
aaa(lp222
I197
aI201
ag220
a(lp223
g202
ag220
aaa(lp224
I197
aI201
ag220
a(lp225
g193
ag220
aaa(lp226
I197
aI201
ag220
a(lp227
g68
ag220
aaa(lp228
I207
aI214
aS'moderate'
p229
a(lp230
g220
ag229
aaa(lp231
I207
aI214
ag229
a(lp232
g211
ag229
aaa(lp233
I207
aI214
ag229
a(lp234
g202
ag229
aaa(lp235
I207
aI214
ag229
a(lp236
g193
ag229
aaa(lp237
I216
aI221
aS'direct'
p238
a(lp239
g229
ag238
aaa(lp240
I216
aI221
ag238
a(lp241
g220
ag238
aaa(lp242
I216
aI221
ag238
a(lp243
g211
ag238
aaa(lp244
I216
aI221
ag238
a(lp245
g202
ag238
aaa(lp246
I223
aI226
aS'heat'
p247
a(lp248
g238
ag247
aaa(lp249
I223
aI226
ag247
a(lp250
g229
ag247
aaa(lp251
I223
aI226
ag247
a(lp252
g220
ag247
aaa(lp253
I223
aI226
ag247
a(lp254
g211
ag247
aaa(lp255
I228
aI234
aS'cooking'
p256
a(lp257
g247
ag256
aaa(lp258
I228
aI234
ag256
a(lp259
g238
ag256
aaa(lp260
I228
aI234
ag256
a(lp261
g229
ag256
aaa(lp262
I228
aI234
ag256
a(lp263
g220
ag256
aaa(lp264
I242
aI246
aS'small'
p265
a(lp266
g256
ag265
aaa(lp267
I242
aI246
ag265
a(lp268
g247
ag265
aaa(lp269
I242
aI246
ag265
a(lp270
g238
ag265
aaa(lp271
I242
aI246
ag265
a(lp272
g229
ag265
aaa(lp273
I248
aI253
aS'frying'
p274
a(lp275
g265
ag274
aaa(lp276
I248
aI253
ag274
a(lp277
g256
ag274
aaa(lp278
I248
aI253
ag274
a(lp279
g247
ag274
aaa(lp280
I248
aI253
ag274
a(lp281
g238
ag274
aaa(lp282
I255
aI257
aS'pan'
p283
a(lp284
g274
ag283
aaa(lp285
I255
aI257
ag283
a(lp286
g265
ag283
aaa(lp287
I255
aI257
ag283
a(lp288
g256
ag283
aaa(lp289
I255
aI257
ag283
a(lp290
g247
ag283
aaa(lp291
I260
aI263
aS'heat'
p292
a(lp293
g283
ag292
aaa(lp294
I260
aI263
ag292
a(lp295
g274
ag292
aaa(lp296
I260
aI263
ag292
a(lp297
g265
ag292
aaa(lp298
I260
aI263
ag292
a(lp299
g256
ag292
aaa(lp300
I269
aI273
aS'olive'
p301
a(lp302
g292
ag301
aaa(lp303
I269
aI273
ag301
a(lp304
g283
ag301
aaa(lp305
I269
aI273
ag301
a(lp306
g274
ag301
aaa(lp307
I269
aI273
ag301
a(lp308
g265
ag301
aaa(lp309
I275
aI277
aS'oil'
p310
a(lp311
g301
ag310
aaa(lp312
I275
aI277
ag310
a(lp313
g292
ag310
aaa(lp314
I275
aI277
ag310
a(lp315
g283
ag310
aaa(lp316
I275
aI277
ag310
a(lp317
g274
ag310
aaa(lp318
I284
aI289
aS'medium'
p319
a(lp320
g310
ag319
aaa(lp321
I284
aI289
ag319
a(lp322
g301
ag319
aaa(lp323
I284
aI289
ag319
a(lp324
g292
ag319
aaa(lp325
I284
aI289
ag319
a(lp326
g283
ag319
aaa(lp327
I291
aI294
aS'heat'
p328
a(lp329
g319
ag328
aaa(lp330
I291
aI294
ag328
a(lp331
g310
ag328
aaa(lp332
I291
aI294
ag328
a(lp333
g301
ag328
aaa(lp334
I291
aI294
ag328
a(lp335
g292
ag328
aaa(lp336
I300
aI306
aS'sautthe'
p337
a(lp338
g328
ag337
aaa(lp339
I300
aI306
ag337
a(lp340
g319
ag337
aaa(lp341
I300
aI306
ag337
a(lp342
g310
ag337
aaa(lp343
I300
aI306
ag337
a(lp344
g301
ag337
aaa(lp345
I308
aI313
aS'ground'
p346
a(lp347
g337
ag346
aaa(lp348
I308
aI313
ag346
a(lp349
g328
ag346
aaa(lp350
I308
aI313
ag346
a(lp351
g319
ag346
aaa(lp352
I308
aI313
ag346
a(lp353
g310
ag346
aaa(lp354
I315
aI320
aS'chouri'
p355
a(lp356
g346
ag355
aaa(lp357
I315
aI320
ag355
a(lp358
g337
ag355
aaa(lp359
I315
aI320
ag355
a(lp360
g328
ag355
aaa(lp361
I315
aI320
ag355
a(lp362
g319
ag355
aaa(lp363
I325
aI330
aS'lingui'
p364
a(lp365
g355
ag364
aaa(lp366
I325
aI330
ag364
a(lp367
g346
ag364
aaa(lp368
I325
aI330
ag364
a(lp369
g337
ag364
aaa(lp370
I325
aI330
ag364
a(lp371
g328
ag364
aaa(lp372
I338
aI344
aS'lightly'
p373
a(lp374
g364
ag373
aaa(lp375
I338
aI344
ag373
a(lp376
g355
ag373
aaa(lp377
I338
aI344
ag373
a(lp378
g346
ag373
aaa(lp379
I338
aI344
ag373
a(lp380
g337
ag373
aaa(lp381
I346
aI352
aS'browned'
p382
a(lp383
g373
ag382
aaa(lp384
I346
aI352
ag382
a(lp385
g364
ag382
aaa(lp386
I346
aI352
ag382
a(lp387
g355
ag382
aaa(lp388
I346
aI352
ag382
a(lp389
g346
ag382
aaa(lp390
I355
aI357
aS'add'
p391
a(lp392
g382
ag391
aaa(lp393
I355
aI357
ag391
a(lp394
g373
ag391
aaa(lp395
I355
aI357
ag391
a(lp396
g364
ag391
aaa(lp397
I355
aI357
ag391
a(lp398
g355
ag391
aaa(lp399
I363
aI366
aS'wine'
p400
a(lp401
g391
ag400
aaa(lp402
I363
aI366
ag400
a(lp403
g382
ag400
aaa(lp404
I363
aI366
ag400
a(lp405
g373
ag400
aaa(lp406
I363
aI366
ag400
a(lp407
g364
ag400
aaa(lp408
I372
aI377
aS'tomato'
p409
a(lp410
g400
ag409
aaa(lp411
I372
aI377
ag409
a(lp412
g391
ag409
aaa(lp413
I372
aI377
ag409
a(lp414
g382
ag409
aaa(lp415
I372
aI377
ag409
a(lp416
g373
ag409
aaa(lp417
I379
aI383
aS'sauce'
p418
a(lp419
g409
ag418
aaa(lp420
I379
aI383
ag418
a(lp421
g400
ag418
aaa(lp422
I379
aI383
ag418
a(lp423
g391
ag418
aaa(lp424
I379
aI383
ag418
a(lp425
g382
ag418
aaa(lp426
I386
aI391
aS'remove'
p427
a(lp428
g418
ag427
aaa(lp429
I386
aI391
ag427
a(lp430
g409
ag427
aaa(lp431
I386
aI391
ag427
a(lp432
g400
ag427
aaa(lp433
I386
aI391
ag427
a(lp434
g391
ag427
aaa(lp435
I402
aI405
aS'heat'
p436
a(lp437
g427
ag436
aaa(lp438
I402
aI405
ag436
a(lp439
g418
ag436
aaa(lp440
I402
aI405
ag436
a(lp441
g409
ag436
aaa(lp442
I402
aI405
ag436
a(lp443
g400
ag436
aaa(lp444
I411
aI413
aS'let'
p445
a(lp446
g436
ag445
aaa(lp447
I411
aI413
ag445
a(lp448
g427
ag445
aaa(lp449
I411
aI413
ag445
a(lp450
g418
ag445
aaa(lp451
I411
aI413
ag445
a(lp452
g409
ag445
aaa(lp453
I415
aI423
aS'coolmake'
p454
a(lp455
g445
ag454
aaa(lp456
I415
aI423
ag454
a(lp457
g436
ag454
aaa(lp458
I415
aI423
ag454
a(lp459
g427
ag454
aaa(lp460
I415
aI423
ag454
a(lp461
g418
ag454
aaa(lp462
I429
aI435
aS'burgers'
p463
a(lp464
g454
ag463
aaa(lp465
I429
aI435
ag463
a(lp466
g445
ag463
aaa(lp467
I429
aI435
ag463
a(lp468
g436
ag463
aaa(lp469
I429
aI435
ag463
a(lp470
g427
ag463
aaa(lp471
I437
aI437
aS'2'
p472
a(lp473
g463
ag472
aaa(lp474
I437
aI437
ag472
a(lp475
g454
ag472
aaa(lp476
I437
aI437
ag472
a(lp477
g445
ag472
aaa(lp478
I437
aI437
ag472
a(lp479
g436
ag472
aaa(lp480
I445
aI449
aS'large'
p481
a(lp482
g472
ag481
aaa(lp483
I445
aI449
ag481
a(lp484
g463
ag481
aaa(lp485
I445
aI449
ag481
a(lp486
g454
ag481
aaa(lp487
I445
aI449
ag481
a(lp488
g445
ag481
aaa(lp489
I451
aI454
aS'bowl'
p490
a(lp491
g481
ag490
aaa(lp492
I451
aI454
ag490
a(lp493
g472
ag490
aaa(lp494
I451
aI454
ag490
a(lp495
g463
ag490
aaa(lp496
I451
aI454
ag490
a(lp497
g454
ag490
aaa(lp498
I457
aI463
aS'combine'
p499
a(lp500
g490
ag499
aaa(lp501
I457
aI463
ag499
a(lp502
g481
ag499
aaa(lp503
I457
aI463
ag499
a(lp504
g472
ag499
aaa(lp505
I457
aI463
ag499
a(lp506
g463
ag499
aaa(lp507
I469
aI474
aS'cooled'
p508
a(lp509
g499
ag508
aaa(lp510
I469
aI474
ag508
a(lp511
g490
ag508
aaa(lp512
I469
aI474
ag508
a(lp513
g481
ag508
aaa(lp514
I469
aI474
ag508
a(lp515
g472
ag508
aaa(lp516
I476
aI481
aS'chouri'
p517
a(lp518
g508
ag517
aaa(lp519
I476
aI481
ag517
a(lp520
g499
ag517
aaa(lp521
I476
aI481
ag517
a(lp522
g490
ag517
aaa(lp523
I476
aI481
ag517
a(lp524
g481
ag517
aaa(lp525
I491
aI496
aS'ground'
p526
a(lp527
g517
ag526
aaa(lp528
I491
aI496
ag526
a(lp529
g508
ag526
aaa(lp530
I491
aI496
ag526
a(lp531
g499
ag526
aaa(lp532
I491
aI496
ag526
a(lp533
g490
ag526
aaa(lp534
I498
aI504
aS'sirloin'
p535
a(lp536
g526
ag535
aaa(lp537
I498
aI504
ag535
a(lp538
g517
ag535
aaa(lp539
I498
aI504
ag535
a(lp540
g508
ag535
aaa(lp541
I498
aI504
ag535
a(lp542
g499
ag535
aaa(lp543
I507
aI510
aS'form'
p544
a(lp545
g535
ag544
aaa(lp546
I507
aI510
ag544
a(lp547
g526
ag544
aaa(lp548
I507
aI510
ag544
a(lp549
g517
ag544
aaa(lp550
I507
aI510
ag544
a(lp551
g508
ag544
aaa(lp552
I517
aI517
aS'4'
p553
a(lp554
g544
ag553
aaa(lp555
I517
aI517
ag553
a(lp556
g535
ag553
aaa(lp557
I517
aI517
ag553
a(lp558
g526
ag553
aaa(lp559
I517
aI517
ag553
a(lp560
g517
ag553
aaa(lp561
I519
aI525
aS'patties'
p562
a(lp563
g553
ag562
aaa(lp564
I519
aI525
ag562
a(lp565
g544
ag562
aaa(lp566
I519
aI525
ag562
a(lp567
g535
ag562
aaa(lp568
I519
aI525
ag562
a(lp569
g526
ag562
aaa(lp570
I528
aI528
aS'3'
p571
a(lp572
g562
ag571
aaa(lp573
I528
aI528
ag571
a(lp574
g553
ag571
aaa(lp575
I528
aI528
ag571
a(lp576
g544
ag571
aaa(lp577
I528
aI528
ag571
a(lp578
g535
ag571
aaa(lp579
I540
aI543
aS'fire'
p580
a(lp581
g571
ag580
aaa(lp582
I540
aI543
ag580
a(lp583
g562
ag580
aaa(lp584
I540
aI543
ag580
a(lp585
g553
ag580
aaa(lp586
I540
aI543
ag580
a(lp587
g544
ag580
aaa(lp588
I548
aI552
aS'ready'
p589
a(lp590
g580
ag589
aaa(lp591
I548
aI552
ag589
a(lp592
g571
ag589
aaa(lp593
I548
aI552
ag589
a(lp594
g562
ag589
aaa(lp595
I548
aI552
ag589
a(lp596
g553
ag589
aaa(lp597
I555
aI559
aS'brush'
p598
a(lp599
g589
ag598
aaa(lp600
I555
aI559
ag598
a(lp601
g580
ag598
aaa(lp602
I555
aI559
ag598
a(lp603
g571
ag598
aaa(lp604
I555
aI559
ag598
a(lp605
g562
ag598
aaa(lp606
I565
aI569
aS'grill'
p607
a(lp608
g598
ag607
aaa(lp609
I565
aI569
ag607
a(lp610
g589
ag607
aaa(lp611
I565
aI569
ag607
a(lp612
g580
ag607
aaa(lp613
I565
aI569
ag607
a(lp614
g571
ag607
aaa(lp615
I571
aI574
aS'rack'
p616
a(lp617
g607
ag616
aaa(lp618
I571
aI574
ag616
a(lp619
g598
ag616
aaa(lp620
I571
aI574
ag616
a(lp621
g589
ag616
aaa(lp622
I571
aI574
ag616
a(lp623
g580
ag616
aaa(lp624
I581
aI583
aS'oil'
p625
a(lp626
g616
ag625
aaa(lp627
I581
aI583
ag625
a(lp628
g607
ag625
aaa(lp629
I581
aI583
ag625
a(lp630
g598
ag625
aaa(lp631
I581
aI583
ag625
a(lp632
g589
ag625
aaa(lp633
I586
aI590
aS'grill'
p634
a(lp635
g625
ag634
aaa(lp636
I586
aI590
ag634
a(lp637
g616
ag634
aaa(lp638
I586
aI590
ag634
a(lp639
g607
ag634
aaa(lp640
I586
aI590
ag634
a(lp641
g598
ag634
aaa(lp642
I596
aI602
aS'patties'
p643
a(lp644
g634
ag643
aaa(lp645
I596
aI602
ag643
a(lp646
g625
ag643
aaa(lp647
I596
aI602
ag643
a(lp648
g616
ag643
aaa(lp649
I596
aI602
ag643
a(lp650
g607
ag643
aaa(lp651
I610
aI616
aS'desired'
p652
a(lp653
g643
ag652
aaa(lp654
I610
aI616
ag652
a(lp655
g634
ag652
aaa(lp656
I610
aI616
ag652
a(lp657
g625
ag652
aaa(lp658
I610
aI616
ag652
a(lp659
g616
ag652
aaa(lp660
I618
aI625
aS'doneness'
p661
a(lp662
g652
ag661
aaa(lp663
I618
aI625
ag661
a(lp664
g643
ag661
aaa(lp665
I618
aI625
ag661
a(lp666
g634
ag661
aaa(lp667
I618
aI625
ag661
a(lp668
g625
ag661
aaa(lp669
I628
aI634
aS'turning'
p670
a(lp671
g661
ag670
aaa(lp672
I628
aI634
ag670
a(lp673
g652
ag670
aaa(lp674
I628
aI634
ag670
a(lp675
g643
ag670
aaa(lp676
I628
aI634
ag670
a(lp677
g634
ag670
aaa(lp678
I642
aI642
ag553
a(lp679
g670
ag553
aaa(lp680
I642
aI642
ag553
a(lp681
g661
ag553
aaa(lp682
I642
aI642
ag553
a(lp683
g652
ag553
aaa(lp684
I642
aI642
ag553
a(lp685
g643
ag553
aaa(lp686
I647
aI647
aS'5'
p687
a(lp688
g553
ag687
aaa(lp689
I647
aI647
ag687
a(lp690
g670
ag687
aaa(lp691
I647
aI647
ag687
a(lp692
g661
ag687
aaa(lp693
I647
aI647
ag687
a(lp694
g652
ag687
aaa(lp695
I649
aI655
aS'minutes'
p696
a(lp697
g687
ag696
aaa(lp698
I649
aI655
ag696
a(lp699
g553
ag696
aaa(lp700
I649
aI655
ag696
a(lp701
g670
ag696
aaa(lp702
I649
aI655
ag696
a(lp703
g661
ag696
aaa(lp704
I657
aI659
aS'per'
p705
a(lp706
g696
ag705
aaa(lp707
I657
aI659
ag705
a(lp708
g687
ag705
aaa(lp709
I657
aI659
ag705
a(lp710
g553
ag705
aaa(lp711
I657
aI659
ag705
a(lp712
g670
ag705
aaa(lp713
I661
aI664
aS'side'
p714
a(lp715
g705
ag714
aaa(lp716
I661
aI664
ag714
a(lp717
g696
ag714
aaa(lp718
I661
aI664
ag714
a(lp719
g687
ag714
aaa(lp720
I661
aI664
ag714
a(lp721
g553
ag714
aaa(lp722
I670
aI680
aS'mediumrare'
p723
a(lp724
g714
ag723
aaa(lp725
I670
aI680
ag723
a(lp726
g705
ag723
aaa(lp727
I670
aI680
ag723
a(lp728
g696
ag723
aaa(lp729
I670
aI680
ag723
a(lp730
g687
ag723
aaa(lp731
I683
aI683
aS'6'
p732
a(lp733
g723
ag732
aaa(lp734
I683
aI683
ag732
a(lp735
g714
ag732
aaa(lp736
I683
aI683
ag732
a(lp737
g705
ag732
aaa(lp738
I683
aI683
ag732
a(lp739
g696
ag732
aaa(lp740
I688
aI688
aS'8'
p741
a(lp742
g732
ag741
aaa(lp743
I688
aI688
ag741
a(lp744
g723
ag741
aaa(lp745
I688
aI688
ag741
a(lp746
g714
ag741
aaa(lp747
I688
aI688
ag741
a(lp748
g705
ag741
aaa(lp749
I690
aI696
aS'minutes'
p750
a(lp751
g741
ag750
aaa(lp752
I690
aI696
ag750
a(lp753
g732
ag750
aaa(lp754
I690
aI696
ag750
a(lp755
g723
ag750
aaa(lp756
I690
aI696
ag750
a(lp757
g714
ag750
aaa(lp758
I698
aI700
aS'per'
p759
a(lp760
g750
ag759
aaa(lp761
I698
aI700
ag759
a(lp762
g741
ag759
aaa(lp763
I698
aI700
ag759
a(lp764
g732
ag759
aaa(lp765
I698
aI700
ag759
a(lp766
g723
ag759
aaa(lp767
I702
aI705
aS'side'
p768
a(lp769
g759
ag768
aaa(lp770
I702
aI705
ag768
a(lp771
g750
ag768
aaa(lp772
I702
aI705
ag768
a(lp773
g741
ag768
aaa(lp774
I702
aI705
ag768
a(lp775
g732
ag768
aaa(lp776
I711
aI716
aS'medium'
p777
a(lp778
g768
ag777
aaa(lp779
I711
aI716
ag777
a(lp780
g759
ag777
aaa(lp781
I711
aI716
ag777
a(lp782
g750
ag777
aaa(lp783
I711
aI716
ag777
a(lp784
g741
ag777
aaa(lp785
I730
aI733
aS'last'
p786
a(lp787
g777
ag786
aaa(lp788
I730
aI733
ag786
a(lp789
g768
ag786
aaa(lp790
I730
aI733
ag786
a(lp791
g759
ag786
aaa(lp792
I730
aI733
ag786
a(lp793
g750
ag786
aaa(lp794
I739
aI745
aS'minutes'
p795
a(lp796
g786
ag795
aaa(lp797
I739
aI745
ag795
a(lp798
g777
ag795
aaa(lp799
I739
aI745
ag795
a(lp800
g768
ag795
aaa(lp801
I739
aI745
ag795
a(lp802
g759
ag795
aaa(lp803
I750
aI756
aS'cooking'
p804
a(lp805
g795
ag804
aaa(lp806
I750
aI756
ag804
a(lp807
g786
ag804
aaa(lp808
I750
aI756
ag804
a(lp809
g777
ag804
aaa(lp810
I750
aI756
ag804
a(lp811
g768
ag804
aaa(lp812
I759
aI763
aS'place'
p813
a(lp814
g804
ag813
aaa(lp815
I759
aI763
ag813
a(lp816
g795
ag813
aaa(lp817
I759
aI763
ag813
a(lp818
g786
ag813
aaa(lp819
I759
aI763
ag813
a(lp820
g777
ag813
aaa(lp821
I769
aI773
aS'rolls'
p822
a(lp823
g813
ag822
aaa(lp824
I769
aI773
ag822
a(lp825
g804
ag822
aaa(lp826
I769
aI773
ag822
a(lp827
g795
ag822
aaa(lp828
I769
aI773
ag822
a(lp829
g786
ag822
aaa(lp830
I775
aI777
aS'cut'
p831
a(lp832
g822
ag831
aaa(lp833
I775
aI777
ag831
a(lp834
g813
ag831
aaa(lp835
I775
aI777
ag831
a(lp836
g804
ag831
aaa(lp837
I775
aI777
ag831
a(lp838
g795
ag831
aaa(lp839
I779
aI782
aS'side'
p840
a(lp841
g831
ag840
aaa(lp842
I779
aI782
ag840
a(lp843
g822
ag840
aaa(lp844
I779
aI782
ag840
a(lp845
g813
ag840
aaa(lp846
I779
aI782
ag840
a(lp847
g804
ag840
aaa(lp848
I797
aI801
aS'outer'
p849
a(lp850
g840
ag849
aaa(lp851
I797
aI801
ag849
a(lp852
g831
ag849
aaa(lp853
I797
aI801
ag849
a(lp854
g822
ag849
aaa(lp855
I797
aI801
ag849
a(lp856
g813
ag849
aaa(lp857
I803
aI807
aS'edges'
p858
a(lp859
g849
ag858
aaa(lp860
I803
aI807
ag858
a(lp861
g840
ag858
aaa(lp862
I803
aI807
ag858
a(lp863
g831
ag858
aaa(lp864
I803
aI807
ag858
a(lp865
g822
ag858
aaa(lp866
I816
aI820
aS'grill'
p867
a(lp868
g858
ag867
aaa(lp869
I816
aI820
ag867
a(lp870
g849
ag867
aaa(lp871
I816
aI820
ag867
a(lp872
g840
ag867
aaa(lp873
I816
aI820
ag867
a(lp874
g831
ag867
aaa(lp875
I828
aI834
aS'lightly'
p876
a(lp877
g867
ag876
aaa(lp878
I828
aI834
ag876
a(lp879
g858
ag876
aaa(lp880
I828
aI834
ag876
a(lp881
g849
ag876
aaa(lp882
I828
aI834
ag876
a(lp883
g840
ag876
aaa(lp884
I836
aI842
aS'toasted'
p885
a(lp886
g876
ag885
aaa(lp887
I836
aI842
ag885
a(lp888
g867
ag885
aaa(lp889
I836
aI842
ag885
a(lp890
g858
ag885
aaa(lp891
I836
aI842
ag885
a(lp892
g849
ag885
aaa(lp893
I845
aI845
ag553
a(lp894
g885
ag553
aaa(lp895
I845
aI845
ag553
a(lp896
g876
ag553
aaa(lp897
I845
aI845
ag553
a(lp898
g867
ag553
aaa(lp899
I845
aI845
ag553
a(lp900
g858
ag553
aaa(lp901
I848
aI853
aS'spread'
p902
a(lp903
g553
ag902
aaa(lp904
I848
aI853
ag902
a(lp905
g885
ag902
aaa(lp906
I848
aI853
ag902
a(lp907
g876
ag902
aaa(lp908
I848
aI853
ag902
a(lp909
g867
ag902
aaa(lp910
I859
aI864
aS'orange'
p911
a(lp912
g902
ag911
aaa(lp913
I859
aI864
ag911
a(lp914
g553
ag911
aaa(lp915
I859
aI864
ag911
a(lp916
g885
ag911
aaa(lp917
I859
aI864
ag911
a(lp918
g876
ag911
aaa(lp919
I866
aI868
aS'ali'
p920
a(lp921
g911
ag920
aaa(lp922
I866
aI868
ag920
a(lp923
g902
ag920
aaa(lp924
I866
aI868
ag920
a(lp925
g553
ag920
aaa(lp926
I866
aI868
ag920
a(lp927
g885
ag920
aaa(lp928
I877
aI881
aS'rolls'
p929
a(lp930
g920
ag929
aaa(lp931
I877
aI881
ag929
a(lp932
g911
ag929
aaa(lp933
I877
aI881
ag929
a(lp934
g902
ag929
aaa(lp935
I877
aI881
ag929
a(lp936
g553
ag929
aaa(lp937
I884
aI888
aS'cover'
p938
a(lp939
g929
ag938
aaa(lp940
I884
aI888
ag938
a(lp941
g920
ag938
aaa(lp942
I884
aI888
ag938
a(lp943
g911
ag938
aaa(lp944
I884
aI888
ag938
a(lp945
g902
ag938
aaa(lp946
I895
aI898
aS'roll'
p947
a(lp948
g938
ag947
aaa(lp949
I895
aI898
ag947
a(lp950
g929
ag947
aaa(lp951
I895
aI898
ag947
a(lp952
g920
ag947
aaa(lp953
I895
aI898
ag947
a(lp954
g911
ag947
aaa(lp955
I900
aI905
aS'bottom'
p956
a(lp957
g947
ag956
aaa(lp958
I900
aI905
ag956
a(lp959
g938
ag956
aaa(lp960
I900
aI905
ag956
a(lp961
g929
ag956
aaa(lp962
I900
aI905
ag956
a(lp963
g920
ag956
aaa(lp964
I914
aI916
aS'bed'
p965
a(lp966
g956
ag965
aaa(lp967
I914
aI916
ag965
a(lp968
g947
ag965
aaa(lp969
I914
aI916
ag965
a(lp970
g938
ag965
aaa(lp971
I914
aI916
ag965
a(lp972
g929
ag965
aaa(lp973
I921
aI928
aS'cilantro'
p974
a(lp975
g965
ag974
aaa(lp976
I921
aI928
ag974
a(lp977
g956
ag974
aaa(lp978
I921
aI928
ag974
a(lp979
g947
ag974
aaa(lp980
I921
aI928
ag974
a(lp981
g938
ag974
aaa(lp982
I930
aI935
aS'leaves'
p983
a(lp984
g974
ag983
aaa(lp985
I930
aI935
ag983
a(lp986
g965
ag983
aaa(lp987
I930
aI935
ag983
a(lp988
g956
ag983
aaa(lp989
I930
aI935
ag983
a(lp990
g947
ag983
aaa(lp991
I943
aI945
aS'top'
p992
a(lp993
g983
ag992
aaa(lp994
I943
aI945
ag992
a(lp995
g974
ag992
aaa(lp996
I943
aI945
ag992
a(lp997
g965
ag992
aaa(lp998
I943
aI945
ag992
a(lp999
g956
ag992
aaa(lp1000
I954
aI959
aS'burger'
p1001
a(lp1002
g992
ag1001
aaa(lp1003
I954
aI959
ag1001
a(lp1004
g983
ag1001
aaa(lp1005
I954
aI959
ag1001
a(lp1006
g974
ag1001
aaa(lp1007
I954
aI959
ag1001
a(lp1008
g965
ag1001
aaa(lp1009
I967
aI975
aS'pineapple'
p1010
a(lp1011
g1001
ag1010
aaa(lp1012
I967
aI975
ag1010
a(lp1013
g992
ag1010
aaa(lp1014
I967
aI975
ag1010
a(lp1015
g983
ag1010
aaa(lp1016
I967
aI975
ag1010
a(lp1017
g974
ag1010
aaa(lp1018
I977
aI980
aS'ring'
p1019
a(lp1020
g1010
ag1019
aaa(lp1021
I977
aI980
ag1019
a(lp1022
g1001
ag1019
aaa(lp1023
I977
aI980
ag1019
a(lp1024
g992
ag1019
aaa(lp1025
I977
aI980
ag1019
a(lp1026
g983
ag1019
aaa(lp1027
I983
aI987
aS'serve'
p1028
a(lp1029
g1019
ag1028
aaa(lp1030
I983
aI987
ag1028
a(lp1031
g1010
ag1028
aaa(lp1032
I983
aI987
ag1028
a(lp1033
g1001
ag1028
aaa(lp1034
I983
aI987
ag1028
a(lp1035
g992
ag1028
aaa(lp1036
I989
aI999
aS'immediately'
p1037
a(lp1038
g1028
ag1037
aaa(lp1039
I989
aI999
ag1037
a(lp1040
g1019
ag1037
aaa(lp1041
I989
aI999
ag1037
a(lp1042
g1010
ag1037
aaa(lp1043
I989
aI999
ag1037
a(lp1044
g1001
ag1037
aaasS'wordMap'
p1045
(lp1046
(lp1047
I0
aI5
ag5
a(lp1048
(lp1049
I0
aS's'
p1050
aa(lp1051
I1
aS'l'
p1052
aa(lp1053
I2
aS'i'
p1054
aa(lp1055
I3
aS'c'
p1056
aa(lp1057
I4
aS'e'
p1058
aa(lp1059
I5
aS'd'
p1060
aaaa(lp1061
I7
aI11
ag15
a(lp1062
(lp1063
I7
aS'r'
p1064
aa(lp1065
I8
ag1054
aa(lp1066
I9
aS'n'
p1067
aa(lp1068
I10
aS'g'
p1069
aa(lp1070
I11
ag1050
aaaa(lp1071
I13
aI14
aS'of'
p1072
a(lp1073
(lp1074
I13
aS'o'
p1075
aa(lp1076
I14
aS'f'
p1077
aaaa(lp1078
I16
aI20
ag24
a(lp1079
(lp1080
I16
ag1077
aa(lp1081
I17
ag1064
aa(lp1082
I18
ag1058
aa(lp1083
I19
ag1050
aa(lp1084
I20
aS'h'
p1085
aaaa(lp1086
I22
aI30
ag33
a(lp1087
(lp1088
I22
aS'p'
p1089
aa(lp1090
I23
ag1054
aa(lp1091
I24
ag1067
aa(lp1092
I25
ag1058
aa(lp1093
I26
aS'a'
p1094
aa(lp1095
I27
ag1089
aa(lp1096
I28
ag1089
aa(lp1097
I29
ag1052
aa(lp1098
I30
ag1058
aaaa(lp1099
I33
aI33
ag42
a(lp1100
(lp1101
I33
ag42
aaaa(lp1102
I35
aI40
ag51
a(lp1103
(lp1104
I35
aS'm'
p1105
aa(lp1106
I36
ag1058
aa(lp1107
I37
aS't'
p1108
aa(lp1109
I38
ag1085
aa(lp1110
I39
ag1075
aa(lp1111
I40
ag1060
aaaa(lp1112
I43
aI43
ag42
a(lp1113
(lp1114
I43
ag42
aaaa(lp1115
I45
aI45
ag68
a(lp1116
(lp1117
I45
ag68
aaaa(lp1118
I48
aI49
aS'in'
p1119
a(lp1120
(lp1121
I48
ag1054
aa(lp1122
I49
ag1067
aaaa(lp1123
I51
aI51
ag1094
a(lp1124
(lp1125
I51
ag1094
aaaa(lp1126
I53
aI57
ag77
a(lp1127
(lp1128
I53
ag1050
aa(lp1129
I54
ag1105
aa(lp1130
I55
ag1094
aa(lp1131
I56
ag1052
aa(lp1132
I57
ag1052
aaaa(lp1133
I59
aI62
ag86
a(lp1134
(lp1135
I59
aS'b'
p1136
aa(lp1137
I60
ag1075
aa(lp1138
I61
aS'w'
p1139
aa(lp1140
I62
ag1052
aaaa(lp1141
I65
aI71
ag95
a(lp1142
(lp1143
I65
ag1056
aa(lp1144
I66
ag1075
aa(lp1145
I67
ag1105
aa(lp1146
I68
ag1136
aa(lp1147
I69
ag1054
aa(lp1148
I70
ag1067
aa(lp1149
I71
ag1058
aaaa(lp1150
I73
aI75
aS'the'
p1151
a(lp1152
(lp1153
I73
ag1108
aa(lp1154
I74
ag1085
aa(lp1155
I75
ag1058
aaaa(lp1156
I77
aI86
ag104
a(lp1157
(lp1158
I77
ag1105
aa(lp1159
I78
ag1094
aa(lp1160
I79
aS'y'
p1161
aa(lp1162
I80
ag1075
aa(lp1163
I81
ag1067
aa(lp1164
I82
ag1067
aa(lp1165
I83
ag1094
aa(lp1166
I84
ag1054
aa(lp1167
I85
ag1050
aa(lp1168
I86
ag1058
aaaa(lp1169
I89
aI94
ag113
a(lp1170
(lp1171
I89
ag1075
aa(lp1172
I90
ag1064
aa(lp1173
I91
ag1094
aa(lp1174
I92
ag1067
aa(lp1175
I93
ag1069
aa(lp1176
I94
ag1058
aaaa(lp1177
I96
aI100
ag122
a(lp1178
(lp1179
I96
aS'j'
p1180
aa(lp1181
I97
aS'u'
p1182
aa(lp1183
I98
ag1054
aa(lp1184
I99
ag1056
aa(lp1185
I100
ag1058
aaaa(lp1186
I103
aI106
ag131
a(lp1187
(lp1188
I103
aS'z'
p1189
aa(lp1190
I104
ag1058
aa(lp1191
I105
ag1050
aa(lp1192
I106
ag1108
aaaa(lp1193
I109
aI111
aS'and'
p1194
a(lp1195
(lp1196
I109
ag1094
aa(lp1197
I110
ag1067
aa(lp1198
I111
ag1060
aaaa(lp1199
I113
aI118
ag140
a(lp1200
(lp1201
I113
ag1069
aa(lp1202
I114
ag1094
aa(lp1203
I115
ag1064
aa(lp1204
I116
ag1052
aa(lp1205
I117
ag1054
aa(lp1206
I118
ag1056
aaaa(lp1207
I121
aI125
ag149
a(lp1208
(lp1209
I121
ag1056
aa(lp1210
I122
ag1085
aa(lp1211
I123
ag1054
aa(lp1212
I124
ag1052
aa(lp1213
I125
ag1052
aaaa(lp1214
I127
aI131
aS'until'
p1215
a(lp1216
(lp1217
I127
ag1182
aa(lp1218
I128
ag1067
aa(lp1219
I129
ag1108
aa(lp1220
I130
ag1054
aa(lp1221
I131
ag1052
aaaa(lp1222
I133
aI142
ag158
a(lp1223
(lp1224
I133
ag1064
aa(lp1225
I134
ag1058
aa(lp1226
I135
ag1094
aa(lp1227
I136
ag1060
aa(lp1228
I137
ag1161
aa(lp1229
I139
ag1105
aa(lp1230
I140
ag1094
aa(lp1231
I141
aS'k'
p1232
aa(lp1233
I142
ag1058
aaaa(lp1234
I144
aI146
aS'the'
p1235
a(lp1236
(lp1237
I144
ag1108
aa(lp1238
I145
ag1085
aa(lp1239
I146
ag1058
aaaa(lp1240
I148
aI160
ag167
a(lp1241
(lp1242
I148
ag1075
aa(lp1243
I149
ag1064
aa(lp1244
I150
ag1094
aa(lp1245
I151
ag1067
aa(lp1246
I152
ag1069
aa(lp1247
I153
ag1058
aa(lp1248
I155
ag1069
aa(lp1249
I156
ag1094
aa(lp1250
I157
ag1064
aa(lp1251
I158
ag1052
aa(lp1252
I159
ag1054
aa(lp1253
I160
ag1056
aaaa(lp1254
I162
aI166
ag176
a(lp1255
(lp1256
I162
ag1094
aa(lp1257
I163
ag1054
aa(lp1258
I164
ag1075
aa(lp1259
I165
ag1052
aa(lp1260
I166
ag1054
aaaa(lp1261
I168
aI168
ag68
a(lp1262
(lp1263
I168
ag68
aaaa(lp1264
I171
aI177
ag193
a(lp1265
(lp1266
I171
ag1089
aa(lp1267
I172
ag1064
aa(lp1268
I173
ag1058
aa(lp1269
I174
ag1089
aa(lp1270
I175
ag1094
aa(lp1271
I176
ag1064
aa(lp1272
I177
ag1058
aaaa(lp1273
I179
aI179
ag1094
a(lp1274
(lp1275
I179
ag1094
aaaa(lp1276
I181
aI183
ag202
a(lp1277
(lp1278
I181
ag1069
aa(lp1279
I182
ag1094
aa(lp1280
I183
ag1050
aaaa(lp1281
I185
aI186
aS'or'
p1282
a(lp1283
(lp1284
I185
ag1075
aa(lp1285
I186
ag1064
aaaa(lp1286
I188
aI195
ag211
a(lp1287
(lp1288
I188
ag1056
aa(lp1289
I189
ag1085
aa(lp1290
I190
ag1094
aa(lp1291
I191
ag1064
aa(lp1292
I192
ag1056
aa(lp1293
I193
ag1075
aa(lp1294
I194
ag1094
aa(lp1295
I195
ag1052
aaaa(lp1296
I197
aI201
ag220
a(lp1297
(lp1298
I197
ag1069
aa(lp1299
I198
ag1064
aa(lp1300
I199
ag1054
aa(lp1301
I200
ag1052
aa(lp1302
I201
ag1052
aaaa(lp1303
I203
aI205
aS'for'
p1304
a(lp1305
(lp1306
I203
ag1077
aa(lp1307
I204
ag1075
aa(lp1308
I205
ag1064
aaaa(lp1309
I207
aI214
ag229
a(lp1310
(lp1311
I207
ag1105
aa(lp1312
I208
ag1075
aa(lp1313
I209
ag1060
aa(lp1314
I210
ag1058
aa(lp1315
I211
ag1064
aa(lp1316
I212
ag1094
aa(lp1317
I213
ag1108
aa(lp1318
I214
ag1058
aaaa(lp1319
I216
aI221
ag238
a(lp1320
(lp1321
I216
ag1060
aa(lp1322
I217
ag1054
aa(lp1323
I218
ag1064
aa(lp1324
I219
ag1058
aa(lp1325
I220
ag1056
aa(lp1326
I221
ag1108
aaaa(lp1327
I223
aI226
ag247
a(lp1328
(lp1329
I223
ag1085
aa(lp1330
I224
ag1058
aa(lp1331
I225
ag1094
aa(lp1332
I226
ag1108
aaaa(lp1333
I228
aI234
ag256
a(lp1334
(lp1335
I228
ag1056
aa(lp1336
I229
ag1075
aa(lp1337
I230
ag1075
aa(lp1338
I231
ag1232
aa(lp1339
I232
ag1054
aa(lp1340
I233
ag1067
aa(lp1341
I234
ag1069
aaaa(lp1342
I237
aI238
aS'in'
p1343
a(lp1344
(lp1345
I237
ag1054
aa(lp1346
I238
ag1067
aaaa(lp1347
I240
aI240
ag1094
a(lp1348
(lp1349
I240
ag1094
aaaa(lp1350
I242
aI246
ag265
a(lp1351
(lp1352
I242
ag1050
aa(lp1353
I243
ag1105
aa(lp1354
I244
ag1094
aa(lp1355
I245
ag1052
aa(lp1356
I246
ag1052
aaaa(lp1357
I248
aI253
ag274
a(lp1358
(lp1359
I248
ag1077
aa(lp1360
I249
ag1064
aa(lp1361
I250
ag1161
aa(lp1362
I251
ag1054
aa(lp1363
I252
ag1067
aa(lp1364
I253
ag1069
aaaa(lp1365
I255
aI257
ag283
a(lp1366
(lp1367
I255
ag1089
aa(lp1368
I256
ag1094
aa(lp1369
I257
ag1067
aaaa(lp1370
I260
aI263
ag292
a(lp1371
(lp1372
I260
ag1085
aa(lp1373
I261
ag1058
aa(lp1374
I262
ag1094
aa(lp1375
I263
ag1108
aaaa(lp1376
I265
aI267
aS'the'
p1377
a(lp1378
(lp1379
I265
ag1108
aa(lp1380
I266
ag1085
aa(lp1381
I267
ag1058
aaaa(lp1382
I269
aI273
ag301
a(lp1383
(lp1384
I269
ag1075
aa(lp1385
I270
ag1052
aa(lp1386
I271
ag1054
aa(lp1387
I272
aS'v'
p1388
aa(lp1389
I273
ag1058
aaaa(lp1390
I275
aI277
ag310
a(lp1391
(lp1392
I275
ag1075
aa(lp1393
I276
ag1054
aa(lp1394
I277
ag1052
aaaa(lp1395
I279
aI282
aS'over'
p1396
a(lp1397
(lp1398
I279
ag1075
aa(lp1399
I280
ag1388
aa(lp1400
I281
ag1058
aa(lp1401
I282
ag1064
aaaa(lp1402
I284
aI289
ag319
a(lp1403
(lp1404
I284
ag1105
aa(lp1405
I285
ag1058
aa(lp1406
I286
ag1060
aa(lp1407
I287
ag1054
aa(lp1408
I288
ag1182
aa(lp1409
I289
ag1105
aaaa(lp1410
I291
aI294
ag328
a(lp1411
(lp1412
I291
ag1085
aa(lp1413
I292
ag1058
aa(lp1414
I293
ag1094
aa(lp1415
I294
ag1108
aaaa(lp1416
I296
aI298
aS'and'
p1417
a(lp1418
(lp1419
I296
ag1094
aa(lp1420
I297
ag1067
aa(lp1421
I298
ag1060
aaaa(lp1422
I300
aI306
ag337
a(lp1423
(lp1424
I300
ag1050
aa(lp1425
I301
ag1094
aa(lp1426
I302
ag1182
aa(lp1427
I303
ag1108
aa(lp1428
I304
ag1108
aa(lp1429
I305
ag1085
aa(lp1430
I306
ag1058
aaaa(lp1431
I308
aI313
ag346
a(lp1432
(lp1433
I308
ag1069
aa(lp1434
I309
ag1064
aa(lp1435
I310
ag1075
aa(lp1436
I311
ag1182
aa(lp1437
I312
ag1067
aa(lp1438
I313
ag1060
aaaa(lp1439
I315
aI320
ag355
a(lp1440
(lp1441
I315
ag1056
aa(lp1442
I316
ag1085
aa(lp1443
I317
ag1075
aa(lp1444
I318
ag1182
aa(lp1445
I319
ag1064
aa(lp1446
I320
ag1054
aaaa(lp1447
I322
aI323
aS'or'
p1448
a(lp1449
(lp1450
I322
ag1075
aa(lp1451
I323
ag1064
aaaa(lp1452
I325
aI330
ag364
a(lp1453
(lp1454
I325
ag1052
aa(lp1455
I326
ag1054
aa(lp1456
I327
ag1067
aa(lp1457
I328
ag1069
aa(lp1458
I329
ag1182
aa(lp1459
I330
ag1054
aaaa(lp1460
I332
aI336
aS'until'
p1461
a(lp1462
(lp1463
I332
ag1182
aa(lp1464
I333
ag1067
aa(lp1465
I334
ag1108
aa(lp1466
I335
ag1054
aa(lp1467
I336
ag1052
aaaa(lp1468
I338
aI344
ag373
a(lp1469
(lp1470
I338
ag1052
aa(lp1471
I339
ag1054
aa(lp1472
I340
ag1069
aa(lp1473
I341
ag1085
aa(lp1474
I342
ag1108
aa(lp1475
I343
ag1052
aa(lp1476
I344
ag1161
aaaa(lp1477
I346
aI352
ag382
a(lp1478
(lp1479
I346
ag1136
aa(lp1480
I347
ag1064
aa(lp1481
I348
ag1075
aa(lp1482
I349
ag1139
aa(lp1483
I350
ag1067
aa(lp1484
I351
ag1058
aa(lp1485
I352
ag1060
aaaa(lp1486
I355
aI357
ag391
a(lp1487
(lp1488
I355
ag1094
aa(lp1489
I356
ag1060
aa(lp1490
I357
ag1060
aaaa(lp1491
I359
aI361
aS'the'
p1492
a(lp1493
(lp1494
I359
ag1108
aa(lp1495
I360
ag1085
aa(lp1496
I361
ag1058
aaaa(lp1497
I363
aI366
ag400
a(lp1498
(lp1499
I363
ag1139
aa(lp1500
I364
ag1054
aa(lp1501
I365
ag1067
aa(lp1502
I366
ag1058
aaaa(lp1503
I368
aI370
aS'and'
p1504
a(lp1505
(lp1506
I368
ag1094
aa(lp1507
I369
ag1067
aa(lp1508
I370
ag1060
aaaa(lp1509
I372
aI377
ag409
a(lp1510
(lp1511
I372
ag1108
aa(lp1512
I373
ag1075
aa(lp1513
I374
ag1105
aa(lp1514
I375
ag1094
aa(lp1515
I376
ag1108
aa(lp1516
I377
ag1075
aaaa(lp1517
I379
aI383
ag418
a(lp1518
(lp1519
I379
ag1050
aa(lp1520
I380
ag1094
aa(lp1521
I381
ag1182
aa(lp1522
I382
ag1056
aa(lp1523
I383
ag1058
aaaa(lp1524
I386
aI391
ag427
a(lp1525
(lp1526
I386
ag1064
aa(lp1527
I387
ag1058
aa(lp1528
I388
ag1105
aa(lp1529
I389
ag1075
aa(lp1530
I390
ag1388
aa(lp1531
I391
ag1058
aaaa(lp1532
I393
aI396
aS'from'
p1533
a(lp1534
(lp1535
I393
ag1077
aa(lp1536
I394
ag1064
aa(lp1537
I395
ag1075
aa(lp1538
I396
ag1105
aaaa(lp1539
I398
aI400
aS'the'
p1540
a(lp1541
(lp1542
I398
ag1108
aa(lp1543
I399
ag1085
aa(lp1544
I400
ag1058
aaaa(lp1545
I402
aI405
ag436
a(lp1546
(lp1547
I402
ag1085
aa(lp1548
I403
ag1058
aa(lp1549
I404
ag1094
aa(lp1550
I405
ag1108
aaaa(lp1551
I407
aI409
aS'and'
p1552
a(lp1553
(lp1554
I407
ag1094
aa(lp1555
I408
ag1067
aa(lp1556
I409
ag1060
aaaa(lp1557
I411
aI413
ag445
a(lp1558
(lp1559
I411
ag1052
aa(lp1560
I412
ag1058
aa(lp1561
I413
ag1108
aaaa(lp1562
I415
aI423
ag454
a(lp1563
(lp1564
I415
ag1056
aa(lp1565
I416
ag1075
aa(lp1566
I417
ag1075
aa(lp1567
I418
ag1052
aa(lp1568
I420
ag1105
aa(lp1569
I421
ag1094
aa(lp1570
I422
ag1232
aa(lp1571
I423
ag1058
aaaa(lp1572
I425
aI427
aS'the'
p1573
a(lp1574
(lp1575
I425
ag1108
aa(lp1576
I426
ag1085
aa(lp1577
I427
ag1058
aaaa(lp1578
I429
aI435
ag463
a(lp1579
(lp1580
I429
ag1136
aa(lp1581
I430
ag1182
aa(lp1582
I431
ag1064
aa(lp1583
I432
ag1069
aa(lp1584
I433
ag1058
aa(lp1585
I434
ag1064
aa(lp1586
I435
ag1050
aaaa(lp1587
I437
aI437
ag472
a(lp1588
(lp1589
I437
ag472
aaaa(lp1590
I440
aI441
aS'in'
p1591
a(lp1592
(lp1593
I440
ag1054
aa(lp1594
I441
ag1067
aaaa(lp1595
I443
aI443
ag1094
a(lp1596
(lp1597
I443
ag1094
aaaa(lp1598
I445
aI449
ag481
a(lp1599
(lp1600
I445
ag1052
aa(lp1601
I446
ag1094
aa(lp1602
I447
ag1064
aa(lp1603
I448
ag1069
aa(lp1604
I449
ag1058
aaaa(lp1605
I451
aI454
ag490
a(lp1606
(lp1607
I451
ag1136
aa(lp1608
I452
ag1075
aa(lp1609
I453
ag1139
aa(lp1610
I454
ag1052
aaaa(lp1611
I457
aI463
ag499
a(lp1612
(lp1613
I457
ag1056
aa(lp1614
I458
ag1075
aa(lp1615
I459
ag1105
aa(lp1616
I460
ag1136
aa(lp1617
I461
ag1054
aa(lp1618
I462
ag1067
aa(lp1619
I463
ag1058
aaaa(lp1620
I465
aI467
aS'the'
p1621
a(lp1622
(lp1623
I465
ag1108
aa(lp1624
I466
ag1085
aa(lp1625
I467
ag1058
aaaa(lp1626
I469
aI474
ag508
a(lp1627
(lp1628
I469
ag1056
aa(lp1629
I470
ag1075
aa(lp1630
I471
ag1075
aa(lp1631
I472
ag1052
aa(lp1632
I473
ag1058
aa(lp1633
I474
ag1060
aaaa(lp1634
I476
aI481
ag517
a(lp1635
(lp1636
I476
ag1056
aa(lp1637
I477
ag1085
aa(lp1638
I478
ag1075
aa(lp1639
I479
ag1182
aa(lp1640
I480
ag1064
aa(lp1641
I481
ag1054
aaaa(lp1642
I483
aI485
aS'and'
p1643
a(lp1644
(lp1645
I483
ag1094
aa(lp1646
I484
ag1067
aa(lp1647
I485
ag1060
aaaa(lp1648
I487
aI489
aS'the'
p1649
a(lp1650
(lp1651
I487
ag1108
aa(lp1652
I488
ag1085
aa(lp1653
I489
ag1058
aaaa(lp1654
I491
aI496
ag526
a(lp1655
(lp1656
I491
ag1069
aa(lp1657
I492
ag1064
aa(lp1658
I493
ag1075
aa(lp1659
I494
ag1182
aa(lp1660
I495
ag1067
aa(lp1661
I496
ag1060
aaaa(lp1662
I498
aI504
ag535
a(lp1663
(lp1664
I498
ag1050
aa(lp1665
I499
ag1054
aa(lp1666
I500
ag1064
aa(lp1667
I501
ag1052
aa(lp1668
I502
ag1075
aa(lp1669
I503
ag1054
aa(lp1670
I504
ag1067
aaaa(lp1671
I507
aI510
ag544
a(lp1672
(lp1673
I507
ag1077
aa(lp1674
I508
ag1075
aa(lp1675
I509
ag1064
aa(lp1676
I510
ag1105
aaaa(lp1677
I512
aI515
aS'into'
p1678
a(lp1679
(lp1680
I512
ag1054
aa(lp1681
I513
ag1067
aa(lp1682
I514
ag1108
aa(lp1683
I515
ag1075
aaaa(lp1684
I517
aI517
ag553
a(lp1685
(lp1686
I517
ag553
aaaa(lp1687
I519
aI525
ag562
a(lp1688
(lp1689
I519
ag1089
aa(lp1690
I520
ag1094
aa(lp1691
I521
ag1108
aa(lp1692
I522
ag1108
aa(lp1693
I523
ag1054
aa(lp1694
I524
ag1058
aa(lp1695
I525
ag1050
aaaa(lp1696
I528
aI528
ag571
a(lp1697
(lp1698
I528
ag571
aaaa(lp1699
I531
aI534
aS'when'
p1700
a(lp1701
(lp1702
I531
ag1139
aa(lp1703
I532
ag1085
aa(lp1704
I533
ag1058
aa(lp1705
I534
ag1067
aaaa(lp1706
I536
aI538
aS'the'
p1707
a(lp1708
(lp1709
I536
ag1108
aa(lp1710
I537
ag1085
aa(lp1711
I538
ag1058
aaaa(lp1712
I540
aI543
ag580
a(lp1713
(lp1714
I540
ag1077
aa(lp1715
I541
ag1054
aa(lp1716
I542
ag1064
aa(lp1717
I543
ag1058
aaaa(lp1718
I545
aI546
aS'is'
p1719
a(lp1720
(lp1721
I545
ag1054
aa(lp1722
I546
ag1050
aaaa(lp1723
I548
aI552
ag589
a(lp1724
(lp1725
I548
ag1064
aa(lp1726
I549
ag1058
aa(lp1727
I550
ag1094
aa(lp1728
I551
ag1060
aa(lp1729
I552
ag1161
aaaa(lp1730
I555
aI559
ag598
a(lp1731
(lp1732
I555
ag1136
aa(lp1733
I556
ag1064
aa(lp1734
I557
ag1182
aa(lp1735
I558
ag1050
aa(lp1736
I559
ag1085
aaaa(lp1737
I561
aI563
aS'the'
p1738
a(lp1739
(lp1740
I561
ag1108
aa(lp1741
I562
ag1085
aa(lp1742
I563
ag1058
aaaa(lp1743
I565
aI569
ag607
a(lp1744
(lp1745
I565
ag1069
aa(lp1746
I566
ag1064
aa(lp1747
I567
ag1054
aa(lp1748
I568
ag1052
aa(lp1749
I569
ag1052
aaaa(lp1750
I571
aI574
ag616
a(lp1751
(lp1752
I571
ag1064
aa(lp1753
I572
ag1094
aa(lp1754
I573
ag1056
aa(lp1755
I574
ag1232
aaaa(lp1756
I576
aI579
aS'with'
p1757
a(lp1758
(lp1759
I576
ag1139
aa(lp1760
I577
ag1054
aa(lp1761
I578
ag1108
aa(lp1762
I579
ag1085
aaaa(lp1763
I581
aI583
ag625
a(lp1764
(lp1765
I581
ag1075
aa(lp1766
I582
ag1054
aa(lp1767
I583
ag1052
aaaa(lp1768
I586
aI590
ag634
a(lp1769
(lp1770
I586
ag1069
aa(lp1771
I587
ag1064
aa(lp1772
I588
ag1054
aa(lp1773
I589
ag1052
aa(lp1774
I590
ag1052
aaaa(lp1775
I592
aI594
aS'the'
p1776
a(lp1777
(lp1778
I592
ag1108
aa(lp1779
I593
ag1085
aa(lp1780
I594
ag1058
aaaa(lp1781
I596
aI602
ag643
a(lp1782
(lp1783
I596
ag1089
aa(lp1784
I597
ag1094
aa(lp1785
I598
ag1108
aa(lp1786
I599
ag1108
aa(lp1787
I600
ag1054
aa(lp1788
I601
ag1058
aa(lp1789
I602
ag1050
aaaa(lp1790
I604
aI608
aS'until'
p1791
a(lp1792
(lp1793
I604
ag1182
aa(lp1794
I605
ag1067
aa(lp1795
I606
ag1108
aa(lp1796
I607
ag1054
aa(lp1797
I608
ag1052
aaaa(lp1798
I610
aI616
ag652
a(lp1799
(lp1800
I610
ag1060
aa(lp1801
I611
ag1058
aa(lp1802
I612
ag1050
aa(lp1803
I613
ag1054
aa(lp1804
I614
ag1064
aa(lp1805
I615
ag1058
aa(lp1806
I616
ag1060
aaaa(lp1807
I618
aI625
ag661
a(lp1808
(lp1809
I618
ag1060
aa(lp1810
I619
ag1075
aa(lp1811
I620
ag1067
aa(lp1812
I621
ag1058
aa(lp1813
I622
ag1067
aa(lp1814
I623
ag1058
aa(lp1815
I624
ag1050
aa(lp1816
I625
ag1050
aaaa(lp1817
I628
aI634
ag670
a(lp1818
(lp1819
I628
ag1108
aa(lp1820
I629
ag1182
aa(lp1821
I630
ag1064
aa(lp1822
I631
ag1067
aa(lp1823
I632
ag1054
aa(lp1824
I633
ag1067
aa(lp1825
I634
ag1069
aaaa(lp1826
I636
aI639
aS'once'
p1827
a(lp1828
(lp1829
I636
ag1075
aa(lp1830
I637
ag1067
aa(lp1831
I638
ag1056
aa(lp1832
I639
ag1058
aaaa(lp1833
I642
aI642
ag553
a(lp1834
(lp1835
I642
ag553
aaaa(lp1836
I644
aI645
aS'to'
p1837
a(lp1838
(lp1839
I644
ag1108
aa(lp1840
I645
ag1075
aaaa(lp1841
I647
aI647
ag687
a(lp1842
(lp1843
I647
ag687
aaaa(lp1844
I649
aI655
ag696
a(lp1845
(lp1846
I649
ag1105
aa(lp1847
I650
ag1054
aa(lp1848
I651
ag1067
aa(lp1849
I652
ag1182
aa(lp1850
I653
ag1108
aa(lp1851
I654
ag1058
aa(lp1852
I655
ag1050
aaaa(lp1853
I657
aI659
ag705
a(lp1854
(lp1855
I657
ag1089
aa(lp1856
I658
ag1058
aa(lp1857
I659
ag1064
aaaa(lp1858
I661
aI664
ag714
a(lp1859
(lp1860
I661
ag1050
aa(lp1861
I662
ag1054
aa(lp1862
I663
ag1060
aa(lp1863
I664
ag1058
aaaa(lp1864
I666
aI668
aS'for'
p1865
a(lp1866
(lp1867
I666
ag1077
aa(lp1868
I667
ag1075
aa(lp1869
I668
ag1064
aaaa(lp1870
I670
aI680
ag723
a(lp1871
(lp1872
I670
ag1105
aa(lp1873
I671
ag1058
aa(lp1874
I672
ag1060
aa(lp1875
I673
ag1054
aa(lp1876
I674
ag1182
aa(lp1877
I675
ag1105
aa(lp1878
I677
ag1064
aa(lp1879
I678
ag1094
aa(lp1880
I679
ag1064
aa(lp1881
I680
ag1058
aaaa(lp1882
I683
aI683
ag732
a(lp1883
(lp1884
I683
ag732
aaaa(lp1885
I685
aI686
aS'to'
p1886
a(lp1887
(lp1888
I685
ag1108
aa(lp1889
I686
ag1075
aaaa(lp1890
I688
aI688
ag741
a(lp1891
(lp1892
I688
ag741
aaaa(lp1893
I690
aI696
ag750
a(lp1894
(lp1895
I690
ag1105
aa(lp1896
I691
ag1054
aa(lp1897
I692
ag1067
aa(lp1898
I693
ag1182
aa(lp1899
I694
ag1108
aa(lp1900
I695
ag1058
aa(lp1901
I696
ag1050
aaaa(lp1902
I698
aI700
ag759
a(lp1903
(lp1904
I698
ag1089
aa(lp1905
I699
ag1058
aa(lp1906
I700
ag1064
aaaa(lp1907
I702
aI705
ag768
a(lp1908
(lp1909
I702
ag1050
aa(lp1910
I703
ag1054
aa(lp1911
I704
ag1060
aa(lp1912
I705
ag1058
aaaa(lp1913
I707
aI709
aS'for'
p1914
a(lp1915
(lp1916
I707
ag1077
aa(lp1917
I708
ag1075
aa(lp1918
I709
ag1064
aaaa(lp1919
I711
aI716
ag777
a(lp1920
(lp1921
I711
ag1105
aa(lp1922
I712
ag1058
aa(lp1923
I713
ag1060
aa(lp1924
I714
ag1054
aa(lp1925
I715
ag1182
aa(lp1926
I716
ag1105
aaaa(lp1927
I719
aI724
aS'during'
p1928
a(lp1929
(lp1930
I719
ag1060
aa(lp1931
I720
ag1182
aa(lp1932
I721
ag1064
aa(lp1933
I722
ag1054
aa(lp1934
I723
ag1067
aa(lp1935
I724
ag1069
aaaa(lp1936
I726
aI728
aS'the'
p1937
a(lp1938
(lp1939
I726
ag1108
aa(lp1940
I727
ag1085
aa(lp1941
I728
ag1058
aaaa(lp1942
I730
aI733
ag786
a(lp1943
(lp1944
I730
ag1052
aa(lp1945
I731
ag1094
aa(lp1946
I732
ag1050
aa(lp1947
I733
ag1108
aaaa(lp1948
I735
aI737
aS'few'
p1949
a(lp1950
(lp1951
I735
ag1077
aa(lp1952
I736
ag1058
aa(lp1953
I737
ag1139
aaaa(lp1954
I739
aI745
ag795
a(lp1955
(lp1956
I739
ag1105
aa(lp1957
I740
ag1054
aa(lp1958
I741
ag1067
aa(lp1959
I742
ag1182
aa(lp1960
I743
ag1108
aa(lp1961
I744
ag1058
aa(lp1962
I745
ag1050
aaaa(lp1963
I747
aI748
aS'of'
p1964
a(lp1965
(lp1966
I747
ag1075
aa(lp1967
I748
ag1077
aaaa(lp1968
I750
aI756
ag804
a(lp1969
(lp1970
I750
ag1056
aa(lp1971
I751
ag1075
aa(lp1972
I752
ag1075
aa(lp1973
I753
ag1232
aa(lp1974
I754
ag1054
aa(lp1975
I755
ag1067
aa(lp1976
I756
ag1069
aaaa(lp1977
I759
aI763
ag813
a(lp1978
(lp1979
I759
ag1089
aa(lp1980
I760
ag1052
aa(lp1981
I761
ag1094
aa(lp1982
I762
ag1056
aa(lp1983
I763
ag1058
aaaa(lp1984
I765
aI767
aS'the'
p1985
a(lp1986
(lp1987
I765
ag1108
aa(lp1988
I766
ag1085
aa(lp1989
I767
ag1058
aaaa(lp1990
I769
aI773
ag822
a(lp1991
(lp1992
I769
ag1064
aa(lp1993
I770
ag1075
aa(lp1994
I771
ag1052
aa(lp1995
I772
ag1052
aa(lp1996
I773
ag1050
aaaa(lp1997
I775
aI777
ag831
a(lp1998
(lp1999
I775
ag1056
aa(lp2000
I776
ag1182
aa(lp2001
I777
ag1108
aaaa(lp2002
I779
aI782
ag840
a(lp2003
(lp2004
I779
ag1050
aa(lp2005
I780
ag1054
aa(lp2006
I781
ag1060
aa(lp2007
I782
ag1058
aaaa(lp2008
I784
aI787
aS'down'
p2009
a(lp2010
(lp2011
I784
ag1060
aa(lp2012
I785
ag1075
aa(lp2013
I786
ag1139
aa(lp2014
I787
ag1067
aaaa(lp2015
I790
aI791
aS'on'
p2016
a(lp2017
(lp2018
I790
ag1075
aa(lp2019
I791
ag1067
aaaa(lp2020
I793
aI795
aS'the'
p2021
a(lp2022
(lp2023
I793
ag1108
aa(lp2024
I794
ag1085
aa(lp2025
I795
ag1058
aaaa(lp2026
I797
aI801
ag849
a(lp2027
(lp2028
I797
ag1075
aa(lp2029
I798
ag1182
aa(lp2030
I799
ag1108
aa(lp2031
I800
ag1058
aa(lp2032
I801
ag1064
aaaa(lp2033
I803
aI807
ag858
a(lp2034
(lp2035
I803
ag1058
aa(lp2036
I804
ag1060
aa(lp2037
I805
ag1069
aa(lp2038
I806
ag1058
aa(lp2039
I807
ag1050
aaaa(lp2040
I809
aI810
aS'of'
p2041
a(lp2042
(lp2043
I809
ag1075
aa(lp2044
I810
ag1077
aaaa(lp2045
I812
aI814
aS'the'
p2046
a(lp2047
(lp2048
I812
ag1108
aa(lp2049
I813
ag1085
aa(lp2050
I814
ag1058
aaaa(lp2051
I816
aI820
ag867
a(lp2052
(lp2053
I816
ag1069
aa(lp2054
I817
ag1064
aa(lp2055
I818
ag1054
aa(lp2056
I819
ag1052
aa(lp2057
I820
ag1052
aaaa(lp2058
I822
aI826
aS'until'
p2059
a(lp2060
(lp2061
I822
ag1182
aa(lp2062
I823
ag1067
aa(lp2063
I824
ag1108
aa(lp2064
I825
ag1054
aa(lp2065
I826
ag1052
aaaa(lp2066
I828
aI834
ag876
a(lp2067
(lp2068
I828
ag1052
aa(lp2069
I829
ag1054
aa(lp2070
I830
ag1069
aa(lp2071
I831
ag1085
aa(lp2072
I832
ag1108
aa(lp2073
I833
ag1052
aa(lp2074
I834
ag1161
aaaa(lp2075
I836
aI842
ag885
a(lp2076
(lp2077
I836
ag1108
aa(lp2078
I837
ag1075
aa(lp2079
I838
ag1094
aa(lp2080
I839
ag1050
aa(lp2081
I840
ag1108
aa(lp2082
I841
ag1058
aa(lp2083
I842
ag1060
aaaa(lp2084
I845
aI845
ag553
a(lp2085
(lp2086
I845
ag553
aaaa(lp2087
I848
aI853
ag902
a(lp2088
(lp2089
I848
ag1050
aa(lp2090
I849
ag1089
aa(lp2091
I850
ag1064
aa(lp2092
I851
ag1058
aa(lp2093
I852
ag1094
aa(lp2094
I853
ag1060
aaaa(lp2095
I855
aI857
aS'the'
p2096
a(lp2097
(lp2098
I855
ag1108
aa(lp2099
I856
ag1085
aa(lp2100
I857
ag1058
aaaa(lp2101
I859
aI864
ag911
a(lp2102
(lp2103
I859
ag1075
aa(lp2104
I860
ag1064
aa(lp2105
I861
ag1094
aa(lp2106
I862
ag1067
aa(lp2107
I863
ag1069
aa(lp2108
I864
ag1058
aaaa(lp2109
I866
aI868
ag920
a(lp2110
(lp2111
I866
ag1094
aa(lp2112
I867
ag1052
aa(lp2113
I868
ag1054
aaaa(lp2114
I870
aI871
aS'on'
p2115
a(lp2116
(lp2117
I870
ag1075
aa(lp2118
I871
ag1067
aaaa(lp2119
I873
aI875
aS'the'
p2120
a(lp2121
(lp2122
I873
ag1108
aa(lp2123
I874
ag1085
aa(lp2124
I875
ag1058
aaaa(lp2125
I877
aI881
ag929
a(lp2126
(lp2127
I877
ag1064
aa(lp2128
I878
ag1075
aa(lp2129
I879
ag1052
aa(lp2130
I880
ag1052
aa(lp2131
I881
ag1050
aaaa(lp2132
I884
aI888
ag938
a(lp2133
(lp2134
I884
ag1056
aa(lp2135
I885
ag1075
aa(lp2136
I886
ag1388
aa(lp2137
I887
ag1058
aa(lp2138
I888
ag1064
aaaa(lp2139
I890
aI893
aS'each'
p2140
a(lp2141
(lp2142
I890
ag1058
aa(lp2143
I891
ag1094
aa(lp2144
I892
ag1056
aa(lp2145
I893
ag1085
aaaa(lp2146
I895
aI898
ag947
a(lp2147
(lp2148
I895
ag1064
aa(lp2149
I896
ag1075
aa(lp2150
I897
ag1052
aa(lp2151
I898
ag1052
aaaa(lp2152
I900
aI905
ag956
a(lp2153
(lp2154
I900
ag1136
aa(lp2155
I901
ag1075
aa(lp2156
I902
ag1108
aa(lp2157
I903
ag1108
aa(lp2158
I904
ag1075
aa(lp2159
I905
ag1105
aaaa(lp2160
I907
aI910
aS'with'
p2161
a(lp2162
(lp2163
I907
ag1139
aa(lp2164
I908
ag1054
aa(lp2165
I909
ag1108
aa(lp2166
I910
ag1085
aaaa(lp2167
I912
aI912
ag1094
a(lp2168
(lp2169
I912
ag1094
aaaa(lp2170
I914
aI916
ag965
a(lp2171
(lp2172
I914
ag1136
aa(lp2173
I915
ag1058
aa(lp2174
I916
ag1060
aaaa(lp2175
I918
aI919
aS'of'
p2176
a(lp2177
(lp2178
I918
ag1075
aa(lp2179
I919
ag1077
aaaa(lp2180
I921
aI928
ag974
a(lp2181
(lp2182
I921
ag1056
aa(lp2183
I922
ag1054
aa(lp2184
I923
ag1052
aa(lp2185
I924
ag1094
aa(lp2186
I925
ag1067
aa(lp2187
I926
ag1108
aa(lp2188
I927
ag1064
aa(lp2189
I928
ag1075
aaaa(lp2190
I930
aI935
ag983
a(lp2191
(lp2192
I930
ag1052
aa(lp2193
I931
ag1058
aa(lp2194
I932
ag1094
aa(lp2195
I933
ag1388
aa(lp2196
I934
ag1058
aa(lp2197
I935
ag1050
aaaa(lp2198
I938
aI941
aS'then'
p2199
a(lp2200
(lp2201
I938
ag1108
aa(lp2202
I939
ag1085
aa(lp2203
I940
ag1058
aa(lp2204
I941
ag1067
aaaa(lp2205
I943
aI945
ag992
a(lp2206
(lp2207
I943
ag1108
aa(lp2208
I944
ag1075
aa(lp2209
I945
ag1089
aaaa(lp2210
I947
aI950
aS'with'
p2211
a(lp2212
(lp2213
I947
ag1139
aa(lp2214
I948
ag1054
aa(lp2215
I949
ag1108
aa(lp2216
I950
ag1085
aaaa(lp2217
I952
aI952
ag1094
a(lp2218
(lp2219
I952
ag1094
aaaa(lp2220
I954
aI959
ag1001
a(lp2221
(lp2222
I954
ag1136
aa(lp2223
I955
ag1182
aa(lp2224
I956
ag1064
aa(lp2225
I957
ag1069
aa(lp2226
I958
ag1058
aa(lp2227
I959
ag1064
aaaa(lp2228
I961
aI963
aS'and'
p2229
a(lp2230
(lp2231
I961
ag1094
aa(lp2232
I962
ag1067
aa(lp2233
I963
ag1060
aaaa(lp2234
I965
aI965
ag1094
a(lp2235
(lp2236
I965
ag1094
aaaa(lp2237
I967
aI975
ag1010
a(lp2238
(lp2239
I967
ag1089
aa(lp2240
I968
ag1054
aa(lp2241
I969
ag1067
aa(lp2242
I970
ag1058
aa(lp2243
I971
ag1094
aa(lp2244
I972
ag1089
aa(lp2245
I973
ag1089
aa(lp2246
I974
ag1052
aa(lp2247
I975
ag1058
aaaa(lp2248
I977
aI980
ag1019
a(lp2249
(lp2250
I977
ag1064
aa(lp2251
I978
ag1054
aa(lp2252
I979
ag1067
aa(lp2253
I980
ag1069
aaaa(lp2254
I983
aI987
ag1028
a(lp2255
(lp2256
I983
ag1050
aa(lp2257
I984
ag1058
aa(lp2258
I985
ag1064
aa(lp2259
I986
ag1388
aa(lp2260
I987
ag1058
aaaa(lp2261
I989
aI999
ag1037
a(lp2262
(lp2263
I989
ag1054
aa(lp2264
I990
ag1105
aa(lp2265
I991
ag1105
aa(lp2266
I992
ag1058
aa(lp2267
I993
ag1060
aa(lp2268
I994
ag1054
aa(lp2269
I995
ag1094
aa(lp2270
I996
ag1108
aa(lp2271
I997
ag1058
aa(lp2272
I998
ag1052
aa(lp2273
I999
ag1161
aaaasS'cleanCharacterMap'
p2274
(lp2275
g1049
ag1051
ag1053
ag1055
ag1057
ag1059
a(lp2276
I6
aS' '
p2277
aag1063
ag1065
ag1066
ag1068
ag1070
a(lp2278
I12
ag2277
aag1074
ag1076
a(lp2279
I15
ag2277
aag1080
ag1081
ag1082
ag1083
ag1084
a(lp2280
I21
ag2277
aag1088
ag1090
ag1091
ag1092
ag1093
ag1095
ag1096
ag1097
ag1098
a(lp2281
I31
ag2277
aag1101
a(lp2282
I34
ag2277
aag1104
ag1106
ag1107
ag1109
ag1110
ag1111
a(lp2283
I41
ag2277
aag1114
a(lp2284
I44
ag2277
aag1117
a(lp2285
I47
ag2277
aag1121
ag1122
a(lp2286
I50
ag2277
aag1125
a(lp2287
I52
ag2277
aag1128
ag1129
ag1130
ag1131
ag1132
a(lp2288
I58
ag2277
aag1135
ag1137
ag1138
ag1140
a(lp2289
I64
ag2277
aag1143
ag1144
ag1145
ag1146
ag1147
ag1148
ag1149
a(lp2290
I72
ag2277
aag1153
ag1154
ag1155
a(lp2291
I76
ag2277
aag1158
ag1159
ag1160
ag1162
ag1163
ag1164
ag1165
ag1166
ag1167
ag1168
a(lp2292
I88
ag2277
aag1171
ag1172
ag1173
ag1174
ag1175
ag1176
a(lp2293
I95
ag2277
aag1179
ag1181
ag1183
ag1184
ag1185
a(lp2294
I102
ag2277
aag1188
ag1190
ag1191
ag1192
a(lp2295
I108
ag2277
aag1196
ag1197
ag1198
a(lp2296
I112
ag2277
aag1201
ag1202
ag1203
ag1204
ag1205
ag1206
a(lp2297
I120
ag2277
aag1209
ag1210
ag1211
ag1212
ag1213
a(lp2298
I126
ag2277
aag1217
ag1218
ag1219
ag1220
ag1221
a(lp2299
I132
ag2277
aag1224
ag1225
ag1226
ag1227
ag1228
ag1229
ag1230
ag1231
ag1233
a(lp2300
I143
ag2277
aag1237
ag1238
ag1239
a(lp2301
I147
ag2277
aag1242
ag1243
ag1244
ag1245
ag1246
ag1247
ag1248
ag1249
ag1250
ag1251
ag1252
ag1253
a(lp2302
I161
ag2277
aag1256
ag1257
ag1258
ag1259
ag1260
a(lp2303
I167
ag2277
aag1263
a(lp2304
I170
ag2277
aag1266
ag1267
ag1268
ag1269
ag1270
ag1271
ag1272
a(lp2305
I178
ag2277
aag1275
a(lp2306
I180
ag2277
aag1278
ag1279
ag1280
a(lp2307
I184
ag2277
aag1284
ag1285
a(lp2308
I187
ag2277
aag1288
ag1289
ag1290
ag1291
ag1292
ag1293
ag1294
ag1295
a(lp2309
I196
ag2277
aag1298
ag1299
ag1300
ag1301
ag1302
a(lp2310
I202
ag2277
aag1306
ag1307
ag1308
a(lp2311
I206
ag2277
aag1311
ag1312
ag1313
ag1314
ag1315
ag1316
ag1317
ag1318
a(lp2312
I215
ag2277
aag1321
ag1322
ag1323
ag1324
ag1325
ag1326
a(lp2313
I222
ag2277
aag1329
ag1330
ag1331
ag1332
a(lp2314
I227
ag2277
aag1335
ag1336
ag1337
ag1338
ag1339
ag1340
ag1341
a(lp2315
I236
ag2277
aag1345
ag1346
a(lp2316
I239
ag2277
aag1349
a(lp2317
I241
ag2277
aag1352
ag1353
ag1354
ag1355
ag1356
a(lp2318
I247
ag2277
aag1359
ag1360
ag1361
ag1362
ag1363
ag1364
a(lp2319
I254
ag2277
aag1367
ag1368
ag1369
a(lp2320
I259
ag2277
aag1372
ag1373
ag1374
ag1375
a(lp2321
I264
ag2277
aag1379
ag1380
ag1381
a(lp2322
I268
ag2277
aag1384
ag1385
ag1386
ag1387
ag1389
a(lp2323
I274
ag2277
aag1392
ag1393
ag1394
a(lp2324
I278
ag2277
aag1398
ag1399
ag1400
ag1401
a(lp2325
I283
ag2277
aag1404
ag1405
ag1406
ag1407
ag1408
ag1409
a(lp2326
I290
ag2277
aag1412
ag1413
ag1414
ag1415
a(lp2327
I295
ag2277
aag1419
ag1420
ag1421
a(lp2328
I299
ag2277
aag1424
ag1425
ag1426
ag1427
ag1428
ag1429
ag1430
a(lp2329
I307
ag2277
aag1433
ag1434
ag1435
ag1436
ag1437
ag1438
a(lp2330
I314
ag2277
aag1441
ag1442
ag1443
ag1444
ag1445
ag1446
a(lp2331
I321
ag2277
aag1450
ag1451
a(lp2332
I324
ag2277
aag1454
ag1455
ag1456
ag1457
ag1458
ag1459
a(lp2333
I331
ag2277
aag1463
ag1464
ag1465
ag1466
ag1467
a(lp2334
I337
ag2277
aag1470
ag1471
ag1472
ag1473
ag1474
ag1475
ag1476
a(lp2335
I345
ag2277
aag1479
ag1480
ag1481
ag1482
ag1483
ag1484
ag1485
a(lp2336
I354
ag2277
aag1488
ag1489
ag1490
a(lp2337
I358
ag2277
aag1494
ag1495
ag1496
a(lp2338
I362
ag2277
aag1499
ag1500
ag1501
ag1502
a(lp2339
I367
ag2277
aag1506
ag1507
ag1508
a(lp2340
I371
ag2277
aag1511
ag1512
ag1513
ag1514
ag1515
ag1516
a(lp2341
I378
ag2277
aag1519
ag1520
ag1521
ag1522
ag1523
a(lp2342
I385
ag2277
aag1526
ag1527
ag1528
ag1529
ag1530
ag1531
a(lp2343
I392
ag2277
aag1535
ag1536
ag1537
ag1538
a(lp2344
I397
ag2277
aag1542
ag1543
ag1544
a(lp2345
I401
ag2277
aag1547
ag1548
ag1549
ag1550
a(lp2346
I406
ag2277
aag1554
ag1555
ag1556
a(lp2347
I410
ag2277
aag1559
ag1560
ag1561
a(lp2348
I414
ag2277
aag1564
ag1565
ag1566
ag1567
ag1568
ag1569
ag1570
ag1571
a(lp2349
I424
ag2277
aag1575
ag1576
ag1577
a(lp2350
I428
ag2277
aag1580
ag1581
ag1582
ag1583
ag1584
ag1585
ag1586
a(lp2351
I436
ag2277
aag1589
a(lp2352
I439
ag2277
aag1593
ag1594
a(lp2353
I442
ag2277
aag1597
a(lp2354
I444
ag2277
aag1600
ag1601
ag1602
ag1603
ag1604
a(lp2355
I450
ag2277
aag1607
ag1608
ag1609
ag1610
a(lp2356
I456
ag2277
aag1613
ag1614
ag1615
ag1616
ag1617
ag1618
ag1619
a(lp2357
I464
ag2277
aag1623
ag1624
ag1625
a(lp2358
I468
ag2277
aag1628
ag1629
ag1630
ag1631
ag1632
ag1633
a(lp2359
I475
ag2277
aag1636
ag1637
ag1638
ag1639
ag1640
ag1641
a(lp2360
I482
ag2277
aag1645
ag1646
ag1647
a(lp2361
I486
ag2277
aag1651
ag1652
ag1653
a(lp2362
I490
ag2277
aag1656
ag1657
ag1658
ag1659
ag1660
ag1661
a(lp2363
I497
ag2277
aag1664
ag1665
ag1666
ag1667
ag1668
ag1669
ag1670
a(lp2364
I506
ag2277
aag1673
ag1674
ag1675
ag1676
a(lp2365
I511
ag2277
aag1680
ag1681
ag1682
ag1683
a(lp2366
I516
ag2277
aag1686
a(lp2367
I518
ag2277
aag1689
ag1690
ag1691
ag1692
ag1693
ag1694
ag1695
a(lp2368
I527
ag2277
aag1698
a(lp2369
I530
ag2277
aag1702
ag1703
ag1704
ag1705
a(lp2370
I535
ag2277
aag1709
ag1710
ag1711
a(lp2371
I539
ag2277
aag1714
ag1715
ag1716
ag1717
a(lp2372
I544
ag2277
aag1721
ag1722
a(lp2373
I547
ag2277
aag1725
ag1726
ag1727
ag1728
ag1729
a(lp2374
I554
ag2277
aag1732
ag1733
ag1734
ag1735
ag1736
a(lp2375
I560
ag2277
aag1740
ag1741
ag1742
a(lp2376
I564
ag2277
aag1745
ag1746
ag1747
ag1748
ag1749
a(lp2377
I570
ag2277
aag1752
ag1753
ag1754
ag1755
a(lp2378
I575
ag2277
aag1759
ag1760
ag1761
ag1762
a(lp2379
I580
ag2277
aag1765
ag1766
ag1767
a(lp2380
I585
ag2277
aag1770
ag1771
ag1772
ag1773
ag1774
a(lp2381
I591
ag2277
aag1778
ag1779
ag1780
a(lp2382
I595
ag2277
aag1783
ag1784
ag1785
ag1786
ag1787
ag1788
ag1789
a(lp2383
I603
ag2277
aag1793
ag1794
ag1795
ag1796
ag1797
a(lp2384
I609
ag2277
aag1800
ag1801
ag1802
ag1803
ag1804
ag1805
ag1806
a(lp2385
I617
ag2277
aag1809
ag1810
ag1811
ag1812
ag1813
ag1814
ag1815
ag1816
a(lp2386
I627
ag2277
aag1819
ag1820
ag1821
ag1822
ag1823
ag1824
ag1825
a(lp2387
I635
ag2277
aag1829
ag1830
ag1831
ag1832
a(lp2388
I641
ag2277
aag1835
a(lp2389
I643
ag2277
aag1839
ag1840
a(lp2390
I646
ag2277
aag1843
a(lp2391
I648
ag2277
aag1846
ag1847
ag1848
ag1849
ag1850
ag1851
ag1852
a(lp2392
I656
ag2277
aag1855
ag1856
ag1857
a(lp2393
I660
ag2277
aag1860
ag1861
ag1862
ag1863
a(lp2394
I665
ag2277
aag1867
ag1868
ag1869
a(lp2395
I669
ag2277
aag1872
ag1873
ag1874
ag1875
ag1876
ag1877
ag1878
ag1879
ag1880
ag1881
a(lp2396
I682
ag2277
aag1884
a(lp2397
I684
ag2277
aag1888
ag1889
a(lp2398
I687
ag2277
aag1892
a(lp2399
I689
ag2277
aag1895
ag1896
ag1897
ag1898
ag1899
ag1900
ag1901
a(lp2400
I697
ag2277
aag1904
ag1905
ag1906
a(lp2401
I701
ag2277
aag1909
ag1910
ag1911
ag1912
a(lp2402
I706
ag2277
aag1916
ag1917
ag1918
a(lp2403
I710
ag2277
aag1921
ag1922
ag1923
ag1924
ag1925
ag1926
a(lp2404
I718
ag2277
aag1930
ag1931
ag1932
ag1933
ag1934
ag1935
a(lp2405
I725
ag2277
aag1939
ag1940
ag1941
a(lp2406
I729
ag2277
aag1944
ag1945
ag1946
ag1947
a(lp2407
I734
ag2277
aag1951
ag1952
ag1953
a(lp2408
I738
ag2277
aag1956
ag1957
ag1958
ag1959
ag1960
ag1961
ag1962
a(lp2409
I746
ag2277
aag1966
ag1967
a(lp2410
I749
ag2277
aag1970
ag1971
ag1972
ag1973
ag1974
ag1975
ag1976
a(lp2411
I758
ag2277
aag1979
ag1980
ag1981
ag1982
ag1983
a(lp2412
I764
ag2277
aag1987
ag1988
ag1989
a(lp2413
I768
ag2277
aag1992
ag1993
ag1994
ag1995
ag1996
a(lp2414
I774
ag2277
aag1999
ag2000
ag2001
a(lp2415
I778
ag2277
aag2004
ag2005
ag2006
ag2007
a(lp2416
I783
ag2277
aag2011
ag2012
ag2013
ag2014
a(lp2417
I789
ag2277
aag2018
ag2019
a(lp2418
I792
ag2277
aag2023
ag2024
ag2025
a(lp2419
I796
ag2277
aag2028
ag2029
ag2030
ag2031
ag2032
a(lp2420
I802
ag2277
aag2035
ag2036
ag2037
ag2038
ag2039
a(lp2421
I808
ag2277
aag2043
ag2044
a(lp2422
I811
ag2277
aag2048
ag2049
ag2050
a(lp2423
I815
ag2277
aag2053
ag2054
ag2055
ag2056
ag2057
a(lp2424
I821
ag2277
aag2061
ag2062
ag2063
ag2064
ag2065
a(lp2425
I827
ag2277
aag2068
ag2069
ag2070
ag2071
ag2072
ag2073
ag2074
a(lp2426
I835
ag2277
aag2077
ag2078
ag2079
ag2080
ag2081
ag2082
ag2083
a(lp2427
I844
ag2277
aag2086
a(lp2428
I847
ag2277
aag2089
ag2090
ag2091
ag2092
ag2093
ag2094
a(lp2429
I854
ag2277
aag2098
ag2099
ag2100
a(lp2430
I858
ag2277
aag2103
ag2104
ag2105
ag2106
ag2107
ag2108
a(lp2431
I865
ag2277
aag2111
ag2112
ag2113
a(lp2432
I869
ag2277
aag2117
ag2118
a(lp2433
I872
ag2277
aag2122
ag2123
ag2124
a(lp2434
I876
ag2277
aag2127
ag2128
ag2129
ag2130
ag2131
a(lp2435
I883
ag2277
aag2134
ag2135
ag2136
ag2137
ag2138
a(lp2436
I889
ag2277
aag2142
ag2143
ag2144
ag2145
a(lp2437
I894
ag2277
aag2148
ag2149
ag2150
ag2151
a(lp2438
I899
ag2277
aag2154
ag2155
ag2156
ag2157
ag2158
ag2159
a(lp2439
I906
ag2277
aag2163
ag2164
ag2165
ag2166
a(lp2440
I911
ag2277
aag2169
a(lp2441
I913
ag2277
aag2172
ag2173
ag2174
a(lp2442
I917
ag2277
aag2178
ag2179
a(lp2443
I920
ag2277
aag2182
ag2183
ag2184
ag2185
ag2186
ag2187
ag2188
ag2189
a(lp2444
I929
ag2277
aag2192
ag2193
ag2194
ag2195
ag2196
ag2197
a(lp2445
I937
ag2277
aag2201
ag2202
ag2203
ag2204
a(lp2446
I942
ag2277
aag2207
ag2208
ag2209
a(lp2447
I946
ag2277
aag2213
ag2214
ag2215
ag2216
a(lp2448
I951
ag2277
aag2219
a(lp2449
I953
ag2277
aag2222
ag2223
ag2224
ag2225
ag2226
ag2227
a(lp2450
I960
ag2277
aag2231
ag2232
ag2233
a(lp2451
I964
ag2277
aag2236
a(lp2452
I966
ag2277
aag2239
ag2240
ag2241
ag2242
ag2243
ag2244
ag2245
ag2246
ag2247
a(lp2453
I976
ag2277
aag2250
ag2251
ag2252
ag2253
a(lp2454
I982
ag2277
aag2256
ag2257
ag2258
ag2259
ag2260
a(lp2455
I988
ag2277
aag2263
ag2264
ag2265
ag2266
ag2267
ag2268
ag2269
ag2270
ag2271
ag2272
ag2273
a(lp2456
I1001
ag2277
aa(lp2457
I1003
ag42
aasS'text'
p2458
S'sliced rings of fresh pineapple \xc2\xa0 method \xc2\xa0 1. in a small bowl, combine the mayonnaise, orange juice, zest, and garlic. chill until ready.make the orange-garlic aioli 1. prepare a gas or charcoal grill for moderate direct heat cooking. in a small frying pan, heat the olive oil over medium heat and sautthe ground chouri or lingui until lightly browned. add the wine and tomato sauce, remove from the heat and let cool.make the burgers 2. in a large bowl, combine the cooled chouri and the ground sirloin; form into 4 patties. 3. when the fire is ready, brush the grill rack with oil. grill the patties until desired doneness, turning once; 4 to 5 minutes per side for medium-rare; 6 to 8 minutes per side for medium. during the last few minutes of cooking, place the rolls cut side down, on the outer edges of the grill until lightly toasted. 4. spread the orange ali on the rolls. cover each roll bottom with a bed of cilantro leaves, then top with a burger and a pineapple ring. serve immediately. \xc2\xa0'
p2459
sS'cleanWordMap'
p2460
(lp2461
g1047
ag1061
ag1078
ag1086
ag1099
ag1102
ag1112
ag1115
ag1126
ag1133
ag1141
ag1156
ag1169
ag1177
ag1186
ag1199
ag1207
ag1222
ag1240
ag1254
ag1261
ag1264
ag1276
ag1286
ag1296
ag1309
ag1319
ag1327
ag1333
ag1350
ag1357
ag1365
ag1370
ag1382
ag1390
ag1402
ag1410
ag1422
ag1431
ag1439
ag1452
ag1468
ag1477
ag1486
ag1497
ag1509
ag1517
ag1524
ag1545
ag1557
ag1562
ag1578
ag1587
ag1598
ag1605
ag1611
ag1626
ag1634
ag1654
ag1662
ag1671
ag1684
ag1687
ag1696
ag1712
ag1723
ag1730
ag1743
ag1750
ag1763
ag1768
ag1781
ag1798
ag1807
ag1817
ag1833
ag1841
ag1844
ag1853
ag1858
ag1870
ag1882
ag1890
ag1893
ag1902
ag1907
ag1919
ag1942
ag1954
ag1968
ag1977
ag1990
ag1997
ag2002
ag2026
ag2033
ag2051
ag2066
ag2075
ag2084
ag2087
ag2101
ag2109
ag2125
ag2132
ag2146
ag2152
ag2170
ag2180
ag2190
ag2205
ag2220
ag2237
ag2248
ag2254
ag2261
asS'lines'
p2462
(lp2463
Vsliced rings of fresh pineapple\u000a
p2464
aV\u000a
p2465
aVMethod\u000a
p2466
aV\u000a
p2467
aV1. In a small bowl, combine the mayonnaise, orange juice, zest, and garlic. Chill until ready.Make the orange-garlic aIoli\u000a
p2468
aV1. Prepare a gas or charcoal grill for moderate direct heat cooking. In a small frying pan, heat the olive oil over medium heat and sautthe ground chouri or lingui until lightly browned. Add the wine and tomato sauce, remove from the heat and let cool.Make the burgers\u000a
p2469
aV2. In a large bowl, combine the cooled chouri and the ground sirloin; form into 4 patties.\u000a
p2470
aV3. When the fire is ready, brush the grill rack with oil. Grill the patties until desired doneness, turning once; 4 to 5 minutes per side for medium-rare; 6 to 8 minutes per side for medium. During the last few minutes of cooking, place the rolls cut side down, on the outer edges of the grill until lightly toasted.\u000a
p2471
aV4. Spread the orange ali on the rolls. Cover each roll bottom with a bed of cilantro leaves, then top with a burger and a pineapple ring. Serve immediately.\u000a
p2472
aV
p2473
asS'docType'
p2474
S'src'
p2475
sS'newfmap'
p2476
(lp2477
g4
ag8
ag10
ag12
ag14
ag17
ag19
ag21
ag23
ag26
ag28
ag30
ag32
ag35
ag37
ag39
ag41
ag44
ag46
ag48
ag50
ag53
ag55
ag57
ag59
ag61
ag63
ag65
ag67
ag70
ag72
ag74
ag76
ag79
ag81
ag83
ag85
ag88
ag90
ag92
ag94
ag97
ag99
ag101
ag103
ag106
ag108
ag110
ag112
ag115
ag117
ag119
ag121
ag124
ag126
ag128
ag130
ag133
ag135
ag137
ag139
ag142
ag144
ag146
ag148
ag151
ag153
ag155
ag157
ag160
ag162
ag164
ag166
ag169
ag171
ag173
ag175
ag178
ag180
ag182
ag184
ag186
ag188
ag190
ag192
ag195
ag197
ag199
ag201
ag204
ag206
ag208
ag210
ag213
ag215
ag217
ag219
ag222
ag224
ag226
ag228
ag231
ag233
ag235
ag237
ag240
ag242
ag244
ag246
ag249
ag251
ag253
ag255
ag258
ag260
ag262
ag264
ag267
ag269
ag271
ag273
ag276
ag278
ag280
ag282
ag285
ag287
ag289
ag291
ag294
ag296
ag298
ag300
ag303
ag305
ag307
ag309
ag312
ag314
ag316
ag318
ag321
ag323
ag325
ag327
ag330
ag332
ag334
ag336
ag339
ag341
ag343
ag345
ag348
ag350
ag352
ag354
ag357
ag359
ag361
ag363
ag366
ag368
ag370
ag372
ag375
ag377
ag379
ag381
ag384
ag386
ag388
ag390
ag393
ag395
ag397
ag399
ag402
ag404
ag406
ag408
ag411
ag413
ag415
ag417
ag420
ag422
ag424
ag426
ag429
ag431
ag433
ag435
ag438
ag440
ag442
ag444
ag447
ag449
ag451
ag453
ag456
ag458
ag460
ag462
ag465
ag467
ag469
ag471
ag474
ag476
ag478
ag480
ag483
ag485
ag487
ag489
ag492
ag494
ag496
ag498
ag501
ag503
ag505
ag507
ag510
ag512
ag514
ag516
ag519
ag521
ag523
ag525
ag528
ag530
ag532
ag534
ag537
ag539
ag541
ag543
ag546
ag548
ag550
ag552
ag555
ag557
ag559
ag561
ag564
ag566
ag568
ag570
ag573
ag575
ag577
ag579
ag582
ag584
ag586
ag588
ag591
ag593
ag595
ag597
ag600
ag602
ag604
ag606
ag609
ag611
ag613
ag615
ag618
ag620
ag622
ag624
ag627
ag629
ag631
ag633
ag636
ag638
ag640
ag642
ag645
ag647
ag649
ag651
ag654
ag656
ag658
ag660
ag663
ag665
ag667
ag669
ag672
ag674
ag676
ag678
ag680
ag682
ag684
ag686
ag689
ag691
ag693
ag695
ag698
ag700
ag702
ag704
ag707
ag709
ag711
ag713
ag716
ag718
ag720
ag722
ag725
ag727
ag729
ag731
ag734
ag736
ag738
ag740
ag743
ag745
ag747
ag749
ag752
ag754
ag756
ag758
ag761
ag763
ag765
ag767
ag770
ag772
ag774
ag776
ag779
ag781
ag783
ag785
ag788
ag790
ag792
ag794
ag797
ag799
ag801
ag803
ag806
ag808
ag810
ag812
ag815
ag817
ag819
ag821
ag824
ag826
ag828
ag830
ag833
ag835
ag837
ag839
ag842
ag844
ag846
ag848
ag851
ag853
ag855
ag857
ag860
ag862
ag864
ag866
ag869
ag871
ag873
ag875
ag878
ag880
ag882
ag884
ag887
ag889
ag891
ag893
ag895
ag897
ag899
ag901
ag904
ag906
ag908
ag910
ag913
ag915
ag917
ag919
ag922
ag924
ag926
ag928
ag931
ag933
ag935
ag937
ag940
ag942
ag944
ag946
ag949
ag951
ag953
ag955
ag958
ag960
ag962
ag964
ag967
ag969
ag971
ag973
ag976
ag978
ag980
ag982
ag985
ag987
ag989
ag991
ag994
ag996
ag998
ag1000
ag1003
ag1005
ag1007
ag1009
ag1012
ag1014
ag1016
ag1018
ag1021
ag1023
ag1025
ag1027
ag1030
ag1032
ag1034
ag1036
ag1039
ag1041
ag1043
asS'featureMap'
p2478
(lp2479
(lp2480
I0
aI5
ag5
ag6
ag9
ag11
ag13
aa(lp2481
I7
aI11
ag15
ag16
ag18
ag20
ag22
aa(lp2482
I16
aI20
ag24
ag25
ag27
ag29
ag31
aa(lp2483
I22
aI30
ag33
ag34
ag36
ag38
ag40
aa(lp2484
I33
aI33
ag42
ag43
ag45
ag47
ag49
aa(lp2485
I35
aI40
ag51
ag52
ag54
ag56
ag58
aa(lp2486
I43
aI43
ag42
ag60
ag62
ag64
ag66
aa(lp2487
I45
aI45
ag68
ag69
ag71
ag73
ag75
aa(lp2488
I53
aI57
ag77
ag78
ag80
ag82
ag84
aa(lp2489
I59
aI62
ag86
ag87
ag89
ag91
ag93
aa(lp2490
I65
aI71
ag95
ag96
ag98
ag100
ag102
aa(lp2491
I77
aI86
ag104
ag105
ag107
ag109
ag111
aa(lp2492
I89
aI94
ag113
ag114
ag116
ag118
ag120
aa(lp2493
I96
aI100
ag122
ag123
ag125
ag127
ag129
aa(lp2494
I103
aI106
ag131
ag132
ag134
ag136
ag138
aa(lp2495
I113
aI118
ag140
ag141
ag143
ag145
ag147
aa(lp2496
I121
aI125
ag149
ag150
ag152
ag154
ag156
aa(lp2497
I133
aI142
ag158
ag159
ag161
ag163
ag165
aa(lp2498
I148
aI160
ag167
ag168
ag170
ag172
ag174
aa(lp2499
I162
aI166
ag176
ag177
ag179
ag181
ag183
aa(lp2500
I168
aI168
ag68
ag185
ag187
ag189
ag191
aa(lp2501
I171
aI177
ag193
ag194
ag196
ag198
ag200
aa(lp2502
I181
aI183
ag202
ag203
ag205
ag207
ag209
aa(lp2503
I188
aI195
ag211
ag212
ag214
ag216
ag218
aa(lp2504
I197
aI201
ag220
ag221
ag223
ag225
ag227
aa(lp2505
I207
aI214
ag229
ag230
ag232
ag234
ag236
aa(lp2506
I216
aI221
ag238
ag239
ag241
ag243
ag245
aa(lp2507
I223
aI226
ag247
ag248
ag250
ag252
ag254
aa(lp2508
I228
aI234
ag256
ag257
ag259
ag261
ag263
aa(lp2509
I242
aI246
ag265
ag266
ag268
ag270
ag272
aa(lp2510
I248
aI253
ag274
ag275
ag277
ag279
ag281
aa(lp2511
I255
aI257
ag283
ag284
ag286
ag288
ag290
aa(lp2512
I260
aI263
ag292
ag293
ag295
ag297
ag299
aa(lp2513
I269
aI273
ag301
ag302
ag304
ag306
ag308
aa(lp2514
I275
aI277
ag310
ag311
ag313
ag315
ag317
aa(lp2515
I284
aI289
ag319
ag320
ag322
ag324
ag326
aa(lp2516
I291
aI294
ag328
ag329
ag331
ag333
ag335
aa(lp2517
I300
aI306
ag337
ag338
ag340
ag342
ag344
aa(lp2518
I308
aI313
ag346
ag347
ag349
ag351
ag353
aa(lp2519
I315
aI320
ag355
ag356
ag358
ag360
ag362
aa(lp2520
I325
aI330
ag364
ag365
ag367
ag369
ag371
aa(lp2521
I338
aI344
ag373
ag374
ag376
ag378
ag380
aa(lp2522
I346
aI352
ag382
ag383
ag385
ag387
ag389
aa(lp2523
I355
aI357
ag391
ag392
ag394
ag396
ag398
aa(lp2524
I363
aI366
ag400
ag401
ag403
ag405
ag407
aa(lp2525
I372
aI377
ag409
ag410
ag412
ag414
ag416
aa(lp2526
I379
aI383
ag418
ag419
ag421
ag423
ag425
aa(lp2527
I386
aI391
ag427
ag428
ag430
ag432
ag434
aa(lp2528
I402
aI405
ag436
ag437
ag439
ag441
ag443
aa(lp2529
I411
aI413
ag445
ag446
ag448
ag450
ag452
aa(lp2530
I415
aI423
ag454
ag455
ag457
ag459
ag461
aa(lp2531
I429
aI435
ag463
ag464
ag466
ag468
ag470
aa(lp2532
I437
aI437
ag472
ag473
ag475
ag477
ag479
aa(lp2533
I445
aI449
ag481
ag482
ag484
ag486
ag488
aa(lp2534
I451
aI454
ag490
ag491
ag493
ag495
ag497
aa(lp2535
I457
aI463
ag499
ag500
ag502
ag504
ag506
aa(lp2536
I469
aI474
ag508
ag509
ag511
ag513
ag515
aa(lp2537
I476
aI481
ag517
ag518
ag520
ag522
ag524
aa(lp2538
I491
aI496
ag526
ag527
ag529
ag531
ag533
aa(lp2539
I498
aI504
ag535
ag536
ag538
ag540
ag542
aa(lp2540
I507
aI510
ag544
ag545
ag547
ag549
ag551
aa(lp2541
I517
aI517
ag553
ag554
ag556
ag558
ag560
aa(lp2542
I519
aI525
ag562
ag563
ag565
ag567
ag569
aa(lp2543
I528
aI528
ag571
ag572
ag574
ag576
ag578
aa(lp2544
I540
aI543
ag580
ag581
ag583
ag585
ag587
aa(lp2545
I548
aI552
ag589
ag590
ag592
ag594
ag596
aa(lp2546
I555
aI559
ag598
ag599
ag601
ag603
ag605
aa(lp2547
I565
aI569
ag607
ag608
ag610
ag612
ag614
aa(lp2548
I571
aI574
ag616
ag617
ag619
ag621
ag623
aa(lp2549
I581
aI583
ag625
ag626
ag628
ag630
ag632
aa(lp2550
I586
aI590
ag634
ag635
ag637
ag639
ag641
aa(lp2551
I596
aI602
ag643
ag644
ag646
ag648
ag650
aa(lp2552
I610
aI616
ag652
ag653
ag655
ag657
ag659
aa(lp2553
I618
aI625
ag661
ag662
ag664
ag666
ag668
aa(lp2554
I628
aI634
ag670
ag671
ag673
ag675
ag677
aa(lp2555
I642
aI642
ag553
ag679
ag681
ag683
ag685
aa(lp2556
I647
aI647
ag687
ag688
ag690
ag692
ag694
aa(lp2557
I649
aI655
ag696
ag697
ag699
ag701
ag703
aa(lp2558
I657
aI659
ag705
ag706
ag708
ag710
ag712
aa(lp2559
I661
aI664
ag714
ag715
ag717
ag719
ag721
aa(lp2560
I670
aI680
ag723
ag724
ag726
ag728
ag730
aa(lp2561
I683
aI683
ag732
ag733
ag735
ag737
ag739
aa(lp2562
I688
aI688
ag741
ag742
ag744
ag746
ag748
aa(lp2563
I690
aI696
ag750
ag751
ag753
ag755
ag757
aa(lp2564
I698
aI700
ag759
ag760
ag762
ag764
ag766
aa(lp2565
I702
aI705
ag768
ag769
ag771
ag773
ag775
aa(lp2566
I711
aI716
ag777
ag778
ag780
ag782
ag784
aa(lp2567
I730
aI733
ag786
ag787
ag789
ag791
ag793
aa(lp2568
I739
aI745
ag795
ag796
ag798
ag800
ag802
aa(lp2569
I750
aI756
ag804
ag805
ag807
ag809
ag811
aa(lp2570
I759
aI763
ag813
ag814
ag816
ag818
ag820
aa(lp2571
I769
aI773
ag822
ag823
ag825
ag827
ag829
aa(lp2572
I775
aI777
ag831
ag832
ag834
ag836
ag838
aa(lp2573
I779
aI782
ag840
ag841
ag843
ag845
ag847
aa(lp2574
I797
aI801
ag849
ag850
ag852
ag854
ag856
aa(lp2575
I803
aI807
ag858
ag859
ag861
ag863
ag865
aa(lp2576
I816
aI820
ag867
ag868
ag870
ag872
ag874
aa(lp2577
I828
aI834
ag876
ag877
ag879
ag881
ag883
aa(lp2578
I836
aI842
ag885
ag886
ag888
ag890
ag892
aa(lp2579
I845
aI845
ag553
ag894
ag896
ag898
ag900
aa(lp2580
I848
aI853
ag902
ag903
ag905
ag907
ag909
aa(lp2581
I859
aI864
ag911
ag912
ag914
ag916
ag918
aa(lp2582
I866
aI868
ag920
ag921
ag923
ag925
ag927
aa(lp2583
I877
aI881
ag929
ag930
ag932
ag934
ag936
aa(lp2584
I884
aI888
ag938
ag939
ag941
ag943
ag945
aa(lp2585
I895
aI898
ag947
ag948
ag950
ag952
ag954
aa(lp2586
I900
aI905
ag956
ag957
ag959
ag961
ag963
aa(lp2587
I914
aI916
ag965
ag966
ag968
ag970
ag972
aa(lp2588
I921
aI928
ag974
ag975
ag977
ag979
ag981
aa(lp2589
I930
aI935
ag983
ag984
ag986
ag988
ag990
aa(lp2590
I943
aI945
ag992
ag993
ag995
ag997
ag999
aa(lp2591
I954
aI959
ag1001
ag1002
ag1004
ag1006
ag1008
aa(lp2592
I967
aI975
ag1010
ag1011
ag1013
ag1015
ag1017
aa(lp2593
I977
aI980
ag1019
ag1020
ag1022
ag1024
ag1026
aa(lp2594
I983
aI987
ag1028
ag1029
ag1031
ag1033
ag1035
aa(lp2595
I989
aI999
ag1037
ag1038
ag1040
ag1042
ag1044
aasS'characterMap'
p2596
(lp2597
g1049
ag1051
ag1053
ag1055
ag1057
ag1059
ag2276
ag1063
ag1065
ag1066
ag1068
ag1070
ag2278
ag1074
ag1076
ag2279
ag1080
ag1081
ag1082
ag1083
ag1084
ag2280
ag1088
ag1090
ag1091
ag1092
ag1093
ag1095
ag1096
ag1097
ag1098
ag2281
a(lp2598
I32
aS'\xc2'
p2599
aag1101
ag2282
ag1104
ag1106
ag1107
ag1109
ag1110
ag1111
ag2283
a(lp2600
I42
ag2599
aag1114
ag2284
ag1117
a(lp2601
I46
aS'.'
p2602
aag2285
ag1121
ag1122
ag2286
ag1125
ag2287
ag1128
ag1129
ag1130
ag1131
ag1132
ag2288
ag1135
ag1137
ag1138
ag1140
a(lp2603
I63
aS','
p2604
aag2289
ag1143
ag1144
ag1145
ag1146
ag1147
ag1148
ag1149
ag2290
ag1153
ag1154
ag1155
ag2291
ag1158
ag1159
ag1160
ag1162
ag1163
ag1164
ag1165
ag1166
ag1167
ag1168
a(lp2605
I87
ag2604
aag2292
ag1171
ag1172
ag1173
ag1174
ag1175
ag1176
ag2293
ag1179
ag1181
ag1183
ag1184
ag1185
a(lp2606
I101
ag2604
aag2294
ag1188
ag1190
ag1191
ag1192
a(lp2607
I107
ag2604
aag2295
ag1196
ag1197
ag1198
ag2296
ag1201
ag1202
ag1203
ag1204
ag1205
ag1206
a(lp2608
I119
ag2602
aag2297
ag1209
ag1210
ag1211
ag1212
ag1213
ag2298
ag1217
ag1218
ag1219
ag1220
ag1221
ag2299
ag1224
ag1225
ag1226
ag1227
ag1228
a(lp2609
I138
ag2602
aag1229
ag1230
ag1231
ag1233
ag2300
ag1237
ag1238
ag1239
ag2301
ag1242
ag1243
ag1244
ag1245
ag1246
ag1247
a(lp2610
I154
aS'-'
p2611
aag1248
ag1249
ag1250
ag1251
ag1252
ag1253
ag2302
ag1256
ag1257
ag1258
ag1259
ag1260
ag2303
ag1263
a(lp2612
I169
ag2602
aag2304
ag1266
ag1267
ag1268
ag1269
ag1270
ag1271
ag1272
ag2305
ag1275
ag2306
ag1278
ag1279
ag1280
ag2307
ag1284
ag1285
ag2308
ag1288
ag1289
ag1290
ag1291
ag1292
ag1293
ag1294
ag1295
ag2309
ag1298
ag1299
ag1300
ag1301
ag1302
ag2310
ag1306
ag1307
ag1308
ag2311
ag1311
ag1312
ag1313
ag1314
ag1315
ag1316
ag1317
ag1318
ag2312
ag1321
ag1322
ag1323
ag1324
ag1325
ag1326
ag2313
ag1329
ag1330
ag1331
ag1332
ag2314
ag1335
ag1336
ag1337
ag1338
ag1339
ag1340
ag1341
a(lp2613
I235
ag2602
aag2315
ag1345
ag1346
ag2316
ag1349
ag2317
ag1352
ag1353
ag1354
ag1355
ag1356
ag2318
ag1359
ag1360
ag1361
ag1362
ag1363
ag1364
ag2319
ag1367
ag1368
ag1369
a(lp2614
I258
ag2604
aag2320
ag1372
ag1373
ag1374
ag1375
ag2321
ag1379
ag1380
ag1381
ag2322
ag1384
ag1385
ag1386
ag1387
ag1389
ag2323
ag1392
ag1393
ag1394
ag2324
ag1398
ag1399
ag1400
ag1401
ag2325
ag1404
ag1405
ag1406
ag1407
ag1408
ag1409
ag2326
ag1412
ag1413
ag1414
ag1415
ag2327
ag1419
ag1420
ag1421
ag2328
ag1424
ag1425
ag1426
ag1427
ag1428
ag1429
ag1430
ag2329
ag1433
ag1434
ag1435
ag1436
ag1437
ag1438
ag2330
ag1441
ag1442
ag1443
ag1444
ag1445
ag1446
ag2331
ag1450
ag1451
ag2332
ag1454
ag1455
ag1456
ag1457
ag1458
ag1459
ag2333
ag1463
ag1464
ag1465
ag1466
ag1467
ag2334
ag1470
ag1471
ag1472
ag1473
ag1474
ag1475
ag1476
ag2335
ag1479
ag1480
ag1481
ag1482
ag1483
ag1484
ag1485
a(lp2615
I353
ag2602
aag2336
ag1488
ag1489
ag1490
ag2337
ag1494
ag1495
ag1496
ag2338
ag1499
ag1500
ag1501
ag1502
ag2339
ag1506
ag1507
ag1508
ag2340
ag1511
ag1512
ag1513
ag1514
ag1515
ag1516
ag2341
ag1519
ag1520
ag1521
ag1522
ag1523
a(lp2616
I384
ag2604
aag2342
ag1526
ag1527
ag1528
ag1529
ag1530
ag1531
ag2343
ag1535
ag1536
ag1537
ag1538
ag2344
ag1542
ag1543
ag1544
ag2345
ag1547
ag1548
ag1549
ag1550
ag2346
ag1554
ag1555
ag1556
ag2347
ag1559
ag1560
ag1561
ag2348
ag1564
ag1565
ag1566
ag1567
a(lp2617
I419
ag2602
aag1568
ag1569
ag1570
ag1571
ag2349
ag1575
ag1576
ag1577
ag2350
ag1580
ag1581
ag1582
ag1583
ag1584
ag1585
ag1586
ag2351
ag1589
a(lp2618
I438
ag2602
aag2352
ag1593
ag1594
ag2353
ag1597
ag2354
ag1600
ag1601
ag1602
ag1603
ag1604
ag2355
ag1607
ag1608
ag1609
ag1610
a(lp2619
I455
ag2604
aag2356
ag1613
ag1614
ag1615
ag1616
ag1617
ag1618
ag1619
ag2357
ag1623
ag1624
ag1625
ag2358
ag1628
ag1629
ag1630
ag1631
ag1632
ag1633
ag2359
ag1636
ag1637
ag1638
ag1639
ag1640
ag1641
ag2360
ag1645
ag1646
ag1647
ag2361
ag1651
ag1652
ag1653
ag2362
ag1656
ag1657
ag1658
ag1659
ag1660
ag1661
ag2363
ag1664
ag1665
ag1666
ag1667
ag1668
ag1669
ag1670
a(lp2620
I505
aS';'
p2621
aag2364
ag1673
ag1674
ag1675
ag1676
ag2365
ag1680
ag1681
ag1682
ag1683
ag2366
ag1686
ag2367
ag1689
ag1690
ag1691
ag1692
ag1693
ag1694
ag1695
a(lp2622
I526
ag2602
aag2368
ag1698
a(lp2623
I529
ag2602
aag2369
ag1702
ag1703
ag1704
ag1705
ag2370
ag1709
ag1710
ag1711
ag2371
ag1714
ag1715
ag1716
ag1717
ag2372
ag1721
ag1722
ag2373
ag1725
ag1726
ag1727
ag1728
ag1729
a(lp2624
I553
ag2604
aag2374
ag1732
ag1733
ag1734
ag1735
ag1736
ag2375
ag1740
ag1741
ag1742
ag2376
ag1745
ag1746
ag1747
ag1748
ag1749
ag2377
ag1752
ag1753
ag1754
ag1755
ag2378
ag1759
ag1760
ag1761
ag1762
ag2379
ag1765
ag1766
ag1767
a(lp2625
I584
ag2602
aag2380
ag1770
ag1771
ag1772
ag1773
ag1774
ag2381
ag1778
ag1779
ag1780
ag2382
ag1783
ag1784
ag1785
ag1786
ag1787
ag1788
ag1789
ag2383
ag1793
ag1794
ag1795
ag1796
ag1797
ag2384
ag1800
ag1801
ag1802
ag1803
ag1804
ag1805
ag1806
ag2385
ag1809
ag1810
ag1811
ag1812
ag1813
ag1814
ag1815
ag1816
a(lp2626
I626
ag2604
aag2386
ag1819
ag1820
ag1821
ag1822
ag1823
ag1824
ag1825
ag2387
ag1829
ag1830
ag1831
ag1832
a(lp2627
I640
ag2621
aag2388
ag1835
ag2389
ag1839
ag1840
ag2390
ag1843
ag2391
ag1846
ag1847
ag1848
ag1849
ag1850
ag1851
ag1852
ag2392
ag1855
ag1856
ag1857
ag2393
ag1860
ag1861
ag1862
ag1863
ag2394
ag1867
ag1868
ag1869
ag2395
ag1872
ag1873
ag1874
ag1875
ag1876
ag1877
a(lp2628
I676
ag2611
aag1878
ag1879
ag1880
ag1881
a(lp2629
I681
ag2621
aag2396
ag1884
ag2397
ag1888
ag1889
ag2398
ag1892
ag2399
ag1895
ag1896
ag1897
ag1898
ag1899
ag1900
ag1901
ag2400
ag1904
ag1905
ag1906
ag2401
ag1909
ag1910
ag1911
ag1912
ag2402
ag1916
ag1917
ag1918
ag2403
ag1921
ag1922
ag1923
ag1924
ag1925
ag1926
a(lp2630
I717
ag2602
aag2404
ag1930
ag1931
ag1932
ag1933
ag1934
ag1935
ag2405
ag1939
ag1940
ag1941
ag2406
ag1944
ag1945
ag1946
ag1947
ag2407
ag1951
ag1952
ag1953
ag2408
ag1956
ag1957
ag1958
ag1959
ag1960
ag1961
ag1962
ag2409
ag1966
ag1967
ag2410
ag1970
ag1971
ag1972
ag1973
ag1974
ag1975
ag1976
a(lp2631
I757
ag2604
aag2411
ag1979
ag1980
ag1981
ag1982
ag1983
ag2412
ag1987
ag1988
ag1989
ag2413
ag1992
ag1993
ag1994
ag1995
ag1996
ag2414
ag1999
ag2000
ag2001
ag2415
ag2004
ag2005
ag2006
ag2007
ag2416
ag2011
ag2012
ag2013
ag2014
a(lp2632
I788
ag2604
aag2417
ag2018
ag2019
ag2418
ag2023
ag2024
ag2025
ag2419
ag2028
ag2029
ag2030
ag2031
ag2032
ag2420
ag2035
ag2036
ag2037
ag2038
ag2039
ag2421
ag2043
ag2044
ag2422
ag2048
ag2049
ag2050
ag2423
ag2053
ag2054
ag2055
ag2056
ag2057
ag2424
ag2061
ag2062
ag2063
ag2064
ag2065
ag2425
ag2068
ag2069
ag2070
ag2071
ag2072
ag2073
ag2074
ag2426
ag2077
ag2078
ag2079
ag2080
ag2081
ag2082
ag2083
a(lp2633
I843
ag2602
aag2427
ag2086
a(lp2634
I846
ag2602
aag2428
ag2089
ag2090
ag2091
ag2092
ag2093
ag2094
ag2429
ag2098
ag2099
ag2100
ag2430
ag2103
ag2104
ag2105
ag2106
ag2107
ag2108
ag2431
ag2111
ag2112
ag2113
ag2432
ag2117
ag2118
ag2433
ag2122
ag2123
ag2124
ag2434
ag2127
ag2128
ag2129
ag2130
ag2131
a(lp2635
I882
ag2602
aag2435
ag2134
ag2135
ag2136
ag2137
ag2138
ag2436
ag2142
ag2143
ag2144
ag2145
ag2437
ag2148
ag2149
ag2150
ag2151
ag2438
ag2154
ag2155
ag2156
ag2157
ag2158
ag2159
ag2439
ag2163
ag2164
ag2165
ag2166
ag2440
ag2169
ag2441
ag2172
ag2173
ag2174
ag2442
ag2178
ag2179
ag2443
ag2182
ag2183
ag2184
ag2185
ag2186
ag2187
ag2188
ag2189
ag2444
ag2192
ag2193
ag2194
ag2195
ag2196
ag2197
a(lp2636
I936
ag2604
aag2445
ag2201
ag2202
ag2203
ag2204
ag2446
ag2207
ag2208
ag2209
ag2447
ag2213
ag2214
ag2215
ag2216
ag2448
ag2219
ag2449
ag2222
ag2223
ag2224
ag2225
ag2226
ag2227
ag2450
ag2231
ag2232
ag2233
ag2451
ag2236
ag2452
ag2239
ag2240
ag2241
ag2242
ag2243
ag2244
ag2245
ag2246
ag2247
ag2453
ag2250
ag2251
ag2252
ag2253
a(lp2637
I981
ag2602
aag2454
ag2256
ag2257
ag2258
ag2259
ag2260
ag2455
ag2263
ag2264
ag2265
ag2266
ag2267
ag2268
ag2269
ag2270
ag2271
ag2272
ag2273
a(lp2638
I1000
ag2602
aag2456
a(lp2639
I1002
ag2599
aag2457
asS'docName'
p2640
S'source-document01114.txt'
p2641
sb.