(iModel.Document
Document
p0
(dp1
S'fmap'
p2
(lp3
(lp4
I0
aI2
aS'ask'
p5
a(lp6
S'*'
p7
ag5
aaa(lp8
I0
aI2
ag5
a(lp9
g7
ag5
aaa(lp10
I0
aI2
ag5
a(lp11
g7
ag5
aaa(lp12
I0
aI2
ag5
a(lp13
g7
ag5
aaa(lp14
I7
aI16
aS'astronomer'
p15
a(lp16
g5
ag15
aaa(lp17
I7
aI16
ag15
a(lp18
g7
ag15
aaa(lp19
I7
aI16
ag15
a(lp20
g7
ag15
aaa(lp21
I7
aI16
ag15
a(lp22
g7
ag15
aaa(lp23
I22
aI25
aS'kids'
p24
a(lp25
g15
ag24
aaa(lp26
I22
aI25
ag24
a(lp27
g5
ag24
aaa(lp28
I22
aI25
ag24
a(lp29
g7
ag24
aaa(lp30
I22
aI25
ag24
a(lp31
g7
ag24
aaa(lp32
I37
aI39
aS'sun'
p33
a(lp34
g24
ag33
aaa(lp35
I37
aI39
ag33
a(lp36
g15
ag33
aaa(lp37
I37
aI39
ag33
a(lp38
g5
ag33
aaa(lp39
I37
aI39
ag33
a(lp40
g7
ag33
aaa(lp41
I45
aI51
aS'largest'
p42
a(lp43
g33
ag42
aaa(lp44
I45
aI51
ag42
a(lp45
g24
ag42
aaa(lp46
I45
aI51
ag42
a(lp47
g15
ag42
aaa(lp48
I45
aI51
ag42
a(lp49
g5
ag42
aaa(lp50
I53
aI56
aS'star'
p51
a(lp52
g42
ag51
aaa(lp53
I53
aI56
ag51
a(lp54
g33
ag51
aaa(lp55
I53
aI56
ag51
a(lp56
g24
ag51
aaa(lp57
I53
aI56
ag51
a(lp58
g15
ag51
aaa(lp59
I66
aI68
aS'sun'
p60
a(lp61
g51
ag60
aaa(lp62
I66
aI68
ag60
a(lp63
g42
ag60
aaa(lp64
I66
aI68
ag60
a(lp65
g33
ag60
aaa(lp66
I66
aI68
ag60
a(lp67
g24
ag60
aaa(lp68
I74
aI80
aS'largest'
p69
a(lp70
g60
ag69
aaa(lp71
I74
aI80
ag69
a(lp72
g51
ag69
aaa(lp73
I74
aI80
ag69
a(lp74
g42
ag69
aaa(lp75
I74
aI80
ag69
a(lp76
g33
ag69
aaa(lp77
I82
aI85
aS'star'
p78
a(lp79
g69
ag78
aaa(lp80
I82
aI85
ag78
a(lp81
g60
ag78
aaa(lp82
I82
aI85
ag78
a(lp83
g51
ag78
aaa(lp84
I82
aI85
ag78
a(lp85
g42
ag78
aaa(lp86
I88
aI95
aS'although'
p87
a(lp88
g78
ag87
aaa(lp89
I88
aI95
ag87
a(lp90
g69
ag87
aaa(lp91
I88
aI95
ag87
a(lp92
g60
ag87
aaa(lp93
I88
aI95
ag87
a(lp94
g51
ag87
aaa(lp95
I101
aI103
aS'sun'
p96
a(lp97
g87
ag96
aaa(lp98
I101
aI103
ag96
a(lp99
g78
ag96
aaa(lp100
I101
aI103
ag96
a(lp101
g69
ag96
aaa(lp102
I101
aI103
ag96
a(lp103
g60
ag96
aaa(lp104
I105
aI110
aS'appear'
p105
a(lp106
g96
ag105
aaa(lp107
I105
aI110
ag105
a(lp108
g87
ag105
aaa(lp109
I105
aI110
ag105
a(lp110
g78
ag105
aaa(lp111
I105
aI110
ag105
a(lp112
g69
ag105
aaa(lp113
I112
aI117
aS'larger'
p114
a(lp115
g105
ag114
aaa(lp116
I112
aI117
ag114
a(lp117
g96
ag114
aaa(lp118
I112
aI117
ag114
a(lp119
g87
ag114
aaa(lp120
I112
aI117
ag114
a(lp121
g78
ag114
aaa(lp122
I122
aI123
aS'us'
p123
a(lp124
g114
ag123
aaa(lp125
I122
aI123
ag123
a(lp126
g105
ag123
aaa(lp127
I122
aI123
ag123
a(lp128
g96
ag123
aaa(lp129
I122
aI123
ag123
a(lp130
g87
ag123
aaa(lp131
I140
aI143
aS'star'
p132
a(lp133
g123
ag132
aaa(lp134
I140
aI143
ag132
a(lp135
g114
ag132
aaa(lp136
I140
aI143
ag132
a(lp137
g105
ag132
aaa(lp138
I140
aI143
ag132
a(lp139
g96
ag132
aaa(lp140
I156
aI159
aS'many'
p141
a(lp142
g132
ag141
aaa(lp143
I156
aI159
ag141
a(lp144
g123
ag141
aaa(lp145
I156
aI159
ag141
a(lp146
g114
ag141
aaa(lp147
I156
aI159
ag141
a(lp148
g105
ag141
aaa(lp149
I161
aI165
aS'stars'
p150
a(lp151
g141
ag150
aaa(lp152
I161
aI165
ag150
a(lp153
g132
ag150
aaa(lp154
I161
aI165
ag150
a(lp155
g123
ag150
aaa(lp156
I161
aI165
ag150
a(lp157
g114
ag150
aaa(lp158
I177
aI180
aS'much'
p159
a(lp160
g150
ag159
aaa(lp161
I177
aI180
ag159
a(lp162
g141
ag159
aaa(lp163
I177
aI180
ag159
a(lp164
g132
ag159
aaa(lp165
I177
aI180
ag159
a(lp166
g123
ag159
aaa(lp167
I182
aI187
aS'larger'
p168
a(lp169
g159
ag168
aaa(lp170
I182
aI187
ag168
a(lp171
g150
ag168
aaa(lp172
I182
aI187
ag168
a(lp173
g141
ag168
aaa(lp174
I182
aI187
ag168
a(lp175
g132
ag168
aaa(lp176
I194
aI196
aS'sun'
p177
a(lp178
g168
ag177
aaa(lp179
I194
aI196
ag177
a(lp180
g159
ag177
aaa(lp181
I194
aI196
ag177
a(lp182
g150
ag177
aaa(lp183
I194
aI196
ag177
a(lp184
g141
ag177
aaa(lp185
I198
aI204
aS'appears'
p186
a(lp187
g177
ag186
aaa(lp188
I198
aI204
ag186
a(lp189
g168
ag186
aaa(lp190
I198
aI204
ag186
a(lp191
g159
ag186
aaa(lp192
I198
aI204
ag186
a(lp193
g150
ag186
aaa(lp194
I209
aI213
aS'large'
p195
a(lp196
g186
ag195
aaa(lp197
I209
aI213
ag195
a(lp198
g177
ag195
aaa(lp199
I209
aI213
ag195
a(lp200
g168
ag195
aaa(lp201
I209
aI213
ag195
a(lp202
g159
ag195
aaa(lp203
I215
aI222
aS'compared'
p204
a(lp205
g195
ag204
aaa(lp206
I215
aI222
ag204
a(lp207
g186
ag204
aaa(lp208
I215
aI222
ag204
a(lp209
g177
ag204
aaa(lp210
I215
aI222
ag204
a(lp211
g168
ag204
aaa(lp212
I237
aI241
aS'stars'
p213
a(lp214
g204
ag213
aaa(lp215
I237
aI241
ag213
a(lp216
g195
ag213
aaa(lp217
I237
aI241
ag213
a(lp218
g186
ag213
aaa(lp219
I237
aI241
ag213
a(lp220
g177
ag213
aaa(lp221
I260
aI263
aS'much'
p222
a(lp223
g213
ag222
aaa(lp224
I260
aI263
ag222
a(lp225
g204
ag222
aaa(lp226
I260
aI263
ag222
a(lp227
g195
ag222
aaa(lp228
I260
aI263
ag222
a(lp229
g186
ag222
aaa(lp230
I265
aI270
aS'closer'
p231
a(lp232
g222
ag231
aaa(lp233
I265
aI270
ag231
a(lp234
g213
ag231
aaa(lp235
I265
aI270
ag231
a(lp236
g204
ag231
aaa(lp237
I265
aI270
ag231
a(lp238
g195
ag231
aaa(lp239
I275
aI276
aS'us'
p240
a(lp241
g231
ag240
aaa(lp242
I275
aI276
ag240
a(lp243
g222
ag240
aaa(lp244
I275
aI276
ag240
a(lp245
g213
ag240
aaa(lp246
I275
aI276
ag240
a(lp247
g204
ag240
aaa(lp248
I293
aI296
aS'star'
p249
a(lp250
g240
ag249
aaa(lp251
I293
aI296
ag249
a(lp252
g231
ag249
aaa(lp253
I293
aI296
ag249
a(lp254
g222
ag249
aaa(lp255
I293
aI296
ag249
a(lp256
g213
ag249
aaa(lp257
I303
aI305
aS'sun'
p258
a(lp259
g249
ag258
aaa(lp260
I303
aI305
ag258
a(lp261
g240
ag258
aaa(lp262
I303
aI305
ag258
a(lp263
g231
ag258
aaa(lp264
I303
aI305
ag258
a(lp265
g222
ag258
aaa(lp266
I318
aI324
aS'average'
p267
a(lp268
g258
ag267
aaa(lp269
I318
aI324
ag267
a(lp270
g249
ag267
aaa(lp271
I318
aI324
ag267
a(lp272
g240
ag267
aaa(lp273
I318
aI324
ag267
a(lp274
g231
ag267
aaa(lp275
I326
aI330
aS'sized'
p276
a(lp277
g267
ag276
aaa(lp278
I326
aI330
ag276
a(lp279
g258
ag276
aaa(lp280
I326
aI330
ag276
a(lp281
g249
ag276
aaa(lp282
I326
aI330
ag276
a(lp283
g240
ag276
aaa(lp284
I332
aI335
aS'star'
p285
a(lp286
g276
ag285
aaa(lp287
I332
aI335
ag285
a(lp288
g267
ag285
aaa(lp289
I332
aI335
ag285
a(lp290
g258
ag285
aaa(lp291
I332
aI335
ag285
a(lp292
g249
ag285
aaa(lp293
I342
aI348
aS'example'
p294
a(lp295
g285
ag294
aaa(lp296
I342
aI348
ag294
a(lp297
g276
ag294
aaa(lp298
I342
aI348
ag294
a(lp299
g267
ag294
aaa(lp300
I342
aI348
ag294
a(lp301
g258
ag294
aaa(lp302
I362
aI365
aS'list'
p303
a(lp304
g294
ag303
aaa(lp305
I362
aI365
ag303
a(lp306
g285
ag303
aaa(lp307
I362
aI365
ag303
a(lp308
g276
ag303
aaa(lp309
I362
aI365
ag303
a(lp310
g267
ag303
aaa(lp311
I382
aI388
aS'largest'
p312
a(lp313
g303
ag312
aaa(lp314
I382
aI388
ag312
a(lp315
g294
ag312
aaa(lp316
I382
aI388
ag312
a(lp317
g285
ag312
aaa(lp318
I382
aI388
ag312
a(lp319
g276
ag312
aaa(lp320
I390
aI394
aS'stars'
p321
a(lp322
g312
ag321
aaa(lp323
I390
aI394
ag321
a(lp324
g303
ag321
aaa(lp325
I390
aI394
ag321
a(lp326
g294
ag321
aaa(lp327
I390
aI394
ag321
a(lp328
g285
ag321
aaa(lp329
I403
aI408
aS'galaxy'
p330
a(lp331
g321
ag330
aaa(lp332
I403
aI408
ag330
a(lp333
g312
ag330
aaa(lp334
I403
aI408
ag330
a(lp335
g303
ag330
aaa(lp336
I403
aI408
ag330
a(lp337
g294
ag330
aaa(lp338
I423
aI429
aS'compare'
p339
a(lp340
g330
ag339
aaa(lp341
I423
aI429
ag339
a(lp342
g321
ag339
aaa(lp343
I423
aI429
ag339
a(lp344
g312
ag339
aaa(lp345
I423
aI429
ag339
a(lp346
g303
ag339
aaa(lp347
I438
aI440
aS'sun'
p348
a(lp349
g339
ag348
aaa(lp350
I438
aI440
ag348
a(lp351
g330
ag348
aaa(lp352
I438
aI440
ag348
a(lp353
g321
ag348
aaa(lp354
I438
aI440
ag348
a(lp355
g312
ag348
aaa(lp356
I443
aI444
aS'mu'
p357
a(lp358
g348
ag357
aaa(lp359
I443
aI444
ag357
a(lp360
g339
ag357
aaa(lp361
I443
aI444
ag357
a(lp362
g330
ag357
aaa(lp363
I443
aI444
ag357
a(lp364
g321
ag357
aaa(lp365
I446
aI450
aS'cephi'
p366
a(lp367
g357
ag366
aaa(lp368
I446
aI450
ag366
a(lp369
g348
ag366
aaa(lp370
I446
aI450
ag366
a(lp371
g339
ag366
aaa(lp372
I446
aI450
ag366
a(lp373
g330
ag366
aaa(lp374
I460
aI463
aS'1500'
p375
a(lp376
g366
ag375
aaa(lp377
I460
aI463
ag375
a(lp378
g357
ag375
aaa(lp379
I460
aI463
ag375
a(lp380
g348
ag375
aaa(lp381
I460
aI463
ag375
a(lp382
g339
ag375
aaa(lp383
I465
aI469
aS'times'
p384
a(lp385
g375
ag384
aaa(lp386
I465
aI469
ag384
a(lp387
g366
ag384
aaa(lp388
I465
aI469
ag384
a(lp389
g357
ag384
aaa(lp390
I465
aI469
ag384
a(lp391
g348
ag384
aaa(lp392
I475
aI478
aS'size'
p393
a(lp394
g384
ag393
aaa(lp395
I475
aI478
ag393
a(lp396
g375
ag393
aaa(lp397
I475
aI478
ag393
a(lp398
g366
ag393
aaa(lp399
I475
aI478
ag393
a(lp400
g357
ag393
aaa(lp401
I487
aI489
aS'sun'
p402
a(lp403
g393
ag402
aaa(lp404
I487
aI489
ag402
a(lp405
g384
ag402
aaa(lp406
I487
aI489
ag402
a(lp407
g375
ag402
aaa(lp408
I487
aI489
ag402
a(lp409
g366
ag402
aaa(lp410
I491
aI500
aS'betelgeuse'
p411
a(lp412
g402
ag411
aaa(lp413
I491
aI500
ag411
a(lp414
g393
ag411
aaa(lp415
I491
aI500
ag411
a(lp416
g384
ag411
aaa(lp417
I491
aI500
ag411
a(lp418
g375
ag411
aaa(lp419
I510
aI512
aS'900'
p420
a(lp421
g411
ag420
aaa(lp422
I510
aI512
ag420
a(lp423
g402
ag420
aaa(lp424
I510
aI512
ag420
a(lp425
g393
ag420
aaa(lp426
I510
aI512
ag420
a(lp427
g384
ag420
aaa(lp428
I514
aI518
aS'times'
p429
a(lp430
g420
ag429
aaa(lp431
I514
aI518
ag429
a(lp432
g411
ag429
aaa(lp433
I514
aI518
ag429
a(lp434
g402
ag429
aaa(lp435
I514
aI518
ag429
a(lp436
g393
ag429
aaa(lp437
I524
aI527
aS'size'
p438
a(lp439
g429
ag438
aaa(lp440
I524
aI527
ag438
a(lp441
g420
ag438
aaa(lp442
I524
aI527
ag438
a(lp443
g411
ag438
aaa(lp444
I524
aI527
ag438
a(lp445
g402
ag438
aaa(lp446
I536
aI538
aS'sun'
p447
a(lp448
g438
ag447
aaa(lp449
I536
aI538
ag447
a(lp450
g429
ag447
aaa(lp451
I536
aI538
ag447
a(lp452
g420
ag447
aaa(lp453
I536
aI538
ag447
a(lp454
g411
ag447
aaa(lp455
I540
aI546
aS'antares'
p456
a(lp457
g447
ag456
aaa(lp458
I540
aI546
ag456
a(lp459
g438
ag456
aaa(lp460
I540
aI546
ag456
a(lp461
g429
ag456
aaa(lp462
I540
aI546
ag456
a(lp463
g420
ag456
aaa(lp464
I556
aI558
aS'530'
p465
a(lp466
g456
ag465
aaa(lp467
I556
aI558
ag465
a(lp468
g447
ag465
aaa(lp469
I556
aI558
ag465
a(lp470
g438
ag465
aaa(lp471
I556
aI558
ag465
a(lp472
g429
ag465
aaa(lp473
I560
aI564
aS'times'
p474
a(lp475
g465
ag474
aaa(lp476
I560
aI564
ag474
a(lp477
g456
ag474
aaa(lp478
I560
aI564
ag474
a(lp479
g447
ag474
aaa(lp480
I560
aI564
ag474
a(lp481
g438
ag474
aaa(lp482
I570
aI573
aS'size'
p483
a(lp484
g474
ag483
aaa(lp485
I570
aI573
ag483
a(lp486
g465
ag483
aaa(lp487
I570
aI573
ag483
a(lp488
g456
ag483
aaa(lp489
I570
aI573
ag483
a(lp490
g447
ag483
aaa(lp491
I582
aI584
aS'sun'
p492
a(lp493
g483
ag492
aaa(lp494
I582
aI584
ag492
a(lp495
g474
ag492
aaa(lp496
I582
aI584
ag492
a(lp497
g465
ag492
aaa(lp498
I582
aI584
ag492
a(lp499
g456
ag492
aaa(lp500
I586
aI590
aS'deneb'
p501
a(lp502
g492
ag501
aaa(lp503
I586
aI590
ag501
a(lp504
g483
ag501
aaa(lp505
I586
aI590
ag501
a(lp506
g474
ag501
aaa(lp507
I586
aI590
ag501
a(lp508
g465
ag501
aaa(lp509
I600
aI602
aS'145'
p510
a(lp511
g501
ag510
aaa(lp512
I600
aI602
ag510
a(lp513
g492
ag510
aaa(lp514
I600
aI602
ag510
a(lp515
g483
ag510
aaa(lp516
I600
aI602
ag510
a(lp517
g474
ag510
aaa(lp518
I604
aI608
aS'times'
p519
a(lp520
g510
ag519
aaa(lp521
I604
aI608
ag519
a(lp522
g501
ag519
aaa(lp523
I604
aI608
ag519
a(lp524
g492
ag519
aaa(lp525
I604
aI608
ag519
a(lp526
g483
ag519
aaa(lp527
I614
aI617
aS'size'
p528
a(lp529
g519
ag528
aaa(lp530
I614
aI617
ag528
a(lp531
g510
ag528
aaa(lp532
I614
aI617
ag528
a(lp533
g501
ag528
aaa(lp534
I614
aI617
ag528
a(lp535
g492
ag528
aaasS'wordMap'
p536
(lp537
(lp538
I0
aI2
ag5
a(lp539
(lp540
I0
aS'a'
p541
aa(lp542
I1
aS's'
p543
aa(lp544
I2
aS'k'
p545
aaaa(lp546
I4
aI5
aS'an'
p547
a(lp548
(lp549
I4
ag541
aa(lp550
I5
aS'n'
p551
aaaa(lp552
I7
aI16
ag15
a(lp553
(lp554
I7
ag541
aa(lp555
I8
ag543
aa(lp556
I9
aS't'
p557
aa(lp558
I10
aS'r'
p559
aa(lp560
I11
aS'o'
p561
aa(lp562
I12
ag551
aa(lp563
I13
ag561
aa(lp564
I14
aS'm'
p565
aa(lp566
I15
aS'e'
p567
aa(lp568
I16
ag559
aaaa(lp569
I18
aI20
aS'for'
p570
a(lp571
(lp572
I18
aS'f'
p573
aa(lp574
I19
ag561
aa(lp575
I20
ag559
aaaa(lp576
I22
aI25
ag24
a(lp577
(lp578
I22
ag545
aa(lp579
I23
aS'i'
p580
aa(lp581
I24
aS'd'
p582
aa(lp583
I25
ag543
aaaa(lp584
I30
aI31
aS'is'
p585
a(lp586
(lp587
I30
ag580
aa(lp588
I31
ag543
aaaa(lp589
I33
aI35
aS'the'
p590
a(lp591
(lp592
I33
ag557
aa(lp593
I34
aS'h'
p594
aa(lp595
I35
ag567
aaaa(lp596
I37
aI39
ag33
a(lp597
(lp598
I37
ag543
aa(lp599
I38
aS'u'
p600
aa(lp601
I39
ag551
aaaa(lp602
I41
aI43
aS'the'
p603
a(lp604
(lp605
I41
ag557
aa(lp606
I42
ag594
aa(lp607
I43
ag567
aaaa(lp608
I45
aI51
ag42
a(lp609
(lp610
I45
aS'l'
p611
aa(lp612
I46
ag541
aa(lp613
I47
ag559
aa(lp614
I48
aS'g'
p615
aa(lp616
I49
ag567
aa(lp617
I50
ag543
aa(lp618
I51
ag557
aaaa(lp619
I53
aI56
ag51
a(lp620
(lp621
I53
ag543
aa(lp622
I54
ag557
aa(lp623
I55
ag541
aa(lp624
I56
ag559
aaaa(lp625
I59
aI60
aS'is'
p626
a(lp627
(lp628
I59
ag580
aa(lp629
I60
ag543
aaaa(lp630
I62
aI64
aS'the'
p631
a(lp632
(lp633
I62
ag557
aa(lp634
I63
ag594
aa(lp635
I64
ag567
aaaa(lp636
I66
aI68
ag60
a(lp637
(lp638
I66
ag543
aa(lp639
I67
ag600
aa(lp640
I68
ag551
aaaa(lp641
I70
aI72
aS'the'
p642
a(lp643
(lp644
I70
ag557
aa(lp645
I71
ag594
aa(lp646
I72
ag567
aaaa(lp647
I74
aI80
ag69
a(lp648
(lp649
I74
ag611
aa(lp650
I75
ag541
aa(lp651
I76
ag559
aa(lp652
I77
ag615
aa(lp653
I78
ag567
aa(lp654
I79
ag543
aa(lp655
I80
ag557
aaaa(lp656
I82
aI85
ag78
a(lp657
(lp658
I82
ag543
aa(lp659
I83
ag557
aa(lp660
I84
ag541
aa(lp661
I85
ag559
aaaa(lp662
I88
aI95
ag87
a(lp663
(lp664
I88
ag541
aa(lp665
I89
ag611
aa(lp666
I90
ag557
aa(lp667
I91
ag594
aa(lp668
I92
ag561
aa(lp669
I93
ag600
aa(lp670
I94
ag615
aa(lp671
I95
ag594
aaaa(lp672
I97
aI99
aS'the'
p673
a(lp674
(lp675
I97
ag557
aa(lp676
I98
ag594
aa(lp677
I99
ag567
aaaa(lp678
I101
aI103
ag96
a(lp679
(lp680
I101
ag543
aa(lp681
I102
ag600
aa(lp682
I103
ag551
aaaa(lp683
I105
aI110
ag105
a(lp684
(lp685
I105
ag541
aa(lp686
I106
aS'p'
p687
aa(lp688
I107
ag687
aa(lp689
I108
ag567
aa(lp690
I109
ag541
aa(lp691
I110
ag559
aaaa(lp692
I112
aI117
ag114
a(lp693
(lp694
I112
ag611
aa(lp695
I113
ag541
aa(lp696
I114
ag559
aa(lp697
I115
ag615
aa(lp698
I116
ag567
aa(lp699
I117
ag559
aaaa(lp700
I119
aI120
aS'to'
p701
a(lp702
(lp703
I119
ag557
aa(lp704
I120
ag561
aaaa(lp705
I122
aI123
ag123
a(lp706
(lp707
I122
ag600
aa(lp708
I123
ag543
aaaa(lp709
I125
aI128
aS'than'
p710
a(lp711
(lp712
I125
ag557
aa(lp713
I126
ag594
aa(lp714
I127
ag541
aa(lp715
I128
ag551
aaaa(lp716
I130
aI132
aS'any'
p717
a(lp718
(lp719
I130
ag541
aa(lp720
I131
ag551
aa(lp721
I132
aS'y'
p722
aaaa(lp723
I134
aI138
aS'other'
p724
a(lp725
(lp726
I134
ag561
aa(lp727
I135
ag557
aa(lp728
I136
ag594
aa(lp729
I137
ag567
aa(lp730
I138
ag559
aaaa(lp731
I140
aI143
ag132
a(lp732
(lp733
I140
ag543
aa(lp734
I141
ag557
aa(lp735
I142
ag541
aa(lp736
I143
ag559
aaaa(lp737
I146
aI150
aS'there'
p738
a(lp739
(lp740
I146
ag557
aa(lp741
I147
ag594
aa(lp742
I148
ag567
aa(lp743
I149
ag559
aa(lp744
I150
ag567
aaaa(lp745
I152
aI154
aS'are'
p746
a(lp747
(lp748
I152
ag541
aa(lp749
I153
ag559
aa(lp750
I154
ag567
aaaa(lp751
I156
aI159
ag141
a(lp752
(lp753
I156
ag565
aa(lp754
I157
ag541
aa(lp755
I158
ag551
aa(lp756
I159
ag722
aaaa(lp757
I161
aI165
ag150
a(lp758
(lp759
I161
ag543
aa(lp760
I162
ag557
aa(lp761
I163
ag541
aa(lp762
I164
ag559
aa(lp763
I165
ag543
aaaa(lp764
I167
aI171
aS'which'
p765
a(lp766
(lp767
I167
aS'w'
p768
aa(lp769
I168
ag594
aa(lp770
I169
ag580
aa(lp771
I170
aS'c'
p772
aa(lp773
I171
ag594
aaaa(lp774
I173
aI175
aS'are'
p775
a(lp776
(lp777
I173
ag541
aa(lp778
I174
ag559
aa(lp779
I175
ag567
aaaa(lp780
I177
aI180
ag159
a(lp781
(lp782
I177
ag565
aa(lp783
I178
ag600
aa(lp784
I179
ag772
aa(lp785
I180
ag594
aaaa(lp786
I182
aI187
ag168
a(lp787
(lp788
I182
ag611
aa(lp789
I183
ag541
aa(lp790
I184
ag559
aa(lp791
I185
ag615
aa(lp792
I186
ag567
aa(lp793
I187
ag559
aaaa(lp794
I190
aI192
aS'the'
p795
a(lp796
(lp797
I190
ag557
aa(lp798
I191
ag594
aa(lp799
I192
ag567
aaaa(lp800
I194
aI196
ag177
a(lp801
(lp802
I194
ag543
aa(lp803
I195
ag600
aa(lp804
I196
ag551
aaaa(lp805
I198
aI204
ag186
a(lp806
(lp807
I198
ag541
aa(lp808
I199
ag687
aa(lp809
I200
ag687
aa(lp810
I201
ag567
aa(lp811
I202
ag541
aa(lp812
I203
ag559
aa(lp813
I204
ag543
aaaa(lp814
I206
aI207
aS'so'
p815
a(lp816
(lp817
I206
ag543
aa(lp818
I207
ag561
aaaa(lp819
I209
aI213
ag195
a(lp820
(lp821
I209
ag611
aa(lp822
I210
ag541
aa(lp823
I211
ag559
aa(lp824
I212
ag615
aa(lp825
I213
ag567
aaaa(lp826
I215
aI222
ag204
a(lp827
(lp828
I215
ag772
aa(lp829
I216
ag561
aa(lp830
I217
ag565
aa(lp831
I218
ag687
aa(lp832
I219
ag541
aa(lp833
I220
ag559
aa(lp834
I221
ag567
aa(lp835
I222
ag582
aaaa(lp836
I224
aI225
aS'to'
p837
a(lp838
(lp839
I224
ag557
aa(lp840
I225
ag561
aaaa(lp841
I227
aI229
aS'the'
p842
a(lp843
(lp844
I227
ag557
aa(lp845
I228
ag594
aa(lp846
I229
ag567
aaaa(lp847
I231
aI235
aS'other'
p848
a(lp849
(lp850
I231
ag561
aa(lp851
I232
ag557
aa(lp852
I233
ag594
aa(lp853
I234
ag567
aa(lp854
I235
ag559
aaaa(lp855
I237
aI241
ag213
a(lp856
(lp857
I237
ag543
aa(lp858
I238
ag557
aa(lp859
I239
ag541
aa(lp860
I240
ag559
aa(lp861
I241
ag543
aaaa(lp862
I243
aI249
aS'because'
p863
a(lp864
(lp865
I243
aS'b'
p866
aa(lp867
I244
ag567
aa(lp868
I245
ag772
aa(lp869
I246
ag541
aa(lp870
I247
ag600
aa(lp871
I248
ag543
aa(lp872
I249
ag567
aaaa(lp873
I251
aI252
aS'it'
p874
a(lp875
(lp876
I251
ag580
aa(lp877
I252
ag557
aaaa(lp878
I254
aI255
aS'is'
p879
a(lp880
(lp881
I254
ag580
aa(lp882
I255
ag543
aaaa(lp883
I257
aI258
aS'so'
p884
a(lp885
(lp886
I257
ag543
aa(lp887
I258
ag561
aaaa(lp888
I260
aI263
ag222
a(lp889
(lp890
I260
ag565
aa(lp891
I261
ag600
aa(lp892
I262
ag772
aa(lp893
I263
ag594
aaaa(lp894
I265
aI270
ag231
a(lp895
(lp896
I265
ag772
aa(lp897
I266
ag611
aa(lp898
I267
ag561
aa(lp899
I268
ag543
aa(lp900
I269
ag567
aa(lp901
I270
ag559
aaaa(lp902
I272
aI273
aS'to'
p903
a(lp904
(lp905
I272
ag557
aa(lp906
I273
ag561
aaaa(lp907
I275
aI276
ag240
a(lp908
(lp909
I275
ag600
aa(lp910
I276
ag543
aaaa(lp911
I278
aI281
aS'than'
p912
a(lp913
(lp914
I278
ag557
aa(lp915
I279
ag594
aa(lp916
I280
ag541
aa(lp917
I281
ag551
aaaa(lp918
I283
aI285
aS'any'
p919
a(lp920
(lp921
I283
ag541
aa(lp922
I284
ag551
aa(lp923
I285
ag722
aaaa(lp924
I287
aI291
aS'other'
p925
a(lp926
(lp927
I287
ag561
aa(lp928
I288
ag557
aa(lp929
I289
ag594
aa(lp930
I290
ag567
aa(lp931
I291
ag559
aaaa(lp932
I293
aI296
ag249
a(lp933
(lp934
I293
ag543
aa(lp935
I294
ag557
aa(lp936
I295
ag541
aa(lp937
I296
ag559
aaaa(lp938
I299
aI301
aS'the'
p939
a(lp940
(lp941
I299
ag557
aa(lp942
I300
ag594
aa(lp943
I301
ag567
aaaa(lp944
I303
aI305
ag258
a(lp945
(lp946
I303
ag543
aa(lp947
I304
ag600
aa(lp948
I305
ag551
aaaa(lp949
I307
aI308
aS'is'
p950
a(lp951
(lp952
I307
ag580
aa(lp953
I308
ag543
aaaa(lp954
I310
aI313
aS'just'
p955
a(lp956
(lp957
I310
aS'j'
p958
aa(lp959
I311
ag600
aa(lp960
I312
ag543
aa(lp961
I313
ag557
aaaa(lp962
I315
aI316
aS'an'
p963
a(lp964
(lp965
I315
ag541
aa(lp966
I316
ag551
aaaa(lp967
I318
aI324
ag267
a(lp968
(lp969
I318
ag541
aa(lp970
I319
aS'v'
p971
aa(lp972
I320
ag567
aa(lp973
I321
ag559
aa(lp974
I322
ag541
aa(lp975
I323
ag615
aa(lp976
I324
ag567
aaaa(lp977
I326
aI330
ag276
a(lp978
(lp979
I326
ag543
aa(lp980
I327
ag580
aa(lp981
I328
aS'z'
p982
aa(lp983
I329
ag567
aa(lp984
I330
ag582
aaaa(lp985
I332
aI335
ag285
a(lp986
(lp987
I332
ag543
aa(lp988
I333
ag557
aa(lp989
I334
ag541
aa(lp990
I335
ag559
aaaa(lp991
I338
aI340
aS'for'
p992
a(lp993
(lp994
I338
ag573
aa(lp995
I339
ag561
aa(lp996
I340
ag559
aaaa(lp997
I342
aI348
ag294
a(lp998
(lp999
I342
ag567
aa(lp1000
I343
aS'x'
p1001
aa(lp1002
I344
ag541
aa(lp1003
I345
ag565
aa(lp1004
I346
ag687
aa(lp1005
I347
ag611
aa(lp1006
I348
ag567
aaaa(lp1007
I351
aI355
aS'below'
p1008
a(lp1009
(lp1010
I351
ag866
aa(lp1011
I352
ag567
aa(lp1012
I353
ag611
aa(lp1013
I354
ag561
aa(lp1014
I355
ag768
aaaa(lp1015
I357
aI358
aS'is'
p1016
a(lp1017
(lp1018
I357
ag580
aa(lp1019
I358
ag543
aaaa(lp1020
I360
aI360
ag541
a(lp1021
(lp1022
I360
ag541
aaaa(lp1023
I362
aI365
ag303
a(lp1024
(lp1025
I362
ag611
aa(lp1026
I363
ag580
aa(lp1027
I364
ag543
aa(lp1028
I365
ag557
aaaa(lp1029
I367
aI368
aS'of'
p1030
a(lp1031
(lp1032
I367
ag561
aa(lp1033
I368
ag573
aaaa(lp1034
I370
aI373
aS'some'
p1035
a(lp1036
(lp1037
I370
ag543
aa(lp1038
I371
ag561
aa(lp1039
I372
ag565
aa(lp1040
I373
ag567
aaaa(lp1041
I375
aI376
aS'of'
p1042
a(lp1043
(lp1044
I375
ag561
aa(lp1045
I376
ag573
aaaa(lp1046
I378
aI380
aS'the'
p1047
a(lp1048
(lp1049
I378
ag557
aa(lp1050
I379
ag594
aa(lp1051
I380
ag567
aaaa(lp1052
I382
aI388
ag312
a(lp1053
(lp1054
I382
ag611
aa(lp1055
I383
ag541
aa(lp1056
I384
ag559
aa(lp1057
I385
ag615
aa(lp1058
I386
ag567
aa(lp1059
I387
ag543
aa(lp1060
I388
ag557
aaaa(lp1061
I390
aI394
ag321
a(lp1062
(lp1063
I390
ag543
aa(lp1064
I391
ag557
aa(lp1065
I392
ag541
aa(lp1066
I393
ag559
aa(lp1067
I394
ag543
aaaa(lp1068
I396
aI397
aS'in'
p1069
a(lp1070
(lp1071
I396
ag580
aa(lp1072
I397
ag551
aaaa(lp1073
I399
aI401
aS'our'
p1074
a(lp1075
(lp1076
I399
ag561
aa(lp1077
I400
ag600
aa(lp1078
I401
ag559
aaaa(lp1079
I403
aI408
ag330
a(lp1080
(lp1081
I403
ag615
aa(lp1082
I404
ag541
aa(lp1083
I405
ag611
aa(lp1084
I406
ag541
aa(lp1085
I407
ag1001
aa(lp1086
I408
ag722
aaaa(lp1087
I410
aI412
aS'and'
p1088
a(lp1089
(lp1090
I410
ag541
aa(lp1091
I411
ag551
aa(lp1092
I412
ag582
aaaa(lp1093
I414
aI416
aS'how'
p1094
a(lp1095
(lp1096
I414
ag594
aa(lp1097
I415
ag561
aa(lp1098
I416
ag768
aaaa(lp1099
I418
aI421
aS'they'
p1100
a(lp1101
(lp1102
I418
ag557
aa(lp1103
I419
ag594
aa(lp1104
I420
ag567
aa(lp1105
I421
ag722
aaaa(lp1106
I423
aI429
ag339
a(lp1107
(lp1108
I423
ag772
aa(lp1109
I424
ag561
aa(lp1110
I425
ag565
aa(lp1111
I426
ag687
aa(lp1112
I427
ag541
aa(lp1113
I428
ag559
aa(lp1114
I429
ag567
aaaa(lp1115
I431
aI432
aS'to'
p1116
a(lp1117
(lp1118
I431
ag557
aa(lp1119
I432
ag561
aaaa(lp1120
I434
aI436
aS'our'
p1121
a(lp1122
(lp1123
I434
ag561
aa(lp1124
I435
ag600
aa(lp1125
I436
ag559
aaaa(lp1126
I438
aI440
ag348
a(lp1127
(lp1128
I438
ag543
aa(lp1129
I439
ag600
aa(lp1130
I440
ag551
aaaa(lp1131
I443
aI444
ag357
a(lp1132
(lp1133
I443
ag565
aa(lp1134
I444
ag600
aaaa(lp1135
I446
aI450
ag366
a(lp1136
(lp1137
I446
ag772
aa(lp1138
I447
ag567
aa(lp1139
I448
ag687
aa(lp1140
I449
ag594
aa(lp1141
I450
ag580
aaaa(lp1142
I454
aI458
aS'about'
p1143
a(lp1144
(lp1145
I454
ag541
aa(lp1146
I455
ag866
aa(lp1147
I456
ag561
aa(lp1148
I457
ag600
aa(lp1149
I458
ag557
aaaa(lp1150
I460
aI463
ag375
a(lp1151
(lp1152
I460
aS'1'
p1153
aa(lp1154
I461
aS'5'
p1155
aa(lp1156
I462
aS'0'
p1157
aa(lp1158
I463
ag1157
aaaa(lp1159
I465
aI469
ag384
a(lp1160
(lp1161
I465
ag557
aa(lp1162
I466
ag580
aa(lp1163
I467
ag565
aa(lp1164
I468
ag567
aa(lp1165
I469
ag543
aaaa(lp1166
I471
aI473
aS'the'
p1167
a(lp1168
(lp1169
I471
ag557
aa(lp1170
I472
ag594
aa(lp1171
I473
ag567
aaaa(lp1172
I475
aI478
ag393
a(lp1173
(lp1174
I475
ag543
aa(lp1175
I476
ag580
aa(lp1176
I477
ag982
aa(lp1177
I478
ag567
aaaa(lp1178
I480
aI481
aS'of'
p1179
a(lp1180
(lp1181
I480
ag561
aa(lp1182
I481
ag573
aaaa(lp1183
I483
aI485
aS'our'
p1184
a(lp1185
(lp1186
I483
ag561
aa(lp1187
I484
ag600
aa(lp1188
I485
ag559
aaaa(lp1189
I487
aI489
ag402
a(lp1190
(lp1191
I487
ag543
aa(lp1192
I488
ag600
aa(lp1193
I489
ag551
aaaa(lp1194
I491
aI500
ag411
a(lp1195
(lp1196
I491
ag866
aa(lp1197
I492
ag567
aa(lp1198
I493
ag557
aa(lp1199
I494
ag567
aa(lp1200
I495
ag611
aa(lp1201
I496
ag615
aa(lp1202
I497
ag567
aa(lp1203
I498
ag600
aa(lp1204
I499
ag543
aa(lp1205
I500
ag567
aaaa(lp1206
I504
aI508
aS'about'
p1207
a(lp1208
(lp1209
I504
ag541
aa(lp1210
I505
ag866
aa(lp1211
I506
ag561
aa(lp1212
I507
ag600
aa(lp1213
I508
ag557
aaaa(lp1214
I510
aI512
ag420
a(lp1215
(lp1216
I510
aS'9'
p1217
aa(lp1218
I511
ag1157
aa(lp1219
I512
ag1157
aaaa(lp1220
I514
aI518
ag429
a(lp1221
(lp1222
I514
ag557
aa(lp1223
I515
ag580
aa(lp1224
I516
ag565
aa(lp1225
I517
ag567
aa(lp1226
I518
ag543
aaaa(lp1227
I520
aI522
aS'the'
p1228
a(lp1229
(lp1230
I520
ag557
aa(lp1231
I521
ag594
aa(lp1232
I522
ag567
aaaa(lp1233
I524
aI527
ag438
a(lp1234
(lp1235
I524
ag543
aa(lp1236
I525
ag580
aa(lp1237
I526
ag982
aa(lp1238
I527
ag567
aaaa(lp1239
I529
aI530
aS'of'
p1240
a(lp1241
(lp1242
I529
ag561
aa(lp1243
I530
ag573
aaaa(lp1244
I532
aI534
aS'our'
p1245
a(lp1246
(lp1247
I532
ag561
aa(lp1248
I533
ag600
aa(lp1249
I534
ag559
aaaa(lp1250
I536
aI538
ag447
a(lp1251
(lp1252
I536
ag543
aa(lp1253
I537
ag600
aa(lp1254
I538
ag551
aaaa(lp1255
I540
aI546
ag456
a(lp1256
(lp1257
I540
ag541
aa(lp1258
I541
ag551
aa(lp1259
I542
ag557
aa(lp1260
I543
ag541
aa(lp1261
I544
ag559
aa(lp1262
I545
ag567
aa(lp1263
I546
ag543
aaaa(lp1264
I550
aI554
aS'about'
p1265
a(lp1266
(lp1267
I550
ag541
aa(lp1268
I551
ag866
aa(lp1269
I552
ag561
aa(lp1270
I553
ag600
aa(lp1271
I554
ag557
aaaa(lp1272
I556
aI558
ag465
a(lp1273
(lp1274
I556
ag1155
aa(lp1275
I557
aS'3'
p1276
aa(lp1277
I558
ag1157
aaaa(lp1278
I560
aI564
ag474
a(lp1279
(lp1280
I560
ag557
aa(lp1281
I561
ag580
aa(lp1282
I562
ag565
aa(lp1283
I563
ag567
aa(lp1284
I564
ag543
aaaa(lp1285
I566
aI568
aS'the'
p1286
a(lp1287
(lp1288
I566
ag557
aa(lp1289
I567
ag594
aa(lp1290
I568
ag567
aaaa(lp1291
I570
aI573
ag483
a(lp1292
(lp1293
I570
ag543
aa(lp1294
I571
ag580
aa(lp1295
I572
ag982
aa(lp1296
I573
ag567
aaaa(lp1297
I575
aI576
aS'of'
p1298
a(lp1299
(lp1300
I575
ag561
aa(lp1301
I576
ag573
aaaa(lp1302
I578
aI580
aS'our'
p1303
a(lp1304
(lp1305
I578
ag561
aa(lp1306
I579
ag600
aa(lp1307
I580
ag559
aaaa(lp1308
I582
aI584
ag492
a(lp1309
(lp1310
I582
ag543
aa(lp1311
I583
ag600
aa(lp1312
I584
ag551
aaaa(lp1313
I586
aI590
ag501
a(lp1314
(lp1315
I586
ag582
aa(lp1316
I587
ag567
aa(lp1317
I588
ag551
aa(lp1318
I589
ag567
aa(lp1319
I590
ag866
aaaa(lp1320
I594
aI598
aS'about'
p1321
a(lp1322
(lp1323
I594
ag541
aa(lp1324
I595
ag866
aa(lp1325
I596
ag561
aa(lp1326
I597
ag600
aa(lp1327
I598
ag557
aaaa(lp1328
I600
aI602
ag510
a(lp1329
(lp1330
I600
ag1153
aa(lp1331
I601
aS'4'
p1332
aa(lp1333
I602
ag1155
aaaa(lp1334
I604
aI608
ag519
a(lp1335
(lp1336
I604
ag557
aa(lp1337
I605
ag580
aa(lp1338
I606
ag565
aa(lp1339
I607
ag567
aa(lp1340
I608
ag543
aaaa(lp1341
I610
aI612
aS'the'
p1342
a(lp1343
(lp1344
I610
ag557
aa(lp1345
I611
ag594
aa(lp1346
I612
ag567
aaaa(lp1347
I614
aI617
ag528
a(lp1348
(lp1349
I614
ag543
aa(lp1350
I615
ag580
aa(lp1351
I616
ag982
aa(lp1352
I617
ag567
aaaa(lp1353
I619
aI620
aS'of'
p1354
a(lp1355
(lp1356
I619
ag561
aa(lp1357
I620
ag573
aaaa(lp1358
I622
aI624
aS'our'
p1359
a(lp1360
(lp1361
I622
ag561
aa(lp1362
I623
ag600
aa(lp1363
I624
ag559
aaaasS'cleanCharacterMap'
p1364
(lp1365
g540
ag542
ag544
a(lp1366
I3
aS' '
p1367
aag549
ag550
a(lp1368
I6
ag1367
aag554
ag555
ag556
ag558
ag560
ag562
ag563
ag564
ag566
ag568
a(lp1369
I17
ag1367
aag572
ag574
ag575
a(lp1370
I21
ag1367
aag578
ag579
ag581
ag583
a(lp1371
I27
ag1367
aa(lp1372
I29
ag1367
aag587
ag588
a(lp1373
I32
ag1367
aag592
ag593
ag595
a(lp1374
I36
ag1367
aag598
ag599
ag601
a(lp1375
I40
ag1367
aag605
ag606
ag607
a(lp1376
I44
ag1367
aag610
ag612
ag613
ag614
ag616
ag617
ag618
a(lp1377
I52
ag1367
aag621
ag622
ag623
ag624
a(lp1378
I58
ag1367
aag628
ag629
a(lp1379
I61
ag1367
aag633
ag634
ag635
a(lp1380
I65
ag1367
aag638
ag639
ag640
a(lp1381
I69
ag1367
aag644
ag645
ag646
a(lp1382
I73
ag1367
aag649
ag650
ag651
ag652
ag653
ag654
ag655
a(lp1383
I81
ag1367
aag658
ag659
ag660
ag661
a(lp1384
I87
ag1367
aag664
ag665
ag666
ag667
ag668
ag669
ag670
ag671
a(lp1385
I96
ag1367
aag675
ag676
ag677
a(lp1386
I100
ag1367
aag680
ag681
ag682
a(lp1387
I104
ag1367
aag685
ag686
ag688
ag689
ag690
ag691
a(lp1388
I111
ag1367
aag694
ag695
ag696
ag697
ag698
ag699
a(lp1389
I118
ag1367
aag703
ag704
a(lp1390
I121
ag1367
aag707
ag708
a(lp1391
I124
ag1367
aag712
ag713
ag714
ag715
a(lp1392
I129
ag1367
aag719
ag720
ag721
a(lp1393
I133
ag1367
aag726
ag727
ag728
ag729
ag730
a(lp1394
I139
ag1367
aag733
ag734
ag735
ag736
a(lp1395
I145
ag1367
aag740
ag741
ag742
ag743
ag744
a(lp1396
I151
ag1367
aag748
ag749
ag750
a(lp1397
I155
ag1367
aag753
ag754
ag755
ag756
a(lp1398
I160
ag1367
aag759
ag760
ag761
ag762
ag763
a(lp1399
I166
ag1367
aag767
ag769
ag770
ag771
ag773
a(lp1400
I172
ag1367
aag777
ag778
ag779
a(lp1401
I176
ag1367
aag782
ag783
ag784
ag785
a(lp1402
I181
ag1367
aag788
ag789
ag790
ag791
ag792
ag793
a(lp1403
I189
ag1367
aag797
ag798
ag799
a(lp1404
I193
ag1367
aag802
ag803
ag804
a(lp1405
I197
ag1367
aag807
ag808
ag809
ag810
ag811
ag812
ag813
a(lp1406
I205
ag1367
aag817
ag818
a(lp1407
I208
ag1367
aag821
ag822
ag823
ag824
ag825
a(lp1408
I214
ag1367
aag828
ag829
ag830
ag831
ag832
ag833
ag834
ag835
a(lp1409
I223
ag1367
aag839
ag840
a(lp1410
I226
ag1367
aag844
ag845
ag846
a(lp1411
I230
ag1367
aag850
ag851
ag852
ag853
ag854
a(lp1412
I236
ag1367
aag857
ag858
ag859
ag860
ag861
a(lp1413
I242
ag1367
aag865
ag867
ag868
ag869
ag870
ag871
ag872
a(lp1414
I250
ag1367
aag876
ag877
a(lp1415
I253
ag1367
aag881
ag882
a(lp1416
I256
ag1367
aag886
ag887
a(lp1417
I259
ag1367
aag890
ag891
ag892
ag893
a(lp1418
I264
ag1367
aag896
ag897
ag898
ag899
ag900
ag901
a(lp1419
I271
ag1367
aag905
ag906
a(lp1420
I274
ag1367
aag909
ag910
a(lp1421
I277
ag1367
aag914
ag915
ag916
ag917
a(lp1422
I282
ag1367
aag921
ag922
ag923
a(lp1423
I286
ag1367
aag927
ag928
ag929
ag930
ag931
a(lp1424
I292
ag1367
aag934
ag935
ag936
ag937
a(lp1425
I298
ag1367
aag941
ag942
ag943
a(lp1426
I302
ag1367
aag946
ag947
ag948
a(lp1427
I306
ag1367
aag952
ag953
a(lp1428
I309
ag1367
aag957
ag959
ag960
ag961
a(lp1429
I314
ag1367
aag965
ag966
a(lp1430
I317
ag1367
aag969
ag970
ag972
ag973
ag974
ag975
ag976
a(lp1431
I325
ag1367
aag979
ag980
ag981
ag983
ag984
a(lp1432
I331
ag1367
aag987
ag988
ag989
ag990
a(lp1433
I337
ag1367
aag994
ag995
ag996
a(lp1434
I341
ag1367
aag999
ag1000
ag1002
ag1003
ag1004
ag1005
ag1006
a(lp1435
I350
ag1367
aag1010
ag1011
ag1012
ag1013
ag1014
a(lp1436
I356
ag1367
aag1018
ag1019
a(lp1437
I359
ag1367
aag1022
a(lp1438
I361
ag1367
aag1025
ag1026
ag1027
ag1028
a(lp1439
I366
ag1367
aag1032
ag1033
a(lp1440
I369
ag1367
aag1037
ag1038
ag1039
ag1040
a(lp1441
I374
ag1367
aag1044
ag1045
a(lp1442
I377
ag1367
aag1049
ag1050
ag1051
a(lp1443
I381
ag1367
aag1054
ag1055
ag1056
ag1057
ag1058
ag1059
ag1060
a(lp1444
I389
ag1367
aag1063
ag1064
ag1065
ag1066
ag1067
a(lp1445
I395
ag1367
aag1071
ag1072
a(lp1446
I398
ag1367
aag1076
ag1077
ag1078
a(lp1447
I402
ag1367
aag1081
ag1082
ag1083
ag1084
ag1085
ag1086
a(lp1448
I409
ag1367
aag1090
ag1091
ag1092
a(lp1449
I413
ag1367
aag1096
ag1097
ag1098
a(lp1450
I417
ag1367
aag1102
ag1103
ag1104
ag1105
a(lp1451
I422
ag1367
aag1108
ag1109
ag1110
ag1111
ag1112
ag1113
ag1114
a(lp1452
I430
ag1367
aag1118
ag1119
a(lp1453
I433
ag1367
aag1123
ag1124
ag1125
a(lp1454
I437
ag1367
aag1128
ag1129
ag1130
a(lp1455
I442
ag1367
aag1133
ag1134
a(lp1456
I445
ag1367
aag1137
ag1138
ag1139
ag1140
ag1141
a(lp1457
I451
ag1367
aa(lp1458
I453
ag1367
aag1145
ag1146
ag1147
ag1148
ag1149
a(lp1459
I459
ag1367
aag1152
ag1154
ag1156
ag1158
a(lp1460
I464
ag1367
aag1161
ag1162
ag1163
ag1164
ag1165
a(lp1461
I470
ag1367
aag1169
ag1170
ag1171
a(lp1462
I474
ag1367
aag1174
ag1175
ag1176
ag1177
a(lp1463
I479
ag1367
aag1181
ag1182
a(lp1464
I482
ag1367
aag1186
ag1187
ag1188
a(lp1465
I486
ag1367
aag1191
ag1192
ag1193
a(lp1466
I490
ag1367
aag1196
ag1197
ag1198
ag1199
ag1200
ag1201
ag1202
ag1203
ag1204
ag1205
a(lp1467
I501
ag1367
aa(lp1468
I503
ag1367
aag1209
ag1210
ag1211
ag1212
ag1213
a(lp1469
I509
ag1367
aag1216
ag1218
ag1219
a(lp1470
I513
ag1367
aag1222
ag1223
ag1224
ag1225
ag1226
a(lp1471
I519
ag1367
aag1230
ag1231
ag1232
a(lp1472
I523
ag1367
aag1235
ag1236
ag1237
ag1238
a(lp1473
I528
ag1367
aag1242
ag1243
a(lp1474
I531
ag1367
aag1247
ag1248
ag1249
a(lp1475
I535
ag1367
aag1252
ag1253
ag1254
a(lp1476
I539
ag1367
aag1257
ag1258
ag1259
ag1260
ag1261
ag1262
ag1263
a(lp1477
I547
ag1367
aa(lp1478
I549
ag1367
aag1267
ag1268
ag1269
ag1270
ag1271
a(lp1479
I555
ag1367
aag1274
ag1275
ag1277
a(lp1480
I559
ag1367
aag1280
ag1281
ag1282
ag1283
ag1284
a(lp1481
I565
ag1367
aag1288
ag1289
ag1290
a(lp1482
I569
ag1367
aag1293
ag1294
ag1295
ag1296
a(lp1483
I574
ag1367
aag1300
ag1301
a(lp1484
I577
ag1367
aag1305
ag1306
ag1307
a(lp1485
I581
ag1367
aag1310
ag1311
ag1312
a(lp1486
I585
ag1367
aag1315
ag1316
ag1317
ag1318
ag1319
a(lp1487
I591
ag1367
aa(lp1488
I593
ag1367
aag1323
ag1324
ag1325
ag1326
ag1327
a(lp1489
I599
ag1367
aag1330
ag1331
ag1333
a(lp1490
I603
ag1367
aag1336
ag1337
ag1338
ag1339
ag1340
a(lp1491
I609
ag1367
aag1344
ag1345
ag1346
a(lp1492
I613
ag1367
aag1349
ag1350
ag1351
ag1352
a(lp1493
I618
ag1367
aag1356
ag1357
a(lp1494
I621
ag1367
aag1361
ag1362
ag1363
a(lp1495
I625
ag1367
aa(lp1496
I626
ag543
aa(lp1497
I627
ag600
aa(lp1498
I628
ag551
aasS'text'
p1499
S'ask an astronomer for kids! - is the sun the largest star? is the sun the largest star? although the sun appear larger to us than any other star, there are many stars which are much larger. the sun appears so large compared to the other stars because it is so much closer to us than any other star. the sun is just an average sized star. for example, below is a list of some of the largest stars in our galaxy and how they compare to our sun: mu cephi - about 1500 times the size of our sun betelgeuse - about 900 times the size of our sun antares - about 530 times the size of our sun deneb - about 145 times the size of our sun'
p1500
sS'cleanWordMap'
p1501
(lp1502
g538
ag552
ag576
ag596
ag608
ag619
ag636
ag647
ag656
ag662
ag678
ag683
ag692
ag705
ag731
ag751
ag757
ag780
ag786
ag800
ag805
ag819
ag826
ag855
ag888
ag894
ag907
ag932
ag944
ag967
ag977
ag985
ag997
ag1023
ag1052
ag1061
ag1079
ag1106
ag1126
ag1131
ag1135
ag1150
ag1159
ag1172
ag1189
ag1194
ag1214
ag1220
ag1233
ag1250
ag1255
ag1272
ag1278
ag1291
ag1308
ag1313
ag1328
ag1334
ag1347
asS'lines'
p1503
(lp1504
VAsk an Astronomer for KIDS! - Is the sun the largest star?\u000a
p1505
aVIs the sun the largest star?\u000a
p1506
aVAlthough the sun appear larger to us than any other star, there are many stars which are much larger. The sun appears so large compared to the other stars because it is so much closer to us than any other star. The sun is just an average sized star. For example, below is a list of some of the largest stars in our galaxy and how they compare to our sun:\u000a
p1507
aVMu Cephi - about 1500 times the size of our sun Betelgeuse - about 900 times the size of our sun Antares - about 530 times the size of our sun Deneb - about 145 times the size of our sun
p1508
asS'docType'
p1509
S'src'
p1510
sS'newfmap'
p1511
(lp1512
g4
ag8
ag10
ag12
ag14
ag17
ag19
ag21
ag23
ag26
ag28
ag30
ag32
ag35
ag37
ag39
ag41
ag44
ag46
ag48
ag50
ag53
ag55
ag57
ag59
ag62
ag64
ag66
ag68
ag71
ag73
ag75
ag77
ag80
ag82
ag84
ag86
ag89
ag91
ag93
ag95
ag98
ag100
ag102
ag104
ag107
ag109
ag111
ag113
ag116
ag118
ag120
ag122
ag125
ag127
ag129
ag131
ag134
ag136
ag138
ag140
ag143
ag145
ag147
ag149
ag152
ag154
ag156
ag158
ag161
ag163
ag165
ag167
ag170
ag172
ag174
ag176
ag179
ag181
ag183
ag185
ag188
ag190
ag192
ag194
ag197
ag199
ag201
ag203
ag206
ag208
ag210
ag212
ag215
ag217
ag219
ag221
ag224
ag226
ag228
ag230
ag233
ag235
ag237
ag239
ag242
ag244
ag246
ag248
ag251
ag253
ag255
ag257
ag260
ag262
ag264
ag266
ag269
ag271
ag273
ag275
ag278
ag280
ag282
ag284
ag287
ag289
ag291
ag293
ag296
ag298
ag300
ag302
ag305
ag307
ag309
ag311
ag314
ag316
ag318
ag320
ag323
ag325
ag327
ag329
ag332
ag334
ag336
ag338
ag341
ag343
ag345
ag347
ag350
ag352
ag354
ag356
ag359
ag361
ag363
ag365
ag368
ag370
ag372
ag374
ag377
ag379
ag381
ag383
ag386
ag388
ag390
ag392
ag395
ag397
ag399
ag401
ag404
ag406
ag408
ag410
ag413
ag415
ag417
ag419
ag422
ag424
ag426
ag428
ag431
ag433
ag435
ag437
ag440
ag442
ag444
ag446
ag449
ag451
ag453
ag455
ag458
ag460
ag462
ag464
ag467
ag469
ag471
ag473
ag476
ag478
ag480
ag482
ag485
ag487
ag489
ag491
ag494
ag496
ag498
ag500
ag503
ag505
ag507
ag509
ag512
ag514
ag516
ag518
ag521
ag523
ag525
ag527
ag530
ag532
ag534
asS'featureMap'
p1513
(lp1514
(lp1515
I0
aI2
ag5
ag6
ag9
ag11
ag13
aa(lp1516
I7
aI16
ag15
ag16
ag18
ag20
ag22
aa(lp1517
I22
aI25
ag24
ag25
ag27
ag29
ag31
aa(lp1518
I37
aI39
ag33
ag34
ag36
ag38
ag40
aa(lp1519
I45
aI51
ag42
ag43
ag45
ag47
ag49
aa(lp1520
I53
aI56
ag51
ag52
ag54
ag56
ag58
aa(lp1521
I66
aI68
ag60
ag61
ag63
ag65
ag67
aa(lp1522
I74
aI80
ag69
ag70
ag72
ag74
ag76
aa(lp1523
I82
aI85
ag78
ag79
ag81
ag83
ag85
aa(lp1524
I88
aI95
ag87
ag88
ag90
ag92
ag94
aa(lp1525
I101
aI103
ag96
ag97
ag99
ag101
ag103
aa(lp1526
I105
aI110
ag105
ag106
ag108
ag110
ag112
aa(lp1527
I112
aI117
ag114
ag115
ag117
ag119
ag121
aa(lp1528
I122
aI123
ag123
ag124
ag126
ag128
ag130
aa(lp1529
I140
aI143
ag132
ag133
ag135
ag137
ag139
aa(lp1530
I156
aI159
ag141
ag142
ag144
ag146
ag148
aa(lp1531
I161
aI165
ag150
ag151
ag153
ag155
ag157
aa(lp1532
I177
aI180
ag159
ag160
ag162
ag164
ag166
aa(lp1533
I182
aI187
ag168
ag169
ag171
ag173
ag175
aa(lp1534
I194
aI196
ag177
ag178
ag180
ag182
ag184
aa(lp1535
I198
aI204
ag186
ag187
ag189
ag191
ag193
aa(lp1536
I209
aI213
ag195
ag196
ag198
ag200
ag202
aa(lp1537
I215
aI222
ag204
ag205
ag207
ag209
ag211
aa(lp1538
I237
aI241
ag213
ag214
ag216
ag218
ag220
aa(lp1539
I260
aI263
ag222
ag223
ag225
ag227
ag229
aa(lp1540
I265
aI270
ag231
ag232
ag234
ag236
ag238
aa(lp1541
I275
aI276
ag240
ag241
ag243
ag245
ag247
aa(lp1542
I293
aI296
ag249
ag250
ag252
ag254
ag256
aa(lp1543
I303
aI305
ag258
ag259
ag261
ag263
ag265
aa(lp1544
I318
aI324
ag267
ag268
ag270
ag272
ag274
aa(lp1545
I326
aI330
ag276
ag277
ag279
ag281
ag283
aa(lp1546
I332
aI335
ag285
ag286
ag288
ag290
ag292
aa(lp1547
I342
aI348
ag294
ag295
ag297
ag299
ag301
aa(lp1548
I362
aI365
ag303
ag304
ag306
ag308
ag310
aa(lp1549
I382
aI388
ag312
ag313
ag315
ag317
ag319
aa(lp1550
I390
aI394
ag321
ag322
ag324
ag326
ag328
aa(lp1551
I403
aI408
ag330
ag331
ag333
ag335
ag337
aa(lp1552
I423
aI429
ag339
ag340
ag342
ag344
ag346
aa(lp1553
I438
aI440
ag348
ag349
ag351
ag353
ag355
aa(lp1554
I443
aI444
ag357
ag358
ag360
ag362
ag364
aa(lp1555
I446
aI450
ag366
ag367
ag369
ag371
ag373
aa(lp1556
I460
aI463
ag375
ag376
ag378
ag380
ag382
aa(lp1557
I465
aI469
ag384
ag385
ag387
ag389
ag391
aa(lp1558
I475
aI478
ag393
ag394
ag396
ag398
ag400
aa(lp1559
I487
aI489
ag402
ag403
ag405
ag407
ag409
aa(lp1560
I491
aI500
ag411
ag412
ag414
ag416
ag418
aa(lp1561
I510
aI512
ag420
ag421
ag423
ag425
ag427
aa(lp1562
I514
aI518
ag429
ag430
ag432
ag434
ag436
aa(lp1563
I524
aI527
ag438
ag439
ag441
ag443
ag445
aa(lp1564
I536
aI538
ag447
ag448
ag450
ag452
ag454
aa(lp1565
I540
aI546
ag456
ag457
ag459
ag461
ag463
aa(lp1566
I556
aI558
ag465
ag466
ag468
ag470
ag472
aa(lp1567
I560
aI564
ag474
ag475
ag477
ag479
ag481
aa(lp1568
I570
aI573
ag483
ag484
ag486
ag488
ag490
aa(lp1569
I582
aI584
ag492
ag493
ag495
ag497
ag499
aa(lp1570
I586
aI590
ag501
ag502
ag504
ag506
ag508
aa(lp1571
I600
aI602
ag510
ag511
ag513
ag515
ag517
aa(lp1572
I604
aI608
ag519
ag520
ag522
ag524
ag526
aa(lp1573
I614
aI617
ag528
ag529
ag531
ag533
ag535
aasS'characterMap'
p1574
(lp1575
g540
ag542
ag544
ag1366
ag549
ag550
ag1368
ag554
ag555
ag556
ag558
ag560
ag562
ag563
ag564
ag566
ag568
ag1369
ag572
ag574
ag575
ag1370
ag578
ag579
ag581
ag583
a(lp1576
I26
aS'!'
p1577
aag1371
a(lp1578
I28
aS'-'
p1579
aag1372
ag587
ag588
ag1373
ag592
ag593
ag595
ag1374
ag598
ag599
ag601
ag1375
ag605
ag606
ag607
ag1376
ag610
ag612
ag613
ag614
ag616
ag617
ag618
ag1377
ag621
ag622
ag623
ag624
a(lp1580
I57
aS'?'
p1581
aag1378
ag628
ag629
ag1379
ag633
ag634
ag635
ag1380
ag638
ag639
ag640
ag1381
ag644
ag645
ag646
ag1382
ag649
ag650
ag651
ag652
ag653
ag654
ag655
ag1383
ag658
ag659
ag660
ag661
a(lp1582
I86
ag1581
aag1384
ag664
ag665
ag666
ag667
ag668
ag669
ag670
ag671
ag1385
ag675
ag676
ag677
ag1386
ag680
ag681
ag682
ag1387
ag685
ag686
ag688
ag689
ag690
ag691
ag1388
ag694
ag695
ag696
ag697
ag698
ag699
ag1389
ag703
ag704
ag1390
ag707
ag708
ag1391
ag712
ag713
ag714
ag715
ag1392
ag719
ag720
ag721
ag1393
ag726
ag727
ag728
ag729
ag730
ag1394
ag733
ag734
ag735
ag736
a(lp1583
I144
aS','
p1584
aag1395
ag740
ag741
ag742
ag743
ag744
ag1396
ag748
ag749
ag750
ag1397
ag753
ag754
ag755
ag756
ag1398
ag759
ag760
ag761
ag762
ag763
ag1399
ag767
ag769
ag770
ag771
ag773
ag1400
ag777
ag778
ag779
ag1401
ag782
ag783
ag784
ag785
ag1402
ag788
ag789
ag790
ag791
ag792
ag793
a(lp1585
I188
aS'.'
p1586
aag1403
ag797
ag798
ag799
ag1404
ag802
ag803
ag804
ag1405
ag807
ag808
ag809
ag810
ag811
ag812
ag813
ag1406
ag817
ag818
ag1407
ag821
ag822
ag823
ag824
ag825
ag1408
ag828
ag829
ag830
ag831
ag832
ag833
ag834
ag835
ag1409
ag839
ag840
ag1410
ag844
ag845
ag846
ag1411
ag850
ag851
ag852
ag853
ag854
ag1412
ag857
ag858
ag859
ag860
ag861
ag1413
ag865
ag867
ag868
ag869
ag870
ag871
ag872
ag1414
ag876
ag877
ag1415
ag881
ag882
ag1416
ag886
ag887
ag1417
ag890
ag891
ag892
ag893
ag1418
ag896
ag897
ag898
ag899
ag900
ag901
ag1419
ag905
ag906
ag1420
ag909
ag910
ag1421
ag914
ag915
ag916
ag917
ag1422
ag921
ag922
ag923
ag1423
ag927
ag928
ag929
ag930
ag931
ag1424
ag934
ag935
ag936
ag937
a(lp1587
I297
ag1586
aag1425
ag941
ag942
ag943
ag1426
ag946
ag947
ag948
ag1427
ag952
ag953
ag1428
ag957
ag959
ag960
ag961
ag1429
ag965
ag966
ag1430
ag969
ag970
ag972
ag973
ag974
ag975
ag976
ag1431
ag979
ag980
ag981
ag983
ag984
ag1432
ag987
ag988
ag989
ag990
a(lp1588
I336
ag1586
aag1433
ag994
ag995
ag996
ag1434
ag999
ag1000
ag1002
ag1003
ag1004
ag1005
ag1006
a(lp1589
I349
ag1584
aag1435
ag1010
ag1011
ag1012
ag1013
ag1014
ag1436
ag1018
ag1019
ag1437
ag1022
ag1438
ag1025
ag1026
ag1027
ag1028
ag1439
ag1032
ag1033
ag1440
ag1037
ag1038
ag1039
ag1040
ag1441
ag1044
ag1045
ag1442
ag1049
ag1050
ag1051
ag1443
ag1054
ag1055
ag1056
ag1057
ag1058
ag1059
ag1060
ag1444
ag1063
ag1064
ag1065
ag1066
ag1067
ag1445
ag1071
ag1072
ag1446
ag1076
ag1077
ag1078
ag1447
ag1081
ag1082
ag1083
ag1084
ag1085
ag1086
ag1448
ag1090
ag1091
ag1092
ag1449
ag1096
ag1097
ag1098
ag1450
ag1102
ag1103
ag1104
ag1105
ag1451
ag1108
ag1109
ag1110
ag1111
ag1112
ag1113
ag1114
ag1452
ag1118
ag1119
ag1453
ag1123
ag1124
ag1125
ag1454
ag1128
ag1129
ag1130
a(lp1590
I441
aS':'
p1591
aag1455
ag1133
ag1134
ag1456
ag1137
ag1138
ag1139
ag1140
ag1141
ag1457
a(lp1592
I452
ag1579
aag1458
ag1145
ag1146
ag1147
ag1148
ag1149
ag1459
ag1152
ag1154
ag1156
ag1158
ag1460
ag1161
ag1162
ag1163
ag1164
ag1165
ag1461
ag1169
ag1170
ag1171
ag1462
ag1174
ag1175
ag1176
ag1177
ag1463
ag1181
ag1182
ag1464
ag1186
ag1187
ag1188
ag1465
ag1191
ag1192
ag1193
ag1466
ag1196
ag1197
ag1198
ag1199
ag1200
ag1201
ag1202
ag1203
ag1204
ag1205
ag1467
a(lp1593
I502
ag1579
aag1468
ag1209
ag1210
ag1211
ag1212
ag1213
ag1469
ag1216
ag1218
ag1219
ag1470
ag1222
ag1223
ag1224
ag1225
ag1226
ag1471
ag1230
ag1231
ag1232
ag1472
ag1235
ag1236
ag1237
ag1238
ag1473
ag1242
ag1243
ag1474
ag1247
ag1248
ag1249
ag1475
ag1252
ag1253
ag1254
ag1476
ag1257
ag1258
ag1259
ag1260
ag1261
ag1262
ag1263
ag1477
a(lp1594
I548
ag1579
aag1478
ag1267
ag1268
ag1269
ag1270
ag1271
ag1479
ag1274
ag1275
ag1277
ag1480
ag1280
ag1281
ag1282
ag1283
ag1284
ag1481
ag1288
ag1289
ag1290
ag1482
ag1293
ag1294
ag1295
ag1296
ag1483
ag1300
ag1301
ag1484
ag1305
ag1306
ag1307
ag1485
ag1310
ag1311
ag1312
ag1486
ag1315
ag1316
ag1317
ag1318
ag1319
ag1487
a(lp1595
I592
ag1579
aag1488
ag1323
ag1324
ag1325
ag1326
ag1327
ag1489
ag1330
ag1331
ag1333
ag1490
ag1336
ag1337
ag1338
ag1339
ag1340
ag1491
ag1344
ag1345
ag1346
ag1492
ag1349
ag1350
ag1351
ag1352
ag1493
ag1356
ag1357
ag1494
ag1361
ag1362
ag1363
ag1495
ag1496
ag1497
ag1498
asS'docName'
p1596
S'source-document02375.txt'
p1597
sb.