(iModel.Document
Document
p0
(dp1
S'fmap'
p2
(lp3
sS'wordMap'
p4
(lp5
sS'cleanCharacterMap'
p6
(lp7
(lp8
I2
aS' '
p9
aa(lp10
I5
ag9
aa(lp11
I6
aS't'
p12
aa(lp13
I7
aS'a'
p14
aa(lp15
I8
aS'l'
p16
aa(lp17
I9
aS'k'
p18
aa(lp19
I10
aS'x'
p20
aa(lp21
I11
aS'b'
p22
aa(lp23
I12
aS'o'
p24
aa(lp25
I13
ag20
aa(lp26
I14
ag9
aa(lp27
I15
aS'd'
p28
aa(lp29
I16
ag14
aa(lp30
I17
ag12
aa(lp31
I18
ag14
aa(lp32
I19
ag22
aa(lp33
I20
ag14
aa(lp34
I21
aS's'
p35
aa(lp36
I22
aS'e'
p37
aa(lp38
I23
ag9
aa(lp39
I24
ag20
aa(lp40
I25
ag22
aa(lp41
I26
ag24
aa(lp42
I27
ag20
aa(lp43
I28
ag9
aa(lp44
I29
aS'g'
p45
aa(lp46
I30
ag14
aa(lp47
I31
aS'm'
p48
aa(lp49
I32
ag37
aa(lp50
I33
ag35
aa(lp51
I34
ag9
aa(lp52
I35
ag24
aa(lp53
I36
aS'u'
p54
aa(lp55
I37
ag12
aa(lp56
I38
ag16
aa(lp57
I39
ag14
aa(lp58
I40
aS'w'
p59
aa(lp60
I41
ag9
aa(lp61
I42
aS'v'
p62
aa(lp63
I43
ag24
aa(lp64
I44
ag16
aa(lp65
I45
ag16
aa(lp66
I46
ag37
aa(lp67
I47
aS'y'
p68
aa(lp69
I48
ag22
aa(lp70
I49
ag14
aa(lp71
I50
ag16
aa(lp72
I51
ag16
aa(lp73
I52
ag9
aa(lp74
I53
aS'c'
p75
aa(lp76
I54
ag24
aa(lp77
I55
ag48
aa(lp78
I56
ag22
aa(lp79
I57
aS'i'
p80
aa(lp81
I58
aS'n'
p82
aa(lp83
I59
ag37
aa(lp84
I60
ag35
aa(lp85
I61
ag9
aa(lp86
I62
ag12
aa(lp87
I63
aS'h'
p88
aa(lp89
I64
ag37
aa(lp90
I65
ag9
aa(lp91
I66
aS'f'
p92
aa(lp93
I67
ag54
aa(lp94
I68
ag82
aa(lp95
I69
ag9
aa(lp96
I70
ag45
aa(lp97
I71
ag14
aa(lp98
I72
ag48
aa(lp99
I73
ag37
aa(lp100
I74
aS'p'
p101
aa(lp102
I75
ag16
aa(lp103
I76
ag14
aa(lp104
I77
ag68
aa(lp105
I78
ag9
aa(lp106
I79
ag24
aa(lp107
I80
ag92
aa(lp108
I81
ag9
aa(lp109
I82
ag62
aa(lp110
I83
ag80
aa(lp111
I84
aS'r'
p112
aa(lp113
I85
ag12
aa(lp114
I86
ag54
aa(lp115
I87
ag14
aa(lp116
I88
ag9
aa(lp117
I89
ag12
aa(lp118
I90
ag37
aa(lp119
I91
ag82
aa(lp120
I92
ag82
aa(lp121
I93
ag80
aa(lp122
I94
ag35
aa(lp123
I95
ag9
aa(lp124
I96
aS'2'
p125
aa(lp126
I97
ag18
aa(lp127
I98
ag125
aa(lp128
I99
ag9
aa(lp129
I100
ag59
aa(lp130
I101
ag80
aa(lp131
I102
ag12
aa(lp132
I103
ag88
aa(lp133
I104
ag9
aa(lp134
I105
ag12
aa(lp135
I106
ag88
aa(lp136
I107
ag37
aa(lp137
I108
ag9
aa(lp138
I109
ag24
aa(lp139
I110
ag54
aa(lp140
I111
ag12
aa(lp141
I112
ag112
aa(lp142
I113
ag14
aa(lp143
I114
ag45
aa(lp144
I115
ag37
aa(lp145
I116
ag24
aa(lp146
I117
ag54
aa(lp147
I118
ag35
aa(lp148
I119
ag9
aa(lp149
I120
ag88
aa(lp150
I121
ag54
aa(lp151
I122
ag48
aa(lp152
I123
ag24
aa(lp153
I124
ag112
aa(lp154
I125
ag9
aa(lp155
I126
ag24
aa(lp156
I127
ag92
aa(lp157
I128
ag9
aa(lp158
I129
ag24
aa(lp159
I130
ag54
aa(lp160
I131
ag12
aa(lp161
I132
ag16
aa(lp162
I133
ag14
aa(lp163
I134
ag59
aa(lp164
I135
ag9
aa(lp165
I136
ag45
aa(lp166
I137
ag24
aa(lp167
I138
ag16
aa(lp168
I139
ag92
aa(lp169
I140
ag9
aa(lp170
I141
ag14
aa(lp171
I142
ag82
aa(lp172
I143
ag28
aa(lp173
I144
ag9
aa(lp174
I145
ag35
aa(lp175
I146
ag24
aa(lp176
I147
ag54
aa(lp177
I148
ag12
aa(lp178
I149
ag88
aa(lp179
I150
ag9
aa(lp180
I151
ag101
aa(lp181
I152
ag14
aa(lp182
I153
ag112
aa(lp183
I154
ag18
aa(lp184
I156
ag9
aa(lp185
I157
ag12
aa(lp186
I158
ag88
aa(lp187
I159
ag37
aa(lp188
I160
ag9
aa(lp189
I161
ag45
aa(lp190
I162
ag14
aa(lp191
I163
ag48
aa(lp192
I164
ag37
aa(lp193
I165
ag9
aa(lp194
I166
ag80
aa(lp195
I167
ag35
aa(lp196
I168
ag9
aa(lp197
I169
ag35
aa(lp198
I170
ag14
aa(lp199
I171
ag82
aa(lp200
I172
ag28
aa(lp201
I173
ag9
aa(lp202
I174
ag62
aa(lp203
I175
ag24
aa(lp204
I176
ag16
aa(lp205
I177
ag16
aa(lp206
I178
ag37
aa(lp207
I179
ag68
aa(lp208
I180
ag22
aa(lp209
I181
ag14
aa(lp210
I182
ag16
aa(lp211
I183
ag16
aa(lp212
I184
ag9
aa(lp213
I185
ag80
aa(lp214
I186
ag82
aa(lp215
I187
ag9
aa(lp216
I188
aS'1'
p217
aa(lp218
I189
aS'6'
p219
aa(lp220
I190
ag9
aa(lp221
I191
ag28
aa(lp222
I192
ag80
aa(lp223
I193
ag92
aa(lp224
I194
ag92
aa(lp225
I195
ag37
aa(lp226
I196
ag112
aa(lp227
I197
ag37
aa(lp228
I198
ag82
aa(lp229
I199
ag12
aa(lp230
I200
ag9
aa(lp231
I201
ag37
aa(lp232
I202
ag82
aa(lp233
I203
ag62
aa(lp234
I204
ag80
aa(lp235
I205
ag112
aa(lp236
I206
ag24
aa(lp237
I207
ag82
aa(lp238
I208
ag48
aa(lp239
I209
ag37
aa(lp240
I210
ag82
aa(lp241
I211
ag12
aa(lp242
I212
ag35
aa(lp243
I213
ag9
aa(lp244
I214
ag92
aa(lp245
I215
ag37
aa(lp246
I216
ag14
aa(lp247
I217
ag12
aa(lp248
I218
ag54
aa(lp249
I219
ag112
aa(lp250
I220
ag80
aa(lp251
I221
ag82
aa(lp252
I222
ag45
aa(lp253
I223
ag9
aa(lp254
I224
ag217
aa(lp255
I225
ag219
aa(lp256
I226
ag9
aa(lp257
I227
ag75
aa(lp258
I228
ag88
aa(lp259
I229
ag14
aa(lp260
I230
ag112
aa(lp261
I231
ag14
aa(lp262
I232
ag75
aa(lp263
I233
ag12
aa(lp264
I234
ag37
aa(lp265
I235
ag112
aa(lp266
I236
ag35
aa(lp267
I238
ag9
aa(lp268
I239
ag37
aa(lp269
I240
ag14
aa(lp270
I241
ag75
aa(lp271
I242
ag88
aa(lp272
I243
ag9
aa(lp273
I244
ag24
aa(lp274
I245
ag92
aa(lp275
I246
ag9
aa(lp276
I247
ag59
aa(lp277
I248
ag88
aa(lp278
I249
ag24
aa(lp279
I250
ag48
aa(lp280
I251
ag9
aa(lp281
I252
ag14
aa(lp282
I253
ag112
aa(lp283
I254
ag37
aa(lp284
I255
ag9
aa(lp285
I256
ag14
aa(lp286
I257
ag62
aa(lp287
I258
ag14
aa(lp288
I259
ag80
aa(lp289
I260
ag16
aa(lp290
I261
ag14
aa(lp291
I262
ag22
aa(lp292
I263
ag16
aa(lp293
I264
ag37
aa(lp294
I265
ag9
aa(lp295
I266
ag14
aa(lp296
I267
ag35
aa(lp297
I268
ag9
aa(lp298
I269
ag12
aa(lp299
I270
ag37
aa(lp300
I271
ag14
aa(lp301
I272
ag48
aa(lp302
I273
ag48
aa(lp303
I274
ag14
aa(lp304
I275
ag12
aa(lp305
I276
ag37
aa(lp306
I277
ag35
aa(lp307
I278
ag9
aa(lp308
I279
ag24
aa(lp309
I280
ag112
aa(lp310
I281
ag9
aa(lp311
I282
ag24
aa(lp312
I283
ag101
aa(lp313
I284
ag101
aa(lp314
I285
ag24
aa(lp315
I286
ag82
aa(lp316
I287
ag37
aa(lp317
I288
ag82
aa(lp318
I289
ag12
aa(lp319
I290
ag35
aa(lp320
I292
ag9
aa(lp321
I293
ag92
aa(lp322
I294
ag37
aa(lp323
I295
ag37
aa(lp324
I296
ag16
aa(lp325
I297
ag9
aa(lp326
I298
ag12
aa(lp327
I299
ag88
aa(lp328
I300
ag37
aa(lp329
I301
ag9
aa(lp330
I302
ag14
aa(lp331
I303
ag75
aa(lp332
I304
ag12
aa(lp333
I305
ag80
aa(lp334
I306
ag24
aa(lp335
I307
ag82
aa(lp336
I308
ag9
aa(lp337
I309
ag14
aa(lp338
I310
ag35
aa(lp339
I311
ag9
aa(lp340
I312
ag68
aa(lp341
I313
ag24
aa(lp342
I314
ag54
aa(lp343
I315
ag9
aa(lp344
I316
ag35
aa(lp345
I317
ag101
aa(lp346
I318
ag80
aa(lp347
I319
ag18
aa(lp348
I320
ag37
aa(lp349
I321
ag9
aa(lp350
I322
ag24
aa(lp351
I323
ag112
aa(lp352
I324
ag9
aa(lp353
I325
ag28
aa(lp354
I326
ag80
aa(lp355
I327
ag37
aa(lp356
I328
ag9
aa(lp357
I329
ag59
aa(lp358
I330
ag80
aa(lp359
I331
ag12
aa(lp360
I332
ag88
aa(lp361
I333
ag9
aa(lp362
I334
ag92
aa(lp363
I335
ag14
aa(lp364
I336
ag22
aa(lp365
I337
ag54
aa(lp366
I338
ag16
aa(lp367
I339
ag24
aa(lp368
I340
ag54
aa(lp369
I341
ag35
aa(lp370
I342
ag9
aa(lp371
I343
ag22
aa(lp372
I344
ag14
aa(lp373
I345
ag22
aa(lp374
I346
ag37
aa(lp375
I347
ag35
aa(lp376
I348
ag9
aa(lp377
I349
ag14
aa(lp378
I350
ag82
aa(lp379
I351
ag28
aa(lp380
I352
ag9
aa(lp381
I353
ag45
aa(lp382
I354
ag54
aa(lp383
I355
ag68
aa(lp384
I356
ag35
aa(lp385
I357
ag9
aa(lp386
I358
ag59
aa(lp387
I359
ag80
aa(lp388
I360
ag12
aa(lp389
I361
ag88
aa(lp390
I362
ag9
aa(lp391
I363
ag14
aa(lp392
I364
ag12
aa(lp393
I365
ag12
aa(lp394
I366
ag80
aa(lp395
I367
ag12
aa(lp396
I368
ag54
aa(lp397
I369
ag28
aa(lp398
I370
ag37
aa(lp399
I372
ag9
aa(lp400
I373
ag54
aa(lp401
I374
ag101
aa(lp402
I375
ag9
aa(lp403
I376
ag12
aa(lp404
I377
ag24
aa(lp405
I378
ag9
aa(lp406
I379
ag92
aa(lp407
I380
ag24
aa(lp408
I381
ag54
aa(lp409
I382
ag112
aa(lp410
I383
ag9
aa(lp411
I384
ag101
aa(lp412
I385
ag37
aa(lp413
I386
ag24
aa(lp414
I387
ag101
aa(lp415
I388
ag16
aa(lp416
I389
ag37
aa(lp417
I390
ag9
aa(lp418
I391
ag75
aa(lp419
I392
ag14
aa(lp420
I393
ag82
aa(lp421
I394
ag9
aa(lp422
I395
ag75
aa(lp423
I396
ag24
aa(lp424
I397
ag48
aa(lp425
I398
ag101
aa(lp426
I399
ag37
aa(lp427
I400
ag12
aa(lp428
I401
ag37
aa(lp429
I402
ag9
aa(lp430
I403
ag14
aa(lp431
I404
ag35
aa(lp432
I405
ag9
aa(lp433
I406
ag12
aa(lp434
I407
ag88
aa(lp435
I408
ag37
aa(lp436
I409
ag68
aa(lp437
I410
ag9
aa(lp438
I411
ag28
aa(lp439
I412
ag80
aa(lp440
I413
ag62
aa(lp441
I414
ag37
aa(lp442
I416
ag9
aa(lp443
I417
ag35
aa(lp444
I418
ag101
aa(lp445
I419
ag80
aa(lp446
I420
ag18
aa(lp447
I421
ag37
aa(lp448
I423
ag9
aa(lp449
I424
aS'j'
p450
aa(lp451
I425
ag54
aa(lp452
I426
ag48
aa(lp453
I427
ag101
aa(lp454
I428
ag9
aa(lp455
I429
ag14
aa(lp456
I430
ag82
aa(lp457
I431
ag28
aa(lp458
I432
ag9
aa(lp459
I433
ag16
aa(lp460
I434
ag24
aa(lp461
I435
ag22
aa(lp462
I436
ag9
aa(lp463
I437
ag12
aa(lp464
I438
ag88
aa(lp465
I439
ag37
aa(lp466
I440
ag9
aa(lp467
I441
ag22
aa(lp468
I442
ag14
aa(lp469
I443
ag16
aa(lp470
I444
ag16
aa(lp471
I445
ag9
aa(lp472
I446
ag92
aa(lp473
I447
ag24
aa(lp474
I448
ag112
aa(lp475
I449
ag9
aa(lp476
I450
ag12
aa(lp477
I451
ag24
aa(lp478
I452
ag12
aa(lp479
I453
ag14
aa(lp480
I454
ag16
aa(lp481
I455
ag9
aa(lp482
I456
ag62
aa(lp483
I457
ag80
aa(lp484
I458
ag75
aa(lp485
I459
ag12
aa(lp486
I460
ag24
aa(lp487
I461
ag112
aa(lp488
I462
ag68
aa(lp489
I464
ag9
aa(lp490
I465
ag101
aa(lp491
I466
ag16
aa(lp492
I467
ag14
aa(lp493
I468
ag68
aa(lp494
I469
ag9
aa(lp495
I470
ag59
aa(lp496
I471
ag37
aa(lp497
I472
ag16
aa(lp498
I473
ag16
aa(lp499
I474
ag9
aa(lp500
I475
ag14
aa(lp501
I476
ag82
aa(lp502
I477
ag28
aa(lp503
I478
ag9
aa(lp504
I479
ag68
aa(lp505
I480
ag24
aa(lp506
I481
ag54
aa(lp507
I482
ag112
aa(lp508
I483
ag9
aa(lp509
I484
ag12
aa(lp510
I485
ag37
aa(lp511
I486
ag14
aa(lp512
I487
ag48
aa(lp513
I488
ag9
aa(lp514
I489
ag59
aa(lp515
I490
ag80
aa(lp516
I491
ag16
aa(lp517
I492
ag16
aa(lp518
I493
ag9
aa(lp519
I494
ag45
aa(lp520
I495
ag14
aa(lp521
I496
ag80
aa(lp522
I497
ag82
aa(lp523
I498
ag9
aa(lp524
I499
ag48
aa(lp525
I500
ag24
aa(lp526
I501
ag48
aa(lp527
I502
ag37
aa(lp528
I503
ag82
aa(lp529
I504
ag12
aa(lp530
I505
ag54
aa(lp531
I506
ag48
aa(lp532
I508
ag9
aa(lp533
I509
ag101
aa(lp534
I510
ag16
aa(lp535
I511
ag14
aa(lp536
I512
ag68
aa(lp537
I513
ag9
aa(lp538
I514
ag22
aa(lp539
I515
ag14
aa(lp540
I516
ag28
aa(lp541
I517
ag16
aa(lp542
I518
ag68
aa(lp543
I519
ag9
aa(lp544
I520
ag14
aa(lp545
I521
ag82
aa(lp546
I522
ag28
aa(lp547
I523
ag9
aa(lp548
I524
ag35
aa(lp549
I525
ag24
aa(lp550
I526
ag9
aa(lp551
I527
ag59
aa(lp552
I528
ag80
aa(lp553
I529
ag16
aa(lp554
I530
ag16
aa(lp555
I531
ag9
aa(lp556
I532
ag68
aa(lp557
I533
ag24
aa(lp558
I534
ag54
aa(lp559
I535
ag112
aa(lp560
I536
ag9
aa(lp561
I537
ag12
aa(lp562
I538
ag37
aa(lp563
I539
ag14
aa(lp564
I540
ag48
aa(lp565
I542
ag9
aa(lp566
I543
ag80
aa(lp567
I544
ag12
aa(lp568
I546
ag35
aa(lp569
I547
ag9
aa(lp570
I548
ag88
aa(lp571
I549
ag24
aa(lp572
I550
ag12
aa(lp573
I551
ag9
aa(lp574
I552
ag22
aa(lp575
I553
ag14
aa(lp576
I554
ag22
aa(lp577
I555
ag37
aa(lp578
I556
ag35
aa(lp579
I558
ag9
aa(lp580
I559
ag88
aa(lp581
I560
ag24
aa(lp582
I561
ag12
aa(lp583
I562
ag9
aa(lp584
I563
ag35
aa(lp585
I564
ag101
aa(lp586
I565
ag80
aa(lp587
I566
ag18
aa(lp588
I567
ag37
aa(lp589
I568
ag35
aa(lp590
I570
ag9
aa(lp591
I571
ag88
aa(lp592
I572
ag24
aa(lp593
I573
ag12
aa(lp594
I574
ag9
aa(lp595
I575
ag35
aa(lp596
I576
ag14
aa(lp597
I577
ag82
aa(lp598
I578
ag28
aa(lp599
I580
ag9
aa(lp600
I581
ag24
aa(lp601
I582
ag82
aa(lp602
I583
ag9
aa(lp603
I584
ag68
aa(lp604
I585
ag24
aa(lp605
I586
ag54
aa(lp606
I587
ag112
aa(lp607
I588
ag9
aa(lp608
I589
ag20
aa(lp609
I590
ag22
aa(lp610
I591
ag24
aa(lp611
I592
ag20
aasS'text'
p612
S"-> -> talkxbox database xbox games outlaw volleyball combines the fun gameplay of virtua tennis 2k2 with the outrageous humor of outlaw golf and south park. the game is sand volleyball in 16 different environments featuring 16 characters, each of whom are available as teammates or opponents. feel the action as you spike or die with fabulous babes and guys with attitude. up to four people can compete as they dive, spike, jump and lob the ball for total victory. play well and your team will gain momentum, play badly and so will your team. it's hot babes! hot spikes! hot sand! on your xbox!"
p613
sS'cleanWordMap'
p614
(lp615
sS'lines'
p616
(lp617
V-> -> Talkxbox Database Xbox Games\u000a
p618
aVOutlaw Volleyball combines the fun gameplay of Virtua Tennis 2K2 with the outrageous humor of Outlaw Golf and South Park. The game is sand volleyball in 16 different environments featuring 16 characters, each of whom are available as teammates or opponents. Feel the action as you Spike or Die with fabulous babes and guys with attitude. Up to four people can compete as they dive, spike, jump and lob the ball for total victory. Play well and your team will gain momentum, play badly and so will your team. It's Hot Babes! Hot Spikes! Hot Sand! on your Xbox!
p619
asS'docType'
p620
S'src'
p621
sS'newfmap'
p622
(lp623
sS'featureMap'
p624
(lp625
sS'characterMap'
p626
(lp627
(lp628
I0
aS'-'
p629
aa(lp630
I1
aS'>'
p631
aag8
a(lp632
I3
ag629
aa(lp633
I4
ag631
aag10
ag11
ag13
ag15
ag17
ag19
ag21
ag23
ag25
ag26
ag27
ag29
ag30
ag31
ag32
ag33
ag34
ag36
ag38
ag39
ag40
ag41
ag42
ag43
ag44
ag46
ag47
ag49
ag50
ag51
ag52
ag53
ag55
ag56
ag57
ag58
ag60
ag61
ag63
ag64
ag65
ag66
ag67
ag69
ag70
ag71
ag72
ag73
ag74
ag76
ag77
ag78
ag79
ag81
ag83
ag84
ag85
ag86
ag87
ag89
ag90
ag91
ag93
ag94
ag95
ag96
ag97
ag98
ag99
ag100
ag102
ag103
ag104
ag105
ag106
ag107
ag108
ag109
ag110
ag111
ag113
ag114
ag115
ag116
ag117
ag118
ag119
ag120
ag121
ag122
ag123
ag124
ag126
ag127
ag128
ag129
ag130
ag131
ag132
ag133
ag134
ag135
ag136
ag137
ag138
ag139
ag140
ag141
ag142
ag143
ag144
ag145
ag146
ag147
ag148
ag149
ag150
ag151
ag152
ag153
ag154
ag155
ag156
ag157
ag158
ag159
ag160
ag161
ag162
ag163
ag164
ag165
ag166
ag167
ag168
ag169
ag170
ag171
ag172
ag173
ag174
ag175
ag176
ag177
ag178
ag179
ag180
ag181
ag182
ag183
a(lp634
I155
aS'.'
p635
aag184
ag185
ag186
ag187
ag188
ag189
ag190
ag191
ag192
ag193
ag194
ag195
ag196
ag197
ag198
ag199
ag200
ag201
ag202
ag203
ag204
ag205
ag206
ag207
ag208
ag209
ag210
ag211
ag212
ag213
ag214
ag215
ag216
ag218
ag220
ag221
ag222
ag223
ag224
ag225
ag226
ag227
ag228
ag229
ag230
ag231
ag232
ag233
ag234
ag235
ag236
ag237
ag238
ag239
ag240
ag241
ag242
ag243
ag244
ag245
ag246
ag247
ag248
ag249
ag250
ag251
ag252
ag253
ag254
ag255
ag256
ag257
ag258
ag259
ag260
ag261
ag262
ag263
ag264
ag265
ag266
a(lp636
I237
aS','
p637
aag267
ag268
ag269
ag270
ag271
ag272
ag273
ag274
ag275
ag276
ag277
ag278
ag279
ag280
ag281
ag282
ag283
ag284
ag285
ag286
ag287
ag288
ag289
ag290
ag291
ag292
ag293
ag294
ag295
ag296
ag297
ag298
ag299
ag300
ag301
ag302
ag303
ag304
ag305
ag306
ag307
ag308
ag309
ag310
ag311
ag312
ag313
ag314
ag315
ag316
ag317
ag318
ag319
a(lp638
I291
ag635
aag320
ag321
ag322
ag323
ag324
ag325
ag326
ag327
ag328
ag329
ag330
ag331
ag332
ag333
ag334
ag335
ag336
ag337
ag338
ag339
ag340
ag341
ag342
ag343
ag344
ag345
ag346
ag347
ag348
ag349
ag350
ag351
ag352
ag353
ag354
ag355
ag356
ag357
ag358
ag359
ag360
ag361
ag362
ag363
ag364
ag365
ag366
ag367
ag368
ag369
ag370
ag371
ag372
ag373
ag374
ag375
ag376
ag377
ag378
ag379
ag380
ag381
ag382
ag383
ag384
ag385
ag386
ag387
ag388
ag389
ag390
ag391
ag392
ag393
ag394
ag395
ag396
ag397
ag398
a(lp639
I371
ag635
aag399
ag400
ag401
ag402
ag403
ag404
ag405
ag406
ag407
ag408
ag409
ag410
ag411
ag412
ag413
ag414
ag415
ag416
ag417
ag418
ag419
ag420
ag421
ag422
ag423
ag424
ag425
ag426
ag427
ag428
ag429
ag430
ag431
ag432
ag433
ag434
ag435
ag436
ag437
ag438
ag439
ag440
ag441
a(lp640
I415
ag637
aag442
ag443
ag444
ag445
ag446
ag447
a(lp641
I422
ag637
aag448
ag449
ag451
ag452
ag453
ag454
ag455
ag456
ag457
ag458
ag459
ag460
ag461
ag462
ag463
ag464
ag465
ag466
ag467
ag468
ag469
ag470
ag471
ag472
ag473
ag474
ag475
ag476
ag477
ag478
ag479
ag480
ag481
ag482
ag483
ag484
ag485
ag486
ag487
ag488
a(lp642
I463
ag635
aag489
ag490
ag491
ag492
ag493
ag494
ag495
ag496
ag497
ag498
ag499
ag500
ag501
ag502
ag503
ag504
ag505
ag506
ag507
ag508
ag509
ag510
ag511
ag512
ag513
ag514
ag515
ag516
ag517
ag518
ag519
ag520
ag521
ag522
ag523
ag524
ag525
ag526
ag527
ag528
ag529
ag530
ag531
a(lp643
I507
ag637
aag532
ag533
ag534
ag535
ag536
ag537
ag538
ag539
ag540
ag541
ag542
ag543
ag544
ag545
ag546
ag547
ag548
ag549
ag550
ag551
ag552
ag553
ag554
ag555
ag556
ag557
ag558
ag559
ag560
ag561
ag562
ag563
ag564
a(lp644
I541
ag635
aag565
ag566
ag567
a(lp645
I545
aS"'"
p646
aag568
ag569
ag570
ag571
ag572
ag573
ag574
ag575
ag576
ag577
ag578
a(lp647
I557
aS'!'
p648
aag579
ag580
ag581
ag582
ag583
ag584
ag585
ag586
ag587
ag588
ag589
a(lp649
I569
ag648
aag590
ag591
ag592
ag593
ag594
ag595
ag596
ag597
ag598
a(lp650
I579
ag648
aag599
ag600
ag601
ag602
ag603
ag604
ag605
ag606
ag607
ag608
ag609
ag610
ag611
a(lp651
I593
ag648
aasS'docName'
p652
S'source-document02945.txt'
p653
sb.