(iModel.Document
Document
p0
(dp1
S'fmap'
p2
(lp3
(lp4
I0
aI3
aS'like'
p5
a(lp6
S'*'
p7
ag5
aaa(lp8
I0
aI3
ag5
a(lp9
g7
ag5
aaa(lp10
I0
aI3
ag5
a(lp11
g7
ag5
aaa(lp12
I0
aI3
ag5
a(lp13
g7
ag5
aaa(lp14
I9
aI11
aS'new'
p15
a(lp16
g5
ag15
aaa(lp17
I9
aI11
ag15
a(lp18
g7
ag15
aaa(lp19
I9
aI11
ag15
a(lp20
g7
ag15
aaa(lp21
I9
aI11
ag15
a(lp22
g7
ag15
aaa(lp23
I13
aI16
aS'look'
p24
a(lp25
g15
ag24
aaa(lp26
I13
aI16
ag24
a(lp27
g5
ag24
aaa(lp28
I13
aI16
ag24
a(lp29
g7
ag24
aaa(lp30
I13
aI16
ag24
a(lp31
g7
ag24
aaa(lp32
I22
aI25
aS'wish'
p33
a(lp34
g24
ag33
aaa(lp35
I22
aI25
ag33
a(lp36
g15
ag33
aaa(lp37
I22
aI25
ag33
a(lp38
g5
ag33
aaa(lp39
I22
aI25
ag33
a(lp40
g7
ag33
aaa(lp41
I30
aI34
aS'stuff'
p42
a(lp43
g33
ag42
aaa(lp44
I30
aI34
ag42
a(lp45
g24
ag42
aaa(lp46
I30
aI34
ag42
a(lp47
g15
ag42
aaa(lp48
I30
aI34
ag42
a(lp49
g5
ag42
aaa(lp50
I36
aI40
aS'comes'
p51
a(lp52
g42
ag51
aaa(lp53
I36
aI40
ag51
a(lp54
g33
ag51
aaa(lp55
I36
aI40
ag51
a(lp56
g24
ag51
aaa(lp57
I36
aI40
ag51
a(lp58
g15
ag51
aaa(lp59
I42
aI45
aS'back'
p60
a(lp61
g51
ag60
aaa(lp62
I42
aI45
ag60
a(lp63
g42
ag60
aaa(lp64
I42
aI45
ag60
a(lp65
g33
ag60
aaa(lp66
I42
aI45
ag60
a(lp67
g24
ag60
aaa(lp68
I47
aI50
aS'nara'
p69
a(lp70
g60
ag69
aaa(lp71
I47
aI50
ag69
a(lp72
g51
ag69
aaa(lp73
I47
aI50
ag69
a(lp74
g42
ag69
aaa(lp75
I47
aI50
ag69
a(lp76
g33
ag69
aaa(lp77
I54
aI57
aS'love'
p78
a(lp79
g69
ag78
aaa(lp80
I54
aI57
ag78
a(lp81
g60
ag78
aaa(lp82
I54
aI57
ag78
a(lp83
g51
ag78
aaa(lp84
I54
aI57
ag78
a(lp85
g42
ag78
aaa(lp86
I63
aI65
aS'new'
p87
a(lp88
g78
ag87
aaa(lp89
I63
aI65
ag87
a(lp90
g69
ag87
aaa(lp91
I63
aI65
ag87
a(lp92
g60
ag87
aaa(lp93
I63
aI65
ag87
a(lp94
g51
ag87
aaa(lp95
I67
aI70
aS'look'
p96
a(lp97
g87
ag96
aaa(lp98
I67
aI70
ag96
a(lp99
g78
ag96
aaa(lp100
I67
aI70
ag96
a(lp101
g69
ag96
aaa(lp102
I67
aI70
ag96
a(lp103
g60
ag96
aaa(lp104
I72
aI78
aS'dorthea'
p105
a(lp106
g96
ag105
aaa(lp107
I72
aI78
ag105
a(lp108
g87
ag105
aaa(lp109
I72
aI78
ag105
a(lp110
g78
ag105
aaa(lp111
I72
aI78
ag105
a(lp112
g69
ag105
aaa(lp113
I82
aI86
aS'reply'
p114
a(lp115
g105
ag114
aaa(lp116
I82
aI86
ag114
a(lp117
g96
ag114
aaa(lp118
I82
aI86
ag114
a(lp119
g87
ag114
aaa(lp120
I82
aI86
ag114
a(lp121
g78
ag114
aaa(lp122
I88
aI92
aS'quote'
p123
a(lp124
g114
ag123
aaa(lp125
I88
aI92
ag123
a(lp126
g105
ag123
aaa(lp127
I88
aI92
ag123
a(lp128
g96
ag123
aaa(lp129
I88
aI92
ag123
a(lp130
g87
ag123
aaa(lp131
I99
aI105
aS'website'
p132
a(lp133
g123
ag132
aaa(lp134
I99
aI105
ag132
a(lp135
g114
ag132
aaa(lp136
I99
aI105
ag132
a(lp137
g105
ag132
aaa(lp138
I99
aI105
ag132
a(lp139
g96
ag132
aaa(lp140
I113
aI115
aS'far'
p141
a(lp142
g132
ag141
aaa(lp143
I113
aI115
ag141
a(lp144
g123
ag141
aaa(lp145
I113
aI115
ag141
a(lp146
g114
ag141
aaa(lp147
I113
aI115
ag141
a(lp148
g105
ag141
aaa(lp149
I121
aI124
aS'best'
p150
a(lp151
g141
ag150
aaa(lp152
I121
aI124
ag150
a(lp153
g132
ag150
aaa(lp154
I121
aI124
ag150
a(lp155
g123
ag150
aaa(lp156
I121
aI124
ag150
a(lp157
g114
ag150
aaa(lp158
I126
aI128
aS'one'
p159
a(lp160
g150
ag159
aaa(lp161
I126
aI128
ag159
a(lp162
g141
ag159
aaa(lp163
I126
aI128
ag159
a(lp164
g132
ag159
aaa(lp165
I126
aI128
ag159
a(lp166
g123
ag159
aaa(lp167
I133
aI137
aS'watch'
p168
a(lp169
g159
ag168
aaa(lp170
I133
aI137
ag168
a(lp171
g150
ag168
aaa(lp172
I133
aI137
ag168
a(lp173
g141
ag168
aaa(lp174
I133
aI137
ag168
a(lp175
g132
ag168
aaa(lp176
I139
aI140
aS'tv'
p177
a(lp178
g168
ag177
aaa(lp179
I139
aI140
ag177
a(lp180
g159
ag177
aaa(lp181
I139
aI140
ag177
a(lp182
g150
ag177
aaa(lp183
I139
aI140
ag177
a(lp184
g141
ag177
aaa(lp185
I142
aI146
aS'shows'
p186
a(lp187
g177
ag186
aaa(lp188
I142
aI146
ag186
a(lp189
g168
ag186
aaa(lp190
I142
aI146
ag186
a(lp191
g159
ag186
aaa(lp192
I142
aI146
ag186
a(lp193
g150
ag186
aaa(lp194
I166
aI169
aS'ones'
p195
a(lp196
g186
ag195
aaa(lp197
I166
aI169
ag195
a(lp198
g177
ag195
aaa(lp199
I166
aI169
ag195
a(lp200
g168
ag195
aaa(lp201
I166
aI169
ag195
a(lp202
g159
ag195
aaa(lp203
I176
aI183
aS'problems'
p204
a(lp205
g195
ag204
aaa(lp206
I176
aI183
ag204
a(lp207
g186
ag204
aaa(lp208
I176
aI183
ag204
a(lp209
g177
ag204
aaa(lp210
I176
aI183
ag204
a(lp211
g168
ag204
aaa(lp212
I185
aI191
aS'loading'
p213
a(lp214
g204
ag213
aaa(lp215
I185
aI191
ag213
a(lp216
g195
ag213
aaa(lp217
I185
aI191
ag213
a(lp218
g186
ag213
aaa(lp219
I185
aI191
ag213
a(lp220
g177
ag213
aaa(lp221
I208
aI210
aS'pay'
p222
a(lp223
g213
ag222
aaa(lp224
I208
aI210
ag222
a(lp225
g204
ag222
aaa(lp226
I208
aI210
ag222
a(lp227
g195
ag222
aaa(lp228
I208
aI210
ag222
a(lp229
g186
ag222
aaa(lp230
I229
aI230
aS'bs'
p231
a(lp232
g222
ag231
aaa(lp233
I229
aI230
ag231
a(lp234
g213
ag231
aaa(lp235
I229
aI230
ag231
a(lp236
g204
ag231
aaa(lp237
I229
aI230
ag231
a(lp238
g195
ag231
aaa(lp239
I232
aI236
aS'sites'
p240
a(lp241
g231
ag240
aaa(lp242
I232
aI236
ag240
a(lp243
g222
ag240
aaa(lp244
I232
aI236
ag240
a(lp245
g213
ag240
aaa(lp246
I232
aI236
ag240
a(lp247
g204
ag240
aaa(lp248
I241
aI246
aS'really'
p249
a(lp250
g240
ag249
aaa(lp251
I241
aI246
ag249
a(lp252
g231
ag249
aaa(lp253
I241
aI246
ag249
a(lp254
g222
ag249
aaa(lp255
I241
aI246
ag249
a(lp256
g213
ag249
aaa(lp257
I248
aI251
aS'love'
p258
a(lp259
g249
ag258
aaa(lp260
I248
aI251
ag258
a(lp261
g240
ag258
aaa(lp262
I248
aI251
ag258
a(lp263
g231
ag258
aaa(lp264
I248
aI251
ag258
a(lp265
g222
ag258
aaa(lp266
I258
aI261
aS'site'
p267
a(lp268
g258
ag267
aaa(lp269
I258
aI261
ag267
a(lp270
g249
ag267
aaa(lp271
I258
aI261
ag267
a(lp272
g240
ag267
aaa(lp273
I258
aI261
ag267
a(lp274
g231
ag267
aaa(lp275
I264
aI268
aS'great'
p276
a(lp277
g267
ag276
aaa(lp278
I264
aI268
ag276
a(lp279
g258
ag276
aaa(lp280
I264
aI268
ag276
a(lp281
g249
ag276
aaa(lp282
I264
aI268
ag276
a(lp283
g240
ag276
aaa(lp284
I270
aI272
aS'job'
p285
a(lp286
g276
ag285
aaa(lp287
I270
aI272
ag285
a(lp288
g267
ag285
aaa(lp289
I270
aI272
ag285
a(lp290
g258
ag285
aaa(lp291
I270
aI272
ag285
a(lp292
g249
ag285
aaa(lp293
I277
aI280
aS'hope'
p294
a(lp295
g285
ag294
aaa(lp296
I277
aI280
ag294
a(lp297
g276
ag294
aaa(lp298
I277
aI280
ag294
a(lp299
g267
ag294
aaa(lp300
I277
aI280
ag294
a(lp301
g258
ag294
aaa(lp302
I286
aI289
aS'guys'
p303
a(lp304
g294
ag303
aaa(lp305
I286
aI289
ag303
a(lp306
g285
ag303
aaa(lp307
I286
aI289
ag303
a(lp308
g276
ag303
aaa(lp309
I286
aI289
ag303
a(lp310
g267
ag303
aaa(lp311
I291
aI294
aS'keep'
p312
a(lp313
g303
ag312
aaa(lp314
I291
aI294
ag312
a(lp315
g294
ag312
aaa(lp316
I291
aI294
ag312
a(lp317
g285
ag312
aaa(lp318
I291
aI294
ag312
a(lp319
g276
ag312
aaa(lp320
I319
aI322
aS'much'
p321
a(lp322
g312
ag321
aaa(lp323
I319
aI322
ag321
a(lp324
g303
ag321
aaa(lp325
I319
aI322
ag321
a(lp326
g294
ag321
aaa(lp327
I319
aI322
ag321
a(lp328
g285
ag321
aaa(lp329
I324
aI327
aS'love'
p330
a(lp331
g321
ag330
aaa(lp332
I324
aI327
ag330
a(lp333
g312
ag330
aaa(lp334
I324
aI327
ag330
a(lp335
g303
ag330
aaa(lp336
I324
aI327
ag330
a(lp337
g294
ag330
aaa(lp338
I329
aI334
aS'nicole'
p339
a(lp340
g330
ag339
aaa(lp341
I329
aI334
ag339
a(lp342
g321
ag339
aaa(lp343
I329
aI334
ag339
a(lp344
g312
ag339
aaa(lp345
I329
aI334
ag339
a(lp346
g303
ag339
aaa(lp347
I338
aI342
aS'reply'
p348
a(lp349
g339
ag348
aaa(lp350
I338
aI342
ag348
a(lp351
g330
ag348
aaa(lp352
I338
aI342
ag348
a(lp353
g321
ag348
aaa(lp354
I338
aI342
ag348
a(lp355
g312
ag348
aaa(lp356
I344
aI348
aS'quote'
p357
a(lp358
g348
ag357
aaa(lp359
I344
aI348
ag357
a(lp360
g339
ag357
aaa(lp361
I344
aI348
ag357
a(lp362
g330
ag357
aaa(lp363
I344
aI348
ag357
a(lp364
g321
ag357
aaa(lp365
I352
aI354
aS'luv'
p366
a(lp367
g357
ag366
aaa(lp368
I352
aI354
ag366
a(lp369
g348
ag366
aaa(lp370
I352
aI354
ag366
a(lp371
g339
ag366
aaa(lp372
I352
aI354
ag366
a(lp373
g330
ag366
aaa(lp374
I361
aI370
aS'website\xe2\x80\xa6'
p375
a(lp376
g366
ag375
aaa(lp377
I361
aI370
ag375
a(lp378
g357
ag375
aaa(lp379
I361
aI370
ag375
a(lp380
g348
ag375
aaa(lp381
I361
aI370
ag375
a(lp382
g339
ag375
aaa(lp383
I380
aI386
aS'problem'
p384
a(lp385
g375
ag384
aaa(lp386
I380
aI386
ag384
a(lp387
g366
ag384
aaa(lp388
I380
aI386
ag384
a(lp389
g357
ag384
aaa(lp390
I380
aI386
ag384
a(lp391
g348
ag384
aaa(lp392
I396
aI401
aS'theres'
p393
a(lp394
g384
ag393
aaa(lp395
I396
aI401
ag393
a(lp396
g375
ag393
aaa(lp397
I396
aI401
ag393
a(lp398
g366
ag393
aaa(lp399
I396
aI401
ag393
a(lp400
g357
ag393
aaa(lp401
I406
aI410
aS'serch'
p402
a(lp403
g393
ag402
aaa(lp404
I406
aI410
ag402
a(lp405
g384
ag402
aaa(lp406
I406
aI410
ag402
a(lp407
g375
ag402
aaa(lp408
I406
aI410
ag402
a(lp409
g366
ag402
aaa(lp410
I412
aI417
aS'engine'
p411
a(lp412
g402
ag411
aaa(lp413
I412
aI417
ag411
a(lp414
g393
ag411
aaa(lp415
I412
aI417
ag411
a(lp416
g384
ag411
aaa(lp417
I412
aI417
ag411
a(lp418
g375
ag411
aaa(lp419
I422
aI427
aS'it\xe2\x80\x99s'
p420
a(lp421
g411
ag420
aaa(lp422
I422
aI427
ag420
a(lp423
g402
ag420
aaa(lp424
I422
aI427
ag420
a(lp425
g393
ag420
aaa(lp426
I422
aI427
ag420
a(lp427
g384
ag420
aaa(lp428
I429
aI434
aS'really'
p429
a(lp430
g420
ag429
aaa(lp431
I429
aI434
ag429
a(lp432
g411
ag429
aaa(lp433
I429
aI434
ag429
a(lp434
g402
ag429
aaa(lp435
I429
aI434
ag429
a(lp436
g393
ag429
aaa(lp437
I436
aI443
aS'annoying'
p438
a(lp439
g429
ag438
aaa(lp440
I436
aI443
ag438
a(lp441
g420
ag438
aaa(lp442
I436
aI443
ag438
a(lp443
g411
ag438
aaa(lp444
I436
aI443
ag438
a(lp445
g402
ag438
aaa(lp446
I445
aI447
aS'cuz'
p447
a(lp448
g438
ag447
aaa(lp449
I445
aI447
ag447
a(lp450
g429
ag447
aaa(lp451
I445
aI447
ag447
a(lp452
g420
ag447
aaa(lp453
I445
aI447
ag447
a(lp454
g411
ag447
aaa(lp455
I451
aI457
aS'can\xe2\x80\x99t'
p456
a(lp457
g447
ag456
aaa(lp458
I451
aI457
ag456
a(lp459
g438
ag456
aaa(lp460
I451
aI457
ag456
a(lp461
g429
ag456
aaa(lp462
I451
aI457
ag456
a(lp463
g420
ag456
aaa(lp464
I459
aI462
aS'find'
p465
a(lp466
g456
ag465
aaa(lp467
I459
aI462
ag465
a(lp468
g447
ag465
aaa(lp469
I459
aI462
ag465
a(lp470
g438
ag465
aaa(lp471
I459
aI462
ag465
a(lp472
g429
ag465
aaa(lp473
I472
aI476
aS'shows'
p474
a(lp475
g465
ag474
aaa(lp476
I472
aI476
ag474
a(lp477
g456
ag474
aaa(lp478
I472
aI476
ag474
a(lp479
g447
ag474
aaa(lp480
I472
aI476
ag474
a(lp481
g438
ag474
aaa(lp482
I486
aI489
aS'site'
p483
a(lp484
g474
ag483
aaa(lp485
I486
aI489
ag483
a(lp486
g465
ag483
aaa(lp487
I486
aI489
ag483
a(lp488
g456
ag483
aaa(lp489
I486
aI489
ag483
a(lp490
g447
ag483
aaa(lp491
I504
aI507
aS'ugly'
p492
a(lp493
g483
ag492
aaa(lp494
I504
aI507
ag492
a(lp495
g474
ag492
aaa(lp496
I504
aI507
ag492
a(lp497
g465
ag492
aaa(lp498
I504
aI507
ag492
a(lp499
g456
ag492
aaa(lp500
I509
aI513
aS'betty'
p501
a(lp502
g492
ag501
aaa(lp503
I509
aI513
ag501
a(lp504
g483
ag501
aaa(lp505
I509
aI513
ag501
a(lp506
g474
ag501
aaa(lp507
I509
aI513
ag501
a(lp508
g465
ag501
aaa(lp509
I518
aI527
aS'trackbacks'
p510
a(lp511
g501
ag510
aaa(lp512
I518
aI527
ag510
a(lp513
g492
ag510
aaa(lp514
I518
aI527
ag510
a(lp515
g483
ag510
aaa(lp516
I518
aI527
ag510
a(lp517
g474
ag510
aaa(lp518
I529
aI531
aS'yet'
p519
a(lp520
g510
ag519
aaa(lp521
I529
aI531
ag519
a(lp522
g501
ag519
aaa(lp523
I529
aI531
ag519
a(lp524
g492
ag519
aaa(lp525
I529
aI531
ag519
a(lp526
g483
ag519
aaa(lp527
I534
aI539
aS'email'
p528
a(lp529
g519
ag528
aaa(lp530
I534
aI539
ag528
a(lp531
g510
ag528
aaa(lp532
I534
aI539
ag528
a(lp533
g501
ag528
aaa(lp534
I534
aI539
ag528
a(lp535
g492
ag528
aaa(lp536
I554
aI562
aS'published'
p537
a(lp538
g528
ag537
aaa(lp539
I554
aI562
ag537
a(lp540
g519
ag537
aaa(lp541
I554
aI562
ag537
a(lp542
g510
ag537
aaa(lp543
I554
aI562
ag537
a(lp544
g501
ag537
aaa(lp545
I566
aI573
aS'required'
p546
a(lp547
g537
ag546
aaa(lp548
I566
aI573
ag546
a(lp549
g528
ag546
aaa(lp550
I566
aI573
ag546
a(lp551
g519
ag546
aaa(lp552
I566
aI573
ag546
a(lp553
g510
ag546
aaa(lp554
I576
aI582
aS'website'
p555
a(lp556
g546
ag555
aaa(lp557
I576
aI582
ag555
a(lp558
g537
ag555
aaa(lp559
I576
aI582
ag555
a(lp560
g528
ag555
aaa(lp561
I576
aI582
ag555
a(lp562
g519
ag555
aaa(lp563
I584
aI589
aS'notify'
p564
a(lp565
g555
ag564
aaa(lp566
I584
aI589
ag564
a(lp567
g546
ag564
aaa(lp568
I584
aI589
ag564
a(lp569
g537
ag564
aaa(lp570
I584
aI589
ag564
a(lp571
g528
ag564
aaa(lp572
I597
aI604
aS'followup'
p573
a(lp574
g564
ag573
aaa(lp575
I597
aI604
ag573
a(lp576
g555
ag573
aaa(lp577
I597
aI604
ag573
a(lp578
g546
ag573
aaa(lp579
I597
aI604
ag573
a(lp580
g537
ag573
aaa(lp581
I606
aI613
aS'comments'
p582
a(lp583
g573
ag582
aaa(lp584
I606
aI613
ag582
a(lp585
g564
ag582
aaa(lp586
I606
aI613
ag582
a(lp587
g555
ag582
aaa(lp588
I606
aI613
ag582
a(lp589
g546
ag582
aaa(lp590
I615
aI617
aS'via'
p591
a(lp592
g582
ag591
aaa(lp593
I615
aI617
ag591
a(lp594
g573
ag591
aaa(lp595
I615
aI617
ag591
a(lp596
g564
ag591
aaa(lp597
I615
aI617
ag591
a(lp598
g555
ag591
aaa(lp599
I619
aI624
aS'email'
p600
a(lp601
g591
ag600
aaa(lp602
I619
aI624
ag600
a(lp603
g582
ag600
aaa(lp604
I619
aI624
ag600
a(lp605
g573
ag600
aaa(lp606
I619
aI624
ag600
a(lp607
g564
ag600
aaa(lp608
I626
aI634
aS'subscribe'
p609
a(lp610
g600
ag609
aaa(lp611
I626
aI634
ag609
a(lp612
g591
ag609
aaa(lp613
I626
aI634
ag609
a(lp614
g582
ag609
aaa(lp615
I626
aI634
ag609
a(lp616
g573
ag609
aaasS'wordMap'
p617
(lp618
(lp619
I0
aI3
ag5
a(lp620
(lp621
I0
aS'l'
p622
aa(lp623
I1
aS'i'
p624
aa(lp625
I2
aS'k'
p626
aa(lp627
I3
aS'e'
p628
aaaa(lp629
I5
aI7
aS'the'
p630
a(lp631
(lp632
I5
aS't'
p633
aa(lp634
I6
aS'h'
p635
aa(lp636
I7
ag628
aaaa(lp637
I9
aI11
ag15
a(lp638
(lp639
I9
aS'n'
p640
aa(lp641
I10
ag628
aa(lp642
I11
aS'w'
p643
aaaa(lp644
I13
aI16
ag24
a(lp645
(lp646
I13
ag622
aa(lp647
I14
aS'o'
p648
aa(lp649
I15
ag648
aa(lp650
I16
ag626
aaaa(lp651
I18
aI20
aS'but'
p652
a(lp653
(lp654
I18
aS'b'
p655
aa(lp656
I19
aS'u'
p657
aa(lp658
I20
ag633
aaaa(lp659
I22
aI25
ag33
a(lp660
(lp661
I22
ag643
aa(lp662
I23
ag624
aa(lp663
I24
aS's'
p664
aa(lp665
I25
ag635
aaaa(lp666
I27
aI28
aS'it'
p667
a(lp668
(lp669
I27
ag624
aa(lp670
I28
ag633
aaaa(lp671
I30
aI34
ag42
a(lp672
(lp673
I30
ag664
aa(lp674
I31
ag633
aa(lp675
I32
ag657
aa(lp676
I33
aS'f'
p677
aa(lp678
I34
ag677
aaaa(lp679
I36
aI40
ag51
a(lp680
(lp681
I36
aS'c'
p682
aa(lp683
I37
ag648
aa(lp684
I38
aS'm'
p685
aa(lp686
I39
ag628
aa(lp687
I40
ag664
aaaa(lp688
I42
aI45
ag60
a(lp689
(lp690
I42
ag655
aa(lp691
I43
aS'a'
p692
aa(lp693
I44
ag682
aa(lp694
I45
ag626
aaaa(lp695
I47
aI50
ag69
a(lp696
(lp697
I47
ag640
aa(lp698
I48
ag692
aa(lp699
I49
aS'r'
p700
aa(lp701
I50
ag692
aaaa(lp702
I52
aI52
ag624
a(lp703
(lp704
I52
ag624
aaaa(lp705
I54
aI57
ag78
a(lp706
(lp707
I54
ag622
aa(lp708
I55
ag648
aa(lp709
I56
aS'v'
p710
aa(lp711
I57
ag628
aaaa(lp712
I59
aI61
aS'the'
p713
a(lp714
(lp715
I59
ag633
aa(lp716
I60
ag635
aa(lp717
I61
ag628
aaaa(lp718
I63
aI65
ag87
a(lp719
(lp720
I63
ag640
aa(lp721
I64
ag628
aa(lp722
I65
ag643
aaaa(lp723
I67
aI70
ag96
a(lp724
(lp725
I67
ag622
aa(lp726
I68
ag648
aa(lp727
I69
ag648
aa(lp728
I70
ag626
aaaa(lp729
I72
aI78
ag105
a(lp730
(lp731
I72
aS'd'
p732
aa(lp733
I73
ag648
aa(lp734
I74
ag700
aa(lp735
I75
ag633
aa(lp736
I76
ag635
aa(lp737
I77
ag628
aa(lp738
I78
ag692
aaaa(lp739
I82
aI86
ag114
a(lp740
(lp741
I82
ag700
aa(lp742
I83
ag628
aa(lp743
I84
aS'p'
p744
aa(lp745
I85
ag622
aa(lp746
I86
aS'y'
p747
aaaa(lp748
I88
aI92
ag123
a(lp749
(lp750
I88
aS'q'
p751
aa(lp752
I89
ag657
aa(lp753
I90
ag648
aa(lp754
I91
ag633
aa(lp755
I92
ag628
aaaa(lp756
I94
aI97
aS'this'
p757
a(lp758
(lp759
I94
ag633
aa(lp760
I95
ag635
aa(lp761
I96
ag624
aa(lp762
I97
ag664
aaaa(lp763
I99
aI105
ag132
a(lp764
(lp765
I99
ag643
aa(lp766
I100
ag628
aa(lp767
I101
ag655
aa(lp768
I102
ag664
aa(lp769
I103
ag624
aa(lp770
I104
ag633
aa(lp771
I105
ag628
aaaa(lp772
I107
aI108
aS'is'
p773
a(lp774
(lp775
I107
ag624
aa(lp776
I108
ag664
aaaa(lp777
I110
aI111
aS'by'
p778
a(lp779
(lp780
I110
ag655
aa(lp781
I111
ag747
aaaa(lp782
I113
aI115
ag141
a(lp783
(lp784
I113
ag677
aa(lp785
I114
ag692
aa(lp786
I115
ag700
aaaa(lp787
I117
aI119
aS'the'
p788
a(lp789
(lp790
I117
ag633
aa(lp791
I118
ag635
aa(lp792
I119
ag628
aaaa(lp793
I121
aI124
ag150
a(lp794
(lp795
I121
ag655
aa(lp796
I122
ag628
aa(lp797
I123
ag664
aa(lp798
I124
ag633
aaaa(lp799
I126
aI128
ag159
a(lp800
(lp801
I126
ag648
aa(lp802
I127
ag640
aa(lp803
I128
ag628
aaaa(lp804
I130
aI131
aS'to'
p805
a(lp806
(lp807
I130
ag633
aa(lp808
I131
ag648
aaaa(lp809
I133
aI137
ag168
a(lp810
(lp811
I133
ag643
aa(lp812
I134
ag692
aa(lp813
I135
ag633
aa(lp814
I136
ag682
aa(lp815
I137
ag635
aaaa(lp816
I139
aI140
ag177
a(lp817
(lp818
I139
ag633
aa(lp819
I140
ag710
aaaa(lp820
I142
aI146
ag186
a(lp821
(lp822
I142
ag664
aa(lp823
I143
ag635
aa(lp824
I144
ag648
aa(lp825
I145
ag643
aa(lp826
I146
ag664
aaaa(lp827
I148
aI149
aS'on'
p828
a(lp829
(lp830
I148
ag648
aa(lp831
I149
ag640
aaaa(lp832
I152
aI154
aS'all'
p833
a(lp834
(lp835
I152
ag692
aa(lp836
I153
ag622
aa(lp837
I154
ag622
aaaa(lp838
I156
aI158
aS'the'
p839
a(lp840
(lp841
I156
ag633
aa(lp842
I157
ag635
aa(lp843
I158
ag628
aaaa(lp844
I160
aI164
aS'other'
p845
a(lp846
(lp847
I160
ag648
aa(lp848
I161
ag633
aa(lp849
I162
ag635
aa(lp850
I163
ag628
aa(lp851
I164
ag700
aaaa(lp852
I166
aI169
ag195
a(lp853
(lp854
I166
ag648
aa(lp855
I167
ag640
aa(lp856
I168
ag628
aa(lp857
I169
ag664
aaaa(lp858
I171
aI174
aS'have'
p859
a(lp860
(lp861
I171
ag635
aa(lp862
I172
ag692
aa(lp863
I173
ag710
aa(lp864
I174
ag628
aaaa(lp865
I176
aI183
ag204
a(lp866
(lp867
I176
ag744
aa(lp868
I177
ag700
aa(lp869
I178
ag648
aa(lp870
I179
ag655
aa(lp871
I180
ag622
aa(lp872
I181
ag628
aa(lp873
I182
ag685
aa(lp874
I183
ag664
aaaa(lp875
I185
aI191
ag213
a(lp876
(lp877
I185
ag622
aa(lp878
I186
ag648
aa(lp879
I187
ag692
aa(lp880
I188
ag732
aa(lp881
I189
ag624
aa(lp882
I190
ag640
aa(lp883
I191
aS'g'
p884
aaaa(lp885
I193
aI194
aS'or'
p886
a(lp887
(lp888
I193
ag648
aa(lp889
I194
ag700
aaaa(lp890
I196
aI198
aS'you'
p891
a(lp892
(lp893
I196
ag747
aa(lp894
I197
ag648
aa(lp895
I198
ag657
aaaa(lp896
I200
aI203
aS'have'
p897
a(lp898
(lp899
I200
ag635
aa(lp900
I201
ag692
aa(lp901
I202
ag710
aa(lp902
I203
ag628
aaaa(lp903
I205
aI206
aS'to'
p904
a(lp905
(lp906
I205
ag633
aa(lp907
I206
ag648
aaaa(lp908
I208
aI210
ag222
a(lp909
(lp910
I208
ag744
aa(lp911
I209
ag692
aa(lp912
I210
ag747
aaaa(lp913
I212
aI213
aS'or'
p914
a(lp915
(lp916
I212
ag648
aa(lp917
I213
ag700
aaaa(lp918
I215
aI218
aS'they'
p919
a(lp920
(lp921
I215
ag633
aa(lp922
I216
ag635
aa(lp923
I217
ag628
aa(lp924
I218
ag747
aaaa(lp925
I220
aI222
aS'are'
p926
a(lp927
(lp928
I220
ag692
aa(lp929
I221
ag700
aa(lp930
I222
ag628
aaaa(lp931
I224
aI227
aS'just'
p932
a(lp933
(lp934
I224
aS'j'
p935
aa(lp936
I225
ag657
aa(lp937
I226
ag664
aa(lp938
I227
ag633
aaaa(lp939
I229
aI230
ag231
a(lp940
(lp941
I229
ag655
aa(lp942
I230
ag664
aaaa(lp943
I232
aI236
ag240
a(lp944
(lp945
I232
ag664
aa(lp946
I233
ag624
aa(lp947
I234
ag633
aa(lp948
I235
ag628
aa(lp949
I236
ag664
aaaa(lp950
I239
aI239
ag624
a(lp951
(lp952
I239
ag624
aaaa(lp953
I241
aI246
ag249
a(lp954
(lp955
I241
ag700
aa(lp956
I242
ag628
aa(lp957
I243
ag692
aa(lp958
I244
ag622
aa(lp959
I245
ag622
aa(lp960
I246
ag747
aaaa(lp961
I248
aI251
ag258
a(lp962
(lp963
I248
ag622
aa(lp964
I249
ag648
aa(lp965
I250
ag710
aa(lp966
I251
ag628
aaaa(lp967
I253
aI256
aS'this'
p968
a(lp969
(lp970
I253
ag633
aa(lp971
I254
ag635
aa(lp972
I255
ag624
aa(lp973
I256
ag664
aaaa(lp974
I258
aI261
ag267
a(lp975
(lp976
I258
ag664
aa(lp977
I259
ag624
aa(lp978
I260
ag633
aa(lp979
I261
ag628
aaaa(lp980
I264
aI268
ag276
a(lp981
(lp982
I264
ag884
aa(lp983
I265
ag700
aa(lp984
I266
ag628
aa(lp985
I267
ag692
aa(lp986
I268
ag633
aaaa(lp987
I270
aI272
ag285
a(lp988
(lp989
I270
ag935
aa(lp990
I271
ag648
aa(lp991
I272
ag655
aaaa(lp992
I275
aI275
ag624
a(lp993
(lp994
I275
ag624
aaaa(lp995
I277
aI280
ag294
a(lp996
(lp997
I277
ag635
aa(lp998
I278
ag648
aa(lp999
I279
ag744
aa(lp1000
I280
ag628
aaaa(lp1001
I282
aI284
aS'you'
p1002
a(lp1003
(lp1004
I282
ag747
aa(lp1005
I283
ag648
aa(lp1006
I284
ag657
aaaa(lp1007
I286
aI289
ag303
a(lp1008
(lp1009
I286
ag884
aa(lp1010
I287
ag657
aa(lp1011
I288
ag747
aa(lp1012
I289
ag664
aaaa(lp1013
I291
aI294
ag312
a(lp1014
(lp1015
I291
ag626
aa(lp1016
I292
ag628
aa(lp1017
I293
ag628
aa(lp1018
I294
ag744
aaaa(lp1019
I296
aI300
aS'doing'
p1020
a(lp1021
(lp1022
I296
ag732
aa(lp1023
I297
ag648
aa(lp1024
I298
ag624
aa(lp1025
I299
ag640
aa(lp1026
I300
ag884
aaaa(lp1027
I302
aI305
aS'what'
p1028
a(lp1029
(lp1030
I302
ag643
aa(lp1031
I303
ag635
aa(lp1032
I304
ag692
aa(lp1033
I305
ag633
aaaa(lp1034
I307
aI310
aS'your'
p1035
a(lp1036
(lp1037
I307
ag747
aa(lp1038
I308
ag648
aa(lp1039
I309
ag657
aa(lp1040
I310
ag700
aaaa(lp1041
I312
aI316
aS'doing'
p1042
a(lp1043
(lp1044
I312
ag732
aa(lp1045
I313
ag648
aa(lp1046
I314
ag624
aa(lp1047
I315
ag640
aa(lp1048
I316
ag884
aaaa(lp1049
I319
aI322
ag321
a(lp1050
(lp1051
I319
ag685
aa(lp1052
I320
ag657
aa(lp1053
I321
ag682
aa(lp1054
I322
ag635
aaaa(lp1055
I324
aI327
ag330
a(lp1056
(lp1057
I324
ag622
aa(lp1058
I325
ag648
aa(lp1059
I326
ag710
aa(lp1060
I327
ag628
aaaa(lp1061
I329
aI334
ag339
a(lp1062
(lp1063
I329
ag640
aa(lp1064
I330
ag624
aa(lp1065
I331
ag682
aa(lp1066
I332
ag648
aa(lp1067
I333
ag622
aa(lp1068
I334
ag628
aaaa(lp1069
I338
aI342
ag348
a(lp1070
(lp1071
I338
ag700
aa(lp1072
I339
ag628
aa(lp1073
I340
ag744
aa(lp1074
I341
ag622
aa(lp1075
I342
ag747
aaaa(lp1076
I344
aI348
ag357
a(lp1077
(lp1078
I344
ag751
aa(lp1079
I345
ag657
aa(lp1080
I346
ag648
aa(lp1081
I347
ag633
aa(lp1082
I348
ag628
aaaa(lp1083
I350
aI350
ag624
a(lp1084
(lp1085
I350
ag624
aaaa(lp1086
I352
aI354
ag366
a(lp1087
(lp1088
I352
ag622
aa(lp1089
I353
ag657
aa(lp1090
I354
ag710
aaaa(lp1091
I356
aI359
aS'this'
p1092
a(lp1093
(lp1094
I356
ag633
aa(lp1095
I357
ag635
aa(lp1096
I358
ag624
aa(lp1097
I359
ag664
aaaa(lp1098
I361
aI370
ag375
a(lp1099
(lp1100
I361
ag643
aa(lp1101
I362
ag628
aa(lp1102
I363
ag655
aa(lp1103
I364
ag664
aa(lp1104
I365
ag624
aa(lp1105
I366
ag633
aa(lp1106
I367
ag628
aa(lp1107
I368
aS'\xe2'
p1108
aa(lp1109
I369
aS'\x80'
p1110
aa(lp1111
I370
aS'\xa6'
p1112
aaaa(lp1113
I372
aI374
aS'but'
p1114
a(lp1115
(lp1116
I372
ag655
aa(lp1117
I373
ag657
aa(lp1118
I374
ag633
aaaa(lp1119
I376
aI378
aS'the'
p1120
a(lp1121
(lp1122
I376
ag633
aa(lp1123
I377
ag635
aa(lp1124
I378
ag628
aaaa(lp1125
I380
aI386
ag384
a(lp1126
(lp1127
I380
ag744
aa(lp1128
I381
ag700
aa(lp1129
I382
ag648
aa(lp1130
I383
ag655
aa(lp1131
I384
ag622
aa(lp1132
I385
ag628
aa(lp1133
I386
ag685
aaaa(lp1134
I388
aI389
aS'is'
p1135
a(lp1136
(lp1137
I388
ag624
aa(lp1138
I389
ag664
aaaa(lp1139
I391
aI394
aS'that'
p1140
a(lp1141
(lp1142
I391
ag633
aa(lp1143
I392
ag635
aa(lp1144
I393
ag692
aa(lp1145
I394
ag633
aaaa(lp1146
I396
aI401
ag393
a(lp1147
(lp1148
I396
ag633
aa(lp1149
I397
ag635
aa(lp1150
I398
ag628
aa(lp1151
I399
ag700
aa(lp1152
I400
ag628
aa(lp1153
I401
ag664
aaaa(lp1154
I403
aI404
aS'no'
p1155
a(lp1156
(lp1157
I403
ag640
aa(lp1158
I404
ag648
aaaa(lp1159
I406
aI410
ag402
a(lp1160
(lp1161
I406
ag664
aa(lp1162
I407
ag628
aa(lp1163
I408
ag700
aa(lp1164
I409
ag682
aa(lp1165
I410
ag635
aaaa(lp1166
I412
aI417
ag411
a(lp1167
(lp1168
I412
ag628
aa(lp1169
I413
ag640
aa(lp1170
I414
ag884
aa(lp1171
I415
ag624
aa(lp1172
I416
ag640
aa(lp1173
I417
ag628
aaaa(lp1174
I422
aI427
ag420
a(lp1175
(lp1176
I422
ag624
aa(lp1177
I423
ag633
aa(lp1178
I424
ag1108
aa(lp1179
I425
ag1110
aa(lp1180
I426
aS'\x99'
p1181
aa(lp1182
I427
ag664
aaaa(lp1183
I429
aI434
ag429
a(lp1184
(lp1185
I429
ag700
aa(lp1186
I430
ag628
aa(lp1187
I431
ag692
aa(lp1188
I432
ag622
aa(lp1189
I433
ag622
aa(lp1190
I434
ag747
aaaa(lp1191
I436
aI443
ag438
a(lp1192
(lp1193
I436
ag692
aa(lp1194
I437
ag640
aa(lp1195
I438
ag640
aa(lp1196
I439
ag648
aa(lp1197
I440
ag747
aa(lp1198
I441
ag624
aa(lp1199
I442
ag640
aa(lp1200
I443
ag884
aaaa(lp1201
I445
aI447
ag447
a(lp1202
(lp1203
I445
ag682
aa(lp1204
I446
ag657
aa(lp1205
I447
aS'z'
p1206
aaaa(lp1207
I449
aI449
ag624
a(lp1208
(lp1209
I449
ag624
aaaa(lp1210
I451
aI457
ag456
a(lp1211
(lp1212
I451
ag682
aa(lp1213
I452
ag692
aa(lp1214
I453
ag640
aa(lp1215
I454
ag1108
aa(lp1216
I455
ag1110
aa(lp1217
I456
ag1181
aa(lp1218
I457
ag633
aaaa(lp1219
I459
aI462
ag465
a(lp1220
(lp1221
I459
ag677
aa(lp1222
I460
ag624
aa(lp1223
I461
ag640
aa(lp1224
I462
ag732
aaaa(lp1225
I464
aI466
aS'all'
p1226
a(lp1227
(lp1228
I464
ag692
aa(lp1229
I465
ag622
aa(lp1230
I466
ag622
aaaa(lp1231
I468
aI470
aS'the'
p1232
a(lp1233
(lp1234
I468
ag633
aa(lp1235
I469
ag635
aa(lp1236
I470
ag628
aaaa(lp1237
I472
aI476
ag474
a(lp1238
(lp1239
I472
ag664
aa(lp1240
I473
ag635
aa(lp1241
I474
ag648
aa(lp1242
I475
ag643
aa(lp1243
I476
ag664
aaaa(lp1244
I478
aI479
aS'on'
p1245
a(lp1246
(lp1247
I478
ag648
aa(lp1248
I479
ag640
aaaa(lp1249
I481
aI484
aS'this'
p1250
a(lp1251
(lp1252
I481
ag633
aa(lp1253
I482
ag635
aa(lp1254
I483
ag624
aa(lp1255
I484
ag664
aaaa(lp1256
I486
aI489
ag483
a(lp1257
(lp1258
I486
ag664
aa(lp1259
I487
ag624
aa(lp1260
I488
ag633
aa(lp1261
I489
ag628
aaaa(lp1262
I491
aI493
aS'and'
p1263
a(lp1264
(lp1265
I491
ag692
aa(lp1266
I492
ag640
aa(lp1267
I493
ag732
aaaa(lp1268
I495
aI499
aS'where'
p1269
a(lp1270
(lp1271
I495
ag643
aa(lp1272
I496
ag635
aa(lp1273
I497
ag628
aa(lp1274
I498
ag700
aa(lp1275
I499
ag628
aaaa(lp1276
I501
aI502
aS'is'
p1277
a(lp1278
(lp1279
I501
ag624
aa(lp1280
I502
ag664
aaaa(lp1281
I504
aI507
ag492
a(lp1282
(lp1283
I504
ag657
aa(lp1284
I505
ag884
aa(lp1285
I506
ag622
aa(lp1286
I507
ag747
aaaa(lp1287
I509
aI513
ag501
a(lp1288
(lp1289
I509
ag655
aa(lp1290
I510
ag628
aa(lp1291
I511
ag633
aa(lp1292
I512
ag633
aa(lp1293
I513
ag747
aaaa(lp1294
I515
aI516
aS'no'
p1295
a(lp1296
(lp1297
I515
ag640
aa(lp1298
I516
ag648
aaaa(lp1299
I518
aI527
ag510
a(lp1300
(lp1301
I518
ag633
aa(lp1302
I519
ag700
aa(lp1303
I520
ag692
aa(lp1304
I521
ag682
aa(lp1305
I522
ag626
aa(lp1306
I523
ag655
aa(lp1307
I524
ag692
aa(lp1308
I525
ag682
aa(lp1309
I526
ag626
aa(lp1310
I527
ag664
aaaa(lp1311
I529
aI531
ag519
a(lp1312
(lp1313
I529
ag747
aa(lp1314
I530
ag628
aa(lp1315
I531
ag633
aaaa(lp1316
I534
aI539
ag528
a(lp1317
(lp1318
I534
ag628
aa(lp1319
I536
ag685
aa(lp1320
I537
ag692
aa(lp1321
I538
ag624
aa(lp1322
I539
ag622
aaaa(lp1323
I542
aI545
aS'will'
p1324
a(lp1325
(lp1326
I542
ag643
aa(lp1327
I543
ag624
aa(lp1328
I544
ag622
aa(lp1329
I545
ag622
aaaa(lp1330
I547
aI549
aS'not'
p1331
a(lp1332
(lp1333
I547
ag640
aa(lp1334
I548
ag648
aa(lp1335
I549
ag633
aaaa(lp1336
I551
aI552
aS'be'
p1337
a(lp1338
(lp1339
I551
ag655
aa(lp1340
I552
ag628
aaaa(lp1341
I554
aI562
ag537
a(lp1342
(lp1343
I554
ag744
aa(lp1344
I555
ag657
aa(lp1345
I556
ag655
aa(lp1346
I557
ag622
aa(lp1347
I558
ag624
aa(lp1348
I559
ag664
aa(lp1349
I560
ag635
aa(lp1350
I561
ag628
aa(lp1351
I562
ag732
aaaa(lp1352
I566
aI573
ag546
a(lp1353
(lp1354
I566
ag700
aa(lp1355
I567
ag628
aa(lp1356
I568
ag751
aa(lp1357
I569
ag657
aa(lp1358
I570
ag624
aa(lp1359
I571
ag700
aa(lp1360
I572
ag628
aa(lp1361
I573
ag732
aaaa(lp1362
I576
aI582
ag555
a(lp1363
(lp1364
I576
ag643
aa(lp1365
I577
ag628
aa(lp1366
I578
ag655
aa(lp1367
I579
ag664
aa(lp1368
I580
ag624
aa(lp1369
I581
ag633
aa(lp1370
I582
ag628
aaaa(lp1371
I584
aI589
ag564
a(lp1372
(lp1373
I584
ag640
aa(lp1374
I585
ag648
aa(lp1375
I586
ag633
aa(lp1376
I587
ag624
aa(lp1377
I588
ag677
aa(lp1378
I589
ag747
aaaa(lp1379
I591
aI592
aS'me'
p1380
a(lp1381
(lp1382
I591
ag685
aa(lp1383
I592
ag628
aaaa(lp1384
I594
aI595
aS'of'
p1385
a(lp1386
(lp1387
I594
ag648
aa(lp1388
I595
ag677
aaaa(lp1389
I597
aI604
ag573
a(lp1390
(lp1391
I597
ag677
aa(lp1392
I598
ag648
aa(lp1393
I599
ag622
aa(lp1394
I600
ag622
aa(lp1395
I601
ag648
aa(lp1396
I602
ag643
aa(lp1397
I603
ag657
aa(lp1398
I604
ag744
aaaa(lp1399
I606
aI613
ag582
a(lp1400
(lp1401
I606
ag682
aa(lp1402
I607
ag648
aa(lp1403
I608
ag685
aa(lp1404
I609
ag685
aa(lp1405
I610
ag628
aa(lp1406
I611
ag640
aa(lp1407
I612
ag633
aa(lp1408
I613
ag664
aaaa(lp1409
I615
aI617
ag591
a(lp1410
(lp1411
I615
ag710
aa(lp1412
I616
ag624
aa(lp1413
I617
ag692
aaaa(lp1414
I619
aI624
ag600
a(lp1415
(lp1416
I619
ag628
aa(lp1417
I621
ag685
aa(lp1418
I622
ag692
aa(lp1419
I623
ag624
aa(lp1420
I624
ag622
aaaa(lp1421
I626
aI634
ag609
a(lp1422
(lp1423
I626
ag664
aa(lp1424
I627
ag657
aa(lp1425
I628
ag655
aa(lp1426
I629
ag664
aa(lp1427
I630
ag682
aa(lp1428
I631
ag700
aa(lp1429
I632
ag624
aa(lp1430
I633
ag655
aa(lp1431
I634
ag628
aaaa(lp1432
I636
aI637
aS'to'
p1433
a(lp1434
(lp1435
I636
ag633
aa(lp1436
I637
ag648
aaaasS'cleanCharacterMap'
p1437
(lp1438
g621
ag623
ag625
ag627
a(lp1439
I4
aS' '
p1440
aag632
ag634
ag636
a(lp1441
I8
ag1440
aag639
ag641
ag642
a(lp1442
I12
ag1440
aag646
ag647
ag649
ag650
a(lp1443
I17
ag1440
aag654
ag656
ag658
a(lp1444
I21
ag1440
aag661
ag662
ag663
ag665
a(lp1445
I26
ag1440
aag669
ag670
a(lp1446
I29
ag1440
aag673
ag674
ag675
ag676
ag678
a(lp1447
I35
ag1440
aag681
ag683
ag684
ag686
ag687
a(lp1448
I41
ag1440
aag690
ag691
ag693
ag694
a(lp1449
I46
ag1440
aag697
ag698
ag699
ag701
a(lp1450
I51
ag1440
aag704
a(lp1451
I53
ag1440
aag707
ag708
ag709
ag711
a(lp1452
I58
ag1440
aag715
ag716
ag717
a(lp1453
I62
ag1440
aag720
ag721
ag722
a(lp1454
I66
ag1440
aag725
ag726
ag727
ag728
a(lp1455
I71
ag1440
aag731
ag733
ag734
ag735
ag736
ag737
ag738
a(lp1456
I79
ag1440
aa(lp1457
I81
ag1440
aag741
ag742
ag743
ag745
ag746
a(lp1458
I87
ag1440
aag750
ag752
ag753
ag754
ag755
a(lp1459
I93
ag1440
aag759
ag760
ag761
ag762
a(lp1460
I98
ag1440
aag765
ag766
ag767
ag768
ag769
ag770
ag771
a(lp1461
I106
ag1440
aag775
ag776
a(lp1462
I109
ag1440
aag780
ag781
a(lp1463
I112
ag1440
aag784
ag785
ag786
a(lp1464
I116
ag1440
aag790
ag791
ag792
a(lp1465
I120
ag1440
aag795
ag796
ag797
ag798
a(lp1466
I125
ag1440
aag801
ag802
ag803
a(lp1467
I129
ag1440
aag807
ag808
a(lp1468
I132
ag1440
aag811
ag812
ag813
ag814
ag815
a(lp1469
I138
ag1440
aag818
ag819
a(lp1470
I141
ag1440
aag822
ag823
ag824
ag825
ag826
a(lp1471
I147
ag1440
aag830
ag831
a(lp1472
I151
ag1440
aag835
ag836
ag837
a(lp1473
I155
ag1440
aag841
ag842
ag843
a(lp1474
I159
ag1440
aag847
ag848
ag849
ag850
ag851
a(lp1475
I165
ag1440
aag854
ag855
ag856
ag857
a(lp1476
I170
ag1440
aag861
ag862
ag863
ag864
a(lp1477
I175
ag1440
aag867
ag868
ag869
ag870
ag871
ag872
ag873
ag874
a(lp1478
I184
ag1440
aag877
ag878
ag879
ag880
ag881
ag882
ag883
a(lp1479
I192
ag1440
aag888
ag889
a(lp1480
I195
ag1440
aag893
ag894
ag895
a(lp1481
I199
ag1440
aag899
ag900
ag901
ag902
a(lp1482
I204
ag1440
aag906
ag907
a(lp1483
I207
ag1440
aag910
ag911
ag912
a(lp1484
I211
ag1440
aag916
ag917
a(lp1485
I214
ag1440
aag921
ag922
ag923
ag924
a(lp1486
I219
ag1440
aag928
ag929
ag930
a(lp1487
I223
ag1440
aag934
ag936
ag937
ag938
a(lp1488
I228
ag1440
aag941
ag942
a(lp1489
I231
ag1440
aag945
ag946
ag947
ag948
ag949
a(lp1490
I238
ag1440
aag952
a(lp1491
I240
ag1440
aag955
ag956
ag957
ag958
ag959
ag960
a(lp1492
I247
ag1440
aag963
ag964
ag965
ag966
a(lp1493
I252
ag1440
aag970
ag971
ag972
ag973
a(lp1494
I257
ag1440
aag976
ag977
ag978
ag979
a(lp1495
I263
ag1440
aag982
ag983
ag984
ag985
ag986
a(lp1496
I269
ag1440
aag989
ag990
ag991
a(lp1497
I274
ag1440
aag994
a(lp1498
I276
ag1440
aag997
ag998
ag999
ag1000
a(lp1499
I281
ag1440
aag1004
ag1005
ag1006
a(lp1500
I285
ag1440
aag1009
ag1010
ag1011
ag1012
a(lp1501
I290
ag1440
aag1015
ag1016
ag1017
ag1018
a(lp1502
I295
ag1440
aag1022
ag1023
ag1024
ag1025
ag1026
a(lp1503
I301
ag1440
aag1030
ag1031
ag1032
ag1033
a(lp1504
I306
ag1440
aag1037
ag1038
ag1039
ag1040
a(lp1505
I311
ag1440
aag1044
ag1045
ag1046
ag1047
ag1048
a(lp1506
I318
ag1440
aag1051
ag1052
ag1053
ag1054
a(lp1507
I323
ag1440
aag1057
ag1058
ag1059
ag1060
a(lp1508
I328
ag1440
aag1063
ag1064
ag1065
ag1066
ag1067
ag1068
a(lp1509
I335
ag1440
aa(lp1510
I337
ag1440
aag1071
ag1072
ag1073
ag1074
ag1075
a(lp1511
I343
ag1440
aag1078
ag1079
ag1080
ag1081
ag1082
a(lp1512
I349
ag1440
aag1085
a(lp1513
I351
ag1440
aag1088
ag1089
ag1090
a(lp1514
I355
ag1440
aag1094
ag1095
ag1096
ag1097
a(lp1515
I360
ag1440
aag1100
ag1101
ag1102
ag1103
ag1104
ag1105
ag1106
ag1107
ag1109
ag1111
a(lp1516
I371
ag1440
aag1116
ag1117
ag1118
a(lp1517
I375
ag1440
aag1122
ag1123
ag1124
a(lp1518
I379
ag1440
aag1127
ag1128
ag1129
ag1130
ag1131
ag1132
ag1133
a(lp1519
I387
ag1440
aag1137
ag1138
a(lp1520
I390
ag1440
aag1142
ag1143
ag1144
ag1145
a(lp1521
I395
ag1440
aag1148
ag1149
ag1150
ag1151
ag1152
ag1153
a(lp1522
I402
ag1440
aag1157
ag1158
a(lp1523
I405
ag1440
aag1161
ag1162
ag1163
ag1164
ag1165
a(lp1524
I411
ag1440
aag1168
ag1169
ag1170
ag1171
ag1172
ag1173
a(lp1525
I421
ag1440
aag1176
ag1177
ag1178
ag1179
ag1180
ag1182
a(lp1526
I428
ag1440
aag1185
ag1186
ag1187
ag1188
ag1189
ag1190
a(lp1527
I435
ag1440
aag1193
ag1194
ag1195
ag1196
ag1197
ag1198
ag1199
ag1200
a(lp1528
I444
ag1440
aag1203
ag1204
ag1205
a(lp1529
I448
ag1440
aag1209
a(lp1530
I450
ag1440
aag1212
ag1213
ag1214
ag1215
ag1216
ag1217
ag1218
a(lp1531
I458
ag1440
aag1221
ag1222
ag1223
ag1224
a(lp1532
I463
ag1440
aag1228
ag1229
ag1230
a(lp1533
I467
ag1440
aag1234
ag1235
ag1236
a(lp1534
I471
ag1440
aag1239
ag1240
ag1241
ag1242
ag1243
a(lp1535
I477
ag1440
aag1247
ag1248
a(lp1536
I480
ag1440
aag1252
ag1253
ag1254
ag1255
a(lp1537
I485
ag1440
aag1258
ag1259
ag1260
ag1261
a(lp1538
I490
ag1440
aag1265
ag1266
ag1267
a(lp1539
I494
ag1440
aag1271
ag1272
ag1273
ag1274
ag1275
a(lp1540
I500
ag1440
aag1279
ag1280
a(lp1541
I503
ag1440
aag1283
ag1284
ag1285
ag1286
a(lp1542
I508
ag1440
aag1289
ag1290
ag1291
ag1292
ag1293
a(lp1543
I514
ag1440
aag1297
ag1298
a(lp1544
I517
ag1440
aag1301
ag1302
ag1303
ag1304
ag1305
ag1306
ag1307
ag1308
ag1309
ag1310
a(lp1545
I528
ag1440
aag1313
ag1314
ag1315
a(lp1546
I533
ag1440
aag1318
ag1319
ag1320
ag1321
ag1322
a(lp1547
I540
ag1440
aag1326
ag1327
ag1328
ag1329
a(lp1548
I546
ag1440
aag1333
ag1334
ag1335
a(lp1549
I550
ag1440
aag1339
ag1340
a(lp1550
I553
ag1440
aag1343
ag1344
ag1345
ag1346
ag1347
ag1348
ag1349
ag1350
ag1351
a(lp1551
I564
ag1440
aag1354
ag1355
ag1356
ag1357
ag1358
ag1359
ag1360
ag1361
a(lp1552
I575
ag1440
aag1364
ag1365
ag1366
ag1367
ag1368
ag1369
ag1370
a(lp1553
I583
ag1440
aag1373
ag1374
ag1375
ag1376
ag1377
ag1378
a(lp1554
I590
ag1440
aag1382
ag1383
a(lp1555
I593
ag1440
aag1387
ag1388
a(lp1556
I596
ag1440
aag1391
ag1392
ag1393
ag1394
ag1395
ag1396
ag1397
ag1398
a(lp1557
I605
ag1440
aag1401
ag1402
ag1403
ag1404
ag1405
ag1406
ag1407
ag1408
a(lp1558
I614
ag1440
aag1411
ag1412
ag1413
a(lp1559
I618
ag1440
aag1416
ag1417
ag1418
ag1419
ag1420
a(lp1560
I625
ag1440
aag1423
ag1424
ag1425
ag1426
ag1427
ag1428
ag1429
ag1430
ag1431
a(lp1561
I635
ag1440
aag1435
ag1436
a(lp1562
I638
ag1440
aa(lp1563
I639
ag700
aa(lp1564
I640
ag664
aa(lp1565
I641
ag664
aasS'text'
p1566
S'like the new look but wish it stuff comes back nara i love the new look dorthea | reply quote this website is by far the best one to watch tv shows on. all the other ones have problems loading or you have to pay or they are just bs sites. i really love this site! great job! i hope you guys keep doing what your doing. much love nicole | reply quote i luv this website\xe2\x80\xa6 but the problem is that theres no serch engine!!! it\xe2\x80\x99s really annoying cuz i can\xe2\x80\x99t find all the shows on this site and where is ugly betty no trackbacks yet. e-mail (will not be published) (required) website notify me of followup comments via e-mail subscribe to rss'
p1567
sS'cleanWordMap'
p1568
(lp1569
g619
ag637
ag644
ag659
ag671
ag679
ag688
ag695
ag705
ag718
ag723
ag729
ag739
ag748
ag763
ag782
ag793
ag799
ag809
ag816
ag820
ag852
ag865
ag875
ag908
ag939
ag943
ag953
ag961
ag974
ag980
ag987
ag995
ag1007
ag1013
ag1049
ag1055
ag1061
ag1069
ag1076
ag1086
ag1098
ag1125
ag1146
ag1159
ag1166
ag1174
ag1183
ag1191
ag1201
ag1210
ag1219
ag1237
ag1256
ag1281
ag1287
ag1299
ag1311
ag1316
ag1341
ag1352
ag1362
ag1371
ag1389
ag1399
ag1409
ag1414
ag1421
asS'lines'
p1570
(lp1571
VLike the new look but wish IT stuff comes back\u000a
p1572
aVnara\u000a
p1573
aVi love the new look\u000a
p1574
aVDorthea\u000a
p1575
aV| Reply Quote\u000a
p1576
aVThis website is by FAR the best one to watch tv shows on. All the other ones have problems loading or you have to pay or they are just BS sites. I really love this site! GREAT job! I hope you guys keep doing what your doing. Much love\u000a
p1577
aVNicole\u000a
p1578
aV| Reply Quote\u000a
p1579
aVi luv this website\u2026 but the problem is that theres no serch engine!!!\u000a
p1580
aVit\u2019s really annoying cuz i can\u2019t find all the shows on this site and where is ugly betty\u000a
p1581
aVNo trackbacks yet.\u000a
p1582
aVE-Mail (will not be published) (required)\u000a
p1583
aVWebsite\u000a
p1584
aVNotify me of followup comments via e-mail\u000a
p1585
aVSubscribe to RSS
p1586
asS'docType'
p1587
S'src'
p1588
sS'newfmap'
p1589
(lp1590
g4
ag8
ag10
ag12
ag14
ag17
ag19
ag21
ag23
ag26
ag28
ag30
ag32
ag35
ag37
ag39
ag41
ag44
ag46
ag48
ag50
ag53
ag55
ag57
ag59
ag62
ag64
ag66
ag68
ag71
ag73
ag75
ag77
ag80
ag82
ag84
ag86
ag89
ag91
ag93
ag95
ag98
ag100
ag102
ag104
ag107
ag109
ag111
ag113
ag116
ag118
ag120
ag122
ag125
ag127
ag129
ag131
ag134
ag136
ag138
ag140
ag143
ag145
ag147
ag149
ag152
ag154
ag156
ag158
ag161
ag163
ag165
ag167
ag170
ag172
ag174
ag176
ag179
ag181
ag183
ag185
ag188
ag190
ag192
ag194
ag197
ag199
ag201
ag203
ag206
ag208
ag210
ag212
ag215
ag217
ag219
ag221
ag224
ag226
ag228
ag230
ag233
ag235
ag237
ag239
ag242
ag244
ag246
ag248
ag251
ag253
ag255
ag257
ag260
ag262
ag264
ag266
ag269
ag271
ag273
ag275
ag278
ag280
ag282
ag284
ag287
ag289
ag291
ag293
ag296
ag298
ag300
ag302
ag305
ag307
ag309
ag311
ag314
ag316
ag318
ag320
ag323
ag325
ag327
ag329
ag332
ag334
ag336
ag338
ag341
ag343
ag345
ag347
ag350
ag352
ag354
ag356
ag359
ag361
ag363
ag365
ag368
ag370
ag372
ag374
ag377
ag379
ag381
ag383
ag386
ag388
ag390
ag392
ag395
ag397
ag399
ag401
ag404
ag406
ag408
ag410
ag413
ag415
ag417
ag419
ag422
ag424
ag426
ag428
ag431
ag433
ag435
ag437
ag440
ag442
ag444
ag446
ag449
ag451
ag453
ag455
ag458
ag460
ag462
ag464
ag467
ag469
ag471
ag473
ag476
ag478
ag480
ag482
ag485
ag487
ag489
ag491
ag494
ag496
ag498
ag500
ag503
ag505
ag507
ag509
ag512
ag514
ag516
ag518
ag521
ag523
ag525
ag527
ag530
ag532
ag534
ag536
ag539
ag541
ag543
ag545
ag548
ag550
ag552
ag554
ag557
ag559
ag561
ag563
ag566
ag568
ag570
ag572
ag575
ag577
ag579
ag581
ag584
ag586
ag588
ag590
ag593
ag595
ag597
ag599
ag602
ag604
ag606
ag608
ag611
ag613
ag615
asS'featureMap'
p1591
(lp1592
(lp1593
I0
aI3
ag5
ag6
ag9
ag11
ag13
aa(lp1594
I9
aI11
ag15
ag16
ag18
ag20
ag22
aa(lp1595
I13
aI16
ag24
ag25
ag27
ag29
ag31
aa(lp1596
I22
aI25
ag33
ag34
ag36
ag38
ag40
aa(lp1597
I30
aI34
ag42
ag43
ag45
ag47
ag49
aa(lp1598
I36
aI40
ag51
ag52
ag54
ag56
ag58
aa(lp1599
I42
aI45
ag60
ag61
ag63
ag65
ag67
aa(lp1600
I47
aI50
ag69
ag70
ag72
ag74
ag76
aa(lp1601
I54
aI57
ag78
ag79
ag81
ag83
ag85
aa(lp1602
I63
aI65
ag87
ag88
ag90
ag92
ag94
aa(lp1603
I67
aI70
ag96
ag97
ag99
ag101
ag103
aa(lp1604
I72
aI78
ag105
ag106
ag108
ag110
ag112
aa(lp1605
I82
aI86
ag114
ag115
ag117
ag119
ag121
aa(lp1606
I88
aI92
ag123
ag124
ag126
ag128
ag130
aa(lp1607
I99
aI105
ag132
ag133
ag135
ag137
ag139
aa(lp1608
I113
aI115
ag141
ag142
ag144
ag146
ag148
aa(lp1609
I121
aI124
ag150
ag151
ag153
ag155
ag157
aa(lp1610
I126
aI128
ag159
ag160
ag162
ag164
ag166
aa(lp1611
I133
aI137
ag168
ag169
ag171
ag173
ag175
aa(lp1612
I139
aI140
ag177
ag178
ag180
ag182
ag184
aa(lp1613
I142
aI146
ag186
ag187
ag189
ag191
ag193
aa(lp1614
I166
aI169
ag195
ag196
ag198
ag200
ag202
aa(lp1615
I176
aI183
ag204
ag205
ag207
ag209
ag211
aa(lp1616
I185
aI191
ag213
ag214
ag216
ag218
ag220
aa(lp1617
I208
aI210
ag222
ag223
ag225
ag227
ag229
aa(lp1618
I229
aI230
ag231
ag232
ag234
ag236
ag238
aa(lp1619
I232
aI236
ag240
ag241
ag243
ag245
ag247
aa(lp1620
I241
aI246
ag249
ag250
ag252
ag254
ag256
aa(lp1621
I248
aI251
ag258
ag259
ag261
ag263
ag265
aa(lp1622
I258
aI261
ag267
ag268
ag270
ag272
ag274
aa(lp1623
I264
aI268
ag276
ag277
ag279
ag281
ag283
aa(lp1624
I270
aI272
ag285
ag286
ag288
ag290
ag292
aa(lp1625
I277
aI280
ag294
ag295
ag297
ag299
ag301
aa(lp1626
I286
aI289
ag303
ag304
ag306
ag308
ag310
aa(lp1627
I291
aI294
ag312
ag313
ag315
ag317
ag319
aa(lp1628
I319
aI322
ag321
ag322
ag324
ag326
ag328
aa(lp1629
I324
aI327
ag330
ag331
ag333
ag335
ag337
aa(lp1630
I329
aI334
ag339
ag340
ag342
ag344
ag346
aa(lp1631
I338
aI342
ag348
ag349
ag351
ag353
ag355
aa(lp1632
I344
aI348
ag357
ag358
ag360
ag362
ag364
aa(lp1633
I352
aI354
ag366
ag367
ag369
ag371
ag373
aa(lp1634
I361
aI370
ag375
ag376
ag378
ag380
ag382
aa(lp1635
I380
aI386
ag384
ag385
ag387
ag389
ag391
aa(lp1636
I396
aI401
ag393
ag394
ag396
ag398
ag400
aa(lp1637
I406
aI410
ag402
ag403
ag405
ag407
ag409
aa(lp1638
I412
aI417
ag411
ag412
ag414
ag416
ag418
aa(lp1639
I422
aI427
ag420
ag421
ag423
ag425
ag427
aa(lp1640
I429
aI434
ag429
ag430
ag432
ag434
ag436
aa(lp1641
I436
aI443
ag438
ag439
ag441
ag443
ag445
aa(lp1642
I445
aI447
ag447
ag448
ag450
ag452
ag454
aa(lp1643
I451
aI457
ag456
ag457
ag459
ag461
ag463
aa(lp1644
I459
aI462
ag465
ag466
ag468
ag470
ag472
aa(lp1645
I472
aI476
ag474
ag475
ag477
ag479
ag481
aa(lp1646
I486
aI489
ag483
ag484
ag486
ag488
ag490
aa(lp1647
I504
aI507
ag492
ag493
ag495
ag497
ag499
aa(lp1648
I509
aI513
ag501
ag502
ag504
ag506
ag508
aa(lp1649
I518
aI527
ag510
ag511
ag513
ag515
ag517
aa(lp1650
I529
aI531
ag519
ag520
ag522
ag524
ag526
aa(lp1651
I534
aI539
ag528
ag529
ag531
ag533
ag535
aa(lp1652
I554
aI562
ag537
ag538
ag540
ag542
ag544
aa(lp1653
I566
aI573
ag546
ag547
ag549
ag551
ag553
aa(lp1654
I576
aI582
ag555
ag556
ag558
ag560
ag562
aa(lp1655
I584
aI589
ag564
ag565
ag567
ag569
ag571
aa(lp1656
I597
aI604
ag573
ag574
ag576
ag578
ag580
aa(lp1657
I606
aI613
ag582
ag583
ag585
ag587
ag589
aa(lp1658
I615
aI617
ag591
ag592
ag594
ag596
ag598
aa(lp1659
I619
aI624
ag600
ag601
ag603
ag605
ag607
aa(lp1660
I626
aI634
ag609
ag610
ag612
ag614
ag616
aasS'characterMap'
p1661
(lp1662
g621
ag623
ag625
ag627
ag1439
ag632
ag634
ag636
ag1441
ag639
ag641
ag642
ag1442
ag646
ag647
ag649
ag650
ag1443
ag654
ag656
ag658
ag1444
ag661
ag662
ag663
ag665
ag1445
ag669
ag670
ag1446
ag673
ag674
ag675
ag676
ag678
ag1447
ag681
ag683
ag684
ag686
ag687
ag1448
ag690
ag691
ag693
ag694
ag1449
ag697
ag698
ag699
ag701
ag1450
ag704
ag1451
ag707
ag708
ag709
ag711
ag1452
ag715
ag716
ag717
ag1453
ag720
ag721
ag722
ag1454
ag725
ag726
ag727
ag728
ag1455
ag731
ag733
ag734
ag735
ag736
ag737
ag738
ag1456
a(lp1663
I80
aS'|'
p1664
aag1457
ag741
ag742
ag743
ag745
ag746
ag1458
ag750
ag752
ag753
ag754
ag755
ag1459
ag759
ag760
ag761
ag762
ag1460
ag765
ag766
ag767
ag768
ag769
ag770
ag771
ag1461
ag775
ag776
ag1462
ag780
ag781
ag1463
ag784
ag785
ag786
ag1464
ag790
ag791
ag792
ag1465
ag795
ag796
ag797
ag798
ag1466
ag801
ag802
ag803
ag1467
ag807
ag808
ag1468
ag811
ag812
ag813
ag814
ag815
ag1469
ag818
ag819
ag1470
ag822
ag823
ag824
ag825
ag826
ag1471
ag830
ag831
a(lp1665
I150
aS'.'
p1666
aag1472
ag835
ag836
ag837
ag1473
ag841
ag842
ag843
ag1474
ag847
ag848
ag849
ag850
ag851
ag1475
ag854
ag855
ag856
ag857
ag1476
ag861
ag862
ag863
ag864
ag1477
ag867
ag868
ag869
ag870
ag871
ag872
ag873
ag874
ag1478
ag877
ag878
ag879
ag880
ag881
ag882
ag883
ag1479
ag888
ag889
ag1480
ag893
ag894
ag895
ag1481
ag899
ag900
ag901
ag902
ag1482
ag906
ag907
ag1483
ag910
ag911
ag912
ag1484
ag916
ag917
ag1485
ag921
ag922
ag923
ag924
ag1486
ag928
ag929
ag930
ag1487
ag934
ag936
ag937
ag938
ag1488
ag941
ag942
ag1489
ag945
ag946
ag947
ag948
ag949
a(lp1667
I237
ag1666
aag1490
ag952
ag1491
ag955
ag956
ag957
ag958
ag959
ag960
ag1492
ag963
ag964
ag965
ag966
ag1493
ag970
ag971
ag972
ag973
ag1494
ag976
ag977
ag978
ag979
a(lp1668
I262
aS'!'
p1669
aag1495
ag982
ag983
ag984
ag985
ag986
ag1496
ag989
ag990
ag991
a(lp1670
I273
ag1669
aag1497
ag994
ag1498
ag997
ag998
ag999
ag1000
ag1499
ag1004
ag1005
ag1006
ag1500
ag1009
ag1010
ag1011
ag1012
ag1501
ag1015
ag1016
ag1017
ag1018
ag1502
ag1022
ag1023
ag1024
ag1025
ag1026
ag1503
ag1030
ag1031
ag1032
ag1033
ag1504
ag1037
ag1038
ag1039
ag1040
ag1505
ag1044
ag1045
ag1046
ag1047
ag1048
a(lp1671
I317
ag1666
aag1506
ag1051
ag1052
ag1053
ag1054
ag1507
ag1057
ag1058
ag1059
ag1060
ag1508
ag1063
ag1064
ag1065
ag1066
ag1067
ag1068
ag1509
a(lp1672
I336
ag1664
aag1510
ag1071
ag1072
ag1073
ag1074
ag1075
ag1511
ag1078
ag1079
ag1080
ag1081
ag1082
ag1512
ag1085
ag1513
ag1088
ag1089
ag1090
ag1514
ag1094
ag1095
ag1096
ag1097
ag1515
ag1100
ag1101
ag1102
ag1103
ag1104
ag1105
ag1106
ag1107
ag1109
ag1111
ag1516
ag1116
ag1117
ag1118
ag1517
ag1122
ag1123
ag1124
ag1518
ag1127
ag1128
ag1129
ag1130
ag1131
ag1132
ag1133
ag1519
ag1137
ag1138
ag1520
ag1142
ag1143
ag1144
ag1145
ag1521
ag1148
ag1149
ag1150
ag1151
ag1152
ag1153
ag1522
ag1157
ag1158
ag1523
ag1161
ag1162
ag1163
ag1164
ag1165
ag1524
ag1168
ag1169
ag1170
ag1171
ag1172
ag1173
a(lp1673
I418
ag1669
aa(lp1674
I419
ag1669
aa(lp1675
I420
ag1669
aag1525
ag1176
ag1177
ag1178
ag1179
ag1180
ag1182
ag1526
ag1185
ag1186
ag1187
ag1188
ag1189
ag1190
ag1527
ag1193
ag1194
ag1195
ag1196
ag1197
ag1198
ag1199
ag1200
ag1528
ag1203
ag1204
ag1205
ag1529
ag1209
ag1530
ag1212
ag1213
ag1214
ag1215
ag1216
ag1217
ag1218
ag1531
ag1221
ag1222
ag1223
ag1224
ag1532
ag1228
ag1229
ag1230
ag1533
ag1234
ag1235
ag1236
ag1534
ag1239
ag1240
ag1241
ag1242
ag1243
ag1535
ag1247
ag1248
ag1536
ag1252
ag1253
ag1254
ag1255
ag1537
ag1258
ag1259
ag1260
ag1261
ag1538
ag1265
ag1266
ag1267
ag1539
ag1271
ag1272
ag1273
ag1274
ag1275
ag1540
ag1279
ag1280
ag1541
ag1283
ag1284
ag1285
ag1286
ag1542
ag1289
ag1290
ag1291
ag1292
ag1293
ag1543
ag1297
ag1298
ag1544
ag1301
ag1302
ag1303
ag1304
ag1305
ag1306
ag1307
ag1308
ag1309
ag1310
ag1545
ag1313
ag1314
ag1315
a(lp1676
I532
ag1666
aag1546
ag1318
a(lp1677
I535
aS'-'
p1678
aag1319
ag1320
ag1321
ag1322
ag1547
a(lp1679
I541
aS'('
p1680
aag1326
ag1327
ag1328
ag1329
ag1548
ag1333
ag1334
ag1335
ag1549
ag1339
ag1340
ag1550
ag1343
ag1344
ag1345
ag1346
ag1347
ag1348
ag1349
ag1350
ag1351
a(lp1681
I563
aS')'
p1682
aag1551
a(lp1683
I565
ag1680
aag1354
ag1355
ag1356
ag1357
ag1358
ag1359
ag1360
ag1361
a(lp1684
I574
ag1682
aag1552
ag1364
ag1365
ag1366
ag1367
ag1368
ag1369
ag1370
ag1553
ag1373
ag1374
ag1375
ag1376
ag1377
ag1378
ag1554
ag1382
ag1383
ag1555
ag1387
ag1388
ag1556
ag1391
ag1392
ag1393
ag1394
ag1395
ag1396
ag1397
ag1398
ag1557
ag1401
ag1402
ag1403
ag1404
ag1405
ag1406
ag1407
ag1408
ag1558
ag1411
ag1412
ag1413
ag1559
ag1416
a(lp1685
I620
ag1678
aag1417
ag1418
ag1419
ag1420
ag1560
ag1423
ag1424
ag1425
ag1426
ag1427
ag1428
ag1429
ag1430
ag1431
ag1561
ag1435
ag1436
ag1562
ag1563
ag1564
ag1565
asS'docName'
p1686
S'source-document02594.txt'
p1687
sb.