(iModel.Document
Document
p0
(dp1
S'fmap'
p2
(lp3
(lp4
I0
aI5
aS'retail'
p5
a(lp6
S'*'
p7
ag5
aaa(lp8
I0
aI5
ag5
a(lp9
g7
ag5
aaa(lp10
I0
aI5
ag5
a(lp11
g7
ag5
aaa(lp12
I0
aI5
ag5
a(lp13
g7
ag5
aaa(lp14
I7
aI11
aS'price'
p15
a(lp16
g5
ag15
aaa(lp17
I7
aI11
ag15
a(lp18
g7
ag15
aaa(lp19
I7
aI11
ag15
a(lp20
g7
ag15
aaa(lp21
I7
aI11
ag15
a(lp22
g7
ag15
aaa(lp23
I15
aI19
aS'1699'
p24
a(lp25
g15
ag24
aaa(lp26
I15
aI19
ag24
a(lp27
g5
ag24
aaa(lp28
I15
aI19
ag24
a(lp29
g7
ag24
aaa(lp30
I15
aI19
ag24
a(lp31
g7
ag24
aaa(lp32
I25
aI28
aS'save'
p33
a(lp34
g24
ag33
aaa(lp35
I25
aI28
ag33
a(lp36
g15
ag33
aaa(lp37
I25
aI28
ag33
a(lp38
g5
ag33
aaa(lp39
I25
aI28
ag33
a(lp40
g7
ag33
aaa(lp41
I32
aI35
aS'340'
p42
a(lp43
g33
ag42
aaa(lp44
I32
aI35
ag42
a(lp45
g24
ag42
aaa(lp46
I32
aI35
ag42
a(lp47
g15
ag42
aaa(lp48
I32
aI35
ag42
a(lp49
g5
ag42
aaa(lp50
I38
aI39
aS'20'
p51
a(lp52
g42
ag51
aaa(lp53
I38
aI39
ag51
a(lp54
g33
ag51
aaa(lp55
I38
aI39
ag51
a(lp56
g24
ag51
aaa(lp57
I38
aI39
ag51
a(lp58
g15
ag51
aaa(lp59
I46
aI51
aS'spirit'
p60
a(lp61
g51
ag60
aaa(lp62
I46
aI51
ag60
a(lp63
g42
ag60
aaa(lp64
I46
aI51
ag60
a(lp65
g33
ag60
aaa(lp66
I46
aI51
ag60
a(lp67
g24
ag60
aaa(lp68
I56
aI58
aS'god'
p69
a(lp70
g60
ag69
aaa(lp71
I56
aI58
ag69
a(lp72
g51
ag69
aaa(lp73
I56
aI58
ag69
a(lp74
g42
ag69
aaa(lp75
I56
aI58
ag69
a(lp76
g33
ag69
aaa(lp77
I60
aI63
aS'uses'
p78
a(lp79
g69
ag78
aaa(lp80
I60
aI63
ag78
a(lp81
g60
ag78
aaa(lp82
I60
aI63
ag78
a(lp83
g51
ag78
aaa(lp84
I60
aI63
ag78
a(lp85
g42
ag78
aaa(lp86
I69
aI72
aS'word'
p87
a(lp88
g78
ag87
aaa(lp89
I69
aI72
ag87
a(lp90
g69
ag87
aaa(lp91
I69
aI72
ag87
a(lp92
g60
ag87
aaa(lp93
I69
aI72
ag87
a(lp94
g51
ag87
aaa(lp95
I77
aI79
aS'god'
p96
a(lp97
g87
ag96
aaa(lp98
I77
aI79
ag96
a(lp99
g78
ag96
aaa(lp100
I77
aI79
ag96
a(lp101
g69
ag96
aaa(lp102
I77
aI79
ag96
a(lp103
g60
ag96
aaa(lp104
I84
aI87
aS'make'
p105
a(lp106
g96
ag105
aaa(lp107
I84
aI87
ag105
a(lp108
g87
ag105
aaa(lp109
I84
aI87
ag105
a(lp110
g78
ag105
aaa(lp111
I84
aI87
ag105
a(lp112
g69
ag105
aaa(lp113
I89
aI90
aS'us'
p114
a(lp115
g105
ag114
aaa(lp116
I89
aI90
ag114
a(lp117
g96
ag114
aaa(lp118
I89
aI90
ag114
a(lp119
g87
ag114
aaa(lp120
I89
aI90
ag114
a(lp121
g78
ag114
aaa(lp122
I92
aI95
aS'like'
p123
a(lp124
g114
ag123
aaa(lp125
I92
aI95
ag123
a(lp126
g105
ag123
aaa(lp127
I92
aI95
ag123
a(lp128
g96
ag123
aaa(lp129
I92
aI95
ag123
a(lp130
g87
ag123
aaa(lp131
I101
aI103
aS'son'
p132
a(lp133
g123
ag132
aaa(lp134
I101
aI103
ag132
a(lp135
g114
ag132
aaa(lp136
I101
aI103
ag132
a(lp137
g105
ag132
aaa(lp138
I101
aI103
ag132
a(lp139
g96
ag132
aaa(lp140
I108
aI115
aS'godrick'
p141
a(lp142
g132
ag141
aaa(lp143
I108
aI115
ag141
a(lp144
g123
ag141
aaa(lp145
I108
aI115
ag141
a(lp146
g114
ag141
aaa(lp147
I108
aI115
ag141
a(lp148
g105
ag141
aaa(lp149
I117
aI122
aS'warren'
p150
a(lp151
g141
ag150
aaa(lp152
I117
aI122
ag150
a(lp153
g132
ag150
aaa(lp154
I117
aI122
ag150
a(lp155
g123
ag150
aaa(lp156
I117
aI122
ag150
a(lp157
g114
ag150
aaa(lp158
I131
aI137
aS'purpose'
p159
a(lp160
g150
ag159
aaa(lp161
I131
aI137
ag159
a(lp162
g141
ag159
aaa(lp163
I131
aI137
ag159
a(lp164
g132
ag159
aaa(lp165
I131
aI137
ag159
a(lp166
g123
ag159
aaa(lp167
I139
aI148
aS'drivenlife'
p168
a(lp169
g159
ag168
aaa(lp170
I139
aI148
ag168
a(lp171
g150
ag168
aaa(lp172
I139
aI148
ag168
a(lp173
g141
ag168
aaa(lp174
I139
aI148
ag168
a(lp175
g132
ag168
aaa(lp176
I159
aI165
aS'created'
p177
a(lp178
g168
ag177
aaa(lp179
I159
aI165
ag177
a(lp180
g159
ag177
aaa(lp181
I159
aI165
ag177
a(lp182
g150
ag177
aaa(lp183
I159
aI165
ag177
a(lp184
g141
ag177
aaa(lp185
I170
aI175
aS'become'
p186
a(lp187
g177
ag186
aaa(lp188
I170
aI175
ag186
a(lp189
g168
ag186
aaa(lp190
I170
aI175
ag186
a(lp191
g159
ag186
aaa(lp192
I170
aI175
ag186
a(lp193
g150
ag186
aaa(lp194
I177
aI180
aS'like'
p195
a(lp196
g186
ag195
aaa(lp197
I177
aI180
ag195
a(lp198
g177
ag195
aaa(lp199
I177
aI180
ag195
a(lp200
g168
ag195
aaa(lp201
I177
aI180
ag195
a(lp202
g159
ag195
aaa(lp203
I182
aI187
aS'christ'
p204
a(lp205
g195
ag204
aaa(lp206
I182
aI187
ag204
a(lp207
g186
ag204
aaa(lp208
I182
aI187
ag204
a(lp209
g177
ag204
aaa(lp210
I182
aI187
ag204
a(lp211
g168
ag204
aaa(lp212
I198
aI200
aS'one'
p213
a(lp214
g204
ag213
aaa(lp215
I198
aI200
ag213
a(lp216
g195
ag213
aaa(lp217
I198
aI200
ag213
a(lp218
g186
ag213
aaa(lp219
I198
aI200
ag213
a(lp220
g177
ag213
aaa(lp221
I209
aI212
aS'five'
p222
a(lp223
g213
ag222
aaa(lp224
I209
aI212
ag222
a(lp225
g204
ag222
aaa(lp226
I209
aI212
ag222
a(lp227
g195
ag222
aaa(lp228
I209
aI212
ag222
a(lp229
g186
ag222
aaa(lp230
I214
aI225
aS'godordained'
p231
a(lp232
g222
ag231
aaa(lp233
I214
aI225
ag231
a(lp234
g213
ag231
aaa(lp235
I214
aI225
ag231
a(lp236
g204
ag231
aaa(lp237
I214
aI225
ag231
a(lp238
g195
ag231
aaa(lp239
I227
aI234
aS'purposes'
p240
a(lp241
g231
ag240
aaa(lp242
I227
aI234
ag240
a(lp243
g222
ag240
aaa(lp244
I227
aI234
ag240
a(lp245
g213
ag240
aaa(lp246
I227
aI234
ag240
a(lp247
g204
ag240
aaa(lp248
I245
aI248
aS'life'
p249
a(lp250
g240
ag249
aaa(lp251
I245
aI248
ag249
a(lp252
g231
ag249
aaa(lp253
I245
aI248
ag249
a(lp254
g222
ag249
aaa(lp255
I245
aI248
ag249
a(lp256
g213
ag249
aaa(lp257
I250
aI258
aS'described'
p258
a(lp259
g249
ag258
aaa(lp260
I250
aI258
ag258
a(lp261
g240
ag258
aaa(lp262
I250
aI258
ag258
a(lp263
g231
ag258
aaa(lp264
I250
aI258
ag258
a(lp265
g222
ag258
aaa(lp266
I267
aI273
aS'purpose'
p267
a(lp268
g258
ag267
aaa(lp269
I267
aI273
ag267
a(lp270
g249
ag267
aaa(lp271
I267
aI273
ag267
a(lp272
g240
ag267
aaa(lp273
I267
aI273
ag267
a(lp274
g231
ag267
aaa(lp275
I275
aI284
aS'drivenlife'
p276
a(lp277
g267
ag276
aaa(lp278
I275
aI284
ag276
a(lp279
g258
ag276
aaa(lp280
I275
aI284
ag276
a(lp281
g249
ag276
aaa(lp282
I275
aI284
ag276
a(lp283
g240
ag276
aaa(lp284
I289
aI292
aS'rick'
p285
a(lp286
g276
ag285
aaa(lp287
I289
aI292
ag285
a(lp288
g267
ag285
aaa(lp289
I289
aI292
ag285
a(lp290
g258
ag285
aaa(lp291
I289
aI292
ag285
a(lp292
g249
ag285
aaa(lp293
I294
aI299
aS'warren'
p294
a(lp295
g285
ag294
aaa(lp296
I294
aI299
ag294
a(lp297
g276
ag294
aaa(lp298
I294
aI299
ag294
a(lp299
g267
ag294
aaa(lp300
I294
aI299
ag294
a(lp301
g258
ag294
aaa(lp302
I313
aI320
aS'studying'
p303
a(lp304
g294
ag303
aaa(lp305
I313
aI320
ag303
a(lp306
g285
ag303
aaa(lp307
I313
aI320
ag303
a(lp308
g276
ag303
aaa(lp309
I313
aI320
ag303
a(lp310
g267
ag303
aaa(lp311
I326
aI330
aS'bible'
p312
a(lp313
g303
ag312
aaa(lp314
I326
aI330
ag312
a(lp315
g294
ag312
aaa(lp316
I326
aI330
ag312
a(lp317
g285
ag312
aaa(lp318
I326
aI330
ag312
a(lp319
g276
ag312
aaa(lp320
I338
aI346
aS'important'
p321
a(lp322
g312
ag321
aaa(lp323
I338
aI346
ag321
a(lp324
g303
ag321
aaa(lp325
I338
aI346
ag321
a(lp326
g294
ag321
aaa(lp327
I338
aI346
ag321
a(lp328
g285
ag321
aaa(lp329
I353
aI357
aS'bible'
p330
a(lp331
g321
ag330
aaa(lp332
I353
aI357
ag330
a(lp333
g312
ag330
aaa(lp334
I353
aI357
ag330
a(lp335
g303
ag330
aaa(lp336
I353
aI357
ag330
a(lp337
g294
ag330
aaa(lp338
I359
aI364
aS'truths'
p339
a(lp340
g330
ag339
aaa(lp341
I359
aI364
ag339
a(lp342
g321
ag339
aaa(lp343
I359
aI364
ag339
a(lp344
g312
ag339
aaa(lp345
I359
aI364
ag339
a(lp346
g303
ag339
aaa(lp347
I371
aI379
aS'transform'
p348
a(lp349
g339
ag348
aaa(lp350
I371
aI379
ag348
a(lp351
g330
ag348
aaa(lp352
I371
aI379
ag348
a(lp353
g321
ag348
aaa(lp354
I371
aI379
ag348
a(lp355
g312
ag348
aaa(lp356
I386
aI393
aS'aligning'
p357
a(lp358
g348
ag357
aaa(lp359
I386
aI393
ag357
a(lp360
g339
ag357
aaa(lp361
I386
aI393
ag357
a(lp362
g330
ag357
aaa(lp363
I386
aI393
ag357
a(lp364
g321
ag357
aaa(lp365
I408
aI416
aS'character'
p366
a(lp367
g357
ag366
aaa(lp368
I408
aI416
ag366
a(lp369
g348
ag366
aaa(lp370
I408
aI416
ag366
a(lp371
g339
ag366
aaa(lp372
I408
aI416
ag366
a(lp373
g330
ag366
aaa(lp374
I422
aI425
aS'ways'
p375
a(lp376
g366
ag375
aaa(lp377
I422
aI425
ag375
a(lp378
g357
ag375
aaa(lp379
I422
aI425
ag375
a(lp380
g348
ag375
aaa(lp381
I422
aI425
ag375
a(lp382
g339
ag375
aaa(lp383
I430
aI434
aS'jesus'
p384
a(lp385
g375
ag384
aaa(lp386
I430
aI434
ag384
a(lp387
g366
ag384
aaa(lp388
I430
aI434
ag384
a(lp389
g357
ag384
aaa(lp390
I430
aI434
ag384
a(lp391
g348
ag384
aaa(lp392
I443
aI451
aS'encounter'
p393
a(lp394
g384
ag393
aaa(lp395
I443
aI451
ag393
a(lp396
g375
ag393
aaa(lp397
I443
aI451
ag393
a(lp398
g366
ag393
aaa(lp399
I443
aI451
ag393
a(lp400
g357
ag393
aaa(lp401
I464
aI473
aS'scriptures'
p402
a(lp403
g393
ag402
aaa(lp404
I464
aI473
ag402
a(lp405
g384
ag402
aaa(lp406
I464
aI473
ag402
a(lp407
g375
ag402
aaa(lp408
I464
aI473
ag402
a(lp409
g366
ag402
aaa(lp410
I481
aI498
aS'easytounderstand'
p411
a(lp412
g402
ag411
aaa(lp413
I481
aI498
ag411
a(lp414
g393
ag411
aaa(lp415
I481
aI498
ag411
a(lp416
g384
ag411
aaa(lp417
I481
aI498
ag411
a(lp418
g375
ag411
aaa(lp419
I500
aI503
aS'book'
p420
a(lp421
g411
ag420
aaa(lp422
I500
aI503
ag420
a(lp423
g402
ag420
aaa(lp424
I500
aI503
ag420
a(lp425
g393
ag420
aaa(lp426
I500
aI503
ag420
a(lp427
g384
ag420
aaa(lp428
I505
aI509
aS'shows'
p429
a(lp430
g420
ag429
aaa(lp431
I505
aI509
ag429
a(lp432
g411
ag429
aaa(lp433
I505
aI509
ag429
a(lp434
g402
ag429
aaa(lp435
I505
aI509
ag429
a(lp436
g393
ag429
aaa(lp437
I522
aI526
aS'study'
p438
a(lp439
g429
ag438
aaa(lp440
I522
aI526
ag438
a(lp441
g420
ag438
aaa(lp442
I522
aI526
ag438
a(lp443
g411
ag438
aaa(lp444
I522
aI526
ag438
a(lp445
g402
ag438
aaa(lp446
I532
aI536
aS'bible'
p447
a(lp448
g438
ag447
aaa(lp449
I532
aI536
ag447
a(lp450
g429
ag447
aaa(lp451
I532
aI536
ag447
a(lp452
g420
ag447
aaa(lp453
I532
aI536
ag447
a(lp454
g411
ag447
aaa(lp455
I538
aI541
aS'rick'
p456
a(lp457
g447
ag456
aaa(lp458
I538
aI541
ag456
a(lp459
g438
ag456
aaa(lp460
I538
aI541
ag456
a(lp461
g429
ag456
aaa(lp462
I538
aI541
ag456
a(lp463
g420
ag456
aaa(lp464
I543
aI548
aS'warren'
p465
a(lp466
g456
ag465
aaa(lp467
I543
aI548
ag465
a(lp468
g447
ag465
aaa(lp469
I543
aI548
ag465
a(lp470
g438
ag465
aaa(lp471
I543
aI548
ag465
a(lp472
g429
ag465
aaa(lp473
I550
aI552
aS'way'
p474
a(lp475
g465
ag474
aaa(lp476
I550
aI552
ag474
a(lp477
g456
ag474
aaa(lp478
I550
aI552
ag474
a(lp479
g447
ag474
aaa(lp480
I550
aI552
ag474
a(lp481
g438
ag474
aaa(lp482
I558
aI562
aS'gives'
p483
a(lp484
g474
ag483
aaa(lp485
I558
aI562
ag483
a(lp486
g465
ag483
aaa(lp487
I558
aI562
ag483
a(lp488
g456
ag483
aaa(lp489
I558
aI562
ag483
a(lp490
g447
ag483
aaa(lp491
I577
aI579
aS'one'
p492
a(lp493
g483
ag492
aaa(lp494
I577
aI579
ag492
a(lp495
g474
ag492
aaa(lp496
I577
aI579
ag492
a(lp497
g465
ag492
aaa(lp498
I577
aI579
ag492
a(lp499
g456
ag492
aaa(lp500
I586
aI591
aS'twelve'
p501
a(lp502
g492
ag501
aaa(lp503
I586
aI591
ag501
a(lp504
g483
ag501
aaa(lp505
I586
aI591
ag501
a(lp506
g474
ag501
aaa(lp507
I586
aI591
ag501
a(lp508
g465
ag501
aaa(lp509
I593
aI599
aS'methods'
p510
a(lp511
g501
ag510
aaa(lp512
I593
aI599
ag510
a(lp513
g492
ag510
aaa(lp514
I593
aI599
ag510
a(lp515
g483
ag510
aaa(lp516
I593
aI599
ag510
a(lp517
g474
ag510
aaa(lp518
I605
aI613
aS'exploring'
p519
a(lp520
g510
ag519
aaa(lp521
I605
aI613
ag519
a(lp522
g501
ag519
aaa(lp523
I605
aI613
ag519
a(lp524
g492
ag519
aaa(lp525
I605
aI613
ag519
a(lp526
g483
ag519
aaa(lp527
I619
aI624
aS'riches'
p528
a(lp529
g519
ag528
aaa(lp530
I619
aI624
ag528
a(lp531
g510
ag528
aaa(lp532
I619
aI624
ag528
a(lp533
g501
ag528
aaa(lp534
I619
aI624
ag528
a(lp535
g492
ag528
aaa(lp536
I629
aI631
aS'god'
p537
a(lp538
g528
ag537
aaa(lp539
I629
aI631
ag537
a(lp540
g519
ag537
aaa(lp541
I629
aI631
ag537
a(lp542
g510
ag537
aaa(lp543
I629
aI631
ag537
a(lp544
g501
ag537
aaa(lp545
I633
aI636
aS'word'
p546
a(lp547
g537
ag546
aaa(lp548
I633
aI636
ag546
a(lp549
g528
ag546
aaa(lp550
I633
aI636
ag546
a(lp551
g519
ag546
aaa(lp552
I633
aI636
ag546
a(lp553
g510
ag546
aaa(lp554
I642
aI646
aS'least'
p555
a(lp556
g546
ag555
aaa(lp557
I642
aI646
ag555
a(lp558
g537
ag555
aaa(lp559
I642
aI646
ag555
a(lp560
g528
ag555
aaa(lp561
I642
aI646
ag555
a(lp562
g519
ag555
aaa(lp563
I648
aI650
aS'one'
p564
a(lp565
g555
ag564
aaa(lp566
I648
aI650
ag564
a(lp567
g546
ag564
aaa(lp568
I648
aI650
ag564
a(lp569
g537
ag564
aaa(lp570
I648
aI650
ag564
a(lp571
g528
ag564
aaa(lp572
I663
aI669
aS'exactly'
p573
a(lp574
g564
ag573
aaa(lp575
I663
aI669
ag573
a(lp576
g555
ag573
aaa(lp577
I663
aI669
ag573
a(lp578
g546
ag573
aaa(lp579
I663
aI669
ag573
a(lp580
g537
ag573
aaa(lp581
I676
aI679
aS'youe'
p582
a(lp583
g573
ag582
aaa(lp584
I676
aI679
ag582
a(lp585
g564
ag582
aaa(lp586
I676
aI679
ag582
a(lp587
g555
ag582
aaa(lp588
I676
aI679
ag582
a(lp589
g546
ag582
aaa(lp590
I681
aI687
aS'looking'
p591
a(lp592
g582
ag591
aaa(lp593
I681
aI687
ag591
a(lp594
g573
ag591
aaa(lp595
I681
aI687
ag591
a(lp596
g564
ag591
aaa(lp597
I681
aI687
ag591
a(lp598
g555
ag591
aaa(lp599
I689
aI692
aS'forn'
p600
a(lp601
g591
ag600
aaa(lp602
I689
aI692
ag600
a(lp603
g582
ag600
aaa(lp604
I689
aI692
ag600
a(lp605
g573
ag600
aaa(lp606
I689
aI692
ag600
a(lp607
g564
ag600
aaa(lp608
I694
aI701
aS'approach'
p609
a(lp610
g600
ag609
aaa(lp611
I694
aI701
ag609
a(lp612
g591
ag609
aaa(lp613
I694
aI701
ag609
a(lp614
g582
ag609
aaa(lp615
I694
aI701
ag609
a(lp616
g573
ag609
aaa(lp617
I708
aI712
aS'right'
p618
a(lp619
g609
ag618
aaa(lp620
I708
aI712
ag618
a(lp621
g600
ag618
aaa(lp622
I708
aI712
ag618
a(lp623
g591
ag618
aaa(lp624
I708
aI712
ag618
a(lp625
g582
ag618
aaa(lp626
I723
aI727
aS'right'
p627
a(lp628
g618
ag627
aaa(lp629
I723
aI727
ag627
a(lp630
g609
ag627
aaa(lp631
I723
aI727
ag627
a(lp632
g600
ag627
aaa(lp633
I723
aI727
ag627
a(lp634
g591
ag627
aaa(lp635
I735
aI738
aS'youe'
p636
a(lp637
g627
ag636
aaa(lp638
I735
aI738
ag636
a(lp639
g618
ag636
aaa(lp640
I735
aI738
ag636
a(lp641
g609
ag636
aaa(lp642
I735
aI738
ag636
a(lp643
g600
ag636
aaa(lp644
I744
aI749
aS'simple'
p645
a(lp646
g636
ag645
aaa(lp647
I744
aI749
ag645
a(lp648
g627
ag645
aaa(lp649
I744
aI749
ag645
a(lp650
g618
ag645
aaa(lp651
I744
aI749
ag645
a(lp652
g609
ag645
aaa(lp653
I751
aI762
aS'stepbystep'
p654
a(lp655
g645
ag654
aaa(lp656
I751
aI762
ag654
a(lp657
g636
ag654
aaa(lp658
I751
aI762
ag654
a(lp659
g627
ag654
aaa(lp660
I751
aI762
ag654
a(lp661
g618
ag654
aaa(lp662
I764
aI775
aS'instructions'
p663
a(lp664
g654
ag663
aaa(lp665
I764
aI775
ag663
a(lp666
g645
ag663
aaa(lp667
I764
aI775
ag663
a(lp668
g636
ag663
aaa(lp669
I764
aI775
ag663
a(lp670
g627
ag663
aaa(lp671
I777
aI781
aS'guide'
p672
a(lp673
g663
ag672
aaa(lp674
I777
aI781
ag672
a(lp675
g654
ag672
aaa(lp676
I777
aI781
ag672
a(lp677
g645
ag672
aaa(lp678
I777
aI781
ag672
a(lp679
g636
ag672
aaa(lp680
I799
aI805
aS'howtos'
p681
a(lp682
g672
ag681
aaa(lp683
I799
aI805
ag681
a(lp684
g663
ag681
aaa(lp685
I799
aI805
ag681
a(lp686
g654
ag681
aaa(lp687
I799
aI805
ag681
a(lp688
g645
ag681
aaa(lp689
I814
aI822
aS'following'
p690
a(lp691
g681
ag690
aaa(lp692
I814
aI822
ag690
a(lp693
g672
ag690
aaa(lp694
I814
aI822
ag690
a(lp695
g663
ag690
aaa(lp696
I814
aI822
ag690
a(lp697
g654
ag690
aaa(lp698
I824
aI830
aS'methods'
p699
a(lp700
g690
ag699
aaa(lp701
I824
aI830
ag699
a(lp702
g681
ag699
aaa(lp703
I824
aI830
ag699
a(lp704
g672
ag699
aaa(lp705
I824
aI830
ag699
a(lp706
g663
ag699
aaasS'wordMap'
p707
(lp708
(lp709
I0
aI5
ag5
a(lp710
(lp711
I0
aS'r'
p712
aa(lp713
I1
aS'e'
p714
aa(lp715
I2
aS't'
p716
aa(lp717
I3
aS'a'
p718
aa(lp719
I4
aS'i'
p720
aa(lp721
I5
aS'l'
p722
aaaa(lp723
I7
aI11
ag15
a(lp724
(lp725
I7
aS'p'
p726
aa(lp727
I8
ag712
aa(lp728
I9
ag720
aa(lp729
I10
aS'c'
p730
aa(lp731
I11
ag714
aaaa(lp732
I15
aI19
ag24
a(lp733
(lp734
I15
aS'1'
p735
aa(lp736
I16
aS'6'
p737
aa(lp738
I18
aS'9'
p739
aa(lp740
I19
ag739
aaaa(lp741
I21
aI23
aS'you'
p742
a(lp743
(lp744
I21
aS'y'
p745
aa(lp746
I22
aS'o'
p747
aa(lp748
I23
aS'u'
p749
aaaa(lp750
I25
aI28
ag33
a(lp751
(lp752
I25
aS's'
p753
aa(lp754
I26
ag718
aa(lp755
I27
aS'v'
p756
aa(lp757
I28
ag714
aaaa(lp758
I32
aI35
ag42
a(lp759
(lp760
I32
aS'3'
p761
aa(lp762
I34
aS'4'
p763
aa(lp764
I35
aS'0'
p765
aaaa(lp766
I38
aI39
ag51
a(lp767
(lp768
I38
aS'2'
p769
aa(lp770
I39
ag765
aaaa(lp771
I43
aI44
aS'he'
p772
a(lp773
(lp774
I43
aS'h'
p775
aa(lp776
I44
ag714
aaaa(lp777
I46
aI51
ag60
a(lp778
(lp779
I46
ag753
aa(lp780
I47
ag726
aa(lp781
I48
ag720
aa(lp782
I49
ag712
aa(lp783
I50
ag720
aa(lp784
I51
ag716
aaaa(lp785
I53
aI54
aS'of'
p786
a(lp787
(lp788
I53
ag747
aa(lp789
I54
aS'f'
p790
aaaa(lp791
I56
aI58
ag69
a(lp792
(lp793
I56
aS'g'
p794
aa(lp795
I57
ag747
aa(lp796
I58
aS'd'
p797
aaaa(lp798
I60
aI63
ag78
a(lp799
(lp800
I60
ag749
aa(lp801
I61
ag753
aa(lp802
I62
ag714
aa(lp803
I63
ag753
aaaa(lp804
I65
aI67
aS'the'
p805
a(lp806
(lp807
I65
ag716
aa(lp808
I66
ag775
aa(lp809
I67
ag714
aaaa(lp810
I69
aI72
ag87
a(lp811
(lp812
I69
aS'w'
p813
aa(lp814
I70
ag747
aa(lp815
I71
ag712
aa(lp816
I72
ag797
aaaa(lp817
I74
aI75
aS'of'
p818
a(lp819
(lp820
I74
ag747
aa(lp821
I75
ag790
aaaa(lp822
I77
aI79
ag96
a(lp823
(lp824
I77
ag794
aa(lp825
I78
ag747
aa(lp826
I79
ag797
aaaa(lp827
I81
aI82
aS'to'
p828
a(lp829
(lp830
I81
ag716
aa(lp831
I82
ag747
aaaa(lp832
I84
aI87
ag105
a(lp833
(lp834
I84
aS'm'
p835
aa(lp836
I85
ag718
aa(lp837
I86
aS'k'
p838
aa(lp839
I87
ag714
aaaa(lp840
I89
aI90
ag114
a(lp841
(lp842
I89
ag749
aa(lp843
I90
ag753
aaaa(lp844
I92
aI95
ag123
a(lp845
(lp846
I92
ag722
aa(lp847
I93
ag720
aa(lp848
I94
ag838
aa(lp849
I95
ag714
aaaa(lp850
I97
aI99
aS'the'
p851
a(lp852
(lp853
I97
ag716
aa(lp854
I98
ag775
aa(lp855
I99
ag714
aaaa(lp856
I101
aI103
ag132
a(lp857
(lp858
I101
ag753
aa(lp859
I102
ag747
aa(lp860
I103
aS'n'
p861
aaaa(lp862
I105
aI106
aS'of'
p863
a(lp864
(lp865
I105
ag747
aa(lp866
I106
ag790
aaaa(lp867
I108
aI115
ag141
a(lp868
(lp869
I108
ag794
aa(lp870
I109
ag747
aa(lp871
I110
ag797
aa(lp872
I112
ag712
aa(lp873
I113
ag720
aa(lp874
I114
ag730
aa(lp875
I115
ag838
aaaa(lp876
I117
aI122
ag150
a(lp877
(lp878
I117
ag813
aa(lp879
I118
ag718
aa(lp880
I119
ag712
aa(lp881
I120
ag712
aa(lp882
I121
ag714
aa(lp883
I122
ag861
aaaa(lp884
I124
aI125
aS'in'
p885
a(lp886
(lp887
I124
ag720
aa(lp888
I125
ag861
aaaa(lp889
I127
aI129
aS'the'
p890
a(lp891
(lp892
I127
ag716
aa(lp893
I128
ag775
aa(lp894
I129
ag714
aaaa(lp895
I131
aI137
ag159
a(lp896
(lp897
I131
ag726
aa(lp898
I132
ag749
aa(lp899
I133
ag712
aa(lp900
I134
ag726
aa(lp901
I135
ag747
aa(lp902
I136
ag753
aa(lp903
I137
ag714
aaaa(lp904
I139
aI148
ag168
a(lp905
(lp906
I139
ag797
aa(lp907
I140
ag712
aa(lp908
I141
ag720
aa(lp909
I142
ag756
aa(lp910
I143
ag714
aa(lp911
I144
ag861
aa(lp912
I145
ag722
aa(lp913
I146
ag720
aa(lp914
I147
ag790
aa(lp915
I148
ag714
aaaa(lp916
I150
aI152
aS'you'
p917
a(lp918
(lp919
I150
ag745
aa(lp920
I151
ag747
aa(lp921
I152
ag749
aaaa(lp922
I154
aI157
aS'were'
p923
a(lp924
(lp925
I154
ag813
aa(lp926
I155
ag714
aa(lp927
I156
ag712
aa(lp928
I157
ag714
aaaa(lp929
I159
aI165
ag177
a(lp930
(lp931
I159
ag730
aa(lp932
I160
ag712
aa(lp933
I161
ag714
aa(lp934
I162
ag718
aa(lp935
I163
ag716
aa(lp936
I164
ag714
aa(lp937
I165
ag797
aaaa(lp938
I167
aI168
aS'to'
p939
a(lp940
(lp941
I167
ag716
aa(lp942
I168
ag747
aaaa(lp943
I170
aI175
ag186
a(lp944
(lp945
I170
aS'b'
p946
aa(lp947
I171
ag714
aa(lp948
I172
ag730
aa(lp949
I173
ag747
aa(lp950
I174
ag835
aa(lp951
I175
ag714
aaaa(lp952
I177
aI180
ag195
a(lp953
(lp954
I177
ag722
aa(lp955
I178
ag720
aa(lp956
I179
ag838
aa(lp957
I180
ag714
aaaa(lp958
I182
aI187
ag204
a(lp959
(lp960
I182
ag730
aa(lp961
I183
ag775
aa(lp962
I184
ag712
aa(lp963
I185
ag720
aa(lp964
I186
ag753
aa(lp965
I187
ag716
aaaa(lp966
I190
aI193
aS'this'
p967
a(lp968
(lp969
I190
ag716
aa(lp970
I191
ag775
aa(lp971
I192
ag720
aa(lp972
I193
ag753
aaaa(lp973
I195
aI196
aS'is'
p974
a(lp975
(lp976
I195
ag720
aa(lp977
I196
ag753
aaaa(lp978
I198
aI200
ag213
a(lp979
(lp980
I198
ag747
aa(lp981
I199
ag861
aa(lp982
I200
ag714
aaaa(lp983
I202
aI203
aS'of'
p984
a(lp985
(lp986
I202
ag747
aa(lp987
I203
ag790
aaaa(lp988
I205
aI207
aS'the'
p989
a(lp990
(lp991
I205
ag716
aa(lp992
I206
ag775
aa(lp993
I207
ag714
aaaa(lp994
I209
aI212
ag222
a(lp995
(lp996
I209
ag790
aa(lp997
I210
ag720
aa(lp998
I211
ag756
aa(lp999
I212
ag714
aaaa(lp1000
I214
aI225
ag231
a(lp1001
(lp1002
I214
ag794
aa(lp1003
I215
ag747
aa(lp1004
I216
ag797
aa(lp1005
I218
ag747
aa(lp1006
I219
ag712
aa(lp1007
I220
ag797
aa(lp1008
I221
ag718
aa(lp1009
I222
ag720
aa(lp1010
I223
ag861
aa(lp1011
I224
ag714
aa(lp1012
I225
ag797
aaaa(lp1013
I227
aI234
ag240
a(lp1014
(lp1015
I227
ag726
aa(lp1016
I228
ag749
aa(lp1017
I229
ag712
aa(lp1018
I230
ag726
aa(lp1019
I231
ag747
aa(lp1020
I232
ag753
aa(lp1021
I233
ag714
aa(lp1022
I234
ag753
aaaa(lp1023
I236
aI238
aS'for'
p1024
a(lp1025
(lp1026
I236
ag790
aa(lp1027
I237
ag747
aa(lp1028
I238
ag712
aaaa(lp1029
I240
aI243
aS'your'
p1030
a(lp1031
(lp1032
I240
ag745
aa(lp1033
I241
ag747
aa(lp1034
I242
ag749
aa(lp1035
I243
ag712
aaaa(lp1036
I245
aI248
ag249
a(lp1037
(lp1038
I245
ag722
aa(lp1039
I246
ag720
aa(lp1040
I247
ag790
aa(lp1041
I248
ag714
aaaa(lp1042
I250
aI258
ag258
a(lp1043
(lp1044
I250
ag797
aa(lp1045
I251
ag714
aa(lp1046
I252
ag753
aa(lp1047
I253
ag730
aa(lp1048
I254
ag712
aa(lp1049
I255
ag720
aa(lp1050
I256
ag946
aa(lp1051
I257
ag714
aa(lp1052
I258
ag797
aaaa(lp1053
I260
aI261
aS'in'
p1054
a(lp1055
(lp1056
I260
ag720
aa(lp1057
I261
ag861
aaaa(lp1058
I263
aI265
aS'the'
p1059
a(lp1060
(lp1061
I263
ag716
aa(lp1062
I264
ag775
aa(lp1063
I265
ag714
aaaa(lp1064
I267
aI273
ag267
a(lp1065
(lp1066
I267
ag726
aa(lp1067
I268
ag749
aa(lp1068
I269
ag712
aa(lp1069
I270
ag726
aa(lp1070
I271
ag747
aa(lp1071
I272
ag753
aa(lp1072
I273
ag714
aaaa(lp1073
I275
aI284
ag276
a(lp1074
(lp1075
I275
ag797
aa(lp1076
I276
ag712
aa(lp1077
I277
ag720
aa(lp1078
I278
ag756
aa(lp1079
I279
ag714
aa(lp1080
I280
ag861
aa(lp1081
I281
ag722
aa(lp1082
I282
ag720
aa(lp1083
I283
ag790
aa(lp1084
I284
ag714
aaaa(lp1085
I286
aI287
aS'by'
p1086
a(lp1087
(lp1088
I286
ag946
aa(lp1089
I287
ag745
aaaa(lp1090
I289
aI292
ag285
a(lp1091
(lp1092
I289
ag712
aa(lp1093
I290
ag720
aa(lp1094
I291
ag730
aa(lp1095
I292
ag838
aaaa(lp1096
I294
aI299
ag294
a(lp1097
(lp1098
I294
ag813
aa(lp1099
I295
ag718
aa(lp1100
I296
ag712
aa(lp1101
I297
ag712
aa(lp1102
I298
ag714
aa(lp1103
I299
ag861
aaaa(lp1104
I302
aI304
aS'and'
p1105
a(lp1106
(lp1107
I302
ag718
aa(lp1108
I303
ag861
aa(lp1109
I304
ag797
aaaa(lp1110
I306
aI307
aS'it'
p1111
a(lp1112
(lp1113
I306
ag720
aa(lp1114
I307
ag716
aaaa(lp1115
I309
aI311
aS'why'
p1116
a(lp1117
(lp1118
I309
ag813
aa(lp1119
I310
ag775
aa(lp1120
I311
ag745
aaaa(lp1121
I313
aI320
ag303
a(lp1122
(lp1123
I313
ag753
aa(lp1124
I314
ag716
aa(lp1125
I315
ag749
aa(lp1126
I316
ag797
aa(lp1127
I317
ag745
aa(lp1128
I318
ag720
aa(lp1129
I319
ag861
aa(lp1130
I320
ag794
aaaa(lp1131
I322
aI324
aS'the'
p1132
a(lp1133
(lp1134
I322
ag716
aa(lp1135
I323
ag775
aa(lp1136
I324
ag714
aaaa(lp1137
I326
aI330
ag312
a(lp1138
(lp1139
I326
ag946
aa(lp1140
I327
ag720
aa(lp1141
I328
ag946
aa(lp1142
I329
ag722
aa(lp1143
I330
ag714
aaaa(lp1144
I332
aI333
aS'is'
p1145
a(lp1146
(lp1147
I332
ag720
aa(lp1148
I333
ag753
aaaa(lp1149
I335
aI336
aS'so'
p1150
a(lp1151
(lp1152
I335
ag753
aa(lp1153
I336
ag747
aaaa(lp1154
I338
aI346
ag321
a(lp1155
(lp1156
I338
ag720
aa(lp1157
I339
ag835
aa(lp1158
I340
ag726
aa(lp1159
I341
ag747
aa(lp1160
I342
ag712
aa(lp1161
I343
ag716
aa(lp1162
I344
ag718
aa(lp1163
I345
ag861
aa(lp1164
I346
ag716
aaaa(lp1165
I349
aI351
aS'the'
p1166
a(lp1167
(lp1168
I349
ag716
aa(lp1169
I350
ag775
aa(lp1170
I351
ag714
aaaa(lp1171
I353
aI357
ag330
a(lp1172
(lp1173
I353
ag946
aa(lp1174
I354
ag720
aa(lp1175
I355
ag946
aa(lp1176
I356
ag722
aa(lp1177
I357
ag714
aaaa(lp1178
I359
aI364
ag339
a(lp1179
(lp1180
I359
ag716
aa(lp1181
I360
ag712
aa(lp1182
I361
ag749
aa(lp1183
I362
ag716
aa(lp1184
I363
ag775
aa(lp1185
I364
ag753
aaaa(lp1186
I366
aI369
aS'will'
p1187
a(lp1188
(lp1189
I366
ag813
aa(lp1190
I367
ag720
aa(lp1191
I368
ag722
aa(lp1192
I369
ag722
aaaa(lp1193
I371
aI379
ag348
a(lp1194
(lp1195
I371
ag716
aa(lp1196
I372
ag712
aa(lp1197
I373
ag718
aa(lp1198
I374
ag861
aa(lp1199
I375
ag753
aa(lp1200
I376
ag790
aa(lp1201
I377
ag747
aa(lp1202
I378
ag712
aa(lp1203
I379
ag835
aaaa(lp1204
I381
aI383
aS'you'
p1205
a(lp1206
(lp1207
I381
ag745
aa(lp1208
I382
ag747
aa(lp1209
I383
ag749
aaaa(lp1210
I386
aI393
ag357
a(lp1211
(lp1212
I386
ag718
aa(lp1213
I387
ag722
aa(lp1214
I388
ag720
aa(lp1215
I389
ag794
aa(lp1216
I390
ag861
aa(lp1217
I391
ag720
aa(lp1218
I392
ag861
aa(lp1219
I393
ag794
aaaa(lp1220
I395
aI397
aS'you'
p1221
a(lp1222
(lp1223
I395
ag745
aa(lp1224
I396
ag747
aa(lp1225
I397
ag749
aaaa(lp1226
I399
aI402
aS'with'
p1227
a(lp1228
(lp1229
I399
ag813
aa(lp1230
I400
ag720
aa(lp1231
I401
ag716
aa(lp1232
I402
ag775
aaaa(lp1233
I404
aI406
aS'the'
p1234
a(lp1235
(lp1236
I404
ag716
aa(lp1237
I405
ag775
aa(lp1238
I406
ag714
aaaa(lp1239
I408
aI416
ag366
a(lp1240
(lp1241
I408
ag730
aa(lp1242
I409
ag775
aa(lp1243
I410
ag718
aa(lp1244
I411
ag712
aa(lp1245
I412
ag718
aa(lp1246
I413
ag730
aa(lp1247
I414
ag716
aa(lp1248
I415
ag714
aa(lp1249
I416
ag712
aaaa(lp1250
I418
aI420
aS'and'
p1251
a(lp1252
(lp1253
I418
ag718
aa(lp1254
I419
ag861
aa(lp1255
I420
ag797
aaaa(lp1256
I422
aI425
ag375
a(lp1257
(lp1258
I422
ag813
aa(lp1259
I423
ag718
aa(lp1260
I424
ag745
aa(lp1261
I425
ag753
aaaa(lp1262
I427
aI428
aS'of'
p1263
a(lp1264
(lp1265
I427
ag747
aa(lp1266
I428
ag790
aaaa(lp1267
I430
aI434
ag384
a(lp1268
(lp1269
I430
aS'j'
p1270
aa(lp1271
I431
ag714
aa(lp1272
I432
ag753
aa(lp1273
I433
ag749
aa(lp1274
I434
ag753
aaaa(lp1275
I436
aI437
aS'as'
p1276
a(lp1277
(lp1278
I436
ag718
aa(lp1279
I437
ag753
aaaa(lp1280
I439
aI441
aS'you'
p1281
a(lp1282
(lp1283
I439
ag745
aa(lp1284
I440
ag747
aa(lp1285
I441
ag749
aaaa(lp1286
I443
aI451
ag393
a(lp1287
(lp1288
I443
ag714
aa(lp1289
I444
ag861
aa(lp1290
I445
ag730
aa(lp1291
I446
ag747
aa(lp1292
I447
ag749
aa(lp1293
I448
ag861
aa(lp1294
I449
ag716
aa(lp1295
I450
ag714
aa(lp1296
I451
ag712
aaaa(lp1297
I453
aI455
aS'him'
p1298
a(lp1299
(lp1300
I453
ag775
aa(lp1301
I454
ag720
aa(lp1302
I455
ag835
aaaa(lp1303
I457
aI458
aS'in'
p1304
a(lp1305
(lp1306
I457
ag720
aa(lp1307
I458
ag861
aaaa(lp1308
I460
aI462
aS'the'
p1309
a(lp1310
(lp1311
I460
ag716
aa(lp1312
I461
ag775
aa(lp1313
I462
ag714
aaaa(lp1314
I464
aI473
ag402
a(lp1315
(lp1316
I464
ag753
aa(lp1317
I465
ag730
aa(lp1318
I466
ag712
aa(lp1319
I467
ag720
aa(lp1320
I468
ag726
aa(lp1321
I469
ag716
aa(lp1322
I470
ag749
aa(lp1323
I471
ag712
aa(lp1324
I472
ag714
aa(lp1325
I473
ag753
aaaa(lp1326
I476
aI479
aS'this'
p1327
a(lp1328
(lp1329
I476
ag716
aa(lp1330
I477
ag775
aa(lp1331
I478
ag720
aa(lp1332
I479
ag753
aaaa(lp1333
I481
aI498
ag411
a(lp1334
(lp1335
I481
ag714
aa(lp1336
I482
ag718
aa(lp1337
I483
ag753
aa(lp1338
I484
ag745
aa(lp1339
I486
ag716
aa(lp1340
I487
ag747
aa(lp1341
I489
ag749
aa(lp1342
I490
ag861
aa(lp1343
I491
ag797
aa(lp1344
I492
ag714
aa(lp1345
I493
ag712
aa(lp1346
I494
ag753
aa(lp1347
I495
ag716
aa(lp1348
I496
ag718
aa(lp1349
I497
ag861
aa(lp1350
I498
ag797
aaaa(lp1351
I500
aI503
ag420
a(lp1352
(lp1353
I500
ag946
aa(lp1354
I501
ag747
aa(lp1355
I502
ag747
aa(lp1356
I503
ag838
aaaa(lp1357
I505
aI509
ag429
a(lp1358
(lp1359
I505
ag753
aa(lp1360
I506
ag775
aa(lp1361
I507
ag747
aa(lp1362
I508
ag813
aa(lp1363
I509
ag753
aaaa(lp1364
I511
aI513
aS'you'
p1365
a(lp1366
(lp1367
I511
ag745
aa(lp1368
I512
ag747
aa(lp1369
I513
ag749
aaaa(lp1370
I515
aI517
aS'how'
p1371
a(lp1372
(lp1373
I515
ag775
aa(lp1374
I516
ag747
aa(lp1375
I517
ag813
aaaa(lp1376
I519
aI520
aS'to'
p1377
a(lp1378
(lp1379
I519
ag716
aa(lp1380
I520
ag747
aaaa(lp1381
I522
aI526
ag438
a(lp1382
(lp1383
I522
ag753
aa(lp1384
I523
ag716
aa(lp1385
I524
ag749
aa(lp1386
I525
ag797
aa(lp1387
I526
ag745
aaaa(lp1388
I528
aI530
aS'the'
p1389
a(lp1390
(lp1391
I528
ag716
aa(lp1392
I529
ag775
aa(lp1393
I530
ag714
aaaa(lp1394
I532
aI536
ag447
a(lp1395
(lp1396
I532
ag946
aa(lp1397
I533
ag720
aa(lp1398
I534
ag946
aa(lp1399
I535
ag722
aa(lp1400
I536
ag714
aaaa(lp1401
I538
aI541
ag456
a(lp1402
(lp1403
I538
ag712
aa(lp1404
I539
ag720
aa(lp1405
I540
ag730
aa(lp1406
I541
ag838
aaaa(lp1407
I543
aI548
ag465
a(lp1408
(lp1409
I543
ag813
aa(lp1410
I544
ag718
aa(lp1411
I545
ag712
aa(lp1412
I546
ag712
aa(lp1413
I547
ag714
aa(lp1414
I548
ag861
aaaa(lp1415
I550
aI552
ag474
a(lp1416
(lp1417
I550
ag813
aa(lp1418
I551
ag718
aa(lp1419
I552
ag745
aaaa(lp1420
I555
aI556
aS'it'
p1421
a(lp1422
(lp1423
I555
ag720
aa(lp1424
I556
ag716
aaaa(lp1425
I558
aI562
ag483
a(lp1426
(lp1427
I558
ag794
aa(lp1428
I559
ag720
aa(lp1429
I560
ag756
aa(lp1430
I561
ag714
aa(lp1431
I562
ag753
aaaa(lp1432
I564
aI566
aS'you'
p1433
a(lp1434
(lp1435
I564
ag745
aa(lp1436
I565
ag747
aa(lp1437
I566
ag749
aaaa(lp1438
I568
aI570
aS'not'
p1439
a(lp1440
(lp1441
I568
ag861
aa(lp1442
I569
ag747
aa(lp1443
I570
ag716
aaaa(lp1444
I572
aI575
aS'just'
p1445
a(lp1446
(lp1447
I572
ag1270
aa(lp1448
I573
ag749
aa(lp1449
I574
ag753
aa(lp1450
I575
ag716
aaaa(lp1451
I577
aI579
ag492
a(lp1452
(lp1453
I577
ag747
aa(lp1454
I578
ag861
aa(lp1455
I579
ag714
aaaa(lp1456
I582
aI584
aS'but'
p1457
a(lp1458
(lp1459
I582
ag946
aa(lp1460
I583
ag749
aa(lp1461
I584
ag716
aaaa(lp1462
I586
aI591
ag501
a(lp1463
(lp1464
I586
ag716
aa(lp1465
I587
ag813
aa(lp1466
I588
ag714
aa(lp1467
I589
ag722
aa(lp1468
I590
ag756
aa(lp1469
I591
ag714
aaaa(lp1470
I593
aI599
ag510
a(lp1471
(lp1472
I593
ag835
aa(lp1473
I594
ag714
aa(lp1474
I595
ag716
aa(lp1475
I596
ag775
aa(lp1476
I597
ag747
aa(lp1477
I598
ag797
aa(lp1478
I599
ag753
aaaa(lp1479
I601
aI603
aS'for'
p1480
a(lp1481
(lp1482
I601
ag790
aa(lp1483
I602
ag747
aa(lp1484
I603
ag712
aaaa(lp1485
I605
aI613
ag519
a(lp1486
(lp1487
I605
ag714
aa(lp1488
I606
aS'x'
p1489
aa(lp1490
I607
ag726
aa(lp1491
I608
ag722
aa(lp1492
I609
ag747
aa(lp1493
I610
ag712
aa(lp1494
I611
ag720
aa(lp1495
I612
ag861
aa(lp1496
I613
ag794
aaaa(lp1497
I615
aI617
aS'the'
p1498
a(lp1499
(lp1500
I615
ag716
aa(lp1501
I616
ag775
aa(lp1502
I617
ag714
aaaa(lp1503
I619
aI624
ag528
a(lp1504
(lp1505
I619
ag712
aa(lp1506
I620
ag720
aa(lp1507
I621
ag730
aa(lp1508
I622
ag775
aa(lp1509
I623
ag714
aa(lp1510
I624
ag753
aaaa(lp1511
I626
aI627
aS'of'
p1512
a(lp1513
(lp1514
I626
ag747
aa(lp1515
I627
ag790
aaaa(lp1516
I629
aI631
ag537
a(lp1517
(lp1518
I629
ag794
aa(lp1519
I630
ag747
aa(lp1520
I631
ag797
aaaa(lp1521
I633
aI636
ag546
a(lp1522
(lp1523
I633
ag813
aa(lp1524
I634
ag747
aa(lp1525
I635
ag712
aa(lp1526
I636
ag797
aaaa(lp1527
I639
aI640
aS'at'
p1528
a(lp1529
(lp1530
I639
ag718
aa(lp1531
I640
ag716
aaaa(lp1532
I642
aI646
ag555
a(lp1533
(lp1534
I642
ag722
aa(lp1535
I643
ag714
aa(lp1536
I644
ag718
aa(lp1537
I645
ag753
aa(lp1538
I646
ag716
aaaa(lp1539
I648
aI650
ag564
a(lp1540
(lp1541
I648
ag747
aa(lp1542
I649
ag861
aa(lp1543
I650
ag714
aaaa(lp1544
I652
aI653
aS'of'
p1545
a(lp1546
(lp1547
I652
ag747
aa(lp1548
I653
ag790
aaaa(lp1549
I655
aI658
aS'them'
p1550
a(lp1551
(lp1552
I655
ag716
aa(lp1553
I656
ag775
aa(lp1554
I657
ag714
aa(lp1555
I658
ag835
aaaa(lp1556
I660
aI661
aS'is'
p1557
a(lp1558
(lp1559
I660
ag720
aa(lp1560
I661
ag753
aaaa(lp1561
I663
aI669
ag573
a(lp1562
(lp1563
I663
ag714
aa(lp1564
I664
ag1489
aa(lp1565
I665
ag718
aa(lp1566
I666
ag730
aa(lp1567
I667
ag716
aa(lp1568
I668
ag722
aa(lp1569
I669
ag745
aaaa(lp1570
I671
aI674
aS'what'
p1571
a(lp1572
(lp1573
I671
ag813
aa(lp1574
I672
ag775
aa(lp1575
I673
ag718
aa(lp1576
I674
ag716
aaaa(lp1577
I676
aI679
ag582
a(lp1578
(lp1579
I676
ag745
aa(lp1580
I677
ag747
aa(lp1581
I678
ag749
aa(lp1582
I679
ag714
aaaa(lp1583
I681
aI687
ag591
a(lp1584
(lp1585
I681
ag722
aa(lp1586
I682
ag747
aa(lp1587
I683
ag747
aa(lp1588
I684
ag838
aa(lp1589
I685
ag720
aa(lp1590
I686
ag861
aa(lp1591
I687
ag794
aaaa(lp1592
I689
aI692
ag600
a(lp1593
(lp1594
I689
ag790
aa(lp1595
I690
ag747
aa(lp1596
I691
ag712
aa(lp1597
I692
ag861
aaaa(lp1598
I694
aI701
ag609
a(lp1599
(lp1600
I694
ag718
aa(lp1601
I695
ag726
aa(lp1602
I696
ag726
aa(lp1603
I697
ag712
aa(lp1604
I698
ag747
aa(lp1605
I699
ag718
aa(lp1606
I700
ag730
aa(lp1607
I701
ag775
aaaa(lp1608
I703
aI706
aS'that'
p1609
a(lp1610
(lp1611
I703
ag716
aa(lp1612
I704
ag775
aa(lp1613
I705
ag718
aa(lp1614
I706
ag716
aaaa(lp1615
I708
aI712
ag618
a(lp1616
(lp1617
I708
ag712
aa(lp1618
I709
ag720
aa(lp1619
I710
ag794
aa(lp1620
I711
ag775
aa(lp1621
I712
ag716
aaaa(lp1622
I714
aI716
aS'for'
p1623
a(lp1624
(lp1625
I714
ag790
aa(lp1626
I715
ag747
aa(lp1627
I716
ag712
aaaa(lp1628
I718
aI720
aS'you'
p1629
a(lp1630
(lp1631
I718
ag745
aa(lp1632
I719
ag747
aa(lp1633
I720
ag749
aaaa(lp1634
I723
aI727
ag627
a(lp1635
(lp1636
I723
ag712
aa(lp1637
I724
ag720
aa(lp1638
I725
ag794
aa(lp1639
I726
ag775
aa(lp1640
I727
ag716
aaaa(lp1641
I729
aI733
aS'where'
p1642
a(lp1643
(lp1644
I729
ag813
aa(lp1645
I730
ag775
aa(lp1646
I731
ag714
aa(lp1647
I732
ag712
aa(lp1648
I733
ag714
aaaa(lp1649
I735
aI738
ag636
a(lp1650
(lp1651
I735
ag745
aa(lp1652
I736
ag747
aa(lp1653
I737
ag749
aa(lp1654
I738
ag714
aaaa(lp1655
I740
aI741
aS'at'
p1656
a(lp1657
(lp1658
I740
ag718
aa(lp1659
I741
ag716
aaaa(lp1660
I744
aI749
ag645
a(lp1661
(lp1662
I744
ag753
aa(lp1663
I745
ag720
aa(lp1664
I746
ag835
aa(lp1665
I747
ag726
aa(lp1666
I748
ag722
aa(lp1667
I749
ag714
aaaa(lp1668
I751
aI762
ag654
a(lp1669
(lp1670
I751
ag753
aa(lp1671
I752
ag716
aa(lp1672
I753
ag714
aa(lp1673
I754
ag726
aa(lp1674
I756
ag946
aa(lp1675
I757
ag745
aa(lp1676
I759
ag753
aa(lp1677
I760
ag716
aa(lp1678
I761
ag714
aa(lp1679
I762
ag726
aaaa(lp1680
I764
aI775
ag663
a(lp1681
(lp1682
I764
ag720
aa(lp1683
I765
ag861
aa(lp1684
I766
ag753
aa(lp1685
I767
ag716
aa(lp1686
I768
ag712
aa(lp1687
I769
ag749
aa(lp1688
I770
ag730
aa(lp1689
I771
ag716
aa(lp1690
I772
ag720
aa(lp1691
I773
ag747
aa(lp1692
I774
ag861
aa(lp1693
I775
ag753
aaaa(lp1694
I777
aI781
ag672
a(lp1695
(lp1696
I777
ag794
aa(lp1697
I778
ag749
aa(lp1698
I779
ag720
aa(lp1699
I780
ag797
aa(lp1700
I781
ag714
aaaa(lp1701
I783
aI785
aS'you'
p1702
a(lp1703
(lp1704
I783
ag745
aa(lp1705
I784
ag747
aa(lp1706
I785
ag749
aaaa(lp1707
I787
aI793
aS'through'
p1708
a(lp1709
(lp1710
I787
ag716
aa(lp1711
I788
ag775
aa(lp1712
I789
ag712
aa(lp1713
I790
ag747
aa(lp1714
I791
ag749
aa(lp1715
I792
ag794
aa(lp1716
I793
ag775
aaaa(lp1717
I795
aI797
aS'the'
p1718
a(lp1719
(lp1720
I795
ag716
aa(lp1721
I796
ag775
aa(lp1722
I797
ag714
aaaa(lp1723
I799
aI805
ag681
a(lp1724
(lp1725
I799
ag775
aa(lp1726
I800
ag747
aa(lp1727
I801
ag813
aa(lp1728
I803
ag716
aa(lp1729
I804
ag747
aa(lp1730
I805
ag753
aaaa(lp1731
I807
aI808
aS'of'
p1732
a(lp1733
(lp1734
I807
ag747
aa(lp1735
I808
ag790
aaaa(lp1736
I810
aI812
aS'the'
p1737
a(lp1738
(lp1739
I810
ag716
aa(lp1740
I811
ag775
aa(lp1741
I812
ag714
aaaa(lp1742
I814
aI822
ag690
a(lp1743
(lp1744
I814
ag790
aa(lp1745
I815
ag747
aa(lp1746
I816
ag722
aa(lp1747
I817
ag722
aa(lp1748
I818
ag747
aa(lp1749
I819
ag813
aa(lp1750
I820
ag720
aa(lp1751
I821
ag861
aa(lp1752
I822
ag794
aaaa(lp1753
I824
aI830
ag699
a(lp1754
(lp1755
I824
ag835
aa(lp1756
I825
ag714
aa(lp1757
I826
ag716
aa(lp1758
I827
ag775
aa(lp1759
I828
ag747
aa(lp1760
I829
ag797
aa(lp1761
I830
ag753
aaaasS'cleanCharacterMap'
p1762
(lp1763
g711
ag713
ag715
ag717
ag719
ag721
a(lp1764
I6
aS' '
p1765
aag725
ag727
ag728
ag729
ag731
a(lp1766
I13
ag1765
aag734
ag736
ag738
ag740
a(lp1767
I20
ag1765
aag744
ag746
ag748
a(lp1768
I24
ag1765
aag752
ag754
ag755
ag757
a(lp1769
I30
ag1765
aag760
ag762
ag764
a(lp1770
I36
ag1765
aag768
ag770
a(lp1771
I42
ag1765
aag774
ag776
a(lp1772
I45
ag1765
aag779
ag780
ag781
ag782
ag783
ag784
a(lp1773
I52
ag1765
aag788
ag789
a(lp1774
I55
ag1765
aag793
ag795
ag796
a(lp1775
I59
ag1765
aag800
ag801
ag802
ag803
a(lp1776
I64
ag1765
aag807
ag808
ag809
a(lp1777
I68
ag1765
aag812
ag814
ag815
ag816
a(lp1778
I73
ag1765
aag820
ag821
a(lp1779
I76
ag1765
aag824
ag825
ag826
a(lp1780
I80
ag1765
aag830
ag831
a(lp1781
I83
ag1765
aag834
ag836
ag837
ag839
a(lp1782
I88
ag1765
aag842
ag843
a(lp1783
I91
ag1765
aag846
ag847
ag848
ag849
a(lp1784
I96
ag1765
aag853
ag854
ag855
a(lp1785
I100
ag1765
aag858
ag859
ag860
a(lp1786
I104
ag1765
aag865
ag866
a(lp1787
I107
ag1765
aag869
ag870
ag871
ag872
ag873
ag874
ag875
a(lp1788
I116
ag1765
aag878
ag879
ag880
ag881
ag882
ag883
a(lp1789
I123
ag1765
aag887
ag888
a(lp1790
I126
ag1765
aag892
ag893
ag894
a(lp1791
I130
ag1765
aag897
ag898
ag899
ag900
ag901
ag902
ag903
a(lp1792
I138
ag1765
aag906
ag907
ag908
ag909
ag910
ag911
ag912
ag913
ag914
ag915
a(lp1793
I149
ag1765
aag919
ag920
ag921
a(lp1794
I153
ag1765
aag925
ag926
ag927
ag928
a(lp1795
I158
ag1765
aag931
ag932
ag933
ag934
ag935
ag936
ag937
a(lp1796
I166
ag1765
aag941
ag942
a(lp1797
I169
ag1765
aag945
ag947
ag948
ag949
ag950
ag951
a(lp1798
I176
ag1765
aag954
ag955
ag956
ag957
a(lp1799
I181
ag1765
aag960
ag961
ag962
ag963
ag964
ag965
a(lp1800
I189
ag1765
aag969
ag970
ag971
ag972
a(lp1801
I194
ag1765
aag976
ag977
a(lp1802
I197
ag1765
aag980
ag981
ag982
a(lp1803
I201
ag1765
aag986
ag987
a(lp1804
I204
ag1765
aag991
ag992
ag993
a(lp1805
I208
ag1765
aag996
ag997
ag998
ag999
a(lp1806
I213
ag1765
aag1002
ag1003
ag1004
ag1005
ag1006
ag1007
ag1008
ag1009
ag1010
ag1011
ag1012
a(lp1807
I226
ag1765
aag1015
ag1016
ag1017
ag1018
ag1019
ag1020
ag1021
ag1022
a(lp1808
I235
ag1765
aag1026
ag1027
ag1028
a(lp1809
I239
ag1765
aag1032
ag1033
ag1034
ag1035
a(lp1810
I244
ag1765
aag1038
ag1039
ag1040
ag1041
a(lp1811
I249
ag1765
aag1044
ag1045
ag1046
ag1047
ag1048
ag1049
ag1050
ag1051
ag1052
a(lp1812
I259
ag1765
aag1056
ag1057
a(lp1813
I262
ag1765
aag1061
ag1062
ag1063
a(lp1814
I266
ag1765
aag1066
ag1067
ag1068
ag1069
ag1070
ag1071
ag1072
a(lp1815
I274
ag1765
aag1075
ag1076
ag1077
ag1078
ag1079
ag1080
ag1081
ag1082
ag1083
ag1084
a(lp1816
I285
ag1765
aag1088
ag1089
a(lp1817
I288
ag1765
aag1092
ag1093
ag1094
ag1095
a(lp1818
I293
ag1765
aag1098
ag1099
ag1100
ag1101
ag1102
ag1103
a(lp1819
I301
ag1765
aag1107
ag1108
ag1109
a(lp1820
I305
ag1765
aag1113
ag1114
a(lp1821
I308
ag1765
aag1118
ag1119
ag1120
a(lp1822
I312
ag1765
aag1123
ag1124
ag1125
ag1126
ag1127
ag1128
ag1129
ag1130
a(lp1823
I321
ag1765
aag1134
ag1135
ag1136
a(lp1824
I325
ag1765
aag1139
ag1140
ag1141
ag1142
ag1143
a(lp1825
I331
ag1765
aag1147
ag1148
a(lp1826
I334
ag1765
aag1152
ag1153
a(lp1827
I337
ag1765
aag1156
ag1157
ag1158
ag1159
ag1160
ag1161
ag1162
ag1163
ag1164
a(lp1828
I348
ag1765
aag1168
ag1169
ag1170
a(lp1829
I352
ag1765
aag1173
ag1174
ag1175
ag1176
ag1177
a(lp1830
I358
ag1765
aag1180
ag1181
ag1182
ag1183
ag1184
ag1185
a(lp1831
I365
ag1765
aag1189
ag1190
ag1191
ag1192
a(lp1832
I370
ag1765
aag1195
ag1196
ag1197
ag1198
ag1199
ag1200
ag1201
ag1202
ag1203
a(lp1833
I380
ag1765
aag1207
ag1208
ag1209
a(lp1834
I385
ag1765
aag1212
ag1213
ag1214
ag1215
ag1216
ag1217
ag1218
ag1219
a(lp1835
I394
ag1765
aag1223
ag1224
ag1225
a(lp1836
I398
ag1765
aag1229
ag1230
ag1231
ag1232
a(lp1837
I403
ag1765
aag1236
ag1237
ag1238
a(lp1838
I407
ag1765
aag1241
ag1242
ag1243
ag1244
ag1245
ag1246
ag1247
ag1248
ag1249
a(lp1839
I417
ag1765
aag1253
ag1254
ag1255
a(lp1840
I421
ag1765
aag1258
ag1259
ag1260
ag1261
a(lp1841
I426
ag1765
aag1265
ag1266
a(lp1842
I429
ag1765
aag1269
ag1271
ag1272
ag1273
ag1274
a(lp1843
I435
ag1765
aag1278
ag1279
a(lp1844
I438
ag1765
aag1283
ag1284
ag1285
a(lp1845
I442
ag1765
aag1288
ag1289
ag1290
ag1291
ag1292
ag1293
ag1294
ag1295
ag1296
a(lp1846
I452
ag1765
aag1300
ag1301
ag1302
a(lp1847
I456
ag1765
aag1306
ag1307
a(lp1848
I459
ag1765
aag1311
ag1312
ag1313
a(lp1849
I463
ag1765
aag1316
ag1317
ag1318
ag1319
ag1320
ag1321
ag1322
ag1323
ag1324
ag1325
a(lp1850
I475
ag1765
aag1329
ag1330
ag1331
ag1332
a(lp1851
I480
ag1765
aag1335
ag1336
ag1337
ag1338
ag1339
ag1340
ag1341
ag1342
ag1343
ag1344
ag1345
ag1346
ag1347
ag1348
ag1349
ag1350
a(lp1852
I499
ag1765
aag1353
ag1354
ag1355
ag1356
a(lp1853
I504
ag1765
aag1359
ag1360
ag1361
ag1362
ag1363
a(lp1854
I510
ag1765
aag1367
ag1368
ag1369
a(lp1855
I514
ag1765
aag1373
ag1374
ag1375
a(lp1856
I518
ag1765
aag1379
ag1380
a(lp1857
I521
ag1765
aag1383
ag1384
ag1385
ag1386
ag1387
a(lp1858
I527
ag1765
aag1391
ag1392
ag1393
a(lp1859
I531
ag1765
aag1396
ag1397
ag1398
ag1399
ag1400
a(lp1860
I537
ag1765
aag1403
ag1404
ag1405
ag1406
a(lp1861
I542
ag1765
aag1409
ag1410
ag1411
ag1412
ag1413
ag1414
a(lp1862
I549
ag1765
aag1417
ag1418
ag1419
a(lp1863
I554
ag1765
aag1423
ag1424
a(lp1864
I557
ag1765
aag1427
ag1428
ag1429
ag1430
ag1431
a(lp1865
I563
ag1765
aag1435
ag1436
ag1437
a(lp1866
I567
ag1765
aag1441
ag1442
ag1443
a(lp1867
I571
ag1765
aag1447
ag1448
ag1449
ag1450
a(lp1868
I576
ag1765
aag1453
ag1454
ag1455
a(lp1869
I581
ag1765
aag1459
ag1460
ag1461
a(lp1870
I585
ag1765
aag1464
ag1465
ag1466
ag1467
ag1468
ag1469
a(lp1871
I592
ag1765
aag1472
ag1473
ag1474
ag1475
ag1476
ag1477
ag1478
a(lp1872
I600
ag1765
aag1482
ag1483
ag1484
a(lp1873
I604
ag1765
aag1487
ag1488
ag1490
ag1491
ag1492
ag1493
ag1494
ag1495
ag1496
a(lp1874
I614
ag1765
aag1500
ag1501
ag1502
a(lp1875
I618
ag1765
aag1505
ag1506
ag1507
ag1508
ag1509
ag1510
a(lp1876
I625
ag1765
aag1514
ag1515
a(lp1877
I628
ag1765
aag1518
ag1519
ag1520
a(lp1878
I632
ag1765
aag1523
ag1524
ag1525
ag1526
a(lp1879
I638
ag1765
aag1530
ag1531
a(lp1880
I641
ag1765
aag1534
ag1535
ag1536
ag1537
ag1538
a(lp1881
I647
ag1765
aag1541
ag1542
ag1543
a(lp1882
I651
ag1765
aag1547
ag1548
a(lp1883
I654
ag1765
aag1552
ag1553
ag1554
ag1555
a(lp1884
I659
ag1765
aag1559
ag1560
a(lp1885
I662
ag1765
aag1563
ag1564
ag1565
ag1566
ag1567
ag1568
ag1569
a(lp1886
I670
ag1765
aag1573
ag1574
ag1575
ag1576
a(lp1887
I675
ag1765
aag1579
ag1580
ag1581
ag1582
a(lp1888
I680
ag1765
aag1585
ag1586
ag1587
ag1588
ag1589
ag1590
ag1591
a(lp1889
I688
ag1765
aag1594
ag1595
ag1596
ag1597
a(lp1890
I693
ag1765
aag1600
ag1601
ag1602
ag1603
ag1604
ag1605
ag1606
ag1607
a(lp1891
I702
ag1765
aag1611
ag1612
ag1613
ag1614
a(lp1892
I707
ag1765
aag1617
ag1618
ag1619
ag1620
ag1621
a(lp1893
I713
ag1765
aag1625
ag1626
ag1627
a(lp1894
I717
ag1765
aag1631
ag1632
ag1633
a(lp1895
I722
ag1765
aag1636
ag1637
ag1638
ag1639
ag1640
a(lp1896
I728
ag1765
aag1644
ag1645
ag1646
ag1647
ag1648
a(lp1897
I734
ag1765
aag1651
ag1652
ag1653
ag1654
a(lp1898
I739
ag1765
aag1658
ag1659
a(lp1899
I743
ag1765
aag1662
ag1663
ag1664
ag1665
ag1666
ag1667
a(lp1900
I750
ag1765
aag1670
ag1671
ag1672
ag1673
ag1674
ag1675
ag1676
ag1677
ag1678
ag1679
a(lp1901
I763
ag1765
aag1682
ag1683
ag1684
ag1685
ag1686
ag1687
ag1688
ag1689
ag1690
ag1691
ag1692
ag1693
a(lp1902
I776
ag1765
aag1696
ag1697
ag1698
ag1699
ag1700
a(lp1903
I782
ag1765
aag1704
ag1705
ag1706
a(lp1904
I786
ag1765
aag1710
ag1711
ag1712
ag1713
ag1714
ag1715
ag1716
a(lp1905
I794
ag1765
aag1720
ag1721
ag1722
a(lp1906
I798
ag1765
aag1725
ag1726
ag1727
ag1728
ag1729
ag1730
a(lp1907
I806
ag1765
aag1734
ag1735
a(lp1908
I809
ag1765
aag1739
ag1740
ag1741
a(lp1909
I813
ag1765
aag1744
ag1745
ag1746
ag1747
ag1748
ag1749
ag1750
ag1751
ag1752
a(lp1910
I823
ag1765
aag1755
ag1756
ag1757
ag1758
ag1759
ag1760
ag1761
a(lp1911
I832
ag1765
aa(lp1912
I833
ag797
aa(lp1913
I834
ag714
aa(lp1914
I835
ag756
aa(lp1915
I836
ag747
aa(lp1916
I837
ag716
aa(lp1917
I838
ag720
aa(lp1918
I839
ag747
aa(lp1919
I840
ag861
aa(lp1920
I841
ag718
aa(lp1921
I842
ag722
aasS'text'
p1922
S'retail price: $16.99 you save: $3.40 (20%) he spirit of god uses the word of god to make us like the son of god.rick warren in the purpose drivenlife you were created to become like christ. this is one of the five god-ordained purposes for your life described in the purpose drivenlife by rick warren, and it why studying the bible is so important. the bible truths will transform you, aligning you with the character and ways of jesus as you encounter him in the scriptures. this easy-to-understand book shows you how to study the bible rick warren way. it gives you not just one, but twelve methods for exploring the riches of god word. at least one of them is exactly what youe looking forn approach that right for you, right where youe at. simple step-by-step instructions guide you through the how-tos of the following methods: devotional'
p1923
sS'cleanWordMap'
p1924
(lp1925
g709
ag723
ag732
ag750
ag758
ag766
ag777
ag791
ag798
ag810
ag822
ag832
ag840
ag844
ag856
ag867
ag876
ag895
ag904
ag929
ag943
ag952
ag958
ag978
ag994
ag1000
ag1013
ag1036
ag1042
ag1064
ag1073
ag1090
ag1096
ag1121
ag1137
ag1154
ag1171
ag1178
ag1193
ag1210
ag1239
ag1256
ag1267
ag1286
ag1314
ag1333
ag1351
ag1357
ag1381
ag1394
ag1401
ag1407
ag1415
ag1425
ag1451
ag1462
ag1470
ag1485
ag1503
ag1516
ag1521
ag1532
ag1539
ag1561
ag1577
ag1583
ag1592
ag1598
ag1615
ag1634
ag1649
ag1660
ag1668
ag1680
ag1694
ag1723
ag1742
ag1753
asS'lines'
p1926
(lp1927
VRetail Price: $16.99\u000a
p1928
aVYou Save: $3.40 (20%)\u000a
p1929
aVhe Spirit of God uses the Word of God to make us like the Son of God.Rick Warren in The Purpose DrivenLife You were created to become like Christ. This is one of the five God-ordained purposes for your life described in The Purpose DrivenLife by Rick Warren, and it why studying the Bible is so important.\u000a
p1930
aVThe Bible truths will transform you, aligning you with the character and ways of Jesus as you encounter him in the Scriptures. This easy-to-understand book shows you how to study the Bible Rick Warren way. It gives you not just one, but twelve methods for exploring the riches of God Word. At least one of them is exactly what youe looking forn approach that right for you, right where youe at.\u000a
p1931
aVSimple step-by-step instructions guide you through the how-tos of the following methods:\u000a
p1932
aVDevotional
p1933
asS'docType'
p1934
S'src'
p1935
sS'newfmap'
p1936
(lp1937
g4
ag8
ag10
ag12
ag14
ag17
ag19
ag21
ag23
ag26
ag28
ag30
ag32
ag35
ag37
ag39
ag41
ag44
ag46
ag48
ag50
ag53
ag55
ag57
ag59
ag62
ag64
ag66
ag68
ag71
ag73
ag75
ag77
ag80
ag82
ag84
ag86
ag89
ag91
ag93
ag95
ag98
ag100
ag102
ag104
ag107
ag109
ag111
ag113
ag116
ag118
ag120
ag122
ag125
ag127
ag129
ag131
ag134
ag136
ag138
ag140
ag143
ag145
ag147
ag149
ag152
ag154
ag156
ag158
ag161
ag163
ag165
ag167
ag170
ag172
ag174
ag176
ag179
ag181
ag183
ag185
ag188
ag190
ag192
ag194
ag197
ag199
ag201
ag203
ag206
ag208
ag210
ag212
ag215
ag217
ag219
ag221
ag224
ag226
ag228
ag230
ag233
ag235
ag237
ag239
ag242
ag244
ag246
ag248
ag251
ag253
ag255
ag257
ag260
ag262
ag264
ag266
ag269
ag271
ag273
ag275
ag278
ag280
ag282
ag284
ag287
ag289
ag291
ag293
ag296
ag298
ag300
ag302
ag305
ag307
ag309
ag311
ag314
ag316
ag318
ag320
ag323
ag325
ag327
ag329
ag332
ag334
ag336
ag338
ag341
ag343
ag345
ag347
ag350
ag352
ag354
ag356
ag359
ag361
ag363
ag365
ag368
ag370
ag372
ag374
ag377
ag379
ag381
ag383
ag386
ag388
ag390
ag392
ag395
ag397
ag399
ag401
ag404
ag406
ag408
ag410
ag413
ag415
ag417
ag419
ag422
ag424
ag426
ag428
ag431
ag433
ag435
ag437
ag440
ag442
ag444
ag446
ag449
ag451
ag453
ag455
ag458
ag460
ag462
ag464
ag467
ag469
ag471
ag473
ag476
ag478
ag480
ag482
ag485
ag487
ag489
ag491
ag494
ag496
ag498
ag500
ag503
ag505
ag507
ag509
ag512
ag514
ag516
ag518
ag521
ag523
ag525
ag527
ag530
ag532
ag534
ag536
ag539
ag541
ag543
ag545
ag548
ag550
ag552
ag554
ag557
ag559
ag561
ag563
ag566
ag568
ag570
ag572
ag575
ag577
ag579
ag581
ag584
ag586
ag588
ag590
ag593
ag595
ag597
ag599
ag602
ag604
ag606
ag608
ag611
ag613
ag615
ag617
ag620
ag622
ag624
ag626
ag629
ag631
ag633
ag635
ag638
ag640
ag642
ag644
ag647
ag649
ag651
ag653
ag656
ag658
ag660
ag662
ag665
ag667
ag669
ag671
ag674
ag676
ag678
ag680
ag683
ag685
ag687
ag689
ag692
ag694
ag696
ag698
ag701
ag703
ag705
asS'featureMap'
p1938
(lp1939
(lp1940
I0
aI5
ag5
ag6
ag9
ag11
ag13
aa(lp1941
I7
aI11
ag15
ag16
ag18
ag20
ag22
aa(lp1942
I15
aI19
ag24
ag25
ag27
ag29
ag31
aa(lp1943
I25
aI28
ag33
ag34
ag36
ag38
ag40
aa(lp1944
I32
aI35
ag42
ag43
ag45
ag47
ag49
aa(lp1945
I38
aI39
ag51
ag52
ag54
ag56
ag58
aa(lp1946
I46
aI51
ag60
ag61
ag63
ag65
ag67
aa(lp1947
I56
aI58
ag69
ag70
ag72
ag74
ag76
aa(lp1948
I60
aI63
ag78
ag79
ag81
ag83
ag85
aa(lp1949
I69
aI72
ag87
ag88
ag90
ag92
ag94
aa(lp1950
I77
aI79
ag96
ag97
ag99
ag101
ag103
aa(lp1951
I84
aI87
ag105
ag106
ag108
ag110
ag112
aa(lp1952
I89
aI90
ag114
ag115
ag117
ag119
ag121
aa(lp1953
I92
aI95
ag123
ag124
ag126
ag128
ag130
aa(lp1954
I101
aI103
ag132
ag133
ag135
ag137
ag139
aa(lp1955
I108
aI115
ag141
ag142
ag144
ag146
ag148
aa(lp1956
I117
aI122
ag150
ag151
ag153
ag155
ag157
aa(lp1957
I131
aI137
ag159
ag160
ag162
ag164
ag166
aa(lp1958
I139
aI148
ag168
ag169
ag171
ag173
ag175
aa(lp1959
I159
aI165
ag177
ag178
ag180
ag182
ag184
aa(lp1960
I170
aI175
ag186
ag187
ag189
ag191
ag193
aa(lp1961
I177
aI180
ag195
ag196
ag198
ag200
ag202
aa(lp1962
I182
aI187
ag204
ag205
ag207
ag209
ag211
aa(lp1963
I198
aI200
ag213
ag214
ag216
ag218
ag220
aa(lp1964
I209
aI212
ag222
ag223
ag225
ag227
ag229
aa(lp1965
I214
aI225
ag231
ag232
ag234
ag236
ag238
aa(lp1966
I227
aI234
ag240
ag241
ag243
ag245
ag247
aa(lp1967
I245
aI248
ag249
ag250
ag252
ag254
ag256
aa(lp1968
I250
aI258
ag258
ag259
ag261
ag263
ag265
aa(lp1969
I267
aI273
ag267
ag268
ag270
ag272
ag274
aa(lp1970
I275
aI284
ag276
ag277
ag279
ag281
ag283
aa(lp1971
I289
aI292
ag285
ag286
ag288
ag290
ag292
aa(lp1972
I294
aI299
ag294
ag295
ag297
ag299
ag301
aa(lp1973
I313
aI320
ag303
ag304
ag306
ag308
ag310
aa(lp1974
I326
aI330
ag312
ag313
ag315
ag317
ag319
aa(lp1975
I338
aI346
ag321
ag322
ag324
ag326
ag328
aa(lp1976
I353
aI357
ag330
ag331
ag333
ag335
ag337
aa(lp1977
I359
aI364
ag339
ag340
ag342
ag344
ag346
aa(lp1978
I371
aI379
ag348
ag349
ag351
ag353
ag355
aa(lp1979
I386
aI393
ag357
ag358
ag360
ag362
ag364
aa(lp1980
I408
aI416
ag366
ag367
ag369
ag371
ag373
aa(lp1981
I422
aI425
ag375
ag376
ag378
ag380
ag382
aa(lp1982
I430
aI434
ag384
ag385
ag387
ag389
ag391
aa(lp1983
I443
aI451
ag393
ag394
ag396
ag398
ag400
aa(lp1984
I464
aI473
ag402
ag403
ag405
ag407
ag409
aa(lp1985
I481
aI498
ag411
ag412
ag414
ag416
ag418
aa(lp1986
I500
aI503
ag420
ag421
ag423
ag425
ag427
aa(lp1987
I505
aI509
ag429
ag430
ag432
ag434
ag436
aa(lp1988
I522
aI526
ag438
ag439
ag441
ag443
ag445
aa(lp1989
I532
aI536
ag447
ag448
ag450
ag452
ag454
aa(lp1990
I538
aI541
ag456
ag457
ag459
ag461
ag463
aa(lp1991
I543
aI548
ag465
ag466
ag468
ag470
ag472
aa(lp1992
I550
aI552
ag474
ag475
ag477
ag479
ag481
aa(lp1993
I558
aI562
ag483
ag484
ag486
ag488
ag490
aa(lp1994
I577
aI579
ag492
ag493
ag495
ag497
ag499
aa(lp1995
I586
aI591
ag501
ag502
ag504
ag506
ag508
aa(lp1996
I593
aI599
ag510
ag511
ag513
ag515
ag517
aa(lp1997
I605
aI613
ag519
ag520
ag522
ag524
ag526
aa(lp1998
I619
aI624
ag528
ag529
ag531
ag533
ag535
aa(lp1999
I629
aI631
ag537
ag538
ag540
ag542
ag544
aa(lp2000
I633
aI636
ag546
ag547
ag549
ag551
ag553
aa(lp2001
I642
aI646
ag555
ag556
ag558
ag560
ag562
aa(lp2002
I648
aI650
ag564
ag565
ag567
ag569
ag571
aa(lp2003
I663
aI669
ag573
ag574
ag576
ag578
ag580
aa(lp2004
I676
aI679
ag582
ag583
ag585
ag587
ag589
aa(lp2005
I681
aI687
ag591
ag592
ag594
ag596
ag598
aa(lp2006
I689
aI692
ag600
ag601
ag603
ag605
ag607
aa(lp2007
I694
aI701
ag609
ag610
ag612
ag614
ag616
aa(lp2008
I708
aI712
ag618
ag619
ag621
ag623
ag625
aa(lp2009
I723
aI727
ag627
ag628
ag630
ag632
ag634
aa(lp2010
I735
aI738
ag636
ag637
ag639
ag641
ag643
aa(lp2011
I744
aI749
ag645
ag646
ag648
ag650
ag652
aa(lp2012
I751
aI762
ag654
ag655
ag657
ag659
ag661
aa(lp2013
I764
aI775
ag663
ag664
ag666
ag668
ag670
aa(lp2014
I777
aI781
ag672
ag673
ag675
ag677
ag679
aa(lp2015
I799
aI805
ag681
ag682
ag684
ag686
ag688
aa(lp2016
I814
aI822
ag690
ag691
ag693
ag695
ag697
aa(lp2017
I824
aI830
ag699
ag700
ag702
ag704
ag706
aasS'characterMap'
p2018
(lp2019
g711
ag713
ag715
ag717
ag719
ag721
ag1764
ag725
ag727
ag728
ag729
ag731
a(lp2020
I12
aS':'
p2021
aag1766
a(lp2022
I14
aS'$'
p2023
aag734
ag736
a(lp2024
I17
aS'.'
p2025
aag738
ag740
ag1767
ag744
ag746
ag748
ag1768
ag752
ag754
ag755
ag757
a(lp2026
I29
ag2021
aag1769
a(lp2027
I31
ag2023
aag760
a(lp2028
I33
ag2025
aag762
ag764
ag1770
a(lp2029
I37
aS'('
p2030
aag768
ag770
a(lp2031
I40
aS'%'
p2032
aa(lp2033
I41
aS')'
p2034
aag1771
ag774
ag776
ag1772
ag779
ag780
ag781
ag782
ag783
ag784
ag1773
ag788
ag789
ag1774
ag793
ag795
ag796
ag1775
ag800
ag801
ag802
ag803
ag1776
ag807
ag808
ag809
ag1777
ag812
ag814
ag815
ag816
ag1778
ag820
ag821
ag1779
ag824
ag825
ag826
ag1780
ag830
ag831
ag1781
ag834
ag836
ag837
ag839
ag1782
ag842
ag843
ag1783
ag846
ag847
ag848
ag849
ag1784
ag853
ag854
ag855
ag1785
ag858
ag859
ag860
ag1786
ag865
ag866
ag1787
ag869
ag870
ag871
a(lp2035
I111
ag2025
aag872
ag873
ag874
ag875
ag1788
ag878
ag879
ag880
ag881
ag882
ag883
ag1789
ag887
ag888
ag1790
ag892
ag893
ag894
ag1791
ag897
ag898
ag899
ag900
ag901
ag902
ag903
ag1792
ag906
ag907
ag908
ag909
ag910
ag911
ag912
ag913
ag914
ag915
ag1793
ag919
ag920
ag921
ag1794
ag925
ag926
ag927
ag928
ag1795
ag931
ag932
ag933
ag934
ag935
ag936
ag937
ag1796
ag941
ag942
ag1797
ag945
ag947
ag948
ag949
ag950
ag951
ag1798
ag954
ag955
ag956
ag957
ag1799
ag960
ag961
ag962
ag963
ag964
ag965
a(lp2036
I188
ag2025
aag1800
ag969
ag970
ag971
ag972
ag1801
ag976
ag977
ag1802
ag980
ag981
ag982
ag1803
ag986
ag987
ag1804
ag991
ag992
ag993
ag1805
ag996
ag997
ag998
ag999
ag1806
ag1002
ag1003
ag1004
a(lp2037
I217
aS'-'
p2038
aag1005
ag1006
ag1007
ag1008
ag1009
ag1010
ag1011
ag1012
ag1807
ag1015
ag1016
ag1017
ag1018
ag1019
ag1020
ag1021
ag1022
ag1808
ag1026
ag1027
ag1028
ag1809
ag1032
ag1033
ag1034
ag1035
ag1810
ag1038
ag1039
ag1040
ag1041
ag1811
ag1044
ag1045
ag1046
ag1047
ag1048
ag1049
ag1050
ag1051
ag1052
ag1812
ag1056
ag1057
ag1813
ag1061
ag1062
ag1063
ag1814
ag1066
ag1067
ag1068
ag1069
ag1070
ag1071
ag1072
ag1815
ag1075
ag1076
ag1077
ag1078
ag1079
ag1080
ag1081
ag1082
ag1083
ag1084
ag1816
ag1088
ag1089
ag1817
ag1092
ag1093
ag1094
ag1095
ag1818
ag1098
ag1099
ag1100
ag1101
ag1102
ag1103
a(lp2039
I300
aS','
p2040
aag1819
ag1107
ag1108
ag1109
ag1820
ag1113
ag1114
ag1821
ag1118
ag1119
ag1120
ag1822
ag1123
ag1124
ag1125
ag1126
ag1127
ag1128
ag1129
ag1130
ag1823
ag1134
ag1135
ag1136
ag1824
ag1139
ag1140
ag1141
ag1142
ag1143
ag1825
ag1147
ag1148
ag1826
ag1152
ag1153
ag1827
ag1156
ag1157
ag1158
ag1159
ag1160
ag1161
ag1162
ag1163
ag1164
a(lp2041
I347
ag2025
aag1828
ag1168
ag1169
ag1170
ag1829
ag1173
ag1174
ag1175
ag1176
ag1177
ag1830
ag1180
ag1181
ag1182
ag1183
ag1184
ag1185
ag1831
ag1189
ag1190
ag1191
ag1192
ag1832
ag1195
ag1196
ag1197
ag1198
ag1199
ag1200
ag1201
ag1202
ag1203
ag1833
ag1207
ag1208
ag1209
a(lp2042
I384
ag2040
aag1834
ag1212
ag1213
ag1214
ag1215
ag1216
ag1217
ag1218
ag1219
ag1835
ag1223
ag1224
ag1225
ag1836
ag1229
ag1230
ag1231
ag1232
ag1837
ag1236
ag1237
ag1238
ag1838
ag1241
ag1242
ag1243
ag1244
ag1245
ag1246
ag1247
ag1248
ag1249
ag1839
ag1253
ag1254
ag1255
ag1840
ag1258
ag1259
ag1260
ag1261
ag1841
ag1265
ag1266
ag1842
ag1269
ag1271
ag1272
ag1273
ag1274
ag1843
ag1278
ag1279
ag1844
ag1283
ag1284
ag1285
ag1845
ag1288
ag1289
ag1290
ag1291
ag1292
ag1293
ag1294
ag1295
ag1296
ag1846
ag1300
ag1301
ag1302
ag1847
ag1306
ag1307
ag1848
ag1311
ag1312
ag1313
ag1849
ag1316
ag1317
ag1318
ag1319
ag1320
ag1321
ag1322
ag1323
ag1324
ag1325
a(lp2043
I474
ag2025
aag1850
ag1329
ag1330
ag1331
ag1332
ag1851
ag1335
ag1336
ag1337
ag1338
a(lp2044
I485
ag2038
aag1339
ag1340
a(lp2045
I488
ag2038
aag1341
ag1342
ag1343
ag1344
ag1345
ag1346
ag1347
ag1348
ag1349
ag1350
ag1852
ag1353
ag1354
ag1355
ag1356
ag1853
ag1359
ag1360
ag1361
ag1362
ag1363
ag1854
ag1367
ag1368
ag1369
ag1855
ag1373
ag1374
ag1375
ag1856
ag1379
ag1380
ag1857
ag1383
ag1384
ag1385
ag1386
ag1387
ag1858
ag1391
ag1392
ag1393
ag1859
ag1396
ag1397
ag1398
ag1399
ag1400
ag1860
ag1403
ag1404
ag1405
ag1406
ag1861
ag1409
ag1410
ag1411
ag1412
ag1413
ag1414
ag1862
ag1417
ag1418
ag1419
a(lp2046
I553
ag2025
aag1863
ag1423
ag1424
ag1864
ag1427
ag1428
ag1429
ag1430
ag1431
ag1865
ag1435
ag1436
ag1437
ag1866
ag1441
ag1442
ag1443
ag1867
ag1447
ag1448
ag1449
ag1450
ag1868
ag1453
ag1454
ag1455
a(lp2047
I580
ag2040
aag1869
ag1459
ag1460
ag1461
ag1870
ag1464
ag1465
ag1466
ag1467
ag1468
ag1469
ag1871
ag1472
ag1473
ag1474
ag1475
ag1476
ag1477
ag1478
ag1872
ag1482
ag1483
ag1484
ag1873
ag1487
ag1488
ag1490
ag1491
ag1492
ag1493
ag1494
ag1495
ag1496
ag1874
ag1500
ag1501
ag1502
ag1875
ag1505
ag1506
ag1507
ag1508
ag1509
ag1510
ag1876
ag1514
ag1515
ag1877
ag1518
ag1519
ag1520
ag1878
ag1523
ag1524
ag1525
ag1526
a(lp2048
I637
ag2025
aag1879
ag1530
ag1531
ag1880
ag1534
ag1535
ag1536
ag1537
ag1538
ag1881
ag1541
ag1542
ag1543
ag1882
ag1547
ag1548
ag1883
ag1552
ag1553
ag1554
ag1555
ag1884
ag1559
ag1560
ag1885
ag1563
ag1564
ag1565
ag1566
ag1567
ag1568
ag1569
ag1886
ag1573
ag1574
ag1575
ag1576
ag1887
ag1579
ag1580
ag1581
ag1582
ag1888
ag1585
ag1586
ag1587
ag1588
ag1589
ag1590
ag1591
ag1889
ag1594
ag1595
ag1596
ag1597
ag1890
ag1600
ag1601
ag1602
ag1603
ag1604
ag1605
ag1606
ag1607
ag1891
ag1611
ag1612
ag1613
ag1614
ag1892
ag1617
ag1618
ag1619
ag1620
ag1621
ag1893
ag1625
ag1626
ag1627
ag1894
ag1631
ag1632
ag1633
a(lp2049
I721
ag2040
aag1895
ag1636
ag1637
ag1638
ag1639
ag1640
ag1896
ag1644
ag1645
ag1646
ag1647
ag1648
ag1897
ag1651
ag1652
ag1653
ag1654
ag1898
ag1658
ag1659
a(lp2050
I742
ag2025
aag1899
ag1662
ag1663
ag1664
ag1665
ag1666
ag1667
ag1900
ag1670
ag1671
ag1672
ag1673
a(lp2051
I755
ag2038
aag1674
ag1675
a(lp2052
I758
ag2038
aag1676
ag1677
ag1678
ag1679
ag1901
ag1682
ag1683
ag1684
ag1685
ag1686
ag1687
ag1688
ag1689
ag1690
ag1691
ag1692
ag1693
ag1902
ag1696
ag1697
ag1698
ag1699
ag1700
ag1903
ag1704
ag1705
ag1706
ag1904
ag1710
ag1711
ag1712
ag1713
ag1714
ag1715
ag1716
ag1905
ag1720
ag1721
ag1722
ag1906
ag1725
ag1726
ag1727
a(lp2053
I802
ag2038
aag1728
ag1729
ag1730
ag1907
ag1734
ag1735
ag1908
ag1739
ag1740
ag1741
ag1909
ag1744
ag1745
ag1746
ag1747
ag1748
ag1749
ag1750
ag1751
ag1752
ag1910
ag1755
ag1756
ag1757
ag1758
ag1759
ag1760
ag1761
a(lp2054
I831
ag2021
aag1911
ag1912
ag1913
ag1914
ag1915
ag1916
ag1917
ag1918
ag1919
ag1920
ag1921
asS'docName'
p2055
S'source-document01988.txt'
p2056
sb.