(iModel.Document
Document
p0
(dp1
S'fmap'
p2
(lp3
(lp4
I0
aI5
aS'carpal'
p5
a(lp6
S'*'
p7
ag5
aaa(lp8
I0
aI5
ag5
a(lp9
g7
ag5
aaa(lp10
I0
aI5
ag5
a(lp11
g7
ag5
aaa(lp12
I0
aI5
ag5
a(lp13
g7
ag5
aaa(lp14
I7
aI12
aS'tunnel'
p15
a(lp16
g5
ag15
aaa(lp17
I7
aI12
ag15
a(lp18
g7
ag15
aaa(lp19
I7
aI12
ag15
a(lp20
g7
ag15
aaa(lp21
I7
aI12
ag15
a(lp22
g7
ag15
aaa(lp23
I30
aI34
aS'cause'
p24
a(lp25
g15
ag24
aaa(lp26
I30
aI34
ag24
a(lp27
g5
ag24
aaa(lp28
I30
aI34
ag24
a(lp29
g7
ag24
aaa(lp30
I30
aI34
ag24
a(lp31
g7
ag24
aaa(lp32
I39
aI45
aS'forearm'
p33
a(lp34
g24
ag33
aaa(lp35
I39
aI45
ag33
a(lp36
g15
ag33
aaa(lp37
I39
aI45
ag33
a(lp38
g5
ag33
aaa(lp39
I39
aI45
ag33
a(lp40
g7
ag33
aaa(lp41
I47
aI50
aS'pain'
p42
a(lp43
g33
ag42
aaa(lp44
I47
aI50
ag42
a(lp45
g24
ag42
aaa(lp46
I47
aI50
ag42
a(lp47
g15
ag42
aaa(lp48
I47
aI50
ag42
a(lp49
g5
ag42
aaa(lp50
I52
aI60
aS'wednesday'
p51
a(lp52
g42
ag51
aaa(lp53
I52
aI60
ag51
a(lp54
g33
ag51
aaa(lp55
I52
aI60
ag51
a(lp56
g24
ag51
aaa(lp57
I52
aI60
ag51
a(lp58
g15
ag51
aaa(lp59
I63
aI70
aS'november'
p60
a(lp61
g51
ag60
aaa(lp62
I63
aI70
ag60
a(lp63
g42
ag60
aaa(lp64
I63
aI70
ag60
a(lp65
g33
ag60
aaa(lp66
I63
aI70
ag60
a(lp67
g24
ag60
aaa(lp68
I72
aI73
aS'26'
p69
a(lp70
g60
ag69
aaa(lp71
I72
aI73
ag69
a(lp72
g51
ag69
aaa(lp73
I72
aI73
ag69
a(lp74
g42
ag69
aaa(lp75
I72
aI73
ag69
a(lp76
g33
ag69
aaa(lp77
I76
aI79
aS'2008'
p78
a(lp79
g69
ag78
aaa(lp80
I76
aI79
ag78
a(lp81
g60
ag78
aaa(lp82
I76
aI79
ag78
a(lp83
g51
ag78
aaa(lp84
I76
aI79
ag78
a(lp85
g42
ag78
aaa(lp86
I81
aI87
aS'dealing'
p87
a(lp88
g78
ag87
aaa(lp89
I81
aI87
ag87
a(lp90
g69
ag87
aaa(lp91
I81
aI87
ag87
a(lp92
g60
ag87
aaa(lp93
I81
aI87
ag87
a(lp94
g51
ag87
aaa(lp95
I94
aI100
aS'forearm'
p96
a(lp97
g87
ag96
aaa(lp98
I94
aI100
ag96
a(lp99
g78
ag96
aaa(lp100
I94
aI100
ag96
a(lp101
g69
ag96
aaa(lp102
I94
aI100
ag96
a(lp103
g60
ag96
aaa(lp104
I102
aI105
aS'pain'
p105
a(lp106
g96
ag105
aaa(lp107
I102
aI105
ag105
a(lp108
g87
ag105
aaa(lp109
I102
aI105
ag105
a(lp110
g78
ag105
aaa(lp111
I102
aI105
ag105
a(lp112
g69
ag105
aaa(lp113
I118
aI121
aS'pain'
p114
a(lp115
g105
ag114
aaa(lp116
I118
aI121
ag114
a(lp117
g96
ag114
aaa(lp118
I118
aI121
ag114
a(lp119
g87
ag114
aaa(lp120
I118
aI121
ag114
a(lp121
g78
ag114
aaa(lp122
I128
aI133
aS'occurs'
p123
a(lp124
g114
ag123
aaa(lp125
I128
aI133
ag123
a(lp126
g105
ag123
aaa(lp127
I128
aI133
ag123
a(lp128
g96
ag123
aaa(lp129
I128
aI133
ag123
a(lp130
g87
ag123
aaa(lp131
I142
aI148
aS'forearm'
p132
a(lp133
g123
ag132
aaa(lp134
I142
aI148
ag132
a(lp135
g114
ag132
aaa(lp136
I142
aI148
ag132
a(lp137
g105
ag132
aaa(lp138
I142
aI148
ag132
a(lp139
g96
ag132
aaa(lp140
I150
aI153
aS'area'
p141
a(lp142
g132
ag141
aaa(lp143
I150
aI153
ag141
a(lp144
g123
ag141
aaa(lp145
I150
aI153
ag141
a(lp146
g114
ag141
aaa(lp147
I150
aI153
ag141
a(lp148
g105
ag141
aaa(lp149
I169
aI174
aS'caused'
p150
a(lp151
g141
ag150
aaa(lp152
I169
aI174
ag150
a(lp153
g132
ag150
aaa(lp154
I169
aI174
ag150
a(lp155
g123
ag150
aaa(lp156
I169
aI174
ag150
a(lp157
g114
ag150
aaa(lp158
I181
aI187
aS'variety'
p159
a(lp160
g150
ag159
aaa(lp161
I181
aI187
ag159
a(lp162
g141
ag159
aaa(lp163
I181
aI187
ag159
a(lp164
g132
ag159
aaa(lp165
I181
aI187
ag159
a(lp166
g123
ag159
aaa(lp167
I192
aI200
aS'different'
p168
a(lp169
g159
ag168
aaa(lp170
I192
aI200
ag168
a(lp171
g150
ag168
aaa(lp172
I192
aI200
ag168
a(lp173
g141
ag168
aaa(lp174
I192
aI200
ag168
a(lp175
g132
ag168
aaa(lp176
I202
aI209
aS'problems'
p177
a(lp178
g168
ag177
aaa(lp179
I202
aI209
ag177
a(lp180
g159
ag177
aaa(lp181
I202
aI209
ag177
a(lp182
g150
ag177
aaa(lp183
I202
aI209
ag177
a(lp184
g141
ag177
aaa(lp185
I212
aI215
aS'many'
p186
a(lp187
g177
ag186
aaa(lp188
I212
aI215
ag186
a(lp189
g168
ag186
aaa(lp190
I212
aI215
ag186
a(lp191
g159
ag186
aaa(lp192
I212
aI215
ag186
a(lp193
g150
ag186
aaa(lp194
I217
aI221
aS'times'
p195
a(lp196
g186
ag195
aaa(lp197
I217
aI221
ag195
a(lp198
g177
ag195
aaa(lp199
I217
aI221
ag195
a(lp200
g168
ag195
aaa(lp201
I217
aI221
ag195
a(lp202
g159
ag195
aaa(lp203
I229
aI234
aS'caused'
p204
a(lp205
g195
ag204
aaa(lp206
I229
aI234
ag204
a(lp207
g186
ag204
aaa(lp208
I229
aI234
ag204
a(lp209
g177
ag204
aaa(lp210
I229
aI234
ag204
a(lp211
g168
ag204
aaa(lp212
I239
aI244
aS'carpal'
p213
a(lp214
g204
ag213
aaa(lp215
I239
aI244
ag213
a(lp216
g195
ag213
aaa(lp217
I239
aI244
ag213
a(lp218
g186
ag213
aaa(lp219
I239
aI244
ag213
a(lp220
g177
ag213
aaa(lp221
I246
aI251
aS'tunnel'
p222
a(lp223
g213
ag222
aaa(lp224
I246
aI251
ag222
a(lp225
g204
ag222
aaa(lp226
I246
aI251
ag222
a(lp227
g195
ag222
aaa(lp228
I246
aI251
ag222
a(lp229
g186
ag222
aaa(lp230
I253
aI260
aS'syndrome'
p231
a(lp232
g222
ag231
aaa(lp233
I253
aI260
ag231
a(lp234
g213
ag231
aaa(lp235
I253
aI260
ag231
a(lp236
g204
ag231
aaa(lp237
I253
aI260
ag231
a(lp238
g195
ag231
aaa(lp239
I263
aI269
aS'however'
p240
a(lp241
g231
ag240
aaa(lp242
I263
aI269
ag240
a(lp243
g222
ag240
aaa(lp244
I263
aI269
ag240
a(lp245
g213
ag240
aaa(lp246
I263
aI269
ag240
a(lp247
g204
ag240
aaa(lp248
I283
aI289
aS'dealing'
p249
a(lp250
g240
ag249
aaa(lp251
I283
aI289
ag249
a(lp252
g231
ag249
aaa(lp253
I283
aI289
ag249
a(lp254
g222
ag249
aaa(lp255
I283
aI289
ag249
a(lp256
g213
ag249
aaa(lp257
I296
aI299
aS'pain'
p258
a(lp259
g249
ag258
aaa(lp260
I296
aI299
ag258
a(lp261
g240
ag258
aaa(lp262
I296
aI299
ag258
a(lp263
g231
ag258
aaa(lp264
I296
aI299
ag258
a(lp265
g222
ag258
aaa(lp266
I309
aI315
aS'forearm'
p267
a(lp268
g258
ag267
aaa(lp269
I309
aI315
ag267
a(lp270
g249
ag267
aaa(lp271
I309
aI315
ag267
a(lp272
g240
ag267
aaa(lp273
I309
aI315
ag267
a(lp274
g231
ag267
aaa(lp275
I322
aI325
aS'need'
p276
a(lp277
g267
ag276
aaa(lp278
I322
aI325
ag276
a(lp279
g258
ag276
aaa(lp280
I322
aI325
ag276
a(lp281
g249
ag276
aaa(lp282
I322
aI325
ag276
a(lp283
g240
ag276
aaa(lp284
I330
aI339
aS'understand'
p285
a(lp286
g276
ag285
aaa(lp287
I330
aI339
ag285
a(lp288
g267
ag285
aaa(lp289
I330
aI339
ag285
a(lp290
g258
ag285
aaa(lp291
I330
aI339
ag285
a(lp292
g249
ag285
aaa(lp293
I346
aI351
aS'carpal'
p294
a(lp295
g285
ag294
aaa(lp296
I346
aI351
ag294
a(lp297
g276
ag294
aaa(lp298
I346
aI351
ag294
a(lp299
g267
ag294
aaa(lp300
I346
aI351
ag294
a(lp301
g258
ag294
aaa(lp302
I353
aI358
aS'tunnel'
p303
a(lp304
g294
ag303
aaa(lp305
I353
aI358
ag303
a(lp306
g285
ag303
aaa(lp307
I353
aI358
ag303
a(lp308
g276
ag303
aaa(lp309
I353
aI358
ag303
a(lp310
g267
ag303
aaa(lp311
I360
aI367
aS'syndrome'
p312
a(lp313
g303
ag312
aaa(lp314
I360
aI367
ag312
a(lp315
g294
ag312
aaa(lp316
I360
aI367
ag312
a(lp317
g285
ag312
aaa(lp318
I360
aI367
ag312
a(lp319
g276
ag312
aaa(lp320
I376
aI381
aS'always'
p321
a(lp322
g312
ag321
aaa(lp323
I376
aI381
ag321
a(lp324
g303
ag321
aaa(lp325
I376
aI381
ag321
a(lp326
g294
ag321
aaa(lp327
I376
aI381
ag321
a(lp328
g285
ag321
aaa(lp329
I387
aI393
aS'problem'
p330
a(lp331
g321
ag330
aaa(lp332
I387
aI393
ag330
a(lp333
g312
ag330
aaa(lp334
I387
aI393
ag330
a(lp335
g303
ag330
aaa(lp336
I387
aI393
ag330
a(lp337
g294
ag330
aaa(lp338
I406
aI409
aS'many'
p339
a(lp340
g330
ag339
aaa(lp341
I406
aI409
ag339
a(lp342
g321
ag339
aaa(lp343
I406
aI409
ag339
a(lp344
g312
ag339
aaa(lp345
I406
aI409
ag339
a(lp346
g303
ag339
aaa(lp347
I417
aI422
aS'causes'
p348
a(lp349
g339
ag348
aaa(lp350
I417
aI422
ag348
a(lp351
g330
ag348
aaa(lp352
I417
aI422
ag348
a(lp353
g321
ag348
aaa(lp354
I417
aI422
ag348
a(lp355
g312
ag348
aaa(lp356
I427
aI433
aS'forearm'
p357
a(lp358
g348
ag357
aaa(lp359
I427
aI433
ag357
a(lp360
g339
ag357
aaa(lp361
I427
aI433
ag357
a(lp362
g330
ag357
aaa(lp363
I427
aI433
ag357
a(lp364
g321
ag357
aaa(lp365
I435
aI438
aS'pain'
p366
a(lp367
g357
ag366
aaa(lp368
I435
aI438
ag366
a(lp369
g348
ag366
aaa(lp370
I435
aI438
ag366
a(lp371
g339
ag366
aaa(lp372
I435
aI438
ag366
a(lp373
g330
ag366
aaa(lp374
I459
aI463
aS'aware'
p375
a(lp376
g366
ag375
aaa(lp377
I459
aI463
ag375
a(lp378
g357
ag375
aaa(lp379
I459
aI463
ag375
a(lp380
g348
ag375
aaa(lp381
I459
aI463
ag375
a(lp382
g339
ag375
aaa(lp383
I479
aI482
aS'look'
p384
a(lp385
g375
ag384
aaa(lp386
I479
aI482
ag384
a(lp387
g366
ag384
aaa(lp388
I479
aI482
ag384
a(lp389
g357
ag384
aaa(lp390
I479
aI482
ag384
a(lp391
g348
ag384
aaa(lp392
I499
aI506
aS'problems'
p393
a(lp394
g384
ag393
aaa(lp395
I499
aI506
ag393
a(lp396
g375
ag393
aaa(lp397
I499
aI506
ag393
a(lp398
g366
ag393
aaa(lp399
I499
aI506
ag393
a(lp400
g357
ag393
aaa(lp401
I520
aI525
aS'carpal'
p402
a(lp403
g393
ag402
aaa(lp404
I520
aI525
ag402
a(lp405
g384
ag402
aaa(lp406
I520
aI525
ag402
a(lp407
g375
ag402
aaa(lp408
I520
aI525
ag402
a(lp409
g366
ag402
aaa(lp410
I527
aI532
aS'tunnel'
p411
a(lp412
g402
ag411
aaa(lp413
I527
aI532
ag411
a(lp414
g393
ag411
aaa(lp415
I527
aI532
ag411
a(lp416
g384
ag411
aaa(lp417
I527
aI532
ag411
a(lp418
g375
ag411
aaa(lp419
I534
aI541
aS'syndrome'
p420
a(lp421
g411
ag420
aaa(lp422
I534
aI541
ag420
a(lp423
g402
ag420
aaa(lp424
I534
aI541
ag420
a(lp425
g393
ag420
aaa(lp426
I534
aI541
ag420
a(lp427
g384
ag420
aaa(lp428
I556
aI562
aS'causing'
p429
a(lp430
g420
ag429
aaa(lp431
I556
aI562
ag429
a(lp432
g411
ag429
aaa(lp433
I556
aI562
ag429
a(lp434
g402
ag429
aaa(lp435
I556
aI562
ag429
a(lp436
g393
ag429
aaa(lp437
I568
aI571
aS'pain'
p438
a(lp439
g429
ag438
aaa(lp440
I568
aI571
ag438
a(lp441
g420
ag438
aaa(lp442
I568
aI571
ag438
a(lp443
g411
ag438
aaa(lp444
I568
aI571
ag438
a(lp445
g402
ag438
aaa(lp446
I590
aI596
aS'forearm'
p447
a(lp448
g438
ag447
aaa(lp449
I590
aI596
ag447
a(lp450
g429
ag447
aaa(lp451
I590
aI596
ag447
a(lp452
g420
ag447
aaa(lp453
I590
aI596
ag447
a(lp454
g411
ag447
aaa(lp455
I599
aI604
aS'injury'
p456
a(lp457
g447
ag456
aaa(lp458
I599
aI604
ag456
a(lp459
g438
ag456
aaa(lp460
I599
aI604
ag456
a(lp461
g429
ag456
aaa(lp462
I599
aI604
ag456
a(lp463
g420
ag456
aaa(lp464
I613
aI619
aS'forearm'
p465
a(lp466
g456
ag465
aaa(lp467
I613
aI619
ag465
a(lp468
g447
ag465
aaa(lp469
I613
aI619
ag465
a(lp470
g438
ag465
aaa(lp471
I613
aI619
ag465
a(lp472
g429
ag465
aaa(lp473
I621
aI623
aS'one'
p474
a(lp475
g465
ag474
aaa(lp476
I621
aI623
ag474
a(lp477
g456
ag474
aaa(lp478
I621
aI623
ag474
a(lp479
g447
ag474
aaa(lp480
I621
aI623
ag474
a(lp481
g438
ag474
aaa(lp482
I625
aI629
aS'cause'
p483
a(lp484
g474
ag483
aaa(lp485
I625
aI629
ag483
a(lp486
g465
ag483
aaa(lp487
I625
aI629
ag483
a(lp488
g456
ag483
aaa(lp489
I625
aI629
ag483
a(lp490
g447
ag483
aaa(lp491
I634
aI637
aS'pain'
p492
a(lp493
g483
ag492
aaa(lp494
I634
aI637
ag492
a(lp495
g474
ag492
aaa(lp496
I634
aI637
ag492
a(lp497
g465
ag492
aaa(lp498
I634
aI637
ag492
a(lp499
g456
ag492
aaa(lp500
I646
aI652
aS'forearm'
p501
a(lp502
g492
ag501
aaa(lp503
I646
aI652
ag501
a(lp504
g483
ag501
aaa(lp505
I646
aI652
ag501
a(lp506
g474
ag501
aaa(lp507
I646
aI652
ag501
a(lp508
g465
ag501
aaa(lp509
I654
aI657
aS'area'
p510
a(lp511
g501
ag510
aaa(lp512
I654
aI657
ag510
a(lp513
g492
ag510
aaa(lp514
I654
aI657
ag510
a(lp515
g483
ag510
aaa(lp516
I654
aI657
ag510
a(lp517
g474
ag510
aaa(lp518
I669
aI674
aS'injury'
p519
a(lp520
g510
ag519
aaa(lp521
I669
aI674
ag519
a(lp522
g501
ag519
aaa(lp523
I669
aI674
ag519
a(lp524
g492
ag519
aaa(lp525
I669
aI674
ag519
a(lp526
g483
ag519
aaa(lp527
I683
aI689
aS'forearm'
p528
a(lp529
g519
ag528
aaa(lp530
I683
aI689
ag528
a(lp531
g510
ag528
aaa(lp532
I683
aI689
ag528
a(lp533
g501
ag528
aaa(lp534
I683
aI689
ag528
a(lp535
g492
ag528
aaa(lp536
I703
aI708
aS'decide'
p537
a(lp538
g528
ag537
aaa(lp539
I703
aI708
ag537
a(lp540
g519
ag537
aaa(lp541
I703
aI708
ag537
a(lp542
g510
ag537
aaa(lp543
I703
aI708
ag537
a(lp544
g501
ag537
aaa(lp545
I723
aI729
aS'dealing'
p546
a(lp547
g537
ag546
aaa(lp548
I723
aI729
ag546
a(lp549
g528
ag546
aaa(lp550
I723
aI729
ag546
a(lp551
g519
ag546
aaa(lp552
I723
aI729
ag546
a(lp553
g510
ag546
aaa(lp554
I741
aI746
aS'carpal'
p555
a(lp556
g546
ag555
aaa(lp557
I741
aI746
ag555
a(lp558
g537
ag555
aaa(lp559
I741
aI746
ag555
a(lp560
g528
ag555
aaa(lp561
I741
aI746
ag555
a(lp562
g519
ag555
aaa(lp563
I748
aI753
aS'tunnel'
p564
a(lp565
g555
ag564
aaa(lp566
I748
aI753
ag564
a(lp567
g546
ag564
aaa(lp568
I748
aI753
ag564
a(lp569
g537
ag564
aaa(lp570
I748
aI753
ag564
a(lp571
g528
ag564
aaa(lp572
I755
aI758
aS'pain'
p573
a(lp574
g564
ag573
aaa(lp575
I755
aI758
ag573
a(lp576
g555
ag573
aaa(lp577
I755
aI758
ag573
a(lp578
g546
ag573
aaa(lp579
I755
aI758
ag573
a(lp580
g537
ag573
aaa(lp581
I770
aI773
aS'want'
p582
a(lp583
g573
ag582
aaa(lp584
I770
aI773
ag582
a(lp585
g564
ag582
aaa(lp586
I770
aI773
ag582
a(lp587
g555
ag582
aaa(lp588
I770
aI773
ag582
a(lp589
g546
ag582
aaa(lp590
I778
aI781
aS'take'
p591
a(lp592
g582
ag591
aaa(lp593
I778
aI781
ag591
a(lp594
g573
ag591
aaa(lp595
I778
aI781
ag591
a(lp596
g564
ag591
aaa(lp597
I778
aI781
ag591
a(lp598
g555
ag591
aaa(lp599
I789
aI795
aS'minutes'
p600
a(lp601
g591
ag600
aaa(lp602
I789
aI795
ag600
a(lp603
g582
ag600
aaa(lp604
I789
aI795
ag600
a(lp605
g573
ag600
aaa(lp606
I789
aI795
ag600
a(lp607
g564
ag600
aaa(lp608
I800
aI804
aS'think'
p609
a(lp610
g600
ag609
aaa(lp611
I800
aI804
ag609
a(lp612
g591
ag609
aaa(lp613
I800
aI804
ag609
a(lp614
g582
ag609
aaa(lp615
I800
aI804
ag609
a(lp616
g573
ag609
aaa(lp617
I816
aI822
aS'injured'
p618
a(lp619
g609
ag618
aaa(lp620
I816
aI822
ag618
a(lp621
g600
ag618
aaa(lp622
I816
aI822
ag618
a(lp623
g591
ag618
aaa(lp624
I816
aI822
ag618
a(lp625
g582
ag618
aaa(lp626
I828
aI834
aS'forearm'
p627
a(lp628
g618
ag627
aaa(lp629
I828
aI834
ag627
a(lp630
g609
ag627
aaa(lp631
I828
aI834
ag627
a(lp632
g600
ag627
aaa(lp633
I828
aI834
ag627
a(lp634
g591
ag627
aaa(lp635
I843
aI845
aS'way'
p636
a(lp637
g627
ag636
aaa(lp638
I843
aI845
ag636
a(lp639
g618
ag636
aaa(lp640
I843
aI845
ag636
a(lp641
g609
ag636
aaa(lp642
I843
aI845
ag636
a(lp643
g600
ag636
aaa(lp644
I856
aI859
aS'take'
p645
a(lp646
g636
ag645
aaa(lp647
I856
aI859
ag645
a(lp648
g627
ag645
aaa(lp649
I856
aI859
ag645
a(lp650
g618
ag645
aaa(lp651
I856
aI859
ag645
a(lp652
g609
ag645
aaa(lp653
I863
aI866
aS'fall'
p654
a(lp655
g645
ag654
aaa(lp656
I863
aI866
ag654
a(lp657
g636
ag654
aaa(lp658
I863
aI866
ag654
a(lp659
g627
ag654
aaa(lp660
I863
aI866
ag654
a(lp661
g618
ag654
aaa(lp662
I871
aI877
aS'perhaps'
p663
a(lp664
g654
ag663
aaa(lp665
I871
aI877
ag663
a(lp666
g645
ag663
aaa(lp667
I871
aI877
ag663
a(lp668
g636
ag663
aaa(lp669
I871
aI877
ag663
a(lp670
g627
ag663
aaa(lp671
I887
aI898
aS'accidentally'
p672
a(lp673
g663
ag672
aaa(lp674
I887
aI898
ag672
a(lp675
g654
ag672
aaa(lp676
I887
aI898
ag672
a(lp677
g645
ag672
aaa(lp678
I887
aI898
ag672
a(lp679
g636
ag672
aaa(lp680
I900
aI902
aS'hit'
p681
a(lp682
g672
ag681
aaa(lp683
I900
aI902
ag681
a(lp684
g663
ag681
aaa(lp685
I900
aI902
ag681
a(lp686
g654
ag681
aaa(lp687
I900
aI902
ag681
a(lp688
g645
ag681
aaa(lp689
I908
aI914
aS'forearm'
p690
a(lp691
g681
ag690
aaa(lp692
I908
aI914
ag690
a(lp693
g672
ag690
aaa(lp694
I908
aI914
ag690
a(lp695
g663
ag690
aaa(lp696
I908
aI914
ag690
a(lp697
g654
ag690
aaa(lp698
I919
aI927
aS'something'
p699
a(lp700
g690
ag699
aaa(lp701
I919
aI927
ag699
a(lp702
g681
ag699
aaa(lp703
I919
aI927
ag699
a(lp704
g672
ag699
aaa(lp705
I919
aI927
ag699
a(lp706
g663
ag699
aaa(lp707
I930
aI936
aS'perhaps'
p708
a(lp709
g699
ag708
aaa(lp710
I930
aI936
ag708
a(lp711
g690
ag708
aaa(lp712
I930
aI936
ag708
a(lp713
g681
ag708
aaa(lp714
I930
aI936
ag708
a(lp715
g672
ag708
aaa(lp716
I942
aI945
aS'even'
p717
a(lp718
g708
ag717
aaa(lp719
I942
aI945
ag717
a(lp720
g699
ag717
aaa(lp721
I942
aI945
ag717
a(lp722
g690
ag717
aaa(lp723
I942
aI945
ag717
a(lp724
g681
ag717
aaa(lp725
I947
aI952
aS'pulled'
p726
a(lp727
g717
ag726
aaa(lp728
I947
aI952
ag726
a(lp729
g708
ag726
aaa(lp730
I947
aI952
ag726
a(lp731
g699
ag726
aaa(lp732
I947
aI952
ag726
a(lp733
g690
ag726
aaa(lp734
I956
aI961
aS'muscle'
p735
a(lp736
g726
ag735
aaa(lp737
I956
aI961
ag735
a(lp738
g717
ag735
aaa(lp739
I956
aI961
ag735
a(lp740
g708
ag735
aaa(lp741
I956
aI961
ag735
a(lp742
g699
ag735
aaa(lp743
I966
aI971
aS'tendon'
p744
a(lp745
g735
ag744
aaa(lp746
I966
aI971
ag744
a(lp747
g726
ag744
aaa(lp748
I966
aI971
ag744
a(lp749
g717
ag744
aaa(lp750
I966
aI971
ag744
a(lp751
g708
ag744
aaa(lp752
I984
aI989
aS'common'
p753
a(lp754
g744
ag753
aaa(lp755
I984
aI989
ag753
a(lp756
g735
ag753
aaa(lp757
I984
aI989
ag753
a(lp758
g726
ag753
aaa(lp759
I984
aI989
ag753
a(lp760
g717
ag753
aaa(lp761
I991
aI998
aS'problems'
p762
a(lp763
g753
ag762
aaa(lp764
I991
aI998
ag762
a(lp765
g744
ag762
aaa(lp766
I991
aI998
ag762
a(lp767
g735
ag762
aaa(lp768
I991
aI998
ag762
a(lp769
g726
ag762
aaa(lp770
I1009
aI1013
aS'occur'
p771
a(lp772
g762
ag771
aaa(lp773
I1009
aI1013
ag771
a(lp774
g753
ag771
aaa(lp775
I1009
aI1013
ag771
a(lp776
g744
ag771
aaa(lp777
I1009
aI1013
ag771
a(lp778
g735
ag771
aaa(lp779
I1020
aI1024
aS'cause'
p780
a(lp781
g771
ag780
aaa(lp782
I1020
aI1024
ag780
a(lp783
g762
ag780
aaa(lp784
I1020
aI1024
ag780
a(lp785
g753
ag780
aaa(lp786
I1020
aI1024
ag780
a(lp787
g744
ag780
aaa(lp788
I1031
aI1034
aS'type'
p789
a(lp790
g780
ag789
aaa(lp791
I1031
aI1034
ag789
a(lp792
g771
ag789
aaa(lp793
I1031
aI1034
ag789
a(lp794
g762
ag789
aaa(lp795
I1031
aI1034
ag789
a(lp796
g753
ag789
aaa(lp797
I1039
aI1042
aS'pain'
p798
a(lp799
g789
ag798
aaa(lp800
I1039
aI1042
ag798
a(lp801
g780
ag798
aaa(lp802
I1039
aI1042
ag798
a(lp803
g771
ag798
aaa(lp804
I1039
aI1042
ag798
a(lp805
g762
ag798
aaa(lp806
I1045
aI1054
aS'peripheral'
p807
a(lp808
g798
ag807
aaa(lp809
I1045
aI1054
ag807
a(lp810
g789
ag807
aaa(lp811
I1045
aI1054
ag807
a(lp812
g780
ag807
aaa(lp813
I1045
aI1054
ag807
a(lp814
g771
ag807
aaa(lp815
I1056
aI1065
aS'neuropathy'
p816
a(lp817
g807
ag816
aaa(lp818
I1056
aI1065
ag816
a(lp819
g798
ag816
aaa(lp820
I1056
aI1065
ag816
a(lp821
g789
ag816
aaa(lp822
I1056
aI1065
ag816
a(lp823
g780
ag816
aaa(lp824
I1067
aI1073
aS'another'
p825
a(lp826
g816
ag825
aaa(lp827
I1067
aI1073
ag825
a(lp828
g807
ag825
aaa(lp829
I1067
aI1073
ag825
a(lp830
g798
ag825
aaa(lp831
I1067
aI1073
ag825
a(lp832
g789
ag825
aaa(lp833
I1075
aI1080
aS'common'
p834
a(lp835
g825
ag834
aaa(lp836
I1075
aI1080
ag834
a(lp837
g816
ag834
aaa(lp838
I1075
aI1080
ag834
a(lp839
g807
ag834
aaa(lp840
I1075
aI1080
ag834
a(lp841
g798
ag834
aaa(lp842
I1082
aI1088
aS'problem'
p843
a(lp844
g834
ag843
aaa(lp845
I1082
aI1088
ag843
a(lp846
g825
ag843
aaa(lp847
I1082
aI1088
ag843
a(lp848
g816
ag843
aaa(lp849
I1082
aI1088
ag843
a(lp850
g807
ag843
aaa(lp851
I1106
aI1110
aS'cause'
p852
a(lp853
g843
ag852
aaa(lp854
I1106
aI1110
ag852
a(lp855
g834
ag852
aaa(lp856
I1106
aI1110
ag852
a(lp857
g825
ag852
aaa(lp858
I1106
aI1110
ag852
a(lp859
g816
ag852
aaa(lp860
I1115
aI1118
aS'pain'
p861
a(lp862
g852
ag861
aaa(lp863
I1115
aI1118
ag861
a(lp864
g843
ag861
aaa(lp865
I1115
aI1118
ag861
a(lp866
g834
ag861
aaa(lp867
I1115
aI1118
ag861
a(lp868
g825
ag861
aaa(lp869
I1127
aI1133
aS'forearm'
p870
a(lp871
g861
ag870
aaa(lp872
I1127
aI1133
ag870
a(lp873
g852
ag870
aaa(lp874
I1127
aI1133
ag870
a(lp875
g843
ag870
aaa(lp876
I1127
aI1133
ag870
a(lp877
g834
ag870
aaa(lp878
I1138
aI1147
aS'peripheral'
p879
a(lp880
g870
ag879
aaa(lp881
I1138
aI1147
ag879
a(lp882
g861
ag879
aaa(lp883
I1138
aI1147
ag879
a(lp884
g852
ag879
aaa(lp885
I1138
aI1147
ag879
a(lp886
g843
ag879
aaa(lp887
I1149
aI1158
aS'neuropathy'
p888
a(lp889
g879
ag888
aaa(lp890
I1149
aI1158
ag888
a(lp891
g870
ag888
aaa(lp892
I1149
aI1158
ag888
a(lp893
g861
ag888
aaa(lp894
I1149
aI1158
ag888
a(lp895
g852
ag888
aaa(lp896
I1171
aI1177
aS'problem'
p897
a(lp898
g888
ag897
aaa(lp899
I1171
aI1177
ag897
a(lp900
g879
ag897
aaa(lp901
I1171
aI1177
ag897
a(lp902
g870
ag897
aaa(lp903
I1171
aI1177
ag897
a(lp904
g861
ag897
aaa(lp905
I1184
aI1189
aS'occurs'
p906
a(lp907
g897
ag906
aaa(lp908
I1184
aI1189
ag906
a(lp909
g888
ag906
aaa(lp910
I1184
aI1189
ag906
a(lp911
g879
ag906
aaa(lp912
I1184
aI1189
ag906
a(lp913
g870
ag906
aaa(lp914
I1205
aI1210
aS'damage'
p915
a(lp916
g906
ag915
aaa(lp917
I1205
aI1210
ag915
a(lp918
g897
ag915
aaa(lp919
I1205
aI1210
ag915
a(lp920
g888
ag915
aaa(lp921
I1205
aI1210
ag915
a(lp922
g879
ag915
aaa(lp923
I1215
aI1220
aS'nerves'
p924
a(lp925
g915
ag924
aaa(lp926
I1215
aI1220
ag924
a(lp927
g906
ag924
aaa(lp928
I1215
aI1220
ag924
a(lp929
g897
ag924
aaa(lp930
I1215
aI1220
ag924
a(lp931
g888
ag924
aaa(lp932
I1231
aI1240
aS'peripheral'
p933
a(lp934
g924
ag933
aaa(lp935
I1231
aI1240
ag933
a(lp936
g915
ag933
aaa(lp937
I1231
aI1240
ag933
a(lp938
g906
ag933
aaa(lp939
I1231
aI1240
ag933
a(lp940
g897
ag933
aaa(lp941
I1243
aI1247
aS'often'
p942
a(lp943
g933
ag942
aaa(lp944
I1243
aI1247
ag942
a(lp945
g924
ag942
aaa(lp946
I1243
aI1247
ag942
a(lp947
g915
ag942
aaa(lp948
I1243
aI1247
ag942
a(lp949
g906
ag942
aaa(lp950
I1254
aI1260
aS'problem'
p951
a(lp952
g942
ag951
aaa(lp953
I1254
aI1260
ag951
a(lp954
g933
ag951
aaa(lp955
I1254
aI1260
ag951
a(lp956
g924
ag951
aaa(lp957
I1254
aI1260
ag951
a(lp958
g915
ag951
aaa(lp959
I1265
aI1270
aS'caused'
p960
a(lp961
g951
ag960
aaa(lp962
I1265
aI1270
ag960
a(lp963
g942
ag960
aaa(lp964
I1265
aI1270
ag960
a(lp965
g933
ag960
aaa(lp966
I1265
aI1270
ag960
a(lp967
g924
ag960
aaa(lp968
I1275
aI1282
aS'diabetes'
p969
a(lp970
g960
ag969
aaa(lp971
I1275
aI1282
ag969
a(lp972
g951
ag969
aaa(lp973
I1275
aI1282
ag969
a(lp974
g942
ag969
aaa(lp975
I1275
aI1282
ag969
a(lp976
g933
ag969
aaa(lp977
I1292
aI1296
aS'occur'
p978
a(lp979
g969
ag978
aaa(lp980
I1292
aI1296
ag978
a(lp981
g960
ag978
aaa(lp982
I1292
aI1296
ag978
a(lp983
g951
ag978
aaa(lp984
I1292
aI1296
ag978
a(lp985
g942
ag978
aaa(lp986
I1305
aI1308
aS'feet'
p987
a(lp988
g978
ag987
aaa(lp989
I1305
aI1308
ag987
a(lp990
g969
ag987
aaa(lp991
I1305
aI1308
ag987
a(lp992
g960
ag987
aaa(lp993
I1305
aI1308
ag987
a(lp994
g951
ag987
aaa(lp995
I1311
aI1315
aS'hands'
p996
a(lp997
g987
ag996
aaa(lp998
I1311
aI1315
ag996
a(lp999
g978
ag996
aaa(lp1000
I1311
aI1315
ag996
a(lp1001
g969
ag996
aaa(lp1002
I1311
aI1315
ag996
a(lp1003
g960
ag996
aaa(lp1004
I1322
aI1325
aS'arms'
p1005
a(lp1006
g996
ag1005
aaa(lp1007
I1322
aI1325
ag1005
a(lp1008
g987
ag1005
aaa(lp1009
I1322
aI1325
ag1005
a(lp1010
g978
ag1005
aaa(lp1011
I1322
aI1325
ag1005
a(lp1012
g969
ag1005
aaa(lp1013
I1335
aI1339
aS'could'
p1014
a(lp1015
g1005
ag1014
aaa(lp1016
I1335
aI1339
ag1014
a(lp1017
g996
ag1014
aaa(lp1018
I1335
aI1339
ag1014
a(lp1019
g987
ag1014
aaa(lp1020
I1335
aI1339
ag1014
a(lp1021
g978
ag1014
aaa(lp1022
I1346
aI1352
aS'problem'
p1023
a(lp1024
g1014
ag1023
aaa(lp1025
I1346
aI1352
ag1023
a(lp1026
g1005
ag1023
aaa(lp1027
I1346
aI1352
ag1023
a(lp1028
g996
ag1023
aaa(lp1029
I1346
aI1352
ag1023
a(lp1030
g987
ag1023
aaa(lp1031
I1362
aI1368
aS'causing'
p1032
a(lp1033
g1023
ag1032
aaa(lp1034
I1362
aI1368
ag1032
a(lp1035
g1014
ag1032
aaa(lp1036
I1362
aI1368
ag1032
a(lp1037
g1005
ag1032
aaa(lp1038
I1362
aI1368
ag1032
a(lp1039
g996
ag1032
aaa(lp1040
I1374
aI1377
aS'pain'
p1041
a(lp1042
g1032
ag1041
aaa(lp1043
I1374
aI1377
ag1041
a(lp1044
g1023
ag1041
aaa(lp1045
I1374
aI1377
ag1041
a(lp1046
g1014
ag1041
aaa(lp1047
I1374
aI1377
ag1041
a(lp1048
g1005
ag1041
aaa(lp1049
I1387
aI1393
aS'forearm'
p1050
a(lp1051
g1041
ag1050
aaa(lp1052
I1387
aI1393
ag1050
a(lp1053
g1032
ag1050
aaa(lp1054
I1387
aI1393
ag1050
a(lp1055
g1023
ag1050
aaa(lp1056
I1387
aI1393
ag1050
a(lp1057
g1014
ag1050
aaa(lp1058
I1396
aI1405
aS'tendonitis'
p1059
a(lp1060
g1050
ag1059
aaa(lp1061
I1396
aI1405
ag1059
a(lp1062
g1041
ag1059
aaa(lp1063
I1396
aI1405
ag1059
a(lp1064
g1032
ag1059
aaa(lp1065
I1396
aI1405
ag1059
a(lp1066
g1023
ag1059
aaa(lp1067
I1407
aI1416
aS'tendonitis'
p1068
a(lp1069
g1059
ag1068
aaa(lp1070
I1407
aI1416
ag1068
a(lp1071
g1050
ag1068
aaa(lp1072
I1407
aI1416
ag1068
a(lp1073
g1041
ag1068
aaa(lp1074
I1407
aI1416
ag1068
a(lp1075
g1032
ag1068
aaa(lp1076
I1421
aI1427
aS'another'
p1077
a(lp1078
g1068
ag1077
aaa(lp1079
I1421
aI1427
ag1077
a(lp1080
g1059
ag1077
aaa(lp1081
I1421
aI1427
ag1077
a(lp1082
g1050
ag1077
aaa(lp1083
I1421
aI1427
ag1077
a(lp1084
g1041
ag1077
aaa(lp1085
I1429
aI1435
aS'problem'
p1086
a(lp1087
g1077
ag1086
aaa(lp1088
I1429
aI1435
ag1086
a(lp1089
g1068
ag1086
aaa(lp1090
I1429
aI1435
ag1086
a(lp1091
g1059
ag1086
aaa(lp1092
I1429
aI1435
ag1086
a(lp1093
g1050
ag1086
aaa(lp1094
I1442
aI1446
aS'often'
p1095
a(lp1096
g1086
ag1095
aaa(lp1097
I1442
aI1446
ag1095
a(lp1098
g1077
ag1095
aaa(lp1099
I1442
aI1446
ag1095
a(lp1100
g1068
ag1095
aaa(lp1101
I1442
aI1446
ag1095
a(lp1102
g1059
ag1095
aaa(lp1103
I1448
aI1453
aS'causes'
p1104
a(lp1105
g1095
ag1104
aaa(lp1106
I1448
aI1453
ag1104
a(lp1107
g1086
ag1104
aaa(lp1108
I1448
aI1453
ag1104
a(lp1109
g1077
ag1104
aaa(lp1110
I1448
aI1453
ag1104
a(lp1111
g1068
ag1104
aaa(lp1112
I1455
aI1458
aS'pain'
p1113
a(lp1114
g1104
ag1113
aaa(lp1115
I1455
aI1458
ag1113
a(lp1116
g1095
ag1113
aaa(lp1117
I1455
aI1458
ag1113
a(lp1118
g1086
ag1113
aaa(lp1119
I1455
aI1458
ag1113
a(lp1120
g1077
ag1113
aaa(lp1121
I1467
aI1473
aS'forearm'
p1122
a(lp1123
g1113
ag1122
aaa(lp1124
I1467
aI1473
ag1122
a(lp1125
g1104
ag1122
aaa(lp1126
I1467
aI1473
ag1122
a(lp1127
g1095
ag1122
aaa(lp1128
I1467
aI1473
ag1122
a(lp1129
g1086
ag1122
aaa(lp1130
I1481
aI1489
aS'basically'
p1131
a(lp1132
g1122
ag1131
aaa(lp1133
I1481
aI1489
ag1131
a(lp1134
g1113
ag1131
aaa(lp1135
I1481
aI1489
ag1131
a(lp1136
g1104
ag1131
aaa(lp1137
I1481
aI1489
ag1131
a(lp1138
g1095
ag1131
aaa(lp1139
I1496
aI1502
aS'problem'
p1140
a(lp1141
g1131
ag1140
aaa(lp1142
I1496
aI1502
ag1140
a(lp1143
g1122
ag1140
aaa(lp1144
I1496
aI1502
ag1140
a(lp1145
g1113
ag1140
aaa(lp1146
I1496
aI1502
ag1140
a(lp1147
g1104
ag1140
aaa(lp1148
I1509
aI1514
aS'occurs'
p1149
a(lp1150
g1140
ag1149
aaa(lp1151
I1509
aI1514
ag1149
a(lp1152
g1131
ag1149
aaa(lp1153
I1509
aI1514
ag1149
a(lp1154
g1122
ag1149
aaa(lp1155
I1509
aI1514
ag1149
a(lp1156
g1113
ag1149
aaa(lp1157
I1525
aI1531
aS'tendons'
p1158
a(lp1159
g1149
ag1158
aaa(lp1160
I1525
aI1531
ag1158
a(lp1161
g1140
ag1158
aaa(lp1162
I1525
aI1531
ag1158
a(lp1163
g1131
ag1158
aaa(lp1164
I1525
aI1531
ag1158
a(lp1165
g1122
ag1158
aaa(lp1166
I1533
aI1540
aS'actually'
p1167
a(lp1168
g1158
ag1167
aaa(lp1169
I1533
aI1540
ag1167
a(lp1170
g1149
ag1167
aaa(lp1171
I1533
aI1540
ag1167
a(lp1172
g1140
ag1167
aaa(lp1173
I1533
aI1540
ag1167
a(lp1174
g1131
ag1167
aaa(lp1175
I1542
aI1544
aS'get'
p1176
a(lp1177
g1167
ag1176
aaa(lp1178
I1542
aI1544
ag1176
a(lp1179
g1158
ag1176
aaa(lp1180
I1542
aI1544
ag1176
a(lp1181
g1149
ag1176
aaa(lp1182
I1542
aI1544
ag1176
a(lp1183
g1140
ag1176
aaa(lp1184
I1546
aI1553
aS'inflamed'
p1185
a(lp1186
g1176
ag1185
aaa(lp1187
I1546
aI1553
ag1185
a(lp1188
g1167
ag1185
aaa(lp1189
I1546
aI1553
ag1185
a(lp1190
g1158
ag1185
aaa(lp1191
I1546
aI1553
ag1185
a(lp1192
g1149
ag1185
aaa(lp1193
I1568
aI1573
aS'result'
p1194
a(lp1195
g1185
ag1194
aaa(lp1196
I1568
aI1573
ag1194
a(lp1197
g1176
ag1194
aaa(lp1198
I1568
aI1573
ag1194
a(lp1199
g1167
ag1194
aaa(lp1200
I1568
aI1573
ag1194
a(lp1201
g1158
ag1194
aaa(lp1202
I1578
aI1583
aS'injury'
p1203
a(lp1204
g1194
ag1203
aaa(lp1205
I1578
aI1583
ag1203
a(lp1206
g1185
ag1203
aaa(lp1207
I1578
aI1583
ag1203
a(lp1208
g1176
ag1203
aaa(lp1209
I1578
aI1583
ag1203
a(lp1210
g1167
ag1203
aaa(lp1211
I1588
aI1591
aS'even'
p1212
a(lp1213
g1203
ag1212
aaa(lp1214
I1588
aI1591
ag1212
a(lp1215
g1194
ag1212
aaa(lp1216
I1588
aI1591
ag1212
a(lp1217
g1185
ag1212
aaa(lp1218
I1588
aI1591
ag1212
a(lp1219
g1176
ag1212
aaa(lp1220
I1593
aI1597
aS'using'
p1221
a(lp1222
g1212
ag1221
aaa(lp1223
I1593
aI1597
ag1221
a(lp1224
g1203
ag1221
aaa(lp1225
I1593
aI1597
ag1221
a(lp1226
g1194
ag1221
aaa(lp1227
I1593
aI1597
ag1221
a(lp1228
g1185
ag1221
aaa(lp1229
I1606
aI1609
aS'much'
p1230
a(lp1231
g1221
ag1230
aaa(lp1232
I1606
aI1609
ag1230
a(lp1233
g1212
ag1230
aaa(lp1234
I1606
aI1609
ag1230
a(lp1235
g1203
ag1230
aaa(lp1236
I1606
aI1609
ag1230
a(lp1237
g1194
ag1230
aaa(lp1238
I1619
aI1623
aS'cause'
p1239
a(lp1240
g1230
ag1239
aaa(lp1241
I1619
aI1623
ag1239
a(lp1242
g1221
ag1239
aaa(lp1243
I1619
aI1623
ag1239
a(lp1244
g1212
ag1239
aaa(lp1245
I1619
aI1623
ag1239
a(lp1246
g1203
ag1239
aaa(lp1247
I1627
aI1629
aS'lot'
p1248
a(lp1249
g1239
ag1248
aaa(lp1250
I1627
aI1629
ag1248
a(lp1251
g1230
ag1248
aaa(lp1252
I1627
aI1629
ag1248
a(lp1253
g1221
ag1248
aaa(lp1254
I1627
aI1629
ag1248
a(lp1255
g1212
ag1248
aaa(lp1256
I1634
aI1637
aS'pain'
p1257
a(lp1258
g1248
ag1257
aaa(lp1259
I1634
aI1637
ag1257
a(lp1260
g1239
ag1257
aaa(lp1261
I1634
aI1637
ag1257
a(lp1262
g1230
ag1257
aaa(lp1263
I1634
aI1637
ag1257
a(lp1264
g1221
ag1257
aaa(lp1265
I1640
aI1648
aS'including'
p1266
a(lp1267
g1257
ag1266
aaa(lp1268
I1640
aI1648
ag1266
a(lp1269
g1248
ag1266
aaa(lp1270
I1640
aI1648
ag1266
a(lp1271
g1239
ag1266
aaa(lp1272
I1640
aI1648
ag1266
a(lp1273
g1230
ag1266
aaa(lp1274
I1650
aI1653
aS'pain'
p1275
a(lp1276
g1266
ag1275
aaa(lp1277
I1650
aI1653
ag1275
a(lp1278
g1257
ag1275
aaa(lp1279
I1650
aI1653
ag1275
a(lp1280
g1248
ag1275
aaa(lp1281
I1650
aI1653
ag1275
a(lp1282
g1239
ag1275
aaa(lp1283
I1662
aI1668
aS'forearm'
p1284
a(lp1285
g1275
ag1284
aaa(lp1286
I1662
aI1668
ag1284
a(lp1287
g1266
ag1284
aaa(lp1288
I1662
aI1668
ag1284
a(lp1289
g1257
ag1284
aaa(lp1290
I1662
aI1668
ag1284
a(lp1291
g1248
ag1284
aaa(lp1292
I1677
aI1683
aS'tendons'
p1293
a(lp1294
g1284
ag1293
aaa(lp1295
I1677
aI1683
ag1293
a(lp1296
g1275
ag1293
aaa(lp1297
I1677
aI1683
ag1293
a(lp1298
g1266
ag1293
aaa(lp1299
I1677
aI1683
ag1293
a(lp1300
g1257
ag1293
aaa(lp1301
I1692
aI1695
aS'area'
p1302
a(lp1303
g1293
ag1302
aaa(lp1304
I1692
aI1695
ag1302
a(lp1305
g1284
ag1302
aaa(lp1306
I1692
aI1695
ag1302
a(lp1307
g1275
ag1302
aaa(lp1308
I1692
aI1695
ag1302
a(lp1309
g1266
ag1302
aaa(lp1310
I1701
aI1704
aS'hurt'
p1311
a(lp1312
g1302
ag1311
aaa(lp1313
I1701
aI1704
ag1311
a(lp1314
g1293
ag1311
aaa(lp1315
I1701
aI1704
ag1311
a(lp1316
g1284
ag1311
aaa(lp1317
I1701
aI1704
ag1311
a(lp1318
g1275
ag1311
aaa(lp1319
I1709
aI1716
aS'overused'
p1320
a(lp1321
g1311
ag1320
aaa(lp1322
I1709
aI1716
ag1320
a(lp1323
g1302
ag1320
aaa(lp1324
I1709
aI1716
ag1320
a(lp1325
g1293
ag1320
aaa(lp1326
I1709
aI1716
ag1320
a(lp1327
g1284
ag1320
aaa(lp1328
I1719
aI1722
aS'left'
p1329
a(lp1330
g1320
ag1329
aaa(lp1331
I1719
aI1722
ag1329
a(lp1332
g1311
ag1329
aaa(lp1333
I1719
aI1722
ag1329
a(lp1334
g1302
ag1329
aaa(lp1335
I1719
aI1722
ag1329
a(lp1336
g1293
ag1329
aaa(lp1337
I1724
aI1726
aS'arm'
p1338
a(lp1339
g1329
ag1338
aaa(lp1340
I1724
aI1726
ag1338
a(lp1341
g1320
ag1338
aaa(lp1342
I1724
aI1726
ag1338
a(lp1343
g1311
ag1338
aaa(lp1344
I1724
aI1726
ag1338
a(lp1345
g1302
ag1338
aaa(lp1346
I1730
aI1737
aS'possible'
p1347
a(lp1348
g1338
ag1347
aaa(lp1349
I1730
aI1737
ag1347
a(lp1350
g1329
ag1347
aaa(lp1351
I1730
aI1737
ag1347
a(lp1352
g1320
ag1347
aaa(lp1353
I1730
aI1737
ag1347
a(lp1354
g1311
ag1347
aaa(lp1355
I1739
aI1743
aS'heart'
p1356
a(lp1357
g1347
ag1356
aaa(lp1358
I1739
aI1743
ag1356
a(lp1359
g1338
ag1356
aaa(lp1360
I1739
aI1743
ag1356
a(lp1361
g1329
ag1356
aaa(lp1362
I1739
aI1743
ag1356
a(lp1363
g1320
ag1356
aaa(lp1364
I1745
aI1750
aS'attack'
p1365
a(lp1366
g1356
ag1365
aaa(lp1367
I1745
aI1750
ag1365
a(lp1368
g1347
ag1365
aaa(lp1369
I1745
aI1750
ag1365
a(lp1370
g1338
ag1365
aaa(lp1371
I1745
aI1750
ag1365
a(lp1372
g1329
ag1365
aaa(lp1373
I1752
aI1755
aS'last'
p1374
a(lp1375
g1365
ag1374
aaa(lp1376
I1752
aI1755
ag1374
a(lp1377
g1356
ag1374
aaa(lp1378
I1752
aI1755
ag1374
a(lp1379
g1347
ag1374
aaa(lp1380
I1752
aI1755
ag1374
a(lp1381
g1338
ag1374
aaa(lp1382
I1776
aI1782
aS'dealing'
p1383
a(lp1384
g1374
ag1383
aaa(lp1385
I1776
aI1782
ag1383
a(lp1386
g1365
ag1383
aaa(lp1387
I1776
aI1782
ag1383
a(lp1388
g1356
ag1383
aaa(lp1389
I1776
aI1782
ag1383
a(lp1390
g1347
ag1383
aaa(lp1391
I1789
aI1795
aS'forearm'
p1392
a(lp1393
g1383
ag1392
aaa(lp1394
I1789
aI1795
ag1392
a(lp1395
g1374
ag1392
aaa(lp1396
I1789
aI1795
ag1392
a(lp1397
g1365
ag1392
aaa(lp1398
I1789
aI1795
ag1392
a(lp1399
g1356
ag1392
aaa(lp1400
I1797
aI1800
aS'pain'
p1401
a(lp1402
g1392
ag1401
aaa(lp1403
I1797
aI1800
ag1401
a(lp1404
g1383
ag1401
aaa(lp1405
I1797
aI1800
ag1401
a(lp1406
g1374
ag1401
aaa(lp1407
I1797
aI1800
ag1401
a(lp1408
g1365
ag1401
aaa(lp1409
I1810
aI1813
aS'left'
p1410
a(lp1411
g1401
ag1410
aaa(lp1412
I1810
aI1813
ag1410
a(lp1413
g1392
ag1410
aaa(lp1414
I1810
aI1813
ag1410
a(lp1415
g1383
ag1410
aaa(lp1416
I1810
aI1813
ag1410
a(lp1417
g1374
ag1410
aaa(lp1418
I1815
aI1817
aS'arm'
p1419
a(lp1420
g1410
ag1419
aaa(lp1421
I1815
aI1817
ag1419
a(lp1422
g1401
ag1419
aaa(lp1423
I1815
aI1817
ag1419
a(lp1424
g1392
ag1419
aaa(lp1425
I1815
aI1817
ag1419
a(lp1426
g1383
ag1419
aaa(lp1427
I1825
aI1829
aS'could'
p1428
a(lp1429
g1419
ag1428
aaa(lp1430
I1825
aI1829
ag1428
a(lp1431
g1410
ag1428
aaa(lp1432
I1825
aI1829
ag1428
a(lp1433
g1401
ag1428
aaa(lp1434
I1825
aI1829
ag1428
a(lp1435
g1392
ag1428
aaa(lp1436
I1834
aI1844
aS'potentially'
p1437
a(lp1438
g1428
ag1437
aaa(lp1439
I1834
aI1844
ag1437
a(lp1440
g1419
ag1437
aaa(lp1441
I1834
aI1844
ag1437
a(lp1442
g1410
ag1437
aaa(lp1443
I1834
aI1844
ag1437
a(lp1444
g1401
ag1437
aaa(lp1445
I1846
aI1852
aS'serious'
p1446
a(lp1447
g1437
ag1446
aaa(lp1448
I1846
aI1852
ag1446
a(lp1449
g1428
ag1446
aaa(lp1450
I1846
aI1852
ag1446
a(lp1451
g1419
ag1446
aaa(lp1452
I1846
aI1852
ag1446
a(lp1453
g1410
ag1446
aaa(lp1454
I1855
aI1863
aS'sometimes'
p1455
a(lp1456
g1446
ag1455
aaa(lp1457
I1855
aI1863
ag1455
a(lp1458
g1437
ag1455
aaa(lp1459
I1855
aI1863
ag1455
a(lp1460
g1428
ag1455
aaa(lp1461
I1855
aI1863
ag1455
a(lp1462
g1419
ag1455
aaa(lp1463
I1870
aI1875
aS'people'
p1464
a(lp1465
g1455
ag1464
aaa(lp1466
I1870
aI1875
ag1464
a(lp1467
g1446
ag1464
aaa(lp1468
I1870
aI1875
ag1464
a(lp1469
g1437
ag1464
aaa(lp1470
I1870
aI1875
ag1464
a(lp1471
g1428
ag1464
aaa(lp1472
I1881
aI1885
aS'going'
p1473
a(lp1474
g1464
ag1473
aaa(lp1475
I1881
aI1885
ag1473
a(lp1476
g1455
ag1473
aaa(lp1477
I1881
aI1885
ag1473
a(lp1478
g1446
ag1473
aaa(lp1479
I1881
aI1885
ag1473
a(lp1480
g1437
ag1473
aaa(lp1481
I1897
aI1901
aS'heart'
p1482
a(lp1483
g1473
ag1482
aaa(lp1484
I1897
aI1901
ag1482
a(lp1485
g1464
ag1482
aaa(lp1486
I1897
aI1901
ag1482
a(lp1487
g1455
ag1482
aaa(lp1488
I1897
aI1901
ag1482
a(lp1489
g1446
ag1482
aaa(lp1490
I1903
aI1908
aS'attack'
p1491
a(lp1492
g1482
ag1491
aaa(lp1493
I1903
aI1908
ag1491
a(lp1494
g1473
ag1491
aaa(lp1495
I1903
aI1908
ag1491
a(lp1496
g1464
ag1491
aaa(lp1497
I1903
aI1908
ag1491
a(lp1498
g1455
ag1491
aaa(lp1499
I1916
aI1918
aS'end'
p1500
a(lp1501
g1491
ag1500
aaa(lp1502
I1916
aI1918
ag1500
a(lp1503
g1482
ag1500
aaa(lp1504
I1916
aI1918
ag1500
a(lp1505
g1473
ag1500
aaa(lp1506
I1916
aI1918
ag1500
a(lp1507
g1464
ag1500
aaa(lp1508
I1930
aI1933
aS'pain'
p1509
a(lp1510
g1500
ag1509
aaa(lp1511
I1930
aI1933
ag1509
a(lp1512
g1491
ag1509
aaa(lp1513
I1930
aI1933
ag1509
a(lp1514
g1482
ag1509
aaa(lp1515
I1930
aI1933
ag1509
a(lp1516
g1473
ag1509
aaa(lp1517
I1944
aI1947
aS'left'
p1518
a(lp1519
g1509
ag1518
aaa(lp1520
I1944
aI1947
ag1518
a(lp1521
g1500
ag1518
aaa(lp1522
I1944
aI1947
ag1518
a(lp1523
g1491
ag1518
aaa(lp1524
I1944
aI1947
ag1518
a(lp1525
g1482
ag1518
aaa(lp1526
I1949
aI1951
aS'arm'
p1527
a(lp1528
g1518
ag1527
aaa(lp1529
I1949
aI1951
ag1527
a(lp1530
g1509
ag1527
aaa(lp1531
I1949
aI1951
ag1527
a(lp1532
g1500
ag1527
aaa(lp1533
I1949
aI1951
ag1527
a(lp1534
g1491
ag1527
aaa(lp1535
I1964
aI1970
aS'include'
p1536
a(lp1537
g1527
ag1536
aaa(lp1538
I1964
aI1970
ag1536
a(lp1539
g1518
ag1536
aaa(lp1540
I1964
aI1970
ag1536
a(lp1541
g1509
ag1536
aaa(lp1542
I1964
aI1970
ag1536
a(lp1543
g1500
ag1536
aaa(lp1544
I1976
aI1982
aS'forearm'
p1545
a(lp1546
g1536
ag1545
aaa(lp1547
I1976
aI1982
ag1545
a(lp1548
g1527
ag1545
aaa(lp1549
I1976
aI1982
ag1545
a(lp1550
g1518
ag1545
aaa(lp1551
I1976
aI1982
ag1545
a(lp1552
g1509
ag1545
aaa(lp1553
I1984
aI1987
aS'area'
p1554
a(lp1555
g1545
ag1554
aaa(lp1556
I1984
aI1987
ag1554
a(lp1557
g1536
ag1554
aaa(lp1558
I1984
aI1987
ag1554
a(lp1559
g1527
ag1554
aaa(lp1560
I1984
aI1987
ag1554
a(lp1561
g1518
ag1554
aaa(lp1562
I2008
aI2012
aS'chest'
p1563
a(lp1564
g1554
ag1563
aaa(lp1565
I2008
aI2012
ag1563
a(lp1566
g1545
ag1563
aaa(lp1567
I2008
aI2012
ag1563
a(lp1568
g1536
ag1563
aaa(lp1569
I2008
aI2012
ag1563
a(lp1570
g1527
ag1563
aaa(lp1571
I2014
aI2017
aS'pain'
p1572
a(lp1573
g1563
ag1572
aaa(lp1574
I2014
aI2017
ag1572
a(lp1575
g1554
ag1572
aaa(lp1576
I2014
aI2017
ag1572
a(lp1577
g1545
ag1572
aaa(lp1578
I2014
aI2017
ag1572
a(lp1579
g1536
ag1572
aaa(lp1580
I2019
aI2023
aS'along'
p1581
a(lp1582
g1572
ag1581
aaa(lp1583
I2019
aI2023
ag1581
a(lp1584
g1563
ag1581
aaa(lp1585
I2019
aI2023
ag1581
a(lp1586
g1554
ag1581
aaa(lp1587
I2019
aI2023
ag1581
a(lp1588
g1545
ag1581
aaa(lp1589
I2035
aI2041
aS'forearm'
p1590
a(lp1591
g1581
ag1590
aaa(lp1592
I2035
aI2041
ag1590
a(lp1593
g1572
ag1590
aaa(lp1594
I2035
aI2041
ag1590
a(lp1595
g1563
ag1590
aaa(lp1596
I2035
aI2041
ag1590
a(lp1597
g1554
ag1590
aaa(lp1598
I2043
aI2046
aS'pain'
p1599
a(lp1600
g1590
ag1599
aaa(lp1601
I2043
aI2046
ag1599
a(lp1602
g1581
ag1599
aaa(lp1603
I2043
aI2046
ag1599
a(lp1604
g1572
ag1599
aaa(lp1605
I2043
aI2046
ag1599
a(lp1606
g1563
ag1599
aaa(lp1607
I2060
aI2063
aS'pain'
p1608
a(lp1609
g1599
ag1608
aaa(lp1610
I2060
aI2063
ag1608
a(lp1611
g1590
ag1608
aaa(lp1612
I2060
aI2063
ag1608
a(lp1613
g1581
ag1608
aaa(lp1614
I2060
aI2063
ag1608
a(lp1615
g1572
ag1608
aaa(lp1616
I2077
aI2082
aS'entire'
p1617
a(lp1618
g1608
ag1617
aaa(lp1619
I2077
aI2082
ag1617
a(lp1620
g1599
ag1617
aaa(lp1621
I2077
aI2082
ag1617
a(lp1622
g1590
ag1617
aaa(lp1623
I2077
aI2082
ag1617
a(lp1624
g1581
ag1617
aaa(lp1625
I2084
aI2086
aS'arm'
p1626
a(lp1627
g1617
ag1626
aaa(lp1628
I2084
aI2086
ag1626
a(lp1629
g1608
ag1626
aaa(lp1630
I2084
aI2086
ag1626
a(lp1631
g1599
ag1626
aaa(lp1632
I2084
aI2086
ag1626
a(lp1633
g1590
ag1626
aaa(lp1634
I2104
aI2106
aS'one'
p1635
a(lp1636
g1626
ag1635
aaa(lp1637
I2104
aI2106
ag1635
a(lp1638
g1617
ag1635
aaa(lp1639
I2104
aI2106
ag1635
a(lp1640
g1608
ag1635
aaa(lp1641
I2104
aI2106
ag1635
a(lp1642
g1599
ag1635
aaa(lp1643
I2108
aI2111
aS'side'
p1644
a(lp1645
g1635
ag1644
aaa(lp1646
I2108
aI2111
ag1644
a(lp1647
g1626
ag1644
aaa(lp1648
I2108
aI2111
ag1644
a(lp1649
g1617
ag1644
aaa(lp1650
I2108
aI2111
ag1644
a(lp1651
g1608
ag1644
aaa(lp1652
I2125
aI2128
aS'seek'
p1653
a(lp1654
g1644
ag1653
aaa(lp1655
I2125
aI2128
ag1653
a(lp1656
g1635
ag1653
aaa(lp1657
I2125
aI2128
ag1653
a(lp1658
g1626
ag1653
aaa(lp1659
I2125
aI2128
ag1653
a(lp1660
g1617
ag1653
aaa(lp1661
I2130
aI2136
aS'medical'
p1662
a(lp1663
g1653
ag1662
aaa(lp1664
I2130
aI2136
ag1662
a(lp1665
g1644
ag1662
aaa(lp1666
I2130
aI2136
ag1662
a(lp1667
g1635
ag1662
aaa(lp1668
I2130
aI2136
ag1662
a(lp1669
g1626
ag1662
aaa(lp1670
I2138
aI2146
aS'attention'
p1671
a(lp1672
g1662
ag1671
aaa(lp1673
I2138
aI2146
ag1671
a(lp1674
g1653
ag1671
aaa(lp1675
I2138
aI2146
ag1671
a(lp1676
g1644
ag1671
aaa(lp1677
I2138
aI2146
ag1671
a(lp1678
g1635
ag1671
aaa(lp1679
I2151
aI2154
aS'soon'
p1680
a(lp1681
g1671
ag1680
aaa(lp1682
I2151
aI2154
ag1680
a(lp1683
g1662
ag1680
aaa(lp1684
I2151
aI2154
ag1680
a(lp1685
g1653
ag1680
aaa(lp1686
I2151
aI2154
ag1680
a(lp1687
g1644
ag1680
aaa(lp1688
I2159
aI2166
aS'possible'
p1689
a(lp1690
g1680
ag1689
aaa(lp1691
I2159
aI2166
ag1689
a(lp1692
g1671
ag1689
aaa(lp1693
I2159
aI2166
ag1689
a(lp1694
g1662
ag1689
aaa(lp1695
I2159
aI2166
ag1689
a(lp1696
g1653
ag1689
aaa(lp1697
I2184
aI2186
aS'see'
p1698
a(lp1699
g1689
ag1698
aaa(lp1700
I2184
aI2186
ag1698
a(lp1701
g1680
ag1698
aaa(lp1702
I2184
aI2186
ag1698
a(lp1703
g1671
ag1698
aaa(lp1704
I2184
aI2186
ag1698
a(lp1705
g1662
ag1698
aaa(lp1706
I2189
aI2192
aS'pain'
p1707
a(lp1708
g1698
ag1707
aaa(lp1709
I2189
aI2192
ag1707
a(lp1710
g1689
ag1707
aaa(lp1711
I2189
aI2192
ag1707
a(lp1712
g1680
ag1707
aaa(lp1713
I2189
aI2192
ag1707
a(lp1714
g1671
ag1707
aaa(lp1715
I2201
aI2207
aS'forearm'
p1716
a(lp1717
g1707
ag1716
aaa(lp1718
I2201
aI2207
ag1716
a(lp1719
g1698
ag1716
aaa(lp1720
I2201
aI2207
ag1716
a(lp1721
g1689
ag1716
aaa(lp1722
I2201
aI2207
ag1716
a(lp1723
g1680
ag1716
aaa(lp1724
I2216
aI2221
aS'always'
p1725
a(lp1726
g1716
ag1725
aaa(lp1727
I2216
aI2221
ag1725
a(lp1728
g1707
ag1725
aaa(lp1729
I2216
aI2221
ag1725
a(lp1730
g1698
ag1725
aaa(lp1731
I2216
aI2221
ag1725
a(lp1732
g1689
ag1725
aaa(lp1733
I2225
aI2228
aS'sign'
p1734
a(lp1735
g1725
ag1734
aaa(lp1736
I2225
aI2228
ag1734
a(lp1737
g1716
ag1734
aaa(lp1738
I2225
aI2228
ag1734
a(lp1739
g1707
ag1734
aaa(lp1740
I2225
aI2228
ag1734
a(lp1741
g1698
ag1734
aaa(lp1742
I2233
aI2239
aS'dealing'
p1743
a(lp1744
g1734
ag1743
aaa(lp1745
I2233
aI2239
ag1743
a(lp1746
g1725
ag1743
aaa(lp1747
I2233
aI2239
ag1743
a(lp1748
g1716
ag1743
aaa(lp1749
I2233
aI2239
ag1743
a(lp1750
g1707
ag1743
aaa(lp1751
I2246
aI2251
aS'carpal'
p1752
a(lp1753
g1743
ag1752
aaa(lp1754
I2246
aI2251
ag1752
a(lp1755
g1734
ag1752
aaa(lp1756
I2246
aI2251
ag1752
a(lp1757
g1725
ag1752
aaa(lp1758
I2246
aI2251
ag1752
a(lp1759
g1716
ag1752
aaa(lp1760
I2253
aI2258
aS'tunnel'
p1761
a(lp1762
g1752
ag1761
aaa(lp1763
I2253
aI2258
ag1761
a(lp1764
g1743
ag1761
aaa(lp1765
I2253
aI2258
ag1761
a(lp1766
g1734
ag1761
aaa(lp1767
I2253
aI2258
ag1761
a(lp1768
g1725
ag1761
aaa(lp1769
I2260
aI2267
aS'syndrome'
p1770
a(lp1771
g1761
ag1770
aaa(lp1772
I2260
aI2267
ag1770
a(lp1773
g1752
ag1770
aaa(lp1774
I2260
aI2267
ag1770
a(lp1775
g1743
ag1770
aaa(lp1776
I2260
aI2267
ag1770
a(lp1777
g1734
ag1770
aaa(lp1778
I2291
aI2297
aS'serious'
p1779
a(lp1780
g1770
ag1779
aaa(lp1781
I2291
aI2297
ag1779
a(lp1782
g1761
ag1779
aaa(lp1783
I2291
aI2297
ag1779
a(lp1784
g1752
ag1779
aaa(lp1785
I2291
aI2297
ag1779
a(lp1786
g1743
ag1779
aaa(lp1787
I2299
aI2306
aS'problems'
p1788
a(lp1789
g1779
ag1788
aaa(lp1790
I2299
aI2306
ag1788
a(lp1791
g1770
ag1788
aaa(lp1792
I2299
aI2306
ag1788
a(lp1793
g1761
ag1788
aaa(lp1794
I2299
aI2306
ag1788
a(lp1795
g1752
ag1788
aaa(lp1796
I2317
aI2321
aS'cause'
p1797
a(lp1798
g1788
ag1797
aaa(lp1799
I2317
aI2321
ag1797
a(lp1800
g1779
ag1797
aaa(lp1801
I2317
aI2321
ag1797
a(lp1802
g1770
ag1797
aaa(lp1803
I2317
aI2321
ag1797
a(lp1804
g1761
ag1797
aaa(lp1805
I2323
aI2329
aS'similar'
p1806
a(lp1807
g1797
ag1806
aaa(lp1808
I2323
aI2329
ag1806
a(lp1809
g1788
ag1806
aaa(lp1810
I2323
aI2329
ag1806
a(lp1811
g1779
ag1806
aaa(lp1812
I2323
aI2329
ag1806
a(lp1813
g1770
ag1806
aaa(lp1814
I2331
aI2334
aS'pain'
p1815
a(lp1816
g1806
ag1815
aaa(lp1817
I2331
aI2334
ag1815
a(lp1818
g1797
ag1815
aaa(lp1819
I2331
aI2334
ag1815
a(lp1820
g1788
ag1815
aaa(lp1821
I2331
aI2334
ag1815
a(lp1822
g1779
ag1815
aaa(lp1823
I2346
aI2351
aS'reason'
p1824
a(lp1825
g1815
ag1824
aaa(lp1826
I2346
aI2351
ag1824
a(lp1827
g1806
ag1824
aaa(lp1828
I2346
aI2351
ag1824
a(lp1829
g1797
ag1824
aaa(lp1830
I2346
aI2351
ag1824
a(lp1831
g1788
ag1824
aaa(lp1832
I2354
aI2358
aS'going'
p1833
a(lp1834
g1824
ag1833
aaa(lp1835
I2354
aI2358
ag1833
a(lp1836
g1815
ag1833
aaa(lp1837
I2354
aI2358
ag1833
a(lp1838
g1806
ag1833
aaa(lp1839
I2354
aI2358
ag1833
a(lp1840
g1797
ag1833
aaa(lp1841
I2368
aI2373
aS'doctor'
p1842
a(lp1843
g1833
ag1842
aaa(lp1844
I2368
aI2373
ag1842
a(lp1845
g1824
ag1842
aaa(lp1846
I2368
aI2373
ag1842
a(lp1847
g1815
ag1842
aaa(lp1848
I2368
aI2373
ag1842
a(lp1849
g1806
ag1842
aaa(lp1850
I2379
aI2385
aS'letting'
p1851
a(lp1852
g1842
ag1851
aaa(lp1853
I2379
aI2385
ag1851
a(lp1854
g1833
ag1851
aaa(lp1855
I2379
aI2385
ag1851
a(lp1856
g1824
ag1851
aaa(lp1857
I2379
aI2385
ag1851
a(lp1858
g1815
ag1851
aaa(lp1859
I2391
aI2394
aS'know'
p1860
a(lp1861
g1851
ag1860
aaa(lp1862
I2391
aI2394
ag1860
a(lp1863
g1842
ag1860
aaa(lp1864
I2391
aI2394
ag1860
a(lp1865
g1833
ag1860
aaa(lp1866
I2391
aI2394
ag1860
a(lp1867
g1824
ag1860
aaa(lp1868
I2406
aI2409
aS'pain'
p1869
a(lp1870
g1860
ag1869
aaa(lp1871
I2406
aI2409
ag1869
a(lp1872
g1851
ag1869
aaa(lp1873
I2406
aI2409
ag1869
a(lp1874
g1842
ag1869
aaa(lp1875
I2406
aI2409
ag1869
a(lp1876
g1833
ag1869
aaa(lp1877
I2423
aI2431
aS'important'
p1878
a(lp1879
g1869
ag1878
aaa(lp1880
I2423
aI2431
ag1878
a(lp1881
g1860
ag1878
aaa(lp1882
I2423
aI2431
ag1878
a(lp1883
g1851
ag1878
aaa(lp1884
I2423
aI2431
ag1878
a(lp1885
g1842
ag1878
aaa(lp1886
I2436
aI2442
aS'receive'
p1887
a(lp1888
g1878
ag1887
aaa(lp1889
I2436
aI2442
ag1887
a(lp1890
g1869
ag1887
aaa(lp1891
I2436
aI2442
ag1887
a(lp1892
g1860
ag1887
aaa(lp1893
I2436
aI2442
ag1887
a(lp1894
g1851
ag1887
aaa(lp1895
I2448
aI2452
aS'right'
p1896
a(lp1897
g1887
ag1896
aaa(lp1898
I2448
aI2452
ag1896
a(lp1899
g1878
ag1896
aaa(lp1900
I2448
aI2452
ag1896
a(lp1901
g1869
ag1896
aaa(lp1902
I2448
aI2452
ag1896
a(lp1903
g1860
ag1896
aaasS'wordMap'
p1904
(lp1905
(lp1906
I0
aI5
ag5
a(lp1907
(lp1908
I0
aS'c'
p1909
aa(lp1910
I1
aS'a'
p1911
aa(lp1912
I2
aS'r'
p1913
aa(lp1914
I3
aS'p'
p1915
aa(lp1916
I4
ag1911
aa(lp1917
I5
aS'l'
p1918
aaaa(lp1919
I7
aI12
ag15
a(lp1920
(lp1921
I7
aS't'
p1922
aa(lp1923
I8
aS'u'
p1924
aa(lp1925
I9
aS'n'
p1926
aa(lp1927
I10
ag1926
aa(lp1928
I11
aS'e'
p1929
aa(lp1930
I12
ag1918
aaaa(lp1931
I14
aI15
aS'is'
p1932
a(lp1933
(lp1934
I14
aS'i'
p1935
aa(lp1936
I15
aS's'
p1937
aaaa(lp1938
I17
aI19
aS'not'
p1939
a(lp1940
(lp1941
I17
ag1926
aa(lp1942
I18
aS'o'
p1943
aa(lp1944
I19
ag1922
aaaa(lp1945
I21
aI23
aS'the'
p1946
a(lp1947
(lp1948
I21
ag1922
aa(lp1949
I22
aS'h'
p1950
aa(lp1951
I23
ag1929
aaaa(lp1952
I25
aI28
aS'only'
p1953
a(lp1954
(lp1955
I25
ag1943
aa(lp1956
I26
ag1926
aa(lp1957
I27
ag1918
aa(lp1958
I28
aS'y'
p1959
aaaa(lp1960
I30
aI34
ag24
a(lp1961
(lp1962
I30
ag1909
aa(lp1963
I31
ag1911
aa(lp1964
I32
ag1924
aa(lp1965
I33
ag1937
aa(lp1966
I34
ag1929
aaaa(lp1967
I36
aI37
aS'of'
p1968
a(lp1969
(lp1970
I36
ag1943
aa(lp1971
I37
aS'f'
p1972
aaaa(lp1973
I39
aI45
ag33
a(lp1974
(lp1975
I39
ag1972
aa(lp1976
I40
ag1943
aa(lp1977
I41
ag1913
aa(lp1978
I42
ag1929
aa(lp1979
I43
ag1911
aa(lp1980
I44
ag1913
aa(lp1981
I45
aS'm'
p1982
aaaa(lp1983
I47
aI50
ag42
a(lp1984
(lp1985
I47
ag1915
aa(lp1986
I48
ag1911
aa(lp1987
I49
ag1935
aa(lp1988
I50
ag1926
aaaa(lp1989
I52
aI60
ag51
a(lp1990
(lp1991
I52
aS'w'
p1992
aa(lp1993
I53
ag1929
aa(lp1994
I54
aS'd'
p1995
aa(lp1996
I55
ag1926
aa(lp1997
I56
ag1929
aa(lp1998
I57
ag1937
aa(lp1999
I58
ag1995
aa(lp2000
I59
ag1911
aa(lp2001
I60
ag1959
aaaa(lp2002
I63
aI70
ag60
a(lp2003
(lp2004
I63
ag1926
aa(lp2005
I64
ag1943
aa(lp2006
I65
aS'v'
p2007
aa(lp2008
I66
ag1929
aa(lp2009
I67
ag1982
aa(lp2010
I68
aS'b'
p2011
aa(lp2012
I69
ag1929
aa(lp2013
I70
ag1913
aaaa(lp2014
I72
aI73
ag69
a(lp2015
(lp2016
I72
aS'2'
p2017
aa(lp2018
I73
aS'6'
p2019
aaaa(lp2020
I76
aI79
ag78
a(lp2021
(lp2022
I76
ag2017
aa(lp2023
I77
aS'0'
p2024
aa(lp2025
I78
ag2024
aa(lp2026
I79
aS'8'
p2027
aaaa(lp2028
I81
aI87
ag87
a(lp2029
(lp2030
I81
ag1995
aa(lp2031
I82
ag1929
aa(lp2032
I83
ag1911
aa(lp2033
I84
ag1918
aa(lp2034
I85
ag1935
aa(lp2035
I86
ag1926
aa(lp2036
I87
aS'g'
p2037
aaaa(lp2038
I89
aI92
aS'with'
p2039
a(lp2040
(lp2041
I89
ag1992
aa(lp2042
I90
ag1935
aa(lp2043
I91
ag1922
aa(lp2044
I92
ag1950
aaaa(lp2045
I94
aI100
ag96
a(lp2046
(lp2047
I94
ag1972
aa(lp2048
I95
ag1943
aa(lp2049
I96
ag1913
aa(lp2050
I97
ag1929
aa(lp2051
I98
ag1911
aa(lp2052
I99
ag1913
aa(lp2053
I100
ag1982
aaaa(lp2054
I102
aI105
ag105
a(lp2055
(lp2056
I102
ag1915
aa(lp2057
I103
ag1911
aa(lp2058
I104
ag1935
aa(lp2059
I105
ag1926
aaaa(lp2060
I108
aI111
aS'this'
p2061
a(lp2062
(lp2063
I108
ag1922
aa(lp2064
I109
ag1950
aa(lp2065
I110
ag1935
aa(lp2066
I111
ag1937
aaaa(lp2067
I113
aI114
aS'is'
p2068
a(lp2069
(lp2070
I113
ag1935
aa(lp2071
I114
ag1937
aaaa(lp2072
I116
aI116
ag1911
a(lp2073
(lp2074
I116
ag1911
aaaa(lp2075
I118
aI121
ag114
a(lp2076
(lp2077
I118
ag1915
aa(lp2078
I119
ag1911
aa(lp2079
I120
ag1935
aa(lp2080
I121
ag1926
aaaa(lp2081
I123
aI126
aS'that'
p2082
a(lp2083
(lp2084
I123
ag1922
aa(lp2085
I124
ag1950
aa(lp2086
I125
ag1911
aa(lp2087
I126
ag1922
aaaa(lp2088
I128
aI133
ag123
a(lp2089
(lp2090
I128
ag1943
aa(lp2091
I129
ag1909
aa(lp2092
I130
ag1909
aa(lp2093
I131
ag1924
aa(lp2094
I132
ag1913
aa(lp2095
I133
ag1937
aaaa(lp2096
I135
aI136
aS'in'
p2097
a(lp2098
(lp2099
I135
ag1935
aa(lp2100
I136
ag1926
aaaa(lp2101
I138
aI140
aS'the'
p2102
a(lp2103
(lp2104
I138
ag1922
aa(lp2105
I139
ag1950
aa(lp2106
I140
ag1929
aaaa(lp2107
I142
aI148
ag132
a(lp2108
(lp2109
I142
ag1972
aa(lp2110
I143
ag1943
aa(lp2111
I144
ag1913
aa(lp2112
I145
ag1929
aa(lp2113
I146
ag1911
aa(lp2114
I147
ag1913
aa(lp2115
I148
ag1982
aaaa(lp2116
I150
aI153
ag141
a(lp2117
(lp2118
I150
ag1911
aa(lp2119
I151
ag1913
aa(lp2120
I152
ag1929
aa(lp2121
I153
ag1911
aaaa(lp2122
I155
aI157
aS'and'
p2123
a(lp2124
(lp2125
I155
ag1911
aa(lp2126
I156
ag1926
aa(lp2127
I157
ag1995
aaaa(lp2128
I159
aI160
aS'it'
p2129
a(lp2130
(lp2131
I159
ag1935
aa(lp2132
I160
ag1922
aaaa(lp2133
I162
aI164
aS'can'
p2134
a(lp2135
(lp2136
I162
ag1909
aa(lp2137
I163
ag1911
aa(lp2138
I164
ag1926
aaaa(lp2139
I166
aI167
aS'be'
p2140
a(lp2141
(lp2142
I166
ag2011
aa(lp2143
I167
ag1929
aaaa(lp2144
I169
aI174
ag150
a(lp2145
(lp2146
I169
ag1909
aa(lp2147
I170
ag1911
aa(lp2148
I171
ag1924
aa(lp2149
I172
ag1937
aa(lp2150
I173
ag1929
aa(lp2151
I174
ag1995
aaaa(lp2152
I176
aI177
aS'by'
p2153
a(lp2154
(lp2155
I176
ag2011
aa(lp2156
I177
ag1959
aaaa(lp2157
I179
aI179
ag1911
a(lp2158
(lp2159
I179
ag1911
aaaa(lp2160
I181
aI187
ag159
a(lp2161
(lp2162
I181
ag2007
aa(lp2163
I182
ag1911
aa(lp2164
I183
ag1913
aa(lp2165
I184
ag1935
aa(lp2166
I185
ag1929
aa(lp2167
I186
ag1922
aa(lp2168
I187
ag1959
aaaa(lp2169
I189
aI190
aS'of'
p2170
a(lp2171
(lp2172
I189
ag1943
aa(lp2173
I190
ag1972
aaaa(lp2174
I192
aI200
ag168
a(lp2175
(lp2176
I192
ag1995
aa(lp2177
I193
ag1935
aa(lp2178
I194
ag1972
aa(lp2179
I195
ag1972
aa(lp2180
I196
ag1929
aa(lp2181
I197
ag1913
aa(lp2182
I198
ag1929
aa(lp2183
I199
ag1926
aa(lp2184
I200
ag1922
aaaa(lp2185
I202
aI209
ag177
a(lp2186
(lp2187
I202
ag1915
aa(lp2188
I203
ag1913
aa(lp2189
I204
ag1943
aa(lp2190
I205
ag2011
aa(lp2191
I206
ag1918
aa(lp2192
I207
ag1929
aa(lp2193
I208
ag1982
aa(lp2194
I209
ag1937
aaaa(lp2195
I212
aI215
ag186
a(lp2196
(lp2197
I212
ag1982
aa(lp2198
I213
ag1911
aa(lp2199
I214
ag1926
aa(lp2200
I215
ag1959
aaaa(lp2201
I217
aI221
ag195
a(lp2202
(lp2203
I217
ag1922
aa(lp2204
I218
ag1935
aa(lp2205
I219
ag1982
aa(lp2206
I220
ag1929
aa(lp2207
I221
ag1937
aaaa(lp2208
I223
aI224
aS'it'
p2209
a(lp2210
(lp2211
I223
ag1935
aa(lp2212
I224
ag1922
aaaa(lp2213
I226
aI227
aS'is'
p2214
a(lp2215
(lp2216
I226
ag1935
aa(lp2217
I227
ag1937
aaaa(lp2218
I229
aI234
ag204
a(lp2219
(lp2220
I229
ag1909
aa(lp2221
I230
ag1911
aa(lp2222
I231
ag1924
aa(lp2223
I232
ag1937
aa(lp2224
I233
ag1929
aa(lp2225
I234
ag1995
aaaa(lp2226
I236
aI237
aS'by'
p2227
a(lp2228
(lp2229
I236
ag2011
aa(lp2230
I237
ag1959
aaaa(lp2231
I239
aI244
ag213
a(lp2232
(lp2233
I239
ag1909
aa(lp2234
I240
ag1911
aa(lp2235
I241
ag1913
aa(lp2236
I242
ag1915
aa(lp2237
I243
ag1911
aa(lp2238
I244
ag1918
aaaa(lp2239
I246
aI251
ag222
a(lp2240
(lp2241
I246
ag1922
aa(lp2242
I247
ag1924
aa(lp2243
I248
ag1926
aa(lp2244
I249
ag1926
aa(lp2245
I250
ag1929
aa(lp2246
I251
ag1918
aaaa(lp2247
I253
aI260
ag231
a(lp2248
(lp2249
I253
ag1937
aa(lp2250
I254
ag1959
aa(lp2251
I255
ag1926
aa(lp2252
I256
ag1995
aa(lp2253
I257
ag1913
aa(lp2254
I258
ag1943
aa(lp2255
I259
ag1982
aa(lp2256
I260
ag1929
aaaa(lp2257
I263
aI269
ag240
a(lp2258
(lp2259
I263
ag1950
aa(lp2260
I264
ag1943
aa(lp2261
I265
ag1992
aa(lp2262
I266
ag1929
aa(lp2263
I267
ag2007
aa(lp2264
I268
ag1929
aa(lp2265
I269
ag1913
aaaa(lp2266
I272
aI273
aS'if'
p2267
a(lp2268
(lp2269
I272
ag1935
aa(lp2270
I273
ag1972
aaaa(lp2271
I275
aI277
aS'you'
p2272
a(lp2273
(lp2274
I275
ag1959
aa(lp2275
I276
ag1943
aa(lp2276
I277
ag1924
aaaa(lp2277
I279
aI281
aS'are'
p2278
a(lp2279
(lp2280
I279
ag1911
aa(lp2281
I280
ag1913
aa(lp2282
I281
ag1929
aaaa(lp2283
I283
aI289
ag249
a(lp2284
(lp2285
I283
ag1995
aa(lp2286
I284
ag1929
aa(lp2287
I285
ag1911
aa(lp2288
I286
ag1918
aa(lp2289
I287
ag1935
aa(lp2290
I288
ag1926
aa(lp2291
I289
ag2037
aaaa(lp2292
I291
aI294
aS'with'
p2293
a(lp2294
(lp2295
I291
ag1992
aa(lp2296
I292
ag1935
aa(lp2297
I293
ag1922
aa(lp2298
I294
ag1950
aaaa(lp2299
I296
aI299
ag258
a(lp2300
(lp2301
I296
ag1915
aa(lp2302
I297
ag1911
aa(lp2303
I298
ag1935
aa(lp2304
I299
ag1926
aaaa(lp2305
I301
aI302
aS'in'
p2306
a(lp2307
(lp2308
I301
ag1935
aa(lp2309
I302
ag1926
aaaa(lp2310
I304
aI307
aS'your'
p2311
a(lp2312
(lp2313
I304
ag1959
aa(lp2314
I305
ag1943
aa(lp2315
I306
ag1924
aa(lp2316
I307
ag1913
aaaa(lp2317
I309
aI315
ag267
a(lp2318
(lp2319
I309
ag1972
aa(lp2320
I310
ag1943
aa(lp2321
I311
ag1913
aa(lp2322
I312
ag1929
aa(lp2323
I313
ag1911
aa(lp2324
I314
ag1913
aa(lp2325
I315
ag1982
aaaa(lp2326
I318
aI320
aS'you'
p2327
a(lp2328
(lp2329
I318
ag1959
aa(lp2330
I319
ag1943
aa(lp2331
I320
ag1924
aaaa(lp2332
I322
aI325
ag276
a(lp2333
(lp2334
I322
ag1926
aa(lp2335
I323
ag1929
aa(lp2336
I324
ag1929
aa(lp2337
I325
ag1995
aaaa(lp2338
I327
aI328
aS'to'
p2339
a(lp2340
(lp2341
I327
ag1922
aa(lp2342
I328
ag1943
aaaa(lp2343
I330
aI339
ag285
a(lp2344
(lp2345
I330
ag1924
aa(lp2346
I331
ag1926
aa(lp2347
I332
ag1995
aa(lp2348
I333
ag1929
aa(lp2349
I334
ag1913
aa(lp2350
I335
ag1937
aa(lp2351
I336
ag1922
aa(lp2352
I337
ag1911
aa(lp2353
I338
ag1926
aa(lp2354
I339
ag1995
aaaa(lp2355
I341
aI344
aS'that'
p2356
a(lp2357
(lp2358
I341
ag1922
aa(lp2359
I342
ag1950
aa(lp2360
I343
ag1911
aa(lp2361
I344
ag1922
aaaa(lp2362
I346
aI351
ag294
a(lp2363
(lp2364
I346
ag1909
aa(lp2365
I347
ag1911
aa(lp2366
I348
ag1913
aa(lp2367
I349
ag1915
aa(lp2368
I350
ag1911
aa(lp2369
I351
ag1918
aaaa(lp2370
I353
aI358
ag303
a(lp2371
(lp2372
I353
ag1922
aa(lp2373
I354
ag1924
aa(lp2374
I355
ag1926
aa(lp2375
I356
ag1926
aa(lp2376
I357
ag1929
aa(lp2377
I358
ag1918
aaaa(lp2378
I360
aI367
ag312
a(lp2379
(lp2380
I360
ag1937
aa(lp2381
I361
ag1959
aa(lp2382
I362
ag1926
aa(lp2383
I363
ag1995
aa(lp2384
I364
ag1913
aa(lp2385
I365
ag1943
aa(lp2386
I366
ag1982
aa(lp2387
I367
ag1929
aaaa(lp2388
I369
aI370
aS'is'
p2389
a(lp2390
(lp2391
I369
ag1935
aa(lp2392
I370
ag1937
aaaa(lp2393
I372
aI374
aS'not'
p2394
a(lp2395
(lp2396
I372
ag1926
aa(lp2397
I373
ag1943
aa(lp2398
I374
ag1922
aaaa(lp2399
I376
aI381
ag321
a(lp2400
(lp2401
I376
ag1911
aa(lp2402
I377
ag1918
aa(lp2403
I378
ag1992
aa(lp2404
I379
ag1911
aa(lp2405
I380
ag1959
aa(lp2406
I381
ag1937
aaaa(lp2407
I383
aI385
aS'the'
p2408
a(lp2409
(lp2410
I383
ag1922
aa(lp2411
I384
ag1950
aa(lp2412
I385
ag1929
aaaa(lp2413
I387
aI393
ag330
a(lp2414
(lp2415
I387
ag1915
aa(lp2416
I388
ag1913
aa(lp2417
I389
ag1943
aa(lp2418
I390
ag2011
aa(lp2419
I391
ag1918
aa(lp2420
I392
ag1929
aa(lp2421
I393
ag1982
aaaa(lp2422
I396
aI400
aS'there'
p2423
a(lp2424
(lp2425
I396
ag1922
aa(lp2426
I397
ag1950
aa(lp2427
I398
ag1929
aa(lp2428
I399
ag1913
aa(lp2429
I400
ag1929
aaaa(lp2430
I402
aI404
aS'are'
p2431
a(lp2432
(lp2433
I402
ag1911
aa(lp2434
I403
ag1913
aa(lp2435
I404
ag1929
aaaa(lp2436
I406
aI409
ag339
a(lp2437
(lp2438
I406
ag1982
aa(lp2439
I407
ag1911
aa(lp2440
I408
ag1926
aa(lp2441
I409
ag1959
aaaa(lp2442
I411
aI415
aS'other'
p2443
a(lp2444
(lp2445
I411
ag1943
aa(lp2446
I412
ag1922
aa(lp2447
I413
ag1950
aa(lp2448
I414
ag1929
aa(lp2449
I415
ag1913
aaaa(lp2450
I417
aI422
ag348
a(lp2451
(lp2452
I417
ag1909
aa(lp2453
I418
ag1911
aa(lp2454
I419
ag1924
aa(lp2455
I420
ag1937
aa(lp2456
I421
ag1929
aa(lp2457
I422
ag1937
aaaa(lp2458
I424
aI425
aS'of'
p2459
a(lp2460
(lp2461
I424
ag1943
aa(lp2462
I425
ag1972
aaaa(lp2463
I427
aI433
ag357
a(lp2464
(lp2465
I427
ag1972
aa(lp2466
I428
ag1943
aa(lp2467
I429
ag1913
aa(lp2468
I430
ag1929
aa(lp2469
I431
ag1911
aa(lp2470
I432
ag1913
aa(lp2471
I433
ag1982
aaaa(lp2472
I435
aI438
ag366
a(lp2473
(lp2474
I435
ag1915
aa(lp2475
I436
ag1911
aa(lp2476
I437
ag1935
aa(lp2477
I438
ag1926
aaaa(lp2478
I440
aI443
aS'that'
p2479
a(lp2480
(lp2481
I440
ag1922
aa(lp2482
I441
ag1950
aa(lp2483
I442
ag1911
aa(lp2484
I443
ag1922
aaaa(lp2485
I445
aI447
aS'you'
p2486
a(lp2487
(lp2488
I445
ag1959
aa(lp2489
I446
ag1943
aa(lp2490
I447
ag1924
aaaa(lp2491
I449
aI454
aS'should'
p2492
a(lp2493
(lp2494
I449
ag1937
aa(lp2495
I450
ag1950
aa(lp2496
I451
ag1943
aa(lp2497
I452
ag1924
aa(lp2498
I453
ag1918
aa(lp2499
I454
ag1995
aaaa(lp2500
I456
aI457
aS'be'
p2501
a(lp2502
(lp2503
I456
ag2011
aa(lp2504
I457
ag1929
aaaa(lp2505
I459
aI463
ag375
a(lp2506
(lp2507
I459
ag1911
aa(lp2508
I460
ag1992
aa(lp2509
I461
ag1911
aa(lp2510
I462
ag1913
aa(lp2511
I463
ag1929
aaaa(lp2512
I465
aI466
aS'of'
p2513
a(lp2514
(lp2515
I465
ag1943
aa(lp2516
I466
ag1972
aaaa(lp2517
I469
aI472
aS'here'
p2518
a(lp2519
(lp2520
I469
ag1950
aa(lp2521
I470
ag1929
aa(lp2522
I471
ag1913
aa(lp2523
I472
ag1929
aaaa(lp2524
I474
aI475
aS'is'
p2525
a(lp2526
(lp2527
I474
ag1935
aa(lp2528
I475
ag1937
aaaa(lp2529
I477
aI477
ag1911
a(lp2530
(lp2531
I477
ag1911
aaaa(lp2532
I479
aI482
ag384
a(lp2533
(lp2534
I479
ag1918
aa(lp2535
I480
ag1943
aa(lp2536
I481
ag1943
aa(lp2537
I482
aS'k'
p2538
aaaa(lp2539
I484
aI485
aS'at'
p2540
a(lp2541
(lp2542
I484
ag1911
aa(lp2543
I485
ag1922
aaaa(lp2544
I487
aI490
aS'some'
p2545
a(lp2546
(lp2547
I487
ag1937
aa(lp2548
I488
ag1943
aa(lp2549
I489
ag1982
aa(lp2550
I490
ag1929
aaaa(lp2551
I492
aI493
aS'of'
p2552
a(lp2553
(lp2554
I492
ag1943
aa(lp2555
I493
ag1972
aaaa(lp2556
I495
aI497
aS'the'
p2557
a(lp2558
(lp2559
I495
ag1922
aa(lp2560
I496
ag1950
aa(lp2561
I497
ag1929
aaaa(lp2562
I499
aI506
ag393
a(lp2563
(lp2564
I499
ag1915
aa(lp2565
I500
ag1913
aa(lp2566
I501
ag1943
aa(lp2567
I502
ag2011
aa(lp2568
I503
ag1918
aa(lp2569
I504
ag1929
aa(lp2570
I505
ag1982
aa(lp2571
I506
ag1937
aaaa(lp2572
I509
aI513
aS'other'
p2573
a(lp2574
(lp2575
I509
ag1943
aa(lp2576
I510
ag1922
aa(lp2577
I511
ag1950
aa(lp2578
I512
ag1929
aa(lp2579
I513
ag1913
aaaa(lp2580
I515
aI518
aS'than'
p2581
a(lp2582
(lp2583
I515
ag1922
aa(lp2584
I516
ag1950
aa(lp2585
I517
ag1911
aa(lp2586
I518
ag1926
aaaa(lp2587
I520
aI525
ag402
a(lp2588
(lp2589
I520
ag1909
aa(lp2590
I521
ag1911
aa(lp2591
I522
ag1913
aa(lp2592
I523
ag1915
aa(lp2593
I524
ag1911
aa(lp2594
I525
ag1918
aaaa(lp2595
I527
aI532
ag411
a(lp2596
(lp2597
I527
ag1922
aa(lp2598
I528
ag1924
aa(lp2599
I529
ag1926
aa(lp2600
I530
ag1926
aa(lp2601
I531
ag1929
aa(lp2602
I532
ag1918
aaaa(lp2603
I534
aI541
ag420
a(lp2604
(lp2605
I534
ag1937
aa(lp2606
I535
ag1959
aa(lp2607
I536
ag1926
aa(lp2608
I537
ag1995
aa(lp2609
I538
ag1913
aa(lp2610
I539
ag1943
aa(lp2611
I540
ag1982
aa(lp2612
I541
ag1929
aaaa(lp2613
I544
aI547
aS'that'
p2614
a(lp2615
(lp2616
I544
ag1922
aa(lp2617
I545
ag1950
aa(lp2618
I546
ag1911
aa(lp2619
I547
ag1922
aaaa(lp2620
I549
aI551
aS'can'
p2621
a(lp2622
(lp2623
I549
ag1909
aa(lp2624
I550
ag1911
aa(lp2625
I551
ag1926
aaaa(lp2626
I553
aI554
aS'be'
p2627
a(lp2628
(lp2629
I553
ag2011
aa(lp2630
I554
ag1929
aaaa(lp2631
I556
aI562
ag429
a(lp2632
(lp2633
I556
ag1909
aa(lp2634
I557
ag1911
aa(lp2635
I558
ag1924
aa(lp2636
I559
ag1937
aa(lp2637
I560
ag1935
aa(lp2638
I561
ag1926
aa(lp2639
I562
ag2037
aaaa(lp2640
I564
aI566
aS'the'
p2641
a(lp2642
(lp2643
I564
ag1922
aa(lp2644
I565
ag1950
aa(lp2645
I566
ag1929
aaaa(lp2646
I568
aI571
ag438
a(lp2647
(lp2648
I568
ag1915
aa(lp2649
I569
ag1911
aa(lp2650
I570
ag1935
aa(lp2651
I571
ag1926
aaaa(lp2652
I573
aI575
aS'you'
p2653
a(lp2654
(lp2655
I573
ag1959
aa(lp2656
I574
ag1943
aa(lp2657
I575
ag1924
aaaa(lp2658
I577
aI580
aS'have'
p2659
a(lp2660
(lp2661
I577
ag1950
aa(lp2662
I578
ag1911
aa(lp2663
I579
ag2007
aa(lp2664
I580
ag1929
aaaa(lp2665
I582
aI583
aS'in'
p2666
a(lp2667
(lp2668
I582
ag1935
aa(lp2669
I583
ag1926
aaaa(lp2670
I585
aI588
aS'your'
p2671
a(lp2672
(lp2673
I585
ag1959
aa(lp2674
I586
ag1943
aa(lp2675
I587
ag1924
aa(lp2676
I588
ag1913
aaaa(lp2677
I590
aI596
ag447
a(lp2678
(lp2679
I590
ag1972
aa(lp2680
I591
ag1943
aa(lp2681
I592
ag1913
aa(lp2682
I593
ag1929
aa(lp2683
I594
ag1911
aa(lp2684
I595
ag1913
aa(lp2685
I596
ag1982
aaaa(lp2686
I599
aI604
ag456
a(lp2687
(lp2688
I599
ag1935
aa(lp2689
I600
ag1926
aa(lp2690
I601
aS'j'
p2691
aa(lp2692
I602
ag1924
aa(lp2693
I603
ag1913
aa(lp2694
I604
ag1959
aaaa(lp2695
I606
aI607
aS'to'
p2696
a(lp2697
(lp2698
I606
ag1922
aa(lp2699
I607
ag1943
aaaa(lp2700
I609
aI611
aS'the'
p2701
a(lp2702
(lp2703
I609
ag1922
aa(lp2704
I610
ag1950
aa(lp2705
I611
ag1929
aaaa(lp2706
I613
aI619
ag465
a(lp2707
(lp2708
I613
ag1972
aa(lp2709
I614
ag1943
aa(lp2710
I615
ag1913
aa(lp2711
I616
ag1929
aa(lp2712
I617
ag1911
aa(lp2713
I618
ag1913
aa(lp2714
I619
ag1982
aaaa(lp2715
I621
aI623
ag474
a(lp2716
(lp2717
I621
ag1943
aa(lp2718
I622
ag1926
aa(lp2719
I623
ag1929
aaaa(lp2720
I625
aI629
ag483
a(lp2721
(lp2722
I625
ag1909
aa(lp2723
I626
ag1911
aa(lp2724
I627
ag1924
aa(lp2725
I628
ag1937
aa(lp2726
I629
ag1929
aaaa(lp2727
I631
aI632
aS'of'
p2728
a(lp2729
(lp2730
I631
ag1943
aa(lp2731
I632
ag1972
aaaa(lp2732
I634
aI637
ag492
a(lp2733
(lp2734
I634
ag1915
aa(lp2735
I635
ag1911
aa(lp2736
I636
ag1935
aa(lp2737
I637
ag1926
aaaa(lp2738
I639
aI640
aS'in'
p2739
a(lp2740
(lp2741
I639
ag1935
aa(lp2742
I640
ag1926
aaaa(lp2743
I642
aI644
aS'the'
p2744
a(lp2745
(lp2746
I642
ag1922
aa(lp2747
I643
ag1950
aa(lp2748
I644
ag1929
aaaa(lp2749
I646
aI652
ag501
a(lp2750
(lp2751
I646
ag1972
aa(lp2752
I647
ag1943
aa(lp2753
I648
ag1913
aa(lp2754
I649
ag1929
aa(lp2755
I650
ag1911
aa(lp2756
I651
ag1913
aa(lp2757
I652
ag1982
aaaa(lp2758
I654
aI657
ag510
a(lp2759
(lp2760
I654
ag1911
aa(lp2761
I655
ag1913
aa(lp2762
I656
ag1929
aa(lp2763
I657
ag1911
aaaa(lp2764
I659
aI661
aS'can'
p2765
a(lp2766
(lp2767
I659
ag1909
aa(lp2768
I660
ag1911
aa(lp2769
I661
ag1926
aaaa(lp2770
I663
aI664
aS'be'
p2771
a(lp2772
(lp2773
I663
ag2011
aa(lp2774
I664
ag1929
aaaa(lp2775
I666
aI667
aS'an'
p2776
a(lp2777
(lp2778
I666
ag1911
aa(lp2779
I667
ag1926
aaaa(lp2780
I669
aI674
ag519
a(lp2781
(lp2782
I669
ag1935
aa(lp2783
I670
ag1926
aa(lp2784
I671
ag2691
aa(lp2785
I672
ag1924
aa(lp2786
I673
ag1913
aa(lp2787
I674
ag1959
aaaa(lp2788
I676
aI677
aS'to'
p2789
a(lp2790
(lp2791
I676
ag1922
aa(lp2792
I677
ag1943
aaaa(lp2793
I679
aI681
aS'the'
p2794
a(lp2795
(lp2796
I679
ag1922
aa(lp2797
I680
ag1950
aa(lp2798
I681
ag1929
aaaa(lp2799
I683
aI689
ag528
a(lp2800
(lp2801
I683
ag1972
aa(lp2802
I684
ag1943
aa(lp2803
I685
ag1913
aa(lp2804
I686
ag1929
aa(lp2805
I687
ag1911
aa(lp2806
I688
ag1913
aa(lp2807
I689
ag1982
aaaa(lp2808
I692
aI697
aS'before'
p2809
a(lp2810
(lp2811
I692
ag2011
aa(lp2812
I693
ag1929
aa(lp2813
I694
ag1972
aa(lp2814
I695
ag1943
aa(lp2815
I696
ag1913
aa(lp2816
I697
ag1929
aaaa(lp2817
I699
aI701
aS'you'
p2818
a(lp2819
(lp2820
I699
ag1959
aa(lp2821
I700
ag1943
aa(lp2822
I701
ag1924
aaaa(lp2823
I703
aI708
ag537
a(lp2824
(lp2825
I703
ag1995
aa(lp2826
I704
ag1929
aa(lp2827
I705
ag1909
aa(lp2828
I706
ag1935
aa(lp2829
I707
ag1995
aa(lp2830
I708
ag1929
aaaa(lp2831
I710
aI712
aS'you'
p2832
a(lp2833
(lp2834
I710
ag1959
aa(lp2835
I711
ag1943
aa(lp2836
I712
ag1924
aaaa(lp2837
I714
aI716
aS'are'
p2838
a(lp2839
(lp2840
I714
ag1911
aa(lp2841
I715
ag1913
aa(lp2842
I716
ag1929
aaaa(lp2843
I718
aI721
aS'only'
p2844
a(lp2845
(lp2846
I718
ag1943
aa(lp2847
I719
ag1926
aa(lp2848
I720
ag1918
aa(lp2849
I721
ag1959
aaaa(lp2850
I723
aI729
ag546
a(lp2851
(lp2852
I723
ag1995
aa(lp2853
I724
ag1929
aa(lp2854
I725
ag1911
aa(lp2855
I726
ag1918
aa(lp2856
I727
ag1935
aa(lp2857
I728
ag1926
aa(lp2858
I729
ag2037
aaaa(lp2859
I731
aI734
aS'with'
p2860
a(lp2861
(lp2862
I731
ag1992
aa(lp2863
I732
ag1935
aa(lp2864
I733
ag1922
aa(lp2865
I734
ag1950
aaaa(lp2866
I736
aI739
aS'some'
p2867
a(lp2868
(lp2869
I736
ag1937
aa(lp2870
I737
ag1943
aa(lp2871
I738
ag1982
aa(lp2872
I739
ag1929
aaaa(lp2873
I741
aI746
ag555
a(lp2874
(lp2875
I741
ag1909
aa(lp2876
I742
ag1911
aa(lp2877
I743
ag1913
aa(lp2878
I744
ag1915
aa(lp2879
I745
ag1911
aa(lp2880
I746
ag1918
aaaa(lp2881
I748
aI753
ag564
a(lp2882
(lp2883
I748
ag1922
aa(lp2884
I749
ag1924
aa(lp2885
I750
ag1926
aa(lp2886
I751
ag1926
aa(lp2887
I752
ag1929
aa(lp2888
I753
ag1918
aaaa(lp2889
I755
aI758
ag573
a(lp2890
(lp2891
I755
ag1915
aa(lp2892
I756
ag1911
aa(lp2893
I757
ag1935
aa(lp2894
I758
ag1926
aaaa(lp2895
I761
aI763
aS'you'
p2896
a(lp2897
(lp2898
I761
ag1959
aa(lp2899
I762
ag1943
aa(lp2900
I763
ag1924
aaaa(lp2901
I765
aI768
aS'will'
p2902
a(lp2903
(lp2904
I765
ag1992
aa(lp2905
I766
ag1935
aa(lp2906
I767
ag1918
aa(lp2907
I768
ag1918
aaaa(lp2908
I770
aI773
ag582
a(lp2909
(lp2910
I770
ag1992
aa(lp2911
I771
ag1911
aa(lp2912
I772
ag1926
aa(lp2913
I773
ag1922
aaaa(lp2914
I775
aI776
aS'to'
p2915
a(lp2916
(lp2917
I775
ag1922
aa(lp2918
I776
ag1943
aaaa(lp2919
I778
aI781
ag591
a(lp2920
(lp2921
I778
ag1922
aa(lp2922
I779
ag1911
aa(lp2923
I780
ag2538
aa(lp2924
I781
ag1929
aaaa(lp2925
I783
aI783
ag1911
a(lp2926
(lp2927
I783
ag1911
aaaa(lp2928
I785
aI787
aS'few'
p2929
a(lp2930
(lp2931
I785
ag1972
aa(lp2932
I786
ag1929
aa(lp2933
I787
ag1992
aaaa(lp2934
I789
aI795
ag600
a(lp2935
(lp2936
I789
ag1982
aa(lp2937
I790
ag1935
aa(lp2938
I791
ag1926
aa(lp2939
I792
ag1924
aa(lp2940
I793
ag1922
aa(lp2941
I794
ag1929
aa(lp2942
I795
ag1937
aaaa(lp2943
I797
aI798
aS'to'
p2944
a(lp2945
(lp2946
I797
ag1922
aa(lp2947
I798
ag1943
aaaa(lp2948
I800
aI804
ag609
a(lp2949
(lp2950
I800
ag1922
aa(lp2951
I801
ag1950
aa(lp2952
I802
ag1935
aa(lp2953
I803
ag1926
aa(lp2954
I804
ag2538
aaaa(lp2955
I807
aI810
aS'have'
p2956
a(lp2957
(lp2958
I807
ag1950
aa(lp2959
I808
ag1911
aa(lp2960
I809
ag2007
aa(lp2961
I810
ag1929
aaaa(lp2962
I812
aI814
aS'you'
p2963
a(lp2964
(lp2965
I812
ag1959
aa(lp2966
I813
ag1943
aa(lp2967
I814
ag1924
aaaa(lp2968
I816
aI822
ag618
a(lp2969
(lp2970
I816
ag1935
aa(lp2971
I817
ag1926
aa(lp2972
I818
ag2691
aa(lp2973
I819
ag1924
aa(lp2974
I820
ag1913
aa(lp2975
I821
ag1929
aa(lp2976
I822
ag1995
aaaa(lp2977
I824
aI826
aS'the'
p2978
a(lp2979
(lp2980
I824
ag1922
aa(lp2981
I825
ag1950
aa(lp2982
I826
ag1929
aaaa(lp2983
I828
aI834
ag627
a(lp2984
(lp2985
I828
ag1972
aa(lp2986
I829
ag1943
aa(lp2987
I830
ag1913
aa(lp2988
I831
ag1929
aa(lp2989
I832
ag1911
aa(lp2990
I833
ag1913
aa(lp2991
I834
ag1982
aaaa(lp2992
I836
aI837
aS'in'
p2993
a(lp2994
(lp2995
I836
ag1935
aa(lp2996
I837
ag1926
aaaa(lp2997
I839
aI841
aS'any'
p2998
a(lp2999
(lp3000
I839
ag1911
aa(lp3001
I840
ag1926
aa(lp3002
I841
ag1959
aaaa(lp3003
I843
aI845
ag636
a(lp3004
(lp3005
I843
ag1992
aa(lp3006
I844
ag1911
aa(lp3007
I845
ag1959
aaaa(lp3008
I848
aI850
aS'did'
p3009
a(lp3010
(lp3011
I848
ag1995
aa(lp3012
I849
ag1935
aa(lp3013
I850
ag1995
aaaa(lp3014
I852
aI854
aS'you'
p3015
a(lp3016
(lp3017
I852
ag1959
aa(lp3018
I853
ag1943
aa(lp3019
I854
ag1924
aaaa(lp3020
I856
aI859
ag645
a(lp3021
(lp3022
I856
ag1922
aa(lp3023
I857
ag1911
aa(lp3024
I858
ag2538
aa(lp3025
I859
ag1929
aaaa(lp3026
I861
aI861
ag1911
a(lp3027
(lp3028
I861
ag1911
aaaa(lp3029
I863
aI866
ag654
a(lp3030
(lp3031
I863
ag1972
aa(lp3032
I864
ag1911
aa(lp3033
I865
ag1918
aa(lp3034
I866
ag1918
aaaa(lp3035
I868
aI869
aS'or'
p3036
a(lp3037
(lp3038
I868
ag1943
aa(lp3039
I869
ag1913
aaaa(lp3040
I871
aI877
ag663
a(lp3041
(lp3042
I871
ag1915
aa(lp3043
I872
ag1929
aa(lp3044
I873
ag1913
aa(lp3045
I874
ag1950
aa(lp3046
I875
ag1911
aa(lp3047
I876
ag1915
aa(lp3048
I877
ag1937
aaaa(lp3049
I879
aI881
aS'did'
p3050
a(lp3051
(lp3052
I879
ag1995
aa(lp3053
I880
ag1935
aa(lp3054
I881
ag1995
aaaa(lp3055
I883
aI885
aS'you'
p3056
a(lp3057
(lp3058
I883
ag1959
aa(lp3059
I884
ag1943
aa(lp3060
I885
ag1924
aaaa(lp3061
I887
aI898
ag672
a(lp3062
(lp3063
I887
ag1911
aa(lp3064
I888
ag1909
aa(lp3065
I889
ag1909
aa(lp3066
I890
ag1935
aa(lp3067
I891
ag1995
aa(lp3068
I892
ag1929
aa(lp3069
I893
ag1926
aa(lp3070
I894
ag1922
aa(lp3071
I895
ag1911
aa(lp3072
I896
ag1918
aa(lp3073
I897
ag1918
aa(lp3074
I898
ag1959
aaaa(lp3075
I900
aI902
ag681
a(lp3076
(lp3077
I900
ag1950
aa(lp3078
I901
ag1935
aa(lp3079
I902
ag1922
aaaa(lp3080
I904
aI906
aS'the'
p3081
a(lp3082
(lp3083
I904
ag1922
aa(lp3084
I905
ag1950
aa(lp3085
I906
ag1929
aaaa(lp3086
I908
aI914
ag690
a(lp3087
(lp3088
I908
ag1972
aa(lp3089
I909
ag1943
aa(lp3090
I910
ag1913
aa(lp3091
I911
ag1929
aa(lp3092
I912
ag1911
aa(lp3093
I913
ag1913
aa(lp3094
I914
ag1982
aaaa(lp3095
I916
aI917
aS'on'
p3096
a(lp3097
(lp3098
I916
ag1943
aa(lp3099
I917
ag1926
aaaa(lp3100
I919
aI927
ag699
a(lp3101
(lp3102
I919
ag1937
aa(lp3103
I920
ag1943
aa(lp3104
I921
ag1982
aa(lp3105
I922
ag1929
aa(lp3106
I923
ag1922
aa(lp3107
I924
ag1950
aa(lp3108
I925
ag1935
aa(lp3109
I926
ag1926
aa(lp3110
I927
ag2037
aaaa(lp3111
I930
aI936
ag708
a(lp3112
(lp3113
I930
ag1915
aa(lp3114
I931
ag1929
aa(lp3115
I932
ag1913
aa(lp3116
I933
ag1950
aa(lp3117
I934
ag1911
aa(lp3118
I935
ag1915
aa(lp3119
I936
ag1937
aaaa(lp3120
I938
aI940
aS'you'
p3121
a(lp3122
(lp3123
I938
ag1959
aa(lp3124
I939
ag1943
aa(lp3125
I940
ag1924
aaaa(lp3126
I942
aI945
ag717
a(lp3127
(lp3128
I942
ag1929
aa(lp3129
I943
ag2007
aa(lp3130
I944
ag1929
aa(lp3131
I945
ag1926
aaaa(lp3132
I947
aI952
ag726
a(lp3133
(lp3134
I947
ag1915
aa(lp3135
I948
ag1924
aa(lp3136
I949
ag1918
aa(lp3137
I950
ag1918
aa(lp3138
I951
ag1929
aa(lp3139
I952
ag1995
aaaa(lp3140
I954
aI954
ag1911
a(lp3141
(lp3142
I954
ag1911
aaaa(lp3143
I956
aI961
ag735
a(lp3144
(lp3145
I956
ag1982
aa(lp3146
I957
ag1924
aa(lp3147
I958
ag1937
aa(lp3148
I959
ag1909
aa(lp3149
I960
ag1918
aa(lp3150
I961
ag1929
aaaa(lp3151
I963
aI964
aS'or'
p3152
a(lp3153
(lp3154
I963
ag1943
aa(lp3155
I964
ag1913
aaaa(lp3156
I966
aI971
ag744
a(lp3157
(lp3158
I966
ag1922
aa(lp3159
I967
ag1929
aa(lp3160
I968
ag1926
aa(lp3161
I969
ag1995
aa(lp3162
I970
ag1943
aa(lp3163
I971
ag1926
aaaa(lp3164
I974
aI978
aS'these'
p3165
a(lp3166
(lp3167
I974
ag1922
aa(lp3168
I975
ag1950
aa(lp3169
I976
ag1929
aa(lp3170
I977
ag1937
aa(lp3171
I978
ag1929
aaaa(lp3172
I980
aI982
aS'are'
p3173
a(lp3174
(lp3175
I980
ag1911
aa(lp3176
I981
ag1913
aa(lp3177
I982
ag1929
aaaa(lp3178
I984
aI989
ag753
a(lp3179
(lp3180
I984
ag1909
aa(lp3181
I985
ag1943
aa(lp3182
I986
ag1982
aa(lp3183
I987
ag1982
aa(lp3184
I988
ag1943
aa(lp3185
I989
ag1926
aaaa(lp3186
I991
aI998
ag762
a(lp3187
(lp3188
I991
ag1915
aa(lp3189
I992
ag1913
aa(lp3190
I993
ag1943
aa(lp3191
I994
ag2011
aa(lp3192
I995
ag1918
aa(lp3193
I996
ag1929
aa(lp3194
I997
ag1982
aa(lp3195
I998
ag1937
aaaa(lp3196
I1000
aI1003
aS'that'
p3197
a(lp3198
(lp3199
I1000
ag1922
aa(lp3200
I1001
ag1950
aa(lp3201
I1002
ag1911
aa(lp3202
I1003
ag1922
aaaa(lp3203
I1005
aI1007
aS'can'
p3204
a(lp3205
(lp3206
I1005
ag1909
aa(lp3207
I1006
ag1911
aa(lp3208
I1007
ag1926
aaaa(lp3209
I1009
aI1013
ag771
a(lp3210
(lp3211
I1009
ag1943
aa(lp3212
I1010
ag1909
aa(lp3213
I1011
ag1909
aa(lp3214
I1012
ag1924
aa(lp3215
I1013
ag1913
aaaa(lp3216
I1015
aI1018
aS'that'
p3217
a(lp3218
(lp3219
I1015
ag1922
aa(lp3220
I1016
ag1950
aa(lp3221
I1017
ag1911
aa(lp3222
I1018
ag1922
aaaa(lp3223
I1020
aI1024
ag780
a(lp3224
(lp3225
I1020
ag1909
aa(lp3226
I1021
ag1911
aa(lp3227
I1022
ag1924
aa(lp3228
I1023
ag1937
aa(lp3229
I1024
ag1929
aaaa(lp3230
I1026
aI1029
aS'this'
p3231
a(lp3232
(lp3233
I1026
ag1922
aa(lp3234
I1027
ag1950
aa(lp3235
I1028
ag1935
aa(lp3236
I1029
ag1937
aaaa(lp3237
I1031
aI1034
ag789
a(lp3238
(lp3239
I1031
ag1922
aa(lp3240
I1032
ag1959
aa(lp3241
I1033
ag1915
aa(lp3242
I1034
ag1929
aaaa(lp3243
I1036
aI1037
aS'of'
p3244
a(lp3245
(lp3246
I1036
ag1943
aa(lp3247
I1037
ag1972
aaaa(lp3248
I1039
aI1042
ag798
a(lp3249
(lp3250
I1039
ag1915
aa(lp3251
I1040
ag1911
aa(lp3252
I1041
ag1935
aa(lp3253
I1042
ag1926
aaaa(lp3254
I1045
aI1054
ag807
a(lp3255
(lp3256
I1045
ag1915
aa(lp3257
I1046
ag1929
aa(lp3258
I1047
ag1913
aa(lp3259
I1048
ag1935
aa(lp3260
I1049
ag1915
aa(lp3261
I1050
ag1950
aa(lp3262
I1051
ag1929
aa(lp3263
I1052
ag1913
aa(lp3264
I1053
ag1911
aa(lp3265
I1054
ag1918
aaaa(lp3266
I1056
aI1065
ag816
a(lp3267
(lp3268
I1056
ag1926
aa(lp3269
I1057
ag1929
aa(lp3270
I1058
ag1924
aa(lp3271
I1059
ag1913
aa(lp3272
I1060
ag1943
aa(lp3273
I1061
ag1915
aa(lp3274
I1062
ag1911
aa(lp3275
I1063
ag1922
aa(lp3276
I1064
ag1950
aa(lp3277
I1065
ag1959
aaaa(lp3278
I1067
aI1073
ag825
a(lp3279
(lp3280
I1067
ag1911
aa(lp3281
I1068
ag1926
aa(lp3282
I1069
ag1943
aa(lp3283
I1070
ag1922
aa(lp3284
I1071
ag1950
aa(lp3285
I1072
ag1929
aa(lp3286
I1073
ag1913
aaaa(lp3287
I1075
aI1080
ag834
a(lp3288
(lp3289
I1075
ag1909
aa(lp3290
I1076
ag1943
aa(lp3291
I1077
ag1982
aa(lp3292
I1078
ag1982
aa(lp3293
I1079
ag1943
aa(lp3294
I1080
ag1926
aaaa(lp3295
I1082
aI1088
ag843
a(lp3296
(lp3297
I1082
ag1915
aa(lp3298
I1083
ag1913
aa(lp3299
I1084
ag1943
aa(lp3300
I1085
ag2011
aa(lp3301
I1086
ag1918
aa(lp3302
I1087
ag1929
aa(lp3303
I1088
ag1982
aaaa(lp3304
I1090
aI1093
aS'that'
p3305
a(lp3306
(lp3307
I1090
ag1922
aa(lp3308
I1091
ag1950
aa(lp3309
I1092
ag1911
aa(lp3310
I1093
ag1922
aaaa(lp3311
I1095
aI1097
aS'can'
p3312
a(lp3313
(lp3314
I1095
ag1909
aa(lp3315
I1096
ag1911
aa(lp3316
I1097
ag1926
aaaa(lp3317
I1099
aI1100
aS'be'
p3318
a(lp3319
(lp3320
I1099
ag2011
aa(lp3321
I1100
ag1929
aaaa(lp3322
I1102
aI1104
aS'the'
p3323
a(lp3324
(lp3325
I1102
ag1922
aa(lp3326
I1103
ag1950
aa(lp3327
I1104
ag1929
aaaa(lp3328
I1106
aI1110
ag852
a(lp3329
(lp3330
I1106
ag1909
aa(lp3331
I1107
ag1911
aa(lp3332
I1108
ag1924
aa(lp3333
I1109
ag1937
aa(lp3334
I1110
ag1929
aaaa(lp3335
I1112
aI1113
aS'of'
p3336
a(lp3337
(lp3338
I1112
ag1943
aa(lp3339
I1113
ag1972
aaaa(lp3340
I1115
aI1118
ag861
a(lp3341
(lp3342
I1115
ag1915
aa(lp3343
I1116
ag1911
aa(lp3344
I1117
ag1935
aa(lp3345
I1118
ag1926
aaaa(lp3346
I1120
aI1121
aS'in'
p3347
a(lp3348
(lp3349
I1120
ag1935
aa(lp3350
I1121
ag1926
aaaa(lp3351
I1123
aI1125
aS'the'
p3352
a(lp3353
(lp3354
I1123
ag1922
aa(lp3355
I1124
ag1950
aa(lp3356
I1125
ag1929
aaaa(lp3357
I1127
aI1133
ag870
a(lp3358
(lp3359
I1127
ag1972
aa(lp3360
I1128
ag1943
aa(lp3361
I1129
ag1913
aa(lp3362
I1130
ag1929
aa(lp3363
I1131
ag1911
aa(lp3364
I1132
ag1913
aa(lp3365
I1133
ag1982
aaaa(lp3366
I1135
aI1136
aS'is'
p3367
a(lp3368
(lp3369
I1135
ag1935
aa(lp3370
I1136
ag1937
aaaa(lp3371
I1138
aI1147
ag879
a(lp3372
(lp3373
I1138
ag1915
aa(lp3374
I1139
ag1929
aa(lp3375
I1140
ag1913
aa(lp3376
I1141
ag1935
aa(lp3377
I1142
ag1915
aa(lp3378
I1143
ag1950
aa(lp3379
I1144
ag1929
aa(lp3380
I1145
ag1913
aa(lp3381
I1146
ag1911
aa(lp3382
I1147
ag1918
aaaa(lp3383
I1149
aI1158
ag888
a(lp3384
(lp3385
I1149
ag1926
aa(lp3386
I1150
ag1929
aa(lp3387
I1151
ag1924
aa(lp3388
I1152
ag1913
aa(lp3389
I1153
ag1943
aa(lp3390
I1154
ag1915
aa(lp3391
I1155
ag1911
aa(lp3392
I1156
ag1922
aa(lp3393
I1157
ag1950
aa(lp3394
I1158
ag1959
aaaa(lp3395
I1161
aI1164
aS'this'
p3396
a(lp3397
(lp3398
I1161
ag1922
aa(lp3399
I1162
ag1950
aa(lp3400
I1163
ag1935
aa(lp3401
I1164
ag1937
aaaa(lp3402
I1166
aI1167
aS'is'
p3403
a(lp3404
(lp3405
I1166
ag1935
aa(lp3406
I1167
ag1937
aaaa(lp3407
I1169
aI1169
ag1911
a(lp3408
(lp3409
I1169
ag1911
aaaa(lp3410
I1171
aI1177
ag897
a(lp3411
(lp3412
I1171
ag1915
aa(lp3413
I1172
ag1913
aa(lp3414
I1173
ag1943
aa(lp3415
I1174
ag2011
aa(lp3416
I1175
ag1918
aa(lp3417
I1176
ag1929
aa(lp3418
I1177
ag1982
aaaa(lp3419
I1179
aI1182
aS'that'
p3420
a(lp3421
(lp3422
I1179
ag1922
aa(lp3423
I1180
ag1950
aa(lp3424
I1181
ag1911
aa(lp3425
I1182
ag1922
aaaa(lp3426
I1184
aI1189
ag906
a(lp3427
(lp3428
I1184
ag1943
aa(lp3429
I1185
ag1909
aa(lp3430
I1186
ag1909
aa(lp3431
I1187
ag1924
aa(lp3432
I1188
ag1913
aa(lp3433
I1189
ag1937
aaaa(lp3434
I1191
aI1194
aS'when'
p3435
a(lp3436
(lp3437
I1191
ag1992
aa(lp3438
I1192
ag1950
aa(lp3439
I1193
ag1929
aa(lp3440
I1194
ag1926
aaaa(lp3441
I1196
aI1200
aS'there'
p3442
a(lp3443
(lp3444
I1196
ag1922
aa(lp3445
I1197
ag1950
aa(lp3446
I1198
ag1929
aa(lp3447
I1199
ag1913
aa(lp3448
I1200
ag1929
aaaa(lp3449
I1202
aI1203
aS'is'
p3450
a(lp3451
(lp3452
I1202
ag1935
aa(lp3453
I1203
ag1937
aaaa(lp3454
I1205
aI1210
ag915
a(lp3455
(lp3456
I1205
ag1995
aa(lp3457
I1206
ag1911
aa(lp3458
I1207
ag1982
aa(lp3459
I1208
ag1911
aa(lp3460
I1209
ag2037
aa(lp3461
I1210
ag1929
aaaa(lp3462
I1212
aI1213
aS'to'
p3463
a(lp3464
(lp3465
I1212
ag1922
aa(lp3466
I1213
ag1943
aaaa(lp3467
I1215
aI1220
ag924
a(lp3468
(lp3469
I1215
ag1926
aa(lp3470
I1216
ag1929
aa(lp3471
I1217
ag1913
aa(lp3472
I1218
ag2007
aa(lp3473
I1219
ag1929
aa(lp3474
I1220
ag1937
aaaa(lp3475
I1222
aI1225
aS'that'
p3476
a(lp3477
(lp3478
I1222
ag1922
aa(lp3479
I1223
ag1950
aa(lp3480
I1224
ag1911
aa(lp3481
I1225
ag1922
aaaa(lp3482
I1227
aI1229
aS'are'
p3483
a(lp3484
(lp3485
I1227
ag1911
aa(lp3486
I1228
ag1913
aa(lp3487
I1229
ag1929
aaaa(lp3488
I1231
aI1240
ag933
a(lp3489
(lp3490
I1231
ag1915
aa(lp3491
I1232
ag1929
aa(lp3492
I1233
ag1913
aa(lp3493
I1234
ag1935
aa(lp3494
I1235
ag1915
aa(lp3495
I1236
ag1950
aa(lp3496
I1237
ag1929
aa(lp3497
I1238
ag1913
aa(lp3498
I1239
ag1911
aa(lp3499
I1240
ag1918
aaaa(lp3500
I1243
aI1247
ag942
a(lp3501
(lp3502
I1243
ag1943
aa(lp3503
I1244
ag1972
aa(lp3504
I1245
ag1922
aa(lp3505
I1246
ag1929
aa(lp3506
I1247
ag1926
aaaa(lp3507
I1249
aI1252
aS'this'
p3508
a(lp3509
(lp3510
I1249
ag1922
aa(lp3511
I1250
ag1950
aa(lp3512
I1251
ag1935
aa(lp3513
I1252
ag1937
aaaa(lp3514
I1254
aI1260
ag951
a(lp3515
(lp3516
I1254
ag1915
aa(lp3517
I1255
ag1913
aa(lp3518
I1256
ag1943
aa(lp3519
I1257
ag2011
aa(lp3520
I1258
ag1918
aa(lp3521
I1259
ag1929
aa(lp3522
I1260
ag1982
aaaa(lp3523
I1262
aI1263
aS'is'
p3524
a(lp3525
(lp3526
I1262
ag1935
aa(lp3527
I1263
ag1937
aaaa(lp3528
I1265
aI1270
ag960
a(lp3529
(lp3530
I1265
ag1909
aa(lp3531
I1266
ag1911
aa(lp3532
I1267
ag1924
aa(lp3533
I1268
ag1937
aa(lp3534
I1269
ag1929
aa(lp3535
I1270
ag1995
aaaa(lp3536
I1272
aI1273
aS'by'
p3537
a(lp3538
(lp3539
I1272
ag2011
aa(lp3540
I1273
ag1959
aaaa(lp3541
I1275
aI1282
ag969
a(lp3542
(lp3543
I1275
ag1995
aa(lp3544
I1276
ag1935
aa(lp3545
I1277
ag1911
aa(lp3546
I1278
ag2011
aa(lp3547
I1279
ag1929
aa(lp3548
I1280
ag1922
aa(lp3549
I1281
ag1929
aa(lp3550
I1282
ag1937
aaaa(lp3551
I1284
aI1286
aS'and'
p3552
a(lp3553
(lp3554
I1284
ag1911
aa(lp3555
I1285
ag1926
aa(lp3556
I1286
ag1995
aaaa(lp3557
I1288
aI1290
aS'can'
p3558
a(lp3559
(lp3560
I1288
ag1909
aa(lp3561
I1289
ag1911
aa(lp3562
I1290
ag1926
aaaa(lp3563
I1292
aI1296
ag978
a(lp3564
(lp3565
I1292
ag1943
aa(lp3566
I1293
ag1909
aa(lp3567
I1294
ag1909
aa(lp3568
I1295
ag1924
aa(lp3569
I1296
ag1913
aaaa(lp3570
I1298
aI1299
aS'to'
p3571
a(lp3572
(lp3573
I1298
ag1922
aa(lp3574
I1299
ag1943
aaaa(lp3575
I1301
aI1303
aS'the'
p3576
a(lp3577
(lp3578
I1301
ag1922
aa(lp3579
I1302
ag1950
aa(lp3580
I1303
ag1929
aaaa(lp3581
I1305
aI1308
ag987
a(lp3582
(lp3583
I1305
ag1972
aa(lp3584
I1306
ag1929
aa(lp3585
I1307
ag1929
aa(lp3586
I1308
ag1922
aaaa(lp3587
I1311
aI1315
ag996
a(lp3588
(lp3589
I1311
ag1950
aa(lp3590
I1312
ag1911
aa(lp3591
I1313
ag1926
aa(lp3592
I1314
ag1995
aa(lp3593
I1315
ag1937
aaaa(lp3594
I1318
aI1320
aS'and'
p3595
a(lp3596
(lp3597
I1318
ag1911
aa(lp3598
I1319
ag1926
aa(lp3599
I1320
ag1995
aaaa(lp3600
I1322
aI1325
ag1005
a(lp3601
(lp3602
I1322
ag1911
aa(lp3603
I1323
ag1913
aa(lp3604
I1324
ag1982
aa(lp3605
I1325
ag1937
aaaa(lp3606
I1328
aI1329
aS'so'
p3607
a(lp3608
(lp3609
I1328
ag1937
aa(lp3610
I1329
ag1943
aaaa(lp3611
I1332
aI1333
aS'it'
p3612
a(lp3613
(lp3614
I1332
ag1935
aa(lp3615
I1333
ag1922
aaaa(lp3616
I1335
aI1339
ag1014
a(lp3617
(lp3618
I1335
ag1909
aa(lp3619
I1336
ag1943
aa(lp3620
I1337
ag1924
aa(lp3621
I1338
ag1918
aa(lp3622
I1339
ag1995
aaaa(lp3623
I1341
aI1342
aS'be'
p3624
a(lp3625
(lp3626
I1341
ag2011
aa(lp3627
I1342
ag1929
aaaa(lp3628
I1344
aI1344
ag1911
a(lp3629
(lp3630
I1344
ag1911
aaaa(lp3631
I1346
aI1352
ag1023
a(lp3632
(lp3633
I1346
ag1915
aa(lp3634
I1347
ag1913
aa(lp3635
I1348
ag1943
aa(lp3636
I1349
ag2011
aa(lp3637
I1350
ag1918
aa(lp3638
I1351
ag1929
aa(lp3639
I1352
ag1982
aaaa(lp3640
I1354
aI1357
aS'that'
p3641
a(lp3642
(lp3643
I1354
ag1922
aa(lp3644
I1355
ag1950
aa(lp3645
I1356
ag1911
aa(lp3646
I1357
ag1922
aaaa(lp3647
I1359
aI1360
aS'is'
p3648
a(lp3649
(lp3650
I1359
ag1935
aa(lp3651
I1360
ag1937
aaaa(lp3652
I1362
aI1368
ag1032
a(lp3653
(lp3654
I1362
ag1909
aa(lp3655
I1363
ag1911
aa(lp3656
I1364
ag1924
aa(lp3657
I1365
ag1937
aa(lp3658
I1366
ag1935
aa(lp3659
I1367
ag1926
aa(lp3660
I1368
ag2037
aaaa(lp3661
I1370
aI1372
aS'the'
p3662
a(lp3663
(lp3664
I1370
ag1922
aa(lp3665
I1371
ag1950
aa(lp3666
I1372
ag1929
aaaa(lp3667
I1374
aI1377
ag1041
a(lp3668
(lp3669
I1374
ag1915
aa(lp3670
I1375
ag1911
aa(lp3671
I1376
ag1935
aa(lp3672
I1377
ag1926
aaaa(lp3673
I1379
aI1380
aS'in'
p3674
a(lp3675
(lp3676
I1379
ag1935
aa(lp3677
I1380
ag1926
aaaa(lp3678
I1382
aI1385
aS'your'
p3679
a(lp3680
(lp3681
I1382
ag1959
aa(lp3682
I1383
ag1943
aa(lp3683
I1384
ag1924
aa(lp3684
I1385
ag1913
aaaa(lp3685
I1387
aI1393
ag1050
a(lp3686
(lp3687
I1387
ag1972
aa(lp3688
I1388
ag1943
aa(lp3689
I1389
ag1913
aa(lp3690
I1390
ag1929
aa(lp3691
I1391
ag1911
aa(lp3692
I1392
ag1913
aa(lp3693
I1393
ag1982
aaaa(lp3694
I1396
aI1405
ag1059
a(lp3695
(lp3696
I1396
ag1922
aa(lp3697
I1397
ag1929
aa(lp3698
I1398
ag1926
aa(lp3699
I1399
ag1995
aa(lp3700
I1400
ag1943
aa(lp3701
I1401
ag1926
aa(lp3702
I1402
ag1935
aa(lp3703
I1403
ag1922
aa(lp3704
I1404
ag1935
aa(lp3705
I1405
ag1937
aaaa(lp3706
I1407
aI1416
ag1068
a(lp3707
(lp3708
I1407
ag1922
aa(lp3709
I1408
ag1929
aa(lp3710
I1409
ag1926
aa(lp3711
I1410
ag1995
aa(lp3712
I1411
ag1943
aa(lp3713
I1412
ag1926
aa(lp3714
I1413
ag1935
aa(lp3715
I1414
ag1922
aa(lp3716
I1415
ag1935
aa(lp3717
I1416
ag1937
aaaa(lp3718
I1418
aI1419
aS'is'
p3719
a(lp3720
(lp3721
I1418
ag1935
aa(lp3722
I1419
ag1937
aaaa(lp3723
I1421
aI1427
ag1077
a(lp3724
(lp3725
I1421
ag1911
aa(lp3726
I1422
ag1926
aa(lp3727
I1423
ag1943
aa(lp3728
I1424
ag1922
aa(lp3729
I1425
ag1950
aa(lp3730
I1426
ag1929
aa(lp3731
I1427
ag1913
aaaa(lp3732
I1429
aI1435
ag1086
a(lp3733
(lp3734
I1429
ag1915
aa(lp3735
I1430
ag1913
aa(lp3736
I1431
ag1943
aa(lp3737
I1432
ag2011
aa(lp3738
I1433
ag1918
aa(lp3739
I1434
ag1929
aa(lp3740
I1435
ag1982
aaaa(lp3741
I1437
aI1440
aS'that'
p3742
a(lp3743
(lp3744
I1437
ag1922
aa(lp3745
I1438
ag1950
aa(lp3746
I1439
ag1911
aa(lp3747
I1440
ag1922
aaaa(lp3748
I1442
aI1446
ag1095
a(lp3749
(lp3750
I1442
ag1943
aa(lp3751
I1443
ag1972
aa(lp3752
I1444
ag1922
aa(lp3753
I1445
ag1929
aa(lp3754
I1446
ag1926
aaaa(lp3755
I1448
aI1453
ag1104
a(lp3756
(lp3757
I1448
ag1909
aa(lp3758
I1449
ag1911
aa(lp3759
I1450
ag1924
aa(lp3760
I1451
ag1937
aa(lp3761
I1452
ag1929
aa(lp3762
I1453
ag1937
aaaa(lp3763
I1455
aI1458
ag1113
a(lp3764
(lp3765
I1455
ag1915
aa(lp3766
I1456
ag1911
aa(lp3767
I1457
ag1935
aa(lp3768
I1458
ag1926
aaaa(lp3769
I1460
aI1461
aS'in'
p3770
a(lp3771
(lp3772
I1460
ag1935
aa(lp3773
I1461
ag1926
aaaa(lp3774
I1463
aI1465
aS'the'
p3775
a(lp3776
(lp3777
I1463
ag1922
aa(lp3778
I1464
ag1950
aa(lp3779
I1465
ag1929
aaaa(lp3780
I1467
aI1473
ag1122
a(lp3781
(lp3782
I1467
ag1972
aa(lp3783
I1468
ag1943
aa(lp3784
I1469
ag1913
aa(lp3785
I1470
ag1929
aa(lp3786
I1471
ag1911
aa(lp3787
I1472
ag1913
aa(lp3788
I1473
ag1982
aaaa(lp3789
I1476
aI1479
aS'this'
p3790
a(lp3791
(lp3792
I1476
ag1922
aa(lp3793
I1477
ag1950
aa(lp3794
I1478
ag1935
aa(lp3795
I1479
ag1937
aaaa(lp3796
I1481
aI1489
ag1131
a(lp3797
(lp3798
I1481
ag2011
aa(lp3799
I1482
ag1911
aa(lp3800
I1483
ag1937
aa(lp3801
I1484
ag1935
aa(lp3802
I1485
ag1909
aa(lp3803
I1486
ag1911
aa(lp3804
I1487
ag1918
aa(lp3805
I1488
ag1918
aa(lp3806
I1489
ag1959
aaaa(lp3807
I1491
aI1492
aS'is'
p3808
a(lp3809
(lp3810
I1491
ag1935
aa(lp3811
I1492
ag1937
aaaa(lp3812
I1494
aI1494
ag1911
a(lp3813
(lp3814
I1494
ag1911
aaaa(lp3815
I1496
aI1502
ag1140
a(lp3816
(lp3817
I1496
ag1915
aa(lp3818
I1497
ag1913
aa(lp3819
I1498
ag1943
aa(lp3820
I1499
ag2011
aa(lp3821
I1500
ag1918
aa(lp3822
I1501
ag1929
aa(lp3823
I1502
ag1982
aaaa(lp3824
I1504
aI1507
aS'that'
p3825
a(lp3826
(lp3827
I1504
ag1922
aa(lp3828
I1505
ag1950
aa(lp3829
I1506
ag1911
aa(lp3830
I1507
ag1922
aaaa(lp3831
I1509
aI1514
ag1149
a(lp3832
(lp3833
I1509
ag1943
aa(lp3834
I1510
ag1909
aa(lp3835
I1511
ag1909
aa(lp3836
I1512
ag1924
aa(lp3837
I1513
ag1913
aa(lp3838
I1514
ag1937
aaaa(lp3839
I1516
aI1519
aS'when'
p3840
a(lp3841
(lp3842
I1516
ag1992
aa(lp3843
I1517
ag1950
aa(lp3844
I1518
ag1929
aa(lp3845
I1519
ag1926
aaaa(lp3846
I1521
aI1523
aS'the'
p3847
a(lp3848
(lp3849
I1521
ag1922
aa(lp3850
I1522
ag1950
aa(lp3851
I1523
ag1929
aaaa(lp3852
I1525
aI1531
ag1158
a(lp3853
(lp3854
I1525
ag1922
aa(lp3855
I1526
ag1929
aa(lp3856
I1527
ag1926
aa(lp3857
I1528
ag1995
aa(lp3858
I1529
ag1943
aa(lp3859
I1530
ag1926
aa(lp3860
I1531
ag1937
aaaa(lp3861
I1533
aI1540
ag1167
a(lp3862
(lp3863
I1533
ag1911
aa(lp3864
I1534
ag1909
aa(lp3865
I1535
ag1922
aa(lp3866
I1536
ag1924
aa(lp3867
I1537
ag1911
aa(lp3868
I1538
ag1918
aa(lp3869
I1539
ag1918
aa(lp3870
I1540
ag1959
aaaa(lp3871
I1542
aI1544
ag1176
a(lp3872
(lp3873
I1542
ag2037
aa(lp3874
I1543
ag1929
aa(lp3875
I1544
ag1922
aaaa(lp3876
I1546
aI1553
ag1185
a(lp3877
(lp3878
I1546
ag1935
aa(lp3879
I1547
ag1926
aa(lp3880
I1548
ag1972
aa(lp3881
I1549
ag1918
aa(lp3882
I1550
ag1911
aa(lp3883
I1551
ag1982
aa(lp3884
I1552
ag1929
aa(lp3885
I1553
ag1995
aaaa(lp3886
I1556
aI1557
aS'it'
p3887
a(lp3888
(lp3889
I1556
ag1935
aa(lp3890
I1557
ag1922
aaaa(lp3891
I1559
aI1561
aS'can'
p3892
a(lp3893
(lp3894
I1559
ag1909
aa(lp3895
I1560
ag1911
aa(lp3896
I1561
ag1926
aaaa(lp3897
I1563
aI1564
aS'be'
p3898
a(lp3899
(lp3900
I1563
ag2011
aa(lp3901
I1564
ag1929
aaaa(lp3902
I1566
aI1566
ag1911
a(lp3903
(lp3904
I1566
ag1911
aaaa(lp3905
I1568
aI1573
ag1194
a(lp3906
(lp3907
I1568
ag1913
aa(lp3908
I1569
ag1929
aa(lp3909
I1570
ag1937
aa(lp3910
I1571
ag1924
aa(lp3911
I1572
ag1918
aa(lp3912
I1573
ag1922
aaaa(lp3913
I1575
aI1576
aS'of'
p3914
a(lp3915
(lp3916
I1575
ag1943
aa(lp3917
I1576
ag1972
aaaa(lp3918
I1578
aI1583
ag1203
a(lp3919
(lp3920
I1578
ag1935
aa(lp3921
I1579
ag1926
aa(lp3922
I1580
ag2691
aa(lp3923
I1581
ag1924
aa(lp3924
I1582
ag1913
aa(lp3925
I1583
ag1959
aaaa(lp3926
I1585
aI1586
aS'or'
p3927
a(lp3928
(lp3929
I1585
ag1943
aa(lp3930
I1586
ag1913
aaaa(lp3931
I1588
aI1591
ag1212
a(lp3932
(lp3933
I1588
ag1929
aa(lp3934
I1589
ag2007
aa(lp3935
I1590
ag1929
aa(lp3936
I1591
ag1926
aaaa(lp3937
I1593
aI1597
ag1221
a(lp3938
(lp3939
I1593
ag1924
aa(lp3940
I1594
ag1937
aa(lp3941
I1595
ag1935
aa(lp3942
I1596
ag1926
aa(lp3943
I1597
ag2037
aaaa(lp3944
I1599
aI1600
aS'it'
p3945
a(lp3946
(lp3947
I1599
ag1935
aa(lp3948
I1600
ag1922
aaaa(lp3949
I1602
aI1604
aS'too'
p3950
a(lp3951
(lp3952
I1602
ag1922
aa(lp3953
I1603
ag1943
aa(lp3954
I1604
ag1943
aaaa(lp3955
I1606
aI1609
ag1230
a(lp3956
(lp3957
I1606
ag1982
aa(lp3958
I1607
ag1924
aa(lp3959
I1608
ag1909
aa(lp3960
I1609
ag1950
aaaa(lp3961
I1612
aI1613
aS'it'
p3962
a(lp3963
(lp3964
I1612
ag1935
aa(lp3965
I1613
ag1922
aaaa(lp3966
I1615
aI1617
aS'can'
p3967
a(lp3968
(lp3969
I1615
ag1909
aa(lp3970
I1616
ag1911
aa(lp3971
I1617
ag1926
aaaa(lp3972
I1619
aI1623
ag1239
a(lp3973
(lp3974
I1619
ag1909
aa(lp3975
I1620
ag1911
aa(lp3976
I1621
ag1924
aa(lp3977
I1622
ag1937
aa(lp3978
I1623
ag1929
aaaa(lp3979
I1625
aI1625
ag1911
a(lp3980
(lp3981
I1625
ag1911
aaaa(lp3982
I1627
aI1629
ag1248
a(lp3983
(lp3984
I1627
ag1918
aa(lp3985
I1628
ag1943
aa(lp3986
I1629
ag1922
aaaa(lp3987
I1631
aI1632
aS'of'
p3988
a(lp3989
(lp3990
I1631
ag1943
aa(lp3991
I1632
ag1972
aaaa(lp3992
I1634
aI1637
ag1257
a(lp3993
(lp3994
I1634
ag1915
aa(lp3995
I1635
ag1911
aa(lp3996
I1636
ag1935
aa(lp3997
I1637
ag1926
aaaa(lp3998
I1640
aI1648
ag1266
a(lp3999
(lp4000
I1640
ag1935
aa(lp4001
I1641
ag1926
aa(lp4002
I1642
ag1909
aa(lp4003
I1643
ag1918
aa(lp4004
I1644
ag1924
aa(lp4005
I1645
ag1995
aa(lp4006
I1646
ag1935
aa(lp4007
I1647
ag1926
aa(lp4008
I1648
ag2037
aaaa(lp4009
I1650
aI1653
ag1275
a(lp4010
(lp4011
I1650
ag1915
aa(lp4012
I1651
ag1911
aa(lp4013
I1652
ag1935
aa(lp4014
I1653
ag1926
aaaa(lp4015
I1655
aI1656
aS'in'
p4016
a(lp4017
(lp4018
I1655
ag1935
aa(lp4019
I1656
ag1926
aaaa(lp4020
I1658
aI1660
aS'the'
p4021
a(lp4022
(lp4023
I1658
ag1922
aa(lp4024
I1659
ag1950
aa(lp4025
I1660
ag1929
aaaa(lp4026
I1662
aI1668
ag1284
a(lp4027
(lp4028
I1662
ag1972
aa(lp4029
I1663
ag1943
aa(lp4030
I1664
ag1913
aa(lp4031
I1665
ag1929
aa(lp4032
I1666
ag1911
aa(lp4033
I1667
ag1913
aa(lp4034
I1668
ag1982
aaaa(lp4035
I1670
aI1671
aS'if'
p4036
a(lp4037
(lp4038
I1670
ag1935
aa(lp4039
I1671
ag1972
aaaa(lp4040
I1673
aI1675
aS'the'
p4041
a(lp4042
(lp4043
I1673
ag1922
aa(lp4044
I1674
ag1950
aa(lp4045
I1675
ag1929
aaaa(lp4046
I1677
aI1683
ag1293
a(lp4047
(lp4048
I1677
ag1922
aa(lp4049
I1678
ag1929
aa(lp4050
I1679
ag1926
aa(lp4051
I1680
ag1995
aa(lp4052
I1681
ag1943
aa(lp4053
I1682
ag1926
aa(lp4054
I1683
ag1937
aaaa(lp4055
I1685
aI1686
aS'in'
p4056
a(lp4057
(lp4058
I1685
ag1935
aa(lp4059
I1686
ag1926
aaaa(lp4060
I1688
aI1690
aS'the'
p4061
a(lp4062
(lp4063
I1688
ag1922
aa(lp4064
I1689
ag1950
aa(lp4065
I1690
ag1929
aaaa(lp4066
I1692
aI1695
ag1302
a(lp4067
(lp4068
I1692
ag1911
aa(lp4069
I1693
ag1913
aa(lp4070
I1694
ag1929
aa(lp4071
I1695
ag1911
aaaa(lp4072
I1697
aI1699
aS'are'
p4073
a(lp4074
(lp4075
I1697
ag1911
aa(lp4076
I1698
ag1913
aa(lp4077
I1699
ag1929
aaaa(lp4078
I1701
aI1704
ag1311
a(lp4079
(lp4080
I1701
ag1950
aa(lp4081
I1702
ag1924
aa(lp4082
I1703
ag1913
aa(lp4083
I1704
ag1922
aaaa(lp4084
I1706
aI1707
aS'or'
p4085
a(lp4086
(lp4087
I1706
ag1943
aa(lp4088
I1707
ag1913
aaaa(lp4089
I1709
aI1716
ag1320
a(lp4090
(lp4091
I1709
ag1943
aa(lp4092
I1710
ag2007
aa(lp4093
I1711
ag1929
aa(lp4094
I1712
ag1913
aa(lp4095
I1713
ag1924
aa(lp4096
I1714
ag1937
aa(lp4097
I1715
ag1929
aa(lp4098
I1716
ag1995
aaaa(lp4099
I1719
aI1722
ag1329
a(lp4100
(lp4101
I1719
ag1918
aa(lp4102
I1720
ag1929
aa(lp4103
I1721
ag1972
aa(lp4104
I1722
ag1922
aaaa(lp4105
I1724
aI1726
ag1338
a(lp4106
(lp4107
I1724
ag1911
aa(lp4108
I1725
ag1913
aa(lp4109
I1726
ag1982
aaaa(lp4110
I1730
aI1737
ag1347
a(lp4111
(lp4112
I1730
ag1915
aa(lp4113
I1731
ag1943
aa(lp4114
I1732
ag1937
aa(lp4115
I1733
ag1937
aa(lp4116
I1734
ag1935
aa(lp4117
I1735
ag2011
aa(lp4118
I1736
ag1918
aa(lp4119
I1737
ag1929
aaaa(lp4120
I1739
aI1743
ag1356
a(lp4121
(lp4122
I1739
ag1950
aa(lp4123
I1740
ag1929
aa(lp4124
I1741
ag1911
aa(lp4125
I1742
ag1913
aa(lp4126
I1743
ag1922
aaaa(lp4127
I1745
aI1750
ag1365
a(lp4128
(lp4129
I1745
ag1911
aa(lp4130
I1746
ag1922
aa(lp4131
I1747
ag1922
aa(lp4132
I1748
ag1911
aa(lp4133
I1749
ag1909
aa(lp4134
I1750
ag2538
aaaa(lp4135
I1752
aI1755
ag1374
a(lp4136
(lp4137
I1752
ag1918
aa(lp4138
I1753
ag1911
aa(lp4139
I1754
ag1937
aa(lp4140
I1755
ag1922
aaaa(lp4141
I1757
aI1758
aS'of'
p4142
a(lp4143
(lp4144
I1757
ag1943
aa(lp4145
I1758
ag1972
aaaa(lp4146
I1760
aI1762
aS'all'
p4147
a(lp4148
(lp4149
I1760
ag1911
aa(lp4150
I1761
ag1918
aa(lp4151
I1762
ag1918
aaaa(lp4152
I1765
aI1766
aS'if'
p4153
a(lp4154
(lp4155
I1765
ag1935
aa(lp4156
I1766
ag1972
aaaa(lp4157
I1768
aI1770
aS'you'
p4158
a(lp4159
(lp4160
I1768
ag1959
aa(lp4161
I1769
ag1943
aa(lp4162
I1770
ag1924
aaaa(lp4163
I1772
aI1774
aS'are'
p4164
a(lp4165
(lp4166
I1772
ag1911
aa(lp4167
I1773
ag1913
aa(lp4168
I1774
ag1929
aaaa(lp4169
I1776
aI1782
ag1383
a(lp4170
(lp4171
I1776
ag1995
aa(lp4172
I1777
ag1929
aa(lp4173
I1778
ag1911
aa(lp4174
I1779
ag1918
aa(lp4175
I1780
ag1935
aa(lp4176
I1781
ag1926
aa(lp4177
I1782
ag2037
aaaa(lp4178
I1784
aI1787
aS'with'
p4179
a(lp4180
(lp4181
I1784
ag1992
aa(lp4182
I1785
ag1935
aa(lp4183
I1786
ag1922
aa(lp4184
I1787
ag1950
aaaa(lp4185
I1789
aI1795
ag1392
a(lp4186
(lp4187
I1789
ag1972
aa(lp4188
I1790
ag1943
aa(lp4189
I1791
ag1913
aa(lp4190
I1792
ag1929
aa(lp4191
I1793
ag1911
aa(lp4192
I1794
ag1913
aa(lp4193
I1795
ag1982
aaaa(lp4194
I1797
aI1800
ag1401
a(lp4195
(lp4196
I1797
ag1915
aa(lp4197
I1798
ag1911
aa(lp4198
I1799
ag1935
aa(lp4199
I1800
ag1926
aaaa(lp4200
I1802
aI1803
aS'in'
p4201
a(lp4202
(lp4203
I1802
ag1935
aa(lp4204
I1803
ag1926
aaaa(lp4205
I1805
aI1808
aS'your'
p4206
a(lp4207
(lp4208
I1805
ag1959
aa(lp4209
I1806
ag1943
aa(lp4210
I1807
ag1924
aa(lp4211
I1808
ag1913
aaaa(lp4212
I1810
aI1813
ag1410
a(lp4213
(lp4214
I1810
ag1918
aa(lp4215
I1811
ag1929
aa(lp4216
I1812
ag1972
aa(lp4217
I1813
ag1922
aaaa(lp4218
I1815
aI1817
ag1419
a(lp4219
(lp4220
I1815
ag1911
aa(lp4221
I1816
ag1913
aa(lp4222
I1817
ag1982
aaaa(lp4223
I1820
aI1823
aS'this'
p4224
a(lp4225
(lp4226
I1820
ag1922
aa(lp4227
I1821
ag1950
aa(lp4228
I1822
ag1935
aa(lp4229
I1823
ag1937
aaaa(lp4230
I1825
aI1829
ag1428
a(lp4231
(lp4232
I1825
ag1909
aa(lp4233
I1826
ag1943
aa(lp4234
I1827
ag1924
aa(lp4235
I1828
ag1918
aa(lp4236
I1829
ag1995
aaaa(lp4237
I1831
aI1832
aS'be'
p4238
a(lp4239
(lp4240
I1831
ag2011
aa(lp4241
I1832
ag1929
aaaa(lp4242
I1834
aI1844
ag1437
a(lp4243
(lp4244
I1834
ag1915
aa(lp4245
I1835
ag1943
aa(lp4246
I1836
ag1922
aa(lp4247
I1837
ag1929
aa(lp4248
I1838
ag1926
aa(lp4249
I1839
ag1922
aa(lp4250
I1840
ag1935
aa(lp4251
I1841
ag1911
aa(lp4252
I1842
ag1918
aa(lp4253
I1843
ag1918
aa(lp4254
I1844
ag1959
aaaa(lp4255
I1846
aI1852
ag1446
a(lp4256
(lp4257
I1846
ag1937
aa(lp4258
I1847
ag1929
aa(lp4259
I1848
ag1913
aa(lp4260
I1849
ag1935
aa(lp4261
I1850
ag1943
aa(lp4262
I1851
ag1924
aa(lp4263
I1852
ag1937
aaaa(lp4264
I1855
aI1863
ag1455
a(lp4265
(lp4266
I1855
ag1937
aa(lp4267
I1856
ag1943
aa(lp4268
I1857
ag1982
aa(lp4269
I1858
ag1929
aa(lp4270
I1859
ag1922
aa(lp4271
I1860
ag1935
aa(lp4272
I1861
ag1982
aa(lp4273
I1862
ag1929
aa(lp4274
I1863
ag1937
aaaa(lp4275
I1865
aI1868
aS'when'
p4276
a(lp4277
(lp4278
I1865
ag1992
aa(lp4279
I1866
ag1950
aa(lp4280
I1867
ag1929
aa(lp4281
I1868
ag1926
aaaa(lp4282
I1870
aI1875
ag1464
a(lp4283
(lp4284
I1870
ag1915
aa(lp4285
I1871
ag1929
aa(lp4286
I1872
ag1943
aa(lp4287
I1873
ag1915
aa(lp4288
I1874
ag1918
aa(lp4289
I1875
ag1929
aaaa(lp4290
I1877
aI1879
aS'are'
p4291
a(lp4292
(lp4293
I1877
ag1911
aa(lp4294
I1878
ag1913
aa(lp4295
I1879
ag1929
aaaa(lp4296
I1881
aI1885
ag1473
a(lp4297
(lp4298
I1881
ag2037
aa(lp4299
I1882
ag1943
aa(lp4300
I1883
ag1935
aa(lp4301
I1884
ag1926
aa(lp4302
I1885
ag2037
aaaa(lp4303
I1887
aI1893
aS'through'
p4304
a(lp4305
(lp4306
I1887
ag1922
aa(lp4307
I1888
ag1950
aa(lp4308
I1889
ag1913
aa(lp4309
I1890
ag1943
aa(lp4310
I1891
ag1924
aa(lp4311
I1892
ag2037
aa(lp4312
I1893
ag1950
aaaa(lp4313
I1895
aI1895
ag1911
a(lp4314
(lp4315
I1895
ag1911
aaaa(lp4316
I1897
aI1901
ag1482
a(lp4317
(lp4318
I1897
ag1950
aa(lp4319
I1898
ag1929
aa(lp4320
I1899
ag1911
aa(lp4321
I1900
ag1913
aa(lp4322
I1901
ag1922
aaaa(lp4323
I1903
aI1908
ag1491
a(lp4324
(lp4325
I1903
ag1911
aa(lp4326
I1904
ag1922
aa(lp4327
I1905
ag1922
aa(lp4328
I1906
ag1911
aa(lp4329
I1907
ag1909
aa(lp4330
I1908
ag2538
aaaa(lp4331
I1911
aI1914
aS'they'
p4332
a(lp4333
(lp4334
I1911
ag1922
aa(lp4335
I1912
ag1950
aa(lp4336
I1913
ag1929
aa(lp4337
I1914
ag1959
aaaa(lp4338
I1916
aI1918
ag1500
a(lp4339
(lp4340
I1916
ag1929
aa(lp4341
I1917
ag1926
aa(lp4342
I1918
ag1995
aaaa(lp4343
I1920
aI1921
aS'up'
p4344
a(lp4345
(lp4346
I1920
ag1924
aa(lp4347
I1921
ag1915
aaaa(lp4348
I1923
aI1928
aS'having'
p4349
a(lp4350
(lp4351
I1923
ag1950
aa(lp4352
I1924
ag1911
aa(lp4353
I1925
ag2007
aa(lp4354
I1926
ag1935
aa(lp4355
I1927
ag1926
aa(lp4356
I1928
ag2037
aaaa(lp4357
I1930
aI1933
ag1509
a(lp4358
(lp4359
I1930
ag1915
aa(lp4360
I1931
ag1911
aa(lp4361
I1932
ag1935
aa(lp4362
I1933
ag1926
aaaa(lp4363
I1935
aI1936
aS'in'
p4364
a(lp4365
(lp4366
I1935
ag1935
aa(lp4367
I1936
ag1926
aaaa(lp4368
I1938
aI1942
aS'their'
p4369
a(lp4370
(lp4371
I1938
ag1922
aa(lp4372
I1939
ag1950
aa(lp4373
I1940
ag1929
aa(lp4374
I1941
ag1935
aa(lp4375
I1942
ag1913
aaaa(lp4376
I1944
aI1947
ag1518
a(lp4377
(lp4378
I1944
ag1918
aa(lp4379
I1945
ag1929
aa(lp4380
I1946
ag1972
aa(lp4381
I1947
ag1922
aaaa(lp4382
I1949
aI1951
ag1527
a(lp4383
(lp4384
I1949
ag1911
aa(lp4385
I1950
ag1913
aa(lp4386
I1951
ag1982
aaaa(lp4387
I1954
aI1958
aS'which'
p4388
a(lp4389
(lp4390
I1954
ag1992
aa(lp4391
I1955
ag1950
aa(lp4392
I1956
ag1935
aa(lp4393
I1957
ag1909
aa(lp4394
I1958
ag1950
aaaa(lp4395
I1960
aI1962
aS'can'
p4396
a(lp4397
(lp4398
I1960
ag1909
aa(lp4399
I1961
ag1911
aa(lp4400
I1962
ag1926
aaaa(lp4401
I1964
aI1970
ag1536
a(lp4402
(lp4403
I1964
ag1935
aa(lp4404
I1965
ag1926
aa(lp4405
I1966
ag1909
aa(lp4406
I1967
ag1918
aa(lp4407
I1968
ag1924
aa(lp4408
I1969
ag1995
aa(lp4409
I1970
ag1929
aaaa(lp4410
I1972
aI1974
aS'the'
p4411
a(lp4412
(lp4413
I1972
ag1922
aa(lp4414
I1973
ag1950
aa(lp4415
I1974
ag1929
aaaa(lp4416
I1976
aI1982
ag1545
a(lp4417
(lp4418
I1976
ag1972
aa(lp4419
I1977
ag1943
aa(lp4420
I1978
ag1913
aa(lp4421
I1979
ag1929
aa(lp4422
I1980
ag1911
aa(lp4423
I1981
ag1913
aa(lp4424
I1982
ag1982
aaaa(lp4425
I1984
aI1987
ag1554
a(lp4426
(lp4427
I1984
ag1911
aa(lp4428
I1985
ag1913
aa(lp4429
I1986
ag1929
aa(lp4430
I1987
ag1911
aaaa(lp4431
I1990
aI1991
aS'if'
p4432
a(lp4433
(lp4434
I1990
ag1935
aa(lp4435
I1991
ag1972
aaaa(lp4436
I1993
aI1995
aS'you'
p4437
a(lp4438
(lp4439
I1993
ag1959
aa(lp4440
I1994
ag1943
aa(lp4441
I1995
ag1924
aaaa(lp4442
I1997
aI1999
aS'are'
p4443
a(lp4444
(lp4445
I1997
ag1911
aa(lp4446
I1998
ag1913
aa(lp4447
I1999
ag1929
aaaa(lp4448
I2001
aI2006
aS'having'
p4449
a(lp4450
(lp4451
I2001
ag1950
aa(lp4452
I2002
ag1911
aa(lp4453
I2003
ag2007
aa(lp4454
I2004
ag1935
aa(lp4455
I2005
ag1926
aa(lp4456
I2006
ag2037
aaaa(lp4457
I2008
aI2012
ag1563
a(lp4458
(lp4459
I2008
ag1909
aa(lp4460
I2009
ag1950
aa(lp4461
I2010
ag1929
aa(lp4462
I2011
ag1937
aa(lp4463
I2012
ag1922
aaaa(lp4464
I2014
aI2017
ag1572
a(lp4465
(lp4466
I2014
ag1915
aa(lp4467
I2015
ag1911
aa(lp4468
I2016
ag1935
aa(lp4469
I2017
ag1926
aaaa(lp4470
I2019
aI2023
ag1581
a(lp4471
(lp4472
I2019
ag1911
aa(lp4473
I2020
ag1918
aa(lp4474
I2021
ag1943
aa(lp4475
I2022
ag1926
aa(lp4476
I2023
ag2037
aaaa(lp4477
I2025
aI2028
aS'with'
p4478
a(lp4479
(lp4480
I2025
ag1992
aa(lp4481
I2026
ag1935
aa(lp4482
I2027
ag1922
aa(lp4483
I2028
ag1950
aaaa(lp4484
I2030
aI2033
aS'this'
p4485
a(lp4486
(lp4487
I2030
ag1922
aa(lp4488
I2031
ag1950
aa(lp4489
I2032
ag1935
aa(lp4490
I2033
ag1937
aaaa(lp4491
I2035
aI2041
ag1590
a(lp4492
(lp4493
I2035
ag1972
aa(lp4494
I2036
ag1943
aa(lp4495
I2037
ag1913
aa(lp4496
I2038
ag1929
aa(lp4497
I2039
ag1911
aa(lp4498
I2040
ag1913
aa(lp4499
I2041
ag1982
aaaa(lp4500
I2043
aI2046
ag1599
a(lp4501
(lp4502
I2043
ag1915
aa(lp4503
I2044
ag1911
aa(lp4504
I2045
ag1935
aa(lp4505
I2046
ag1926
aaaa(lp4506
I2048
aI2049
aS'or'
p4507
a(lp4508
(lp4509
I2048
ag1943
aa(lp4510
I2049
ag1913
aaaa(lp4511
I2051
aI2053
aS'you'
p4512
a(lp4513
(lp4514
I2051
ag1959
aa(lp4515
I2052
ag1943
aa(lp4516
I2053
ag1924
aaaa(lp4517
I2055
aI2058
aS'have'
p4518
a(lp4519
(lp4520
I2055
ag1950
aa(lp4521
I2056
ag1911
aa(lp4522
I2057
ag2007
aa(lp4523
I2058
ag1929
aaaa(lp4524
I2060
aI2063
ag1608
a(lp4525
(lp4526
I2060
ag1915
aa(lp4527
I2061
ag1911
aa(lp4528
I2062
ag1935
aa(lp4529
I2063
ag1926
aaaa(lp4530
I2065
aI2071
aS'through'
p4531
a(lp4532
(lp4533
I2065
ag1922
aa(lp4534
I2066
ag1950
aa(lp4535
I2067
ag1913
aa(lp4536
I2068
ag1943
aa(lp4537
I2069
ag1924
aa(lp4538
I2070
ag2037
aa(lp4539
I2071
ag1950
aaaa(lp4540
I2073
aI2075
aS'the'
p4541
a(lp4542
(lp4543
I2073
ag1922
aa(lp4544
I2074
ag1950
aa(lp4545
I2075
ag1929
aaaa(lp4546
I2077
aI2082
ag1617
a(lp4547
(lp4548
I2077
ag1929
aa(lp4549
I2078
ag1926
aa(lp4550
I2079
ag1922
aa(lp4551
I2080
ag1935
aa(lp4552
I2081
ag1913
aa(lp4553
I2082
ag1929
aaaa(lp4554
I2084
aI2086
ag1626
a(lp4555
(lp4556
I2084
ag1911
aa(lp4557
I2085
ag1913
aa(lp4558
I2086
ag1982
aaaa(lp4559
I2088
aI2090
aS'and'
p4560
a(lp4561
(lp4562
I2088
ag1911
aa(lp4563
I2089
ag1926
aa(lp4564
I2090
ag1995
aaaa(lp4565
I2092
aI2095
aS'only'
p4566
a(lp4567
(lp4568
I2092
ag1943
aa(lp4569
I2093
ag1926
aa(lp4570
I2094
ag1918
aa(lp4571
I2095
ag1959
aaaa(lp4572
I2097
aI2098
aS'on'
p4573
a(lp4574
(lp4575
I2097
ag1943
aa(lp4576
I2098
ag1926
aaaa(lp4577
I2100
aI2102
aS'the'
p4578
a(lp4579
(lp4580
I2100
ag1922
aa(lp4581
I2101
ag1950
aa(lp4582
I2102
ag1929
aaaa(lp4583
I2104
aI2106
ag1635
a(lp4584
(lp4585
I2104
ag1943
aa(lp4586
I2105
ag1926
aa(lp4587
I2106
ag1929
aaaa(lp4588
I2108
aI2111
ag1644
a(lp4589
(lp4590
I2108
ag1937
aa(lp4591
I2109
ag1935
aa(lp4592
I2110
ag1995
aa(lp4593
I2111
ag1929
aaaa(lp4594
I2114
aI2116
aS'you'
p4595
a(lp4596
(lp4597
I2114
ag1959
aa(lp4598
I2115
ag1943
aa(lp4599
I2116
ag1924
aaaa(lp4600
I2118
aI2123
aS'should'
p4601
a(lp4602
(lp4603
I2118
ag1937
aa(lp4604
I2119
ag1950
aa(lp4605
I2120
ag1943
aa(lp4606
I2121
ag1924
aa(lp4607
I2122
ag1918
aa(lp4608
I2123
ag1995
aaaa(lp4609
I2125
aI2128
ag1653
a(lp4610
(lp4611
I2125
ag1937
aa(lp4612
I2126
ag1929
aa(lp4613
I2127
ag1929
aa(lp4614
I2128
ag2538
aaaa(lp4615
I2130
aI2136
ag1662
a(lp4616
(lp4617
I2130
ag1982
aa(lp4618
I2131
ag1929
aa(lp4619
I2132
ag1995
aa(lp4620
I2133
ag1935
aa(lp4621
I2134
ag1909
aa(lp4622
I2135
ag1911
aa(lp4623
I2136
ag1918
aaaa(lp4624
I2138
aI2146
ag1671
a(lp4625
(lp4626
I2138
ag1911
aa(lp4627
I2139
ag1922
aa(lp4628
I2140
ag1922
aa(lp4629
I2141
ag1929
aa(lp4630
I2142
ag1926
aa(lp4631
I2143
ag1922
aa(lp4632
I2144
ag1935
aa(lp4633
I2145
ag1943
aa(lp4634
I2146
ag1926
aaaa(lp4635
I2148
aI2149
aS'as'
p4636
a(lp4637
(lp4638
I2148
ag1911
aa(lp4639
I2149
ag1937
aaaa(lp4640
I2151
aI2154
ag1680
a(lp4641
(lp4642
I2151
ag1937
aa(lp4643
I2152
ag1943
aa(lp4644
I2153
ag1943
aa(lp4645
I2154
ag1926
aaaa(lp4646
I2156
aI2157
aS'as'
p4647
a(lp4648
(lp4649
I2156
ag1911
aa(lp4650
I2157
ag1937
aaaa(lp4651
I2159
aI2166
ag1689
a(lp4652
(lp4653
I2159
ag1915
aa(lp4654
I2160
ag1943
aa(lp4655
I2161
ag1937
aa(lp4656
I2162
ag1937
aa(lp4657
I2163
ag1935
aa(lp4658
I2164
ag2011
aa(lp4659
I2165
ag1918
aa(lp4660
I2166
ag1929
aaaa(lp4661
I2169
aI2170
aS'so'
p4662
a(lp4663
(lp4664
I2169
ag1937
aa(lp4665
I2170
ag1943
aaaa(lp4666
I2173
aI2174
aS'as'
p4667
a(lp4668
(lp4669
I2173
ag1911
aa(lp4670
I2174
ag1937
aaaa(lp4671
I2176
aI2178
aS'you'
p4672
a(lp4673
(lp4674
I2176
ag1959
aa(lp4675
I2177
ag1943
aa(lp4676
I2178
ag1924
aaaa(lp4677
I2180
aI2182
aS'can'
p4678
a(lp4679
(lp4680
I2180
ag1909
aa(lp4681
I2181
ag1911
aa(lp4682
I2182
ag1926
aaaa(lp4683
I2184
aI2186
ag1698
a(lp4684
(lp4685
I2184
ag1937
aa(lp4686
I2185
ag1929
aa(lp4687
I2186
ag1929
aaaa(lp4688
I2189
aI2192
ag1707
a(lp4689
(lp4690
I2189
ag1915
aa(lp4691
I2190
ag1911
aa(lp4692
I2191
ag1935
aa(lp4693
I2192
ag1926
aaaa(lp4694
I2194
aI2195
aS'in'
p4695
a(lp4696
(lp4697
I2194
ag1935
aa(lp4698
I2195
ag1926
aaaa(lp4699
I2197
aI2199
aS'the'
p4700
a(lp4701
(lp4702
I2197
ag1922
aa(lp4703
I2198
ag1950
aa(lp4704
I2199
ag1929
aaaa(lp4705
I2201
aI2207
ag1716
a(lp4706
(lp4707
I2201
ag1972
aa(lp4708
I2202
ag1943
aa(lp4709
I2203
ag1913
aa(lp4710
I2204
ag1929
aa(lp4711
I2205
ag1911
aa(lp4712
I2206
ag1913
aa(lp4713
I2207
ag1982
aaaa(lp4714
I2209
aI2210
aS'is'
p4715
a(lp4716
(lp4717
I2209
ag1935
aa(lp4718
I2210
ag1937
aaaa(lp4719
I2212
aI2214
aS'not'
p4720
a(lp4721
(lp4722
I2212
ag1926
aa(lp4723
I2213
ag1943
aa(lp4724
I2214
ag1922
aaaa(lp4725
I2216
aI2221
ag1725
a(lp4726
(lp4727
I2216
ag1911
aa(lp4728
I2217
ag1918
aa(lp4729
I2218
ag1992
aa(lp4730
I2219
ag1911
aa(lp4731
I2220
ag1959
aa(lp4732
I2221
ag1937
aaaa(lp4733
I2223
aI2223
ag1911
a(lp4734
(lp4735
I2223
ag1911
aaaa(lp4736
I2225
aI2228
ag1734
a(lp4737
(lp4738
I2225
ag1937
aa(lp4739
I2226
ag1935
aa(lp4740
I2227
ag2037
aa(lp4741
I2228
ag1926
aaaa(lp4742
I2230
aI2231
aS'of'
p4743
a(lp4744
(lp4745
I2230
ag1943
aa(lp4746
I2231
ag1972
aaaa(lp4747
I2233
aI2239
ag1743
a(lp4748
(lp4749
I2233
ag1995
aa(lp4750
I2234
ag1929
aa(lp4751
I2235
ag1911
aa(lp4752
I2236
ag1918
aa(lp4753
I2237
ag1935
aa(lp4754
I2238
ag1926
aa(lp4755
I2239
ag2037
aaaa(lp4756
I2241
aI2244
aS'with'
p4757
a(lp4758
(lp4759
I2241
ag1992
aa(lp4760
I2242
ag1935
aa(lp4761
I2243
ag1922
aa(lp4762
I2244
ag1950
aaaa(lp4763
I2246
aI2251
ag1752
a(lp4764
(lp4765
I2246
ag1909
aa(lp4766
I2247
ag1911
aa(lp4767
I2248
ag1913
aa(lp4768
I2249
ag1915
aa(lp4769
I2250
ag1911
aa(lp4770
I2251
ag1918
aaaa(lp4771
I2253
aI2258
ag1761
a(lp4772
(lp4773
I2253
ag1922
aa(lp4774
I2254
ag1924
aa(lp4775
I2255
ag1926
aa(lp4776
I2256
ag1926
aa(lp4777
I2257
ag1929
aa(lp4778
I2258
ag1918
aaaa(lp4779
I2260
aI2267
ag1770
a(lp4780
(lp4781
I2260
ag1937
aa(lp4782
I2261
ag1959
aa(lp4783
I2262
ag1926
aa(lp4784
I2263
ag1995
aa(lp4785
I2264
ag1913
aa(lp4786
I2265
ag1943
aa(lp4787
I2266
ag1982
aa(lp4788
I2267
ag1929
aaaa(lp4789
I2270
aI2274
aS'there'
p4790
a(lp4791
(lp4792
I2270
ag1922
aa(lp4793
I2271
ag1950
aa(lp4794
I2272
ag1929
aa(lp4795
I2273
ag1913
aa(lp4796
I2274
ag1929
aaaa(lp4797
I2276
aI2278
aS'are'
p4798
a(lp4799
(lp4800
I2276
ag1911
aa(lp4801
I2277
ag1913
aa(lp4802
I2278
ag1929
aaaa(lp4803
I2280
aI2284
aS'other'
p4804
a(lp4805
(lp4806
I2280
ag1943
aa(lp4807
I2281
ag1922
aa(lp4808
I2282
ag1950
aa(lp4809
I2283
ag1929
aa(lp4810
I2284
ag1913
aaaa(lp4811
I2286
aI2289
aS'very'
p4812
a(lp4813
(lp4814
I2286
ag2007
aa(lp4815
I2287
ag1929
aa(lp4816
I2288
ag1913
aa(lp4817
I2289
ag1959
aaaa(lp4818
I2291
aI2297
ag1779
a(lp4819
(lp4820
I2291
ag1937
aa(lp4821
I2292
ag1929
aa(lp4822
I2293
ag1913
aa(lp4823
I2294
ag1935
aa(lp4824
I2295
ag1943
aa(lp4825
I2296
ag1924
aa(lp4826
I2297
ag1937
aaaa(lp4827
I2299
aI2306
ag1788
a(lp4828
(lp4829
I2299
ag1915
aa(lp4830
I2300
ag1913
aa(lp4831
I2301
ag1943
aa(lp4832
I2302
ag2011
aa(lp4833
I2303
ag1918
aa(lp4834
I2304
ag1929
aa(lp4835
I2305
ag1982
aa(lp4836
I2306
ag1937
aaaa(lp4837
I2308
aI2311
aS'that'
p4838
a(lp4839
(lp4840
I2308
ag1922
aa(lp4841
I2309
ag1950
aa(lp4842
I2310
ag1911
aa(lp4843
I2311
ag1922
aaaa(lp4844
I2313
aI2315
aS'can'
p4845
a(lp4846
(lp4847
I2313
ag1909
aa(lp4848
I2314
ag1911
aa(lp4849
I2315
ag1926
aaaa(lp4850
I2317
aI2321
ag1797
a(lp4851
(lp4852
I2317
ag1909
aa(lp4853
I2318
ag1911
aa(lp4854
I2319
ag1924
aa(lp4855
I2320
ag1937
aa(lp4856
I2321
ag1929
aaaa(lp4857
I2323
aI2329
ag1806
a(lp4858
(lp4859
I2323
ag1937
aa(lp4860
I2324
ag1935
aa(lp4861
I2325
ag1982
aa(lp4862
I2326
ag1935
aa(lp4863
I2327
ag1918
aa(lp4864
I2328
ag1911
aa(lp4865
I2329
ag1913
aaaa(lp4866
I2331
aI2334
ag1815
a(lp4867
(lp4868
I2331
ag1915
aa(lp4869
I2332
ag1911
aa(lp4870
I2333
ag1935
aa(lp4871
I2334
ag1926
aaaa(lp4872
I2337
aI2339
aS'for'
p4873
a(lp4874
(lp4875
I2337
ag1972
aa(lp4876
I2338
ag1943
aa(lp4877
I2339
ag1913
aaaa(lp4878
I2341
aI2344
aS'this'
p4879
a(lp4880
(lp4881
I2341
ag1922
aa(lp4882
I2342
ag1950
aa(lp4883
I2343
ag1935
aa(lp4884
I2344
ag1937
aaaa(lp4885
I2346
aI2351
ag1824
a(lp4886
(lp4887
I2346
ag1913
aa(lp4888
I2347
ag1929
aa(lp4889
I2348
ag1911
aa(lp4890
I2349
ag1937
aa(lp4891
I2350
ag1943
aa(lp4892
I2351
ag1926
aaaa(lp4893
I2354
aI2358
ag1833
a(lp4894
(lp4895
I2354
ag2037
aa(lp4896
I2355
ag1943
aa(lp4897
I2356
ag1935
aa(lp4898
I2357
ag1926
aa(lp4899
I2358
ag2037
aaaa(lp4900
I2360
aI2361
aS'to'
p4901
a(lp4902
(lp4903
I2360
ag1922
aa(lp4904
I2361
ag1943
aaaa(lp4905
I2363
aI2366
aS'your'
p4906
a(lp4907
(lp4908
I2363
ag1959
aa(lp4909
I2364
ag1943
aa(lp4910
I2365
ag1924
aa(lp4911
I2366
ag1913
aaaa(lp4912
I2368
aI2373
ag1842
a(lp4913
(lp4914
I2368
ag1995
aa(lp4915
I2369
ag1943
aa(lp4916
I2370
ag1909
aa(lp4917
I2371
ag1922
aa(lp4918
I2372
ag1943
aa(lp4919
I2373
ag1913
aaaa(lp4920
I2375
aI2377
aS'and'
p4921
a(lp4922
(lp4923
I2375
ag1911
aa(lp4924
I2376
ag1926
aa(lp4925
I2377
ag1995
aaaa(lp4926
I2379
aI2385
ag1851
a(lp4927
(lp4928
I2379
ag1918
aa(lp4929
I2380
ag1929
aa(lp4930
I2381
ag1922
aa(lp4931
I2382
ag1922
aa(lp4932
I2383
ag1935
aa(lp4933
I2384
ag1926
aa(lp4934
I2385
ag2037
aaaa(lp4935
I2387
aI2389
aS'him'
p4936
a(lp4937
(lp4938
I2387
ag1950
aa(lp4939
I2388
ag1935
aa(lp4940
I2389
ag1982
aaaa(lp4941
I2391
aI2394
ag1860
a(lp4942
(lp4943
I2391
ag2538
aa(lp4944
I2392
ag1926
aa(lp4945
I2393
ag1943
aa(lp4946
I2394
ag1992
aaaa(lp4947
I2396
aI2400
aS'about'
p4948
a(lp4949
(lp4950
I2396
ag1911
aa(lp4951
I2397
ag2011
aa(lp4952
I2398
ag1943
aa(lp4953
I2399
ag1924
aa(lp4954
I2400
ag1922
aaaa(lp4955
I2402
aI2404
aS'the'
p4956
a(lp4957
(lp4958
I2402
ag1922
aa(lp4959
I2403
ag1950
aa(lp4960
I2404
ag1929
aaaa(lp4961
I2406
aI2409
ag1869
a(lp4962
(lp4963
I2406
ag1915
aa(lp4964
I2407
ag1911
aa(lp4965
I2408
ag1935
aa(lp4966
I2409
ag1926
aaaa(lp4967
I2411
aI2413
aS'can'
p4968
a(lp4969
(lp4970
I2411
ag1909
aa(lp4971
I2412
ag1911
aa(lp4972
I2413
ag1926
aaaa(lp4973
I2415
aI2416
aS'be'
p4974
a(lp4975
(lp4976
I2415
ag2011
aa(lp4977
I2416
ag1929
aaaa(lp4978
I2418
aI2421
aS'very'
p4979
a(lp4980
(lp4981
I2418
ag2007
aa(lp4982
I2419
ag1929
aa(lp4983
I2420
ag1913
aa(lp4984
I2421
ag1959
aaaa(lp4985
I2423
aI2431
ag1878
a(lp4986
(lp4987
I2423
ag1935
aa(lp4988
I2424
ag1982
aa(lp4989
I2425
ag1915
aa(lp4990
I2426
ag1943
aa(lp4991
I2427
ag1913
aa(lp4992
I2428
ag1922
aa(lp4993
I2429
ag1911
aa(lp4994
I2430
ag1926
aa(lp4995
I2431
ag1922
aaaa(lp4996
I2433
aI2434
aS'to'
p4997
a(lp4998
(lp4999
I2433
ag1922
aa(lp5000
I2434
ag1943
aaaa(lp5001
I2436
aI2442
ag1887
a(lp5002
(lp5003
I2436
ag1913
aa(lp5004
I2437
ag1929
aa(lp5005
I2438
ag1909
aa(lp5006
I2439
ag1929
aa(lp5007
I2440
ag1935
aa(lp5008
I2441
ag2007
aa(lp5009
I2442
ag1929
aaaa(lp5010
I2444
aI2446
aS'the'
p5011
a(lp5012
(lp5013
I2444
ag1922
aa(lp5014
I2445
ag1950
aa(lp5015
I2446
ag1929
aaaa(lp5016
I2448
aI2452
ag1896
a(lp5017
(lp5018
I2448
ag1913
aa(lp5019
I2449
ag1935
aa(lp5020
I2450
ag2037
aa(lp5021
I2451
ag1950
aa(lp5022
I2452
ag1922
aaaasS'cleanCharacterMap'
p5023
(lp5024
g1908
ag1910
ag1912
ag1914
ag1916
ag1917
a(lp5025
I6
aS' '
p5026
aag1921
ag1923
ag1925
ag1927
ag1928
ag1930
a(lp5027
I13
ag5026
aag1934
ag1936
a(lp5028
I16
ag5026
aag1941
ag1942
ag1944
a(lp5029
I20
ag5026
aag1948
ag1949
ag1951
a(lp5030
I24
ag5026
aag1955
ag1956
ag1957
ag1958
a(lp5031
I29
ag5026
aag1962
ag1963
ag1964
ag1965
ag1966
a(lp5032
I35
ag5026
aag1970
ag1971
a(lp5033
I38
ag5026
aag1975
ag1976
ag1977
ag1978
ag1979
ag1980
ag1981
a(lp5034
I46
ag5026
aag1985
ag1986
ag1987
ag1988
a(lp5035
I51
ag5026
aag1991
ag1993
ag1994
ag1996
ag1997
ag1998
ag1999
ag2000
ag2001
a(lp5036
I62
ag5026
aag2004
ag2005
ag2006
ag2008
ag2009
ag2010
ag2012
ag2013
a(lp5037
I71
ag5026
aag2016
ag2018
a(lp5038
I75
ag5026
aag2022
ag2023
ag2025
ag2026
a(lp5039
I80
ag5026
aag2030
ag2031
ag2032
ag2033
ag2034
ag2035
ag2036
a(lp5040
I88
ag5026
aag2041
ag2042
ag2043
ag2044
a(lp5041
I93
ag5026
aag2047
ag2048
ag2049
ag2050
ag2051
ag2052
ag2053
a(lp5042
I101
ag5026
aag2056
ag2057
ag2058
ag2059
a(lp5043
I107
ag5026
aag2063
ag2064
ag2065
ag2066
a(lp5044
I112
ag5026
aag2070
ag2071
a(lp5045
I115
ag5026
aag2074
a(lp5046
I117
ag5026
aag2077
ag2078
ag2079
ag2080
a(lp5047
I122
ag5026
aag2084
ag2085
ag2086
ag2087
a(lp5048
I127
ag5026
aag2090
ag2091
ag2092
ag2093
ag2094
ag2095
a(lp5049
I134
ag5026
aag2099
ag2100
a(lp5050
I137
ag5026
aag2104
ag2105
ag2106
a(lp5051
I141
ag5026
aag2109
ag2110
ag2111
ag2112
ag2113
ag2114
ag2115
a(lp5052
I149
ag5026
aag2118
ag2119
ag2120
ag2121
a(lp5053
I154
ag5026
aag2125
ag2126
ag2127
a(lp5054
I158
ag5026
aag2131
ag2132
a(lp5055
I161
ag5026
aag2136
ag2137
ag2138
a(lp5056
I165
ag5026
aag2142
ag2143
a(lp5057
I168
ag5026
aag2146
ag2147
ag2148
ag2149
ag2150
ag2151
a(lp5058
I175
ag5026
aag2155
ag2156
a(lp5059
I178
ag5026
aag2159
a(lp5060
I180
ag5026
aag2162
ag2163
ag2164
ag2165
ag2166
ag2167
ag2168
a(lp5061
I188
ag5026
aag2172
ag2173
a(lp5062
I191
ag5026
aag2176
ag2177
ag2178
ag2179
ag2180
ag2181
ag2182
ag2183
ag2184
a(lp5063
I201
ag5026
aag2187
ag2188
ag2189
ag2190
ag2191
ag2192
ag2193
ag2194
a(lp5064
I211
ag5026
aag2197
ag2198
ag2199
ag2200
a(lp5065
I216
ag5026
aag2203
ag2204
ag2205
ag2206
ag2207
a(lp5066
I222
ag5026
aag2211
ag2212
a(lp5067
I225
ag5026
aag2216
ag2217
a(lp5068
I228
ag5026
aag2220
ag2221
ag2222
ag2223
ag2224
ag2225
a(lp5069
I235
ag5026
aag2229
ag2230
a(lp5070
I238
ag5026
aag2233
ag2234
ag2235
ag2236
ag2237
ag2238
a(lp5071
I245
ag5026
aag2241
ag2242
ag2243
ag2244
ag2245
ag2246
a(lp5072
I252
ag5026
aag2249
ag2250
ag2251
ag2252
ag2253
ag2254
ag2255
ag2256
a(lp5073
I262
ag5026
aag2259
ag2260
ag2261
ag2262
ag2263
ag2264
ag2265
a(lp5074
I271
ag5026
aag2269
ag2270
a(lp5075
I274
ag5026
aag2274
ag2275
ag2276
a(lp5076
I278
ag5026
aag2280
ag2281
ag2282
a(lp5077
I282
ag5026
aag2285
ag2286
ag2287
ag2288
ag2289
ag2290
ag2291
a(lp5078
I290
ag5026
aag2295
ag2296
ag2297
ag2298
a(lp5079
I295
ag5026
aag2301
ag2302
ag2303
ag2304
a(lp5080
I300
ag5026
aag2308
ag2309
a(lp5081
I303
ag5026
aag2313
ag2314
ag2315
ag2316
a(lp5082
I308
ag5026
aag2319
ag2320
ag2321
ag2322
ag2323
ag2324
ag2325
a(lp5083
I317
ag5026
aag2329
ag2330
ag2331
a(lp5084
I321
ag5026
aag2334
ag2335
ag2336
ag2337
a(lp5085
I326
ag5026
aag2341
ag2342
a(lp5086
I329
ag5026
aag2345
ag2346
ag2347
ag2348
ag2349
ag2350
ag2351
ag2352
ag2353
ag2354
a(lp5087
I340
ag5026
aag2358
ag2359
ag2360
ag2361
a(lp5088
I345
ag5026
aag2364
ag2365
ag2366
ag2367
ag2368
ag2369
a(lp5089
I352
ag5026
aag2372
ag2373
ag2374
ag2375
ag2376
ag2377
a(lp5090
I359
ag5026
aag2380
ag2381
ag2382
ag2383
ag2384
ag2385
ag2386
ag2387
a(lp5091
I368
ag5026
aag2391
ag2392
a(lp5092
I371
ag5026
aag2396
ag2397
ag2398
a(lp5093
I375
ag5026
aag2401
ag2402
ag2403
ag2404
ag2405
ag2406
a(lp5094
I382
ag5026
aag2410
ag2411
ag2412
a(lp5095
I386
ag5026
aag2415
ag2416
ag2417
ag2418
ag2419
ag2420
ag2421
a(lp5096
I395
ag5026
aag2425
ag2426
ag2427
ag2428
ag2429
a(lp5097
I401
ag5026
aag2433
ag2434
ag2435
a(lp5098
I405
ag5026
aag2438
ag2439
ag2440
ag2441
a(lp5099
I410
ag5026
aag2445
ag2446
ag2447
ag2448
ag2449
a(lp5100
I416
ag5026
aag2452
ag2453
ag2454
ag2455
ag2456
ag2457
a(lp5101
I423
ag5026
aag2461
ag2462
a(lp5102
I426
ag5026
aag2465
ag2466
ag2467
ag2468
ag2469
ag2470
ag2471
a(lp5103
I434
ag5026
aag2474
ag2475
ag2476
ag2477
a(lp5104
I439
ag5026
aag2481
ag2482
ag2483
ag2484
a(lp5105
I444
ag5026
aag2488
ag2489
ag2490
a(lp5106
I448
ag5026
aag2494
ag2495
ag2496
ag2497
ag2498
ag2499
a(lp5107
I455
ag5026
aag2503
ag2504
a(lp5108
I458
ag5026
aag2507
ag2508
ag2509
ag2510
ag2511
a(lp5109
I464
ag5026
aag2515
ag2516
a(lp5110
I468
ag5026
aag2520
ag2521
ag2522
ag2523
a(lp5111
I473
ag5026
aag2527
ag2528
a(lp5112
I476
ag5026
aag2531
a(lp5113
I478
ag5026
aag2534
ag2535
ag2536
ag2537
a(lp5114
I483
ag5026
aag2542
ag2543
a(lp5115
I486
ag5026
aag2547
ag2548
ag2549
ag2550
a(lp5116
I491
ag5026
aag2554
ag2555
a(lp5117
I494
ag5026
aag2559
ag2560
ag2561
a(lp5118
I498
ag5026
aag2564
ag2565
ag2566
ag2567
ag2568
ag2569
ag2570
ag2571
a(lp5119
I508
ag5026
aag2575
ag2576
ag2577
ag2578
ag2579
a(lp5120
I514
ag5026
aag2583
ag2584
ag2585
ag2586
a(lp5121
I519
ag5026
aag2589
ag2590
ag2591
ag2592
ag2593
ag2594
a(lp5122
I526
ag5026
aag2597
ag2598
ag2599
ag2600
ag2601
ag2602
a(lp5123
I533
ag5026
aag2605
ag2606
ag2607
ag2608
ag2609
ag2610
ag2611
ag2612
a(lp5124
I543
ag5026
aag2616
ag2617
ag2618
ag2619
a(lp5125
I548
ag5026
aag2623
ag2624
ag2625
a(lp5126
I552
ag5026
aag2629
ag2630
a(lp5127
I555
ag5026
aag2633
ag2634
ag2635
ag2636
ag2637
ag2638
ag2639
a(lp5128
I563
ag5026
aag2643
ag2644
ag2645
a(lp5129
I567
ag5026
aag2648
ag2649
ag2650
ag2651
a(lp5130
I572
ag5026
aag2655
ag2656
ag2657
a(lp5131
I576
ag5026
aag2661
ag2662
ag2663
ag2664
a(lp5132
I581
ag5026
aag2668
ag2669
a(lp5133
I584
ag5026
aag2673
ag2674
ag2675
ag2676
a(lp5134
I589
ag5026
aag2679
ag2680
ag2681
ag2682
ag2683
ag2684
ag2685
a(lp5135
I598
ag5026
aag2688
ag2689
ag2690
ag2692
ag2693
ag2694
a(lp5136
I605
ag5026
aag2698
ag2699
a(lp5137
I608
ag5026
aag2703
ag2704
ag2705
a(lp5138
I612
ag5026
aag2708
ag2709
ag2710
ag2711
ag2712
ag2713
ag2714
a(lp5139
I620
ag5026
aag2717
ag2718
ag2719
a(lp5140
I624
ag5026
aag2722
ag2723
ag2724
ag2725
ag2726
a(lp5141
I630
ag5026
aag2730
ag2731
a(lp5142
I633
ag5026
aag2734
ag2735
ag2736
ag2737
a(lp5143
I638
ag5026
aag2741
ag2742
a(lp5144
I641
ag5026
aag2746
ag2747
ag2748
a(lp5145
I645
ag5026
aag2751
ag2752
ag2753
ag2754
ag2755
ag2756
ag2757
a(lp5146
I653
ag5026
aag2760
ag2761
ag2762
ag2763
a(lp5147
I658
ag5026
aag2767
ag2768
ag2769
a(lp5148
I662
ag5026
aag2773
ag2774
a(lp5149
I665
ag5026
aag2778
ag2779
a(lp5150
I668
ag5026
aag2782
ag2783
ag2784
ag2785
ag2786
ag2787
a(lp5151
I675
ag5026
aag2791
ag2792
a(lp5152
I678
ag5026
aag2796
ag2797
ag2798
a(lp5153
I682
ag5026
aag2801
ag2802
ag2803
ag2804
ag2805
ag2806
ag2807
a(lp5154
I691
ag5026
aag2811
ag2812
ag2813
ag2814
ag2815
ag2816
a(lp5155
I698
ag5026
aag2820
ag2821
ag2822
a(lp5156
I702
ag5026
aag2825
ag2826
ag2827
ag2828
ag2829
ag2830
a(lp5157
I709
ag5026
aag2834
ag2835
ag2836
a(lp5158
I713
ag5026
aag2840
ag2841
ag2842
a(lp5159
I717
ag5026
aag2846
ag2847
ag2848
ag2849
a(lp5160
I722
ag5026
aag2852
ag2853
ag2854
ag2855
ag2856
ag2857
ag2858
a(lp5161
I730
ag5026
aag2862
ag2863
ag2864
ag2865
a(lp5162
I735
ag5026
aag2869
ag2870
ag2871
ag2872
a(lp5163
I740
ag5026
aag2875
ag2876
ag2877
ag2878
ag2879
ag2880
a(lp5164
I747
ag5026
aag2883
ag2884
ag2885
ag2886
ag2887
ag2888
a(lp5165
I754
ag5026
aag2891
ag2892
ag2893
ag2894
a(lp5166
I760
ag5026
aag2898
ag2899
ag2900
a(lp5167
I764
ag5026
aag2904
ag2905
ag2906
ag2907
a(lp5168
I769
ag5026
aag2910
ag2911
ag2912
ag2913
a(lp5169
I774
ag5026
aag2917
ag2918
a(lp5170
I777
ag5026
aag2921
ag2922
ag2923
ag2924
a(lp5171
I782
ag5026
aag2927
a(lp5172
I784
ag5026
aag2931
ag2932
ag2933
a(lp5173
I788
ag5026
aag2936
ag2937
ag2938
ag2939
ag2940
ag2941
ag2942
a(lp5174
I796
ag5026
aag2946
ag2947
a(lp5175
I799
ag5026
aag2950
ag2951
ag2952
ag2953
ag2954
a(lp5176
I806
ag5026
aag2958
ag2959
ag2960
ag2961
a(lp5177
I811
ag5026
aag2965
ag2966
ag2967
a(lp5178
I815
ag5026
aag2970
ag2971
ag2972
ag2973
ag2974
ag2975
ag2976
a(lp5179
I823
ag5026
aag2980
ag2981
ag2982
a(lp5180
I827
ag5026
aag2985
ag2986
ag2987
ag2988
ag2989
ag2990
ag2991
a(lp5181
I835
ag5026
aag2995
ag2996
a(lp5182
I838
ag5026
aag3000
ag3001
ag3002
a(lp5183
I842
ag5026
aag3005
ag3006
ag3007
a(lp5184
I847
ag5026
aag3011
ag3012
ag3013
a(lp5185
I851
ag5026
aag3017
ag3018
ag3019
a(lp5186
I855
ag5026
aag3022
ag3023
ag3024
ag3025
a(lp5187
I860
ag5026
aag3028
a(lp5188
I862
ag5026
aag3031
ag3032
ag3033
ag3034
a(lp5189
I867
ag5026
aag3038
ag3039
a(lp5190
I870
ag5026
aag3042
ag3043
ag3044
ag3045
ag3046
ag3047
ag3048
a(lp5191
I878
ag5026
aag3052
ag3053
ag3054
a(lp5192
I882
ag5026
aag3058
ag3059
ag3060
a(lp5193
I886
ag5026
aag3063
ag3064
ag3065
ag3066
ag3067
ag3068
ag3069
ag3070
ag3071
ag3072
ag3073
ag3074
a(lp5194
I899
ag5026
aag3077
ag3078
ag3079
a(lp5195
I903
ag5026
aag3083
ag3084
ag3085
a(lp5196
I907
ag5026
aag3088
ag3089
ag3090
ag3091
ag3092
ag3093
ag3094
a(lp5197
I915
ag5026
aag3098
ag3099
a(lp5198
I918
ag5026
aag3102
ag3103
ag3104
ag3105
ag3106
ag3107
ag3108
ag3109
ag3110
a(lp5199
I929
ag5026
aag3113
ag3114
ag3115
ag3116
ag3117
ag3118
ag3119
a(lp5200
I937
ag5026
aag3123
ag3124
ag3125
a(lp5201
I941
ag5026
aag3128
ag3129
ag3130
ag3131
a(lp5202
I946
ag5026
aag3134
ag3135
ag3136
ag3137
ag3138
ag3139
a(lp5203
I953
ag5026
aag3142
a(lp5204
I955
ag5026
aag3145
ag3146
ag3147
ag3148
ag3149
ag3150
a(lp5205
I962
ag5026
aag3154
ag3155
a(lp5206
I965
ag5026
aag3158
ag3159
ag3160
ag3161
ag3162
ag3163
a(lp5207
I973
ag5026
aag3167
ag3168
ag3169
ag3170
ag3171
a(lp5208
I979
ag5026
aag3175
ag3176
ag3177
a(lp5209
I983
ag5026
aag3180
ag3181
ag3182
ag3183
ag3184
ag3185
a(lp5210
I990
ag5026
aag3188
ag3189
ag3190
ag3191
ag3192
ag3193
ag3194
ag3195
a(lp5211
I999
ag5026
aag3199
ag3200
ag3201
ag3202
a(lp5212
I1004
ag5026
aag3206
ag3207
ag3208
a(lp5213
I1008
ag5026
aag3211
ag3212
ag3213
ag3214
ag3215
a(lp5214
I1014
ag5026
aag3219
ag3220
ag3221
ag3222
a(lp5215
I1019
ag5026
aag3225
ag3226
ag3227
ag3228
ag3229
a(lp5216
I1025
ag5026
aag3233
ag3234
ag3235
ag3236
a(lp5217
I1030
ag5026
aag3239
ag3240
ag3241
ag3242
a(lp5218
I1035
ag5026
aag3246
ag3247
a(lp5219
I1038
ag5026
aag3250
ag3251
ag3252
ag3253
a(lp5220
I1044
ag5026
aag3256
ag3257
ag3258
ag3259
ag3260
ag3261
ag3262
ag3263
ag3264
ag3265
a(lp5221
I1055
ag5026
aag3268
ag3269
ag3270
ag3271
ag3272
ag3273
ag3274
ag3275
ag3276
ag3277
a(lp5222
I1066
ag5026
aag3280
ag3281
ag3282
ag3283
ag3284
ag3285
ag3286
a(lp5223
I1074
ag5026
aag3289
ag3290
ag3291
ag3292
ag3293
ag3294
a(lp5224
I1081
ag5026
aag3297
ag3298
ag3299
ag3300
ag3301
ag3302
ag3303
a(lp5225
I1089
ag5026
aag3307
ag3308
ag3309
ag3310
a(lp5226
I1094
ag5026
aag3314
ag3315
ag3316
a(lp5227
I1098
ag5026
aag3320
ag3321
a(lp5228
I1101
ag5026
aag3325
ag3326
ag3327
a(lp5229
I1105
ag5026
aag3330
ag3331
ag3332
ag3333
ag3334
a(lp5230
I1111
ag5026
aag3338
ag3339
a(lp5231
I1114
ag5026
aag3342
ag3343
ag3344
ag3345
a(lp5232
I1119
ag5026
aag3349
ag3350
a(lp5233
I1122
ag5026
aag3354
ag3355
ag3356
a(lp5234
I1126
ag5026
aag3359
ag3360
ag3361
ag3362
ag3363
ag3364
ag3365
a(lp5235
I1134
ag5026
aag3369
ag3370
a(lp5236
I1137
ag5026
aag3373
ag3374
ag3375
ag3376
ag3377
ag3378
ag3379
ag3380
ag3381
ag3382
a(lp5237
I1148
ag5026
aag3385
ag3386
ag3387
ag3388
ag3389
ag3390
ag3391
ag3392
ag3393
ag3394
a(lp5238
I1160
ag5026
aag3398
ag3399
ag3400
ag3401
a(lp5239
I1165
ag5026
aag3405
ag3406
a(lp5240
I1168
ag5026
aag3409
a(lp5241
I1170
ag5026
aag3412
ag3413
ag3414
ag3415
ag3416
ag3417
ag3418
a(lp5242
I1178
ag5026
aag3422
ag3423
ag3424
ag3425
a(lp5243
I1183
ag5026
aag3428
ag3429
ag3430
ag3431
ag3432
ag3433
a(lp5244
I1190
ag5026
aag3437
ag3438
ag3439
ag3440
a(lp5245
I1195
ag5026
aag3444
ag3445
ag3446
ag3447
ag3448
a(lp5246
I1201
ag5026
aag3452
ag3453
a(lp5247
I1204
ag5026
aag3456
ag3457
ag3458
ag3459
ag3460
ag3461
a(lp5248
I1211
ag5026
aag3465
ag3466
a(lp5249
I1214
ag5026
aag3469
ag3470
ag3471
ag3472
ag3473
ag3474
a(lp5250
I1221
ag5026
aag3478
ag3479
ag3480
ag3481
a(lp5251
I1226
ag5026
aag3485
ag3486
ag3487
a(lp5252
I1230
ag5026
aag3490
ag3491
ag3492
ag3493
ag3494
ag3495
ag3496
ag3497
ag3498
ag3499
a(lp5253
I1242
ag5026
aag3502
ag3503
ag3504
ag3505
ag3506
a(lp5254
I1248
ag5026
aag3510
ag3511
ag3512
ag3513
a(lp5255
I1253
ag5026
aag3516
ag3517
ag3518
ag3519
ag3520
ag3521
ag3522
a(lp5256
I1261
ag5026
aag3526
ag3527
a(lp5257
I1264
ag5026
aag3530
ag3531
ag3532
ag3533
ag3534
ag3535
a(lp5258
I1271
ag5026
aag3539
ag3540
a(lp5259
I1274
ag5026
aag3543
ag3544
ag3545
ag3546
ag3547
ag3548
ag3549
ag3550
a(lp5260
I1283
ag5026
aag3554
ag3555
ag3556
a(lp5261
I1287
ag5026
aag3560
ag3561
ag3562
a(lp5262
I1291
ag5026
aag3565
ag3566
ag3567
ag3568
ag3569
a(lp5263
I1297
ag5026
aag3573
ag3574
a(lp5264
I1300
ag5026
aag3578
ag3579
ag3580
a(lp5265
I1304
ag5026
aag3583
ag3584
ag3585
ag3586
a(lp5266
I1310
ag5026
aag3589
ag3590
ag3591
ag3592
ag3593
a(lp5267
I1317
ag5026
aag3597
ag3598
ag3599
a(lp5268
I1321
ag5026
aag3602
ag3603
ag3604
ag3605
a(lp5269
I1327
ag5026
aag3609
ag3610
a(lp5270
I1331
ag5026
aag3614
ag3615
a(lp5271
I1334
ag5026
aag3618
ag3619
ag3620
ag3621
ag3622
a(lp5272
I1340
ag5026
aag3626
ag3627
a(lp5273
I1343
ag5026
aag3630
a(lp5274
I1345
ag5026
aag3633
ag3634
ag3635
ag3636
ag3637
ag3638
ag3639
a(lp5275
I1353
ag5026
aag3643
ag3644
ag3645
ag3646
a(lp5276
I1358
ag5026
aag3650
ag3651
a(lp5277
I1361
ag5026
aag3654
ag3655
ag3656
ag3657
ag3658
ag3659
ag3660
a(lp5278
I1369
ag5026
aag3664
ag3665
ag3666
a(lp5279
I1373
ag5026
aag3669
ag3670
ag3671
ag3672
a(lp5280
I1378
ag5026
aag3676
ag3677
a(lp5281
I1381
ag5026
aag3681
ag3682
ag3683
ag3684
a(lp5282
I1386
ag5026
aag3687
ag3688
ag3689
ag3690
ag3691
ag3692
ag3693
a(lp5283
I1395
ag5026
aag3696
ag3697
ag3698
ag3699
ag3700
ag3701
ag3702
ag3703
ag3704
ag3705
a(lp5284
I1406
ag5026
aag3708
ag3709
ag3710
ag3711
ag3712
ag3713
ag3714
ag3715
ag3716
ag3717
a(lp5285
I1417
ag5026
aag3721
ag3722
a(lp5286
I1420
ag5026
aag3725
ag3726
ag3727
ag3728
ag3729
ag3730
ag3731
a(lp5287
I1428
ag5026
aag3734
ag3735
ag3736
ag3737
ag3738
ag3739
ag3740
a(lp5288
I1436
ag5026
aag3744
ag3745
ag3746
ag3747
a(lp5289
I1441
ag5026
aag3750
ag3751
ag3752
ag3753
ag3754
a(lp5290
I1447
ag5026
aag3757
ag3758
ag3759
ag3760
ag3761
ag3762
a(lp5291
I1454
ag5026
aag3765
ag3766
ag3767
ag3768
a(lp5292
I1459
ag5026
aag3772
ag3773
a(lp5293
I1462
ag5026
aag3777
ag3778
ag3779
a(lp5294
I1466
ag5026
aag3782
ag3783
ag3784
ag3785
ag3786
ag3787
ag3788
a(lp5295
I1475
ag5026
aag3792
ag3793
ag3794
ag3795
a(lp5296
I1480
ag5026
aag3798
ag3799
ag3800
ag3801
ag3802
ag3803
ag3804
ag3805
ag3806
a(lp5297
I1490
ag5026
aag3810
ag3811
a(lp5298
I1493
ag5026
aag3814
a(lp5299
I1495
ag5026
aag3817
ag3818
ag3819
ag3820
ag3821
ag3822
ag3823
a(lp5300
I1503
ag5026
aag3827
ag3828
ag3829
ag3830
a(lp5301
I1508
ag5026
aag3833
ag3834
ag3835
ag3836
ag3837
ag3838
a(lp5302
I1515
ag5026
aag3842
ag3843
ag3844
ag3845
a(lp5303
I1520
ag5026
aag3849
ag3850
ag3851
a(lp5304
I1524
ag5026
aag3854
ag3855
ag3856
ag3857
ag3858
ag3859
ag3860
a(lp5305
I1532
ag5026
aag3863
ag3864
ag3865
ag3866
ag3867
ag3868
ag3869
ag3870
a(lp5306
I1541
ag5026
aag3873
ag3874
ag3875
a(lp5307
I1545
ag5026
aag3878
ag3879
ag3880
ag3881
ag3882
ag3883
ag3884
ag3885
a(lp5308
I1555
ag5026
aag3889
ag3890
a(lp5309
I1558
ag5026
aag3894
ag3895
ag3896
a(lp5310
I1562
ag5026
aag3900
ag3901
a(lp5311
I1565
ag5026
aag3904
a(lp5312
I1567
ag5026
aag3907
ag3908
ag3909
ag3910
ag3911
ag3912
a(lp5313
I1574
ag5026
aag3916
ag3917
a(lp5314
I1577
ag5026
aag3920
ag3921
ag3922
ag3923
ag3924
ag3925
a(lp5315
I1584
ag5026
aag3929
ag3930
a(lp5316
I1587
ag5026
aag3933
ag3934
ag3935
ag3936
a(lp5317
I1592
ag5026
aag3939
ag3940
ag3941
ag3942
ag3943
a(lp5318
I1598
ag5026
aag3947
ag3948
a(lp5319
I1601
ag5026
aag3952
ag3953
ag3954
a(lp5320
I1605
ag5026
aag3957
ag3958
ag3959
ag3960
a(lp5321
I1611
ag5026
aag3964
ag3965
a(lp5322
I1614
ag5026
aag3969
ag3970
ag3971
a(lp5323
I1618
ag5026
aag3974
ag3975
ag3976
ag3977
ag3978
a(lp5324
I1624
ag5026
aag3981
a(lp5325
I1626
ag5026
aag3984
ag3985
ag3986
a(lp5326
I1630
ag5026
aag3990
ag3991
a(lp5327
I1633
ag5026
aag3994
ag3995
ag3996
ag3997
a(lp5328
I1639
ag5026
aag4000
ag4001
ag4002
ag4003
ag4004
ag4005
ag4006
ag4007
ag4008
a(lp5329
I1649
ag5026
aag4011
ag4012
ag4013
ag4014
a(lp5330
I1654
ag5026
aag4018
ag4019
a(lp5331
I1657
ag5026
aag4023
ag4024
ag4025
a(lp5332
I1661
ag5026
aag4028
ag4029
ag4030
ag4031
ag4032
ag4033
ag4034
a(lp5333
I1669
ag5026
aag4038
ag4039
a(lp5334
I1672
ag5026
aag4043
ag4044
ag4045
a(lp5335
I1676
ag5026
aag4048
ag4049
ag4050
ag4051
ag4052
ag4053
ag4054
a(lp5336
I1684
ag5026
aag4058
ag4059
a(lp5337
I1687
ag5026
aag4063
ag4064
ag4065
a(lp5338
I1691
ag5026
aag4068
ag4069
ag4070
ag4071
a(lp5339
I1696
ag5026
aag4075
ag4076
ag4077
a(lp5340
I1700
ag5026
aag4080
ag4081
ag4082
ag4083
a(lp5341
I1705
ag5026
aag4087
ag4088
a(lp5342
I1708
ag5026
aag4091
ag4092
ag4093
ag4094
ag4095
ag4096
ag4097
ag4098
a(lp5343
I1718
ag5026
aag4101
ag4102
ag4103
ag4104
a(lp5344
I1723
ag5026
aag4107
ag4108
ag4109
a(lp5345
I1727
ag5026
aa(lp5346
I1729
ag5026
aag4112
ag4113
ag4114
ag4115
ag4116
ag4117
ag4118
ag4119
a(lp5347
I1738
ag5026
aag4122
ag4123
ag4124
ag4125
ag4126
a(lp5348
I1744
ag5026
aag4129
ag4130
ag4131
ag4132
ag4133
ag4134
a(lp5349
I1751
ag5026
aag4137
ag4138
ag4139
ag4140
a(lp5350
I1756
ag5026
aag4144
ag4145
a(lp5351
I1759
ag5026
aag4149
ag4150
ag4151
a(lp5352
I1764
ag5026
aag4155
ag4156
a(lp5353
I1767
ag5026
aag4160
ag4161
ag4162
a(lp5354
I1771
ag5026
aag4166
ag4167
ag4168
a(lp5355
I1775
ag5026
aag4171
ag4172
ag4173
ag4174
ag4175
ag4176
ag4177
a(lp5356
I1783
ag5026
aag4181
ag4182
ag4183
ag4184
a(lp5357
I1788
ag5026
aag4187
ag4188
ag4189
ag4190
ag4191
ag4192
ag4193
a(lp5358
I1796
ag5026
aag4196
ag4197
ag4198
ag4199
a(lp5359
I1801
ag5026
aag4203
ag4204
a(lp5360
I1804
ag5026
aag4208
ag4209
ag4210
ag4211
a(lp5361
I1809
ag5026
aag4214
ag4215
ag4216
ag4217
a(lp5362
I1814
ag5026
aag4220
ag4221
ag4222
a(lp5363
I1819
ag5026
aag4226
ag4227
ag4228
ag4229
a(lp5364
I1824
ag5026
aag4232
ag4233
ag4234
ag4235
ag4236
a(lp5365
I1830
ag5026
aag4240
ag4241
a(lp5366
I1833
ag5026
aag4244
ag4245
ag4246
ag4247
ag4248
ag4249
ag4250
ag4251
ag4252
ag4253
ag4254
a(lp5367
I1845
ag5026
aag4257
ag4258
ag4259
ag4260
ag4261
ag4262
ag4263
a(lp5368
I1854
ag5026
aag4266
ag4267
ag4268
ag4269
ag4270
ag4271
ag4272
ag4273
ag4274
a(lp5369
I1864
ag5026
aag4278
ag4279
ag4280
ag4281
a(lp5370
I1869
ag5026
aag4284
ag4285
ag4286
ag4287
ag4288
ag4289
a(lp5371
I1876
ag5026
aag4293
ag4294
ag4295
a(lp5372
I1880
ag5026
aag4298
ag4299
ag4300
ag4301
ag4302
a(lp5373
I1886
ag5026
aag4306
ag4307
ag4308
ag4309
ag4310
ag4311
ag4312
a(lp5374
I1894
ag5026
aag4315
a(lp5375
I1896
ag5026
aag4318
ag4319
ag4320
ag4321
ag4322
a(lp5376
I1902
ag5026
aag4325
ag4326
ag4327
ag4328
ag4329
ag4330
a(lp5377
I1910
ag5026
aag4334
ag4335
ag4336
ag4337
a(lp5378
I1915
ag5026
aag4340
ag4341
ag4342
a(lp5379
I1919
ag5026
aag4346
ag4347
a(lp5380
I1922
ag5026
aag4351
ag4352
ag4353
ag4354
ag4355
ag4356
a(lp5381
I1929
ag5026
aag4359
ag4360
ag4361
ag4362
a(lp5382
I1934
ag5026
aag4366
ag4367
a(lp5383
I1937
ag5026
aag4371
ag4372
ag4373
ag4374
ag4375
a(lp5384
I1943
ag5026
aag4378
ag4379
ag4380
ag4381
a(lp5385
I1948
ag5026
aag4384
ag4385
ag4386
a(lp5386
I1953
ag5026
aag4390
ag4391
ag4392
ag4393
ag4394
a(lp5387
I1959
ag5026
aag4398
ag4399
ag4400
a(lp5388
I1963
ag5026
aag4403
ag4404
ag4405
ag4406
ag4407
ag4408
ag4409
a(lp5389
I1971
ag5026
aag4413
ag4414
ag4415
a(lp5390
I1975
ag5026
aag4418
ag4419
ag4420
ag4421
ag4422
ag4423
ag4424
a(lp5391
I1983
ag5026
aag4427
ag4428
ag4429
ag4430
a(lp5392
I1989
ag5026
aag4434
ag4435
a(lp5393
I1992
ag5026
aag4439
ag4440
ag4441
a(lp5394
I1996
ag5026
aag4445
ag4446
ag4447
a(lp5395
I2000
ag5026
aag4451
ag4452
ag4453
ag4454
ag4455
ag4456
a(lp5396
I2007
ag5026
aag4459
ag4460
ag4461
ag4462
ag4463
a(lp5397
I2013
ag5026
aag4466
ag4467
ag4468
ag4469
a(lp5398
I2018
ag5026
aag4472
ag4473
ag4474
ag4475
ag4476
a(lp5399
I2024
ag5026
aag4480
ag4481
ag4482
ag4483
a(lp5400
I2029
ag5026
aag4487
ag4488
ag4489
ag4490
a(lp5401
I2034
ag5026
aag4493
ag4494
ag4495
ag4496
ag4497
ag4498
ag4499
a(lp5402
I2042
ag5026
aag4502
ag4503
ag4504
ag4505
a(lp5403
I2047
ag5026
aag4509
ag4510
a(lp5404
I2050
ag5026
aag4514
ag4515
ag4516
a(lp5405
I2054
ag5026
aag4520
ag4521
ag4522
ag4523
a(lp5406
I2059
ag5026
aag4526
ag4527
ag4528
ag4529
a(lp5407
I2064
ag5026
aag4533
ag4534
ag4535
ag4536
ag4537
ag4538
ag4539
a(lp5408
I2072
ag5026
aag4543
ag4544
ag4545
a(lp5409
I2076
ag5026
aag4548
ag4549
ag4550
ag4551
ag4552
ag4553
a(lp5410
I2083
ag5026
aag4556
ag4557
ag4558
a(lp5411
I2087
ag5026
aag4562
ag4563
ag4564
a(lp5412
I2091
ag5026
aag4568
ag4569
ag4570
ag4571
a(lp5413
I2096
ag5026
aag4575
ag4576
a(lp5414
I2099
ag5026
aag4580
ag4581
ag4582
a(lp5415
I2103
ag5026
aag4585
ag4586
ag4587
a(lp5416
I2107
ag5026
aag4590
ag4591
ag4592
ag4593
a(lp5417
I2113
ag5026
aag4597
ag4598
ag4599
a(lp5418
I2117
ag5026
aag4603
ag4604
ag4605
ag4606
ag4607
ag4608
a(lp5419
I2124
ag5026
aag4611
ag4612
ag4613
ag4614
a(lp5420
I2129
ag5026
aag4617
ag4618
ag4619
ag4620
ag4621
ag4622
ag4623
a(lp5421
I2137
ag5026
aag4626
ag4627
ag4628
ag4629
ag4630
ag4631
ag4632
ag4633
ag4634
a(lp5422
I2147
ag5026
aag4638
ag4639
a(lp5423
I2150
ag5026
aag4642
ag4643
ag4644
ag4645
a(lp5424
I2155
ag5026
aag4649
ag4650
a(lp5425
I2158
ag5026
aag4653
ag4654
ag4655
ag4656
ag4657
ag4658
ag4659
ag4660
a(lp5426
I2168
ag5026
aag4664
ag4665
a(lp5427
I2172
ag5026
aag4669
ag4670
a(lp5428
I2175
ag5026
aag4674
ag4675
ag4676
a(lp5429
I2179
ag5026
aag4680
ag4681
ag4682
a(lp5430
I2183
ag5026
aag4685
ag4686
ag4687
a(lp5431
I2188
ag5026
aag4690
ag4691
ag4692
ag4693
a(lp5432
I2193
ag5026
aag4697
ag4698
a(lp5433
I2196
ag5026
aag4702
ag4703
ag4704
a(lp5434
I2200
ag5026
aag4707
ag4708
ag4709
ag4710
ag4711
ag4712
ag4713
a(lp5435
I2208
ag5026
aag4717
ag4718
a(lp5436
I2211
ag5026
aag4722
ag4723
ag4724
a(lp5437
I2215
ag5026
aag4727
ag4728
ag4729
ag4730
ag4731
ag4732
a(lp5438
I2222
ag5026
aag4735
a(lp5439
I2224
ag5026
aag4738
ag4739
ag4740
ag4741
a(lp5440
I2229
ag5026
aag4745
ag4746
a(lp5441
I2232
ag5026
aag4749
ag4750
ag4751
ag4752
ag4753
ag4754
ag4755
a(lp5442
I2240
ag5026
aag4759
ag4760
ag4761
ag4762
a(lp5443
I2245
ag5026
aag4765
ag4766
ag4767
ag4768
ag4769
ag4770
a(lp5444
I2252
ag5026
aag4773
ag4774
ag4775
ag4776
ag4777
ag4778
a(lp5445
I2259
ag5026
aag4781
ag4782
ag4783
ag4784
ag4785
ag4786
ag4787
ag4788
a(lp5446
I2269
ag5026
aag4792
ag4793
ag4794
ag4795
ag4796
a(lp5447
I2275
ag5026
aag4800
ag4801
ag4802
a(lp5448
I2279
ag5026
aag4806
ag4807
ag4808
ag4809
ag4810
a(lp5449
I2285
ag5026
aag4814
ag4815
ag4816
ag4817
a(lp5450
I2290
ag5026
aag4820
ag4821
ag4822
ag4823
ag4824
ag4825
ag4826
a(lp5451
I2298
ag5026
aag4829
ag4830
ag4831
ag4832
ag4833
ag4834
ag4835
ag4836
a(lp5452
I2307
ag5026
aag4840
ag4841
ag4842
ag4843
a(lp5453
I2312
ag5026
aag4847
ag4848
ag4849
a(lp5454
I2316
ag5026
aag4852
ag4853
ag4854
ag4855
ag4856
a(lp5455
I2322
ag5026
aag4859
ag4860
ag4861
ag4862
ag4863
ag4864
ag4865
a(lp5456
I2330
ag5026
aag4868
ag4869
ag4870
ag4871
a(lp5457
I2336
ag5026
aag4875
ag4876
ag4877
a(lp5458
I2340
ag5026
aag4881
ag4882
ag4883
ag4884
a(lp5459
I2345
ag5026
aag4887
ag4888
ag4889
ag4890
ag4891
ag4892
a(lp5460
I2353
ag5026
aag4895
ag4896
ag4897
ag4898
ag4899
a(lp5461
I2359
ag5026
aag4903
ag4904
a(lp5462
I2362
ag5026
aag4908
ag4909
ag4910
ag4911
a(lp5463
I2367
ag5026
aag4914
ag4915
ag4916
ag4917
ag4918
ag4919
a(lp5464
I2374
ag5026
aag4923
ag4924
ag4925
a(lp5465
I2378
ag5026
aag4928
ag4929
ag4930
ag4931
ag4932
ag4933
ag4934
a(lp5466
I2386
ag5026
aag4938
ag4939
ag4940
a(lp5467
I2390
ag5026
aag4943
ag4944
ag4945
ag4946
a(lp5468
I2395
ag5026
aag4950
ag4951
ag4952
ag4953
ag4954
a(lp5469
I2401
ag5026
aag4958
ag4959
ag4960
a(lp5470
I2405
ag5026
aag4963
ag4964
ag4965
ag4966
a(lp5471
I2410
ag5026
aag4970
ag4971
ag4972
a(lp5472
I2414
ag5026
aag4976
ag4977
a(lp5473
I2417
ag5026
aag4981
ag4982
ag4983
ag4984
a(lp5474
I2422
ag5026
aag4987
ag4988
ag4989
ag4990
ag4991
ag4992
ag4993
ag4994
ag4995
a(lp5475
I2432
ag5026
aag4999
ag5000
a(lp5476
I2435
ag5026
aag5003
ag5004
ag5005
ag5006
ag5007
ag5008
ag5009
a(lp5477
I2443
ag5026
aag5013
ag5014
ag5015
a(lp5478
I2447
ag5026
aag5018
ag5019
ag5020
ag5021
ag5022
a(lp5479
I2453
ag5026
aa(lp5480
I2454
ag1922
aa(lp5481
I2455
ag1913
aa(lp5482
I2456
ag1929
aa(lp5483
I2457
ag1911
aa(lp5484
I2458
ag1922
aa(lp5485
I2459
ag1982
aa(lp5486
I2460
ag1929
aa(lp5487
I2461
ag1926
aa(lp5488
I2462
ag1922
aasS'text'
p5489
S'carpal tunnel is not the only cause of forearm pain wednesday, november 26, 2008 dealing with forearm pain? this is a pain that occurs in the forearm area and it can be caused by a variety of different problems. many times it is caused by carpal tunnel syndrome. however, if you are dealing with pain in your forearm, you need to understand that carpal tunnel syndrome is not always the problem. there are many other causes of forearm pain that you should be aware of. here is a look at some of the problems, other than carpal tunnel syndrome, that can be causing the pain you have in your forearm. injury to the forearm one cause of pain in the forearm area can be an injury to the forearm. before you decide you are only dealing with some carpal tunnel pain, you will want to take a few minutes to think. have you injured the forearm in any way? did you take a fall or perhaps did you accidentally hit the forearm on something? perhaps you even pulled a muscle or tendon. these are common problems that can occur that cause this type of pain. peripheral neuropathy another common problem that can be the cause of pain in the forearm is peripheral neuropathy. this is a problem that occurs when there is damage to nerves that are peripheral. often this problem is caused by diabetes and can occur to the feet, hands, and arms. so, it could be a problem that is causing the pain in your forearm. tendonitis tendonitis is another problem that often causes pain in the forearm. this basically is a problem that occurs when the tendons actually get inflamed. it can be a result of injury or even using it too much. it can cause a lot of pain, including pain in the forearm if the tendons in the area are hurt or overused. left arm - possible heart attack last of all, if you are dealing with forearm pain in your left arm, this could be potentially serious. sometimes when people are going through a heart attack, they end up having pain in their left arm, which can include the forearm area. if you are having chest pain along with this forearm pain or you have pain through the entire arm and only on the one side, you should seek medical attention as soon as possible. so, as you can see, pain in the forearm is not always a sign of dealing with carpal tunnel syndrome. there are other very serious problems that can cause similar pain. for this reason, going to your doctor and letting him know about the pain can be very important to receive the right treatment.'
p5490
sS'cleanWordMap'
p5491
(lp5492
g1906
ag1919
ag1960
ag1973
ag1983
ag1989
ag2002
ag2014
ag2020
ag2028
ag2045
ag2054
ag2075
ag2088
ag2107
ag2116
ag2144
ag2160
ag2174
ag2185
ag2195
ag2201
ag2218
ag2231
ag2239
ag2247
ag2257
ag2283
ag2299
ag2317
ag2332
ag2343
ag2362
ag2370
ag2378
ag2399
ag2413
ag2436
ag2450
ag2463
ag2472
ag2505
ag2532
ag2562
ag2587
ag2595
ag2603
ag2631
ag2646
ag2677
ag2686
ag2706
ag2715
ag2720
ag2732
ag2749
ag2758
ag2780
ag2799
ag2823
ag2850
ag2873
ag2881
ag2889
ag2908
ag2919
ag2934
ag2948
ag2968
ag2983
ag3003
ag3020
ag3029
ag3040
ag3061
ag3075
ag3086
ag3100
ag3111
ag3126
ag3132
ag3143
ag3156
ag3178
ag3186
ag3209
ag3223
ag3237
ag3248
ag3254
ag3266
ag3278
ag3287
ag3295
ag3328
ag3340
ag3357
ag3371
ag3383
ag3410
ag3426
ag3454
ag3467
ag3488
ag3500
ag3514
ag3528
ag3541
ag3563
ag3581
ag3587
ag3600
ag3616
ag3631
ag3652
ag3667
ag3685
ag3694
ag3706
ag3723
ag3732
ag3748
ag3755
ag3763
ag3780
ag3796
ag3815
ag3831
ag3852
ag3861
ag3871
ag3876
ag3905
ag3918
ag3931
ag3937
ag3955
ag3972
ag3982
ag3992
ag3998
ag4009
ag4026
ag4046
ag4066
ag4078
ag4089
ag4099
ag4105
ag4110
ag4120
ag4127
ag4135
ag4169
ag4185
ag4194
ag4212
ag4218
ag4230
ag4242
ag4255
ag4264
ag4282
ag4296
ag4316
ag4323
ag4338
ag4357
ag4376
ag4382
ag4401
ag4416
ag4425
ag4457
ag4464
ag4470
ag4491
ag4500
ag4524
ag4546
ag4554
ag4583
ag4588
ag4609
ag4615
ag4624
ag4640
ag4651
ag4683
ag4688
ag4705
ag4725
ag4736
ag4747
ag4763
ag4771
ag4779
ag4818
ag4827
ag4850
ag4857
ag4866
ag4885
ag4893
ag4912
ag4926
ag4941
ag4961
ag4985
ag5001
ag5016
asS'lines'
p5493
(lp5494
VCarpal Tunnel is Not the Only Cause of Forearm Pain\u000a
p5495
aVWednesday, November 26, 2008\u000a
p5496
aVDealing with forearm pain? This is a pain that occurs in the forearm area and it can be caused by a variety of different problems. Many times it is caused by carpal tunnel syndrome. However, if you are dealing with pain in your forearm, you need to understand that carpal tunnel syndrome is not always the problem. There are many other causes of forearm pain that you should be aware of. Here is a look at some of the problems, other than carpal tunnel syndrome, that can be causing the pain you have in your forearm.\u000a
p5497
aVInjury to the Forearm\u000a
p5498
aVOne cause of pain in the forearm area can be an injury to the forearm. Before you decide you are only dealing with some carpal tunnel pain, you will want to take a few minutes to think. Have you injured the forearm in any way? Did you take a fall or perhaps did you accidentally hit the forearm on something? Perhaps you even pulled a muscle or tendon. These are common problems that can occur that cause this type of pain.\u000a
p5499
aVPeripheral Neuropathy\u000a
p5500
aVAnother common problem that can be the cause of pain in the forearm is peripheral neuropathy. This is a problem that occurs when there is damage to nerves that are peripheral. Often this problem is caused by diabetes and can occur to the feet, hands, and arms. So, it could be a problem that is causing the pain in your forearm.\u000a
p5501
aVTendonitis\u000a
p5502
aVTendonitis is another problem that often causes pain in the forearm. This basically is a problem that occurs when the tendons actually get inflamed. It can be a result of injury or even using it too much. It can cause a lot of pain, including pain in the forearm if the tendons in the area are hurt or overused.\u000a
p5503
aVLeft Arm - Possible Heart Attack\u000a
p5504
aVLast of all, if you are dealing with forearm pain in your left arm, this could be potentially serious. Sometimes when people are going through a heart attack, they end up having pain in their left arm, which can include the forearm area. If you are having chest pain along with this forearm pain or you have pain through the entire arm and only on the one side, you should seek medical attention as soon as possible.\u000a
p5505
aVSo, as you can see, pain in the forearm is not always a sign of dealing with carpal tunnel syndrome. There are other very serious problems that can cause similar pain. For this reason, going to your doctor and letting him know about the pain can be very important to receive the right treatment.
p5506
asS'docType'
p5507
S'src'
p5508
sS'newfmap'
p5509
(lp5510
g4
ag8
ag10
ag12
ag17
ag19
ag21
ag23
ag26
ag28
ag30
ag32
ag35
ag37
ag39
ag46
ag48
ag50
ag53
ag55
ag57
ag59
ag62
ag64
ag66
ag68
ag71
ag73
ag75
ag77
ag80
ag82
ag84
ag86
ag89
ag91
ag93
ag95
ag98
ag100
ag102
ag109
ag111
ag120
ag122
ag125
ag127
ag129
ag131
ag138
ag140
ag143
ag145
ag147
ag149
ag152
ag154
ag156
ag158
ag161
ag163
ag165
ag167
ag170
ag172
ag174
ag176
ag179
ag181
ag183
ag185
ag188
ag190
ag192
ag194
ag197
ag199
ag201
ag203
ag206
ag208
ag210
ag212
ag215
ag217
ag219
ag224
ag226
ag228
ag230
ag233
ag235
ag237
ag239
ag242
ag244
ag246
ag248
ag251
ag253
ag255
ag260
ag262
ag264
ag269
ag271
ag273
ag275
ag278
ag280
ag282
ag284
ag287
ag289
ag291
ag293
ag296
ag298
ag300
ag305
ag307
ag309
ag311
ag314
ag316
ag318
ag320
ag323
ag325
ag327
ag329
ag332
ag334
ag336
ag338
ag341
ag343
ag345
ag347
ag350
ag352
ag354
ag356
ag359
ag361
ag363
ag368
ag370
ag372
ag374
ag377
ag379
ag381
ag383
ag386
ag388
ag390
ag392
ag395
ag397
ag399
ag401
ag404
ag406
ag408
ag413
ag415
ag417
ag419
ag422
ag424
ag426
ag428
ag431
ag433
ag435
ag437
ag440
ag442
ag444
ag449
ag451
ag453
ag455
ag458
ag460
ag462
ag464
ag467
ag471
ag473
ag476
ag478
ag480
ag482
ag485
ag487
ag489
ag494
ag498
ag503
ag505
ag507
ag509
ag512
ag514
ag516
ag518
ag521
ag523
ag525
ag527
ag530
ag532
ag536
ag539
ag541
ag543
ag545
ag548
ag550
ag552
ag554
ag557
ag559
ag561
ag566
ag568
ag570
ag572
ag575
ag579
ag581
ag584
ag586
ag588
ag590
ag593
ag595
ag597
ag599
ag602
ag604
ag606
ag608
ag611
ag613
ag615
ag617
ag620
ag622
ag624
ag626
ag629
ag631
ag633
ag635
ag638
ag640
ag642
ag644
ag647
ag649
ag651
ag653
ag656
ag658
ag660
ag662
ag665
ag667
ag669
ag671
ag674
ag676
ag678
ag680
ag683
ag685
ag687
ag689
ag692
ag694
ag696
ag698
ag701
ag703
ag705
ag707
ag710
ag712
ag714
ag716
ag719
ag721
ag723
ag725
ag728
ag730
ag732
ag734
ag737
ag739
ag741
ag743
ag746
ag748
ag750
ag752
ag755
ag757
ag759
ag761
ag764
ag766
ag768
ag770
ag773
ag775
ag777
ag779
ag782
ag784
ag786
ag788
ag791
ag793
ag795
ag797
ag802
ag804
ag806
ag809
ag811
ag813
ag815
ag818
ag820
ag822
ag824
ag827
ag829
ag831
ag833
ag836
ag838
ag840
ag842
ag845
ag847
ag849
ag851
ag854
ag856
ag858
ag863
ag865
ag867
ag872
ag874
ag876
ag878
ag881
ag883
ag885
ag887
ag890
ag892
ag894
ag896
ag899
ag901
ag903
ag905
ag908
ag910
ag912
ag914
ag917
ag919
ag921
ag923
ag926
ag928
ag930
ag932
ag935
ag937
ag939
ag941
ag944
ag946
ag948
ag950
ag953
ag955
ag957
ag959
ag962
ag964
ag966
ag968
ag971
ag973
ag975
ag977
ag980
ag982
ag984
ag986
ag989
ag991
ag993
ag995
ag998
ag1000
ag1002
ag1004
ag1007
ag1009
ag1011
ag1013
ag1016
ag1018
ag1020
ag1022
ag1025
ag1027
ag1029
ag1031
ag1034
ag1036
ag1038
ag1040
ag1043
ag1045
ag1047
ag1052
ag1054
ag1056
ag1058
ag1061
ag1063
ag1065
ag1067
ag1070
ag1072
ag1074
ag1076
ag1079
ag1081
ag1083
ag1085
ag1088
ag1090
ag1092
ag1094
ag1097
ag1099
ag1101
ag1103
ag1106
ag1108
ag1110
ag1112
ag1115
ag1117
ag1119
ag1124
ag1126
ag1128
ag1130
ag1133
ag1135
ag1137
ag1139
ag1142
ag1144
ag1146
ag1148
ag1151
ag1153
ag1155
ag1157
ag1160
ag1162
ag1164
ag1166
ag1169
ag1171
ag1173
ag1175
ag1178
ag1180
ag1182
ag1184
ag1187
ag1189
ag1191
ag1193
ag1196
ag1198
ag1200
ag1202
ag1205
ag1207
ag1209
ag1211
ag1214
ag1216
ag1218
ag1220
ag1223
ag1225
ag1227
ag1229
ag1232
ag1234
ag1236
ag1238
ag1241
ag1243
ag1245
ag1247
ag1250
ag1252
ag1254
ag1256
ag1261
ag1263
ag1265
ag1268
ag1270
ag1272
ag1274
ag1279
ag1286
ag1290
ag1292
ag1295
ag1297
ag1299
ag1301
ag1304
ag1306
ag1308
ag1310
ag1313
ag1315
ag1317
ag1319
ag1322
ag1324
ag1326
ag1328
ag1331
ag1333
ag1335
ag1337
ag1340
ag1342
ag1344
ag1346
ag1349
ag1351
ag1353
ag1355
ag1358
ag1360
ag1362
ag1364
ag1367
ag1369
ag1371
ag1373
ag1376
ag1378
ag1380
ag1382
ag1385
ag1387
ag1389
ag1391
ag1394
ag1396
ag1398
ag1405
ag1407
ag1409
ag1412
ag1414
ag1416
ag1418
ag1421
ag1423
ag1425
ag1427
ag1430
ag1432
ag1434
ag1436
ag1439
ag1441
ag1443
ag1445
ag1448
ag1450
ag1452
ag1454
ag1457
ag1459
ag1461
ag1463
ag1466
ag1468
ag1470
ag1472
ag1475
ag1477
ag1479
ag1481
ag1484
ag1486
ag1488
ag1490
ag1493
ag1495
ag1497
ag1499
ag1502
ag1504
ag1506
ag1508
ag1511
ag1513
ag1515
ag1517
ag1520
ag1522
ag1524
ag1526
ag1529
ag1531
ag1533
ag1535
ag1538
ag1540
ag1542
ag1544
ag1547
ag1549
ag1553
ag1556
ag1558
ag1560
ag1562
ag1565
ag1567
ag1569
ag1571
ag1574
ag1578
ag1580
ag1583
ag1585
ag1587
ag1589
ag1594
ag1596
ag1601
ag1605
ag1612
ag1616
ag1619
ag1621
ag1623
ag1625
ag1628
ag1630
ag1632
ag1634
ag1637
ag1639
ag1641
ag1643
ag1646
ag1648
ag1650
ag1652
ag1655
ag1657
ag1659
ag1661
ag1664
ag1666
ag1668
ag1670
ag1673
ag1675
ag1677
ag1679
ag1682
ag1684
ag1686
ag1688
ag1691
ag1693
ag1695
ag1697
ag1700
ag1702
ag1704
ag1706
ag1709
ag1711
ag1713
ag1718
ag1720
ag1722
ag1724
ag1727
ag1729
ag1731
ag1733
ag1736
ag1738
ag1740
ag1742
ag1745
ag1747
ag1749
ag1751
ag1754
ag1756
ag1758
ag1763
ag1765
ag1767
ag1769
ag1772
ag1774
ag1776
ag1778
ag1781
ag1783
ag1785
ag1787
ag1790
ag1792
ag1794
ag1796
ag1799
ag1801
ag1803
ag1805
ag1808
ag1810
ag1812
ag1814
ag1819
ag1821
ag1823
ag1826
ag1828
ag1830
ag1832
ag1835
ag1837
ag1839
ag1841
ag1844
ag1846
ag1848
ag1850
ag1853
ag1855
ag1857
ag1859
ag1862
ag1864
ag1866
ag1868
ag1871
ag1873
ag1875
ag1877
ag1880
ag1882
ag1884
ag1886
ag1889
ag1891
ag1893
ag1895
ag1898
ag1900
ag1902
asS'featureMap'
p5511
(lp5512
(lp5513
I0
aI5
ag5
ag6
ag9
ag11
ag13
aa(lp5514
I7
aI12
ag15
ag16
ag18
ag20
ag22
aa(lp5515
I30
aI34
ag24
ag25
ag27
ag29
ag31
aa(lp5516
I39
aI45
ag33
ag34
ag36
ag38
ag40
aa(lp5517
I47
aI50
ag42
ag43
ag45
ag47
ag49
aa(lp5518
I52
aI60
ag51
ag52
ag54
ag56
ag58
aa(lp5519
I63
aI70
ag60
ag61
ag63
ag65
ag67
aa(lp5520
I72
aI73
ag69
ag70
ag72
ag74
ag76
aa(lp5521
I76
aI79
ag78
ag79
ag81
ag83
ag85
aa(lp5522
I81
aI87
ag87
ag88
ag90
ag92
ag94
aa(lp5523
I94
aI100
ag96
ag97
ag99
ag101
ag103
aa(lp5524
I102
aI105
ag105
ag106
ag108
ag110
ag112
aa(lp5525
I118
aI121
ag114
ag115
ag117
ag119
ag121
aa(lp5526
I128
aI133
ag123
ag124
ag126
ag128
ag130
aa(lp5527
I142
aI148
ag132
ag133
ag135
ag137
ag139
aa(lp5528
I150
aI153
ag141
ag142
ag144
ag146
ag148
aa(lp5529
I169
aI174
ag150
ag151
ag153
ag155
ag157
aa(lp5530
I181
aI187
ag159
ag160
ag162
ag164
ag166
aa(lp5531
I192
aI200
ag168
ag169
ag171
ag173
ag175
aa(lp5532
I202
aI209
ag177
ag178
ag180
ag182
ag184
aa(lp5533
I212
aI215
ag186
ag187
ag189
ag191
ag193
aa(lp5534
I217
aI221
ag195
ag196
ag198
ag200
ag202
aa(lp5535
I229
aI234
ag204
ag205
ag207
ag209
ag211
aa(lp5536
I239
aI244
ag213
ag214
ag216
ag218
ag220
aa(lp5537
I246
aI251
ag222
ag223
ag225
ag227
ag229
aa(lp5538
I253
aI260
ag231
ag232
ag234
ag236
ag238
aa(lp5539
I263
aI269
ag240
ag241
ag243
ag245
ag247
aa(lp5540
I283
aI289
ag249
ag250
ag252
ag254
ag256
aa(lp5541
I296
aI299
ag258
ag259
ag261
ag263
ag265
aa(lp5542
I309
aI315
ag267
ag268
ag270
ag272
ag274
aa(lp5543
I322
aI325
ag276
ag277
ag279
ag281
ag283
aa(lp5544
I330
aI339
ag285
ag286
ag288
ag290
ag292
aa(lp5545
I346
aI351
ag294
ag295
ag297
ag299
ag301
aa(lp5546
I353
aI358
ag303
ag304
ag306
ag308
ag310
aa(lp5547
I360
aI367
ag312
ag313
ag315
ag317
ag319
aa(lp5548
I376
aI381
ag321
ag322
ag324
ag326
ag328
aa(lp5549
I387
aI393
ag330
ag331
ag333
ag335
ag337
aa(lp5550
I406
aI409
ag339
ag340
ag342
ag344
ag346
aa(lp5551
I417
aI422
ag348
ag349
ag351
ag353
ag355
aa(lp5552
I427
aI433
ag357
ag358
ag360
ag362
ag364
aa(lp5553
I435
aI438
ag366
ag367
ag369
ag371
ag373
aa(lp5554
I459
aI463
ag375
ag376
ag378
ag380
ag382
aa(lp5555
I479
aI482
ag384
ag385
ag387
ag389
ag391
aa(lp5556
I499
aI506
ag393
ag394
ag396
ag398
ag400
aa(lp5557
I520
aI525
ag402
ag403
ag405
ag407
ag409
aa(lp5558
I527
aI532
ag411
ag412
ag414
ag416
ag418
aa(lp5559
I534
aI541
ag420
ag421
ag423
ag425
ag427
aa(lp5560
I556
aI562
ag429
ag430
ag432
ag434
ag436
aa(lp5561
I568
aI571
ag438
ag439
ag441
ag443
ag445
aa(lp5562
I590
aI596
ag447
ag448
ag450
ag452
ag454
aa(lp5563
I599
aI604
ag456
ag457
ag459
ag461
ag463
aa(lp5564
I613
aI619
ag465
ag466
ag468
ag470
ag472
aa(lp5565
I621
aI623
ag474
ag475
ag477
ag479
ag481
aa(lp5566
I625
aI629
ag483
ag484
ag486
ag488
ag490
aa(lp5567
I634
aI637
ag492
ag493
ag495
ag497
ag499
aa(lp5568
I646
aI652
ag501
ag502
ag504
ag506
ag508
aa(lp5569
I654
aI657
ag510
ag511
ag513
ag515
ag517
aa(lp5570
I669
aI674
ag519
ag520
ag522
ag524
ag526
aa(lp5571
I683
aI689
ag528
ag529
ag531
ag533
ag535
aa(lp5572
I703
aI708
ag537
ag538
ag540
ag542
ag544
aa(lp5573
I723
aI729
ag546
ag547
ag549
ag551
ag553
aa(lp5574
I741
aI746
ag555
ag556
ag558
ag560
ag562
aa(lp5575
I748
aI753
ag564
ag565
ag567
ag569
ag571
aa(lp5576
I755
aI758
ag573
ag574
ag576
ag578
ag580
aa(lp5577
I770
aI773
ag582
ag583
ag585
ag587
ag589
aa(lp5578
I778
aI781
ag591
ag592
ag594
ag596
ag598
aa(lp5579
I789
aI795
ag600
ag601
ag603
ag605
ag607
aa(lp5580
I800
aI804
ag609
ag610
ag612
ag614
ag616
aa(lp5581
I816
aI822
ag618
ag619
ag621
ag623
ag625
aa(lp5582
I828
aI834
ag627
ag628
ag630
ag632
ag634
aa(lp5583
I843
aI845
ag636
ag637
ag639
ag641
ag643
aa(lp5584
I856
aI859
ag645
ag646
ag648
ag650
ag652
aa(lp5585
I863
aI866
ag654
ag655
ag657
ag659
ag661
aa(lp5586
I871
aI877
ag663
ag664
ag666
ag668
ag670
aa(lp5587
I887
aI898
ag672
ag673
ag675
ag677
ag679
aa(lp5588
I900
aI902
ag681
ag682
ag684
ag686
ag688
aa(lp5589
I908
aI914
ag690
ag691
ag693
ag695
ag697
aa(lp5590
I919
aI927
ag699
ag700
ag702
ag704
ag706
aa(lp5591
I930
aI936
ag708
ag709
ag711
ag713
ag715
aa(lp5592
I942
aI945
ag717
ag718
ag720
ag722
ag724
aa(lp5593
I947
aI952
ag726
ag727
ag729
ag731
ag733
aa(lp5594
I956
aI961
ag735
ag736
ag738
ag740
ag742
aa(lp5595
I966
aI971
ag744
ag745
ag747
ag749
ag751
aa(lp5596
I984
aI989
ag753
ag754
ag756
ag758
ag760
aa(lp5597
I991
aI998
ag762
ag763
ag765
ag767
ag769
aa(lp5598
I1009
aI1013
ag771
ag772
ag774
ag776
ag778
aa(lp5599
I1020
aI1024
ag780
ag781
ag783
ag785
ag787
aa(lp5600
I1031
aI1034
ag789
ag790
ag792
ag794
ag796
aa(lp5601
I1039
aI1042
ag798
ag799
ag801
ag803
ag805
aa(lp5602
I1045
aI1054
ag807
ag808
ag810
ag812
ag814
aa(lp5603
I1056
aI1065
ag816
ag817
ag819
ag821
ag823
aa(lp5604
I1067
aI1073
ag825
ag826
ag828
ag830
ag832
aa(lp5605
I1075
aI1080
ag834
ag835
ag837
ag839
ag841
aa(lp5606
I1082
aI1088
ag843
ag844
ag846
ag848
ag850
aa(lp5607
I1106
aI1110
ag852
ag853
ag855
ag857
ag859
aa(lp5608
I1115
aI1118
ag861
ag862
ag864
ag866
ag868
aa(lp5609
I1127
aI1133
ag870
ag871
ag873
ag875
ag877
aa(lp5610
I1138
aI1147
ag879
ag880
ag882
ag884
ag886
aa(lp5611
I1149
aI1158
ag888
ag889
ag891
ag893
ag895
aa(lp5612
I1171
aI1177
ag897
ag898
ag900
ag902
ag904
aa(lp5613
I1184
aI1189
ag906
ag907
ag909
ag911
ag913
aa(lp5614
I1205
aI1210
ag915
ag916
ag918
ag920
ag922
aa(lp5615
I1215
aI1220
ag924
ag925
ag927
ag929
ag931
aa(lp5616
I1231
aI1240
ag933
ag934
ag936
ag938
ag940
aa(lp5617
I1243
aI1247
ag942
ag943
ag945
ag947
ag949
aa(lp5618
I1254
aI1260
ag951
ag952
ag954
ag956
ag958
aa(lp5619
I1265
aI1270
ag960
ag961
ag963
ag965
ag967
aa(lp5620
I1275
aI1282
ag969
ag970
ag972
ag974
ag976
aa(lp5621
I1292
aI1296
ag978
ag979
ag981
ag983
ag985
aa(lp5622
I1305
aI1308
ag987
ag988
ag990
ag992
ag994
aa(lp5623
I1311
aI1315
ag996
ag997
ag999
ag1001
ag1003
aa(lp5624
I1322
aI1325
ag1005
ag1006
ag1008
ag1010
ag1012
aa(lp5625
I1335
aI1339
ag1014
ag1015
ag1017
ag1019
ag1021
aa(lp5626
I1346
aI1352
ag1023
ag1024
ag1026
ag1028
ag1030
aa(lp5627
I1362
aI1368
ag1032
ag1033
ag1035
ag1037
ag1039
aa(lp5628
I1374
aI1377
ag1041
ag1042
ag1044
ag1046
ag1048
aa(lp5629
I1387
aI1393
ag1050
ag1051
ag1053
ag1055
ag1057
aa(lp5630
I1396
aI1405
ag1059
ag1060
ag1062
ag1064
ag1066
aa(lp5631
I1407
aI1416
ag1068
ag1069
ag1071
ag1073
ag1075
aa(lp5632
I1421
aI1427
ag1077
ag1078
ag1080
ag1082
ag1084
aa(lp5633
I1429
aI1435
ag1086
ag1087
ag1089
ag1091
ag1093
aa(lp5634
I1442
aI1446
ag1095
ag1096
ag1098
ag1100
ag1102
aa(lp5635
I1448
aI1453
ag1104
ag1105
ag1107
ag1109
ag1111
aa(lp5636
I1455
aI1458
ag1113
ag1114
ag1116
ag1118
ag1120
aa(lp5637
I1467
aI1473
ag1122
ag1123
ag1125
ag1127
ag1129
aa(lp5638
I1481
aI1489
ag1131
ag1132
ag1134
ag1136
ag1138
aa(lp5639
I1496
aI1502
ag1140
ag1141
ag1143
ag1145
ag1147
aa(lp5640
I1509
aI1514
ag1149
ag1150
ag1152
ag1154
ag1156
aa(lp5641
I1525
aI1531
ag1158
ag1159
ag1161
ag1163
ag1165
aa(lp5642
I1533
aI1540
ag1167
ag1168
ag1170
ag1172
ag1174
aa(lp5643
I1542
aI1544
ag1176
ag1177
ag1179
ag1181
ag1183
aa(lp5644
I1546
aI1553
ag1185
ag1186
ag1188
ag1190
ag1192
aa(lp5645
I1568
aI1573
ag1194
ag1195
ag1197
ag1199
ag1201
aa(lp5646
I1578
aI1583
ag1203
ag1204
ag1206
ag1208
ag1210
aa(lp5647
I1588
aI1591
ag1212
ag1213
ag1215
ag1217
ag1219
aa(lp5648
I1593
aI1597
ag1221
ag1222
ag1224
ag1226
ag1228
aa(lp5649
I1606
aI1609
ag1230
ag1231
ag1233
ag1235
ag1237
aa(lp5650
I1619
aI1623
ag1239
ag1240
ag1242
ag1244
ag1246
aa(lp5651
I1627
aI1629
ag1248
ag1249
ag1251
ag1253
ag1255
aa(lp5652
I1634
aI1637
ag1257
ag1258
ag1260
ag1262
ag1264
aa(lp5653
I1640
aI1648
ag1266
ag1267
ag1269
ag1271
ag1273
aa(lp5654
I1650
aI1653
ag1275
ag1276
ag1278
ag1280
ag1282
aa(lp5655
I1662
aI1668
ag1284
ag1285
ag1287
ag1289
ag1291
aa(lp5656
I1677
aI1683
ag1293
ag1294
ag1296
ag1298
ag1300
aa(lp5657
I1692
aI1695
ag1302
ag1303
ag1305
ag1307
ag1309
aa(lp5658
I1701
aI1704
ag1311
ag1312
ag1314
ag1316
ag1318
aa(lp5659
I1709
aI1716
ag1320
ag1321
ag1323
ag1325
ag1327
aa(lp5660
I1719
aI1722
ag1329
ag1330
ag1332
ag1334
ag1336
aa(lp5661
I1724
aI1726
ag1338
ag1339
ag1341
ag1343
ag1345
aa(lp5662
I1730
aI1737
ag1347
ag1348
ag1350
ag1352
ag1354
aa(lp5663
I1739
aI1743
ag1356
ag1357
ag1359
ag1361
ag1363
aa(lp5664
I1745
aI1750
ag1365
ag1366
ag1368
ag1370
ag1372
aa(lp5665
I1752
aI1755
ag1374
ag1375
ag1377
ag1379
ag1381
aa(lp5666
I1776
aI1782
ag1383
ag1384
ag1386
ag1388
ag1390
aa(lp5667
I1789
aI1795
ag1392
ag1393
ag1395
ag1397
ag1399
aa(lp5668
I1797
aI1800
ag1401
ag1402
ag1404
ag1406
ag1408
aa(lp5669
I1810
aI1813
ag1410
ag1411
ag1413
ag1415
ag1417
aa(lp5670
I1815
aI1817
ag1419
ag1420
ag1422
ag1424
ag1426
aa(lp5671
I1825
aI1829
ag1428
ag1429
ag1431
ag1433
ag1435
aa(lp5672
I1834
aI1844
ag1437
ag1438
ag1440
ag1442
ag1444
aa(lp5673
I1846
aI1852
ag1446
ag1447
ag1449
ag1451
ag1453
aa(lp5674
I1855
aI1863
ag1455
ag1456
ag1458
ag1460
ag1462
aa(lp5675
I1870
aI1875
ag1464
ag1465
ag1467
ag1469
ag1471
aa(lp5676
I1881
aI1885
ag1473
ag1474
ag1476
ag1478
ag1480
aa(lp5677
I1897
aI1901
ag1482
ag1483
ag1485
ag1487
ag1489
aa(lp5678
I1903
aI1908
ag1491
ag1492
ag1494
ag1496
ag1498
aa(lp5679
I1916
aI1918
ag1500
ag1501
ag1503
ag1505
ag1507
aa(lp5680
I1930
aI1933
ag1509
ag1510
ag1512
ag1514
ag1516
aa(lp5681
I1944
aI1947
ag1518
ag1519
ag1521
ag1523
ag1525
aa(lp5682
I1949
aI1951
ag1527
ag1528
ag1530
ag1532
ag1534
aa(lp5683
I1964
aI1970
ag1536
ag1537
ag1539
ag1541
ag1543
aa(lp5684
I1976
aI1982
ag1545
ag1546
ag1548
ag1550
ag1552
aa(lp5685
I1984
aI1987
ag1554
ag1555
ag1557
ag1559
ag1561
aa(lp5686
I2008
aI2012
ag1563
ag1564
ag1566
ag1568
ag1570
aa(lp5687
I2014
aI2017
ag1572
ag1573
ag1575
ag1577
ag1579
aa(lp5688
I2019
aI2023
ag1581
ag1582
ag1584
ag1586
ag1588
aa(lp5689
I2035
aI2041
ag1590
ag1591
ag1593
ag1595
ag1597
aa(lp5690
I2043
aI2046
ag1599
ag1600
ag1602
ag1604
ag1606
aa(lp5691
I2060
aI2063
ag1608
ag1609
ag1611
ag1613
ag1615
aa(lp5692
I2077
aI2082
ag1617
ag1618
ag1620
ag1622
ag1624
aa(lp5693
I2084
aI2086
ag1626
ag1627
ag1629
ag1631
ag1633
aa(lp5694
I2104
aI2106
ag1635
ag1636
ag1638
ag1640
ag1642
aa(lp5695
I2108
aI2111
ag1644
ag1645
ag1647
ag1649
ag1651
aa(lp5696
I2125
aI2128
ag1653
ag1654
ag1656
ag1658
ag1660
aa(lp5697
I2130
aI2136
ag1662
ag1663
ag1665
ag1667
ag1669
aa(lp5698
I2138
aI2146
ag1671
ag1672
ag1674
ag1676
ag1678
aa(lp5699
I2151
aI2154
ag1680
ag1681
ag1683
ag1685
ag1687
aa(lp5700
I2159
aI2166
ag1689
ag1690
ag1692
ag1694
ag1696
aa(lp5701
I2184
aI2186
ag1698
ag1699
ag1701
ag1703
ag1705
aa(lp5702
I2189
aI2192
ag1707
ag1708
ag1710
ag1712
ag1714
aa(lp5703
I2201
aI2207
ag1716
ag1717
ag1719
ag1721
ag1723
aa(lp5704
I2216
aI2221
ag1725
ag1726
ag1728
ag1730
ag1732
aa(lp5705
I2225
aI2228
ag1734
ag1735
ag1737
ag1739
ag1741
aa(lp5706
I2233
aI2239
ag1743
ag1744
ag1746
ag1748
ag1750
aa(lp5707
I2246
aI2251
ag1752
ag1753
ag1755
ag1757
ag1759
aa(lp5708
I2253
aI2258
ag1761
ag1762
ag1764
ag1766
ag1768
aa(lp5709
I2260
aI2267
ag1770
ag1771
ag1773
ag1775
ag1777
aa(lp5710
I2291
aI2297
ag1779
ag1780
ag1782
ag1784
ag1786
aa(lp5711
I2299
aI2306
ag1788
ag1789
ag1791
ag1793
ag1795
aa(lp5712
I2317
aI2321
ag1797
ag1798
ag1800
ag1802
ag1804
aa(lp5713
I2323
aI2329
ag1806
ag1807
ag1809
ag1811
ag1813
aa(lp5714
I2331
aI2334
ag1815
ag1816
ag1818
ag1820
ag1822
aa(lp5715
I2346
aI2351
ag1824
ag1825
ag1827
ag1829
ag1831
aa(lp5716
I2354
aI2358
ag1833
ag1834
ag1836
ag1838
ag1840
aa(lp5717
I2368
aI2373
ag1842
ag1843
ag1845
ag1847
ag1849
aa(lp5718
I2379
aI2385
ag1851
ag1852
ag1854
ag1856
ag1858
aa(lp5719
I2391
aI2394
ag1860
ag1861
ag1863
ag1865
ag1867
aa(lp5720
I2406
aI2409
ag1869
ag1870
ag1872
ag1874
ag1876
aa(lp5721
I2423
aI2431
ag1878
ag1879
ag1881
ag1883
ag1885
aa(lp5722
I2436
aI2442
ag1887
ag1888
ag1890
ag1892
ag1894
aa(lp5723
I2448
aI2452
ag1896
ag1897
ag1899
ag1901
ag1903
aasS'characterMap'
p5724
(lp5725
g1908
ag1910
ag1912
ag1914
ag1916
ag1917
ag5025
ag1921
ag1923
ag1925
ag1927
ag1928
ag1930
ag5027
ag1934
ag1936
ag5028
ag1941
ag1942
ag1944
ag5029
ag1948
ag1949
ag1951
ag5030
ag1955
ag1956
ag1957
ag1958
ag5031
ag1962
ag1963
ag1964
ag1965
ag1966
ag5032
ag1970
ag1971
ag5033
ag1975
ag1976
ag1977
ag1978
ag1979
ag1980
ag1981
ag5034
ag1985
ag1986
ag1987
ag1988
ag5035
ag1991
ag1993
ag1994
ag1996
ag1997
ag1998
ag1999
ag2000
ag2001
a(lp5726
I61
aS','
p5727
aag5036
ag2004
ag2005
ag2006
ag2008
ag2009
ag2010
ag2012
ag2013
ag5037
ag2016
ag2018
a(lp5728
I74
ag5727
aag5038
ag2022
ag2023
ag2025
ag2026
ag5039
ag2030
ag2031
ag2032
ag2033
ag2034
ag2035
ag2036
ag5040
ag2041
ag2042
ag2043
ag2044
ag5041
ag2047
ag2048
ag2049
ag2050
ag2051
ag2052
ag2053
ag5042
ag2056
ag2057
ag2058
ag2059
a(lp5729
I106
aS'?'
p5730
aag5043
ag2063
ag2064
ag2065
ag2066
ag5044
ag2070
ag2071
ag5045
ag2074
ag5046
ag2077
ag2078
ag2079
ag2080
ag5047
ag2084
ag2085
ag2086
ag2087
ag5048
ag2090
ag2091
ag2092
ag2093
ag2094
ag2095
ag5049
ag2099
ag2100
ag5050
ag2104
ag2105
ag2106
ag5051
ag2109
ag2110
ag2111
ag2112
ag2113
ag2114
ag2115
ag5052
ag2118
ag2119
ag2120
ag2121
ag5053
ag2125
ag2126
ag2127
ag5054
ag2131
ag2132
ag5055
ag2136
ag2137
ag2138
ag5056
ag2142
ag2143
ag5057
ag2146
ag2147
ag2148
ag2149
ag2150
ag2151
ag5058
ag2155
ag2156
ag5059
ag2159
ag5060
ag2162
ag2163
ag2164
ag2165
ag2166
ag2167
ag2168
ag5061
ag2172
ag2173
ag5062
ag2176
ag2177
ag2178
ag2179
ag2180
ag2181
ag2182
ag2183
ag2184
ag5063
ag2187
ag2188
ag2189
ag2190
ag2191
ag2192
ag2193
ag2194
a(lp5731
I210
aS'.'
p5732
aag5064
ag2197
ag2198
ag2199
ag2200
ag5065
ag2203
ag2204
ag2205
ag2206
ag2207
ag5066
ag2211
ag2212
ag5067
ag2216
ag2217
ag5068
ag2220
ag2221
ag2222
ag2223
ag2224
ag2225
ag5069
ag2229
ag2230
ag5070
ag2233
ag2234
ag2235
ag2236
ag2237
ag2238
ag5071
ag2241
ag2242
ag2243
ag2244
ag2245
ag2246
ag5072
ag2249
ag2250
ag2251
ag2252
ag2253
ag2254
ag2255
ag2256
a(lp5733
I261
ag5732
aag5073
ag2259
ag2260
ag2261
ag2262
ag2263
ag2264
ag2265
a(lp5734
I270
ag5727
aag5074
ag2269
ag2270
ag5075
ag2274
ag2275
ag2276
ag5076
ag2280
ag2281
ag2282
ag5077
ag2285
ag2286
ag2287
ag2288
ag2289
ag2290
ag2291
ag5078
ag2295
ag2296
ag2297
ag2298
ag5079
ag2301
ag2302
ag2303
ag2304
ag5080
ag2308
ag2309
ag5081
ag2313
ag2314
ag2315
ag2316
ag5082
ag2319
ag2320
ag2321
ag2322
ag2323
ag2324
ag2325
a(lp5735
I316
ag5727
aag5083
ag2329
ag2330
ag2331
ag5084
ag2334
ag2335
ag2336
ag2337
ag5085
ag2341
ag2342
ag5086
ag2345
ag2346
ag2347
ag2348
ag2349
ag2350
ag2351
ag2352
ag2353
ag2354
ag5087
ag2358
ag2359
ag2360
ag2361
ag5088
ag2364
ag2365
ag2366
ag2367
ag2368
ag2369
ag5089
ag2372
ag2373
ag2374
ag2375
ag2376
ag2377
ag5090
ag2380
ag2381
ag2382
ag2383
ag2384
ag2385
ag2386
ag2387
ag5091
ag2391
ag2392
ag5092
ag2396
ag2397
ag2398
ag5093
ag2401
ag2402
ag2403
ag2404
ag2405
ag2406
ag5094
ag2410
ag2411
ag2412
ag5095
ag2415
ag2416
ag2417
ag2418
ag2419
ag2420
ag2421
a(lp5736
I394
ag5732
aag5096
ag2425
ag2426
ag2427
ag2428
ag2429
ag5097
ag2433
ag2434
ag2435
ag5098
ag2438
ag2439
ag2440
ag2441
ag5099
ag2445
ag2446
ag2447
ag2448
ag2449
ag5100
ag2452
ag2453
ag2454
ag2455
ag2456
ag2457
ag5101
ag2461
ag2462
ag5102
ag2465
ag2466
ag2467
ag2468
ag2469
ag2470
ag2471
ag5103
ag2474
ag2475
ag2476
ag2477
ag5104
ag2481
ag2482
ag2483
ag2484
ag5105
ag2488
ag2489
ag2490
ag5106
ag2494
ag2495
ag2496
ag2497
ag2498
ag2499
ag5107
ag2503
ag2504
ag5108
ag2507
ag2508
ag2509
ag2510
ag2511
ag5109
ag2515
ag2516
a(lp5737
I467
ag5732
aag5110
ag2520
ag2521
ag2522
ag2523
ag5111
ag2527
ag2528
ag5112
ag2531
ag5113
ag2534
ag2535
ag2536
ag2537
ag5114
ag2542
ag2543
ag5115
ag2547
ag2548
ag2549
ag2550
ag5116
ag2554
ag2555
ag5117
ag2559
ag2560
ag2561
ag5118
ag2564
ag2565
ag2566
ag2567
ag2568
ag2569
ag2570
ag2571
a(lp5738
I507
ag5727
aag5119
ag2575
ag2576
ag2577
ag2578
ag2579
ag5120
ag2583
ag2584
ag2585
ag2586
ag5121
ag2589
ag2590
ag2591
ag2592
ag2593
ag2594
ag5122
ag2597
ag2598
ag2599
ag2600
ag2601
ag2602
ag5123
ag2605
ag2606
ag2607
ag2608
ag2609
ag2610
ag2611
ag2612
a(lp5739
I542
ag5727
aag5124
ag2616
ag2617
ag2618
ag2619
ag5125
ag2623
ag2624
ag2625
ag5126
ag2629
ag2630
ag5127
ag2633
ag2634
ag2635
ag2636
ag2637
ag2638
ag2639
ag5128
ag2643
ag2644
ag2645
ag5129
ag2648
ag2649
ag2650
ag2651
ag5130
ag2655
ag2656
ag2657
ag5131
ag2661
ag2662
ag2663
ag2664
ag5132
ag2668
ag2669
ag5133
ag2673
ag2674
ag2675
ag2676
ag5134
ag2679
ag2680
ag2681
ag2682
ag2683
ag2684
ag2685
a(lp5740
I597
ag5732
aag5135
ag2688
ag2689
ag2690
ag2692
ag2693
ag2694
ag5136
ag2698
ag2699
ag5137
ag2703
ag2704
ag2705
ag5138
ag2708
ag2709
ag2710
ag2711
ag2712
ag2713
ag2714
ag5139
ag2717
ag2718
ag2719
ag5140
ag2722
ag2723
ag2724
ag2725
ag2726
ag5141
ag2730
ag2731
ag5142
ag2734
ag2735
ag2736
ag2737
ag5143
ag2741
ag2742
ag5144
ag2746
ag2747
ag2748
ag5145
ag2751
ag2752
ag2753
ag2754
ag2755
ag2756
ag2757
ag5146
ag2760
ag2761
ag2762
ag2763
ag5147
ag2767
ag2768
ag2769
ag5148
ag2773
ag2774
ag5149
ag2778
ag2779
ag5150
ag2782
ag2783
ag2784
ag2785
ag2786
ag2787
ag5151
ag2791
ag2792
ag5152
ag2796
ag2797
ag2798
ag5153
ag2801
ag2802
ag2803
ag2804
ag2805
ag2806
ag2807
a(lp5741
I690
ag5732
aag5154
ag2811
ag2812
ag2813
ag2814
ag2815
ag2816
ag5155
ag2820
ag2821
ag2822
ag5156
ag2825
ag2826
ag2827
ag2828
ag2829
ag2830
ag5157
ag2834
ag2835
ag2836
ag5158
ag2840
ag2841
ag2842
ag5159
ag2846
ag2847
ag2848
ag2849
ag5160
ag2852
ag2853
ag2854
ag2855
ag2856
ag2857
ag2858
ag5161
ag2862
ag2863
ag2864
ag2865
ag5162
ag2869
ag2870
ag2871
ag2872
ag5163
ag2875
ag2876
ag2877
ag2878
ag2879
ag2880
ag5164
ag2883
ag2884
ag2885
ag2886
ag2887
ag2888
ag5165
ag2891
ag2892
ag2893
ag2894
a(lp5742
I759
ag5727
aag5166
ag2898
ag2899
ag2900
ag5167
ag2904
ag2905
ag2906
ag2907
ag5168
ag2910
ag2911
ag2912
ag2913
ag5169
ag2917
ag2918
ag5170
ag2921
ag2922
ag2923
ag2924
ag5171
ag2927
ag5172
ag2931
ag2932
ag2933
ag5173
ag2936
ag2937
ag2938
ag2939
ag2940
ag2941
ag2942
ag5174
ag2946
ag2947
ag5175
ag2950
ag2951
ag2952
ag2953
ag2954
a(lp5743
I805
ag5732
aag5176
ag2958
ag2959
ag2960
ag2961
ag5177
ag2965
ag2966
ag2967
ag5178
ag2970
ag2971
ag2972
ag2973
ag2974
ag2975
ag2976
ag5179
ag2980
ag2981
ag2982
ag5180
ag2985
ag2986
ag2987
ag2988
ag2989
ag2990
ag2991
ag5181
ag2995
ag2996
ag5182
ag3000
ag3001
ag3002
ag5183
ag3005
ag3006
ag3007
a(lp5744
I846
ag5730
aag5184
ag3011
ag3012
ag3013
ag5185
ag3017
ag3018
ag3019
ag5186
ag3022
ag3023
ag3024
ag3025
ag5187
ag3028
ag5188
ag3031
ag3032
ag3033
ag3034
ag5189
ag3038
ag3039
ag5190
ag3042
ag3043
ag3044
ag3045
ag3046
ag3047
ag3048
ag5191
ag3052
ag3053
ag3054
ag5192
ag3058
ag3059
ag3060
ag5193
ag3063
ag3064
ag3065
ag3066
ag3067
ag3068
ag3069
ag3070
ag3071
ag3072
ag3073
ag3074
ag5194
ag3077
ag3078
ag3079
ag5195
ag3083
ag3084
ag3085
ag5196
ag3088
ag3089
ag3090
ag3091
ag3092
ag3093
ag3094
ag5197
ag3098
ag3099
ag5198
ag3102
ag3103
ag3104
ag3105
ag3106
ag3107
ag3108
ag3109
ag3110
a(lp5745
I928
ag5730
aag5199
ag3113
ag3114
ag3115
ag3116
ag3117
ag3118
ag3119
ag5200
ag3123
ag3124
ag3125
ag5201
ag3128
ag3129
ag3130
ag3131
ag5202
ag3134
ag3135
ag3136
ag3137
ag3138
ag3139
ag5203
ag3142
ag5204
ag3145
ag3146
ag3147
ag3148
ag3149
ag3150
ag5205
ag3154
ag3155
ag5206
ag3158
ag3159
ag3160
ag3161
ag3162
ag3163
a(lp5746
I972
ag5732
aag5207
ag3167
ag3168
ag3169
ag3170
ag3171
ag5208
ag3175
ag3176
ag3177
ag5209
ag3180
ag3181
ag3182
ag3183
ag3184
ag3185
ag5210
ag3188
ag3189
ag3190
ag3191
ag3192
ag3193
ag3194
ag3195
ag5211
ag3199
ag3200
ag3201
ag3202
ag5212
ag3206
ag3207
ag3208
ag5213
ag3211
ag3212
ag3213
ag3214
ag3215
ag5214
ag3219
ag3220
ag3221
ag3222
ag5215
ag3225
ag3226
ag3227
ag3228
ag3229
ag5216
ag3233
ag3234
ag3235
ag3236
ag5217
ag3239
ag3240
ag3241
ag3242
ag5218
ag3246
ag3247
ag5219
ag3250
ag3251
ag3252
ag3253
a(lp5747
I1043
ag5732
aag5220
ag3256
ag3257
ag3258
ag3259
ag3260
ag3261
ag3262
ag3263
ag3264
ag3265
ag5221
ag3268
ag3269
ag3270
ag3271
ag3272
ag3273
ag3274
ag3275
ag3276
ag3277
ag5222
ag3280
ag3281
ag3282
ag3283
ag3284
ag3285
ag3286
ag5223
ag3289
ag3290
ag3291
ag3292
ag3293
ag3294
ag5224
ag3297
ag3298
ag3299
ag3300
ag3301
ag3302
ag3303
ag5225
ag3307
ag3308
ag3309
ag3310
ag5226
ag3314
ag3315
ag3316
ag5227
ag3320
ag3321
ag5228
ag3325
ag3326
ag3327
ag5229
ag3330
ag3331
ag3332
ag3333
ag3334
ag5230
ag3338
ag3339
ag5231
ag3342
ag3343
ag3344
ag3345
ag5232
ag3349
ag3350
ag5233
ag3354
ag3355
ag3356
ag5234
ag3359
ag3360
ag3361
ag3362
ag3363
ag3364
ag3365
ag5235
ag3369
ag3370
ag5236
ag3373
ag3374
ag3375
ag3376
ag3377
ag3378
ag3379
ag3380
ag3381
ag3382
ag5237
ag3385
ag3386
ag3387
ag3388
ag3389
ag3390
ag3391
ag3392
ag3393
ag3394
a(lp5748
I1159
ag5732
aag5238
ag3398
ag3399
ag3400
ag3401
ag5239
ag3405
ag3406
ag5240
ag3409
ag5241
ag3412
ag3413
ag3414
ag3415
ag3416
ag3417
ag3418
ag5242
ag3422
ag3423
ag3424
ag3425
ag5243
ag3428
ag3429
ag3430
ag3431
ag3432
ag3433
ag5244
ag3437
ag3438
ag3439
ag3440
ag5245
ag3444
ag3445
ag3446
ag3447
ag3448
ag5246
ag3452
ag3453
ag5247
ag3456
ag3457
ag3458
ag3459
ag3460
ag3461
ag5248
ag3465
ag3466
ag5249
ag3469
ag3470
ag3471
ag3472
ag3473
ag3474
ag5250
ag3478
ag3479
ag3480
ag3481
ag5251
ag3485
ag3486
ag3487
ag5252
ag3490
ag3491
ag3492
ag3493
ag3494
ag3495
ag3496
ag3497
ag3498
ag3499
a(lp5749
I1241
ag5732
aag5253
ag3502
ag3503
ag3504
ag3505
ag3506
ag5254
ag3510
ag3511
ag3512
ag3513
ag5255
ag3516
ag3517
ag3518
ag3519
ag3520
ag3521
ag3522
ag5256
ag3526
ag3527
ag5257
ag3530
ag3531
ag3532
ag3533
ag3534
ag3535
ag5258
ag3539
ag3540
ag5259
ag3543
ag3544
ag3545
ag3546
ag3547
ag3548
ag3549
ag3550
ag5260
ag3554
ag3555
ag3556
ag5261
ag3560
ag3561
ag3562
ag5262
ag3565
ag3566
ag3567
ag3568
ag3569
ag5263
ag3573
ag3574
ag5264
ag3578
ag3579
ag3580
ag5265
ag3583
ag3584
ag3585
ag3586
a(lp5750
I1309
ag5727
aag5266
ag3589
ag3590
ag3591
ag3592
ag3593
a(lp5751
I1316
ag5727
aag5267
ag3597
ag3598
ag3599
ag5268
ag3602
ag3603
ag3604
ag3605
a(lp5752
I1326
ag5732
aag5269
ag3609
ag3610
a(lp5753
I1330
ag5727
aag5270
ag3614
ag3615
ag5271
ag3618
ag3619
ag3620
ag3621
ag3622
ag5272
ag3626
ag3627
ag5273
ag3630
ag5274
ag3633
ag3634
ag3635
ag3636
ag3637
ag3638
ag3639
ag5275
ag3643
ag3644
ag3645
ag3646
ag5276
ag3650
ag3651
ag5277
ag3654
ag3655
ag3656
ag3657
ag3658
ag3659
ag3660
ag5278
ag3664
ag3665
ag3666
ag5279
ag3669
ag3670
ag3671
ag3672
ag5280
ag3676
ag3677
ag5281
ag3681
ag3682
ag3683
ag3684
ag5282
ag3687
ag3688
ag3689
ag3690
ag3691
ag3692
ag3693
a(lp5754
I1394
ag5732
aag5283
ag3696
ag3697
ag3698
ag3699
ag3700
ag3701
ag3702
ag3703
ag3704
ag3705
ag5284
ag3708
ag3709
ag3710
ag3711
ag3712
ag3713
ag3714
ag3715
ag3716
ag3717
ag5285
ag3721
ag3722
ag5286
ag3725
ag3726
ag3727
ag3728
ag3729
ag3730
ag3731
ag5287
ag3734
ag3735
ag3736
ag3737
ag3738
ag3739
ag3740
ag5288
ag3744
ag3745
ag3746
ag3747
ag5289
ag3750
ag3751
ag3752
ag3753
ag3754
ag5290
ag3757
ag3758
ag3759
ag3760
ag3761
ag3762
ag5291
ag3765
ag3766
ag3767
ag3768
ag5292
ag3772
ag3773
ag5293
ag3777
ag3778
ag3779
ag5294
ag3782
ag3783
ag3784
ag3785
ag3786
ag3787
ag3788
a(lp5755
I1474
ag5732
aag5295
ag3792
ag3793
ag3794
ag3795
ag5296
ag3798
ag3799
ag3800
ag3801
ag3802
ag3803
ag3804
ag3805
ag3806
ag5297
ag3810
ag3811
ag5298
ag3814
ag5299
ag3817
ag3818
ag3819
ag3820
ag3821
ag3822
ag3823
ag5300
ag3827
ag3828
ag3829
ag3830
ag5301
ag3833
ag3834
ag3835
ag3836
ag3837
ag3838
ag5302
ag3842
ag3843
ag3844
ag3845
ag5303
ag3849
ag3850
ag3851
ag5304
ag3854
ag3855
ag3856
ag3857
ag3858
ag3859
ag3860
ag5305
ag3863
ag3864
ag3865
ag3866
ag3867
ag3868
ag3869
ag3870
ag5306
ag3873
ag3874
ag3875
ag5307
ag3878
ag3879
ag3880
ag3881
ag3882
ag3883
ag3884
ag3885
a(lp5756
I1554
ag5732
aag5308
ag3889
ag3890
ag5309
ag3894
ag3895
ag3896
ag5310
ag3900
ag3901
ag5311
ag3904
ag5312
ag3907
ag3908
ag3909
ag3910
ag3911
ag3912
ag5313
ag3916
ag3917
ag5314
ag3920
ag3921
ag3922
ag3923
ag3924
ag3925
ag5315
ag3929
ag3930
ag5316
ag3933
ag3934
ag3935
ag3936
ag5317
ag3939
ag3940
ag3941
ag3942
ag3943
ag5318
ag3947
ag3948
ag5319
ag3952
ag3953
ag3954
ag5320
ag3957
ag3958
ag3959
ag3960
a(lp5757
I1610
ag5732
aag5321
ag3964
ag3965
ag5322
ag3969
ag3970
ag3971
ag5323
ag3974
ag3975
ag3976
ag3977
ag3978
ag5324
ag3981
ag5325
ag3984
ag3985
ag3986
ag5326
ag3990
ag3991
ag5327
ag3994
ag3995
ag3996
ag3997
a(lp5758
I1638
ag5727
aag5328
ag4000
ag4001
ag4002
ag4003
ag4004
ag4005
ag4006
ag4007
ag4008
ag5329
ag4011
ag4012
ag4013
ag4014
ag5330
ag4018
ag4019
ag5331
ag4023
ag4024
ag4025
ag5332
ag4028
ag4029
ag4030
ag4031
ag4032
ag4033
ag4034
ag5333
ag4038
ag4039
ag5334
ag4043
ag4044
ag4045
ag5335
ag4048
ag4049
ag4050
ag4051
ag4052
ag4053
ag4054
ag5336
ag4058
ag4059
ag5337
ag4063
ag4064
ag4065
ag5338
ag4068
ag4069
ag4070
ag4071
ag5339
ag4075
ag4076
ag4077
ag5340
ag4080
ag4081
ag4082
ag4083
ag5341
ag4087
ag4088
ag5342
ag4091
ag4092
ag4093
ag4094
ag4095
ag4096
ag4097
ag4098
a(lp5759
I1717
ag5732
aag5343
ag4101
ag4102
ag4103
ag4104
ag5344
ag4107
ag4108
ag4109
ag5345
a(lp5760
I1728
aS'-'
p5761
aag5346
ag4112
ag4113
ag4114
ag4115
ag4116
ag4117
ag4118
ag4119
ag5347
ag4122
ag4123
ag4124
ag4125
ag4126
ag5348
ag4129
ag4130
ag4131
ag4132
ag4133
ag4134
ag5349
ag4137
ag4138
ag4139
ag4140
ag5350
ag4144
ag4145
ag5351
ag4149
ag4150
ag4151
a(lp5762
I1763
ag5727
aag5352
ag4155
ag4156
ag5353
ag4160
ag4161
ag4162
ag5354
ag4166
ag4167
ag4168
ag5355
ag4171
ag4172
ag4173
ag4174
ag4175
ag4176
ag4177
ag5356
ag4181
ag4182
ag4183
ag4184
ag5357
ag4187
ag4188
ag4189
ag4190
ag4191
ag4192
ag4193
ag5358
ag4196
ag4197
ag4198
ag4199
ag5359
ag4203
ag4204
ag5360
ag4208
ag4209
ag4210
ag4211
ag5361
ag4214
ag4215
ag4216
ag4217
ag5362
ag4220
ag4221
ag4222
a(lp5763
I1818
ag5727
aag5363
ag4226
ag4227
ag4228
ag4229
ag5364
ag4232
ag4233
ag4234
ag4235
ag4236
ag5365
ag4240
ag4241
ag5366
ag4244
ag4245
ag4246
ag4247
ag4248
ag4249
ag4250
ag4251
ag4252
ag4253
ag4254
ag5367
ag4257
ag4258
ag4259
ag4260
ag4261
ag4262
ag4263
a(lp5764
I1853
ag5732
aag5368
ag4266
ag4267
ag4268
ag4269
ag4270
ag4271
ag4272
ag4273
ag4274
ag5369
ag4278
ag4279
ag4280
ag4281
ag5370
ag4284
ag4285
ag4286
ag4287
ag4288
ag4289
ag5371
ag4293
ag4294
ag4295
ag5372
ag4298
ag4299
ag4300
ag4301
ag4302
ag5373
ag4306
ag4307
ag4308
ag4309
ag4310
ag4311
ag4312
ag5374
ag4315
ag5375
ag4318
ag4319
ag4320
ag4321
ag4322
ag5376
ag4325
ag4326
ag4327
ag4328
ag4329
ag4330
a(lp5765
I1909
ag5727
aag5377
ag4334
ag4335
ag4336
ag4337
ag5378
ag4340
ag4341
ag4342
ag5379
ag4346
ag4347
ag5380
ag4351
ag4352
ag4353
ag4354
ag4355
ag4356
ag5381
ag4359
ag4360
ag4361
ag4362
ag5382
ag4366
ag4367
ag5383
ag4371
ag4372
ag4373
ag4374
ag4375
ag5384
ag4378
ag4379
ag4380
ag4381
ag5385
ag4384
ag4385
ag4386
a(lp5766
I1952
ag5727
aag5386
ag4390
ag4391
ag4392
ag4393
ag4394
ag5387
ag4398
ag4399
ag4400
ag5388
ag4403
ag4404
ag4405
ag4406
ag4407
ag4408
ag4409
ag5389
ag4413
ag4414
ag4415
ag5390
ag4418
ag4419
ag4420
ag4421
ag4422
ag4423
ag4424
ag5391
ag4427
ag4428
ag4429
ag4430
a(lp5767
I1988
ag5732
aag5392
ag4434
ag4435
ag5393
ag4439
ag4440
ag4441
ag5394
ag4445
ag4446
ag4447
ag5395
ag4451
ag4452
ag4453
ag4454
ag4455
ag4456
ag5396
ag4459
ag4460
ag4461
ag4462
ag4463
ag5397
ag4466
ag4467
ag4468
ag4469
ag5398
ag4472
ag4473
ag4474
ag4475
ag4476
ag5399
ag4480
ag4481
ag4482
ag4483
ag5400
ag4487
ag4488
ag4489
ag4490
ag5401
ag4493
ag4494
ag4495
ag4496
ag4497
ag4498
ag4499
ag5402
ag4502
ag4503
ag4504
ag4505
ag5403
ag4509
ag4510
ag5404
ag4514
ag4515
ag4516
ag5405
ag4520
ag4521
ag4522
ag4523
ag5406
ag4526
ag4527
ag4528
ag4529
ag5407
ag4533
ag4534
ag4535
ag4536
ag4537
ag4538
ag4539
ag5408
ag4543
ag4544
ag4545
ag5409
ag4548
ag4549
ag4550
ag4551
ag4552
ag4553
ag5410
ag4556
ag4557
ag4558
ag5411
ag4562
ag4563
ag4564
ag5412
ag4568
ag4569
ag4570
ag4571
ag5413
ag4575
ag4576
ag5414
ag4580
ag4581
ag4582
ag5415
ag4585
ag4586
ag4587
ag5416
ag4590
ag4591
ag4592
ag4593
a(lp5768
I2112
ag5727
aag5417
ag4597
ag4598
ag4599
ag5418
ag4603
ag4604
ag4605
ag4606
ag4607
ag4608
ag5419
ag4611
ag4612
ag4613
ag4614
ag5420
ag4617
ag4618
ag4619
ag4620
ag4621
ag4622
ag4623
ag5421
ag4626
ag4627
ag4628
ag4629
ag4630
ag4631
ag4632
ag4633
ag4634
ag5422
ag4638
ag4639
ag5423
ag4642
ag4643
ag4644
ag4645
ag5424
ag4649
ag4650
ag5425
ag4653
ag4654
ag4655
ag4656
ag4657
ag4658
ag4659
ag4660
a(lp5769
I2167
ag5732
aag5426
ag4664
ag4665
a(lp5770
I2171
ag5727
aag5427
ag4669
ag4670
ag5428
ag4674
ag4675
ag4676
ag5429
ag4680
ag4681
ag4682
ag5430
ag4685
ag4686
ag4687
a(lp5771
I2187
ag5727
aag5431
ag4690
ag4691
ag4692
ag4693
ag5432
ag4697
ag4698
ag5433
ag4702
ag4703
ag4704
ag5434
ag4707
ag4708
ag4709
ag4710
ag4711
ag4712
ag4713
ag5435
ag4717
ag4718
ag5436
ag4722
ag4723
ag4724
ag5437
ag4727
ag4728
ag4729
ag4730
ag4731
ag4732
ag5438
ag4735
ag5439
ag4738
ag4739
ag4740
ag4741
ag5440
ag4745
ag4746
ag5441
ag4749
ag4750
ag4751
ag4752
ag4753
ag4754
ag4755
ag5442
ag4759
ag4760
ag4761
ag4762
ag5443
ag4765
ag4766
ag4767
ag4768
ag4769
ag4770
ag5444
ag4773
ag4774
ag4775
ag4776
ag4777
ag4778
ag5445
ag4781
ag4782
ag4783
ag4784
ag4785
ag4786
ag4787
ag4788
a(lp5772
I2268
ag5732
aag5446
ag4792
ag4793
ag4794
ag4795
ag4796
ag5447
ag4800
ag4801
ag4802
ag5448
ag4806
ag4807
ag4808
ag4809
ag4810
ag5449
ag4814
ag4815
ag4816
ag4817
ag5450
ag4820
ag4821
ag4822
ag4823
ag4824
ag4825
ag4826
ag5451
ag4829
ag4830
ag4831
ag4832
ag4833
ag4834
ag4835
ag4836
ag5452
ag4840
ag4841
ag4842
ag4843
ag5453
ag4847
ag4848
ag4849
ag5454
ag4852
ag4853
ag4854
ag4855
ag4856
ag5455
ag4859
ag4860
ag4861
ag4862
ag4863
ag4864
ag4865
ag5456
ag4868
ag4869
ag4870
ag4871
a(lp5773
I2335
ag5732
aag5457
ag4875
ag4876
ag4877
ag5458
ag4881
ag4882
ag4883
ag4884
ag5459
ag4887
ag4888
ag4889
ag4890
ag4891
ag4892
a(lp5774
I2352
ag5727
aag5460
ag4895
ag4896
ag4897
ag4898
ag4899
ag5461
ag4903
ag4904
ag5462
ag4908
ag4909
ag4910
ag4911
ag5463
ag4914
ag4915
ag4916
ag4917
ag4918
ag4919
ag5464
ag4923
ag4924
ag4925
ag5465
ag4928
ag4929
ag4930
ag4931
ag4932
ag4933
ag4934
ag5466
ag4938
ag4939
ag4940
ag5467
ag4943
ag4944
ag4945
ag4946
ag5468
ag4950
ag4951
ag4952
ag4953
ag4954
ag5469
ag4958
ag4959
ag4960
ag5470
ag4963
ag4964
ag4965
ag4966
ag5471
ag4970
ag4971
ag4972
ag5472
ag4976
ag4977
ag5473
ag4981
ag4982
ag4983
ag4984
ag5474
ag4987
ag4988
ag4989
ag4990
ag4991
ag4992
ag4993
ag4994
ag4995
ag5475
ag4999
ag5000
ag5476
ag5003
ag5004
ag5005
ag5006
ag5007
ag5008
ag5009
ag5477
ag5013
ag5014
ag5015
ag5478
ag5018
ag5019
ag5020
ag5021
ag5022
ag5479
ag5480
ag5481
ag5482
ag5483
ag5484
ag5485
ag5486
ag5487
ag5488
a(lp5775
I2463
ag5732
aasS'docName'
p5776
S'source-document01011.txt'
p5777
sb.