(iModel.Document
Document
p0
(dp1
S'fmap'
p2
(lp3
(lp4
I9
aI15
aS'reasons'
p5
a(lp6
S'*'
p7
ag5
aaa(lp8
I9
aI15
ag5
a(lp9
g7
ag5
aaa(lp10
I9
aI15
ag5
a(lp11
g7
ag5
aaa(lp12
I9
aI15
ag5
a(lp13
g7
ag5
aaa(lp14
I17
aI22
aS'behind'
p15
a(lp16
g5
ag15
aaa(lp17
I17
aI22
ag15
a(lp18
g7
ag15
aaa(lp19
I17
aI22
ag15
a(lp20
g7
ag15
aaa(lp21
I17
aI22
ag15
a(lp22
g7
ag15
aaa(lp23
I24
aI26
aS'tsa'
p24
a(lp25
g15
ag24
aaa(lp26
I24
aI26
ag24
a(lp27
g5
ag24
aaa(lp28
I24
aI26
ag24
a(lp29
g7
ag24
aaa(lp30
I24
aI26
ag24
a(lp31
g7
ag24
aaa(lp32
I28
aI35
aS'security'
p33
a(lp34
g24
ag33
aaa(lp35
I28
aI35
ag33
a(lp36
g15
ag33
aaa(lp37
I28
aI35
ag33
a(lp38
g5
ag33
aaa(lp39
I28
aI35
ag33
a(lp40
g7
ag33
aaa(lp41
I41
aI49
aS'travelers'
p42
a(lp43
g33
ag42
aaa(lp44
I41
aI49
ag42
a(lp45
g24
ag42
aaa(lp46
I41
aI49
ag42
a(lp47
g15
ag42
aaa(lp48
I41
aI49
ag42
a(lp49
g5
ag42
aaa(lp50
I60
aI66
aS'reasons'
p51
a(lp52
g42
ag51
aaa(lp53
I60
aI66
ag51
a(lp54
g33
ag51
aaa(lp55
I60
aI66
ag51
a(lp56
g24
ag51
aaa(lp57
I60
aI66
ag51
a(lp58
g15
ag51
aaa(lp59
I68
aI73
aS'behind'
p60
a(lp61
g51
ag60
aaa(lp62
I68
aI73
ag60
a(lp63
g42
ag60
aaa(lp64
I68
aI73
ag60
a(lp65
g33
ag60
aaa(lp66
I68
aI73
ag60
a(lp67
g24
ag60
aaa(lp68
I75
aI77
aS'tsa'
p69
a(lp70
g60
ag69
aaa(lp71
I75
aI77
ag69
a(lp72
g51
ag69
aaa(lp73
I75
aI77
ag69
a(lp74
g42
ag69
aaa(lp75
I75
aI77
ag69
a(lp76
g33
ag69
aaa(lp77
I79
aI86
aS'security'
p78
a(lp79
g69
ag78
aaa(lp80
I79
aI86
ag78
a(lp81
g60
ag78
aaa(lp82
I79
aI86
ag78
a(lp83
g51
ag78
aaa(lp84
I79
aI86
ag78
a(lp85
g42
ag78
aaa(lp86
I88
aI92
aS'three'
p87
a(lp88
g78
ag87
aaa(lp89
I88
aI92
ag87
a(lp90
g69
ag87
aaa(lp91
I88
aI92
ag87
a(lp92
g60
ag87
aaa(lp93
I88
aI92
ag87
a(lp94
g51
ag87
aaa(lp95
I94
aI101
aS'security'
p96
a(lp97
g87
ag96
aaa(lp98
I94
aI101
ag96
a(lp99
g78
ag96
aaa(lp100
I94
aI101
ag96
a(lp101
g69
ag96
aaa(lp102
I94
aI101
ag96
a(lp103
g60
ag96
aaa(lp104
I103
aI112
aS'procedures'
p105
a(lp106
g96
ag105
aaa(lp107
I103
aI112
ag105
a(lp108
g87
ag105
aaa(lp109
I103
aI112
ag105
a(lp110
g78
ag105
aaa(lp111
I103
aI112
ag105
a(lp112
g69
ag105
aaa(lp113
I119
aI123
aS'raise'
p114
a(lp115
g105
ag114
aaa(lp116
I119
aI123
ag114
a(lp117
g96
ag114
aaa(lp118
I119
aI123
ag114
a(lp119
g87
ag114
aaa(lp120
I119
aI123
ag114
a(lp121
g78
ag114
aaa(lp122
I125
aI133
aS'questions'
p123
a(lp124
g114
ag123
aaa(lp125
I125
aI133
ag123
a(lp126
g105
ag123
aaa(lp127
I125
aI133
ag123
a(lp128
g96
ag123
aaa(lp129
I125
aI133
ag123
a(lp130
g87
ag123
aaa(lp131
I139
aI142
aS'many'
p132
a(lp133
g123
ag132
aaa(lp134
I139
aI142
ag132
a(lp135
g114
ag132
aaa(lp136
I139
aI142
ag132
a(lp137
g105
ag132
aaa(lp138
I139
aI142
ag132
a(lp139
g96
ag132
aaa(lp140
I144
aI153
aS'passengers'
p141
a(lp142
g132
ag141
aaa(lp143
I144
aI153
ag141
a(lp144
g123
ag141
aaa(lp145
I144
aI153
ag141
a(lp146
g114
ag141
aaa(lp147
I144
aI153
ag141
a(lp148
g105
ag141
aaa(lp149
I177
aI180
aS'take'
p150
a(lp151
g141
ag150
aaa(lp152
I177
aI180
ag150
a(lp153
g132
ag150
aaa(lp154
I177
aI180
ag150
a(lp155
g123
ag150
aaa(lp156
I177
aI180
ag150
a(lp157
g114
ag150
aaa(lp158
I189
aI193
aS'shoes'
p159
a(lp160
g150
ag159
aaa(lp161
I189
aI193
ag159
a(lp162
g141
ag159
aaa(lp163
I189
aI193
ag159
a(lp164
g132
ag159
aaa(lp165
I189
aI193
ag159
a(lp166
g123
ag159
aaa(lp167
I213
aI215
aS'put'
p168
a(lp169
g159
ag168
aaa(lp170
I213
aI215
ag168
a(lp171
g150
ag168
aaa(lp172
I213
aI215
ag168
a(lp173
g141
ag168
aaa(lp174
I213
aI215
ag168
a(lp175
g132
ag168
aaa(lp176
I220
aI224
aS'three'
p177
a(lp178
g168
ag177
aaa(lp179
I220
aI224
ag177
a(lp180
g159
ag177
aaa(lp181
I220
aI224
ag177
a(lp182
g150
ag177
aaa(lp183
I220
aI224
ag177
a(lp184
g141
ag177
aaa(lp185
I226
aI230
aS'ounce'
p186
a(lp187
g177
ag186
aaa(lp188
I226
aI230
ag186
a(lp189
g168
ag186
aaa(lp190
I226
aI230
ag186
a(lp191
g159
ag186
aaa(lp192
I226
aI230
ag186
a(lp193
g150
ag186
aaa(lp194
I232
aI238
aS'liquids'
p195
a(lp196
g186
ag195
aaa(lp197
I232
aI238
ag195
a(lp198
g177
ag195
aaa(lp199
I232
aI238
ag195
a(lp200
g168
ag195
aaa(lp201
I232
aI238
ag195
a(lp202
g159
ag195
aaa(lp203
I245
aI251
aS'ziptop'
p204
a(lp205
g195
ag204
aaa(lp206
I245
aI251
ag204
a(lp207
g186
ag204
aaa(lp208
I245
aI251
ag204
a(lp209
g177
ag204
aaa(lp210
I245
aI251
ag204
a(lp211
g168
ag204
aaa(lp212
I253
aI259
aS'plastic'
p213
a(lp214
g204
ag213
aaa(lp215
I253
aI259
ag213
a(lp216
g195
ag213
aaa(lp217
I253
aI259
ag213
a(lp218
g186
ag213
aaa(lp219
I253
aI259
ag213
a(lp220
g177
ag213
aaa(lp221
I261
aI263
aS'bag'
p222
a(lp223
g213
ag222
aaa(lp224
I261
aI263
ag222
a(lp225
g204
ag222
aaa(lp226
I261
aI263
ag222
a(lp227
g195
ag222
aaa(lp228
I261
aI263
ag222
a(lp229
g186
ag222
aaa(lp230
I283
aI286
aS'show'
p231
a(lp232
g222
ag231
aaa(lp233
I283
aI286
ag231
a(lp234
g213
ag231
aaa(lp235
I283
aI286
ag231
a(lp236
g204
ag231
aaa(lp237
I283
aI286
ag231
a(lp238
g195
ag231
aaa(lp239
I288
aI289
aS'id'
p240
a(lp241
g231
ag240
aaa(lp242
I288
aI289
ag240
a(lp243
g222
ag240
aaa(lp244
I288
aI289
ag240
a(lp245
g213
ag240
aaa(lp246
I288
aI289
ag240
a(lp247
g204
ag240
aaa(lp248
I292
aI296
aS'click'
p249
a(lp250
g240
ag249
aaa(lp251
I292
aI296
ag249
a(lp252
g231
ag249
aaa(lp253
I292
aI296
ag249
a(lp254
g222
ag249
aaa(lp255
I292
aI296
ag249
a(lp256
g213
ag249
aaa(lp257
I305
aI310
aS'videos'
p258
a(lp259
g249
ag258
aaa(lp260
I305
aI310
ag258
a(lp261
g240
ag258
aaa(lp262
I305
aI310
ag258
a(lp263
g231
ag258
aaa(lp264
I305
aI310
ag258
a(lp265
g222
ag258
aaa(lp266
I321
aI323
aS'get'
p267
a(lp268
g258
ag267
aaa(lp269
I321
aI323
ag267
a(lp270
g249
ag267
aaa(lp271
I321
aI323
ag267
a(lp272
g240
ag267
aaa(lp273
I321
aI323
ag267
a(lp274
g231
ag267
aaa(lp275
I325
aI331
aS'answers'
p276
a(lp277
g267
ag276
aaa(lp278
I325
aI331
ag276
a(lp279
g258
ag276
aaa(lp280
I325
aI331
ag276
a(lp281
g249
ag276
aaa(lp282
I325
aI331
ag276
a(lp283
g240
ag276
aaa(lp284
I342
aI350
aS'questions'
p285
a(lp286
g276
ag285
aaa(lp287
I342
aI350
ag285
a(lp288
g267
ag285
aaa(lp289
I342
aI350
ag285
a(lp290
g258
ag285
aaa(lp291
I342
aI350
ag285
a(lp292
g249
ag285
aaa(lp293
I362
aI371
aS'understand'
p294
a(lp295
g285
ag294
aaa(lp296
I362
aI371
ag294
a(lp297
g276
ag294
aaa(lp298
I362
aI371
ag294
a(lp299
g267
ag294
aaa(lp300
I362
aI371
ag294
a(lp301
g258
ag294
aaa(lp302
I386
aI393
aS'security'
p303
a(lp304
g294
ag303
aaa(lp305
I386
aI393
ag303
a(lp306
g285
ag303
aaa(lp307
I386
aI393
ag303
a(lp308
g276
ag303
aaa(lp309
I386
aI393
ag303
a(lp310
g267
ag303
aaa(lp311
I396
aI401
aS'youll'
p312
a(lp313
g303
ag312
aaa(lp314
I396
aI401
ag312
a(lp315
g294
ag312
aaa(lp316
I396
aI401
ag312
a(lp317
g285
ag312
aaa(lp318
I396
aI401
ag312
a(lp319
g276
ag312
aaa(lp320
I411
aI416
aS'easier'
p321
a(lp322
g312
ag321
aaa(lp323
I411
aI416
ag321
a(lp324
g303
ag321
aaa(lp325
I411
aI416
ag321
a(lp326
g294
ag321
aaa(lp327
I411
aI416
ag321
a(lp328
g285
ag321
aaa(lp329
I418
aI421
aS'time'
p330
a(lp331
g321
ag330
aaa(lp332
I418
aI421
ag330
a(lp333
g312
ag330
aaa(lp334
I418
aI421
ag330
a(lp335
g303
ag330
aaa(lp336
I418
aI421
ag330
a(lp337
g294
ag330
aaa(lp338
I423
aI429
aS'getting'
p339
a(lp340
g330
ag339
aaa(lp341
I423
aI429
ag339
a(lp342
g321
ag339
aaa(lp343
I423
aI429
ag339
a(lp344
g312
ag339
aaa(lp345
I423
aI429
ag339
a(lp346
g303
ag339
aaa(lp347
I443
aI452
aS'checkpoint'
p348
a(lp349
g339
ag348
aaa(lp350
I443
aI452
ag348
a(lp351
g330
ag348
aaa(lp352
I443
aI452
ag348
a(lp353
g321
ag348
aaa(lp354
I443
aI452
ag348
a(lp355
g312
ag348
aaa(lp356
I464
aI474
aS'information'
p357
a(lp358
g348
ag357
aaa(lp359
I464
aI474
ag357
a(lp360
g339
ag357
aaa(lp361
I464
aI474
ag357
a(lp362
g330
ag357
aaa(lp363
I464
aI474
ag357
a(lp364
g321
ag357
aaa(lp365
I479
aI486
aS'security'
p366
a(lp367
g357
ag366
aaa(lp368
I479
aI486
ag366
a(lp369
g348
ag366
aaa(lp370
I479
aI486
ag366
a(lp371
g339
ag366
aaa(lp372
I479
aI486
ag366
a(lp373
g330
ag366
aaa(lp374
I488
aI497
aS'procedures'
p375
a(lp376
g366
ag375
aaa(lp377
I488
aI497
ag375
a(lp378
g357
ag375
aaa(lp379
I488
aI497
ag375
a(lp380
g348
ag375
aaa(lp381
I488
aI497
ag375
a(lp382
g339
ag375
aaa(lp383
I500
aI505
aS'travel'
p384
a(lp385
g375
ag384
aaa(lp386
I500
aI505
ag384
a(lp387
g366
ag384
aaa(lp388
I500
aI505
ag384
a(lp389
g357
ag384
aaa(lp390
I500
aI505
ag384
a(lp391
g348
ag384
aaa(lp392
I507
aI510
aS'tips'
p393
a(lp394
g384
ag393
aaa(lp395
I507
aI510
ag393
a(lp396
g375
ag393
aaa(lp397
I507
aI510
ag393
a(lp398
g366
ag393
aaa(lp399
I507
aI510
ag393
a(lp400
g357
ag393
aaa(lp401
I517
aI523
aS'helpful'
p402
a(lp403
g393
ag402
aaa(lp404
I517
aI523
ag402
a(lp405
g384
ag402
aaa(lp406
I517
aI523
ag402
a(lp407
g375
ag402
aaa(lp408
I517
aI523
ag402
a(lp409
g366
ag402
aaa(lp410
I525
aI530
aS'videos'
p411
a(lp412
g402
ag411
aaa(lp413
I525
aI530
ag411
a(lp414
g393
ag411
aaa(lp415
I525
aI530
ag411
a(lp416
g384
ag411
aaa(lp417
I525
aI530
ag411
a(lp418
g375
ag411
aaa(lp419
I533
aI538
aS'please'
p420
a(lp421
g411
ag420
aaa(lp422
I533
aI538
ag420
a(lp423
g402
ag420
aaa(lp424
I533
aI538
ag420
a(lp425
g393
ag420
aaa(lp426
I533
aI538
ag420
a(lp427
g384
ag420
aaa(lp428
I540
aI541
aS'go'
p429
a(lp430
g420
ag429
aaa(lp431
I540
aI541
ag429
a(lp432
g411
ag429
aaa(lp433
I540
aI541
ag429
a(lp434
g402
ag429
aaa(lp435
I540
aI541
ag429
a(lp436
g393
ag429
aaa(lp437
I552
aI560
aS'travelers'
p438
a(lp439
g429
ag438
aaa(lp440
I552
aI560
ag438
a(lp441
g420
ag438
aaa(lp442
I552
aI560
ag438
a(lp443
g411
ag438
aaa(lp444
I552
aI560
ag438
a(lp445
g402
ag438
aaa(lp446
I562
aI565
aS'page'
p447
a(lp448
g438
ag447
aaa(lp449
I562
aI565
ag447
a(lp450
g429
ag447
aaa(lp451
I562
aI565
ag447
a(lp452
g420
ag447
aaa(lp453
I562
aI565
ag447
a(lp454
g411
ag447
aaa(lp455
I568
aI570
aS'wmv'
p456
a(lp457
g447
ag456
aaa(lp458
I568
aI570
ag456
a(lp459
g438
ag456
aaa(lp460
I568
aI570
ag456
a(lp461
g429
ag456
aaa(lp462
I568
aI570
ag456
a(lp463
g420
ag456
aaa(lp464
I573
aI577
aS'55mb'
p465
a(lp466
g456
ag465
aaa(lp467
I573
aI577
ag465
a(lp468
g447
ag465
aaa(lp469
I573
aI577
ag465
a(lp470
g438
ag465
aaa(lp471
I573
aI577
ag465
a(lp472
g429
ag465
aaa(lp473
I583
aI590
aS'download'
p474
a(lp475
g465
ag474
aaa(lp476
I583
aI590
ag474
a(lp477
g456
ag474
aaa(lp478
I583
aI590
ag474
a(lp479
g447
ag474
aaa(lp480
I583
aI590
ag474
a(lp481
g438
ag474
aaa(lp482
I600
aI604
aS'shoes'
p483
a(lp484
g474
ag483
aaa(lp485
I600
aI604
ag483
a(lp486
g465
ag483
aaa(lp487
I600
aI604
ag483
a(lp488
g456
ag483
aaa(lp489
I600
aI604
ag483
a(lp490
g447
ag483
aaa(lp491
I606
aI615
aS'transcript'
p492
a(lp493
g483
ag492
aaa(lp494
I606
aI615
ag492
a(lp495
g474
ag492
aaa(lp496
I606
aI615
ag492
a(lp497
g465
ag492
aaa(lp498
I606
aI615
ag492
a(lp499
g456
ag492
aaa(lp500
I619
aI621
aS'txt'
p501
a(lp502
g492
ag501
aaa(lp503
I619
aI621
ag501
a(lp504
g483
ag501
aaa(lp505
I619
aI621
ag501
a(lp506
g474
ag501
aaa(lp507
I619
aI621
ag501
a(lp508
g465
ag501
aaasS'wordMap'
p509
(lp510
(lp511
I0
aI2
aS'why'
p512
a(lp513
(lp514
I0
aS'w'
p515
aa(lp516
I1
aS'h'
p517
aa(lp518
I2
aS'y'
p519
aaaa(lp520
I5
aI7
aS'the'
p521
a(lp522
(lp523
I5
aS't'
p524
aa(lp525
I6
ag517
aa(lp526
I7
aS'e'
p527
aaaa(lp528
I9
aI15
ag5
a(lp529
(lp530
I9
aS'r'
p531
aa(lp532
I10
ag527
aa(lp533
I11
aS'a'
p534
aa(lp535
I12
aS's'
p536
aa(lp537
I13
aS'o'
p538
aa(lp539
I14
aS'n'
p540
aa(lp541
I15
ag536
aaaa(lp542
I17
aI22
ag15
a(lp543
(lp544
I17
aS'b'
p545
aa(lp546
I18
ag527
aa(lp547
I19
ag517
aa(lp548
I20
aS'i'
p549
aa(lp550
I21
ag540
aa(lp551
I22
aS'd'
p552
aaaa(lp553
I24
aI26
ag24
a(lp554
(lp555
I24
ag524
aa(lp556
I25
ag536
aa(lp557
I26
ag534
aaaa(lp558
I28
aI35
ag33
a(lp559
(lp560
I28
ag536
aa(lp561
I29
ag527
aa(lp562
I30
aS'c'
p563
aa(lp564
I31
aS'u'
p565
aa(lp566
I32
ag531
aa(lp567
I33
ag549
aa(lp568
I34
ag524
aa(lp569
I35
ag519
aaaa(lp570
I37
aI39
aS'for'
p571
a(lp572
(lp573
I37
aS'f'
p574
aa(lp575
I38
ag538
aa(lp576
I39
ag531
aaaa(lp577
I41
aI49
ag42
a(lp578
(lp579
I41
ag524
aa(lp580
I42
ag531
aa(lp581
I43
ag534
aa(lp582
I44
aS'v'
p583
aa(lp584
I45
ag527
aa(lp585
I46
aS'l'
p586
aa(lp587
I47
ag527
aa(lp588
I48
ag531
aa(lp589
I49
ag536
aaaa(lp590
I51
aI53
aS'why'
p591
a(lp592
(lp593
I51
ag515
aa(lp594
I52
ag517
aa(lp595
I53
ag519
aaaa(lp596
I56
aI58
aS'the'
p597
a(lp598
(lp599
I56
ag524
aa(lp600
I57
ag517
aa(lp601
I58
ag527
aaaa(lp602
I60
aI66
ag51
a(lp603
(lp604
I60
ag531
aa(lp605
I61
ag527
aa(lp606
I62
ag534
aa(lp607
I63
ag536
aa(lp608
I64
ag538
aa(lp609
I65
ag540
aa(lp610
I66
ag536
aaaa(lp611
I68
aI73
ag60
a(lp612
(lp613
I68
ag545
aa(lp614
I69
ag527
aa(lp615
I70
ag517
aa(lp616
I71
ag549
aa(lp617
I72
ag540
aa(lp618
I73
ag552
aaaa(lp619
I75
aI77
ag69
a(lp620
(lp621
I75
ag524
aa(lp622
I76
ag536
aa(lp623
I77
ag534
aaaa(lp624
I79
aI86
ag78
a(lp625
(lp626
I79
ag536
aa(lp627
I80
ag527
aa(lp628
I81
ag563
aa(lp629
I82
ag565
aa(lp630
I83
ag531
aa(lp631
I84
ag549
aa(lp632
I85
ag524
aa(lp633
I86
ag519
aaaa(lp634
I88
aI92
ag87
a(lp635
(lp636
I88
ag524
aa(lp637
I89
ag517
aa(lp638
I90
ag531
aa(lp639
I91
ag527
aa(lp640
I92
ag527
aaaa(lp641
I94
aI101
ag96
a(lp642
(lp643
I94
ag536
aa(lp644
I95
ag527
aa(lp645
I96
ag563
aa(lp646
I97
ag565
aa(lp647
I98
ag531
aa(lp648
I99
ag549
aa(lp649
I100
ag524
aa(lp650
I101
ag519
aaaa(lp651
I103
aI112
ag105
a(lp652
(lp653
I103
aS'p'
p654
aa(lp655
I104
ag531
aa(lp656
I105
ag538
aa(lp657
I106
ag563
aa(lp658
I107
ag527
aa(lp659
I108
ag552
aa(lp660
I109
ag565
aa(lp661
I110
ag531
aa(lp662
I111
ag527
aa(lp663
I112
ag536
aaaa(lp664
I114
aI117
aS'that'
p665
a(lp666
(lp667
I114
ag524
aa(lp668
I115
ag517
aa(lp669
I116
ag534
aa(lp670
I117
ag524
aaaa(lp671
I119
aI123
ag114
a(lp672
(lp673
I119
ag531
aa(lp674
I120
ag534
aa(lp675
I121
ag549
aa(lp676
I122
ag536
aa(lp677
I123
ag527
aaaa(lp678
I125
aI133
ag123
a(lp679
(lp680
I125
aS'q'
p681
aa(lp682
I126
ag565
aa(lp683
I127
ag527
aa(lp684
I128
ag536
aa(lp685
I129
ag524
aa(lp686
I130
ag549
aa(lp687
I131
ag538
aa(lp688
I132
ag540
aa(lp689
I133
ag536
aaaa(lp690
I135
aI137
aS'for'
p691
a(lp692
(lp693
I135
ag574
aa(lp694
I136
ag538
aa(lp695
I137
ag531
aaaa(lp696
I139
aI142
ag132
a(lp697
(lp698
I139
aS'm'
p699
aa(lp700
I140
ag534
aa(lp701
I141
ag540
aa(lp702
I142
ag519
aaaa(lp703
I144
aI153
ag141
a(lp704
(lp705
I144
ag654
aa(lp706
I145
ag534
aa(lp707
I146
ag536
aa(lp708
I147
ag536
aa(lp709
I148
ag527
aa(lp710
I149
ag540
aa(lp711
I150
aS'g'
p712
aa(lp713
I151
ag527
aa(lp714
I152
ag531
aa(lp715
I153
ag536
aaaa(lp716
I155
aI157
aS'are'
p717
a(lp718
(lp719
I155
ag534
aa(lp720
I156
ag531
aa(lp721
I157
ag527
aaaa(lp722
I160
aI162
aS'why'
p723
a(lp724
(lp725
I160
ag515
aa(lp726
I161
ag517
aa(lp727
I162
ag519
aaaa(lp728
I164
aI165
aS'do'
p729
a(lp730
(lp731
I164
ag552
aa(lp732
I165
ag538
aaaa(lp733
I167
aI167
ag549
a(lp734
(lp735
I167
ag549
aaaa(lp736
I169
aI172
aS'have'
p737
a(lp738
(lp739
I169
ag517
aa(lp740
I170
ag534
aa(lp741
I171
ag583
aa(lp742
I172
ag527
aaaa(lp743
I174
aI175
aS'to'
p744
a(lp745
(lp746
I174
ag524
aa(lp747
I175
ag538
aaaa(lp748
I177
aI180
ag150
a(lp749
(lp750
I177
ag524
aa(lp751
I178
ag534
aa(lp752
I179
aS'k'
p753
aa(lp754
I180
ag527
aaaa(lp755
I182
aI184
aS'off'
p756
a(lp757
(lp758
I182
ag538
aa(lp759
I183
ag574
aa(lp760
I184
ag574
aaaa(lp761
I186
aI187
aS'my'
p762
a(lp763
(lp764
I186
ag699
aa(lp765
I187
ag519
aaaa(lp766
I189
aI193
ag159
a(lp767
(lp768
I189
ag536
aa(lp769
I190
ag517
aa(lp770
I191
ag538
aa(lp771
I192
ag527
aa(lp772
I193
ag536
aaaa(lp773
I196
aI198
aS'why'
p774
a(lp775
(lp776
I196
ag515
aa(lp777
I197
ag517
aa(lp778
I198
ag519
aaaa(lp779
I200
aI201
aS'do'
p780
a(lp781
(lp782
I200
ag552
aa(lp783
I201
ag538
aaaa(lp784
I203
aI203
ag549
a(lp785
(lp786
I203
ag549
aaaa(lp787
I205
aI208
aS'have'
p788
a(lp789
(lp790
I205
ag517
aa(lp791
I206
ag534
aa(lp792
I207
ag583
aa(lp793
I208
ag527
aaaa(lp794
I210
aI211
aS'to'
p795
a(lp796
(lp797
I210
ag524
aa(lp798
I211
ag538
aaaa(lp799
I213
aI215
ag168
a(lp800
(lp801
I213
ag654
aa(lp802
I214
ag565
aa(lp803
I215
ag524
aaaa(lp804
I217
aI218
aS'my'
p805
a(lp806
(lp807
I217
ag699
aa(lp808
I218
ag519
aaaa(lp809
I220
aI224
ag177
a(lp810
(lp811
I220
ag524
aa(lp812
I221
ag517
aa(lp813
I222
ag531
aa(lp814
I223
ag527
aa(lp815
I224
ag527
aaaa(lp816
I226
aI230
ag186
a(lp817
(lp818
I226
ag538
aa(lp819
I227
ag565
aa(lp820
I228
ag540
aa(lp821
I229
ag563
aa(lp822
I230
ag527
aaaa(lp823
I232
aI238
ag195
a(lp824
(lp825
I232
ag586
aa(lp826
I233
ag549
aa(lp827
I234
ag681
aa(lp828
I235
ag565
aa(lp829
I236
ag549
aa(lp830
I237
ag552
aa(lp831
I238
ag536
aaaa(lp832
I240
aI241
aS'in'
p833
a(lp834
(lp835
I240
ag549
aa(lp836
I241
ag540
aaaa(lp837
I243
aI243
ag534
a(lp838
(lp839
I243
ag534
aaaa(lp840
I245
aI251
ag204
a(lp841
(lp842
I245
aS'z'
p843
aa(lp844
I246
ag549
aa(lp845
I247
ag654
aa(lp846
I249
ag524
aa(lp847
I250
ag538
aa(lp848
I251
ag654
aaaa(lp849
I253
aI259
ag213
a(lp850
(lp851
I253
ag654
aa(lp852
I254
ag586
aa(lp853
I255
ag534
aa(lp854
I256
ag536
aa(lp855
I257
ag524
aa(lp856
I258
ag549
aa(lp857
I259
ag563
aaaa(lp858
I261
aI263
ag222
a(lp859
(lp860
I261
ag545
aa(lp861
I262
ag534
aa(lp862
I263
ag712
aaaa(lp863
I266
aI268
aS'why'
p864
a(lp865
(lp866
I266
ag515
aa(lp867
I267
ag517
aa(lp868
I268
ag519
aaaa(lp869
I270
aI271
aS'do'
p870
a(lp871
(lp872
I270
ag552
aa(lp873
I271
ag538
aaaa(lp874
I273
aI273
ag549
a(lp875
(lp876
I273
ag549
aaaa(lp877
I275
aI278
aS'have'
p878
a(lp879
(lp880
I275
ag517
aa(lp881
I276
ag534
aa(lp882
I277
ag583
aa(lp883
I278
ag527
aaaa(lp884
I280
aI281
aS'to'
p885
a(lp886
(lp887
I280
ag524
aa(lp888
I281
ag538
aaaa(lp889
I283
aI286
ag231
a(lp890
(lp891
I283
ag536
aa(lp892
I284
ag517
aa(lp893
I285
ag538
aa(lp894
I286
ag515
aaaa(lp895
I288
aI289
ag240
a(lp896
(lp897
I288
ag549
aa(lp898
I289
ag552
aaaa(lp899
I292
aI296
ag249
a(lp900
(lp901
I292
ag563
aa(lp902
I293
ag586
aa(lp903
I294
ag549
aa(lp904
I295
ag563
aa(lp905
I296
ag753
aaaa(lp906
I298
aI299
aS'on'
p907
a(lp908
(lp909
I298
ag538
aa(lp910
I299
ag540
aaaa(lp911
I301
aI303
aS'the'
p912
a(lp913
(lp914
I301
ag524
aa(lp915
I302
ag517
aa(lp916
I303
ag527
aaaa(lp917
I305
aI310
ag258
a(lp918
(lp919
I305
ag583
aa(lp920
I306
ag549
aa(lp921
I307
ag552
aa(lp922
I308
ag527
aa(lp923
I309
ag538
aa(lp924
I310
ag536
aaaa(lp925
I312
aI316
aS'below'
p926
a(lp927
(lp928
I312
ag545
aa(lp929
I313
ag527
aa(lp930
I314
ag586
aa(lp931
I315
ag538
aa(lp932
I316
ag515
aaaa(lp933
I318
aI319
aS'to'
p934
a(lp935
(lp936
I318
ag524
aa(lp937
I319
ag538
aaaa(lp938
I321
aI323
ag267
a(lp939
(lp940
I321
ag712
aa(lp941
I322
ag527
aa(lp942
I323
ag524
aaaa(lp943
I325
aI331
ag276
a(lp944
(lp945
I325
ag534
aa(lp946
I326
ag540
aa(lp947
I327
ag536
aa(lp948
I328
ag515
aa(lp949
I329
ag527
aa(lp950
I330
ag531
aa(lp951
I331
ag536
aaaa(lp952
I333
aI334
aS'to'
p953
a(lp954
(lp955
I333
ag524
aa(lp956
I334
ag538
aaaa(lp957
I336
aI340
aS'these'
p958
a(lp959
(lp960
I336
ag524
aa(lp961
I337
ag517
aa(lp962
I338
ag527
aa(lp963
I339
ag536
aa(lp964
I340
ag527
aaaa(lp965
I342
aI350
ag285
a(lp966
(lp967
I342
ag681
aa(lp968
I343
ag565
aa(lp969
I344
ag527
aa(lp970
I345
ag536
aa(lp971
I346
ag524
aa(lp972
I347
ag549
aa(lp973
I348
ag538
aa(lp974
I349
ag540
aa(lp975
I350
ag536
aaaa(lp976
I353
aI356
aS'when'
p977
a(lp978
(lp979
I353
ag515
aa(lp980
I354
ag517
aa(lp981
I355
ag527
aa(lp982
I356
ag540
aaaa(lp983
I358
aI360
aS'you'
p984
a(lp985
(lp986
I358
ag519
aa(lp987
I359
ag538
aa(lp988
I360
ag565
aaaa(lp989
I362
aI371
ag294
a(lp990
(lp991
I362
ag565
aa(lp992
I363
ag540
aa(lp993
I364
ag552
aa(lp994
I365
ag527
aa(lp995
I366
ag531
aa(lp996
I367
ag536
aa(lp997
I368
ag524
aa(lp998
I369
ag534
aa(lp999
I370
ag540
aa(lp1000
I371
ag552
aaaa(lp1001
I373
aI375
aS'the'
p1002
a(lp1003
(lp1004
I373
ag524
aa(lp1005
I374
ag517
aa(lp1006
I375
ag527
aaaa(lp1007
I378
aI380
aS'why'
p1008
a(lp1009
(lp1010
I378
ag515
aa(lp1011
I379
ag517
aa(lp1012
I380
ag519
aaaa(lp1013
I383
aI384
aS'of'
p1014
a(lp1015
(lp1016
I383
ag538
aa(lp1017
I384
ag574
aaaa(lp1018
I386
aI393
ag303
a(lp1019
(lp1020
I386
ag536
aa(lp1021
I387
ag527
aa(lp1022
I388
ag563
aa(lp1023
I389
ag565
aa(lp1024
I390
ag531
aa(lp1025
I391
ag549
aa(lp1026
I392
ag524
aa(lp1027
I393
ag519
aaaa(lp1028
I396
aI401
ag312
a(lp1029
(lp1030
I396
ag519
aa(lp1031
I397
ag538
aa(lp1032
I398
ag565
aa(lp1033
I400
ag586
aa(lp1034
I401
ag586
aaaa(lp1035
I403
aI406
aS'have'
p1036
a(lp1037
(lp1038
I403
ag517
aa(lp1039
I404
ag534
aa(lp1040
I405
ag583
aa(lp1041
I406
ag527
aaaa(lp1042
I408
aI409
aS'an'
p1043
a(lp1044
(lp1045
I408
ag534
aa(lp1046
I409
ag540
aaaa(lp1047
I411
aI416
ag321
a(lp1048
(lp1049
I411
ag527
aa(lp1050
I412
ag534
aa(lp1051
I413
ag536
aa(lp1052
I414
ag549
aa(lp1053
I415
ag527
aa(lp1054
I416
ag531
aaaa(lp1055
I418
aI421
ag330
a(lp1056
(lp1057
I418
ag524
aa(lp1058
I419
ag549
aa(lp1059
I420
ag699
aa(lp1060
I421
ag527
aaaa(lp1061
I423
aI429
ag339
a(lp1062
(lp1063
I423
ag712
aa(lp1064
I424
ag527
aa(lp1065
I425
ag524
aa(lp1066
I426
ag524
aa(lp1067
I427
ag549
aa(lp1068
I428
ag540
aa(lp1069
I429
ag712
aaaa(lp1070
I431
aI437
aS'through'
p1071
a(lp1072
(lp1073
I431
ag524
aa(lp1074
I432
ag517
aa(lp1075
I433
ag531
aa(lp1076
I434
ag538
aa(lp1077
I435
ag565
aa(lp1078
I436
ag712
aa(lp1079
I437
ag517
aaaa(lp1080
I439
aI441
aS'the'
p1081
a(lp1082
(lp1083
I439
ag524
aa(lp1084
I440
ag517
aa(lp1085
I441
ag527
aaaa(lp1086
I443
aI452
ag348
a(lp1087
(lp1088
I443
ag563
aa(lp1089
I444
ag517
aa(lp1090
I445
ag527
aa(lp1091
I446
ag563
aa(lp1092
I447
ag753
aa(lp1093
I448
ag654
aa(lp1094
I449
ag538
aa(lp1095
I450
ag549
aa(lp1096
I451
ag540
aa(lp1097
I452
ag524
aaaa(lp1098
I455
aI457
aS'for'
p1099
a(lp1100
(lp1101
I455
ag574
aa(lp1102
I456
ag538
aa(lp1103
I457
ag531
aaaa(lp1104
I459
aI462
aS'more'
p1105
a(lp1106
(lp1107
I459
ag699
aa(lp1108
I460
ag538
aa(lp1109
I461
ag531
aa(lp1110
I462
ag527
aaaa(lp1111
I464
aI474
ag357
a(lp1112
(lp1113
I464
ag549
aa(lp1114
I465
ag540
aa(lp1115
I466
ag574
aa(lp1116
I467
ag538
aa(lp1117
I468
ag531
aa(lp1118
I469
ag699
aa(lp1119
I470
ag534
aa(lp1120
I471
ag524
aa(lp1121
I472
ag549
aa(lp1122
I473
ag538
aa(lp1123
I474
ag540
aaaa(lp1124
I476
aI477
aS'on'
p1125
a(lp1126
(lp1127
I476
ag538
aa(lp1128
I477
ag540
aaaa(lp1129
I479
aI486
ag366
a(lp1130
(lp1131
I479
ag536
aa(lp1132
I480
ag527
aa(lp1133
I481
ag563
aa(lp1134
I482
ag565
aa(lp1135
I483
ag531
aa(lp1136
I484
ag549
aa(lp1137
I485
ag524
aa(lp1138
I486
ag519
aaaa(lp1139
I488
aI497
ag375
a(lp1140
(lp1141
I488
ag654
aa(lp1142
I489
ag531
aa(lp1143
I490
ag538
aa(lp1144
I491
ag563
aa(lp1145
I492
ag527
aa(lp1146
I493
ag552
aa(lp1147
I494
ag565
aa(lp1148
I495
ag531
aa(lp1149
I496
ag527
aa(lp1150
I497
ag536
aaaa(lp1151
I500
aI505
ag384
a(lp1152
(lp1153
I500
ag524
aa(lp1154
I501
ag531
aa(lp1155
I502
ag534
aa(lp1156
I503
ag583
aa(lp1157
I504
ag527
aa(lp1158
I505
ag586
aaaa(lp1159
I507
aI510
ag393
a(lp1160
(lp1161
I507
ag524
aa(lp1162
I508
ag549
aa(lp1163
I509
ag654
aa(lp1164
I510
ag536
aaaa(lp1165
I513
aI515
aS'and'
p1166
a(lp1167
(lp1168
I513
ag534
aa(lp1169
I514
ag540
aa(lp1170
I515
ag552
aaaa(lp1171
I517
aI523
ag402
a(lp1172
(lp1173
I517
ag517
aa(lp1174
I518
ag527
aa(lp1175
I519
ag586
aa(lp1176
I520
ag654
aa(lp1177
I521
ag574
aa(lp1178
I522
ag565
aa(lp1179
I523
ag586
aaaa(lp1180
I525
aI530
ag411
a(lp1181
(lp1182
I525
ag583
aa(lp1183
I526
ag549
aa(lp1184
I527
ag552
aa(lp1185
I528
ag527
aa(lp1186
I529
ag538
aa(lp1187
I530
ag536
aaaa(lp1188
I533
aI538
ag420
a(lp1189
(lp1190
I533
ag654
aa(lp1191
I534
ag586
aa(lp1192
I535
ag527
aa(lp1193
I536
ag534
aa(lp1194
I537
ag536
aa(lp1195
I538
ag527
aaaa(lp1196
I540
aI541
ag429
a(lp1197
(lp1198
I540
ag712
aa(lp1199
I541
ag538
aaaa(lp1200
I543
aI544
aS'to'
p1201
a(lp1202
(lp1203
I543
ag524
aa(lp1204
I544
ag538
aaaa(lp1205
I546
aI548
aS'the'
p1206
a(lp1207
(lp1208
I546
ag524
aa(lp1209
I547
ag517
aa(lp1210
I548
ag527
aaaa(lp1211
I552
aI560
ag438
a(lp1212
(lp1213
I552
ag524
aa(lp1214
I553
ag531
aa(lp1215
I554
ag534
aa(lp1216
I555
ag583
aa(lp1217
I556
ag527
aa(lp1218
I557
ag586
aa(lp1219
I558
ag527
aa(lp1220
I559
ag531
aa(lp1221
I560
ag536
aaaa(lp1222
I562
aI565
ag447
a(lp1223
(lp1224
I562
ag654
aa(lp1225
I563
ag534
aa(lp1226
I564
ag712
aa(lp1227
I565
ag527
aaaa(lp1228
I568
aI570
ag456
a(lp1229
(lp1230
I568
ag515
aa(lp1231
I569
ag699
aa(lp1232
I570
ag583
aaaa(lp1233
I573
aI577
ag465
a(lp1234
(lp1235
I573
aS'5'
p1236
aa(lp1237
I575
ag1236
aa(lp1238
I576
ag699
aa(lp1239
I577
ag545
aaaa(lp1240
I580
aI581
aS'to'
p1241
a(lp1242
(lp1243
I580
ag524
aa(lp1244
I581
ag538
aaaa(lp1245
I583
aI590
ag474
a(lp1246
(lp1247
I583
ag552
aa(lp1248
I584
ag538
aa(lp1249
I585
ag515
aa(lp1250
I586
ag540
aa(lp1251
I587
ag586
aa(lp1252
I588
ag538
aa(lp1253
I589
ag534
aa(lp1254
I590
ag552
aaaa(lp1255
I592
aI594
aS'the'
p1256
a(lp1257
(lp1258
I592
ag524
aa(lp1259
I593
ag517
aa(lp1260
I594
ag527
aaaa(lp1261
I596
aI598
aS'why'
p1262
a(lp1263
(lp1264
I596
ag515
aa(lp1265
I597
ag517
aa(lp1266
I598
ag519
aaaa(lp1267
I600
aI604
ag483
a(lp1268
(lp1269
I600
ag536
aa(lp1270
I601
ag517
aa(lp1271
I602
ag538
aa(lp1272
I603
ag527
aa(lp1273
I604
ag536
aaaa(lp1274
I606
aI615
ag492
a(lp1275
(lp1276
I606
ag524
aa(lp1277
I607
ag531
aa(lp1278
I608
ag534
aa(lp1279
I609
ag540
aa(lp1280
I610
ag536
aa(lp1281
I611
ag563
aa(lp1282
I612
ag531
aa(lp1283
I613
ag549
aa(lp1284
I614
ag654
aa(lp1285
I615
ag524
aaaa(lp1286
I619
aI621
ag501
a(lp1287
(lp1288
I619
ag524
aa(lp1289
I620
aS'x'
p1290
aa(lp1291
I621
ag524
aaaasS'cleanCharacterMap'
p1292
(lp1293
g514
ag516
ag518
a(lp1294
I4
aS' '
p1295
aag523
ag525
ag526
a(lp1296
I8
ag1295
aag530
ag532
ag533
ag535
ag537
ag539
ag541
a(lp1297
I16
ag1295
aag544
ag546
ag547
ag548
ag550
ag551
a(lp1298
I23
ag1295
aag555
ag556
ag557
a(lp1299
I27
ag1295
aag560
ag561
ag562
ag564
ag566
ag567
ag568
ag569
a(lp1300
I36
ag1295
aag573
ag575
ag576
a(lp1301
I40
ag1295
aag579
ag580
ag581
ag582
ag584
ag585
ag587
ag588
ag589
a(lp1302
I50
ag1295
aag593
ag594
ag595
a(lp1303
I55
ag1295
aag599
ag600
ag601
a(lp1304
I59
ag1295
aag604
ag605
ag606
ag607
ag608
ag609
ag610
a(lp1305
I67
ag1295
aag613
ag614
ag615
ag616
ag617
ag618
a(lp1306
I74
ag1295
aag621
ag622
ag623
a(lp1307
I78
ag1295
aag626
ag627
ag628
ag629
ag630
ag631
ag632
ag633
a(lp1308
I87
ag1295
aag636
ag637
ag638
ag639
ag640
a(lp1309
I93
ag1295
aag643
ag644
ag645
ag646
ag647
ag648
ag649
ag650
a(lp1310
I102
ag1295
aag653
ag655
ag656
ag657
ag658
ag659
ag660
ag661
ag662
ag663
a(lp1311
I113
ag1295
aag667
ag668
ag669
ag670
a(lp1312
I118
ag1295
aag673
ag674
ag675
ag676
ag677
a(lp1313
I124
ag1295
aag680
ag682
ag683
ag684
ag685
ag686
ag687
ag688
ag689
a(lp1314
I134
ag1295
aag693
ag694
ag695
a(lp1315
I138
ag1295
aag698
ag700
ag701
ag702
a(lp1316
I143
ag1295
aag705
ag706
ag707
ag708
ag709
ag710
ag711
ag713
ag714
ag715
a(lp1317
I154
ag1295
aag719
ag720
ag721
a(lp1318
I159
ag1295
aag725
ag726
ag727
a(lp1319
I163
ag1295
aag731
ag732
a(lp1320
I166
ag1295
aag735
a(lp1321
I168
ag1295
aag739
ag740
ag741
ag742
a(lp1322
I173
ag1295
aag746
ag747
a(lp1323
I176
ag1295
aag750
ag751
ag752
ag754
a(lp1324
I181
ag1295
aag758
ag759
ag760
a(lp1325
I185
ag1295
aag764
ag765
a(lp1326
I188
ag1295
aag768
ag769
ag770
ag771
ag772
a(lp1327
I195
ag1295
aag776
ag777
ag778
a(lp1328
I199
ag1295
aag782
ag783
a(lp1329
I202
ag1295
aag786
a(lp1330
I204
ag1295
aag790
ag791
ag792
ag793
a(lp1331
I209
ag1295
aag797
ag798
a(lp1332
I212
ag1295
aag801
ag802
ag803
a(lp1333
I216
ag1295
aag807
ag808
a(lp1334
I219
ag1295
aag811
ag812
ag813
ag814
ag815
a(lp1335
I225
ag1295
aag818
ag819
ag820
ag821
ag822
a(lp1336
I231
ag1295
aag825
ag826
ag827
ag828
ag829
ag830
ag831
a(lp1337
I239
ag1295
aag835
ag836
a(lp1338
I242
ag1295
aag839
a(lp1339
I244
ag1295
aag842
ag844
ag845
ag846
ag847
ag848
a(lp1340
I252
ag1295
aag851
ag852
ag853
ag854
ag855
ag856
ag857
a(lp1341
I260
ag1295
aag860
ag861
ag862
a(lp1342
I265
ag1295
aag866
ag867
ag868
a(lp1343
I269
ag1295
aag872
ag873
a(lp1344
I272
ag1295
aag876
a(lp1345
I274
ag1295
aag880
ag881
ag882
ag883
a(lp1346
I279
ag1295
aag887
ag888
a(lp1347
I282
ag1295
aag891
ag892
ag893
ag894
a(lp1348
I287
ag1295
aag897
ag898
a(lp1349
I291
ag1295
aag901
ag902
ag903
ag904
ag905
a(lp1350
I297
ag1295
aag909
ag910
a(lp1351
I300
ag1295
aag914
ag915
ag916
a(lp1352
I304
ag1295
aag919
ag920
ag921
ag922
ag923
ag924
a(lp1353
I311
ag1295
aag928
ag929
ag930
ag931
ag932
a(lp1354
I317
ag1295
aag936
ag937
a(lp1355
I320
ag1295
aag940
ag941
ag942
a(lp1356
I324
ag1295
aag945
ag946
ag947
ag948
ag949
ag950
ag951
a(lp1357
I332
ag1295
aag955
ag956
a(lp1358
I335
ag1295
aag960
ag961
ag962
ag963
ag964
a(lp1359
I341
ag1295
aag967
ag968
ag969
ag970
ag971
ag972
ag973
ag974
ag975
a(lp1360
I352
ag1295
aag979
ag980
ag981
ag982
a(lp1361
I357
ag1295
aag986
ag987
ag988
a(lp1362
I361
ag1295
aag991
ag992
ag993
ag994
ag995
ag996
ag997
ag998
ag999
ag1000
a(lp1363
I372
ag1295
aag1004
ag1005
ag1006
a(lp1364
I376
ag1295
aag1010
ag1011
ag1012
a(lp1365
I382
ag1295
aag1016
ag1017
a(lp1366
I385
ag1295
aag1020
ag1021
ag1022
ag1023
ag1024
ag1025
ag1026
ag1027
a(lp1367
I395
ag1295
aag1030
ag1031
ag1032
ag1033
ag1034
a(lp1368
I402
ag1295
aag1038
ag1039
ag1040
ag1041
a(lp1369
I407
ag1295
aag1045
ag1046
a(lp1370
I410
ag1295
aag1049
ag1050
ag1051
ag1052
ag1053
ag1054
a(lp1371
I417
ag1295
aag1057
ag1058
ag1059
ag1060
a(lp1372
I422
ag1295
aag1063
ag1064
ag1065
ag1066
ag1067
ag1068
ag1069
a(lp1373
I430
ag1295
aag1073
ag1074
ag1075
ag1076
ag1077
ag1078
ag1079
a(lp1374
I438
ag1295
aag1083
ag1084
ag1085
a(lp1375
I442
ag1295
aag1088
ag1089
ag1090
ag1091
ag1092
ag1093
ag1094
ag1095
ag1096
ag1097
a(lp1376
I454
ag1295
aag1101
ag1102
ag1103
a(lp1377
I458
ag1295
aag1107
ag1108
ag1109
ag1110
a(lp1378
I463
ag1295
aag1113
ag1114
ag1115
ag1116
ag1117
ag1118
ag1119
ag1120
ag1121
ag1122
ag1123
a(lp1379
I475
ag1295
aag1127
ag1128
a(lp1380
I478
ag1295
aag1131
ag1132
ag1133
ag1134
ag1135
ag1136
ag1137
ag1138
a(lp1381
I487
ag1295
aag1141
ag1142
ag1143
ag1144
ag1145
ag1146
ag1147
ag1148
ag1149
ag1150
a(lp1382
I499
ag1295
aag1153
ag1154
ag1155
ag1156
ag1157
ag1158
a(lp1383
I506
ag1295
aag1161
ag1162
ag1163
ag1164
a(lp1384
I512
ag1295
aag1168
ag1169
ag1170
a(lp1385
I516
ag1295
aag1173
ag1174
ag1175
ag1176
ag1177
ag1178
ag1179
a(lp1386
I524
ag1295
aag1182
ag1183
ag1184
ag1185
ag1186
ag1187
a(lp1387
I532
ag1295
aag1190
ag1191
ag1192
ag1193
ag1194
ag1195
a(lp1388
I539
ag1295
aag1198
ag1199
a(lp1389
I542
ag1295
aag1203
ag1204
a(lp1390
I545
ag1295
aag1208
ag1209
ag1210
a(lp1391
I549
ag1295
aa(lp1392
I551
ag1295
aag1213
ag1214
ag1215
ag1216
ag1217
ag1218
ag1219
ag1220
ag1221
a(lp1393
I561
ag1295
aag1224
ag1225
ag1226
ag1227
a(lp1394
I566
ag1295
aag1230
ag1231
ag1232
a(lp1395
I572
ag1295
aag1235
ag1237
ag1238
ag1239
a(lp1396
I579
ag1295
aag1243
ag1244
a(lp1397
I582
ag1295
aag1247
ag1248
ag1249
ag1250
ag1251
ag1252
ag1253
ag1254
a(lp1398
I591
ag1295
aag1258
ag1259
ag1260
a(lp1399
I595
ag1295
aag1264
ag1265
ag1266
a(lp1400
I599
ag1295
aag1269
ag1270
ag1271
ag1272
ag1273
a(lp1401
I605
ag1295
aag1276
ag1277
ag1278
ag1279
ag1280
ag1281
ag1282
ag1283
ag1284
ag1285
a(lp1402
I617
ag1295
aag1288
ag1289
ag1291
a(lp1403
I623
ag1295
aa(lp1404
I624
aS'1'
p1405
aa(lp1406
I626
aS'6'
p1407
aa(lp1408
I627
ag753
aa(lp1409
I628
ag545
aasS'text'
p1410
S'why? the reasons behind tsa security for travelers why? the reasons behind tsa security three security procedures that raise questions for many passengers are: why do i have to take off my shoes? why do i have to put my three ounce liquids in a zip-top plastic bag? why do i have to show id? click on the videos below to get answers to these questions. when you understand the "why" of security, you\'ll have an easier time getting through the checkpoint. for more information on security procedures, travel tips, and helpful videos, please go to the . travelers page (wmv, 5.5mb) to download the why shoes transcript. (txt, 1.6kb)'
p1411
sS'cleanWordMap'
p1412
(lp1413
g528
ag542
ag553
ag558
ag577
ag602
ag611
ag619
ag624
ag634
ag641
ag651
ag671
ag678
ag696
ag703
ag748
ag766
ag799
ag809
ag816
ag823
ag840
ag849
ag858
ag889
ag895
ag899
ag917
ag938
ag943
ag965
ag989
ag1018
ag1028
ag1047
ag1055
ag1061
ag1086
ag1111
ag1129
ag1139
ag1151
ag1159
ag1171
ag1180
ag1188
ag1196
ag1211
ag1222
ag1228
ag1233
ag1245
ag1267
ag1274
ag1286
asS'lines'
p1414
(lp1415
VWhy? The Reasons Behind TSA Security\u000a
p1416
aVFor Travelers\u000a
p1417
aVWhy? The Reasons Behind TSA Security\u000a
p1418
aVThree security procedures that raise questions for many passengers are:\u000a
p1419
aVWhy do I have to take off my shoes?\u000a
p1420
aVWhy do I have to put my three ounce liquids in a zip-top plastic bag?\u000a
p1421
aVWhy do I have to show ID?\u000a
p1422
aVClick on the videos below to get answers to these questions. When you understand the "why" of security, you'll have an easier time getting through the checkpoint.\u000a
p1423
aVFor more information on security procedures, travel tips, and helpful videos, please go to the . Travelers Page\u000a
p1424
aV(wmv, 5.5Mb) to download the Why Shoes transcript. (txt, 1.6Kb)
p1425
asS'docType'
p1426
S'src'
p1427
sS'newfmap'
p1428
(lp1429
g4
ag8
ag10
ag12
ag14
ag17
ag19
ag21
ag23
ag26
ag28
ag30
ag32
ag35
ag37
ag39
ag41
ag44
ag46
ag48
ag50
ag53
ag55
ag57
ag59
ag62
ag64
ag66
ag68
ag71
ag73
ag75
ag77
ag80
ag82
ag84
ag86
ag89
ag91
ag93
ag95
ag98
ag100
ag102
ag104
ag107
ag109
ag111
ag113
ag116
ag118
ag120
ag122
ag125
ag127
ag129
ag131
ag134
ag136
ag138
ag140
ag143
ag145
ag147
ag149
ag152
ag154
ag156
ag158
ag161
ag163
ag165
ag167
ag170
ag172
ag174
ag176
ag179
ag181
ag183
ag185
ag188
ag190
ag192
ag194
ag197
ag199
ag201
ag203
ag206
ag208
ag210
ag212
ag215
ag217
ag219
ag221
ag224
ag226
ag228
ag230
ag233
ag235
ag237
ag239
ag242
ag244
ag246
ag248
ag251
ag253
ag255
ag257
ag260
ag262
ag264
ag266
ag269
ag271
ag273
ag275
ag278
ag280
ag282
ag284
ag287
ag289
ag291
ag293
ag296
ag298
ag300
ag302
ag305
ag307
ag309
ag311
ag314
ag316
ag318
ag320
ag323
ag325
ag327
ag329
ag332
ag334
ag336
ag338
ag341
ag343
ag345
ag347
ag350
ag352
ag354
ag356
ag359
ag361
ag363
ag365
ag368
ag370
ag372
ag374
ag377
ag379
ag381
ag383
ag386
ag388
ag390
ag392
ag395
ag397
ag399
ag401
ag404
ag406
ag408
ag410
ag413
ag415
ag417
ag419
ag422
ag424
ag426
ag428
ag431
ag433
ag435
ag437
ag440
ag442
ag444
ag446
ag449
ag451
ag453
ag455
ag458
ag460
ag462
ag464
ag467
ag469
ag471
ag473
ag476
ag478
ag480
ag482
ag485
ag487
ag489
ag491
ag494
ag496
ag498
ag500
ag503
ag505
ag507
asS'featureMap'
p1430
(lp1431
(lp1432
I9
aI15
ag5
ag6
ag9
ag11
ag13
aa(lp1433
I17
aI22
ag15
ag16
ag18
ag20
ag22
aa(lp1434
I24
aI26
ag24
ag25
ag27
ag29
ag31
aa(lp1435
I28
aI35
ag33
ag34
ag36
ag38
ag40
aa(lp1436
I41
aI49
ag42
ag43
ag45
ag47
ag49
aa(lp1437
I60
aI66
ag51
ag52
ag54
ag56
ag58
aa(lp1438
I68
aI73
ag60
ag61
ag63
ag65
ag67
aa(lp1439
I75
aI77
ag69
ag70
ag72
ag74
ag76
aa(lp1440
I79
aI86
ag78
ag79
ag81
ag83
ag85
aa(lp1441
I88
aI92
ag87
ag88
ag90
ag92
ag94
aa(lp1442
I94
aI101
ag96
ag97
ag99
ag101
ag103
aa(lp1443
I103
aI112
ag105
ag106
ag108
ag110
ag112
aa(lp1444
I119
aI123
ag114
ag115
ag117
ag119
ag121
aa(lp1445
I125
aI133
ag123
ag124
ag126
ag128
ag130
aa(lp1446
I139
aI142
ag132
ag133
ag135
ag137
ag139
aa(lp1447
I144
aI153
ag141
ag142
ag144
ag146
ag148
aa(lp1448
I177
aI180
ag150
ag151
ag153
ag155
ag157
aa(lp1449
I189
aI193
ag159
ag160
ag162
ag164
ag166
aa(lp1450
I213
aI215
ag168
ag169
ag171
ag173
ag175
aa(lp1451
I220
aI224
ag177
ag178
ag180
ag182
ag184
aa(lp1452
I226
aI230
ag186
ag187
ag189
ag191
ag193
aa(lp1453
I232
aI238
ag195
ag196
ag198
ag200
ag202
aa(lp1454
I245
aI251
ag204
ag205
ag207
ag209
ag211
aa(lp1455
I253
aI259
ag213
ag214
ag216
ag218
ag220
aa(lp1456
I261
aI263
ag222
ag223
ag225
ag227
ag229
aa(lp1457
I283
aI286
ag231
ag232
ag234
ag236
ag238
aa(lp1458
I288
aI289
ag240
ag241
ag243
ag245
ag247
aa(lp1459
I292
aI296
ag249
ag250
ag252
ag254
ag256
aa(lp1460
I305
aI310
ag258
ag259
ag261
ag263
ag265
aa(lp1461
I321
aI323
ag267
ag268
ag270
ag272
ag274
aa(lp1462
I325
aI331
ag276
ag277
ag279
ag281
ag283
aa(lp1463
I342
aI350
ag285
ag286
ag288
ag290
ag292
aa(lp1464
I362
aI371
ag294
ag295
ag297
ag299
ag301
aa(lp1465
I386
aI393
ag303
ag304
ag306
ag308
ag310
aa(lp1466
I396
aI401
ag312
ag313
ag315
ag317
ag319
aa(lp1467
I411
aI416
ag321
ag322
ag324
ag326
ag328
aa(lp1468
I418
aI421
ag330
ag331
ag333
ag335
ag337
aa(lp1469
I423
aI429
ag339
ag340
ag342
ag344
ag346
aa(lp1470
I443
aI452
ag348
ag349
ag351
ag353
ag355
aa(lp1471
I464
aI474
ag357
ag358
ag360
ag362
ag364
aa(lp1472
I479
aI486
ag366
ag367
ag369
ag371
ag373
aa(lp1473
I488
aI497
ag375
ag376
ag378
ag380
ag382
aa(lp1474
I500
aI505
ag384
ag385
ag387
ag389
ag391
aa(lp1475
I507
aI510
ag393
ag394
ag396
ag398
ag400
aa(lp1476
I517
aI523
ag402
ag403
ag405
ag407
ag409
aa(lp1477
I525
aI530
ag411
ag412
ag414
ag416
ag418
aa(lp1478
I533
aI538
ag420
ag421
ag423
ag425
ag427
aa(lp1479
I540
aI541
ag429
ag430
ag432
ag434
ag436
aa(lp1480
I552
aI560
ag438
ag439
ag441
ag443
ag445
aa(lp1481
I562
aI565
ag447
ag448
ag450
ag452
ag454
aa(lp1482
I568
aI570
ag456
ag457
ag459
ag461
ag463
aa(lp1483
I573
aI577
ag465
ag466
ag468
ag470
ag472
aa(lp1484
I583
aI590
ag474
ag475
ag477
ag479
ag481
aa(lp1485
I600
aI604
ag483
ag484
ag486
ag488
ag490
aa(lp1486
I606
aI615
ag492
ag493
ag495
ag497
ag499
aa(lp1487
I619
aI621
ag501
ag502
ag504
ag506
ag508
aasS'characterMap'
p1488
(lp1489
g514
ag516
ag518
a(lp1490
I3
aS'?'
p1491
aag1294
ag523
ag525
ag526
ag1296
ag530
ag532
ag533
ag535
ag537
ag539
ag541
ag1297
ag544
ag546
ag547
ag548
ag550
ag551
ag1298
ag555
ag556
ag557
ag1299
ag560
ag561
ag562
ag564
ag566
ag567
ag568
ag569
ag1300
ag573
ag575
ag576
ag1301
ag579
ag580
ag581
ag582
ag584
ag585
ag587
ag588
ag589
ag1302
ag593
ag594
ag595
a(lp1492
I54
ag1491
aag1303
ag599
ag600
ag601
ag1304
ag604
ag605
ag606
ag607
ag608
ag609
ag610
ag1305
ag613
ag614
ag615
ag616
ag617
ag618
ag1306
ag621
ag622
ag623
ag1307
ag626
ag627
ag628
ag629
ag630
ag631
ag632
ag633
ag1308
ag636
ag637
ag638
ag639
ag640
ag1309
ag643
ag644
ag645
ag646
ag647
ag648
ag649
ag650
ag1310
ag653
ag655
ag656
ag657
ag658
ag659
ag660
ag661
ag662
ag663
ag1311
ag667
ag668
ag669
ag670
ag1312
ag673
ag674
ag675
ag676
ag677
ag1313
ag680
ag682
ag683
ag684
ag685
ag686
ag687
ag688
ag689
ag1314
ag693
ag694
ag695
ag1315
ag698
ag700
ag701
ag702
ag1316
ag705
ag706
ag707
ag708
ag709
ag710
ag711
ag713
ag714
ag715
ag1317
ag719
ag720
ag721
a(lp1493
I158
aS':'
p1494
aag1318
ag725
ag726
ag727
ag1319
ag731
ag732
ag1320
ag735
ag1321
ag739
ag740
ag741
ag742
ag1322
ag746
ag747
ag1323
ag750
ag751
ag752
ag754
ag1324
ag758
ag759
ag760
ag1325
ag764
ag765
ag1326
ag768
ag769
ag770
ag771
ag772
a(lp1495
I194
ag1491
aag1327
ag776
ag777
ag778
ag1328
ag782
ag783
ag1329
ag786
ag1330
ag790
ag791
ag792
ag793
ag1331
ag797
ag798
ag1332
ag801
ag802
ag803
ag1333
ag807
ag808
ag1334
ag811
ag812
ag813
ag814
ag815
ag1335
ag818
ag819
ag820
ag821
ag822
ag1336
ag825
ag826
ag827
ag828
ag829
ag830
ag831
ag1337
ag835
ag836
ag1338
ag839
ag1339
ag842
ag844
ag845
a(lp1496
I248
aS'-'
p1497
aag846
ag847
ag848
ag1340
ag851
ag852
ag853
ag854
ag855
ag856
ag857
ag1341
ag860
ag861
ag862
a(lp1498
I264
ag1491
aag1342
ag866
ag867
ag868
ag1343
ag872
ag873
ag1344
ag876
ag1345
ag880
ag881
ag882
ag883
ag1346
ag887
ag888
ag1347
ag891
ag892
ag893
ag894
ag1348
ag897
ag898
a(lp1499
I290
ag1491
aag1349
ag901
ag902
ag903
ag904
ag905
ag1350
ag909
ag910
ag1351
ag914
ag915
ag916
ag1352
ag919
ag920
ag921
ag922
ag923
ag924
ag1353
ag928
ag929
ag930
ag931
ag932
ag1354
ag936
ag937
ag1355
ag940
ag941
ag942
ag1356
ag945
ag946
ag947
ag948
ag949
ag950
ag951
ag1357
ag955
ag956
ag1358
ag960
ag961
ag962
ag963
ag964
ag1359
ag967
ag968
ag969
ag970
ag971
ag972
ag973
ag974
ag975
a(lp1500
I351
aS'.'
p1501
aag1360
ag979
ag980
ag981
ag982
ag1361
ag986
ag987
ag988
ag1362
ag991
ag992
ag993
ag994
ag995
ag996
ag997
ag998
ag999
ag1000
ag1363
ag1004
ag1005
ag1006
ag1364
a(lp1502
I377
aS'"'
p1503
aag1010
ag1011
ag1012
a(lp1504
I381
ag1503
aag1365
ag1016
ag1017
ag1366
ag1020
ag1021
ag1022
ag1023
ag1024
ag1025
ag1026
ag1027
a(lp1505
I394
aS','
p1506
aag1367
ag1030
ag1031
ag1032
a(lp1507
I399
aS"'"
p1508
aag1033
ag1034
ag1368
ag1038
ag1039
ag1040
ag1041
ag1369
ag1045
ag1046
ag1370
ag1049
ag1050
ag1051
ag1052
ag1053
ag1054
ag1371
ag1057
ag1058
ag1059
ag1060
ag1372
ag1063
ag1064
ag1065
ag1066
ag1067
ag1068
ag1069
ag1373
ag1073
ag1074
ag1075
ag1076
ag1077
ag1078
ag1079
ag1374
ag1083
ag1084
ag1085
ag1375
ag1088
ag1089
ag1090
ag1091
ag1092
ag1093
ag1094
ag1095
ag1096
ag1097
a(lp1509
I453
ag1501
aag1376
ag1101
ag1102
ag1103
ag1377
ag1107
ag1108
ag1109
ag1110
ag1378
ag1113
ag1114
ag1115
ag1116
ag1117
ag1118
ag1119
ag1120
ag1121
ag1122
ag1123
ag1379
ag1127
ag1128
ag1380
ag1131
ag1132
ag1133
ag1134
ag1135
ag1136
ag1137
ag1138
ag1381
ag1141
ag1142
ag1143
ag1144
ag1145
ag1146
ag1147
ag1148
ag1149
ag1150
a(lp1510
I498
ag1506
aag1382
ag1153
ag1154
ag1155
ag1156
ag1157
ag1158
ag1383
ag1161
ag1162
ag1163
ag1164
a(lp1511
I511
ag1506
aag1384
ag1168
ag1169
ag1170
ag1385
ag1173
ag1174
ag1175
ag1176
ag1177
ag1178
ag1179
ag1386
ag1182
ag1183
ag1184
ag1185
ag1186
ag1187
a(lp1512
I531
ag1506
aag1387
ag1190
ag1191
ag1192
ag1193
ag1194
ag1195
ag1388
ag1198
ag1199
ag1389
ag1203
ag1204
ag1390
ag1208
ag1209
ag1210
ag1391
a(lp1513
I550
ag1501
aag1392
ag1213
ag1214
ag1215
ag1216
ag1217
ag1218
ag1219
ag1220
ag1221
ag1393
ag1224
ag1225
ag1226
ag1227
ag1394
a(lp1514
I567
aS'('
p1515
aag1230
ag1231
ag1232
a(lp1516
I571
ag1506
aag1395
ag1235
a(lp1517
I574
ag1501
aag1237
ag1238
ag1239
a(lp1518
I578
aS')'
p1519
aag1396
ag1243
ag1244
ag1397
ag1247
ag1248
ag1249
ag1250
ag1251
ag1252
ag1253
ag1254
ag1398
ag1258
ag1259
ag1260
ag1399
ag1264
ag1265
ag1266
ag1400
ag1269
ag1270
ag1271
ag1272
ag1273
ag1401
ag1276
ag1277
ag1278
ag1279
ag1280
ag1281
ag1282
ag1283
ag1284
ag1285
a(lp1520
I616
ag1501
aag1402
a(lp1521
I618
ag1515
aag1288
ag1289
ag1291
a(lp1522
I622
ag1506
aag1403
ag1404
a(lp1523
I625
ag1501
aag1406
ag1408
ag1409
a(lp1524
I629
ag1519
aasS'docName'
p1525
S'source-document01316.txt'
p1526
sb.