(iModel.Document
Document
p0
(dp1
S'fmap'
p2
(lp3
sS'wordMap'
p4
(lp5
sS'cleanCharacterMap'
p6
(lp7
(lp8
I1
aS' '
p9
aa(lp10
I2
aS't'
p11
aa(lp12
I3
aS'h'
p13
aa(lp14
I4
aS'e'
p15
aa(lp16
I5
ag9
aa(lp17
I6
aS'c'
p18
aa(lp19
I7
ag13
aa(lp20
I8
aS'a'
p21
aa(lp22
I9
aS'r'
p23
aa(lp24
I10
ag21
aa(lp25
I11
ag18
aa(lp26
I12
ag11
aa(lp27
I13
ag15
aa(lp28
I14
ag23
aa(lp29
I15
aS'i'
p30
aa(lp31
I16
aS's'
p32
aa(lp33
I17
ag11
aa(lp34
I18
ag30
aa(lp35
I19
ag18
aa(lp36
I20
ag9
aa(lp37
I21
ag32
aa(lp38
I22
ag11
aa(lp39
I23
ag21
aa(lp40
I24
ag11
aa(lp41
I25
ag15
aa(lp42
I26
ag9
aa(lp43
I27
aS'o'
p44
aa(lp45
I28
aS'f'
p46
aa(lp47
I29
ag9
aa(lp48
I30
ag44
aa(lp49
I31
ag23
aa(lp50
I32
aS'g'
p51
aa(lp52
I33
ag21
aa(lp53
I34
aS'n'
p54
aa(lp55
I35
ag30
aa(lp56
I36
ag32
aa(lp57
I37
aS'm'
p58
aa(lp59
I38
ag32
aa(lp60
I39
ag9
aa(lp61
I40
aS'l'
p62
aa(lp63
I41
ag30
aa(lp64
I42
ag46
aa(lp65
I43
ag15
aa(lp66
I44
ag9
aa(lp67
I46
ag9
aa(lp68
I47
aS'b'
p69
aa(lp70
I48
ag15
aa(lp71
I49
ag30
aa(lp72
I50
ag54
aa(lp73
I51
ag51
aa(lp74
I52
ag9
aa(lp75
I53
aS'd'
p76
aa(lp77
I54
ag15
aa(lp78
I55
ag32
aa(lp79
I56
ag18
aa(lp80
I57
ag15
aa(lp81
I58
ag54
aa(lp82
I59
ag76
aa(lp83
I60
ag15
aa(lp84
I61
ag76
aa(lp85
I62
ag9
aa(lp86
I63
ag46
aa(lp87
I64
ag23
aa(lp88
I65
ag44
aa(lp89
I66
ag58
aa(lp90
I67
ag9
aa(lp91
I68
ag11
aa(lp92
I69
ag13
aa(lp93
I70
ag15
aa(lp94
I71
ag9
aa(lp95
I72
ag32
aa(lp96
I73
ag21
aa(lp97
I74
ag58
aa(lp98
I75
ag15
aa(lp99
I76
ag9
aa(lp100
I77
ag21
aa(lp101
I78
ag54
aa(lp102
I79
ag18
aa(lp103
I80
ag15
aa(lp104
I81
ag32
aa(lp105
I82
ag11
aa(lp106
I83
ag44
aa(lp107
I84
ag23
aa(lp108
I85
ag9
aa(lp109
I86
ag18
aa(lp110
I87
ag44
aa(lp111
I88
ag54
aa(lp112
I89
ag32
aa(lp113
I90
ag21
aa(lp114
I91
ag54
aa(lp115
I92
ag51
aa(lp116
I93
aS'u'
p117
aa(lp118
I94
ag30
aa(lp119
I95
ag54
aa(lp120
I96
ag30
aa(lp121
I97
ag11
aa(lp122
I98
aS'y'
p123
aa(lp124
I99
ag9
aa(lp125
I101
ag58
aa(lp126
I102
ag21
aa(lp127
I103
ag11
aa(lp128
I104
ag15
aa(lp129
I105
ag23
aa(lp130
I106
ag30
aa(lp131
I107
ag21
aa(lp132
I108
ag62
aa(lp133
I109
ag32
aa(lp134
I110
ag9
aa(lp135
I111
ag21
aa(lp136
I112
ag54
aa(lp137
I113
ag76
aa(lp138
I114
ag9
aa(lp139
I115
ag32
aa(lp140
I116
ag117
aa(lp141
I117
ag69
aa(lp142
I118
ag32
aa(lp143
I119
ag11
aa(lp144
I120
ag21
aa(lp145
I121
ag54
aa(lp146
I122
ag18
aa(lp147
I123
ag15
aa(lp148
I124
ag32
aa(lp149
I125
ag9
aa(lp150
I127
ag9
aa(lp151
I128
ag44
aa(lp152
I129
ag23
aa(lp153
I130
ag9
aa(lp154
I131
aS'j'
p155
aa(lp156
I132
ag117
aa(lp157
I133
ag32
aa(lp158
I134
ag11
aa(lp159
I135
ag9
aa(lp160
I136
ag69
aa(lp161
I137
ag30
aa(lp162
I138
ag44
aa(lp163
I139
ag62
aa(lp164
I140
ag44
aa(lp165
I141
ag51
aa(lp166
I142
ag30
aa(lp167
I143
ag18
aa(lp168
I144
ag21
aa(lp169
I145
ag62
aa(lp170
I146
ag9
aa(lp171
I147
ag11
aa(lp172
I148
ag30
aa(lp173
I149
ag32
aa(lp174
I150
ag32
aa(lp175
I151
ag117
aa(lp176
I152
ag15
aa(lp177
I153
ag9
aa(lp178
I154
ag11
aa(lp179
I155
ag30
aa(lp180
I156
ag32
aa(lp181
I157
ag32
aa(lp182
I158
ag117
aa(lp183
I159
ag15
aa(lp184
I160
ag9
aa(lp185
I162
ag9
aa(lp186
I163
ag62
aa(lp187
I164
ag30
aa(lp188
I165
aS'v'
p189
aa(lp190
I166
ag30
aa(lp191
I167
ag54
aa(lp192
I168
ag51
aa(lp193
I169
ag9
aa(lp194
I170
ag44
aa(lp195
I171
ag23
aa(lp196
I172
ag9
aa(lp197
I173
ag76
aa(lp198
I174
ag15
aa(lp199
I175
ag21
aa(lp200
I176
ag76
aa(lp201
I177
ag9
aa(lp202
I178
ag69
aa(lp203
I179
ag30
aa(lp204
I180
ag44
aa(lp205
I181
ag62
aa(lp206
I182
ag44
aa(lp207
I183
ag51
aa(lp208
I184
ag30
aa(lp209
I185
ag18
aa(lp210
I186
ag21
aa(lp211
I187
ag62
aa(lp212
I188
ag9
aa(lp213
I189
ag58
aa(lp214
I190
ag21
aa(lp215
I191
ag11
aa(lp216
I192
ag11
aa(lp217
I193
ag15
aa(lp218
I194
ag23
aa(lp219
I196
ag9
aa(lp220
I197
ag44
aa(lp221
I198
ag46
aa(lp222
I199
ag11
aa(lp223
I200
ag15
aa(lp224
I201
ag54
aa(lp225
I202
ag9
aa(lp226
I203
aS'p'
p227
aa(lp228
I204
ag62
aa(lp229
I205
ag21
aa(lp230
I206
ag54
aa(lp231
I207
ag11
aa(lp232
I208
ag32
aa(lp233
I209
ag9
aa(lp234
I210
ag51
aa(lp235
I211
ag23
aa(lp236
I212
ag44
aa(lp237
I213
aS'w'
p238
aa(lp239
I214
ag54
aa(lp240
I215
ag9
aa(lp241
I216
ag21
aa(lp242
I217
ag32
aa(lp243
I218
ag9
aa(lp244
I219
ag46
aa(lp245
I220
ag117
aa(lp246
I221
ag15
aa(lp247
I222
ag62
aa(lp248
I223
ag9
aa(lp249
I224
ag69
aa(lp250
I225
ag30
aa(lp251
I226
ag44
aa(lp252
I227
ag58
aa(lp253
I228
ag21
aa(lp254
I229
ag32
aa(lp255
I230
ag32
aa(lp256
I231
ag9
aa(lp257
I233
ag9
aa(lp258
I234
ag11
aa(lp259
I235
ag13
aa(lp260
I236
ag15
aa(lp261
I237
ag9
aa(lp262
I238
ag11
aa(lp263
I239
ag44
aa(lp264
I240
ag11
aa(lp265
I241
ag21
aa(lp266
I242
ag62
aa(lp267
I243
ag9
aa(lp268
I244
ag58
aa(lp269
I245
ag21
aa(lp270
I246
ag32
aa(lp271
I247
ag32
aa(lp272
I248
ag9
aa(lp273
I249
ag44
aa(lp274
I250
ag46
aa(lp275
I251
ag9
aa(lp276
I252
ag62
aa(lp277
I253
ag30
aa(lp278
I254
ag189
aa(lp279
I255
ag30
aa(lp280
I256
ag54
aa(lp281
I257
ag51
aa(lp282
I258
ag9
aa(lp283
I259
ag69
aa(lp284
I260
ag30
aa(lp285
I261
ag44
aa(lp286
I262
ag62
aa(lp287
I263
ag44
aa(lp288
I264
ag51
aa(lp289
I265
ag30
aa(lp290
I266
ag18
aa(lp291
I267
ag21
aa(lp292
I268
ag62
aa(lp293
I269
ag9
aa(lp294
I270
ag58
aa(lp295
I271
ag21
aa(lp296
I272
ag11
aa(lp297
I273
ag11
aa(lp298
I274
ag15
aa(lp299
I275
ag23
aa(lp300
I276
ag9
aa(lp301
I277
ag69
aa(lp302
I278
ag30
aa(lp303
I279
ag44
aa(lp304
I280
ag58
aa(lp305
I281
ag21
aa(lp306
I282
ag32
aa(lp307
I283
ag32
aa(lp308
I284
ag9
aa(lp309
I286
ag15
aa(lp310
I287
ag18
aa(lp311
I288
ag44
aa(lp312
I289
ag62
aa(lp313
I290
ag44
aa(lp314
I291
ag51
aa(lp315
I292
ag123
aa(lp316
I294
ag9
aa(lp317
I295
ag21
aa(lp318
I296
ag54
aa(lp319
I297
ag76
aa(lp320
I298
ag9
aa(lp321
I299
ag69
aa(lp322
I300
ag30
aa(lp323
I301
ag44
aa(lp324
I302
ag21
aa(lp325
I303
ag227
aa(lp326
I304
ag227
aa(lp327
I305
ag62
aa(lp328
I306
ag30
aa(lp329
I307
ag18
aa(lp330
I308
ag21
aa(lp331
I309
ag69
aa(lp332
I310
ag62
aa(lp333
I311
ag15
aa(lp334
I312
ag9
aa(lp335
I313
ag58
aa(lp336
I314
ag21
aa(lp337
I315
ag11
aa(lp338
I316
ag15
aa(lp339
I317
ag23
aa(lp340
I318
ag30
aa(lp341
I319
ag21
aa(lp342
I320
ag62
aa(lp343
I321
ag32
aa(lp344
I322
ag9
aa(lp345
I323
ag69
aa(lp346
I324
ag30
aa(lp347
I325
ag44
aa(lp348
I326
ag18
aa(lp349
I327
ag44
aa(lp350
I328
ag58
aa(lp351
I329
ag227
aa(lp352
I330
ag21
aa(lp353
I331
ag11
aa(lp354
I332
ag30
aa(lp355
I333
ag69
aa(lp356
I334
ag62
aa(lp357
I335
ag15
aa(lp358
I336
ag9
aa(lp359
I337
ag58
aa(lp360
I338
ag21
aa(lp361
I339
ag11
aa(lp362
I340
ag15
aa(lp363
I341
ag23
aa(lp364
I342
ag30
aa(lp365
I343
ag21
aa(lp366
I344
ag62
aa(lp367
I345
ag32
aa(lp368
I346
ag9
aa(lp369
I348
ag9
aa(lp370
I349
ag21
aa(lp371
I350
ag9
aa(lp372
I351
ag18
aa(lp373
I352
ag13
aa(lp374
I353
ag15
aa(lp375
I354
ag58
aa(lp376
I355
ag30
aa(lp377
I356
ag18
aa(lp378
I357
ag21
aa(lp379
I358
ag62
aa(lp380
I359
ag9
aa(lp381
I360
ag18
aa(lp382
I361
ag44
aa(lp383
I362
ag58
aa(lp384
I363
ag227
aa(lp385
I364
ag44
aa(lp386
I365
ag117
aa(lp387
I366
ag54
aa(lp388
I367
ag76
aa(lp389
I368
ag9
aa(lp390
I369
ag11
aa(lp391
I370
ag13
aa(lp392
I371
ag21
aa(lp393
I372
ag11
aa(lp394
I373
ag9
aa(lp395
I374
ag54
aa(lp396
I375
ag21
aa(lp397
I376
ag11
aa(lp398
I377
ag117
aa(lp399
I378
ag23
aa(lp400
I379
ag21
aa(lp401
I380
ag62
aa(lp402
I381
ag62
aa(lp403
I382
ag123
aa(lp404
I383
ag9
aa(lp405
I384
ag44
aa(lp406
I385
ag18
aa(lp407
I386
ag18
aa(lp408
I387
ag117
aa(lp409
I388
ag23
aa(lp410
I389
ag32
aa(lp411
I390
ag9
aa(lp412
I391
ag30
aa(lp413
I392
ag54
aa(lp414
I393
ag9
aa(lp415
I394
ag62
aa(lp416
I395
ag30
aa(lp417
I396
ag189
aa(lp418
I397
ag30
aa(lp419
I398
ag54
aa(lp420
I399
ag51
aa(lp421
I400
ag9
aa(lp422
I401
ag44
aa(lp423
I402
ag23
aa(lp424
I403
ag51
aa(lp425
I404
ag21
aa(lp426
I405
ag54
aa(lp427
I406
ag30
aa(lp428
I407
ag32
aa(lp429
I408
ag58
aa(lp430
I409
ag32
aa(lp431
I410
ag9
aa(lp432
I411
ag69
aa(lp433
I412
ag30
aa(lp434
I413
ag44
aa(lp435
I414
ag58
aa(lp436
I415
ag44
aa(lp437
I416
ag62
aa(lp438
I417
ag15
aa(lp439
I418
ag18
aa(lp440
I419
ag117
aa(lp441
I420
ag62
aa(lp442
I421
ag15
aa(lp443
I422
ag9
aa(lp444
I424
ag9
aa(lp445
I425
ag21
aa(lp446
I426
ag9
aa(lp447
I427
ag227
aa(lp448
I428
ag23
aa(lp449
I429
ag44
aa(lp450
I430
ag18
aa(lp451
I431
ag15
aa(lp452
I432
ag32
aa(lp453
I433
ag32
aa(lp454
I434
ag15
aa(lp455
I435
ag76
aa(lp456
I436
ag9
aa(lp457
I437
ag69
aa(lp458
I438
ag30
aa(lp459
I439
ag44
aa(lp460
I440
ag11
aa(lp461
I441
ag30
aa(lp462
I442
ag18
aa(lp463
I443
ag9
aa(lp464
I444
ag58
aa(lp465
I445
ag21
aa(lp466
I446
ag11
aa(lp467
I447
ag15
aa(lp468
I448
ag23
aa(lp469
I449
ag30
aa(lp470
I450
ag21
aa(lp471
I451
ag62
aa(lp472
I452
ag9
aa(lp473
I453
ag69
aa(lp474
I454
ag30
aa(lp475
I455
ag44
aa(lp476
I457
ag69
aa(lp477
I458
ag21
aa(lp478
I459
ag32
aa(lp479
I460
ag15
aa(lp480
I461
ag76
aa(lp481
I462
ag9
aa(lp482
I463
ag58
aa(lp483
I464
ag21
aa(lp484
I465
ag11
aa(lp485
I466
ag15
aa(lp486
I467
ag23
aa(lp487
I468
ag30
aa(lp488
I469
ag21
aa(lp489
I470
ag62
aa(lp490
I471
ag9
aa(lp491
I473
ag9
aa(lp492
I474
ag58
aa(lp493
I475
ag21
aa(lp494
I476
ag11
aa(lp495
I477
ag15
aa(lp496
I478
ag23
aa(lp497
I479
ag30
aa(lp498
I480
ag21
aa(lp499
I481
ag62
aa(lp500
I482
ag9
aa(lp501
I483
ag21
aa(lp502
I484
ag54
aa(lp503
I485
ag76
aa(lp504
I486
ag9
aa(lp505
I487
ag32
aa(lp506
I488
ag117
aa(lp507
I489
ag69
aa(lp508
I490
ag32
aa(lp509
I491
ag11
aa(lp510
I492
ag21
aa(lp511
I493
ag54
aa(lp512
I494
ag18
aa(lp513
I495
ag15
aa(lp514
I496
ag32
aa(lp515
I497
ag9
aa(lp516
I498
ag44
aa(lp517
I499
ag46
aa(lp518
I500
ag9
aa(lp519
I501
ag238
aa(lp520
I502
ag13
aa(lp521
I503
ag30
aa(lp522
I504
ag18
aa(lp523
I505
ag13
aa(lp524
I506
ag9
aa(lp525
I507
ag18
aa(lp526
I508
ag15
aa(lp527
I509
ag62
aa(lp528
I510
ag62
aa(lp529
I511
ag32
aa(lp530
I512
ag9
aa(lp531
I514
ag21
aa(lp532
I515
ag54
aa(lp533
I516
ag76
aa(lp534
I517
ag9
aa(lp535
I518
ag11
aa(lp536
I519
ag13
aa(lp537
I520
ag117
aa(lp538
I521
ag32
aa(lp539
I522
ag9
aa(lp540
I523
ag62
aa(lp541
I524
ag30
aa(lp542
I525
ag189
aa(lp543
I526
ag30
aa(lp544
I527
ag54
aa(lp545
I528
ag51
aa(lp546
I529
ag9
aa(lp547
I530
ag44
aa(lp548
I531
ag23
aa(lp549
I532
ag51
aa(lp550
I533
ag21
aa(lp551
I534
ag54
aa(lp552
I535
ag30
aa(lp553
I536
ag32
aa(lp554
I537
ag58
aa(lp555
I538
ag32
aa(lp556
I540
ag9
aa(lp557
I541
ag21
aa(lp558
I542
ag23
aa(lp559
I543
ag15
aa(lp560
I544
ag9
aa(lp561
I545
ag18
aa(lp562
I546
ag44
aa(lp563
I547
ag58
aa(lp564
I548
ag227
aa(lp565
I549
ag44
aa(lp566
I550
ag32
aa(lp567
I551
ag15
aa(lp568
I552
ag76
aa(lp569
I553
ag9
aa(lp570
I554
ag18
aa(lp571
I555
ag15
aa(lp572
I556
ag62
aa(lp573
I557
ag62
aa(lp574
I558
ag117
aa(lp575
I559
ag62
aa(lp576
I560
ag21
aa(lp577
I561
ag23
aa(lp578
I562
ag9
aa(lp579
I563
ag18
aa(lp580
I564
ag44
aa(lp581
I565
ag58
aa(lp582
I566
ag227
aa(lp583
I567
ag44
aa(lp584
I568
ag54
aa(lp585
I569
ag15
aa(lp586
I570
ag54
aa(lp587
I571
ag11
aa(lp588
I572
ag9
aa(lp589
I574
ag44
aa(lp590
I575
ag23
aa(lp591
I576
ag9
aa(lp592
I577
ag44
aa(lp593
I578
ag23
aa(lp594
I579
ag51
aa(lp595
I580
ag21
aa(lp596
I581
ag54
aa(lp597
I582
ag30
aa(lp598
I583
ag18
aa(lp599
I584
ag9
aa(lp600
I585
ag58
aa(lp601
I586
ag21
aa(lp602
I587
ag11
aa(lp603
I588
ag11
aa(lp604
I589
ag15
aa(lp605
I590
ag23
aa(lp606
I593
ag9
aa(lp607
I594
ag76
aa(lp608
I595
ag15
aa(lp609
I596
ag23
aa(lp610
I597
ag30
aa(lp611
I598
ag189
aa(lp612
I599
ag15
aa(lp613
I600
ag76
aa(lp614
I601
ag9
aa(lp615
I602
ag46
aa(lp616
I603
ag23
aa(lp617
I604
ag44
aa(lp618
I605
ag58
aa(lp619
I606
ag9
aa(lp620
I607
ag62
aa(lp621
I608
ag30
aa(lp622
I609
ag189
aa(lp623
I610
ag30
aa(lp624
I611
ag54
aa(lp625
I612
ag51
aa(lp626
I613
ag9
aa(lp627
I614
ag11
aa(lp628
I615
ag13
aa(lp629
I616
ag30
aa(lp630
I617
ag54
aa(lp631
I618
ag51
aa(lp632
I619
ag32
aa(lp633
I620
ag9
aa(lp634
I621
ag44
aa(lp635
I622
ag23
aa(lp636
I623
ag9
aa(lp637
I624
ag18
aa(lp638
I625
ag44
aa(lp639
I626
ag54
aa(lp640
I627
ag11
aa(lp641
I628
ag21
aa(lp642
I629
ag30
aa(lp643
I630
ag54
aa(lp644
I631
ag30
aa(lp645
I632
ag54
aa(lp646
I633
ag51
aa(lp647
I634
ag9
aa(lp648
I635
ag18
aa(lp649
I636
ag21
aa(lp650
I637
ag23
aa(lp651
I638
ag69
aa(lp652
I639
ag44
aa(lp653
I640
ag54
aa(lp654
I641
ag9
aa(lp655
I642
ag44
aa(lp656
I643
ag23
aa(lp657
I644
ag51
aa(lp658
I645
ag21
aa(lp659
I646
ag54
aa(lp660
I647
ag30
aa(lp661
I648
ag18
aa(lp662
I649
ag9
aa(lp663
I650
ag58
aa(lp664
I651
ag21
aa(lp665
I652
ag11
aa(lp666
I653
ag15
aa(lp667
I654
ag23
aa(lp668
I655
ag30
aa(lp669
I656
ag21
aa(lp670
I657
ag62
aa(lp671
I658
ag9
aa(lp672
I660
ag9
aa(lp673
I661
ag18
aa(lp674
I662
ag21
aa(lp675
I663
ag227
aa(lp676
I664
ag21
aa(lp677
I665
ag69
aa(lp678
I666
ag62
aa(lp679
I667
ag15
aa(lp680
I668
ag9
aa(lp681
I669
ag44
aa(lp682
I670
ag46
aa(lp683
I671
ag9
aa(lp684
I672
ag62
aa(lp685
I673
ag30
aa(lp686
I674
ag189
aa(lp687
I675
ag30
aa(lp688
I676
ag54
aa(lp689
I677
ag51
aa(lp690
I679
ag9
aa(lp691
I680
ag76
aa(lp692
I681
ag15
aa(lp693
I682
ag189
aa(lp694
I683
ag15
aa(lp695
I684
ag62
aa(lp696
I685
ag44
aa(lp697
I686
ag227
aa(lp698
I687
ag30
aa(lp699
I688
ag54
aa(lp700
I689
ag51
aa(lp701
I691
ag9
aa(lp702
I692
ag44
aa(lp703
I693
ag23
aa(lp704
I694
ag9
aa(lp705
I695
ag51
aa(lp706
I696
ag15
aa(lp707
I697
ag23
aa(lp708
I698
ag58
aa(lp709
I699
ag30
aa(lp710
I700
ag54
aa(lp711
I701
ag21
aa(lp712
I702
ag11
aa(lp713
I703
ag30
aa(lp714
I704
ag54
aa(lp715
I705
ag51
aa(lp716
I706
ag9
aa(lp717
I707
ag117
aa(lp718
I708
ag54
aa(lp719
I709
ag76
aa(lp720
I710
ag15
aa(lp721
I711
ag23
aa(lp722
I712
ag9
aa(lp723
I713
ag46
aa(lp724
I714
ag21
aa(lp725
I715
ag189
aa(lp726
I716
ag44
aa(lp727
I717
ag23
aa(lp728
I718
ag21
aa(lp729
I719
ag69
aa(lp730
I720
ag62
aa(lp731
I721
ag15
aa(lp732
I722
ag9
aa(lp733
I723
ag18
aa(lp734
I724
ag44
aa(lp735
I725
ag54
aa(lp736
I726
ag76
aa(lp737
I727
ag30
aa(lp738
I728
ag11
aa(lp739
I729
ag30
aa(lp740
I730
ag44
aa(lp741
I731
ag54
aa(lp742
I732
ag32
aa(lp743
I734
ag9
aa(lp744
I737
ag9
aa(lp745
I738
ag189
aa(lp746
I739
ag30
aa(lp747
I740
ag21
aa(lp748
I741
ag69
aa(lp749
I742
ag62
aa(lp750
I743
ag15
aa(lp751
I744
ag9
aa(lp752
I745
ag58
aa(lp753
I746
ag21
aa(lp754
I747
ag11
aa(lp755
I748
ag15
aa(lp756
I749
ag23
aa(lp757
I750
ag30
aa(lp758
I751
ag21
aa(lp759
I752
ag62
aa(lp760
I753
ag9
aa(lp761
I754
ag32
aa(lp762
I755
ag15
aa(lp763
I756
ag15
aa(lp764
I758
ag9
aa(lp765
I759
ag189
aa(lp766
I760
ag30
aa(lp767
I761
ag21
aa(lp768
I762
ag69
aa(lp769
I763
ag30
aa(lp770
I764
ag62
aa(lp771
I765
ag30
aa(lp772
I766
ag11
aa(lp773
I767
ag123
aasS'text'
p774
S', the characteristic state of organisms life , being descended from the same ancestor consanguinity :materials and substances , or just biological tissue tissue , living or dead biological matter, often plants grown as fuel biomass , the total mass of living biological matter biomass (ecology) and bioapplicable materials biocompatible materials , a chemical compound that naturally occurs in living organisms biomolecule , a processed biotic material bio-based material , material and substances of which cells (and thus living organisms) are composed cellular component (or organic matter), derived from living things or containing carbon organic material , capable of living, developing, or germinating under favorable conditions. () viable material see: viability'
p775
sS'cleanWordMap'
p776
(lp777
sS'lines'
p778
(lp779
V, the characteristic state of organisms Life\u000a
p780
aV, being descended from the same ancestor Consanguinity\u000a
p781
aV:Materials and substances\u000a
p782
aV, or just Biological tissue tissue\u000a
p783
aV, living or dead biological matter, often plants grown as fuel Biomass\u000a
p784
aV, the total mass of living biological matter Biomass (ecology)\u000a
p785
aVand bioapplicable materials Biocompatible materials\u000a
p786
aV, a chemical compound that naturally occurs in living organisms Biomolecule\u000a
p787
aV, a processed biotic material Bio-based material\u000a
p788
aV, material and substances of which cells (and thus living organisms) are composed Cellular component\u000a
p789
aV(or organic matter), derived from living things or containing carbon Organic material\u000a
p790
aV, capable of living, developing, or germinating under favorable conditions. () Viable material see: viability
p791
asS'docType'
p792
S'src'
p793
sS'newfmap'
p794
(lp795
sS'featureMap'
p796
(lp797
sS'characterMap'
p798
(lp799
(lp800
I0
aS','
p801
aag8
ag10
ag12
ag14
ag16
ag17
ag19
ag20
ag22
ag24
ag25
ag26
ag27
ag28
ag29
ag31
ag33
ag34
ag35
ag36
ag37
ag38
ag39
ag40
ag41
ag42
ag43
ag45
ag47
ag48
ag49
ag50
ag52
ag53
ag55
ag56
ag57
ag59
ag60
ag61
ag63
ag64
ag65
ag66
a(lp802
I45
ag801
aag67
ag68
ag70
ag71
ag72
ag73
ag74
ag75
ag77
ag78
ag79
ag80
ag81
ag82
ag83
ag84
ag85
ag86
ag87
ag88
ag89
ag90
ag91
ag92
ag93
ag94
ag95
ag96
ag97
ag98
ag99
ag100
ag101
ag102
ag103
ag104
ag105
ag106
ag107
ag108
ag109
ag110
ag111
ag112
ag113
ag114
ag115
ag116
ag118
ag119
ag120
ag121
ag122
ag124
a(lp803
I100
aS':'
p804
aag125
ag126
ag127
ag128
ag129
ag130
ag131
ag132
ag133
ag134
ag135
ag136
ag137
ag138
ag139
ag140
ag141
ag142
ag143
ag144
ag145
ag146
ag147
ag148
ag149
a(lp805
I126
ag801
aag150
ag151
ag152
ag153
ag154
ag156
ag157
ag158
ag159
ag160
ag161
ag162
ag163
ag164
ag165
ag166
ag167
ag168
ag169
ag170
ag171
ag172
ag173
ag174
ag175
ag176
ag177
ag178
ag179
ag180
ag181
ag182
ag183
ag184
a(lp806
I161
ag801
aag185
ag186
ag187
ag188
ag190
ag191
ag192
ag193
ag194
ag195
ag196
ag197
ag198
ag199
ag200
ag201
ag202
ag203
ag204
ag205
ag206
ag207
ag208
ag209
ag210
ag211
ag212
ag213
ag214
ag215
ag216
ag217
ag218
a(lp807
I195
ag801
aag219
ag220
ag221
ag222
ag223
ag224
ag225
ag226
ag228
ag229
ag230
ag231
ag232
ag233
ag234
ag235
ag236
ag237
ag239
ag240
ag241
ag242
ag243
ag244
ag245
ag246
ag247
ag248
ag249
ag250
ag251
ag252
ag253
ag254
ag255
ag256
a(lp808
I232
ag801
aag257
ag258
ag259
ag260
ag261
ag262
ag263
ag264
ag265
ag266
ag267
ag268
ag269
ag270
ag271
ag272
ag273
ag274
ag275
ag276
ag277
ag278
ag279
ag280
ag281
ag282
ag283
ag284
ag285
ag286
ag287
ag288
ag289
ag290
ag291
ag292
ag293
ag294
ag295
ag296
ag297
ag298
ag299
ag300
ag301
ag302
ag303
ag304
ag305
ag306
ag307
ag308
a(lp809
I285
aS'('
p810
aag309
ag310
ag311
ag312
ag313
ag314
ag315
a(lp811
I293
aS')'
p812
aag316
ag317
ag318
ag319
ag320
ag321
ag322
ag323
ag324
ag325
ag326
ag327
ag328
ag329
ag330
ag331
ag332
ag333
ag334
ag335
ag336
ag337
ag338
ag339
ag340
ag341
ag342
ag343
ag344
ag345
ag346
ag347
ag348
ag349
ag350
ag351
ag352
ag353
ag354
ag355
ag356
ag357
ag358
ag359
ag360
ag361
ag362
ag363
ag364
ag365
ag366
ag367
ag368
a(lp813
I347
ag801
aag369
ag370
ag371
ag372
ag373
ag374
ag375
ag376
ag377
ag378
ag379
ag380
ag381
ag382
ag383
ag384
ag385
ag386
ag387
ag388
ag389
ag390
ag391
ag392
ag393
ag394
ag395
ag396
ag397
ag398
ag399
ag400
ag401
ag402
ag403
ag404
ag405
ag406
ag407
ag408
ag409
ag410
ag411
ag412
ag413
ag414
ag415
ag416
ag417
ag418
ag419
ag420
ag421
ag422
ag423
ag424
ag425
ag426
ag427
ag428
ag429
ag430
ag431
ag432
ag433
ag434
ag435
ag436
ag437
ag438
ag439
ag440
ag441
ag442
ag443
a(lp814
I423
ag801
aag444
ag445
ag446
ag447
ag448
ag449
ag450
ag451
ag452
ag453
ag454
ag455
ag456
ag457
ag458
ag459
ag460
ag461
ag462
ag463
ag464
ag465
ag466
ag467
ag468
ag469
ag470
ag471
ag472
ag473
ag474
ag475
a(lp815
I456
aS'-'
p816
aag476
ag477
ag478
ag479
ag480
ag481
ag482
ag483
ag484
ag485
ag486
ag487
ag488
ag489
ag490
a(lp817
I472
ag801
aag491
ag492
ag493
ag494
ag495
ag496
ag497
ag498
ag499
ag500
ag501
ag502
ag503
ag504
ag505
ag506
ag507
ag508
ag509
ag510
ag511
ag512
ag513
ag514
ag515
ag516
ag517
ag518
ag519
ag520
ag521
ag522
ag523
ag524
ag525
ag526
ag527
ag528
ag529
ag530
a(lp818
I513
ag810
aag531
ag532
ag533
ag534
ag535
ag536
ag537
ag538
ag539
ag540
ag541
ag542
ag543
ag544
ag545
ag546
ag547
ag548
ag549
ag550
ag551
ag552
ag553
ag554
ag555
a(lp819
I539
ag812
aag556
ag557
ag558
ag559
ag560
ag561
ag562
ag563
ag564
ag565
ag566
ag567
ag568
ag569
ag570
ag571
ag572
ag573
ag574
ag575
ag576
ag577
ag578
ag579
ag580
ag581
ag582
ag583
ag584
ag585
ag586
ag587
ag588
a(lp820
I573
ag810
aag589
ag590
ag591
ag592
ag593
ag594
ag595
ag596
ag597
ag598
ag599
ag600
ag601
ag602
ag603
ag604
ag605
a(lp821
I591
ag812
aa(lp822
I592
ag801
aag606
ag607
ag608
ag609
ag610
ag611
ag612
ag613
ag614
ag615
ag616
ag617
ag618
ag619
ag620
ag621
ag622
ag623
ag624
ag625
ag626
ag627
ag628
ag629
ag630
ag631
ag632
ag633
ag634
ag635
ag636
ag637
ag638
ag639
ag640
ag641
ag642
ag643
ag644
ag645
ag646
ag647
ag648
ag649
ag650
ag651
ag652
ag653
ag654
ag655
ag656
ag657
ag658
ag659
ag660
ag661
ag662
ag663
ag664
ag665
ag666
ag667
ag668
ag669
ag670
ag671
a(lp823
I659
ag801
aag672
ag673
ag674
ag675
ag676
ag677
ag678
ag679
ag680
ag681
ag682
ag683
ag684
ag685
ag686
ag687
ag688
ag689
a(lp824
I678
ag801
aag690
ag691
ag692
ag693
ag694
ag695
ag696
ag697
ag698
ag699
ag700
a(lp825
I690
ag801
aag701
ag702
ag703
ag704
ag705
ag706
ag707
ag708
ag709
ag710
ag711
ag712
ag713
ag714
ag715
ag716
ag717
ag718
ag719
ag720
ag721
ag722
ag723
ag724
ag725
ag726
ag727
ag728
ag729
ag730
ag731
ag732
ag733
ag734
ag735
ag736
ag737
ag738
ag739
ag740
ag741
ag742
a(lp826
I733
aS'.'
p827
aag743
a(lp828
I735
ag810
aa(lp829
I736
ag812
aag744
ag745
ag746
ag747
ag748
ag749
ag750
ag751
ag752
ag753
ag754
ag755
ag756
ag757
ag758
ag759
ag760
ag761
ag762
ag763
a(lp830
I757
ag804
aag764
ag765
ag766
ag767
ag768
ag769
ag770
ag771
ag772
ag773
asS'docName'
p831
S'source-document00084.txt'
p832
sb.