(iModel.Document
Document
p0
(dp1
S'fmap'
p2
(lp3
(lp4
I1
aI1
aS'\xa0'
p5
a(lp6
S'*'
p7
ag5
aaa(lp8
I1
aI1
ag5
a(lp9
g7
ag5
aaa(lp10
I1
aI1
ag5
a(lp11
g7
ag5
aaa(lp12
I1
aI1
ag5
a(lp13
g7
ag5
aaa(lp14
I4
aI4
ag5
a(lp15
g5
ag5
aaa(lp16
I4
aI4
ag5
a(lp17
g7
ag5
aaa(lp18
I4
aI4
ag5
a(lp19
g7
ag5
aaa(lp20
I4
aI4
ag5
a(lp21
g7
ag5
aaa(lp22
I12
aI17
aS'osiris'
p23
a(lp24
g5
ag23
aaa(lp25
I12
aI17
ag23
a(lp26
g5
ag23
aaa(lp27
I12
aI17
ag23
a(lp28
g7
ag23
aaa(lp29
I12
aI17
ag23
a(lp30
g7
ag23
aaa(lp31
I19
aI27
aS'onnophris'
p32
a(lp33
g23
ag32
aaa(lp34
I19
aI27
ag32
a(lp35
g5
ag32
aaa(lp36
I19
aI27
ag32
a(lp37
g5
ag32
aaa(lp38
I19
aI27
ag32
a(lp39
g7
ag32
aaa(lp40
I36
aI40
aS'found'
p41
a(lp42
g32
ag41
aaa(lp43
I36
aI40
ag41
a(lp44
g23
ag41
aaa(lp45
I36
aI40
ag41
a(lp46
g5
ag41
aaa(lp47
I36
aI40
ag41
a(lp48
g5
ag41
aaa(lp49
I42
aI48
aS'perfect'
p50
a(lp51
g41
ag50
aaa(lp52
I42
aI48
ag50
a(lp53
g32
ag50
aaa(lp54
I42
aI48
ag50
a(lp55
g23
ag50
aaa(lp56
I42
aI48
ag50
a(lp57
g5
ag50
aaa(lp58
I61
aI64
aS'gods'
p59
a(lp60
g50
ag59
aaa(lp61
I61
aI64
ag59
a(lp62
g41
ag59
aaa(lp63
I61
aI64
ag59
a(lp64
g32
ag59
aaa(lp65
I61
aI64
ag59
a(lp66
g23
ag59
aaa(lp67
I69
aI72
aS'hath'
p68
a(lp69
g59
ag68
aaa(lp70
I69
aI72
ag68
a(lp71
g50
ag68
aaa(lp72
I69
aI72
ag68
a(lp73
g41
ag68
aaa(lp74
I69
aI72
ag68
a(lp75
g32
ag68
aaa(lp76
I74
aI77
aS'said'
p77
a(lp78
g68
ag77
aaa(lp79
I74
aI77
ag77
a(lp80
g59
ag77
aaa(lp81
I74
aI77
ag77
a(lp82
g50
ag77
aaa(lp83
I74
aI77
ag77
a(lp84
g41
ag77
aaa(lp85
I94
aI101
aS'elements'
p86
a(lp87
g77
ag86
aaa(lp88
I94
aI101
ag86
a(lp89
g68
ag86
aaa(lp90
I94
aI101
ag86
a(lp91
g59
ag86
aaa(lp92
I94
aI101
ag86
a(lp93
g50
ag86
aaa(lp94
I109
aI112
aS'body'
p95
a(lp96
g86
ag95
aaa(lp97
I109
aI112
ag95
a(lp98
g77
ag95
aaa(lp99
I109
aI112
ag95
a(lp100
g68
ag95
aaa(lp101
I109
aI112
ag95
a(lp102
g59
ag95
aaa(lp103
I114
aI122
aS'perfected'
p104
a(lp105
g95
ag104
aaa(lp106
I114
aI122
ag104
a(lp107
g86
ag104
aaa(lp108
I114
aI122
ag104
a(lp109
g77
ag104
aaa(lp110
I114
aI122
ag104
a(lp111
g68
ag104
aaa(lp112
I132
aI140
aS'suffering'
p113
a(lp114
g104
ag113
aaa(lp115
I132
aI140
ag113
a(lp116
g95
ag113
aaa(lp117
I132
aI140
ag113
a(lp118
g86
ag113
aaa(lp119
I132
aI140
ag113
a(lp120
g77
ag113
aaa(lp121
I143
aI151
aS'glorified'
p122
a(lp123
g113
ag122
aaa(lp124
I143
aI151
ag122
a(lp125
g104
ag122
aaa(lp126
I143
aI151
ag122
a(lp127
g95
ag122
aaa(lp128
I143
aI151
ag122
a(lp129
g86
ag122
aaa(lp130
I161
aI165
aS'trial'
p131
a(lp132
g122
ag131
aaa(lp133
I161
aI165
ag131
a(lp134
g113
ag131
aaa(lp135
I161
aI165
ag131
a(lp136
g104
ag131
aaa(lp137
I161
aI165
ag131
a(lp138
g95
ag131
aaa(lp139
I172
aI176
aS'scent'
p140
a(lp141
g131
ag140
aaa(lp142
I172
aI176
ag140
a(lp143
g122
ag140
aaa(lp144
I172
aI176
ag140
a(lp145
g113
ag140
aaa(lp146
I172
aI176
ag140
a(lp147
g104
ag140
aaa(lp148
I185
aI189
aS'dying'
p149
a(lp150
g140
ag149
aaa(lp151
I185
aI189
ag149
a(lp152
g131
ag149
aaa(lp153
I185
aI189
ag149
a(lp154
g122
ag149
aaa(lp155
I185
aI189
ag149
a(lp156
g113
ag149
aaa(lp157
I191
aI194
aS'rose'
p158
a(lp159
g149
ag158
aaa(lp160
I191
aI194
ag158
a(lp161
g140
ag158
aaa(lp162
I191
aI194
ag158
a(lp163
g131
ag158
aaa(lp164
I191
aI194
ag158
a(lp165
g122
ag158
aaa(lp166
I206
aI214
aS'repressed'
p167
a(lp168
g158
ag167
aaa(lp169
I206
aI214
ag167
a(lp170
g149
ag167
aaa(lp171
I206
aI214
ag167
a(lp172
g140
ag167
aaa(lp173
I206
aI214
ag167
a(lp174
g131
ag167
aaa(lp175
I216
aI219
aS'sigh'
p176
a(lp177
g167
ag176
aaa(lp178
I216
aI219
ag176
a(lp179
g158
ag176
aaa(lp180
I216
aI219
ag176
a(lp181
g149
ag176
aaa(lp182
I216
aI219
ag176
a(lp183
g140
ag176
aaa(lp184
I227
aI235
aS'suffering'
p185
a(lp186
g176
ag185
aaa(lp187
I227
aI235
ag185
a(lp188
g167
ag185
aaa(lp189
I227
aI235
ag185
a(lp190
g158
ag185
aaa(lp191
I227
aI235
ag185
a(lp192
g149
ag185
aaa(lp193
I246
aI254
aS'flamered'
p194
a(lp195
g185
ag194
aaa(lp196
I246
aI254
ag194
a(lp197
g176
ag194
aaa(lp198
I246
aI254
ag194
a(lp199
g167
ag194
aaa(lp200
I246
aI254
ag194
a(lp201
g158
ag194
aaa(lp202
I256
aI259
aS'fire'
p203
a(lp204
g194
ag203
aaa(lp205
I256
aI259
ag203
a(lp206
g185
ag203
aaa(lp207
I256
aI259
ag203
a(lp208
g176
ag203
aaa(lp209
I256
aI259
ag203
a(lp210
g167
ag203
aaa(lp211
I268
aI273
aS'energy'
p212
a(lp213
g203
ag212
aaa(lp214
I268
aI273
ag212
a(lp215
g194
ag212
aaa(lp216
I268
aI273
ag212
a(lp217
g185
ag212
aaa(lp218
I268
aI273
ag212
a(lp219
g176
ag212
aaa(lp220
I278
aI281
aS'mine'
p221
a(lp222
g212
ag221
aaa(lp223
I278
aI281
ag221
a(lp224
g203
ag221
aaa(lp225
I278
aI281
ag221
a(lp226
g194
ag221
aaa(lp227
I278
aI281
ag221
a(lp228
g185
ag221
aaa(lp229
I283
aI291
aS'undaunted'
p230
a(lp231
g221
ag230
aaa(lp232
I283
aI291
ag230
a(lp233
g212
ag230
aaa(lp234
I283
aI291
ag230
a(lp235
g203
ag230
aaa(lp236
I283
aI291
ag230
a(lp237
g194
ag230
aaa(lp238
I307
aI309
aS'cup'
p239
a(lp240
g230
ag239
aaa(lp241
I307
aI309
ag239
a(lp242
g221
ag239
aaa(lp243
I307
aI309
ag239
a(lp244
g212
ag239
aaa(lp245
I307
aI309
ag239
a(lp246
g203
ag239
aaa(lp247
I314
aI317
aS'wine'
p248
a(lp249
g239
ag248
aaa(lp250
I314
aI317
ag248
a(lp251
g230
ag248
aaa(lp252
I314
aI317
ag248
a(lp253
g221
ag248
aaa(lp254
I314
aI317
ag248
a(lp255
g212
ag248
aaa(lp256
I326
aI332
aS'pouring'
p257
a(lp258
g248
ag257
aaa(lp259
I326
aI332
ag257
a(lp260
g239
ag257
aaa(lp261
I326
aI332
ag257
a(lp262
g230
ag257
aaa(lp263
I326
aI332
ag257
a(lp264
g221
ag257
aaa(lp265
I345
aI349
aS'blood'
p266
a(lp267
g257
ag266
aaa(lp268
I345
aI349
ag266
a(lp269
g248
ag266
aaa(lp270
I345
aI349
ag266
a(lp271
g239
ag266
aaa(lp272
I345
aI349
ag266
a(lp273
g230
ag266
aaa(lp274
I357
aI361
aS'heart'
p275
a(lp276
g266
ag275
aaa(lp277
I357
aI361
ag275
a(lp278
g257
ag275
aaa(lp279
I357
aI361
ag275
a(lp280
g248
ag275
aaa(lp281
I357
aI361
ag275
a(lp282
g239
ag275
aaa(lp283
I364
aI373
aS'sacrificed'
p284
a(lp285
g275
ag284
aaa(lp286
I364
aI373
ag284
a(lp287
g266
ag284
aaa(lp288
I364
aI373
ag284
a(lp289
g257
ag284
aaa(lp290
I364
aI373
ag284
a(lp291
g248
ag284
aaa(lp292
I375
aI378
aS'unto'
p293
a(lp294
g284
ag293
aaa(lp295
I375
aI378
ag293
a(lp296
g275
ag293
aaa(lp297
I375
aI378
ag293
a(lp298
g266
ag293
aaa(lp299
I375
aI378
ag293
a(lp300
g257
ag293
aaa(lp301
I380
aI391
aS'regeneration'
p302
a(lp303
g293
ag302
aaa(lp304
I380
aI391
ag302
a(lp305
g284
ag302
aaa(lp306
I380
aI391
ag302
a(lp307
g275
ag302
aaa(lp308
I380
aI391
ag302
a(lp309
g266
ag302
aaa(lp310
I394
aI397
aS'unto'
p311
a(lp312
g302
ag311
aaa(lp313
I394
aI397
ag311
a(lp314
g293
ag311
aaa(lp315
I394
aI397
ag311
a(lp316
g284
ag311
aaa(lp317
I394
aI397
ag311
a(lp318
g275
ag311
aaa(lp319
I403
aI407
aS'newer'
p320
a(lp321
g311
ag320
aaa(lp322
I403
aI407
ag320
a(lp323
g302
ag320
aaa(lp324
I403
aI407
ag320
a(lp325
g293
ag320
aaa(lp326
I403
aI407
ag320
a(lp327
g284
ag320
aaa(lp328
I409
aI412
aS'life'
p329
a(lp330
g320
ag329
aaa(lp331
I409
aI412
ag329
a(lp332
g311
ag329
aaa(lp333
I409
aI412
ag329
a(lp334
g302
ag329
aaa(lp335
I409
aI412
ag329
a(lp336
g293
ag329
aaa(lp337
I423
aI427
aS'bread'
p338
a(lp339
g329
ag338
aaa(lp340
I423
aI427
ag338
a(lp341
g320
ag338
aaa(lp342
I423
aI427
ag338
a(lp343
g311
ag338
aaa(lp344
I423
aI427
ag338
a(lp345
g302
ag338
aaa(lp346
I433
aI436
aS'salt'
p347
a(lp348
g338
ag347
aaa(lp349
I433
aI436
ag347
a(lp350
g329
ag347
aaa(lp351
I433
aI436
ag347
a(lp352
g320
ag347
aaa(lp353
I433
aI436
ag347
a(lp354
g311
ag347
aaa(lp355
I449
aI459
aS'foundations'
p356
a(lp357
g347
ag356
aaa(lp358
I449
aI459
ag356
a(lp359
g338
ag356
aaa(lp360
I449
aI459
ag356
a(lp361
g329
ag356
aaa(lp362
I449
aI459
ag356
a(lp363
g320
ag356
aaa(lp364
I467
aI470
aS'body'
p365
a(lp366
g356
ag365
aaa(lp367
I467
aI470
ag365
a(lp368
g347
ag365
aaa(lp369
I467
aI470
ag365
a(lp370
g338
ag365
aaa(lp371
I467
aI470
ag365
a(lp372
g329
ag365
aaa(lp373
I481
aI487
aS'destroy'
p374
a(lp375
g365
ag374
aaa(lp376
I481
aI487
ag374
a(lp377
g356
ag374
aaa(lp378
I481
aI487
ag374
a(lp379
g347
ag374
aaa(lp380
I481
aI487
ag374
a(lp381
g338
ag374
aaa(lp382
I492
aI496
aS'order'
p383
a(lp384
g374
ag383
aaa(lp385
I492
aI496
ag383
a(lp386
g365
ag383
aaa(lp387
I492
aI496
ag383
a(lp388
g356
ag383
aaa(lp389
I492
aI496
ag383
a(lp390
g347
ag383
aaa(lp391
I508
aI510
aS'may'
p392
a(lp393
g383
ag392
aaa(lp394
I508
aI510
ag392
a(lp395
g374
ag392
aaa(lp396
I508
aI510
ag392
a(lp397
g365
ag392
aaa(lp398
I508
aI510
ag392
a(lp399
g356
ag392
aaa(lp400
I515
aI521
aS'renewed'
p401
a(lp402
g392
ag401
aaa(lp403
I515
aI521
ag401
a(lp404
g383
ag401
aaa(lp405
I515
aI521
ag401
a(lp406
g374
ag401
aaa(lp407
I515
aI521
ag401
a(lp408
g365
ag401
aaa(lp409
I533
aI538
aS'osiris'
p410
a(lp411
g401
ag410
aaa(lp412
I533
aI538
ag410
a(lp413
g392
ag410
aaa(lp414
I533
aI538
ag410
a(lp415
g383
ag410
aaa(lp416
I533
aI538
ag410
a(lp417
g374
ag410
aaa(lp418
I540
aI549
aS'triumphant'
p419
a(lp420
g410
ag419
aaa(lp421
I540
aI549
ag419
a(lp422
g401
ag419
aaa(lp423
I540
aI549
ag419
a(lp424
g392
ag419
aaa(lp425
I540
aI549
ag419
a(lp426
g383
ag419
aaa(lp427
I552
aI555
aS'even'
p428
a(lp429
g419
ag428
aaa(lp430
I552
aI555
ag428
a(lp431
g410
ag428
aaa(lp432
I552
aI555
ag428
a(lp433
g401
ag428
aaa(lp434
I552
aI555
ag428
a(lp435
g392
ag428
aaa(lp436
I557
aI562
aS'osiris'
p437
a(lp438
g428
ag437
aaa(lp439
I557
aI562
ag437
a(lp440
g419
ag437
aaa(lp441
I557
aI562
ag437
a(lp442
g410
ag437
aaa(lp443
I557
aI562
ag437
a(lp444
g401
ag437
aaa(lp445
I564
aI572
aS'onnophris'
p446
a(lp447
g437
ag446
aaa(lp448
I564
aI572
ag446
a(lp449
g428
ag446
aaa(lp450
I564
aI572
ag446
a(lp451
g419
ag446
aaa(lp452
I564
aI572
ag446
a(lp453
g410
ag446
aaa(lp454
I578
aI586
aS'justified'
p455
a(lp456
g446
ag455
aaa(lp457
I578
aI586
ag455
a(lp458
g437
ag455
aaa(lp459
I578
aI586
ag455
a(lp460
g428
ag455
aaa(lp461
I578
aI586
ag455
a(lp462
g419
ag455
aaa(lp463
I588
aI590
aS'one'
p464
a(lp465
g455
ag464
aaa(lp466
I588
aI590
ag464
a(lp467
g446
ag464
aaa(lp468
I588
aI590
ag464
a(lp469
g437
ag464
aaa(lp470
I588
aI590
ag464
a(lp471
g428
ag464
aaa(lp472
I608
aI614
aS'clothed'
p473
a(lp474
g464
ag473
aaa(lp475
I608
aI614
ag473
a(lp476
g455
ag473
aaa(lp477
I608
aI614
ag473
a(lp478
g446
ag473
aaa(lp479
I608
aI614
ag473
a(lp480
g437
ag473
aaa(lp481
I625
aI628
aS'body'
p482
a(lp483
g473
ag482
aaa(lp484
I625
aI628
ag482
a(lp485
g464
ag482
aaa(lp486
I625
aI628
ag482
a(lp487
g455
ag482
aaa(lp488
I625
aI628
ag482
a(lp489
g446
ag482
aaa(lp490
I633
aI637
aS'flesh'
p491
a(lp492
g482
ag491
aaa(lp493
I633
aI637
ag491
a(lp494
g473
ag491
aaa(lp495
I633
aI637
ag491
a(lp496
g464
ag491
aaa(lp497
I633
aI637
ag491
a(lp498
g455
ag491
aaa(lp499
I639
aI641
aS'yet'
p500
a(lp501
g491
ag500
aaa(lp502
I639
aI641
ag500
a(lp503
g482
ag500
aaa(lp504
I639
aI641
ag500
a(lp505
g473
ag500
aaa(lp506
I639
aI641
ag500
a(lp507
g464
ag500
aaa(lp508
I651
aI656
aS'flames'
p509
a(lp510
g500
ag509
aaa(lp511
I651
aI656
ag509
a(lp512
g491
ag509
aaa(lp513
I651
aI656
ag509
a(lp514
g482
ag509
aaa(lp515
I651
aI656
ag509
a(lp516
g473
ag509
aaa(lp517
I662
aI667
aS'spirit'
p518
a(lp519
g509
ag518
aaa(lp520
I662
aI667
ag518
a(lp521
g500
ag518
aaa(lp522
I662
aI667
ag518
a(lp523
g491
ag518
aaa(lp524
I662
aI667
ag518
a(lp525
g482
ag518
aaa(lp526
I676
aI682
aS'eternal'
p527
a(lp528
g518
ag527
aaa(lp529
I676
aI682
ag527
a(lp530
g509
ag527
aaa(lp531
I676
aI682
ag527
a(lp532
g500
ag527
aaa(lp533
I676
aI682
ag527
a(lp534
g491
ag527
aaa(lp535
I684
aI687
aS'gods'
p536
a(lp537
g527
ag536
aaa(lp538
I684
aI687
ag536
a(lp539
g518
ag536
aaa(lp540
I684
aI687
ag536
a(lp541
g509
ag536
aaa(lp542
I684
aI687
ag536
a(lp543
g500
ag536
aaa(lp544
I699
aI702
aS'lord'
p545
a(lp546
g536
ag545
aaa(lp547
I699
aI702
ag545
a(lp548
g527
ag545
aaa(lp549
I699
aI702
ag545
a(lp550
g518
ag545
aaa(lp551
I699
aI702
ag545
a(lp552
g509
ag545
aaa(lp553
I707
aI710
aS'life'
p554
a(lp555
g545
ag554
aaa(lp556
I707
aI710
ag554
a(lp557
g536
ag554
aaa(lp558
I707
aI710
ag554
a(lp559
g527
ag554
aaa(lp560
I707
aI710
ag554
a(lp561
g518
ag554
aaa(lp562
I718
aI727
aS'triumphant'
p563
a(lp564
g554
ag563
aaa(lp565
I718
aI727
ag563
a(lp566
g545
ag563
aaa(lp567
I718
aI727
ag563
a(lp568
g536
ag563
aaa(lp569
I718
aI727
ag563
a(lp570
g527
ag563
aaa(lp571
I734
aI738
aS'death'
p572
a(lp573
g563
ag572
aaa(lp574
I734
aI738
ag572
a(lp575
g554
ag572
aaa(lp576
I734
aI738
ag572
a(lp577
g545
ag572
aaa(lp578
I734
aI738
ag572
a(lp579
g536
ag572
aaa(lp580
I745
aI753
aS'whosoever'
p581
a(lp582
g572
ag581
aaa(lp583
I745
aI753
ag581
a(lp584
g563
ag581
aaa(lp585
I745
aI753
ag581
a(lp586
g554
ag581
aaa(lp587
I745
aI753
ag581
a(lp588
g545
ag581
aaa(lp589
I755
aI763
aS'partaketh'
p590
a(lp591
g581
ag590
aaa(lp592
I755
aI763
ag590
a(lp593
g572
ag590
aaa(lp594
I755
aI763
ag590
a(lp595
g563
ag590
aaa(lp596
I755
aI763
ag590
a(lp597
g554
ag590
aaa(lp598
I773
aI777
aS'shall'
p599
a(lp600
g590
ag599
aaa(lp601
I773
aI777
ag599
a(lp602
g581
ag599
aaa(lp603
I773
aI777
ag599
a(lp604
g572
ag599
aaa(lp605
I773
aI777
ag599
a(lp606
g563
ag599
aaa(lp607
I787
aI791
aS'arise'
p608
a(lp609
g599
ag608
aaa(lp610
I787
aI791
ag608
a(lp611
g590
ag608
aaa(lp612
I787
aI791
ag608
a(lp613
g581
ag608
aaa(lp614
I787
aI791
ag608
a(lp615
g572
ag608
aaa(lp616
I803
aI812
aS'manifester'
p617
a(lp618
g608
ag617
aaa(lp619
I803
aI812
ag617
a(lp620
g599
ag617
aaa(lp621
I803
aI812
ag617
a(lp622
g590
ag617
aaa(lp623
I803
aI812
ag617
a(lp624
g581
ag617
aaa(lp625
I817
aI822
aS'matter'
p626
a(lp627
g617
ag626
aaa(lp628
I817
aI822
ag626
a(lp629
g608
ag626
aaa(lp630
I817
aI822
ag626
a(lp631
g599
ag626
aaa(lp632
I817
aI822
ag626
a(lp633
g590
ag626
aaa(lp634
I833
aI837
aS'whose'
p635
a(lp636
g626
ag635
aaa(lp637
I833
aI837
ag635
a(lp638
g617
ag635
aaa(lp639
I833
aI837
ag635
a(lp640
g608
ag635
aaa(lp641
I833
aI837
ag635
a(lp642
g599
ag635
aaa(lp643
I839
aI843
aS'abode'
p644
a(lp645
g635
ag644
aaa(lp646
I839
aI843
ag644
a(lp647
g626
ag644
aaa(lp648
I839
aI843
ag644
a(lp649
g617
ag644
aaa(lp650
I839
aI843
ag644
a(lp651
g608
ag644
aaa(lp652
I852
aI860
aS'invisible'
p653
a(lp654
g644
ag653
aaa(lp655
I852
aI860
ag653
a(lp656
g635
ag653
aaa(lp657
I852
aI860
ag653
a(lp658
g626
ag653
aaa(lp659
I852
aI860
ag653
a(lp660
g617
ag653
aaa(lp661
I872
aI879
aS'purified'
p662
a(lp663
g653
ag662
aaa(lp664
I872
aI879
ag662
a(lp665
g644
ag662
aaa(lp666
I872
aI879
ag662
a(lp667
g635
ag662
aaa(lp668
I872
aI879
ag662
a(lp669
g626
ag662
aaa(lp670
I884
aI888
aS'stand'
p671
a(lp672
g662
ag671
aaa(lp673
I884
aI888
ag671
a(lp674
g653
ag671
aaa(lp675
I884
aI888
ag671
a(lp676
g644
ag671
aaa(lp677
I884
aI888
ag671
a(lp678
g635
ag671
aaa(lp679
I890
aI893
aS'upon'
p680
a(lp681
g671
ag680
aaa(lp682
I890
aI893
ag680
a(lp683
g662
ag680
aaa(lp684
I890
aI893
ag680
a(lp685
g653
ag680
aaa(lp686
I890
aI893
ag680
a(lp687
g644
ag680
aaa(lp688
I899
aI906
aS'universe'
p689
a(lp690
g680
ag689
aaa(lp691
I899
aI906
ag689
a(lp692
g671
ag689
aaa(lp693
I899
aI906
ag689
a(lp694
g662
ag689
aaa(lp695
I899
aI906
ag689
a(lp696
g653
ag689
aaa(lp697
I919
aI928
aS'reconciler'
p698
a(lp699
g689
ag698
aaa(lp700
I919
aI928
ag698
a(lp701
g680
ag698
aaa(lp702
I919
aI928
ag698
a(lp703
g671
ag698
aaa(lp704
I919
aI928
ag698
a(lp705
g662
ag698
aaa(lp706
I939
aI945
aS'eternal'
p707
a(lp708
g698
ag707
aaa(lp709
I939
aI945
ag707
a(lp710
g689
ag707
aaa(lp711
I939
aI945
ag707
a(lp712
g680
ag707
aaa(lp713
I939
aI945
ag707
a(lp714
g671
ag707
aaa(lp715
I947
aI950
aS'gods'
p716
a(lp717
g707
ag716
aaa(lp718
I947
aI950
ag716
a(lp719
g698
ag716
aaa(lp720
I947
aI950
ag716
a(lp721
g689
ag716
aaa(lp722
I947
aI950
ag716
a(lp723
g680
ag716
aaa(lp724
I962
aI970
aS'perfector'
p725
a(lp726
g716
ag725
aaa(lp727
I962
aI970
ag725
a(lp728
g707
ag725
aaa(lp729
I962
aI970
ag725
a(lp730
g698
ag725
aaa(lp731
I962
aI970
ag725
a(lp732
g689
ag725
aaa(lp733
I975
aI980
aS'matter'
p734
a(lp735
g725
ag734
aaa(lp736
I975
aI980
ag734
a(lp737
g716
ag734
aaa(lp738
I975
aI980
ag734
a(lp739
g707
ag734
aaa(lp740
I975
aI980
ag734
a(lp741
g698
ag734
aaa(lp742
I987
aI993
aS'without'
p743
a(lp744
g734
ag743
aaa(lp745
I987
aI993
ag743
a(lp746
g725
ag743
aaa(lp747
I987
aI993
ag743
a(lp748
g716
ag743
aaa(lp749
I987
aI993
ag743
a(lp750
g707
ag743
aaa(lp751
I1002
aI1009
aS'universe'
p752
a(lp753
g743
ag752
aaa(lp754
I1002
aI1009
ag752
a(lp755
g734
ag752
aaa(lp756
I1002
aI1009
ag752
a(lp757
g725
ag752
aaa(lp758
I1002
aI1009
ag752
a(lp759
g716
ag752
aaa(lp760
I1041
aI1041
aS'\xa9'
p761
a(lp762
g752
ag761
aaa(lp763
I1041
aI1041
ag761
a(lp764
g743
ag761
aaa(lp765
I1041
aI1041
ag761
a(lp766
g734
ag761
aaa(lp767
I1041
aI1041
ag761
a(lp768
g725
ag761
aaa(lp769
I1043
aI1050
aS'esoteric'
p770
a(lp771
g761
ag770
aaa(lp772
I1043
aI1050
ag770
a(lp773
g752
ag770
aaa(lp774
I1043
aI1050
ag770
a(lp775
g743
ag770
aaa(lp776
I1043
aI1050
ag770
a(lp777
g734
ag770
aaa(lp778
I1052
aI1056
aS'order'
p779
a(lp780
g770
ag779
aaa(lp781
I1052
aI1056
ag779
a(lp782
g761
ag779
aaa(lp783
I1052
aI1056
ag779
a(lp784
g752
ag779
aaa(lp785
I1052
aI1056
ag779
a(lp786
g743
ag779
aaa(lp787
I1065
aI1070
aS'golden'
p788
a(lp789
g779
ag788
aaa(lp790
I1065
aI1070
ag788
a(lp791
g770
ag788
aaa(lp792
I1065
aI1070
ag788
a(lp793
g761
ag788
aaa(lp794
I1065
aI1070
ag788
a(lp795
g752
ag788
aaa(lp796
I1072
aI1075
aS'dawn'
p797
a(lp798
g788
ag797
aaa(lp799
I1072
aI1075
ag797
a(lp800
g779
ag797
aaa(lp801
I1072
aI1075
ag797
a(lp802
g770
ag797
aaa(lp803
I1072
aI1075
ag797
a(lp804
g761
ag797
aaa(lp805
I1077
aI1080
aS'2007'
p806
a(lp807
g797
ag806
aaa(lp808
I1077
aI1080
ag806
a(lp809
g788
ag806
aaa(lp810
I1077
aI1080
ag806
a(lp811
g779
ag806
aaa(lp812
I1077
aI1080
ag806
a(lp813
g770
ag806
aaa(lp814
I1087
aI1092
aS'rights'
p815
a(lp816
g806
ag815
aaa(lp817
I1087
aI1092
ag815
a(lp818
g797
ag815
aaa(lp819
I1087
aI1092
ag815
a(lp820
g788
ag815
aaa(lp821
I1087
aI1092
ag815
a(lp822
g779
ag815
aaa(lp823
I1094
aI1101
aS'reserved'
p824
a(lp825
g815
ag824
aaa(lp826
I1094
aI1101
ag824
a(lp827
g806
ag824
aaa(lp828
I1094
aI1101
ag824
a(lp829
g797
ag824
aaa(lp830
I1094
aI1101
ag824
a(lp831
g788
ag824
aaasS'wordMap'
p832
(lp833
(lp834
I1
aI1
ag5
a(lp835
(lp836
I1
ag5
aaaa(lp837
I4
aI4
ag5
a(lp838
(lp839
I4
ag5
aaaa(lp840
I7
aI7
aS'i'
p841
a(lp842
(lp843
I7
ag841
aaaa(lp844
I9
aI10
aS'am'
p845
a(lp846
(lp847
I9
aS'a'
p848
aa(lp849
I10
aS'm'
p850
aaaa(lp851
I12
aI17
ag23
a(lp852
(lp853
I12
aS'o'
p854
aa(lp855
I13
aS's'
p856
aa(lp857
I14
ag841
aa(lp858
I15
aS'r'
p859
aa(lp860
I16
ag841
aa(lp861
I17
ag856
aaaa(lp862
I19
aI27
ag32
a(lp863
(lp864
I19
ag854
aa(lp865
I20
aS'n'
p866
aa(lp867
I21
ag866
aa(lp868
I22
ag854
aa(lp869
I23
aS'p'
p870
aa(lp871
I24
aS'h'
p872
aa(lp873
I25
ag859
aa(lp874
I26
ag841
aa(lp875
I27
ag856
aaaa(lp876
I29
aI31
aS'who'
p877
a(lp878
(lp879
I29
aS'w'
p880
aa(lp881
I30
ag872
aa(lp882
I31
ag854
aaaa(lp883
I33
aI34
aS'is'
p884
a(lp885
(lp886
I33
ag841
aa(lp887
I34
ag856
aaaa(lp888
I36
aI40
ag41
a(lp889
(lp890
I36
aS'f'
p891
aa(lp892
I37
ag854
aa(lp893
I38
aS'u'
p894
aa(lp895
I39
ag866
aa(lp896
I40
aS'd'
p897
aaaa(lp898
I42
aI48
ag50
a(lp899
(lp900
I42
ag870
aa(lp901
I43
aS'e'
p902
aa(lp903
I44
ag859
aa(lp904
I45
ag891
aa(lp905
I46
ag902
aa(lp906
I47
aS'c'
p907
aa(lp908
I48
aS't'
p909
aaaa(lp910
I50
aI55
aS'before'
p911
a(lp912
(lp913
I50
aS'b'
p914
aa(lp915
I51
ag902
aa(lp916
I52
ag891
aa(lp917
I53
ag854
aa(lp918
I54
ag859
aa(lp919
I55
ag902
aaaa(lp920
I57
aI59
aS'the'
p921
a(lp922
(lp923
I57
ag909
aa(lp924
I58
ag872
aa(lp925
I59
ag902
aaaa(lp926
I61
aI64
ag59
a(lp927
(lp928
I61
aS'g'
p929
aa(lp930
I62
ag854
aa(lp931
I63
ag897
aa(lp932
I64
ag856
aaaa(lp933
I67
aI67
ag841
a(lp934
(lp935
I67
ag841
aaaa(lp936
I69
aI72
ag68
a(lp937
(lp938
I69
ag872
aa(lp939
I70
ag848
aa(lp940
I71
ag909
aa(lp941
I72
ag872
aaaa(lp942
I74
aI77
ag77
a(lp943
(lp944
I74
ag856
aa(lp945
I75
ag848
aa(lp946
I76
ag841
aa(lp947
I77
ag897
aaaa(lp948
I80
aI84
aS'these'
p949
a(lp950
(lp951
I80
ag909
aa(lp952
I81
ag872
aa(lp953
I82
ag902
aa(lp954
I83
ag856
aa(lp955
I84
ag902
aaaa(lp956
I86
aI88
aS'are'
p957
a(lp958
(lp959
I86
ag848
aa(lp960
I87
ag859
aa(lp961
I88
ag902
aaaa(lp962
I90
aI92
aS'the'
p963
a(lp964
(lp965
I90
ag909
aa(lp966
I91
ag872
aa(lp967
I92
ag902
aaaa(lp968
I94
aI101
ag86
a(lp969
(lp970
I94
ag902
aa(lp971
I95
aS'l'
p972
aa(lp973
I96
ag902
aa(lp974
I97
ag850
aa(lp975
I98
ag902
aa(lp976
I99
ag866
aa(lp977
I100
ag909
aa(lp978
I101
ag856
aaaa(lp979
I103
aI104
aS'of'
p980
a(lp981
(lp982
I103
ag854
aa(lp983
I104
ag891
aaaa(lp984
I106
aI107
aS'my'
p985
a(lp986
(lp987
I106
ag850
aa(lp988
I107
aS'y'
p989
aaaa(lp990
I109
aI112
ag95
a(lp991
(lp992
I109
ag914
aa(lp993
I110
ag854
aa(lp994
I111
ag897
aa(lp995
I112
ag989
aaaa(lp996
I114
aI122
ag104
a(lp997
(lp998
I114
ag870
aa(lp999
I115
ag902
aa(lp1000
I116
ag859
aa(lp1001
I117
ag891
aa(lp1002
I118
ag902
aa(lp1003
I119
ag907
aa(lp1004
I120
ag909
aa(lp1005
I121
ag902
aa(lp1006
I122
ag897
aaaa(lp1007
I124
aI130
aS'through'
p1008
a(lp1009
(lp1010
I124
ag909
aa(lp1011
I125
ag872
aa(lp1012
I126
ag859
aa(lp1013
I127
ag854
aa(lp1014
I128
ag894
aa(lp1015
I129
ag929
aa(lp1016
I130
ag872
aaaa(lp1017
I132
aI140
ag113
a(lp1018
(lp1019
I132
ag856
aa(lp1020
I133
ag894
aa(lp1021
I134
ag891
aa(lp1022
I135
ag891
aa(lp1023
I136
ag902
aa(lp1024
I137
ag859
aa(lp1025
I138
ag841
aa(lp1026
I139
ag866
aa(lp1027
I140
ag929
aaaa(lp1028
I143
aI151
ag122
a(lp1029
(lp1030
I143
ag929
aa(lp1031
I144
ag972
aa(lp1032
I145
ag854
aa(lp1033
I146
ag859
aa(lp1034
I147
ag841
aa(lp1035
I148
ag891
aa(lp1036
I149
ag841
aa(lp1037
I150
ag902
aa(lp1038
I151
ag897
aaaa(lp1039
I153
aI159
aS'through'
p1040
a(lp1041
(lp1042
I153
ag909
aa(lp1043
I154
ag872
aa(lp1044
I155
ag859
aa(lp1045
I156
ag854
aa(lp1046
I157
ag894
aa(lp1047
I158
ag929
aa(lp1048
I159
ag872
aaaa(lp1049
I161
aI165
ag131
a(lp1050
(lp1051
I161
ag909
aa(lp1052
I162
ag859
aa(lp1053
I163
ag841
aa(lp1054
I164
ag848
aa(lp1055
I165
ag972
aaaa(lp1056
I168
aI170
aS'the'
p1057
a(lp1058
(lp1059
I168
ag909
aa(lp1060
I169
ag872
aa(lp1061
I170
ag902
aaaa(lp1062
I172
aI176
ag140
a(lp1063
(lp1064
I172
ag856
aa(lp1065
I173
ag907
aa(lp1066
I174
ag902
aa(lp1067
I175
ag866
aa(lp1068
I176
ag909
aaaa(lp1069
I178
aI179
aS'of'
p1070
a(lp1071
(lp1072
I178
ag854
aa(lp1073
I179
ag891
aaaa(lp1074
I181
aI183
aS'the'
p1075
a(lp1076
(lp1077
I181
ag909
aa(lp1078
I182
ag872
aa(lp1079
I183
ag902
aaaa(lp1080
I185
aI189
ag149
a(lp1081
(lp1082
I185
ag897
aa(lp1083
I186
ag989
aa(lp1084
I187
ag841
aa(lp1085
I188
ag866
aa(lp1086
I189
ag929
aaaa(lp1087
I191
aI194
ag158
a(lp1088
(lp1089
I191
ag859
aa(lp1090
I192
ag854
aa(lp1091
I193
ag856
aa(lp1092
I194
ag902
aaaa(lp1093
I196
aI197
aS'is'
p1094
a(lp1095
(lp1096
I196
ag841
aa(lp1097
I197
ag856
aaaa(lp1098
I199
aI200
aS'as'
p1099
a(lp1100
(lp1101
I199
ag848
aa(lp1102
I200
ag856
aaaa(lp1103
I202
aI204
aS'the'
p1104
a(lp1105
(lp1106
I202
ag909
aa(lp1107
I203
ag872
aa(lp1108
I204
ag902
aaaa(lp1109
I206
aI214
ag167
a(lp1110
(lp1111
I206
ag859
aa(lp1112
I207
ag902
aa(lp1113
I208
ag870
aa(lp1114
I209
ag859
aa(lp1115
I210
ag902
aa(lp1116
I211
ag856
aa(lp1117
I212
ag856
aa(lp1118
I213
ag902
aa(lp1119
I214
ag897
aaaa(lp1120
I216
aI219
ag176
a(lp1121
(lp1122
I216
ag856
aa(lp1123
I217
ag841
aa(lp1124
I218
ag929
aa(lp1125
I219
ag872
aaaa(lp1126
I221
aI222
aS'of'
p1127
a(lp1128
(lp1129
I221
ag854
aa(lp1130
I222
ag891
aaaa(lp1131
I224
aI225
aS'my'
p1132
a(lp1133
(lp1134
I224
ag850
aa(lp1135
I225
ag989
aaaa(lp1136
I227
aI235
ag185
a(lp1137
(lp1138
I227
ag856
aa(lp1139
I228
ag894
aa(lp1140
I229
ag891
aa(lp1141
I230
ag891
aa(lp1142
I231
ag902
aa(lp1143
I232
ag859
aa(lp1144
I233
ag841
aa(lp1145
I234
ag866
aa(lp1146
I235
ag929
aaaa(lp1147
I238
aI240
aS'and'
p1148
a(lp1149
(lp1150
I238
ag848
aa(lp1151
I239
ag866
aa(lp1152
I240
ag897
aaaa(lp1153
I242
aI244
aS'the'
p1154
a(lp1155
(lp1156
I242
ag909
aa(lp1157
I243
ag872
aa(lp1158
I244
ag902
aaaa(lp1159
I246
aI254
ag194
a(lp1160
(lp1161
I246
ag891
aa(lp1162
I247
ag972
aa(lp1163
I248
ag848
aa(lp1164
I249
ag850
aa(lp1165
I250
ag902
aa(lp1166
I252
ag859
aa(lp1167
I253
ag902
aa(lp1168
I254
ag897
aaaa(lp1169
I256
aI259
ag203
a(lp1170
(lp1171
I256
ag891
aa(lp1172
I257
ag841
aa(lp1173
I258
ag859
aa(lp1174
I259
ag902
aaaa(lp1175
I261
aI262
aS'as'
p1176
a(lp1177
(lp1178
I261
ag848
aa(lp1179
I262
ag856
aaaa(lp1180
I264
aI266
aS'the'
p1181
a(lp1182
(lp1183
I264
ag909
aa(lp1184
I265
ag872
aa(lp1185
I266
ag902
aaaa(lp1186
I268
aI273
ag212
a(lp1187
(lp1188
I268
ag902
aa(lp1189
I269
ag866
aa(lp1190
I270
ag902
aa(lp1191
I271
ag859
aa(lp1192
I272
ag929
aa(lp1193
I273
ag989
aaaa(lp1194
I275
aI276
aS'of'
p1195
a(lp1196
(lp1197
I275
ag854
aa(lp1198
I276
ag891
aaaa(lp1199
I278
aI281
ag221
a(lp1200
(lp1201
I278
ag850
aa(lp1202
I279
ag841
aa(lp1203
I280
ag866
aa(lp1204
I281
ag902
aaaa(lp1205
I283
aI291
ag230
a(lp1206
(lp1207
I283
ag894
aa(lp1208
I284
ag866
aa(lp1209
I285
ag897
aa(lp1210
I286
ag848
aa(lp1211
I287
ag894
aa(lp1212
I288
ag866
aa(lp1213
I289
ag909
aa(lp1214
I290
ag902
aa(lp1215
I291
ag897
aaaa(lp1216
I293
aI296
aS'will'
p1217
a(lp1218
(lp1219
I293
ag880
aa(lp1220
I294
ag841
aa(lp1221
I295
ag972
aa(lp1222
I296
ag972
aaaa(lp1223
I299
aI301
aS'and'
p1224
a(lp1225
(lp1226
I299
ag848
aa(lp1227
I300
ag866
aa(lp1228
I301
ag897
aaaa(lp1229
I303
aI305
aS'the'
p1230
a(lp1231
(lp1232
I303
ag909
aa(lp1233
I304
ag872
aa(lp1234
I305
ag902
aaaa(lp1235
I307
aI309
ag239
a(lp1236
(lp1237
I307
ag907
aa(lp1238
I308
ag894
aa(lp1239
I309
ag870
aaaa(lp1240
I311
aI312
aS'of'
p1241
a(lp1242
(lp1243
I311
ag854
aa(lp1244
I312
ag891
aaaa(lp1245
I314
aI317
ag248
a(lp1246
(lp1247
I314
ag880
aa(lp1248
I315
ag841
aa(lp1249
I316
ag866
aa(lp1250
I317
ag902
aaaa(lp1251
I319
aI320
aS'is'
p1252
a(lp1253
(lp1254
I319
ag841
aa(lp1255
I320
ag856
aaaa(lp1256
I322
aI324
aS'the'
p1257
a(lp1258
(lp1259
I322
ag909
aa(lp1260
I323
ag872
aa(lp1261
I324
ag902
aaaa(lp1262
I326
aI332
ag257
a(lp1263
(lp1264
I326
ag870
aa(lp1265
I327
ag854
aa(lp1266
I328
ag894
aa(lp1267
I329
ag859
aa(lp1268
I330
ag841
aa(lp1269
I331
ag866
aa(lp1270
I332
ag929
aaaa(lp1271
I334
aI336
aS'out'
p1272
a(lp1273
(lp1274
I334
ag854
aa(lp1275
I335
ag894
aa(lp1276
I336
ag909
aaaa(lp1277
I338
aI339
aS'of'
p1278
a(lp1279
(lp1280
I338
ag854
aa(lp1281
I339
ag891
aaaa(lp1282
I341
aI343
aS'the'
p1283
a(lp1284
(lp1285
I341
ag909
aa(lp1286
I342
ag872
aa(lp1287
I343
ag902
aaaa(lp1288
I345
aI349
ag266
a(lp1289
(lp1290
I345
ag914
aa(lp1291
I346
ag972
aa(lp1292
I347
ag854
aa(lp1293
I348
ag854
aa(lp1294
I349
ag897
aaaa(lp1295
I351
aI352
aS'of'
p1296
a(lp1297
(lp1298
I351
ag854
aa(lp1299
I352
ag891
aaaa(lp1300
I354
aI355
aS'my'
p1301
a(lp1302
(lp1303
I354
ag850
aa(lp1304
I355
ag989
aaaa(lp1305
I357
aI361
ag275
a(lp1306
(lp1307
I357
ag872
aa(lp1308
I358
ag902
aa(lp1309
I359
ag848
aa(lp1310
I360
ag859
aa(lp1311
I361
ag909
aaaa(lp1312
I364
aI373
ag284
a(lp1313
(lp1314
I364
ag856
aa(lp1315
I365
ag848
aa(lp1316
I366
ag907
aa(lp1317
I367
ag859
aa(lp1318
I368
ag841
aa(lp1319
I369
ag891
aa(lp1320
I370
ag841
aa(lp1321
I371
ag907
aa(lp1322
I372
ag902
aa(lp1323
I373
ag897
aaaa(lp1324
I375
aI378
ag293
a(lp1325
(lp1326
I375
ag894
aa(lp1327
I376
ag866
aa(lp1328
I377
ag909
aa(lp1329
I378
ag854
aaaa(lp1330
I380
aI391
ag302
a(lp1331
(lp1332
I380
ag859
aa(lp1333
I381
ag902
aa(lp1334
I382
ag929
aa(lp1335
I383
ag902
aa(lp1336
I384
ag866
aa(lp1337
I385
ag902
aa(lp1338
I386
ag859
aa(lp1339
I387
ag848
aa(lp1340
I388
ag909
aa(lp1341
I389
ag841
aa(lp1342
I390
ag854
aa(lp1343
I391
ag866
aaaa(lp1344
I394
aI397
ag311
a(lp1345
(lp1346
I394
ag894
aa(lp1347
I395
ag866
aa(lp1348
I396
ag909
aa(lp1349
I397
ag854
aaaa(lp1350
I399
aI401
aS'the'
p1351
a(lp1352
(lp1353
I399
ag909
aa(lp1354
I400
ag872
aa(lp1355
I401
ag902
aaaa(lp1356
I403
aI407
ag320
a(lp1357
(lp1358
I403
ag866
aa(lp1359
I404
ag902
aa(lp1360
I405
ag880
aa(lp1361
I406
ag902
aa(lp1362
I407
ag859
aaaa(lp1363
I409
aI412
ag329
a(lp1364
(lp1365
I409
ag972
aa(lp1366
I410
ag841
aa(lp1367
I411
ag891
aa(lp1368
I412
ag902
aaaa(lp1369
I415
aI417
aS'and'
p1370
a(lp1371
(lp1372
I415
ag848
aa(lp1373
I416
ag866
aa(lp1374
I417
ag897
aaaa(lp1375
I419
aI421
aS'the'
p1376
a(lp1377
(lp1378
I419
ag909
aa(lp1379
I420
ag872
aa(lp1380
I421
ag902
aaaa(lp1381
I423
aI427
ag338
a(lp1382
(lp1383
I423
ag914
aa(lp1384
I424
ag859
aa(lp1385
I425
ag902
aa(lp1386
I426
ag848
aa(lp1387
I427
ag897
aaaa(lp1388
I429
aI431
aS'and'
p1389
a(lp1390
(lp1391
I429
ag848
aa(lp1392
I430
ag866
aa(lp1393
I431
ag897
aaaa(lp1394
I433
aI436
ag347
a(lp1395
(lp1396
I433
ag856
aa(lp1397
I434
ag848
aa(lp1398
I435
ag972
aa(lp1399
I436
ag909
aaaa(lp1400
I438
aI440
aS'are'
p1401
a(lp1402
(lp1403
I438
ag848
aa(lp1404
I439
ag859
aa(lp1405
I440
ag902
aaaa(lp1406
I442
aI443
aS'as'
p1407
a(lp1408
(lp1409
I442
ag848
aa(lp1410
I443
ag856
aaaa(lp1411
I445
aI447
aS'the'
p1412
a(lp1413
(lp1414
I445
ag909
aa(lp1415
I446
ag872
aa(lp1416
I447
ag902
aaaa(lp1417
I449
aI459
ag356
a(lp1418
(lp1419
I449
ag891
aa(lp1420
I450
ag854
aa(lp1421
I451
ag894
aa(lp1422
I452
ag866
aa(lp1423
I453
ag897
aa(lp1424
I454
ag848
aa(lp1425
I455
ag909
aa(lp1426
I456
ag841
aa(lp1427
I457
ag854
aa(lp1428
I458
ag866
aa(lp1429
I459
ag856
aaaa(lp1430
I461
aI462
aS'of'
p1431
a(lp1432
(lp1433
I461
ag854
aa(lp1434
I462
ag891
aaaa(lp1435
I464
aI465
aS'my'
p1436
a(lp1437
(lp1438
I464
ag850
aa(lp1439
I465
ag989
aaaa(lp1440
I467
aI470
ag365
a(lp1441
(lp1442
I467
ag914
aa(lp1443
I468
ag854
aa(lp1444
I469
ag897
aa(lp1445
I470
ag989
aaaa(lp1446
I473
aI477
aS'which'
p1447
a(lp1448
(lp1449
I473
ag880
aa(lp1450
I474
ag872
aa(lp1451
I475
ag841
aa(lp1452
I476
ag907
aa(lp1453
I477
ag872
aaaa(lp1454
I479
aI479
ag841
a(lp1455
(lp1456
I479
ag841
aaaa(lp1457
I481
aI487
ag374
a(lp1458
(lp1459
I481
ag897
aa(lp1460
I482
ag902
aa(lp1461
I483
ag856
aa(lp1462
I484
ag909
aa(lp1463
I485
ag859
aa(lp1464
I486
ag854
aa(lp1465
I487
ag989
aaaa(lp1466
I489
aI490
aS'in'
p1467
a(lp1468
(lp1469
I489
ag841
aa(lp1470
I490
ag866
aaaa(lp1471
I492
aI496
ag383
a(lp1472
(lp1473
I492
ag854
aa(lp1474
I493
ag859
aa(lp1475
I494
ag897
aa(lp1476
I495
ag902
aa(lp1477
I496
ag859
aaaa(lp1478
I498
aI501
aS'that'
p1479
a(lp1480
(lp1481
I498
ag909
aa(lp1482
I499
ag872
aa(lp1483
I500
ag848
aa(lp1484
I501
ag909
aaaa(lp1485
I503
aI506
aS'they'
p1486
a(lp1487
(lp1488
I503
ag909
aa(lp1489
I504
ag872
aa(lp1490
I505
ag902
aa(lp1491
I506
ag989
aaaa(lp1492
I508
aI510
ag392
a(lp1493
(lp1494
I508
ag850
aa(lp1495
I509
ag848
aa(lp1496
I510
ag989
aaaa(lp1497
I512
aI513
aS'be'
p1498
a(lp1499
(lp1500
I512
ag914
aa(lp1501
I513
ag902
aaaa(lp1502
I515
aI521
ag401
a(lp1503
(lp1504
I515
ag859
aa(lp1505
I516
ag902
aa(lp1506
I517
ag866
aa(lp1507
I518
ag902
aa(lp1508
I519
ag880
aa(lp1509
I520
ag902
aa(lp1510
I521
ag897
aaaa(lp1511
I524
aI526
aS'for'
p1512
a(lp1513
(lp1514
I524
ag891
aa(lp1515
I525
ag854
aa(lp1516
I526
ag859
aaaa(lp1517
I528
aI528
ag841
a(lp1518
(lp1519
I528
ag841
aaaa(lp1520
I530
aI531
aS'am'
p1521
a(lp1522
(lp1523
I530
ag848
aa(lp1524
I531
ag850
aaaa(lp1525
I533
aI538
ag410
a(lp1526
(lp1527
I533
ag854
aa(lp1528
I534
ag856
aa(lp1529
I535
ag841
aa(lp1530
I536
ag859
aa(lp1531
I537
ag841
aa(lp1532
I538
ag856
aaaa(lp1533
I540
aI549
ag419
a(lp1534
(lp1535
I540
ag909
aa(lp1536
I541
ag859
aa(lp1537
I542
ag841
aa(lp1538
I543
ag894
aa(lp1539
I544
ag850
aa(lp1540
I545
ag870
aa(lp1541
I546
ag872
aa(lp1542
I547
ag848
aa(lp1543
I548
ag866
aa(lp1544
I549
ag909
aaaa(lp1545
I552
aI555
ag428
a(lp1546
(lp1547
I552
ag902
aa(lp1548
I553
aS'v'
p1549
aa(lp1550
I554
ag902
aa(lp1551
I555
ag866
aaaa(lp1552
I557
aI562
ag437
a(lp1553
(lp1554
I557
ag854
aa(lp1555
I558
ag856
aa(lp1556
I559
ag841
aa(lp1557
I560
ag859
aa(lp1558
I561
ag841
aa(lp1559
I562
ag856
aaaa(lp1560
I564
aI572
ag446
a(lp1561
(lp1562
I564
ag854
aa(lp1563
I565
ag866
aa(lp1564
I566
ag866
aa(lp1565
I567
ag854
aa(lp1566
I568
ag870
aa(lp1567
I569
ag872
aa(lp1568
I570
ag859
aa(lp1569
I571
ag841
aa(lp1570
I572
ag856
aaaa(lp1571
I574
aI576
aS'the'
p1572
a(lp1573
(lp1574
I574
ag909
aa(lp1575
I575
ag872
aa(lp1576
I576
ag902
aaaa(lp1577
I578
aI586
ag455
a(lp1578
(lp1579
I578
aS'j'
p1580
aa(lp1581
I579
ag894
aa(lp1582
I580
ag856
aa(lp1583
I581
ag909
aa(lp1584
I582
ag841
aa(lp1585
I583
ag891
aa(lp1586
I584
ag841
aa(lp1587
I585
ag902
aa(lp1588
I586
ag897
aaaa(lp1589
I588
aI590
ag464
a(lp1590
(lp1591
I588
ag854
aa(lp1592
I589
ag866
aa(lp1593
I590
ag902
aaaa(lp1594
I593
aI593
ag841
a(lp1595
(lp1596
I593
ag841
aaaa(lp1597
I595
aI596
aS'am'
p1598
a(lp1599
(lp1600
I595
ag848
aa(lp1601
I596
ag850
aaaa(lp1602
I598
aI599
aS'he'
p1603
a(lp1604
(lp1605
I598
ag872
aa(lp1606
I599
ag902
aaaa(lp1607
I601
aI603
aS'who'
p1608
a(lp1609
(lp1610
I601
ag880
aa(lp1611
I602
ag872
aa(lp1612
I603
ag854
aaaa(lp1613
I605
aI606
aS'is'
p1614
a(lp1615
(lp1616
I605
ag841
aa(lp1617
I606
ag856
aaaa(lp1618
I608
aI614
ag473
a(lp1619
(lp1620
I608
ag907
aa(lp1621
I609
ag972
aa(lp1622
I610
ag854
aa(lp1623
I611
ag909
aa(lp1624
I612
ag872
aa(lp1625
I613
ag902
aa(lp1626
I614
ag897
aaaa(lp1627
I616
aI619
aS'with'
p1628
a(lp1629
(lp1630
I616
ag880
aa(lp1631
I617
ag841
aa(lp1632
I618
ag909
aa(lp1633
I619
ag872
aaaa(lp1634
I621
aI623
aS'the'
p1635
a(lp1636
(lp1637
I621
ag909
aa(lp1638
I622
ag872
aa(lp1639
I623
ag902
aaaa(lp1640
I625
aI628
ag482
a(lp1641
(lp1642
I625
ag914
aa(lp1643
I626
ag854
aa(lp1644
I627
ag897
aa(lp1645
I628
ag989
aaaa(lp1646
I630
aI631
aS'of'
p1647
a(lp1648
(lp1649
I630
ag854
aa(lp1650
I631
ag891
aaaa(lp1651
I633
aI637
ag491
a(lp1652
(lp1653
I633
ag891
aa(lp1654
I634
ag972
aa(lp1655
I635
ag902
aa(lp1656
I636
ag856
aa(lp1657
I637
ag872
aaaa(lp1658
I639
aI641
ag500
a(lp1659
(lp1660
I639
ag989
aa(lp1661
I640
ag902
aa(lp1662
I641
ag909
aaaa(lp1663
I643
aI644
aS'in'
p1664
a(lp1665
(lp1666
I643
ag841
aa(lp1667
I644
ag866
aaaa(lp1668
I646
aI649
aS'whom'
p1669
a(lp1670
(lp1671
I646
ag880
aa(lp1672
I647
ag872
aa(lp1673
I648
ag854
aa(lp1674
I649
ag850
aaaa(lp1675
I651
aI656
ag509
a(lp1676
(lp1677
I651
ag891
aa(lp1678
I652
ag972
aa(lp1679
I653
ag848
aa(lp1680
I654
ag850
aa(lp1681
I655
ag902
aa(lp1682
I656
ag856
aaaa(lp1683
I658
aI660
aS'the'
p1684
a(lp1685
(lp1686
I658
ag909
aa(lp1687
I659
ag872
aa(lp1688
I660
ag902
aaaa(lp1689
I662
aI667
ag518
a(lp1690
(lp1691
I662
ag856
aa(lp1692
I663
ag870
aa(lp1693
I664
ag841
aa(lp1694
I665
ag859
aa(lp1695
I666
ag841
aa(lp1696
I667
ag909
aaaa(lp1697
I669
aI670
aS'of'
p1698
a(lp1699
(lp1700
I669
ag854
aa(lp1701
I670
ag891
aaaa(lp1702
I672
aI674
aS'the'
p1703
a(lp1704
(lp1705
I672
ag909
aa(lp1706
I673
ag872
aa(lp1707
I674
ag902
aaaa(lp1708
I676
aI682
ag527
a(lp1709
(lp1710
I676
ag902
aa(lp1711
I677
ag909
aa(lp1712
I678
ag902
aa(lp1713
I679
ag859
aa(lp1714
I680
ag866
aa(lp1715
I681
ag848
aa(lp1716
I682
ag972
aaaa(lp1717
I684
aI687
ag536
a(lp1718
(lp1719
I684
ag929
aa(lp1720
I685
ag854
aa(lp1721
I686
ag897
aa(lp1722
I687
ag856
aaaa(lp1723
I690
aI690
ag841
a(lp1724
(lp1725
I690
ag841
aaaa(lp1726
I692
aI693
aS'am'
p1727
a(lp1728
(lp1729
I692
ag848
aa(lp1730
I693
ag850
aaaa(lp1731
I695
aI697
aS'the'
p1732
a(lp1733
(lp1734
I695
ag909
aa(lp1735
I696
ag872
aa(lp1736
I697
ag902
aaaa(lp1737
I699
aI702
ag545
a(lp1738
(lp1739
I699
ag972
aa(lp1740
I700
ag854
aa(lp1741
I701
ag859
aa(lp1742
I702
ag897
aaaa(lp1743
I704
aI705
aS'of'
p1744
a(lp1745
(lp1746
I704
ag854
aa(lp1747
I705
ag891
aaaa(lp1748
I707
aI710
ag554
a(lp1749
(lp1750
I707
ag972
aa(lp1751
I708
ag841
aa(lp1752
I709
ag891
aa(lp1753
I710
ag902
aaaa(lp1754
I713
aI713
ag841
a(lp1755
(lp1756
I713
ag841
aaaa(lp1757
I715
aI716
aS'am'
p1758
a(lp1759
(lp1760
I715
ag848
aa(lp1761
I716
ag850
aaaa(lp1762
I718
aI727
ag563
a(lp1763
(lp1764
I718
ag909
aa(lp1765
I719
ag859
aa(lp1766
I720
ag841
aa(lp1767
I721
ag894
aa(lp1768
I722
ag850
aa(lp1769
I723
ag870
aa(lp1770
I724
ag872
aa(lp1771
I725
ag848
aa(lp1772
I726
ag866
aa(lp1773
I727
ag909
aaaa(lp1774
I729
aI732
aS'over'
p1775
a(lp1776
(lp1777
I729
ag854
aa(lp1778
I730
ag1549
aa(lp1779
I731
ag902
aa(lp1780
I732
ag859
aaaa(lp1781
I734
aI738
ag572
a(lp1782
(lp1783
I734
ag897
aa(lp1784
I735
ag902
aa(lp1785
I736
ag848
aa(lp1786
I737
ag909
aa(lp1787
I738
ag872
aaaa(lp1788
I741
aI743
aS'and'
p1789
a(lp1790
(lp1791
I741
ag848
aa(lp1792
I742
ag866
aa(lp1793
I743
ag897
aaaa(lp1794
I745
aI753
ag581
a(lp1795
(lp1796
I745
ag880
aa(lp1797
I746
ag872
aa(lp1798
I747
ag854
aa(lp1799
I748
ag856
aa(lp1800
I749
ag854
aa(lp1801
I750
ag902
aa(lp1802
I751
ag1549
aa(lp1803
I752
ag902
aa(lp1804
I753
ag859
aaaa(lp1805
I755
aI763
ag590
a(lp1806
(lp1807
I755
ag870
aa(lp1808
I756
ag848
aa(lp1809
I757
ag859
aa(lp1810
I758
ag909
aa(lp1811
I759
ag848
aa(lp1812
I760
aS'k'
p1813
aa(lp1814
I761
ag902
aa(lp1815
I762
ag909
aa(lp1816
I763
ag872
aaaa(lp1817
I765
aI768
aS'with'
p1818
a(lp1819
(lp1820
I765
ag880
aa(lp1821
I766
ag841
aa(lp1822
I767
ag909
aa(lp1823
I768
ag872
aaaa(lp1824
I770
aI771
aS'me'
p1825
a(lp1826
(lp1827
I770
ag850
aa(lp1828
I771
ag902
aaaa(lp1829
I773
aI777
ag599
a(lp1830
(lp1831
I773
ag856
aa(lp1832
I774
ag872
aa(lp1833
I775
ag848
aa(lp1834
I776
ag972
aa(lp1835
I777
ag972
aaaa(lp1836
I779
aI782
aS'with'
p1837
a(lp1838
(lp1839
I779
ag880
aa(lp1840
I780
ag841
aa(lp1841
I781
ag909
aa(lp1842
I782
ag872
aaaa(lp1843
I784
aI785
aS'me'
p1844
a(lp1845
(lp1846
I784
ag850
aa(lp1847
I785
ag902
aaaa(lp1848
I787
aI791
ag608
a(lp1849
(lp1850
I787
ag848
aa(lp1851
I788
ag859
aa(lp1852
I789
ag841
aa(lp1853
I790
ag856
aa(lp1854
I791
ag902
aaaa(lp1855
I794
aI794
ag841
a(lp1856
(lp1857
I794
ag841
aaaa(lp1858
I796
aI797
aS'am'
p1859
a(lp1860
(lp1861
I796
ag848
aa(lp1862
I797
ag850
aaaa(lp1863
I799
aI801
aS'the'
p1864
a(lp1865
(lp1866
I799
ag909
aa(lp1867
I800
ag872
aa(lp1868
I801
ag902
aaaa(lp1869
I803
aI812
ag617
a(lp1870
(lp1871
I803
ag850
aa(lp1872
I804
ag848
aa(lp1873
I805
ag866
aa(lp1874
I806
ag841
aa(lp1875
I807
ag891
aa(lp1876
I808
ag902
aa(lp1877
I809
ag856
aa(lp1878
I810
ag909
aa(lp1879
I811
ag902
aa(lp1880
I812
ag859
aaaa(lp1881
I814
aI815
aS'in'
p1882
a(lp1883
(lp1884
I814
ag841
aa(lp1885
I815
ag866
aaaa(lp1886
I817
aI822
ag626
a(lp1887
(lp1888
I817
ag850
aa(lp1889
I818
ag848
aa(lp1890
I819
ag909
aa(lp1891
I820
ag909
aa(lp1892
I821
ag902
aa(lp1893
I822
ag859
aaaa(lp1894
I824
aI825
aS'of'
p1895
a(lp1896
(lp1897
I824
ag854
aa(lp1898
I825
ag891
aaaa(lp1899
I827
aI831
aS'those'
p1900
a(lp1901
(lp1902
I827
ag909
aa(lp1903
I828
ag872
aa(lp1904
I829
ag854
aa(lp1905
I830
ag856
aa(lp1906
I831
ag902
aaaa(lp1907
I833
aI837
ag635
a(lp1908
(lp1909
I833
ag880
aa(lp1910
I834
ag872
aa(lp1911
I835
ag854
aa(lp1912
I836
ag856
aa(lp1913
I837
ag902
aaaa(lp1914
I839
aI843
ag644
a(lp1915
(lp1916
I839
ag848
aa(lp1917
I840
ag914
aa(lp1918
I841
ag854
aa(lp1919
I842
ag897
aa(lp1920
I843
ag902
aaaa(lp1921
I845
aI846
aS'is'
p1922
a(lp1923
(lp1924
I845
ag841
aa(lp1925
I846
ag856
aaaa(lp1926
I848
aI850
aS'the'
p1927
a(lp1928
(lp1929
I848
ag909
aa(lp1930
I849
ag872
aa(lp1931
I850
ag902
aaaa(lp1932
I852
aI860
ag653
a(lp1933
(lp1934
I852
ag841
aa(lp1935
I853
ag866
aa(lp1936
I854
ag1549
aa(lp1937
I855
ag841
aa(lp1938
I856
ag856
aa(lp1939
I857
ag841
aa(lp1940
I858
ag914
aa(lp1941
I859
ag972
aa(lp1942
I860
ag902
aaaa(lp1943
I863
aI863
ag841
a(lp1944
(lp1945
I863
ag841
aaaa(lp1946
I865
aI866
aS'am'
p1947
a(lp1948
(lp1949
I865
ag848
aa(lp1950
I866
ag850
aaaa(lp1951
I868
aI870
aS'the'
p1952
a(lp1953
(lp1954
I868
ag909
aa(lp1955
I869
ag872
aa(lp1956
I870
ag902
aaaa(lp1957
I872
aI879
ag662
a(lp1958
(lp1959
I872
ag870
aa(lp1960
I873
ag894
aa(lp1961
I874
ag859
aa(lp1962
I875
ag841
aa(lp1963
I876
ag891
aa(lp1964
I877
ag841
aa(lp1965
I878
ag902
aa(lp1966
I879
ag897
aaaa(lp1967
I882
aI882
ag841
a(lp1968
(lp1969
I882
ag841
aaaa(lp1970
I884
aI888
ag671
a(lp1971
(lp1972
I884
ag856
aa(lp1973
I885
ag909
aa(lp1974
I886
ag848
aa(lp1975
I887
ag866
aa(lp1976
I888
ag897
aaaa(lp1977
I890
aI893
ag680
a(lp1978
(lp1979
I890
ag894
aa(lp1980
I891
ag870
aa(lp1981
I892
ag854
aa(lp1982
I893
ag866
aaaa(lp1983
I895
aI897
aS'the'
p1984
a(lp1985
(lp1986
I895
ag909
aa(lp1987
I896
ag872
aa(lp1988
I897
ag902
aaaa(lp1989
I899
aI906
ag689
a(lp1990
(lp1991
I899
ag894
aa(lp1992
I900
ag866
aa(lp1993
I901
ag841
aa(lp1994
I902
ag1549
aa(lp1995
I903
ag902
aa(lp1996
I904
ag859
aa(lp1997
I905
ag856
aa(lp1998
I906
ag902
aaaa(lp1999
I909
aI909
ag841
a(lp2000
(lp2001
I909
ag841
aaaa(lp2002
I911
aI912
aS'am'
p2003
a(lp2004
(lp2005
I911
ag848
aa(lp2006
I912
ag850
aaaa(lp2007
I914
aI917
aS'its'
p2008
a(lp2009
(lp2010
I914
ag841
aa(lp2011
I915
ag909
aa(lp2012
I917
ag856
aaaa(lp2013
I919
aI928
ag698
a(lp2014
(lp2015
I919
ag859
aa(lp2016
I920
ag902
aa(lp2017
I921
ag907
aa(lp2018
I922
ag854
aa(lp2019
I923
ag866
aa(lp2020
I924
ag907
aa(lp2021
I925
ag841
aa(lp2022
I926
ag972
aa(lp2023
I927
ag902
aa(lp2024
I928
ag859
aaaa(lp2025
I930
aI933
aS'with'
p2026
a(lp2027
(lp2028
I930
ag880
aa(lp2029
I931
ag841
aa(lp2030
I932
ag909
aa(lp2031
I933
ag872
aaaa(lp2032
I935
aI937
aS'the'
p2033
a(lp2034
(lp2035
I935
ag909
aa(lp2036
I936
ag872
aa(lp2037
I937
ag902
aaaa(lp2038
I939
aI945
ag707
a(lp2039
(lp2040
I939
ag902
aa(lp2041
I940
ag909
aa(lp2042
I941
ag902
aa(lp2043
I942
ag859
aa(lp2044
I943
ag866
aa(lp2045
I944
ag848
aa(lp2046
I945
ag972
aaaa(lp2047
I947
aI950
ag716
a(lp2048
(lp2049
I947
ag929
aa(lp2050
I948
ag854
aa(lp2051
I949
ag897
aa(lp2052
I950
ag856
aaaa(lp2053
I953
aI953
ag841
a(lp2054
(lp2055
I953
ag841
aaaa(lp2056
I955
aI956
aS'am'
p2057
a(lp2058
(lp2059
I955
ag848
aa(lp2060
I956
ag850
aaaa(lp2061
I958
aI960
aS'the'
p2062
a(lp2063
(lp2064
I958
ag909
aa(lp2065
I959
ag872
aa(lp2066
I960
ag902
aaaa(lp2067
I962
aI970
ag725
a(lp2068
(lp2069
I962
ag870
aa(lp2070
I963
ag902
aa(lp2071
I964
ag859
aa(lp2072
I965
ag891
aa(lp2073
I966
ag902
aa(lp2074
I967
ag907
aa(lp2075
I968
ag909
aa(lp2076
I969
ag854
aa(lp2077
I970
ag859
aaaa(lp2078
I972
aI973
aS'of'
p2079
a(lp2080
(lp2081
I972
ag854
aa(lp2082
I973
ag891
aaaa(lp2083
I975
aI980
ag734
a(lp2084
(lp2085
I975
ag850
aa(lp2086
I976
ag848
aa(lp2087
I977
ag909
aa(lp2088
I978
ag909
aa(lp2089
I979
ag902
aa(lp2090
I980
ag859
aaaa(lp2091
I983
aI985
aS'and'
p2092
a(lp2093
(lp2094
I983
ag848
aa(lp2095
I984
ag866
aa(lp2096
I985
ag897
aaaa(lp2097
I987
aI993
ag743
a(lp2098
(lp2099
I987
ag880
aa(lp2100
I988
ag841
aa(lp2101
I989
ag909
aa(lp2102
I990
ag872
aa(lp2103
I991
ag854
aa(lp2104
I992
ag894
aa(lp2105
I993
ag909
aaaa(lp2106
I995
aI996
aS'me'
p2107
a(lp2108
(lp2109
I995
ag850
aa(lp2110
I996
ag902
aaaa(lp2111
I998
aI1000
aS'the'
p2112
a(lp2113
(lp2114
I998
ag909
aa(lp2115
I999
ag872
aa(lp2116
I1000
ag902
aaaa(lp2117
I1002
aI1009
ag752
a(lp2118
(lp2119
I1002
ag894
aa(lp2120
I1003
ag866
aa(lp2121
I1004
ag841
aa(lp2122
I1005
ag1549
aa(lp2123
I1006
ag902
aa(lp2124
I1007
ag859
aa(lp2125
I1008
ag856
aa(lp2126
I1009
ag902
aaaa(lp2127
I1011
aI1012
aS'is'
p2128
a(lp2129
(lp2130
I1011
ag841
aa(lp2131
I1012
ag856
aaaa(lp2132
I1014
aI1016
aS'not'
p2133
a(lp2134
(lp2135
I1014
ag866
aa(lp2136
I1015
ag854
aa(lp2137
I1016
ag909
aaaa(lp2138
I1041
aI1041
ag761
a(lp2139
(lp2140
I1041
ag761
aaaa(lp2141
I1043
aI1050
ag770
a(lp2142
(lp2143
I1043
ag902
aa(lp2144
I1044
ag856
aa(lp2145
I1045
ag854
aa(lp2146
I1046
ag909
aa(lp2147
I1047
ag902
aa(lp2148
I1048
ag859
aa(lp2149
I1049
ag841
aa(lp2150
I1050
ag907
aaaa(lp2151
I1052
aI1056
ag779
a(lp2152
(lp2153
I1052
ag854
aa(lp2154
I1053
ag859
aa(lp2155
I1054
ag897
aa(lp2156
I1055
ag902
aa(lp2157
I1056
ag859
aaaa(lp2158
I1058
aI1059
aS'of'
p2159
a(lp2160
(lp2161
I1058
ag854
aa(lp2162
I1059
ag891
aaaa(lp2163
I1061
aI1063
aS'the'
p2164
a(lp2165
(lp2166
I1061
ag909
aa(lp2167
I1062
ag872
aa(lp2168
I1063
ag902
aaaa(lp2169
I1065
aI1070
ag788
a(lp2170
(lp2171
I1065
ag929
aa(lp2172
I1066
ag854
aa(lp2173
I1067
ag972
aa(lp2174
I1068
ag897
aa(lp2175
I1069
ag902
aa(lp2176
I1070
ag866
aaaa(lp2177
I1072
aI1075
ag797
a(lp2178
(lp2179
I1072
ag897
aa(lp2180
I1073
ag848
aa(lp2181
I1074
ag880
aa(lp2182
I1075
ag866
aaaa(lp2183
I1077
aI1080
ag806
a(lp2184
(lp2185
I1077
aS'2'
p2186
aa(lp2187
I1078
aS'0'
p2188
aa(lp2189
I1079
ag2188
aa(lp2190
I1080
aS'7'
p2191
aaaa(lp2192
I1083
aI1085
aS'all'
p2193
a(lp2194
(lp2195
I1083
ag848
aa(lp2196
I1084
ag972
aa(lp2197
I1085
ag972
aaaa(lp2198
I1087
aI1092
ag815
a(lp2199
(lp2200
I1087
ag859
aa(lp2201
I1088
ag841
aa(lp2202
I1089
ag929
aa(lp2203
I1090
ag872
aa(lp2204
I1091
ag909
aa(lp2205
I1092
ag856
aaaa(lp2206
I1094
aI1101
ag824
a(lp2207
(lp2208
I1094
ag859
aa(lp2209
I1095
ag902
aa(lp2210
I1096
ag856
aa(lp2211
I1097
ag902
aa(lp2212
I1098
ag859
aa(lp2213
I1099
ag1549
aa(lp2214
I1100
ag902
aa(lp2215
I1101
ag897
aaaasS'cleanCharacterMap'
p2216
(lp2217
g836
a(lp2218
I2
aS' '
p2219
aag839
a(lp2220
I5
ag2219
aag843
a(lp2221
I8
ag2219
aag847
ag849
a(lp2222
I11
ag2219
aag853
ag855
ag857
ag858
ag860
ag861
a(lp2223
I18
ag2219
aag864
ag865
ag867
ag868
ag869
ag871
ag873
ag874
ag875
a(lp2224
I28
ag2219
aag879
ag881
ag882
a(lp2225
I32
ag2219
aag886
ag887
a(lp2226
I35
ag2219
aag890
ag892
ag893
ag895
ag896
a(lp2227
I41
ag2219
aag900
ag901
ag903
ag904
ag905
ag906
ag908
a(lp2228
I49
ag2219
aag913
ag915
ag916
ag917
ag918
ag919
a(lp2229
I56
ag2219
aag923
ag924
ag925
a(lp2230
I60
ag2219
aag928
ag930
ag931
ag932
a(lp2231
I66
ag2219
aag935
a(lp2232
I68
ag2219
aag938
ag939
ag940
ag941
a(lp2233
I73
ag2219
aag944
ag945
ag946
ag947
a(lp2234
I79
ag2219
aag951
ag952
ag953
ag954
ag955
a(lp2235
I85
ag2219
aag959
ag960
ag961
a(lp2236
I89
ag2219
aag965
ag966
ag967
a(lp2237
I93
ag2219
aag970
ag971
ag973
ag974
ag975
ag976
ag977
ag978
a(lp2238
I102
ag2219
aag982
ag983
a(lp2239
I105
ag2219
aag987
ag988
a(lp2240
I108
ag2219
aag992
ag993
ag994
ag995
a(lp2241
I113
ag2219
aag998
ag999
ag1000
ag1001
ag1002
ag1003
ag1004
ag1005
ag1006
a(lp2242
I123
ag2219
aag1010
ag1011
ag1012
ag1013
ag1014
ag1015
ag1016
a(lp2243
I131
ag2219
aag1019
ag1020
ag1021
ag1022
ag1023
ag1024
ag1025
ag1026
ag1027
a(lp2244
I142
ag2219
aag1030
ag1031
ag1032
ag1033
ag1034
ag1035
ag1036
ag1037
ag1038
a(lp2245
I152
ag2219
aag1042
ag1043
ag1044
ag1045
ag1046
ag1047
ag1048
a(lp2246
I160
ag2219
aag1051
ag1052
ag1053
ag1054
ag1055
a(lp2247
I167
ag2219
aag1059
ag1060
ag1061
a(lp2248
I171
ag2219
aag1064
ag1065
ag1066
ag1067
ag1068
a(lp2249
I177
ag2219
aag1072
ag1073
a(lp2250
I180
ag2219
aag1077
ag1078
ag1079
a(lp2251
I184
ag2219
aag1082
ag1083
ag1084
ag1085
ag1086
a(lp2252
I190
ag2219
aag1089
ag1090
ag1091
ag1092
a(lp2253
I195
ag2219
aag1096
ag1097
a(lp2254
I198
ag2219
aag1101
ag1102
a(lp2255
I201
ag2219
aag1106
ag1107
ag1108
a(lp2256
I205
ag2219
aag1111
ag1112
ag1113
ag1114
ag1115
ag1116
ag1117
ag1118
ag1119
a(lp2257
I215
ag2219
aag1122
ag1123
ag1124
ag1125
a(lp2258
I220
ag2219
aag1129
ag1130
a(lp2259
I223
ag2219
aag1134
ag1135
a(lp2260
I226
ag2219
aag1138
ag1139
ag1140
ag1141
ag1142
ag1143
ag1144
ag1145
ag1146
a(lp2261
I237
ag2219
aag1150
ag1151
ag1152
a(lp2262
I241
ag2219
aag1156
ag1157
ag1158
a(lp2263
I245
ag2219
aag1161
ag1162
ag1163
ag1164
ag1165
ag1166
ag1167
ag1168
a(lp2264
I255
ag2219
aag1171
ag1172
ag1173
ag1174
a(lp2265
I260
ag2219
aag1178
ag1179
a(lp2266
I263
ag2219
aag1183
ag1184
ag1185
a(lp2267
I267
ag2219
aag1188
ag1189
ag1190
ag1191
ag1192
ag1193
a(lp2268
I274
ag2219
aag1197
ag1198
a(lp2269
I277
ag2219
aag1201
ag1202
ag1203
ag1204
a(lp2270
I282
ag2219
aag1207
ag1208
ag1209
ag1210
ag1211
ag1212
ag1213
ag1214
ag1215
a(lp2271
I292
ag2219
aag1219
ag1220
ag1221
ag1222
a(lp2272
I298
ag2219
aag1226
ag1227
ag1228
a(lp2273
I302
ag2219
aag1232
ag1233
ag1234
a(lp2274
I306
ag2219
aag1237
ag1238
ag1239
a(lp2275
I310
ag2219
aag1243
ag1244
a(lp2276
I313
ag2219
aag1247
ag1248
ag1249
ag1250
a(lp2277
I318
ag2219
aag1254
ag1255
a(lp2278
I321
ag2219
aag1259
ag1260
ag1261
a(lp2279
I325
ag2219
aag1264
ag1265
ag1266
ag1267
ag1268
ag1269
ag1270
a(lp2280
I333
ag2219
aag1274
ag1275
ag1276
a(lp2281
I337
ag2219
aag1280
ag1281
a(lp2282
I340
ag2219
aag1285
ag1286
ag1287
a(lp2283
I344
ag2219
aag1290
ag1291
ag1292
ag1293
ag1294
a(lp2284
I350
ag2219
aag1298
ag1299
a(lp2285
I353
ag2219
aag1303
ag1304
a(lp2286
I356
ag2219
aag1307
ag1308
ag1309
ag1310
ag1311
a(lp2287
I363
ag2219
aag1314
ag1315
ag1316
ag1317
ag1318
ag1319
ag1320
ag1321
ag1322
ag1323
a(lp2288
I374
ag2219
aag1326
ag1327
ag1328
ag1329
a(lp2289
I379
ag2219
aag1332
ag1333
ag1334
ag1335
ag1336
ag1337
ag1338
ag1339
ag1340
ag1341
ag1342
ag1343
a(lp2290
I393
ag2219
aag1346
ag1347
ag1348
ag1349
a(lp2291
I398
ag2219
aag1353
ag1354
ag1355
a(lp2292
I402
ag2219
aag1358
ag1359
ag1360
ag1361
ag1362
a(lp2293
I408
ag2219
aag1365
ag1366
ag1367
ag1368
a(lp2294
I414
ag2219
aag1372
ag1373
ag1374
a(lp2295
I418
ag2219
aag1378
ag1379
ag1380
a(lp2296
I422
ag2219
aag1383
ag1384
ag1385
ag1386
ag1387
a(lp2297
I428
ag2219
aag1391
ag1392
ag1393
a(lp2298
I432
ag2219
aag1396
ag1397
ag1398
ag1399
a(lp2299
I437
ag2219
aag1403
ag1404
ag1405
a(lp2300
I441
ag2219
aag1409
ag1410
a(lp2301
I444
ag2219
aag1414
ag1415
ag1416
a(lp2302
I448
ag2219
aag1419
ag1420
ag1421
ag1422
ag1423
ag1424
ag1425
ag1426
ag1427
ag1428
ag1429
a(lp2303
I460
ag2219
aag1433
ag1434
a(lp2304
I463
ag2219
aag1438
ag1439
a(lp2305
I466
ag2219
aag1442
ag1443
ag1444
ag1445
a(lp2306
I472
ag2219
aag1449
ag1450
ag1451
ag1452
ag1453
a(lp2307
I478
ag2219
aag1456
a(lp2308
I480
ag2219
aag1459
ag1460
ag1461
ag1462
ag1463
ag1464
ag1465
a(lp2309
I488
ag2219
aag1469
ag1470
a(lp2310
I491
ag2219
aag1473
ag1474
ag1475
ag1476
ag1477
a(lp2311
I497
ag2219
aag1481
ag1482
ag1483
ag1484
a(lp2312
I502
ag2219
aag1488
ag1489
ag1490
ag1491
a(lp2313
I507
ag2219
aag1494
ag1495
ag1496
a(lp2314
I511
ag2219
aag1500
ag1501
a(lp2315
I514
ag2219
aag1504
ag1505
ag1506
ag1507
ag1508
ag1509
ag1510
a(lp2316
I523
ag2219
aag1514
ag1515
ag1516
a(lp2317
I527
ag2219
aag1519
a(lp2318
I529
ag2219
aag1523
ag1524
a(lp2319
I532
ag2219
aag1527
ag1528
ag1529
ag1530
ag1531
ag1532
a(lp2320
I539
ag2219
aag1535
ag1536
ag1537
ag1538
ag1539
ag1540
ag1541
ag1542
ag1543
ag1544
a(lp2321
I551
ag2219
aag1547
ag1548
ag1550
ag1551
a(lp2322
I556
ag2219
aag1554
ag1555
ag1556
ag1557
ag1558
ag1559
a(lp2323
I563
ag2219
aag1562
ag1563
ag1564
ag1565
ag1566
ag1567
ag1568
ag1569
ag1570
a(lp2324
I573
ag2219
aag1574
ag1575
ag1576
a(lp2325
I577
ag2219
aag1579
ag1581
ag1582
ag1583
ag1584
ag1585
ag1586
ag1587
ag1588
a(lp2326
I587
ag2219
aag1591
ag1592
ag1593
a(lp2327
I592
ag2219
aag1596
a(lp2328
I594
ag2219
aag1600
ag1601
a(lp2329
I597
ag2219
aag1605
ag1606
a(lp2330
I600
ag2219
aag1610
ag1611
ag1612
a(lp2331
I604
ag2219
aag1616
ag1617
a(lp2332
I607
ag2219
aag1620
ag1621
ag1622
ag1623
ag1624
ag1625
ag1626
a(lp2333
I615
ag2219
aag1630
ag1631
ag1632
ag1633
a(lp2334
I620
ag2219
aag1637
ag1638
ag1639
a(lp2335
I624
ag2219
aag1642
ag1643
ag1644
ag1645
a(lp2336
I629
ag2219
aag1649
ag1650
a(lp2337
I632
ag2219
aag1653
ag1654
ag1655
ag1656
ag1657
a(lp2338
I638
ag2219
aag1660
ag1661
ag1662
a(lp2339
I642
ag2219
aag1666
ag1667
a(lp2340
I645
ag2219
aag1671
ag1672
ag1673
ag1674
a(lp2341
I650
ag2219
aag1677
ag1678
ag1679
ag1680
ag1681
ag1682
a(lp2342
I657
ag2219
aag1686
ag1687
ag1688
a(lp2343
I661
ag2219
aag1691
ag1692
ag1693
ag1694
ag1695
ag1696
a(lp2344
I668
ag2219
aag1700
ag1701
a(lp2345
I671
ag2219
aag1705
ag1706
ag1707
a(lp2346
I675
ag2219
aag1710
ag1711
ag1712
ag1713
ag1714
ag1715
ag1716
a(lp2347
I683
ag2219
aag1719
ag1720
ag1721
ag1722
a(lp2348
I689
ag2219
aag1725
a(lp2349
I691
ag2219
aag1729
ag1730
a(lp2350
I694
ag2219
aag1734
ag1735
ag1736
a(lp2351
I698
ag2219
aag1739
ag1740
ag1741
ag1742
a(lp2352
I703
ag2219
aag1746
ag1747
a(lp2353
I706
ag2219
aag1750
ag1751
ag1752
ag1753
a(lp2354
I712
ag2219
aag1756
a(lp2355
I714
ag2219
aag1760
ag1761
a(lp2356
I717
ag2219
aag1764
ag1765
ag1766
ag1767
ag1768
ag1769
ag1770
ag1771
ag1772
ag1773
a(lp2357
I728
ag2219
aag1777
ag1778
ag1779
ag1780
a(lp2358
I733
ag2219
aag1783
ag1784
ag1785
ag1786
ag1787
a(lp2359
I740
ag2219
aag1791
ag1792
ag1793
a(lp2360
I744
ag2219
aag1796
ag1797
ag1798
ag1799
ag1800
ag1801
ag1802
ag1803
ag1804
a(lp2361
I754
ag2219
aag1807
ag1808
ag1809
ag1810
ag1811
ag1812
ag1814
ag1815
ag1816
a(lp2362
I764
ag2219
aag1820
ag1821
ag1822
ag1823
a(lp2363
I769
ag2219
aag1827
ag1828
a(lp2364
I772
ag2219
aag1831
ag1832
ag1833
ag1834
ag1835
a(lp2365
I778
ag2219
aag1839
ag1840
ag1841
ag1842
a(lp2366
I783
ag2219
aag1846
ag1847
a(lp2367
I786
ag2219
aag1850
ag1851
ag1852
ag1853
ag1854
a(lp2368
I793
ag2219
aag1857
a(lp2369
I795
ag2219
aag1861
ag1862
a(lp2370
I798
ag2219
aag1866
ag1867
ag1868
a(lp2371
I802
ag2219
aag1871
ag1872
ag1873
ag1874
ag1875
ag1876
ag1877
ag1878
ag1879
ag1880
a(lp2372
I813
ag2219
aag1884
ag1885
a(lp2373
I816
ag2219
aag1888
ag1889
ag1890
ag1891
ag1892
ag1893
a(lp2374
I823
ag2219
aag1897
ag1898
a(lp2375
I826
ag2219
aag1902
ag1903
ag1904
ag1905
ag1906
a(lp2376
I832
ag2219
aag1909
ag1910
ag1911
ag1912
ag1913
a(lp2377
I838
ag2219
aag1916
ag1917
ag1918
ag1919
ag1920
a(lp2378
I844
ag2219
aag1924
ag1925
a(lp2379
I847
ag2219
aag1929
ag1930
ag1931
a(lp2380
I851
ag2219
aag1934
ag1935
ag1936
ag1937
ag1938
ag1939
ag1940
ag1941
ag1942
a(lp2381
I862
ag2219
aag1945
a(lp2382
I864
ag2219
aag1949
ag1950
a(lp2383
I867
ag2219
aag1954
ag1955
ag1956
a(lp2384
I871
ag2219
aag1959
ag1960
ag1961
ag1962
ag1963
ag1964
ag1965
ag1966
a(lp2385
I881
ag2219
aag1969
a(lp2386
I883
ag2219
aag1972
ag1973
ag1974
ag1975
ag1976
a(lp2387
I889
ag2219
aag1979
ag1980
ag1981
ag1982
a(lp2388
I894
ag2219
aag1986
ag1987
ag1988
a(lp2389
I898
ag2219
aag1991
ag1992
ag1993
ag1994
ag1995
ag1996
ag1997
ag1998
a(lp2390
I908
ag2219
aag2001
a(lp2391
I910
ag2219
aag2005
ag2006
a(lp2392
I913
ag2219
aag2010
ag2011
ag2012
a(lp2393
I918
ag2219
aag2015
ag2016
ag2017
ag2018
ag2019
ag2020
ag2021
ag2022
ag2023
ag2024
a(lp2394
I929
ag2219
aag2028
ag2029
ag2030
ag2031
a(lp2395
I934
ag2219
aag2035
ag2036
ag2037
a(lp2396
I938
ag2219
aag2040
ag2041
ag2042
ag2043
ag2044
ag2045
ag2046
a(lp2397
I946
ag2219
aag2049
ag2050
ag2051
ag2052
a(lp2398
I952
ag2219
aag2055
a(lp2399
I954
ag2219
aag2059
ag2060
a(lp2400
I957
ag2219
aag2064
ag2065
ag2066
a(lp2401
I961
ag2219
aag2069
ag2070
ag2071
ag2072
ag2073
ag2074
ag2075
ag2076
ag2077
a(lp2402
I971
ag2219
aag2081
ag2082
a(lp2403
I974
ag2219
aag2085
ag2086
ag2087
ag2088
ag2089
ag2090
a(lp2404
I982
ag2219
aag2094
ag2095
ag2096
a(lp2405
I986
ag2219
aag2099
ag2100
ag2101
ag2102
ag2103
ag2104
ag2105
a(lp2406
I994
ag2219
aag2109
ag2110
a(lp2407
I997
ag2219
aag2114
ag2115
ag2116
a(lp2408
I1001
ag2219
aag2119
ag2120
ag2121
ag2122
ag2123
ag2124
ag2125
ag2126
a(lp2409
I1010
ag2219
aag2130
ag2131
a(lp2410
I1013
ag2219
aag2135
ag2136
ag2137
a(lp2411
I1019
ag2219
aa(lp2412
I1021
ag2219
aa(lp2413
I1023
ag2219
aa(lp2414
I1025
ag2219
aa(lp2415
I1027
ag2219
aa(lp2416
I1029
ag2219
aa(lp2417
I1031
ag2219
aa(lp2418
I1033
ag2219
aa(lp2419
I1035
ag2219
aa(lp2420
I1037
ag2219
aa(lp2421
I1039
ag2219
aag2140
a(lp2422
I1042
ag2219
aag2143
ag2144
ag2145
ag2146
ag2147
ag2148
ag2149
ag2150
a(lp2423
I1051
ag2219
aag2153
ag2154
ag2155
ag2156
ag2157
a(lp2424
I1057
ag2219
aag2161
ag2162
a(lp2425
I1060
ag2219
aag2166
ag2167
ag2168
a(lp2426
I1064
ag2219
aag2171
ag2172
ag2173
ag2174
ag2175
ag2176
a(lp2427
I1071
ag2219
aag2179
ag2180
ag2181
ag2182
a(lp2428
I1076
ag2219
aag2185
ag2187
ag2189
ag2190
a(lp2429
I1082
ag2219
aag2195
ag2196
ag2197
a(lp2430
I1086
ag2219
aag2200
ag2201
ag2202
ag2203
ag2204
ag2205
a(lp2431
I1093
ag2219
aag2208
ag2209
ag2210
ag2211
ag2212
ag2213
ag2214
ag2215
a(lp2432
I1103
ag2219
aa(lp2433
I1105
ag5
aasS'text'
p2434
S'\xc2\xa0 \xc2\xa0 "i am osiris onnophris who is found perfect before the gods. i hath said: these are the elements of my body perfected through suffering, glorified through trial. the scent of the dying rose is as the repressed sigh of my suffering. and the flame-red fire as the energy of mine undaunted will. and the cup of wine is the pouring out of the blood of my heart, sacrificed unto regeneration, unto the newer life. and the bread and salt are as the foundations of my body, which i destroy in order that they may be renewed. for i am osiris triumphant. even osiris onnophris the justified one. i am he who is clothed with the body of flesh yet in whom flames the spirit of the eternal gods. i am the lord of life. i am triumphant over death, and whosoever partaketh with me shall with me arise. i am the manifester in matter of those whose abode is the invisible. i am the purified. i stand upon the universe. i am it\'s reconciler with the eternal gods. i am the perfector of matter, and without me the universe is not." | | | | | | | | | | \xc2\xa9 esoteric order of the golden dawn 2007. all rights reserved. \xc2\xa0'
p2435
sS'cleanWordMap'
p2436
(lp2437
g834
ag837
ag851
ag862
ag888
ag898
ag926
ag936
ag942
ag968
ag990
ag996
ag1017
ag1028
ag1049
ag1062
ag1080
ag1087
ag1109
ag1120
ag1136
ag1159
ag1169
ag1186
ag1199
ag1205
ag1235
ag1245
ag1262
ag1288
ag1305
ag1312
ag1324
ag1330
ag1344
ag1356
ag1363
ag1381
ag1394
ag1417
ag1440
ag1457
ag1471
ag1492
ag1502
ag1525
ag1533
ag1545
ag1552
ag1560
ag1577
ag1589
ag1618
ag1640
ag1651
ag1658
ag1675
ag1689
ag1708
ag1717
ag1737
ag1748
ag1762
ag1781
ag1794
ag1805
ag1829
ag1848
ag1869
ag1886
ag1907
ag1914
ag1932
ag1957
ag1970
ag1977
ag1989
ag2013
ag2038
ag2047
ag2067
ag2083
ag2097
ag2117
ag2138
ag2141
ag2151
ag2169
ag2177
ag2183
ag2198
ag2206
asS'lines'
p2438
(lp2439
V\u000a
p2440
aV\u000a
p2441
aV"I am Osiris Onnophris who is found perfect before the Gods. I hath said: These are the elements of my Body perfected through suffering, glorified through trial. The scent of the dying Rose is as the repressed sigh of my Suffering. And the flame-red Fire as the energy of mine undaunted Will. And the Cup of Wine is the pouring out of the blood of my heart, sacrificed unto Regeneration, unto the newer life. And the bread and salt are as the foundations of my body, which I destroy in order that they may be renewed. For I am Osiris Triumphant.\u000a
p2442
aVEven Osiris Onnophris the Justified One. I am He who is clothed with the body of flesh yet in whom flames the spirit of the eternal Gods.\u000a
p2443
aVI am the Lord of Life. I am triumphant over Death, and whosoever partaketh with me shall with me arise. I am the manifester in Matter of Those whose abode is the Invisible. I am the purified. I stand upon the Universe. I am it's Reconciler with the eternal Gods. I am the Perfector of Matter, and without me the Universe is not."\u000a
p2444
aV| | | | | | | | | |\u000a
p2445
aV Esoteric Order of the Golden Dawn 2007. All Rights Reserved.\u000a
p2446
aV
p2447
asS'docType'
p2448
S'src'
p2449
sS'newfmap'
p2450
(lp2451
g14
ag22
ag25
ag27
ag29
ag31
ag34
ag36
ag38
ag40
ag43
ag45
ag47
ag49
ag52
ag54
ag56
ag58
ag61
ag63
ag65
ag67
ag70
ag72
ag74
ag76
ag79
ag81
ag83
ag85
ag88
ag90
ag92
ag94
ag97
ag99
ag101
ag103
ag106
ag108
ag110
ag112
ag115
ag117
ag119
ag121
ag124
ag126
ag128
ag130
ag133
ag135
ag137
ag139
ag142
ag144
ag146
ag148
ag151
ag153
ag155
ag157
ag160
ag162
ag164
ag166
ag169
ag171
ag173
ag175
ag178
ag180
ag182
ag184
ag187
ag189
ag191
ag193
ag196
ag198
ag200
ag202
ag205
ag207
ag209
ag211
ag214
ag216
ag218
ag220
ag223
ag225
ag227
ag229
ag232
ag234
ag236
ag238
ag241
ag243
ag245
ag247
ag250
ag252
ag254
ag256
ag259
ag261
ag263
ag265
ag268
ag270
ag272
ag274
ag277
ag279
ag281
ag283
ag286
ag288
ag290
ag292
ag295
ag297
ag299
ag301
ag304
ag306
ag308
ag310
ag313
ag315
ag317
ag319
ag322
ag324
ag326
ag328
ag331
ag333
ag335
ag337
ag340
ag342
ag344
ag346
ag349
ag351
ag353
ag355
ag358
ag360
ag362
ag364
ag367
ag369
ag371
ag373
ag376
ag378
ag380
ag382
ag385
ag387
ag389
ag391
ag394
ag396
ag398
ag400
ag403
ag405
ag407
ag409
ag412
ag414
ag416
ag418
ag421
ag423
ag425
ag427
ag430
ag432
ag434
ag436
ag439
ag441
ag443
ag445
ag448
ag450
ag452
ag454
ag457
ag459
ag461
ag463
ag466
ag468
ag470
ag472
ag475
ag477
ag479
ag481
ag484
ag486
ag488
ag490
ag493
ag495
ag497
ag499
ag502
ag504
ag506
ag508
ag511
ag513
ag515
ag517
ag520
ag522
ag524
ag526
ag529
ag531
ag533
ag535
ag538
ag540
ag542
ag544
ag547
ag549
ag551
ag553
ag556
ag558
ag560
ag562
ag565
ag567
ag569
ag571
ag574
ag576
ag578
ag580
ag583
ag585
ag587
ag589
ag592
ag594
ag596
ag598
ag601
ag603
ag605
ag607
ag610
ag612
ag614
ag616
ag619
ag621
ag623
ag625
ag628
ag630
ag632
ag634
ag637
ag639
ag641
ag643
ag646
ag648
ag650
ag652
ag655
ag657
ag659
ag661
ag664
ag666
ag668
ag670
ag673
ag675
ag677
ag679
ag682
ag684
ag686
ag688
ag691
ag693
ag695
ag697
ag700
ag702
ag704
ag706
ag709
ag711
ag713
ag715
ag718
ag720
ag722
ag724
ag727
ag729
ag731
ag733
ag736
ag738
ag740
ag742
ag745
ag747
ag749
ag751
ag754
ag756
ag758
ag760
ag763
ag765
ag767
ag769
ag772
ag774
ag776
ag778
ag781
ag783
ag785
ag787
ag790
ag792
ag794
ag796
ag799
ag801
ag803
ag805
ag808
ag810
ag812
ag814
ag817
ag819
ag821
ag823
ag826
ag828
ag830
asS'featureMap'
p2452
(lp2453
(lp2454
I1
aI1
ag5
ag6
ag9
ag11
ag13
aa(lp2455
I4
aI4
ag5
ag15
ag17
ag19
ag21
aa(lp2456
I12
aI17
ag23
ag24
ag26
ag28
ag30
aa(lp2457
I19
aI27
ag32
ag33
ag35
ag37
ag39
aa(lp2458
I36
aI40
ag41
ag42
ag44
ag46
ag48
aa(lp2459
I42
aI48
ag50
ag51
ag53
ag55
ag57
aa(lp2460
I61
aI64
ag59
ag60
ag62
ag64
ag66
aa(lp2461
I69
aI72
ag68
ag69
ag71
ag73
ag75
aa(lp2462
I74
aI77
ag77
ag78
ag80
ag82
ag84
aa(lp2463
I94
aI101
ag86
ag87
ag89
ag91
ag93
aa(lp2464
I109
aI112
ag95
ag96
ag98
ag100
ag102
aa(lp2465
I114
aI122
ag104
ag105
ag107
ag109
ag111
aa(lp2466
I132
aI140
ag113
ag114
ag116
ag118
ag120
aa(lp2467
I143
aI151
ag122
ag123
ag125
ag127
ag129
aa(lp2468
I161
aI165
ag131
ag132
ag134
ag136
ag138
aa(lp2469
I172
aI176
ag140
ag141
ag143
ag145
ag147
aa(lp2470
I185
aI189
ag149
ag150
ag152
ag154
ag156
aa(lp2471
I191
aI194
ag158
ag159
ag161
ag163
ag165
aa(lp2472
I206
aI214
ag167
ag168
ag170
ag172
ag174
aa(lp2473
I216
aI219
ag176
ag177
ag179
ag181
ag183
aa(lp2474
I227
aI235
ag185
ag186
ag188
ag190
ag192
aa(lp2475
I246
aI254
ag194
ag195
ag197
ag199
ag201
aa(lp2476
I256
aI259
ag203
ag204
ag206
ag208
ag210
aa(lp2477
I268
aI273
ag212
ag213
ag215
ag217
ag219
aa(lp2478
I278
aI281
ag221
ag222
ag224
ag226
ag228
aa(lp2479
I283
aI291
ag230
ag231
ag233
ag235
ag237
aa(lp2480
I307
aI309
ag239
ag240
ag242
ag244
ag246
aa(lp2481
I314
aI317
ag248
ag249
ag251
ag253
ag255
aa(lp2482
I326
aI332
ag257
ag258
ag260
ag262
ag264
aa(lp2483
I345
aI349
ag266
ag267
ag269
ag271
ag273
aa(lp2484
I357
aI361
ag275
ag276
ag278
ag280
ag282
aa(lp2485
I364
aI373
ag284
ag285
ag287
ag289
ag291
aa(lp2486
I375
aI378
ag293
ag294
ag296
ag298
ag300
aa(lp2487
I380
aI391
ag302
ag303
ag305
ag307
ag309
aa(lp2488
I394
aI397
ag311
ag312
ag314
ag316
ag318
aa(lp2489
I403
aI407
ag320
ag321
ag323
ag325
ag327
aa(lp2490
I409
aI412
ag329
ag330
ag332
ag334
ag336
aa(lp2491
I423
aI427
ag338
ag339
ag341
ag343
ag345
aa(lp2492
I433
aI436
ag347
ag348
ag350
ag352
ag354
aa(lp2493
I449
aI459
ag356
ag357
ag359
ag361
ag363
aa(lp2494
I467
aI470
ag365
ag366
ag368
ag370
ag372
aa(lp2495
I481
aI487
ag374
ag375
ag377
ag379
ag381
aa(lp2496
I492
aI496
ag383
ag384
ag386
ag388
ag390
aa(lp2497
I508
aI510
ag392
ag393
ag395
ag397
ag399
aa(lp2498
I515
aI521
ag401
ag402
ag404
ag406
ag408
aa(lp2499
I533
aI538
ag410
ag411
ag413
ag415
ag417
aa(lp2500
I540
aI549
ag419
ag420
ag422
ag424
ag426
aa(lp2501
I552
aI555
ag428
ag429
ag431
ag433
ag435
aa(lp2502
I557
aI562
ag437
ag438
ag440
ag442
ag444
aa(lp2503
I564
aI572
ag446
ag447
ag449
ag451
ag453
aa(lp2504
I578
aI586
ag455
ag456
ag458
ag460
ag462
aa(lp2505
I588
aI590
ag464
ag465
ag467
ag469
ag471
aa(lp2506
I608
aI614
ag473
ag474
ag476
ag478
ag480
aa(lp2507
I625
aI628
ag482
ag483
ag485
ag487
ag489
aa(lp2508
I633
aI637
ag491
ag492
ag494
ag496
ag498
aa(lp2509
I639
aI641
ag500
ag501
ag503
ag505
ag507
aa(lp2510
I651
aI656
ag509
ag510
ag512
ag514
ag516
aa(lp2511
I662
aI667
ag518
ag519
ag521
ag523
ag525
aa(lp2512
I676
aI682
ag527
ag528
ag530
ag532
ag534
aa(lp2513
I684
aI687
ag536
ag537
ag539
ag541
ag543
aa(lp2514
I699
aI702
ag545
ag546
ag548
ag550
ag552
aa(lp2515
I707
aI710
ag554
ag555
ag557
ag559
ag561
aa(lp2516
I718
aI727
ag563
ag564
ag566
ag568
ag570
aa(lp2517
I734
aI738
ag572
ag573
ag575
ag577
ag579
aa(lp2518
I745
aI753
ag581
ag582
ag584
ag586
ag588
aa(lp2519
I755
aI763
ag590
ag591
ag593
ag595
ag597
aa(lp2520
I773
aI777
ag599
ag600
ag602
ag604
ag606
aa(lp2521
I787
aI791
ag608
ag609
ag611
ag613
ag615
aa(lp2522
I803
aI812
ag617
ag618
ag620
ag622
ag624
aa(lp2523
I817
aI822
ag626
ag627
ag629
ag631
ag633
aa(lp2524
I833
aI837
ag635
ag636
ag638
ag640
ag642
aa(lp2525
I839
aI843
ag644
ag645
ag647
ag649
ag651
aa(lp2526
I852
aI860
ag653
ag654
ag656
ag658
ag660
aa(lp2527
I872
aI879
ag662
ag663
ag665
ag667
ag669
aa(lp2528
I884
aI888
ag671
ag672
ag674
ag676
ag678
aa(lp2529
I890
aI893
ag680
ag681
ag683
ag685
ag687
aa(lp2530
I899
aI906
ag689
ag690
ag692
ag694
ag696
aa(lp2531
I919
aI928
ag698
ag699
ag701
ag703
ag705
aa(lp2532
I939
aI945
ag707
ag708
ag710
ag712
ag714
aa(lp2533
I947
aI950
ag716
ag717
ag719
ag721
ag723
aa(lp2534
I962
aI970
ag725
ag726
ag728
ag730
ag732
aa(lp2535
I975
aI980
ag734
ag735
ag737
ag739
ag741
aa(lp2536
I987
aI993
ag743
ag744
ag746
ag748
ag750
aa(lp2537
I1002
aI1009
ag752
ag753
ag755
ag757
ag759
aa(lp2538
I1041
aI1041
ag761
ag762
ag764
ag766
ag768
aa(lp2539
I1043
aI1050
ag770
ag771
ag773
ag775
ag777
aa(lp2540
I1052
aI1056
ag779
ag780
ag782
ag784
ag786
aa(lp2541
I1065
aI1070
ag788
ag789
ag791
ag793
ag795
aa(lp2542
I1072
aI1075
ag797
ag798
ag800
ag802
ag804
aa(lp2543
I1077
aI1080
ag806
ag807
ag809
ag811
ag813
aa(lp2544
I1087
aI1092
ag815
ag816
ag818
ag820
ag822
aa(lp2545
I1094
aI1101
ag824
ag825
ag827
ag829
ag831
aasS'characterMap'
p2546
(lp2547
(lp2548
I0
aS'\xc2'
p2549
aag836
ag2218
a(lp2550
I3
ag2549
aag839
ag2220
a(lp2551
I6
aS'"'
p2552
aag843
ag2221
ag847
ag849
ag2222
ag853
ag855
ag857
ag858
ag860
ag861
ag2223
ag864
ag865
ag867
ag868
ag869
ag871
ag873
ag874
ag875
ag2224
ag879
ag881
ag882
ag2225
ag886
ag887
ag2226
ag890
ag892
ag893
ag895
ag896
ag2227
ag900
ag901
ag903
ag904
ag905
ag906
ag908
ag2228
ag913
ag915
ag916
ag917
ag918
ag919
ag2229
ag923
ag924
ag925
ag2230
ag928
ag930
ag931
ag932
a(lp2553
I65
aS'.'
p2554
aag2231
ag935
ag2232
ag938
ag939
ag940
ag941
ag2233
ag944
ag945
ag946
ag947
a(lp2555
I78
aS':'
p2556
aag2234
ag951
ag952
ag953
ag954
ag955
ag2235
ag959
ag960
ag961
ag2236
ag965
ag966
ag967
ag2237
ag970
ag971
ag973
ag974
ag975
ag976
ag977
ag978
ag2238
ag982
ag983
ag2239
ag987
ag988
ag2240
ag992
ag993
ag994
ag995
ag2241
ag998
ag999
ag1000
ag1001
ag1002
ag1003
ag1004
ag1005
ag1006
ag2242
ag1010
ag1011
ag1012
ag1013
ag1014
ag1015
ag1016
ag2243
ag1019
ag1020
ag1021
ag1022
ag1023
ag1024
ag1025
ag1026
ag1027
a(lp2557
I141
aS','
p2558
aag2244
ag1030
ag1031
ag1032
ag1033
ag1034
ag1035
ag1036
ag1037
ag1038
ag2245
ag1042
ag1043
ag1044
ag1045
ag1046
ag1047
ag1048
ag2246
ag1051
ag1052
ag1053
ag1054
ag1055
a(lp2559
I166
ag2554
aag2247
ag1059
ag1060
ag1061
ag2248
ag1064
ag1065
ag1066
ag1067
ag1068
ag2249
ag1072
ag1073
ag2250
ag1077
ag1078
ag1079
ag2251
ag1082
ag1083
ag1084
ag1085
ag1086
ag2252
ag1089
ag1090
ag1091
ag1092
ag2253
ag1096
ag1097
ag2254
ag1101
ag1102
ag2255
ag1106
ag1107
ag1108
ag2256
ag1111
ag1112
ag1113
ag1114
ag1115
ag1116
ag1117
ag1118
ag1119
ag2257
ag1122
ag1123
ag1124
ag1125
ag2258
ag1129
ag1130
ag2259
ag1134
ag1135
ag2260
ag1138
ag1139
ag1140
ag1141
ag1142
ag1143
ag1144
ag1145
ag1146
a(lp2560
I236
ag2554
aag2261
ag1150
ag1151
ag1152
ag2262
ag1156
ag1157
ag1158
ag2263
ag1161
ag1162
ag1163
ag1164
ag1165
a(lp2561
I251
aS'-'
p2562
aag1166
ag1167
ag1168
ag2264
ag1171
ag1172
ag1173
ag1174
ag2265
ag1178
ag1179
ag2266
ag1183
ag1184
ag1185
ag2267
ag1188
ag1189
ag1190
ag1191
ag1192
ag1193
ag2268
ag1197
ag1198
ag2269
ag1201
ag1202
ag1203
ag1204
ag2270
ag1207
ag1208
ag1209
ag1210
ag1211
ag1212
ag1213
ag1214
ag1215
ag2271
ag1219
ag1220
ag1221
ag1222
a(lp2563
I297
ag2554
aag2272
ag1226
ag1227
ag1228
ag2273
ag1232
ag1233
ag1234
ag2274
ag1237
ag1238
ag1239
ag2275
ag1243
ag1244
ag2276
ag1247
ag1248
ag1249
ag1250
ag2277
ag1254
ag1255
ag2278
ag1259
ag1260
ag1261
ag2279
ag1264
ag1265
ag1266
ag1267
ag1268
ag1269
ag1270
ag2280
ag1274
ag1275
ag1276
ag2281
ag1280
ag1281
ag2282
ag1285
ag1286
ag1287
ag2283
ag1290
ag1291
ag1292
ag1293
ag1294
ag2284
ag1298
ag1299
ag2285
ag1303
ag1304
ag2286
ag1307
ag1308
ag1309
ag1310
ag1311
a(lp2564
I362
ag2558
aag2287
ag1314
ag1315
ag1316
ag1317
ag1318
ag1319
ag1320
ag1321
ag1322
ag1323
ag2288
ag1326
ag1327
ag1328
ag1329
ag2289
ag1332
ag1333
ag1334
ag1335
ag1336
ag1337
ag1338
ag1339
ag1340
ag1341
ag1342
ag1343
a(lp2565
I392
ag2558
aag2290
ag1346
ag1347
ag1348
ag1349
ag2291
ag1353
ag1354
ag1355
ag2292
ag1358
ag1359
ag1360
ag1361
ag1362
ag2293
ag1365
ag1366
ag1367
ag1368
a(lp2566
I413
ag2554
aag2294
ag1372
ag1373
ag1374
ag2295
ag1378
ag1379
ag1380
ag2296
ag1383
ag1384
ag1385
ag1386
ag1387
ag2297
ag1391
ag1392
ag1393
ag2298
ag1396
ag1397
ag1398
ag1399
ag2299
ag1403
ag1404
ag1405
ag2300
ag1409
ag1410
ag2301
ag1414
ag1415
ag1416
ag2302
ag1419
ag1420
ag1421
ag1422
ag1423
ag1424
ag1425
ag1426
ag1427
ag1428
ag1429
ag2303
ag1433
ag1434
ag2304
ag1438
ag1439
ag2305
ag1442
ag1443
ag1444
ag1445
a(lp2567
I471
ag2558
aag2306
ag1449
ag1450
ag1451
ag1452
ag1453
ag2307
ag1456
ag2308
ag1459
ag1460
ag1461
ag1462
ag1463
ag1464
ag1465
ag2309
ag1469
ag1470
ag2310
ag1473
ag1474
ag1475
ag1476
ag1477
ag2311
ag1481
ag1482
ag1483
ag1484
ag2312
ag1488
ag1489
ag1490
ag1491
ag2313
ag1494
ag1495
ag1496
ag2314
ag1500
ag1501
ag2315
ag1504
ag1505
ag1506
ag1507
ag1508
ag1509
ag1510
a(lp2568
I522
ag2554
aag2316
ag1514
ag1515
ag1516
ag2317
ag1519
ag2318
ag1523
ag1524
ag2319
ag1527
ag1528
ag1529
ag1530
ag1531
ag1532
ag2320
ag1535
ag1536
ag1537
ag1538
ag1539
ag1540
ag1541
ag1542
ag1543
ag1544
a(lp2569
I550
ag2554
aag2321
ag1547
ag1548
ag1550
ag1551
ag2322
ag1554
ag1555
ag1556
ag1557
ag1558
ag1559
ag2323
ag1562
ag1563
ag1564
ag1565
ag1566
ag1567
ag1568
ag1569
ag1570
ag2324
ag1574
ag1575
ag1576
ag2325
ag1579
ag1581
ag1582
ag1583
ag1584
ag1585
ag1586
ag1587
ag1588
ag2326
ag1591
ag1592
ag1593
a(lp2570
I591
ag2554
aag2327
ag1596
ag2328
ag1600
ag1601
ag2329
ag1605
ag1606
ag2330
ag1610
ag1611
ag1612
ag2331
ag1616
ag1617
ag2332
ag1620
ag1621
ag1622
ag1623
ag1624
ag1625
ag1626
ag2333
ag1630
ag1631
ag1632
ag1633
ag2334
ag1637
ag1638
ag1639
ag2335
ag1642
ag1643
ag1644
ag1645
ag2336
ag1649
ag1650
ag2337
ag1653
ag1654
ag1655
ag1656
ag1657
ag2338
ag1660
ag1661
ag1662
ag2339
ag1666
ag1667
ag2340
ag1671
ag1672
ag1673
ag1674
ag2341
ag1677
ag1678
ag1679
ag1680
ag1681
ag1682
ag2342
ag1686
ag1687
ag1688
ag2343
ag1691
ag1692
ag1693
ag1694
ag1695
ag1696
ag2344
ag1700
ag1701
ag2345
ag1705
ag1706
ag1707
ag2346
ag1710
ag1711
ag1712
ag1713
ag1714
ag1715
ag1716
ag2347
ag1719
ag1720
ag1721
ag1722
a(lp2571
I688
ag2554
aag2348
ag1725
ag2349
ag1729
ag1730
ag2350
ag1734
ag1735
ag1736
ag2351
ag1739
ag1740
ag1741
ag1742
ag2352
ag1746
ag1747
ag2353
ag1750
ag1751
ag1752
ag1753
a(lp2572
I711
ag2554
aag2354
ag1756
ag2355
ag1760
ag1761
ag2356
ag1764
ag1765
ag1766
ag1767
ag1768
ag1769
ag1770
ag1771
ag1772
ag1773
ag2357
ag1777
ag1778
ag1779
ag1780
ag2358
ag1783
ag1784
ag1785
ag1786
ag1787
a(lp2573
I739
ag2558
aag2359
ag1791
ag1792
ag1793
ag2360
ag1796
ag1797
ag1798
ag1799
ag1800
ag1801
ag1802
ag1803
ag1804
ag2361
ag1807
ag1808
ag1809
ag1810
ag1811
ag1812
ag1814
ag1815
ag1816
ag2362
ag1820
ag1821
ag1822
ag1823
ag2363
ag1827
ag1828
ag2364
ag1831
ag1832
ag1833
ag1834
ag1835
ag2365
ag1839
ag1840
ag1841
ag1842
ag2366
ag1846
ag1847
ag2367
ag1850
ag1851
ag1852
ag1853
ag1854
a(lp2574
I792
ag2554
aag2368
ag1857
ag2369
ag1861
ag1862
ag2370
ag1866
ag1867
ag1868
ag2371
ag1871
ag1872
ag1873
ag1874
ag1875
ag1876
ag1877
ag1878
ag1879
ag1880
ag2372
ag1884
ag1885
ag2373
ag1888
ag1889
ag1890
ag1891
ag1892
ag1893
ag2374
ag1897
ag1898
ag2375
ag1902
ag1903
ag1904
ag1905
ag1906
ag2376
ag1909
ag1910
ag1911
ag1912
ag1913
ag2377
ag1916
ag1917
ag1918
ag1919
ag1920
ag2378
ag1924
ag1925
ag2379
ag1929
ag1930
ag1931
ag2380
ag1934
ag1935
ag1936
ag1937
ag1938
ag1939
ag1940
ag1941
ag1942
a(lp2575
I861
ag2554
aag2381
ag1945
ag2382
ag1949
ag1950
ag2383
ag1954
ag1955
ag1956
ag2384
ag1959
ag1960
ag1961
ag1962
ag1963
ag1964
ag1965
ag1966
a(lp2576
I880
ag2554
aag2385
ag1969
ag2386
ag1972
ag1973
ag1974
ag1975
ag1976
ag2387
ag1979
ag1980
ag1981
ag1982
ag2388
ag1986
ag1987
ag1988
ag2389
ag1991
ag1992
ag1993
ag1994
ag1995
ag1996
ag1997
ag1998
a(lp2577
I907
ag2554
aag2390
ag2001
ag2391
ag2005
ag2006
ag2392
ag2010
ag2011
a(lp2578
I916
aS"'"
p2579
aag2012
ag2393
ag2015
ag2016
ag2017
ag2018
ag2019
ag2020
ag2021
ag2022
ag2023
ag2024
ag2394
ag2028
ag2029
ag2030
ag2031
ag2395
ag2035
ag2036
ag2037
ag2396
ag2040
ag2041
ag2042
ag2043
ag2044
ag2045
ag2046
ag2397
ag2049
ag2050
ag2051
ag2052
a(lp2580
I951
ag2554
aag2398
ag2055
ag2399
ag2059
ag2060
ag2400
ag2064
ag2065
ag2066
ag2401
ag2069
ag2070
ag2071
ag2072
ag2073
ag2074
ag2075
ag2076
ag2077
ag2402
ag2081
ag2082
ag2403
ag2085
ag2086
ag2087
ag2088
ag2089
ag2090
a(lp2581
I981
ag2558
aag2404
ag2094
ag2095
ag2096
ag2405
ag2099
ag2100
ag2101
ag2102
ag2103
ag2104
ag2105
ag2406
ag2109
ag2110
ag2407
ag2114
ag2115
ag2116
ag2408
ag2119
ag2120
ag2121
ag2122
ag2123
ag2124
ag2125
ag2126
ag2409
ag2130
ag2131
ag2410
ag2135
ag2136
ag2137
a(lp2582
I1017
ag2554
aa(lp2583
I1018
ag2552
aag2411
a(lp2584
I1020
aS'|'
p2585
aag2412
a(lp2586
I1022
ag2585
aag2413
a(lp2587
I1024
ag2585
aag2414
a(lp2588
I1026
ag2585
aag2415
a(lp2589
I1028
ag2585
aag2416
a(lp2590
I1030
ag2585
aag2417
a(lp2591
I1032
ag2585
aag2418
a(lp2592
I1034
ag2585
aag2419
a(lp2593
I1036
ag2585
aag2420
a(lp2594
I1038
ag2585
aag2421
a(lp2595
I1040
ag2549
aag2140
ag2422
ag2143
ag2144
ag2145
ag2146
ag2147
ag2148
ag2149
ag2150
ag2423
ag2153
ag2154
ag2155
ag2156
ag2157
ag2424
ag2161
ag2162
ag2425
ag2166
ag2167
ag2168
ag2426
ag2171
ag2172
ag2173
ag2174
ag2175
ag2176
ag2427
ag2179
ag2180
ag2181
ag2182
ag2428
ag2185
ag2187
ag2189
ag2190
a(lp2596
I1081
ag2554
aag2429
ag2195
ag2196
ag2197
ag2430
ag2200
ag2201
ag2202
ag2203
ag2204
ag2205
ag2431
ag2208
ag2209
ag2210
ag2211
ag2212
ag2213
ag2214
ag2215
a(lp2597
I1102
ag2554
aag2432
a(lp2598
I1104
ag2549
aag2433
asS'docName'
p2599
S'source-document02759.txt'
p2600
sb.